ARM GAS  /var/folders/m4/4md61f0s1_g0rzfghffqnxvr0000gn/T//ccIgp93O.s 			page 1


   1              		.syntax unified
   2              		.cpu cortex-m4
   3              		.eabi_attribute 27, 1
   4              		.eabi_attribute 28, 1
   5              		.fpu fpv4-sp-d16
   6              		.eabi_attribute 20, 1
   7              		.eabi_attribute 21, 1
   8              		.eabi_attribute 23, 3
   9              		.eabi_attribute 24, 1
  10              		.eabi_attribute 25, 1
  11              		.eabi_attribute 26, 1
  12              		.eabi_attribute 30, 2
  13              		.eabi_attribute 34, 1
  14              		.eabi_attribute 18, 4
  15              		.thumb
  16              		.file	"adc.c"
  17              		.text
  18              	.Ltext0:
  19              		.cfi_sections	.debug_frame
  20              		.section	.text.adcInit,"ax",%progbits
  21              		.align	2
  22              		.p2align 4,,15
  23              		.global	adcInit
  24              		.thumb
  25              		.thumb_func
  26              		.type	adcInit, %function
  27              	adcInit:
  28              	.LFB268:
  29              		.file 1 "ChibiOS_16.1.4/os/hal/src/adc.c"
  30              		.loc 1 56 0
  31              		.cfi_startproc
  32              		@ args = 0, pretend = 0, frame = 0
  33              		@ frame_needed = 0, uses_anonymous_args = 0
  34              		@ link register save eliminated.
  35              		.loc 1 58 0
  36 0000 FFF7FEBF 		b	adc_lld_init
  37              	.LVL0:
  38              		.cfi_endproc
  39              	.LFE268:
  40              		.size	adcInit, .-adcInit
  41              		.section	.text.adcObjectInit,"ax",%progbits
  42              		.align	2
  43              		.p2align 4,,15
  44              		.global	adcObjectInit
  45              		.thumb
  46              		.thumb_func
  47              		.type	adcObjectInit, %function
  48              	adcObjectInit:
  49              	.LFB269:
  50              		.loc 1 68 0
  51              		.cfi_startproc
  52              		@ args = 0, pretend = 0, frame = 0
  53              		@ frame_needed = 0, uses_anonymous_args = 0
  54              		@ link register save eliminated.
  55              	.LVL1:
  56              		.loc 1 71 0
  57 0000 0023     		movs	r3, #0
ARM GAS  /var/folders/m4/4md61f0s1_g0rzfghffqnxvr0000gn/T//ccIgp93O.s 			page 2


  58              		.loc 1 70 0
  59 0002 0122     		movs	r2, #1
  60 0004 0270     		strb	r2, [r0]
  61              		.loc 1 71 0
  62 0006 4360     		str	r3, [r0, #4]
  63              		.loc 1 72 0
  64 0008 8360     		str	r3, [r0, #8]
  65              		.loc 1 73 0
  66 000a C360     		str	r3, [r0, #12]
  67              		.loc 1 74 0
  68 000c 0361     		str	r3, [r0, #16]
  69              		.loc 1 76 0
  70 000e 4361     		str	r3, [r0, #20]
  71              	.LVL2:
  72              	.LBB105:
  73              	.LBB106:
  74              		.file 2 "ChibiOS_16.1.4/os/hal/osal/rt/osal.h"
  75              		.loc 2 887 0
  76 0010 1830     		adds	r0, r0, #24
  77              	.LVL3:
  78 0012 FFF7FEBF 		b	chMtxObjectInit
  79              	.LVL4:
  80              	.LBE106:
  81              	.LBE105:
  82              		.cfi_endproc
  83              	.LFE269:
  84              		.size	adcObjectInit, .-adcObjectInit
  85 0016 00BF     		.section	.text.adcStart,"ax",%progbits
  86              		.align	2
  87              		.p2align 4,,15
  88              		.global	adcStart
  89              		.thumb
  90              		.thumb_func
  91              		.type	adcStart, %function
  92              	adcStart:
  93              	.LFB270:
  94              		.loc 1 95 0
  95              		.cfi_startproc
  96              		@ args = 0, pretend = 0, frame = 0
  97              		@ frame_needed = 0, uses_anonymous_args = 0
  98              	.LVL5:
  99 0000 10B5     		push	{r4, lr}
 100              		.cfi_def_cfa_offset 8
 101              		.cfi_offset 4, -8
 102              		.cfi_offset 14, -4
 103              	.LBB107:
 104              	.LBB108:
 105              	.LBB109:
 106              	.LBB110:
 107              	.LBB111:
 108              		.file 3 "ChibiOS_16.1.4/os/ext/CMSIS/include/core_cmFunc.h"
 109              		.loc 3 548 0
 110 0002 2023     		movs	r3, #32
 111              	.LBE111:
 112              	.LBE110:
 113              	.LBE109:
 114              	.LBE108:
ARM GAS  /var/folders/m4/4md61f0s1_g0rzfghffqnxvr0000gn/T//ccIgp93O.s 			page 3


 115              	.LBE107:
 116              		.loc 1 95 0
 117 0004 0446     		mov	r4, r0
 118              	.LBB116:
 119              	.LBB115:
 120              	.LBB114:
 121              	.LBB113:
 122              	.LBB112:
 123              		.loc 3 548 0
 124              	@ 548 "ChibiOS_16.1.4/os/ext/CMSIS/include/core_cmFunc.h" 1
 125 0006 83F31188 		MSR basepri, r3
 126              	@ 0 "" 2
 127              		.thumb
 128              	.LBE112:
 129              	.LBE113:
 130              	.LBE114:
 131              	.LBE115:
 132              	.LBE116:
 133              		.loc 1 102 0
 134 000a 4160     		str	r1, [r0, #4]
 135              		.loc 1 103 0
 136 000c FFF7FEFF 		bl	adc_lld_start
 137              	.LVL6:
 138              		.loc 1 104 0
 139 0010 0223     		movs	r3, #2
 140 0012 2370     		strb	r3, [r4]
 141              	.LVL7:
 142              	.LBB117:
 143              	.LBB118:
 144              	.LBB119:
 145              	.LBB120:
 146              	.LBB121:
 147              	.LBB122:
 148              		.loc 3 548 0
 149 0014 0023     		movs	r3, #0
 150              	@ 548 "ChibiOS_16.1.4/os/ext/CMSIS/include/core_cmFunc.h" 1
 151 0016 83F31188 		MSR basepri, r3
 152              	@ 0 "" 2
 153              		.thumb
 154 001a 10BD     		pop	{r4, pc}
 155              	.LBE122:
 156              	.LBE121:
 157              	.LBE120:
 158              	.LBE119:
 159              	.LBE118:
 160              	.LBE117:
 161              		.cfi_endproc
 162              	.LFE270:
 163              		.size	adcStart, .-adcStart
 164              		.section	.text.adcStop,"ax",%progbits
 165              		.align	2
 166              		.p2align 4,,15
 167              		.global	adcStop
 168              		.thumb
 169              		.thumb_func
 170              		.type	adcStop, %function
 171              	adcStop:
ARM GAS  /var/folders/m4/4md61f0s1_g0rzfghffqnxvr0000gn/T//ccIgp93O.s 			page 4


 172              	.LFB271:
 173              		.loc 1 115 0
 174              		.cfi_startproc
 175              		@ args = 0, pretend = 0, frame = 0
 176              		@ frame_needed = 0, uses_anonymous_args = 0
 177              	.LVL8:
 178 0000 10B5     		push	{r4, lr}
 179              		.cfi_def_cfa_offset 8
 180              		.cfi_offset 4, -8
 181              		.cfi_offset 14, -4
 182              	.LBB123:
 183              	.LBB124:
 184              	.LBB125:
 185              	.LBB126:
 186              	.LBB127:
 187              		.loc 3 548 0
 188 0002 2023     		movs	r3, #32
 189              	.LBE127:
 190              	.LBE126:
 191              	.LBE125:
 192              	.LBE124:
 193              	.LBE123:
 194              		.loc 1 115 0
 195 0004 0446     		mov	r4, r0
 196              	.LBB132:
 197              	.LBB131:
 198              	.LBB130:
 199              	.LBB129:
 200              	.LBB128:
 201              		.loc 3 548 0
 202              	@ 548 "ChibiOS_16.1.4/os/ext/CMSIS/include/core_cmFunc.h" 1
 203 0006 83F31188 		MSR basepri, r3
 204              	@ 0 "" 2
 205              		.thumb
 206              	.LBE128:
 207              	.LBE129:
 208              	.LBE130:
 209              	.LBE131:
 210              	.LBE132:
 211              		.loc 1 122 0
 212 000a FFF7FEFF 		bl	adc_lld_stop
 213              	.LVL9:
 214              		.loc 1 123 0
 215 000e 0123     		movs	r3, #1
 216 0010 2370     		strb	r3, [r4]
 217              	.LVL10:
 218              	.LBB133:
 219              	.LBB134:
 220              	.LBB135:
 221              	.LBB136:
 222              	.LBB137:
 223              	.LBB138:
 224              		.loc 3 548 0
 225 0012 0023     		movs	r3, #0
 226              	@ 548 "ChibiOS_16.1.4/os/ext/CMSIS/include/core_cmFunc.h" 1
 227 0014 83F31188 		MSR basepri, r3
 228              	@ 0 "" 2
ARM GAS  /var/folders/m4/4md61f0s1_g0rzfghffqnxvr0000gn/T//ccIgp93O.s 			page 5


 229              		.thumb
 230 0018 10BD     		pop	{r4, pc}
 231              	.LBE138:
 232              	.LBE137:
 233              	.LBE136:
 234              	.LBE135:
 235              	.LBE134:
 236              	.LBE133:
 237              		.cfi_endproc
 238              	.LFE271:
 239              		.size	adcStop, .-adcStop
 240 001a 00BF     		.section	.text.adcStartConversion,"ax",%progbits
 241              		.align	2
 242              		.p2align 4,,15
 243              		.global	adcStartConversion
 244              		.thumb
 245              		.thumb_func
 246              		.type	adcStartConversion, %function
 247              	adcStartConversion:
 248              	.LFB272:
 249              		.loc 1 146 0
 250              		.cfi_startproc
 251              		@ args = 0, pretend = 0, frame = 0
 252              		@ frame_needed = 0, uses_anonymous_args = 0
 253              	.LVL11:
 254 0000 38B5     		push	{r3, r4, r5, lr}
 255              		.cfi_def_cfa_offset 16
 256              		.cfi_offset 3, -16
 257              		.cfi_offset 4, -12
 258              		.cfi_offset 5, -8
 259              		.cfi_offset 14, -4
 260              	.LBB139:
 261              	.LBB140:
 262              	.LBB141:
 263              	.LBB142:
 264              	.LBB143:
 265              		.loc 3 548 0
 266 0002 2025     		movs	r5, #32
 267              	@ 548 "ChibiOS_16.1.4/os/ext/CMSIS/include/core_cmFunc.h" 1
 268 0004 85F31188 		MSR basepri, r5
 269              	@ 0 "" 2
 270              	.LVL12:
 271              		.thumb
 272              	.LBE143:
 273              	.LBE142:
 274              	.LBE141:
 275              	.LBE140:
 276              	.LBE139:
 277              	.LBB144:
 278              	.LBB145:
 279              		.loc 1 187 0
 280 0008 0325     		movs	r5, #3
 281              		.loc 1 185 0
 282 000a C360     		str	r3, [r0, #12]
 283              		.loc 1 184 0
 284 000c 8260     		str	r2, [r0, #8]
 285              		.loc 1 186 0
ARM GAS  /var/folders/m4/4md61f0s1_g0rzfghffqnxvr0000gn/T//ccIgp93O.s 			page 6


 286 000e 0161     		str	r1, [r0, #16]
 287              		.loc 1 187 0
 288 0010 0570     		strb	r5, [r0]
 289              		.loc 1 188 0
 290 0012 FFF7FEFF 		bl	adc_lld_start_conversion
 291              	.LVL13:
 292              	.LBE145:
 293              	.LBE144:
 294              	.LBB146:
 295              	.LBB147:
 296              	.LBB148:
 297              	.LBB149:
 298              	.LBB150:
 299              	.LBB151:
 300              		.loc 3 548 0
 301 0016 0023     		movs	r3, #0
 302              	@ 548 "ChibiOS_16.1.4/os/ext/CMSIS/include/core_cmFunc.h" 1
 303 0018 83F31188 		MSR basepri, r3
 304              	@ 0 "" 2
 305              		.thumb
 306 001c 38BD     		pop	{r3, r4, r5, pc}
 307              	.LBE151:
 308              	.LBE150:
 309              	.LBE149:
 310              	.LBE148:
 311              	.LBE147:
 312              	.LBE146:
 313              		.cfi_endproc
 314              	.LFE272:
 315              		.size	adcStartConversion, .-adcStartConversion
 316 001e 00BF     		.section	.text.adcStartConversionI,"ax",%progbits
 317              		.align	2
 318              		.p2align 4,,15
 319              		.global	adcStartConversionI
 320              		.thumb
 321              		.thumb_func
 322              		.type	adcStartConversionI, %function
 323              	adcStartConversionI:
 324              	.LFB273:
 325              		.loc 1 174 0
 326              		.cfi_startproc
 327              		@ args = 0, pretend = 0, frame = 0
 328              		@ frame_needed = 0, uses_anonymous_args = 0
 329              		@ link register save eliminated.
 330              	.LVL14:
 331 0000 30B4     		push	{r4, r5}
 332              		.cfi_def_cfa_offset 8
 333              		.cfi_offset 4, -8
 334              		.cfi_offset 5, -4
 335              		.loc 1 187 0
 336 0002 0325     		movs	r5, #3
 337 0004 0570     		strb	r5, [r0]
 338              		.loc 1 184 0
 339 0006 8260     		str	r2, [r0, #8]
 340              		.loc 1 185 0
 341 0008 C360     		str	r3, [r0, #12]
 342              		.loc 1 186 0
ARM GAS  /var/folders/m4/4md61f0s1_g0rzfghffqnxvr0000gn/T//ccIgp93O.s 			page 7


 343 000a 0161     		str	r1, [r0, #16]
 344              		.loc 1 189 0
 345 000c 30BC     		pop	{r4, r5}
 346              		.cfi_restore 5
 347              		.cfi_restore 4
 348              		.cfi_def_cfa_offset 0
 349              		.loc 1 188 0
 350 000e FFF7FEBF 		b	adc_lld_start_conversion
 351              	.LVL15:
 352              		.cfi_endproc
 353              	.LFE273:
 354              		.size	adcStartConversionI, .-adcStartConversionI
 355 0012 00BF     		.section	.text.adcStopConversion,"ax",%progbits
 356              		.align	2
 357              		.p2align 4,,15
 358              		.global	adcStopConversion
 359              		.thumb
 360              		.thumb_func
 361              		.type	adcStopConversion, %function
 362              	adcStopConversion:
 363              	.LFB274:
 364              		.loc 1 201 0
 365              		.cfi_startproc
 366              		@ args = 0, pretend = 0, frame = 0
 367              		@ frame_needed = 0, uses_anonymous_args = 0
 368              	.LVL16:
 369              	.LBB152:
 370              	.LBB153:
 371              	.LBB154:
 372              	.LBB155:
 373              	.LBB156:
 374              		.loc 3 548 0
 375 0000 2022     		movs	r2, #32
 376              	@ 548 "ChibiOS_16.1.4/os/ext/CMSIS/include/core_cmFunc.h" 1
 377 0002 82F31188 		MSR basepri, r2
 378              	@ 0 "" 2
 379              		.thumb
 380              	.LBE156:
 381              	.LBE155:
 382              	.LBE154:
 383              	.LBE153:
 384              	.LBE152:
 385              		.loc 1 208 0
 386 0006 0278     		ldrb	r2, [r0]	@ zero_extendqisi2
 387 0008 022A     		cmp	r2, #2
 388 000a 11D0     		beq	.L17
 389              		.loc 1 201 0
 390 000c 10B5     		push	{r4, lr}
 391              		.cfi_def_cfa_offset 8
 392              		.cfi_offset 4, -8
 393              		.cfi_offset 14, -4
 394 000e 0446     		mov	r4, r0
 395              		.loc 1 209 0
 396 0010 FFF7FEFF 		bl	adc_lld_stop_conversion
 397              	.LVL17:
 398              		.loc 1 211 0
 399 0014 2046     		mov	r0, r4
ARM GAS  /var/folders/m4/4md61f0s1_g0rzfghffqnxvr0000gn/T//ccIgp93O.s 			page 8


 400              		.loc 1 210 0
 401 0016 0022     		movs	r2, #0
 402              		.loc 1 211 0
 403 0018 0223     		movs	r3, #2
 404              		.loc 1 210 0
 405 001a 2261     		str	r2, [r4, #16]
 406              	.LBB157:
 407              	.LBB158:
 408              		.loc 2 743 0
 409 001c 6FF00101 		mvn	r1, #1
 410              	.LBE158:
 411              	.LBE157:
 412              		.loc 1 211 0
 413 0020 00F8143B 		strb	r3, [r0], #20
 414              	.LVL18:
 415              	.LBB160:
 416              	.LBB159:
 417              		.loc 2 743 0
 418 0024 FFF7FEFF 		bl	chThdResumeS
 419              	.LVL19:
 420              	.LBE159:
 421              	.LBE160:
 422              	.LBB161:
 423              	.LBB162:
 424              	.LBB163:
 425              	.LBB164:
 426              	.LBB165:
 427              	.LBB166:
 428              		.loc 3 548 0
 429 0028 0023     		movs	r3, #0
 430              	@ 548 "ChibiOS_16.1.4/os/ext/CMSIS/include/core_cmFunc.h" 1
 431 002a 83F31188 		MSR basepri, r3
 432              	@ 0 "" 2
 433              		.thumb
 434 002e 10BD     		pop	{r4, pc}
 435              	.LVL20:
 436              	.L17:
 437              		.cfi_def_cfa_offset 0
 438              		.cfi_restore 4
 439              		.cfi_restore 14
 440 0030 0023     		movs	r3, #0
 441              	@ 548 "ChibiOS_16.1.4/os/ext/CMSIS/include/core_cmFunc.h" 1
 442 0032 83F31188 		MSR basepri, r3
 443              	@ 0 "" 2
 444              		.thumb
 445 0036 7047     		bx	lr
 446              	.LBE166:
 447              	.LBE165:
 448              	.LBE164:
 449              	.LBE163:
 450              	.LBE162:
 451              	.LBE161:
 452              		.cfi_endproc
 453              	.LFE274:
 454              		.size	adcStopConversion, .-adcStopConversion
 455              		.section	.text.adcStopConversionI,"ax",%progbits
 456              		.align	2
ARM GAS  /var/folders/m4/4md61f0s1_g0rzfghffqnxvr0000gn/T//ccIgp93O.s 			page 9


 457              		.p2align 4,,15
 458              		.global	adcStopConversionI
 459              		.thumb
 460              		.thumb_func
 461              		.type	adcStopConversionI, %function
 462              	adcStopConversionI:
 463              	.LFB275:
 464              		.loc 1 227 0
 465              		.cfi_startproc
 466              		@ args = 0, pretend = 0, frame = 0
 467              		@ frame_needed = 0, uses_anonymous_args = 0
 468              	.LVL21:
 469              		.loc 1 236 0
 470 0000 0278     		ldrb	r2, [r0]	@ zero_extendqisi2
 471 0002 022A     		cmp	r2, #2
 472 0004 0FD0     		beq	.L22
 473              		.loc 1 227 0
 474 0006 10B5     		push	{r4, lr}
 475              		.cfi_def_cfa_offset 8
 476              		.cfi_offset 4, -8
 477              		.cfi_offset 14, -4
 478 0008 0446     		mov	r4, r0
 479              		.loc 1 237 0
 480 000a FFF7FEFF 		bl	adc_lld_stop_conversion
 481              	.LVL22:
 482              		.loc 1 239 0
 483 000e 2046     		mov	r0, r4
 484              		.loc 1 238 0
 485 0010 0022     		movs	r2, #0
 486              		.loc 1 239 0
 487 0012 0223     		movs	r3, #2
 488              		.loc 1 238 0
 489 0014 2261     		str	r2, [r4, #16]
 490              	.LBB167:
 491              	.LBB168:
 492              		.loc 2 728 0
 493 0016 6FF00101 		mvn	r1, #1
 494              	.LBE168:
 495              	.LBE167:
 496              		.loc 1 239 0
 497 001a 00F8143B 		strb	r3, [r0], #20
 498              	.LVL23:
 499              		.loc 1 242 0
 500 001e BDE81040 		pop	{r4, lr}
 501              		.cfi_restore 14
 502              		.cfi_restore 4
 503              		.cfi_def_cfa_offset 0
 504              	.LVL24:
 505              	.LBB170:
 506              	.LBB169:
 507              		.loc 2 728 0
 508 0022 FFF7FEBF 		b	chThdResumeI
 509              	.LVL25:
 510              	.L22:
 511 0026 7047     		bx	lr
 512              	.LBE169:
 513              	.LBE170:
ARM GAS  /var/folders/m4/4md61f0s1_g0rzfghffqnxvr0000gn/T//ccIgp93O.s 			page 10


 514              		.cfi_endproc
 515              	.LFE275:
 516              		.size	adcStopConversionI, .-adcStopConversionI
 517              		.section	.text.adcConvert,"ax",%progbits
 518              		.align	2
 519              		.p2align 4,,15
 520              		.global	adcConvert
 521              		.thumb
 522              		.thumb_func
 523              		.type	adcConvert, %function
 524              	adcConvert:
 525              	.LFB276:
 526              		.loc 1 271 0
 527              		.cfi_startproc
 528              		@ args = 0, pretend = 0, frame = 0
 529              		@ frame_needed = 0, uses_anonymous_args = 0
 530              	.LVL26:
 531 0000 70B5     		push	{r4, r5, r6, lr}
 532              		.cfi_def_cfa_offset 16
 533              		.cfi_offset 4, -16
 534              		.cfi_offset 5, -12
 535              		.cfi_offset 6, -8
 536              		.cfi_offset 14, -4
 537              	.LBB171:
 538              	.LBB172:
 539              	.LBB173:
 540              	.LBB174:
 541              	.LBB175:
 542              		.loc 3 548 0
 543 0002 2025     		movs	r5, #32
 544              	@ 548 "ChibiOS_16.1.4/os/ext/CMSIS/include/core_cmFunc.h" 1
 545 0004 85F31188 		MSR basepri, r5
 546              	@ 0 "" 2
 547              	.LVL27:
 548              		.thumb
 549              	.LBE175:
 550              	.LBE174:
 551              	.LBE173:
 552              	.LBE172:
 553              	.LBE171:
 554              	.LBB176:
 555              	.LBB177:
 556              		.loc 1 187 0
 557 0008 0546     		mov	r5, r0
 558 000a 0326     		movs	r6, #3
 559              		.loc 1 184 0
 560 000c 8260     		str	r2, [r0, #8]
 561              		.loc 1 185 0
 562 000e C360     		str	r3, [r0, #12]
 563              		.loc 1 186 0
 564 0010 0161     		str	r1, [r0, #16]
 565              		.loc 1 187 0
 566 0012 05F8146B 		strb	r6, [r5], #20
 567              		.loc 1 188 0
 568 0016 FFF7FEFF 		bl	adc_lld_start_conversion
 569              	.LVL28:
 570              	.LBE177:
ARM GAS  /var/folders/m4/4md61f0s1_g0rzfghffqnxvr0000gn/T//ccIgp93O.s 			page 11


 571              	.LBE176:
 572              	.LBB178:
 573              	.LBB179:
 574              		.loc 2 688 0
 575 001a 2846     		mov	r0, r5
 576 001c FFF7FEFF 		bl	chThdSuspendS
 577              	.LVL29:
 578              	.LBE179:
 579              	.LBE178:
 580              	.LBB180:
 581              	.LBB181:
 582              	.LBB182:
 583              	.LBB183:
 584              	.LBB184:
 585              	.LBB185:
 586              		.loc 3 548 0
 587 0020 0023     		movs	r3, #0
 588              	@ 548 "ChibiOS_16.1.4/os/ext/CMSIS/include/core_cmFunc.h" 1
 589 0022 83F31188 		MSR basepri, r3
 590              	@ 0 "" 2
 591              		.thumb
 592              	.LBE185:
 593              	.LBE184:
 594              	.LBE183:
 595              	.LBE182:
 596              	.LBE181:
 597              	.LBE180:
 598              		.loc 1 280 0
 599 0026 70BD     		pop	{r4, r5, r6, pc}
 600              		.cfi_endproc
 601              	.LFE276:
 602              		.size	adcConvert, .-adcConvert
 603              		.section	.text.adcAcquireBus,"ax",%progbits
 604              		.align	2
 605              		.p2align 4,,15
 606              		.global	adcAcquireBus
 607              		.thumb
 608              		.thumb_func
 609              		.type	adcAcquireBus, %function
 610              	adcAcquireBus:
 611              	.LFB277:
 612              		.loc 1 295 0
 613              		.cfi_startproc
 614              		@ args = 0, pretend = 0, frame = 0
 615              		@ frame_needed = 0, uses_anonymous_args = 0
 616              		@ link register save eliminated.
 617              	.LVL30:
 618              	.LBB186:
 619              	.LBB187:
 620              		.loc 2 907 0
 621 0000 1830     		adds	r0, r0, #24
 622              	.LVL31:
 623 0002 FFF7FEBF 		b	chMtxLock
 624              	.LVL32:
 625              	.LBE187:
 626              	.LBE186:
 627              		.cfi_endproc
ARM GAS  /var/folders/m4/4md61f0s1_g0rzfghffqnxvr0000gn/T//ccIgp93O.s 			page 12


 628              	.LFE277:
 629              		.size	adcAcquireBus, .-adcAcquireBus
 630 0006 00BF     		.section	.text.adcReleaseBus,"ax",%progbits
 631              		.align	2
 632              		.p2align 4,,15
 633              		.global	adcReleaseBus
 634              		.thumb
 635              		.thumb_func
 636              		.type	adcReleaseBus, %function
 637              	adcReleaseBus:
 638              	.LFB278:
 639              		.loc 1 311 0
 640              		.cfi_startproc
 641              		@ args = 0, pretend = 0, frame = 0
 642              		@ frame_needed = 0, uses_anonymous_args = 0
 643              		@ link register save eliminated.
 644              	.LVL33:
 645              	.LBB188:
 646              	.LBB189:
 647              		.loc 2 931 0
 648 0000 1830     		adds	r0, r0, #24
 649              	.LVL34:
 650 0002 FFF7FEBF 		b	chMtxUnlock
 651              	.LVL35:
 652              	.LBE189:
 653              	.LBE188:
 654              		.cfi_endproc
 655              	.LFE278:
 656              		.size	adcReleaseBus, .-adcReleaseBus
 657 0006 00BF     		.text
 658              	.Letext0:
 659              		.file 4 "/usr/local/Cellar/gcc-arm-none-eabi-49/20150609/lib/gcc/arm-none-eabi/4.9.3/include/stdde
 660              		.file 5 "/usr/local/Cellar/gcc-arm-none-eabi-49/20150609/arm-none-eabi/include/machine/_default_ty
 661              		.file 6 "/usr/local/Cellar/gcc-arm-none-eabi-49/20150609/arm-none-eabi/include/sys/_stdint.h"
 662              		.file 7 "ChibiOS_16.1.4/os/rt/ports/ARMCMx/compilers/GCC/chtypes.h"
 663              		.file 8 "ChibiOS_16.1.4/os/rt/include/chsystypes.h"
 664              		.file 9 "ChibiOS_16.1.4/os/rt/include/chschd.h"
 665              		.file 10 "ChibiOS_16.1.4/os/ext/CMSIS/ST/STM32F4xx/stm32f446xx.h"
 666              		.file 11 "ChibiOS_16.1.4/os/rt/ports/ARMCMx/chcore.h"
 667              		.file 12 "ChibiOS_16.1.4/os/rt/ports/ARMCMx/chcore_v7m.h"
 668              		.file 13 "ChibiOS_16.1.4/os/rt/include/chtm.h"
 669              		.file 14 "ChibiOS_16.1.4/os/rt/include/chsem.h"
 670              		.file 15 "ChibiOS_16.1.4/os/rt/include/chmtx.h"
 671              		.file 16 "ChibiOS_16.1.4/os/hal/ports/STM32/LLD/DMAv2/stm32_dma.h"
 672              		.file 17 "ChibiOS_16.1.4/os/hal/include/adc.h"
 673              		.file 18 "ChibiOS_16.1.4/os/hal/ports/STM32/LLD/ADCv2/adc_lld.h"
 674              		.file 19 "ChibiOS_16.1.4/os/rt/include/chsys.h"
 675              		.file 20 "ChibiOS_16.1.4/os/rt/include/chthreads.h"
 676              		.file 21 "ChibiOS_16.1.4/os/ext/CMSIS/include/core_cm4.h"