ARM GAS  /var/folders/m4/4md61f0s1_g0rzfghffqnxvr0000gn/T//cc9zLe0i.s 			page 1


   1              		.syntax unified
   2              		.cpu cortex-m4
   3              		.eabi_attribute 27, 1
   4              		.eabi_attribute 28, 1
   5              		.fpu fpv4-sp-d16
   6              		.eabi_attribute 20, 1
   7              		.eabi_attribute 21, 1
   8              		.eabi_attribute 23, 3
   9              		.eabi_attribute 24, 1
  10              		.eabi_attribute 25, 1
  11              		.eabi_attribute 26, 1
  12              		.eabi_attribute 30, 2
  13              		.eabi_attribute 34, 1
  14              		.eabi_attribute 18, 4
  15              		.thumb
  16              		.syntax unified
  17              		.file	"adc_lld.c"
  18              		.text
  19              	.Ltext0:
  20              		.cfi_sections	.debug_frame
  21              		.section	.text.adc_lld_serve_rx_interrupt,"ax",%progbits
  22              		.align	2
  23              		.p2align 4,,15
  24              		.thumb
  25              		.thumb_func
  26              		.type	adc_lld_serve_rx_interrupt, %function
  27              	adc_lld_serve_rx_interrupt:
  28              	.LFB268:
  29              		.file 1 "ChibiOS_16.1.4/os/hal/ports/STM32/LLD/ADCv2/adc_lld.c"
  30              		.loc 1 75 0
  31              		.cfi_startproc
  32              		@ args = 0, pretend = 0, frame = 0
  33              		@ frame_needed = 0, uses_anonymous_args = 0
  34              	.LVL0:
  35              		.loc 1 78 0
  36 0000 11F00C0F 		tst	r1, #12
  37              		.loc 1 75 0
  38 0004 2DE9F041 		push	{r4, r5, r6, r7, r8, lr}
  39              		.cfi_def_cfa_offset 24
  40              		.cfi_offset 4, -24
  41              		.cfi_offset 5, -20
  42              		.cfi_offset 6, -16
  43              		.cfi_offset 7, -12
  44              		.cfi_offset 8, -8
  45              		.cfi_offset 14, -4
  46              		.loc 1 75 0
  47 0008 0446     		mov	r4, r0
  48              		.loc 1 78 0
  49 000a 2ED0     		beq	.L2
  50              	.LVL1:
  51              	.LBB127:
  52              	.LBB128:
  53              		.loc 1 376 0
  54 000c C06A     		ldr	r0, [r0, #44]
  55              	.LVL2:
  56 000e 0368     		ldr	r3, [r0]
  57 0010 1A68     		ldr	r2, [r3]
ARM GAS  /var/folders/m4/4md61f0s1_g0rzfghffqnxvr0000gn/T//cc9zLe0i.s 			page 2


  58 0012 22F01F02 		bic	r2, r2, #31
  59 0016 1A60     		str	r2, [r3]
  60              	.LVL3:
  61              	.L3:
  62 0018 1968     		ldr	r1, [r3]
  63 001a 11F00101 		ands	r1, r1, #1
  64 001e FBD1     		bne	.L3
  65              	.LBE128:
  66              	.LBE127:
  67              		.loc 1 81 0
  68 0020 2269     		ldr	r2, [r4, #16]
  69              	.LBB131:
  70              	.LBB129:
  71              		.loc 1 376 0
  72 0022 077A     		ldrb	r7, [r0, #8]	@ zero_extendqisi2
  73 0024 4668     		ldr	r6, [r0, #4]
  74              	.LBE129:
  75              	.LBE131:
  76              		.loc 1 81 0
  77 0026 9568     		ldr	r5, [r2, #8]
  78              	.LBB132:
  79              	.LBB130:
  80              		.loc 1 377 0
  81 0028 A36A     		ldr	r3, [r4, #40]
  82              		.loc 1 376 0
  83 002a 3D22     		movs	r2, #61
  84 002c BA40     		lsls	r2, r2, r7
  85              		.loc 1 379 0
  86 002e 0120     		movs	r0, #1
  87              		.loc 1 376 0
  88 0030 3260     		str	r2, [r6]
  89              		.loc 1 377 0
  90 0032 5960     		str	r1, [r3, #4]
  91              		.loc 1 378 0
  92 0034 9960     		str	r1, [r3, #8]
  93              		.loc 1 379 0
  94 0036 9860     		str	r0, [r3, #8]
  95              	.LVL4:
  96              	.LBE130:
  97              	.LBE132:
  98              		.loc 1 81 0
  99 0038 45B1     		cbz	r5, .L5
 100              		.loc 1 81 0 is_stmt 0 discriminator 1
 101 003a 0523     		movs	r3, #5
 102 003c 2370     		strb	r3, [r4]
 103 003e 2046     		mov	r0, r4
 104 0040 A847     		blx	r5
 105              	.LVL5:
 106 0042 2378     		ldrb	r3, [r4]	@ zero_extendqisi2
 107 0044 052B     		cmp	r3, #5
 108 0046 04BF     		itt	eq
 109 0048 0223     		moveq	r3, #2
 110 004a 2370     		strbeq	r3, [r4]
 111              	.L5:
 112              		.loc 1 81 0 discriminator 5
 113 004c 0025     		movs	r5, #0
 114 004e 2561     		str	r5, [r4, #16]
ARM GAS  /var/folders/m4/4md61f0s1_g0rzfghffqnxvr0000gn/T//cc9zLe0i.s 			page 3


 115              	.LVL6:
 116              	.LBB133:
 117              	.LBB134:
 118              	.LBB135:
 119              	.LBB136:
 120              	.LBB137:
 121              	.LBB138:
 122              		.file 2 "ChibiOS_16.1.4/os/ext/CMSIS/include/core_cmFunc.h"
 123              		.loc 2 548 0 is_stmt 1 discriminator 5
 124 0050 2023     		movs	r3, #32
 125              		.syntax unified
 126              	@ 548 "ChibiOS_16.1.4/os/ext/CMSIS/include/core_cmFunc.h" 1
 127 0052 83F31188 		MSR basepri, r3
 128              	@ 0 "" 2
 129              	.LVL7:
 130              		.thumb
 131              		.syntax unified
 132              	.LBE138:
 133              	.LBE137:
 134              	.LBE136:
 135              	.LBE135:
 136              	.LBE134:
 137              	.LBE133:
 138              	.LBB139:
 139              	.LBB140:
 140              		.file 3 "ChibiOS_16.1.4/os/hal/osal/rt/osal.h"
 141              		.loc 3 728 0 discriminator 5
 142 0056 4FF0FF31 		mov	r1, #-1
 143 005a 04F11400 		add	r0, r4, #20
 144              	.LVL8:
 145 005e FFF7FEFF 		bl	chThdResumeI
 146              	.LVL9:
 147              	.LBE140:
 148              	.LBE139:
 149              	.LBB141:
 150              	.LBB142:
 151              	.LBB143:
 152              	.LBB144:
 153              	.LBB145:
 154              	.LBB146:
 155              		.loc 2 548 0 discriminator 5
 156              		.syntax unified
 157              	@ 548 "ChibiOS_16.1.4/os/ext/CMSIS/include/core_cmFunc.h" 1
 158 0062 85F31188 		MSR basepri, r5
 159              	@ 0 "" 2
 160              	.LVL10:
 161              		.thumb
 162              		.syntax unified
 163 0066 BDE8F081 		pop	{r4, r5, r6, r7, r8, pc}
 164              	.LVL11:
 165              	.L2:
 166              	.LBE146:
 167              	.LBE145:
 168              	.LBE144:
 169              	.LBE143:
 170              	.LBE142:
 171              	.LBE141:
ARM GAS  /var/folders/m4/4md61f0s1_g0rzfghffqnxvr0000gn/T//cc9zLe0i.s 			page 4


 172              		.loc 1 86 0
 173 006a 0569     		ldr	r5, [r0, #16]
 174 006c A5B1     		cbz	r5, .L1
 175              		.loc 1 88 0
 176 006e 8A06     		lsls	r2, r1, #26
 177 0070 10D5     		bpl	.L8
 178              		.loc 1 90 0
 179 0072 2B78     		ldrb	r3, [r5]	@ zero_extendqisi2
 180 0074 DBB1     		cbz	r3, .L9
 181              		.loc 1 90 0 is_stmt 0 discriminator 1
 182 0076 6B68     		ldr	r3, [r5, #4]
 183 0078 73B1     		cbz	r3, .L1
 184              		.loc 1 90 0 discriminator 3
 185 007a C268     		ldr	r2, [r0, #12]
 186 007c 012A     		cmp	r2, #1
 187 007e 47D9     		bls	.L10
 188              	.LBB147:
 189              		.loc 1 90 0 discriminator 4
 190 0080 6988     		ldrh	r1, [r5, #2]
 191              	.LVL12:
 192 0082 8468     		ldr	r4, [r0, #8]
 193 0084 5208     		lsrs	r2, r2, #1
 194              	.LVL13:
 195 0086 02FB01F1 		mul	r1, r2, r1
 196 008a 04EB4101 		add	r1, r4, r1, lsl #1
 197              	.LBE147:
 198              		.loc 1 98 0 is_stmt 1 discriminator 4
 199 008e BDE8F041 		pop	{r4, r5, r6, r7, r8, lr}
 200              		.cfi_remember_state
 201              		.cfi_restore 14
 202              		.cfi_restore 8
 203              		.cfi_restore 7
 204              		.cfi_restore 6
 205              		.cfi_restore 5
 206              		.cfi_restore 4
 207              		.cfi_def_cfa_offset 0
 208              	.LVL14:
 209              	.LBB148:
 210              		.loc 1 90 0 discriminator 4
 211 0092 1847     		bx	r3	@ indirect register sibling call
 212              	.LVL15:
 213              	.L8:
 214              		.cfi_restore_state
 215              	.LBE148:
 216              		.loc 1 92 0
 217 0094 CB06     		lsls	r3, r1, #27
 218 0096 01D4     		bmi	.L33
 219              	.L1:
 220 0098 BDE8F081 		pop	{r4, r5, r6, r7, r8, pc}
 221              	.L33:
 222              		.loc 1 94 0
 223 009c 6B68     		ldr	r3, [r5, #4]
 224 009e 002B     		cmp	r3, #0
 225 00a0 FAD0     		beq	.L1
 226              		.loc 1 94 0 is_stmt 0 discriminator 1
 227 00a2 C268     		ldr	r2, [r0, #12]
 228 00a4 8168     		ldr	r1, [r0, #8]
ARM GAS  /var/folders/m4/4md61f0s1_g0rzfghffqnxvr0000gn/T//cc9zLe0i.s 			page 5


 229              	.LVL16:
 230 00a6 5208     		lsrs	r2, r2, #1
 231              		.loc 1 98 0 is_stmt 1 discriminator 1
 232 00a8 BDE8F041 		pop	{r4, r5, r6, r7, r8, lr}
 233              		.cfi_remember_state
 234              		.cfi_restore 14
 235              		.cfi_restore 8
 236              		.cfi_restore 7
 237              		.cfi_restore 6
 238              		.cfi_restore 5
 239              		.cfi_restore 4
 240              		.cfi_def_cfa_offset 0
 241              		.loc 1 94 0 discriminator 1
 242 00ac 1847     		bx	r3	@ indirect register sibling call
 243              	.LVL17:
 244              	.L9:
 245              		.cfi_restore_state
 246              	.LBB149:
 247              	.LBB150:
 248              		.loc 1 376 0
 249 00ae C06A     		ldr	r0, [r0, #44]
 250              	.LVL18:
 251 00b0 0268     		ldr	r2, [r0]
 252 00b2 1368     		ldr	r3, [r2]
 253 00b4 23F01F03 		bic	r3, r3, #31
 254 00b8 1360     		str	r3, [r2]
 255              	.L11:
 256 00ba 1368     		ldr	r3, [r2]
 257 00bc 13F00103 		ands	r3, r3, #1
 258 00c0 FBD1     		bne	.L11
 259 00c2 077A     		ldrb	r7, [r0, #8]	@ zero_extendqisi2
 260 00c4 4668     		ldr	r6, [r0, #4]
 261              	.LBE150:
 262              	.LBE149:
 263              		.loc 1 90 0
 264 00c6 6D68     		ldr	r5, [r5, #4]
 265              	.LBB152:
 266              	.LBB151:
 267              		.loc 1 377 0
 268 00c8 A26A     		ldr	r2, [r4, #40]
 269              		.loc 1 376 0
 270 00ca 3D21     		movs	r1, #61
 271              	.LVL19:
 272 00cc B940     		lsls	r1, r1, r7
 273              		.loc 1 379 0
 274 00ce 0120     		movs	r0, #1
 275              		.loc 1 376 0
 276 00d0 3160     		str	r1, [r6]
 277              		.loc 1 377 0
 278 00d2 5360     		str	r3, [r2, #4]
 279              		.loc 1 378 0
 280 00d4 9360     		str	r3, [r2, #8]
 281              		.loc 1 379 0
 282 00d6 9060     		str	r0, [r2, #8]
 283              	.LVL20:
 284              	.LBE151:
 285              	.LBE152:
ARM GAS  /var/folders/m4/4md61f0s1_g0rzfghffqnxvr0000gn/T//cc9zLe0i.s 			page 6


 286              		.loc 1 90 0
 287 00d8 ADB1     		cbz	r5, .L12
 288              		.loc 1 90 0 is_stmt 0 discriminator 6
 289 00da 0423     		movs	r3, #4
 290 00dc 2370     		strb	r3, [r4]
 291 00de E268     		ldr	r2, [r4, #12]
 292 00e0 A168     		ldr	r1, [r4, #8]
 293 00e2 2046     		mov	r0, r4
 294 00e4 A847     		blx	r5
 295              	.LVL21:
 296 00e6 2378     		ldrb	r3, [r4]	@ zero_extendqisi2
 297 00e8 042B     		cmp	r3, #4
 298 00ea 0CD0     		beq	.L12
 299              	.L13:
 300              	.LVL22:
 301              	.LBB153:
 302              	.LBB154:
 303              	.LBB155:
 304              	.LBB156:
 305              	.LBB157:
 306              	.LBB158:
 307              		.loc 2 548 0 is_stmt 1 discriminator 9
 308 00ec 2023     		movs	r3, #32
 309              		.syntax unified
 310              	@ 548 "ChibiOS_16.1.4/os/ext/CMSIS/include/core_cmFunc.h" 1
 311 00ee 83F31188 		MSR basepri, r3
 312              	@ 0 "" 2
 313              	.LVL23:
 314              		.thumb
 315              		.syntax unified
 316              	.LBE158:
 317              	.LBE157:
 318              	.LBE156:
 319              	.LBE155:
 320              	.LBE154:
 321              	.LBE153:
 322              	.LBB159:
 323              	.LBB160:
 324              		.loc 3 728 0 discriminator 9
 325 00f2 0021     		movs	r1, #0
 326 00f4 04F11400 		add	r0, r4, #20
 327              	.LVL24:
 328 00f8 FFF7FEFF 		bl	chThdResumeI
 329              	.LVL25:
 330              	.LBE160:
 331              	.LBE159:
 332              	.LBB161:
 333              	.LBB162:
 334              	.LBB163:
 335              	.LBB164:
 336              	.LBB165:
 337              	.LBB166:
 338              		.loc 2 548 0 discriminator 9
 339 00fc 0023     		movs	r3, #0
 340              		.syntax unified
 341              	@ 548 "ChibiOS_16.1.4/os/ext/CMSIS/include/core_cmFunc.h" 1
 342 00fe 83F31188 		MSR basepri, r3
ARM GAS  /var/folders/m4/4md61f0s1_g0rzfghffqnxvr0000gn/T//cc9zLe0i.s 			page 7


 343              	@ 0 "" 2
 344              	.LVL26:
 345              		.thumb
 346              		.syntax unified
 347 0102 BDE8F081 		pop	{r4, r5, r6, r7, r8, pc}
 348              	.LVL27:
 349              	.L12:
 350              	.LBE166:
 351              	.LBE165:
 352              	.LBE164:
 353              	.LBE163:
 354              	.LBE162:
 355              	.LBE161:
 356              		.loc 1 90 0 discriminator 8
 357 0106 0222     		movs	r2, #2
 358 0108 0023     		movs	r3, #0
 359 010a 2270     		strb	r2, [r4]
 360 010c 2361     		str	r3, [r4, #16]
 361 010e EDE7     		b	.L13
 362              	.LVL28:
 363              	.L10:
 364              		.loc 1 90 0 is_stmt 0 discriminator 5
 365 0110 8168     		ldr	r1, [r0, #8]
 366              	.LVL29:
 367              		.loc 1 98 0 is_stmt 1 discriminator 5
 368 0112 BDE8F041 		pop	{r4, r5, r6, r7, r8, lr}
 369              		.cfi_restore 14
 370              		.cfi_restore 8
 371              		.cfi_restore 7
 372              		.cfi_restore 6
 373              		.cfi_restore 5
 374              		.cfi_restore 4
 375              		.cfi_def_cfa_offset 0
 376              		.loc 1 90 0 discriminator 5
 377 0116 1847     		bx	r3	@ indirect register sibling call
 378              	.LVL30:
 379              		.cfi_endproc
 380              	.LFE268:
 381              		.size	adc_lld_serve_rx_interrupt, .-adc_lld_serve_rx_interrupt
 382              		.section	.text.Vector88,"ax",%progbits
 383              		.align	2
 384              		.p2align 4,,15
 385              		.global	Vector88
 386              		.thumb
 387              		.thumb_func
 388              		.type	Vector88, %function
 389              	Vector88:
 390              	.LFB269:
 391              		.loc 1 111 0
 392              		.cfi_startproc
 393              		@ args = 0, pretend = 0, frame = 0
 394              		@ frame_needed = 0, uses_anonymous_args = 0
 395 0000 F8B5     		push	{r3, r4, r5, r6, r7, lr}
 396              		.cfi_def_cfa_offset 24
 397              		.cfi_offset 3, -24
 398              		.cfi_offset 4, -20
 399              		.cfi_offset 5, -16
ARM GAS  /var/folders/m4/4md61f0s1_g0rzfghffqnxvr0000gn/T//cc9zLe0i.s 			page 8


 400              		.cfi_offset 6, -12
 401              		.cfi_offset 7, -8
 402              		.cfi_offset 14, -4
 403              		.loc 1 117 0
 404 0002 564B     		ldr	r3, .L81
 405 0004 1A68     		ldr	r2, [r3]
 406              	.LVL31:
 407              		.loc 1 118 0
 408 0006 0021     		movs	r1, #0
 409 0008 1960     		str	r1, [r3]
 410              		.loc 1 121 0
 411 000a 9106     		lsls	r1, r2, #26
 412 000c 31D5     		bpl	.L35
 413              		.loc 1 121 0 is_stmt 0 discriminator 1
 414 000e 544C     		ldr	r4, .L81+4
 415 0010 E16A     		ldr	r1, [r4, #44]
 416 0012 0A68     		ldr	r2, [r1]
 417              	.LVL32:
 418 0014 5368     		ldr	r3, [r2, #4]
 419 0016 63B3     		cbz	r3, .L35
 420              		.loc 1 124 0 is_stmt 1
 421 0018 2569     		ldr	r5, [r4, #16]
 422 001a 55B3     		cbz	r5, .L35
 423              	.LVL33:
 424              	.LBB167:
 425              	.LBB168:
 426              		.loc 1 376 0
 427 001c 1368     		ldr	r3, [r2]
 428 001e 23F01F03 		bic	r3, r3, #31
 429 0022 1360     		str	r3, [r2]
 430              	.L36:
 431 0024 1368     		ldr	r3, [r2]
 432 0026 13F00103 		ands	r3, r3, #1
 433 002a FBD1     		bne	.L36
 434 002c 087A     		ldrb	r0, [r1, #8]	@ zero_extendqisi2
 435              	.LBE168:
 436              	.LBE167:
 437              		.loc 1 125 0
 438 002e AE68     		ldr	r6, [r5, #8]
 439              	.LBB170:
 440              	.LBB169:
 441              		.loc 1 376 0
 442 0030 4F68     		ldr	r7, [r1, #4]
 443              		.loc 1 377 0
 444 0032 A26A     		ldr	r2, [r4, #40]
 445 0034 4A4D     		ldr	r5, .L81+4
 446              		.loc 1 376 0
 447 0036 3D21     		movs	r1, #61
 448 0038 01FA00F0 		lsl	r0, r1, r0
 449              		.loc 1 379 0
 450 003c 0121     		movs	r1, #1
 451              		.loc 1 376 0
 452 003e 3860     		str	r0, [r7]
 453              		.loc 1 377 0
 454 0040 5360     		str	r3, [r2, #4]
 455              		.loc 1 378 0
 456 0042 9360     		str	r3, [r2, #8]
ARM GAS  /var/folders/m4/4md61f0s1_g0rzfghffqnxvr0000gn/T//cc9zLe0i.s 			page 9


 457              		.loc 1 379 0
 458 0044 9160     		str	r1, [r2, #8]
 459              	.LVL34:
 460              	.LBE169:
 461              	.LBE170:
 462              		.loc 1 125 0
 463 0046 46B1     		cbz	r6, .L38
 464              		.loc 1 125 0 is_stmt 0 discriminator 1
 465 0048 0523     		movs	r3, #5
 466 004a 2B70     		strb	r3, [r5]
 467 004c 2846     		mov	r0, r5
 468 004e B047     		blx	r6
 469              	.LVL35:
 470 0050 2B78     		ldrb	r3, [r5]	@ zero_extendqisi2
 471 0052 052B     		cmp	r3, #5
 472 0054 04BF     		itt	eq
 473 0056 0223     		moveq	r3, #2
 474 0058 2B70     		strbeq	r3, [r5]
 475              	.L38:
 476              		.loc 1 125 0 discriminator 5
 477 005a 0025     		movs	r5, #0
 478 005c 2561     		str	r5, [r4, #16]
 479              	.LVL36:
 480              	.LBB171:
 481              	.LBB172:
 482              	.LBB173:
 483              	.LBB174:
 484              	.LBB175:
 485              	.LBB176:
 486              		.loc 2 548 0 is_stmt 1 discriminator 5
 487 005e 2023     		movs	r3, #32
 488              		.syntax unified
 489              	@ 548 "ChibiOS_16.1.4/os/ext/CMSIS/include/core_cmFunc.h" 1
 490 0060 83F31188 		MSR basepri, r3
 491              	@ 0 "" 2
 492              	.LVL37:
 493              		.thumb
 494              		.syntax unified
 495              	.LBE176:
 496              	.LBE175:
 497              	.LBE174:
 498              	.LBE173:
 499              	.LBE172:
 500              	.LBE171:
 501              	.LBB177:
 502              	.LBB178:
 503              		.loc 3 728 0 discriminator 5
 504 0064 4FF0FF31 		mov	r1, #-1
 505 0068 3E48     		ldr	r0, .L81+8
 506 006a FFF7FEFF 		bl	chThdResumeI
 507              	.LVL38:
 508              	.LBE178:
 509              	.LBE177:
 510              	.LBB179:
 511              	.LBB180:
 512              	.LBB181:
 513              	.LBB182:
ARM GAS  /var/folders/m4/4md61f0s1_g0rzfghffqnxvr0000gn/T//cc9zLe0i.s 			page 10


 514              	.LBB183:
 515              	.LBB184:
 516              		.loc 2 548 0 discriminator 5
 517              		.syntax unified
 518              	@ 548 "ChibiOS_16.1.4/os/ext/CMSIS/include/core_cmFunc.h" 1
 519 006e 85F31188 		MSR basepri, r5
 520              	@ 0 "" 2
 521              	.LVL39:
 522              		.thumb
 523              		.syntax unified
 524              	.L35:
 525              	.LBE184:
 526              	.LBE183:
 527              	.LBE182:
 528              	.LBE181:
 529              	.LBE180:
 530              	.LBE179:
 531              		.loc 1 131 0
 532 0072 3D4B     		ldr	r3, .L81+12
 533 0074 1A68     		ldr	r2, [r3]
 534              	.LVL40:
 535              		.loc 1 132 0
 536 0076 0021     		movs	r1, #0
 537              		.loc 1 135 0
 538 0078 9206     		lsls	r2, r2, #26
 539              	.LVL41:
 540              		.loc 1 132 0
 541 007a 1960     		str	r1, [r3]
 542              		.loc 1 135 0
 543 007c 31D5     		bpl	.L40
 544              		.loc 1 135 0 is_stmt 0 discriminator 1
 545 007e 3B4C     		ldr	r4, .L81+16
 546 0080 E16A     		ldr	r1, [r4, #44]
 547 0082 0A68     		ldr	r2, [r1]
 548 0084 5368     		ldr	r3, [r2, #4]
 549 0086 63B3     		cbz	r3, .L40
 550              		.loc 1 138 0 is_stmt 1
 551 0088 2569     		ldr	r5, [r4, #16]
 552 008a 55B3     		cbz	r5, .L40
 553              	.LVL42:
 554              	.LBB185:
 555              	.LBB186:
 556              		.loc 1 376 0
 557 008c 1368     		ldr	r3, [r2]
 558 008e 23F01F03 		bic	r3, r3, #31
 559 0092 1360     		str	r3, [r2]
 560              	.L41:
 561 0094 1368     		ldr	r3, [r2]
 562 0096 13F00103 		ands	r3, r3, #1
 563 009a FBD1     		bne	.L41
 564 009c 087A     		ldrb	r0, [r1, #8]	@ zero_extendqisi2
 565              	.LBE186:
 566              	.LBE185:
 567              		.loc 1 139 0
 568 009e AE68     		ldr	r6, [r5, #8]
 569              	.LBB188:
 570              	.LBB187:
ARM GAS  /var/folders/m4/4md61f0s1_g0rzfghffqnxvr0000gn/T//cc9zLe0i.s 			page 11


 571              		.loc 1 376 0
 572 00a0 4F68     		ldr	r7, [r1, #4]
 573              		.loc 1 377 0
 574 00a2 A26A     		ldr	r2, [r4, #40]
 575 00a4 314D     		ldr	r5, .L81+16
 576              		.loc 1 376 0
 577 00a6 3D21     		movs	r1, #61
 578 00a8 01FA00F0 		lsl	r0, r1, r0
 579              		.loc 1 379 0
 580 00ac 0121     		movs	r1, #1
 581              		.loc 1 376 0
 582 00ae 3860     		str	r0, [r7]
 583              		.loc 1 377 0
 584 00b0 5360     		str	r3, [r2, #4]
 585              		.loc 1 378 0
 586 00b2 9360     		str	r3, [r2, #8]
 587              		.loc 1 379 0
 588 00b4 9160     		str	r1, [r2, #8]
 589              	.LVL43:
 590              	.LBE187:
 591              	.LBE188:
 592              		.loc 1 139 0
 593 00b6 46B1     		cbz	r6, .L43
 594              		.loc 1 139 0 is_stmt 0 discriminator 1
 595 00b8 0523     		movs	r3, #5
 596 00ba 2B70     		strb	r3, [r5]
 597 00bc 2846     		mov	r0, r5
 598 00be B047     		blx	r6
 599              	.LVL44:
 600 00c0 2B78     		ldrb	r3, [r5]	@ zero_extendqisi2
 601 00c2 052B     		cmp	r3, #5
 602 00c4 04BF     		itt	eq
 603 00c6 0223     		moveq	r3, #2
 604 00c8 2B70     		strbeq	r3, [r5]
 605              	.L43:
 606              		.loc 1 139 0 discriminator 5
 607 00ca 0025     		movs	r5, #0
 608 00cc 2561     		str	r5, [r4, #16]
 609              	.LVL45:
 610              	.LBB189:
 611              	.LBB190:
 612              	.LBB191:
 613              	.LBB192:
 614              	.LBB193:
 615              	.LBB194:
 616              		.loc 2 548 0 is_stmt 1 discriminator 5
 617 00ce 2023     		movs	r3, #32
 618              		.syntax unified
 619              	@ 548 "ChibiOS_16.1.4/os/ext/CMSIS/include/core_cmFunc.h" 1
 620 00d0 83F31188 		MSR basepri, r3
 621              	@ 0 "" 2
 622              	.LVL46:
 623              		.thumb
 624              		.syntax unified
 625              	.LBE194:
 626              	.LBE193:
 627              	.LBE192:
ARM GAS  /var/folders/m4/4md61f0s1_g0rzfghffqnxvr0000gn/T//cc9zLe0i.s 			page 12


 628              	.LBE191:
 629              	.LBE190:
 630              	.LBE189:
 631              	.LBB195:
 632              	.LBB196:
 633              		.loc 3 728 0 discriminator 5
 634 00d4 4FF0FF31 		mov	r1, #-1
 635 00d8 2548     		ldr	r0, .L81+20
 636 00da FFF7FEFF 		bl	chThdResumeI
 637              	.LVL47:
 638              	.LBE196:
 639              	.LBE195:
 640              	.LBB197:
 641              	.LBB198:
 642              	.LBB199:
 643              	.LBB200:
 644              	.LBB201:
 645              	.LBB202:
 646              		.loc 2 548 0 discriminator 5
 647              		.syntax unified
 648              	@ 548 "ChibiOS_16.1.4/os/ext/CMSIS/include/core_cmFunc.h" 1
 649 00de 85F31188 		MSR basepri, r5
 650              	@ 0 "" 2
 651              	.LVL48:
 652              		.thumb
 653              		.syntax unified
 654              	.L40:
 655              	.LBE202:
 656              	.LBE201:
 657              	.LBE200:
 658              	.LBE199:
 659              	.LBE198:
 660              	.LBE197:
 661              		.loc 1 145 0
 662 00e2 244B     		ldr	r3, .L81+24
 663 00e4 1A68     		ldr	r2, [r3]
 664              	.LVL49:
 665              		.loc 1 146 0
 666 00e6 0021     		movs	r1, #0
 667 00e8 1960     		str	r1, [r3]
 668              		.loc 1 149 0
 669 00ea 9306     		lsls	r3, r2, #26
 670 00ec 31D5     		bpl	.L45
 671              		.loc 1 149 0 is_stmt 0 discriminator 1
 672 00ee 224C     		ldr	r4, .L81+28
 673 00f0 E16A     		ldr	r1, [r4, #44]
 674 00f2 0A68     		ldr	r2, [r1]
 675              	.LVL50:
 676 00f4 5368     		ldr	r3, [r2, #4]
 677 00f6 63B3     		cbz	r3, .L45
 678              		.loc 1 152 0 is_stmt 1
 679 00f8 2569     		ldr	r5, [r4, #16]
 680 00fa 55B3     		cbz	r5, .L45
 681              	.LVL51:
 682              	.LBB203:
 683              	.LBB204:
 684              		.loc 1 376 0
ARM GAS  /var/folders/m4/4md61f0s1_g0rzfghffqnxvr0000gn/T//cc9zLe0i.s 			page 13


 685 00fc 1368     		ldr	r3, [r2]
 686 00fe 23F01F03 		bic	r3, r3, #31
 687 0102 1360     		str	r3, [r2]
 688              	.L46:
 689 0104 1368     		ldr	r3, [r2]
 690 0106 13F00103 		ands	r3, r3, #1
 691 010a FBD1     		bne	.L46
 692 010c 087A     		ldrb	r0, [r1, #8]	@ zero_extendqisi2
 693              	.LBE204:
 694              	.LBE203:
 695              		.loc 1 153 0
 696 010e AE68     		ldr	r6, [r5, #8]
 697              	.LBB206:
 698              	.LBB205:
 699              		.loc 1 376 0
 700 0110 4F68     		ldr	r7, [r1, #4]
 701              		.loc 1 377 0
 702 0112 A26A     		ldr	r2, [r4, #40]
 703 0114 184D     		ldr	r5, .L81+28
 704              		.loc 1 376 0
 705 0116 3D21     		movs	r1, #61
 706 0118 01FA00F0 		lsl	r0, r1, r0
 707              		.loc 1 379 0
 708 011c 0121     		movs	r1, #1
 709              		.loc 1 376 0
 710 011e 3860     		str	r0, [r7]
 711              		.loc 1 377 0
 712 0120 5360     		str	r3, [r2, #4]
 713              		.loc 1 378 0
 714 0122 9360     		str	r3, [r2, #8]
 715              		.loc 1 379 0
 716 0124 9160     		str	r1, [r2, #8]
 717              	.LVL52:
 718              	.LBE205:
 719              	.LBE206:
 720              		.loc 1 153 0
 721 0126 46B1     		cbz	r6, .L48
 722              		.loc 1 153 0 is_stmt 0 discriminator 1
 723 0128 0523     		movs	r3, #5
 724 012a 2B70     		strb	r3, [r5]
 725 012c 2846     		mov	r0, r5
 726 012e B047     		blx	r6
 727              	.LVL53:
 728 0130 2B78     		ldrb	r3, [r5]	@ zero_extendqisi2
 729 0132 052B     		cmp	r3, #5
 730 0134 04BF     		itt	eq
 731 0136 0223     		moveq	r3, #2
 732 0138 2B70     		strbeq	r3, [r5]
 733              	.L48:
 734              		.loc 1 153 0 discriminator 5
 735 013a 0025     		movs	r5, #0
 736 013c 2561     		str	r5, [r4, #16]
 737              	.LVL54:
 738              	.LBB207:
 739              	.LBB208:
 740              	.LBB209:
 741              	.LBB210:
ARM GAS  /var/folders/m4/4md61f0s1_g0rzfghffqnxvr0000gn/T//cc9zLe0i.s 			page 14


 742              	.LBB211:
 743              	.LBB212:
 744              		.loc 2 548 0 is_stmt 1 discriminator 5
 745 013e 2023     		movs	r3, #32
 746              		.syntax unified
 747              	@ 548 "ChibiOS_16.1.4/os/ext/CMSIS/include/core_cmFunc.h" 1
 748 0140 83F31188 		MSR basepri, r3
 749              	@ 0 "" 2
 750              	.LVL55:
 751              		.thumb
 752              		.syntax unified
 753              	.LBE212:
 754              	.LBE211:
 755              	.LBE210:
 756              	.LBE209:
 757              	.LBE208:
 758              	.LBE207:
 759              	.LBB213:
 760              	.LBB214:
 761              		.loc 3 728 0 discriminator 5
 762 0144 4FF0FF31 		mov	r1, #-1
 763 0148 0C48     		ldr	r0, .L81+32
 764 014a FFF7FEFF 		bl	chThdResumeI
 765              	.LVL56:
 766              	.LBE214:
 767              	.LBE213:
 768              	.LBB215:
 769              	.LBB216:
 770              	.LBB217:
 771              	.LBB218:
 772              	.LBB219:
 773              	.LBB220:
 774              		.loc 2 548 0 discriminator 5
 775              		.syntax unified
 776              	@ 548 "ChibiOS_16.1.4/os/ext/CMSIS/include/core_cmFunc.h" 1
 777 014e 85F31188 		MSR basepri, r5
 778              	@ 0 "" 2
 779              	.LVL57:
 780              		.thumb
 781              		.syntax unified
 782              	.L45:
 783              	.LBE220:
 784              	.LBE219:
 785              	.LBE218:
 786              	.LBE217:
 787              	.LBE216:
 788              	.LBE215:
 789              		.loc 1 159 0
 790 0152 BDE8F840 		pop	{r3, r4, r5, r6, r7, lr}
 791              		.cfi_restore 14
 792              		.cfi_restore 7
 793              		.cfi_restore 6
 794              		.cfi_restore 5
 795              		.cfi_restore 4
 796              		.cfi_restore 3
 797              		.cfi_def_cfa_offset 0
 798              		.loc 1 158 0
ARM GAS  /var/folders/m4/4md61f0s1_g0rzfghffqnxvr0000gn/T//cc9zLe0i.s 			page 15


 799 0156 FFF7FEBF 		b	_port_irq_epilogue
 800              	.LVL58:
 801              	.L82:
 802 015a 00BF     		.align	2
 803              	.L81:
 804 015c 00200140 		.word	1073815552
 805 0160 00000000 		.word	.LANCHOR0
 806 0164 14000000 		.word	.LANCHOR0+20
 807 0168 00210140 		.word	1073815808
 808 016c 00000000 		.word	.LANCHOR1
 809 0170 14000000 		.word	.LANCHOR1+20
 810 0174 00220140 		.word	1073816064
 811 0178 00000000 		.word	.LANCHOR2
 812 017c 14000000 		.word	.LANCHOR2+20
 813              		.cfi_endproc
 814              	.LFE269:
 815              		.size	Vector88, .-Vector88
 816              		.section	.text.adc_lld_init,"ax",%progbits
 817              		.align	2
 818              		.p2align 4,,15
 819              		.global	adc_lld_init
 820              		.thumb
 821              		.thumb_func
 822              		.type	adc_lld_init, %function
 823              	adc_lld_init:
 824              	.LFB270:
 825              		.loc 1 171 0
 826              		.cfi_startproc
 827              		@ args = 0, pretend = 0, frame = 0
 828              		@ frame_needed = 0, uses_anonymous_args = 0
 829 0000 F8B5     		push	{r3, r4, r5, r6, r7, lr}
 830              		.cfi_def_cfa_offset 24
 831              		.cfi_offset 3, -24
 832              		.cfi_offset 4, -20
 833              		.cfi_offset 5, -16
 834              		.cfi_offset 6, -12
 835              		.cfi_offset 7, -8
 836              		.cfi_offset 14, -4
 837              		.loc 1 175 0
 838 0002 124F     		ldr	r7, .L85
 839              		.loc 1 188 0
 840 0004 124E     		ldr	r6, .L85+4
 841              		.loc 1 201 0
 842 0006 134D     		ldr	r5, .L85+8
 843              		.loc 1 177 0
 844 0008 134C     		ldr	r4, .L85+12
 845              		.loc 1 175 0
 846 000a 3846     		mov	r0, r7
 847 000c FFF7FEFF 		bl	adcObjectInit
 848              	.LVL59:
 849              		.loc 1 176 0
 850 0010 124A     		ldr	r2, .L85+16
 851              		.loc 1 178 0
 852 0012 134B     		ldr	r3, .L85+20
 853              		.loc 1 176 0
 854 0014 BA62     		str	r2, [r7, #40]
 855              		.loc 1 188 0
ARM GAS  /var/folders/m4/4md61f0s1_g0rzfghffqnxvr0000gn/T//cc9zLe0i.s 			page 16


 856 0016 3046     		mov	r0, r6
 857              		.loc 1 178 0
 858 0018 3B63     		str	r3, [r7, #48]
 859              		.loc 1 177 0
 860 001a FC62     		str	r4, [r7, #44]
 861              		.loc 1 188 0
 862 001c FFF7FEFF 		bl	adcObjectInit
 863              	.LVL60:
 864              		.loc 1 189 0
 865 0020 104A     		ldr	r2, .L85+24
 866              		.loc 1 191 0
 867 0022 114B     		ldr	r3, .L85+28
 868              		.loc 1 189 0
 869 0024 B262     		str	r2, [r6, #40]
 870              		.loc 1 201 0
 871 0026 2846     		mov	r0, r5
 872              		.loc 1 190 0
 873 0028 A4F11802 		sub	r2, r4, #24
 874 002c F262     		str	r2, [r6, #44]
 875              		.loc 1 191 0
 876 002e 3363     		str	r3, [r6, #48]
 877              		.loc 1 203 0
 878 0030 243C     		subs	r4, r4, #36
 879              		.loc 1 201 0
 880 0032 FFF7FEFF 		bl	adcObjectInit
 881              	.LVL61:
 882              		.loc 1 204 0
 883 0036 0D4B     		ldr	r3, .L85+32
 884              		.loc 1 202 0
 885 0038 0D4A     		ldr	r2, .L85+36
 886              		.loc 1 203 0
 887 003a EC62     		str	r4, [r5, #44]
 888              		.loc 1 202 0
 889 003c AA62     		str	r2, [r5, #40]
 890              		.loc 1 204 0
 891 003e 2B63     		str	r3, [r5, #48]
 892              		.loc 1 214 0
 893 0040 0621     		movs	r1, #6
 894 0042 1220     		movs	r0, #18
 895              		.loc 1 215 0
 896 0044 BDE8F840 		pop	{r3, r4, r5, r6, r7, lr}
 897              		.cfi_restore 14
 898              		.cfi_restore 7
 899              		.cfi_restore 6
 900              		.cfi_restore 5
 901              		.cfi_restore 4
 902              		.cfi_restore 3
 903              		.cfi_def_cfa_offset 0
 904              		.loc 1 214 0
 905 0048 FFF7FEBF 		b	nvicEnableVector
 906              	.LVL62:
 907              	.L86:
 908              		.align	2
 909              	.L85:
 910 004c 00000000 		.word	.LANCHOR0
 911 0050 00000000 		.word	.LANCHOR1
 912 0054 00000000 		.word	.LANCHOR2
ARM GAS  /var/folders/m4/4md61f0s1_g0rzfghffqnxvr0000gn/T//cc9zLe0i.s 			page 17


 913 0058 90000000 		.word	_stm32_dma_streams+144
 914 005c 00200140 		.word	1073815552
 915 0060 162C0200 		.word	142358
 916 0064 00210140 		.word	1073815808
 917 0068 162C0202 		.word	33696790
 918 006c 162C0204 		.word	67251222
 919 0070 00220140 		.word	1073816064
 920              		.cfi_endproc
 921              	.LFE270:
 922              		.size	adc_lld_init, .-adc_lld_init
 923              		.section	.text.adc_lld_start,"ax",%progbits
 924              		.align	2
 925              		.p2align 4,,15
 926              		.global	adc_lld_start
 927              		.thumb
 928              		.thumb_func
 929              		.type	adc_lld_start, %function
 930              	adc_lld_start:
 931              	.LFB271:
 932              		.loc 1 224 0
 933              		.cfi_startproc
 934              		@ args = 0, pretend = 0, frame = 0
 935              		@ frame_needed = 0, uses_anonymous_args = 0
 936              	.LVL63:
 937              		.loc 1 227 0
 938 0000 0378     		ldrb	r3, [r0]	@ zero_extendqisi2
 939 0002 012B     		cmp	r3, #1
 940 0004 00D0     		beq	.L94
 941 0006 7047     		bx	lr
 942              	.L94:
 943              		.loc 1 229 0
 944 0008 244B     		ldr	r3, .L98
 945 000a 9842     		cmp	r0, r3
 946              		.loc 1 224 0
 947 000c 10B5     		push	{r4, lr}
 948              		.cfi_def_cfa_offset 8
 949              		.cfi_offset 4, -8
 950              		.cfi_offset 14, -4
 951 000e 0446     		mov	r4, r0
 952              		.loc 1 229 0
 953 0010 13D0     		beq	.L95
 954              		.loc 1 242 0
 955 0012 234B     		ldr	r3, .L98+4
 956 0014 9842     		cmp	r0, r3
 957 0016 20D0     		beq	.L96
 958              		.loc 1 255 0
 959 0018 224B     		ldr	r3, .L98+8
 960 001a 9842     		cmp	r0, r3
 961 001c 2DD0     		beq	.L97
 962              	.LVL64:
 963              	.L90:
 964              		.loc 1 269 0
 965 001e 2248     		ldr	r0, .L98+12
 966              		.loc 1 274 0
 967 0020 A26A     		ldr	r2, [r4, #40]
 968              		.loc 1 269 0
 969 0022 4368     		ldr	r3, [r0, #4]
ARM GAS  /var/folders/m4/4md61f0s1_g0rzfghffqnxvr0000gn/T//cc9zLe0i.s 			page 18


 970 0024 03F44003 		and	r3, r3, #12582912
 971              		.loc 1 274 0
 972 0028 0021     		movs	r1, #0
 973              		.loc 1 269 0
 974 002a 43F48033 		orr	r3, r3, #65536
 975              		.loc 1 276 0
 976 002e 0124     		movs	r4, #1
 977              	.LVL65:
 978              		.loc 1 269 0
 979 0030 4360     		str	r3, [r0, #4]
 980              		.loc 1 274 0
 981 0032 5160     		str	r1, [r2, #4]
 982              		.loc 1 275 0
 983 0034 9160     		str	r1, [r2, #8]
 984              		.loc 1 276 0
 985 0036 9460     		str	r4, [r2, #8]
 986 0038 10BD     		pop	{r4, pc}
 987              	.LVL66:
 988              	.L95:
 989              	.LBB221:
 990              		.loc 1 231 0
 991 003a 0346     		mov	r3, r0
 992 003c 1B4A     		ldr	r2, .L98+16
 993 003e C06A     		ldr	r0, [r0, #44]
 994              	.LVL67:
 995 0040 0621     		movs	r1, #6
 996 0042 FFF7FEFF 		bl	dmaStreamAllocate
 997              	.LVL68:
 998              		.loc 1 236 0
 999 0046 E36A     		ldr	r3, [r4, #44]
 1000              		.loc 1 237 0
 1001 0048 194A     		ldr	r2, .L98+20
 1002              		.loc 1 236 0
 1003 004a 1B68     		ldr	r3, [r3]
 1004 004c 1949     		ldr	r1, .L98+24
 1005 004e 9960     		str	r1, [r3, #8]
 1006              		.loc 1 237 0
 1007 0050 536C     		ldr	r3, [r2, #68]
 1008 0052 43F48073 		orr	r3, r3, #256
 1009 0056 5364     		str	r3, [r2, #68]
 1010 0058 E1E7     		b	.L90
 1011              	.LVL69:
 1012              	.L96:
 1013              	.LBE221:
 1014              	.LBB222:
 1015              		.loc 1 244 0
 1016 005a 0346     		mov	r3, r0
 1017 005c 134A     		ldr	r2, .L98+16
 1018 005e C06A     		ldr	r0, [r0, #44]
 1019              	.LVL70:
 1020 0060 0621     		movs	r1, #6
 1021 0062 FFF7FEFF 		bl	dmaStreamAllocate
 1022              	.LVL71:
 1023              		.loc 1 249 0
 1024 0066 E36A     		ldr	r3, [r4, #44]
 1025              		.loc 1 250 0
 1026 0068 114A     		ldr	r2, .L98+20
ARM GAS  /var/folders/m4/4md61f0s1_g0rzfghffqnxvr0000gn/T//cc9zLe0i.s 			page 19


 1027              		.loc 1 249 0
 1028 006a 1B68     		ldr	r3, [r3]
 1029 006c 1249     		ldr	r1, .L98+28
 1030 006e 9960     		str	r1, [r3, #8]
 1031              		.loc 1 250 0
 1032 0070 536C     		ldr	r3, [r2, #68]
 1033 0072 43F40073 		orr	r3, r3, #512
 1034 0076 5364     		str	r3, [r2, #68]
 1035 0078 D1E7     		b	.L90
 1036              	.LVL72:
 1037              	.L97:
 1038              	.LBE222:
 1039              	.LBB223:
 1040              		.loc 1 257 0
 1041 007a 0346     		mov	r3, r0
 1042 007c 0B4A     		ldr	r2, .L98+16
 1043 007e C06A     		ldr	r0, [r0, #44]
 1044              	.LVL73:
 1045 0080 0621     		movs	r1, #6
 1046 0082 FFF7FEFF 		bl	dmaStreamAllocate
 1047              	.LVL74:
 1048              		.loc 1 262 0
 1049 0086 E36A     		ldr	r3, [r4, #44]
 1050              		.loc 1 263 0
 1051 0088 094A     		ldr	r2, .L98+20
 1052              		.loc 1 262 0
 1053 008a 1B68     		ldr	r3, [r3]
 1054 008c 0B49     		ldr	r1, .L98+32
 1055 008e 9960     		str	r1, [r3, #8]
 1056              		.loc 1 263 0
 1057 0090 536C     		ldr	r3, [r2, #68]
 1058 0092 43F48063 		orr	r3, r3, #1024
 1059 0096 5364     		str	r3, [r2, #68]
 1060 0098 C1E7     		b	.L90
 1061              	.L99:
 1062 009a 00BF     		.align	2
 1063              	.L98:
 1064 009c 00000000 		.word	.LANCHOR0
 1065 00a0 00000000 		.word	.LANCHOR1
 1066 00a4 00000000 		.word	.LANCHOR2
 1067 00a8 00230140 		.word	1073816320
 1068 00ac 00000000 		.word	adc_lld_serve_rx_interrupt
 1069 00b0 00380240 		.word	1073887232
 1070 00b4 4C200140 		.word	1073815628
 1071 00b8 4C210140 		.word	1073815884
 1072 00bc 4C220140 		.word	1073816140
 1073              	.LBE223:
 1074              		.cfi_endproc
 1075              	.LFE271:
 1076              		.size	adc_lld_start, .-adc_lld_start
 1077              		.section	.text.adc_lld_stop,"ax",%progbits
 1078              		.align	2
 1079              		.p2align 4,,15
 1080              		.global	adc_lld_stop
 1081              		.thumb
 1082              		.thumb_func
 1083              		.type	adc_lld_stop, %function
ARM GAS  /var/folders/m4/4md61f0s1_g0rzfghffqnxvr0000gn/T//cc9zLe0i.s 			page 20


 1084              	adc_lld_stop:
 1085              	.LFB272:
 1086              		.loc 1 287 0
 1087              		.cfi_startproc
 1088              		@ args = 0, pretend = 0, frame = 0
 1089              		@ frame_needed = 0, uses_anonymous_args = 0
 1090              	.LVL75:
 1091              		.loc 1 290 0
 1092 0000 0378     		ldrb	r3, [r0]	@ zero_extendqisi2
 1093 0002 022B     		cmp	r3, #2
 1094 0004 00D0     		beq	.L108
 1095 0006 7047     		bx	lr
 1096              	.L108:
 1097              		.loc 1 287 0
 1098 0008 10B5     		push	{r4, lr}
 1099              		.cfi_def_cfa_offset 8
 1100              		.cfi_offset 4, -8
 1101              		.cfi_offset 14, -4
 1102 000a 0446     		mov	r4, r0
 1103              		.loc 1 291 0
 1104 000c C06A     		ldr	r0, [r0, #44]
 1105              	.LVL76:
 1106 000e FFF7FEFF 		bl	dmaStreamRelease
 1107              	.LVL77:
 1108              		.loc 1 296 0
 1109 0012 1049     		ldr	r1, .L112
 1110              		.loc 1 292 0
 1111 0014 A36A     		ldr	r3, [r4, #40]
 1112 0016 0022     		movs	r2, #0
 1113              		.loc 1 296 0
 1114 0018 8C42     		cmp	r4, r1
 1115              		.loc 1 292 0
 1116 001a 5A60     		str	r2, [r3, #4]
 1117              		.loc 1 293 0
 1118 001c 9A60     		str	r2, [r3, #8]
 1119              		.loc 1 296 0
 1120 001e 12D0     		beq	.L109
 1121              		.loc 1 301 0
 1122 0020 0D4B     		ldr	r3, .L112+4
 1123 0022 9C42     		cmp	r4, r3
 1124 0024 09D0     		beq	.L110
 1125              		.loc 1 306 0
 1126 0026 0D4B     		ldr	r3, .L112+8
 1127 0028 9C42     		cmp	r4, r3
 1128 002a 00D0     		beq	.L111
 1129              	.L100:
 1130 002c 10BD     		pop	{r4, pc}
 1131              	.LVL78:
 1132              	.L111:
 1133              		.loc 1 307 0
 1134 002e 0C4A     		ldr	r2, .L112+12
 1135 0030 536C     		ldr	r3, [r2, #68]
 1136 0032 23F48063 		bic	r3, r3, #1024
 1137 0036 5364     		str	r3, [r2, #68]
 1138              		.loc 1 310 0
 1139 0038 F8E7     		b	.L100
 1140              	.L110:
ARM GAS  /var/folders/m4/4md61f0s1_g0rzfghffqnxvr0000gn/T//cc9zLe0i.s 			page 21


 1141              		.loc 1 302 0
 1142 003a 094A     		ldr	r2, .L112+12
 1143 003c 536C     		ldr	r3, [r2, #68]
 1144 003e 23F40073 		bic	r3, r3, #512
 1145 0042 5364     		str	r3, [r2, #68]
 1146 0044 10BD     		pop	{r4, pc}
 1147              	.LVL79:
 1148              	.L109:
 1149              		.loc 1 297 0
 1150 0046 064A     		ldr	r2, .L112+12
 1151 0048 536C     		ldr	r3, [r2, #68]
 1152 004a 23F48073 		bic	r3, r3, #256
 1153 004e 5364     		str	r3, [r2, #68]
 1154 0050 10BD     		pop	{r4, pc}
 1155              	.LVL80:
 1156              	.L113:
 1157 0052 00BF     		.align	2
 1158              	.L112:
 1159 0054 00000000 		.word	.LANCHOR0
 1160 0058 00000000 		.word	.LANCHOR1
 1161 005c 00000000 		.word	.LANCHOR2
 1162 0060 00380240 		.word	1073887232
 1163              		.cfi_endproc
 1164              	.LFE272:
 1165              		.size	adc_lld_stop, .-adc_lld_stop
 1166              		.section	.text.adc_lld_start_conversion,"ax",%progbits
 1167              		.align	2
 1168              		.p2align 4,,15
 1169              		.global	adc_lld_start_conversion
 1170              		.thumb
 1171              		.thumb_func
 1172              		.type	adc_lld_start_conversion, %function
 1173              	adc_lld_start_conversion:
 1174              	.LFB273:
 1175              		.loc 1 319 0
 1176              		.cfi_startproc
 1177              		@ args = 0, pretend = 0, frame = 0
 1178              		@ frame_needed = 0, uses_anonymous_args = 0
 1179              	.LVL81:
 1180              		.loc 1 322 0
 1181 0000 0369     		ldr	r3, [r0, #16]
 1182              	.LVL82:
 1183              		.loc 1 325 0
 1184 0002 016B     		ldr	r1, [r0, #48]
 1185              	.LVL83:
 1186              		.loc 1 326 0
 1187 0004 1A78     		ldrb	r2, [r3]	@ zero_extendqisi2
 1188              		.loc 1 319 0
 1189 0006 F0B5     		push	{r4, r5, r6, r7, lr}
 1190              		.cfi_def_cfa_offset 20
 1191              		.cfi_offset 4, -20
 1192              		.cfi_offset 5, -16
 1193              		.cfi_offset 6, -12
 1194              		.cfi_offset 7, -8
 1195              		.cfi_offset 14, -4
 1196              		.loc 1 326 0
 1197 0008 002A     		cmp	r2, #0
ARM GAS  /var/folders/m4/4md61f0s1_g0rzfghffqnxvr0000gn/T//cc9zLe0i.s 			page 22


 1198 000a 2BD1     		bne	.L115
 1199 000c C268     		ldr	r2, [r0, #12]
 1200              	.L116:
 1201              		.loc 1 334 0
 1202 000e C56A     		ldr	r5, [r0, #44]
 1203              		.loc 1 335 0
 1204 0010 5C88     		ldrh	r4, [r3, #2]
 1205              		.loc 1 334 0
 1206 0012 2D68     		ldr	r5, [r5]
 1207 0014 8668     		ldr	r6, [r0, #8]
 1208 0016 EE60     		str	r6, [r5, #12]
 1209              		.loc 1 335 0
 1210 0018 02FB04F2 		mul	r2, r2, r4
 1211 001c 6A60     		str	r2, [r5, #4]
 1212              		.loc 1 349 0
 1213 001e DC68     		ldr	r4, [r3, #12]
 1214              		.loc 1 337 0
 1215 0020 2960     		str	r1, [r5]
 1216              		.loc 1 338 0
 1217 0022 2E68     		ldr	r6, [r5]
 1218              		.loc 1 341 0
 1219 0024 826A     		ldr	r2, [r0, #40]
 1220              		.loc 1 352 0
 1221 0026 1969     		ldr	r1, [r3, #16]
 1222              	.LVL84:
 1223              		.loc 1 342 0
 1224 0028 D3F814E0 		ldr	lr, [r3, #20]
 1225              		.loc 1 343 0
 1226 002c 9F69     		ldr	r7, [r3, #24]
 1227              		.loc 1 349 0
 1228 002e 44F08060 		orr	r0, r4, #67108864
 1229              	.LVL85:
 1230              		.loc 1 338 0
 1231 0032 46F00104 		orr	r4, r6, #1
 1232 0036 2C60     		str	r4, [r5]
 1233              	.LVL86:
 1234              		.loc 1 341 0
 1235 0038 0024     		movs	r4, #0
 1236              		.loc 1 344 0
 1237 003a DD69     		ldr	r5, [r3, #28]
 1238              		.loc 1 341 0
 1239 003c 1460     		str	r4, [r2]
 1240              		.loc 1 345 0
 1241 003e 1C6A     		ldr	r4, [r3, #32]
 1242              		.loc 1 346 0
 1243 0040 5B6A     		ldr	r3, [r3, #36]
 1244              	.LVL87:
 1245              		.loc 1 342 0
 1246 0042 C2F80CE0 		str	lr, [r2, #12]
 1247              		.loc 1 349 0
 1248 0046 40F48070 		orr	r0, r0, #256
 1249              		.loc 1 343 0
 1250 004a 1761     		str	r7, [r2, #16]
 1251              		.loc 1 344 0
 1252 004c D562     		str	r5, [r2, #44]
 1253              		.loc 1 345 0
 1254 004e 1463     		str	r4, [r2, #48]
ARM GAS  /var/folders/m4/4md61f0s1_g0rzfghffqnxvr0000gn/T//cc9zLe0i.s 			page 23


 1255              		.loc 1 346 0
 1256 0050 5363     		str	r3, [r2, #52]
 1257              		.loc 1 356 0
 1258 0052 4B00     		lsls	r3, r1, #1
 1259              		.loc 1 349 0
 1260 0054 5060     		str	r0, [r2, #4]
 1261              		.loc 1 356 0
 1262 0056 0DD4     		bmi	.L121
 1263              		.loc 1 352 0
 1264 0058 41F44071 		orr	r1, r1, #768
 1265              	.LVL88:
 1266 005c 41F00101 		orr	r1, r1, #1
 1267              		.loc 1 364 0
 1268 0060 9160     		str	r1, [r2, #8]
 1269              	.LVL89:
 1270 0062 F0BD     		pop	{r4, r5, r6, r7, pc}
 1271              	.LVL90:
 1272              	.L115:
 1273              		.loc 1 328 0
 1274 0064 C268     		ldr	r2, [r0, #12]
 1275 0066 012A     		cmp	r2, #1
 1276              		.loc 1 327 0
 1277 0068 94BF     		ite	ls
 1278 006a 41F48071 		orrls	r1, r1, #256
 1279              	.LVL91:
 1280              		.loc 1 331 0
 1281 006e 41F48471 		orrhi	r1, r1, #264
 1282              	.LVL92:
 1283 0072 CCE7     		b	.L116
 1284              	.LVL93:
 1285              	.L121:
 1286              		.loc 1 358 0
 1287 0074 21F08043 		bic	r3, r1, #1073741824
 1288 0078 23F00203 		bic	r3, r3, #2
 1289 007c 43F44073 		orr	r3, r3, #768
 1290              		.loc 1 361 0
 1291 0080 41F44071 		orr	r1, r1, #768
 1292              	.LVL94:
 1293              		.loc 1 358 0
 1294 0084 43F00303 		orr	r3, r3, #3
 1295              		.loc 1 361 0
 1296 0088 41F00301 		orr	r1, r1, #3
 1297              		.loc 1 358 0
 1298 008c 9360     		str	r3, [r2, #8]
 1299              		.loc 1 361 0
 1300 008e 9160     		str	r1, [r2, #8]
 1301              	.LVL95:
 1302 0090 F0BD     		pop	{r4, r5, r6, r7, pc}
 1303              		.cfi_endproc
 1304              	.LFE273:
 1305              		.size	adc_lld_start_conversion, .-adc_lld_start_conversion
 1306 0092 00BF     		.section	.text.adc_lld_stop_conversion,"ax",%progbits
 1307              		.align	2
 1308              		.p2align 4,,15
 1309              		.global	adc_lld_stop_conversion
 1310              		.thumb
 1311              		.thumb_func
ARM GAS  /var/folders/m4/4md61f0s1_g0rzfghffqnxvr0000gn/T//cc9zLe0i.s 			page 24


 1312              		.type	adc_lld_stop_conversion, %function
 1313              	adc_lld_stop_conversion:
 1314              	.LFB274:
 1315              		.loc 1 374 0
 1316              		.cfi_startproc
 1317              		@ args = 0, pretend = 0, frame = 0
 1318              		@ frame_needed = 0, uses_anonymous_args = 0
 1319              		@ link register save eliminated.
 1320              	.LVL96:
 1321 0000 30B4     		push	{r4, r5}
 1322              		.cfi_def_cfa_offset 8
 1323              		.cfi_offset 4, -8
 1324              		.cfi_offset 5, -4
 1325              		.loc 1 376 0
 1326 0002 C46A     		ldr	r4, [r0, #44]
 1327 0004 2268     		ldr	r2, [r4]
 1328 0006 1368     		ldr	r3, [r2]
 1329 0008 23F01F03 		bic	r3, r3, #31
 1330 000c 1360     		str	r3, [r2]
 1331              	.L123:
 1332              		.loc 1 376 0 is_stmt 0 discriminator 2
 1333 000e 1368     		ldr	r3, [r2]
 1334 0010 13F00103 		ands	r3, r3, #1
 1335 0014 FBD1     		bne	.L123
 1336              		.loc 1 376 0 discriminator 3
 1337 0016 257A     		ldrb	r5, [r4, #8]	@ zero_extendqisi2
 1338              		.loc 1 377 0 is_stmt 1 discriminator 3
 1339 0018 826A     		ldr	r2, [r0, #40]
 1340              		.loc 1 376 0 discriminator 3
 1341 001a 6468     		ldr	r4, [r4, #4]
 1342 001c 3D21     		movs	r1, #61
 1343 001e A940     		lsls	r1, r1, r5
 1344              		.loc 1 379 0 discriminator 3
 1345 0020 0120     		movs	r0, #1
 1346              	.LVL97:
 1347              		.loc 1 376 0 discriminator 3
 1348 0022 2160     		str	r1, [r4]
 1349              		.loc 1 377 0 discriminator 3
 1350 0024 5360     		str	r3, [r2, #4]
 1351              		.loc 1 380 0 discriminator 3
 1352 0026 30BC     		pop	{r4, r5}
 1353              		.cfi_restore 5
 1354              		.cfi_restore 4
 1355              		.cfi_def_cfa_offset 0
 1356              		.loc 1 378 0 discriminator 3
 1357 0028 9360     		str	r3, [r2, #8]
 1358              		.loc 1 379 0 discriminator 3
 1359 002a 9060     		str	r0, [r2, #8]
 1360              		.loc 1 380 0 discriminator 3
 1361 002c 7047     		bx	lr
 1362              		.cfi_endproc
 1363              	.LFE274:
 1364              		.size	adc_lld_stop_conversion, .-adc_lld_stop_conversion
 1365 002e 00BF     		.section	.text.adcSTM32EnableTSVREFE,"ax",%progbits
 1366              		.align	2
 1367              		.p2align 4,,15
 1368              		.global	adcSTM32EnableTSVREFE
ARM GAS  /var/folders/m4/4md61f0s1_g0rzfghffqnxvr0000gn/T//cc9zLe0i.s 			page 25


 1369              		.thumb
 1370              		.thumb_func
 1371              		.type	adcSTM32EnableTSVREFE, %function
 1372              	adcSTM32EnableTSVREFE:
 1373              	.LFB275:
 1374              		.loc 1 388 0
 1375              		.cfi_startproc
 1376              		@ args = 0, pretend = 0, frame = 0
 1377              		@ frame_needed = 0, uses_anonymous_args = 0
 1378              		@ link register save eliminated.
 1379              		.loc 1 390 0
 1380 0000 024A     		ldr	r2, .L127
 1381 0002 5368     		ldr	r3, [r2, #4]
 1382 0004 43F40003 		orr	r3, r3, #8388608
 1383 0008 5360     		str	r3, [r2, #4]
 1384 000a 7047     		bx	lr
 1385              	.L128:
 1386              		.align	2
 1387              	.L127:
 1388 000c 00230140 		.word	1073816320
 1389              		.cfi_endproc
 1390              	.LFE275:
 1391              		.size	adcSTM32EnableTSVREFE, .-adcSTM32EnableTSVREFE
 1392              		.section	.text.adcSTM32DisableTSVREFE,"ax",%progbits
 1393              		.align	2
 1394              		.p2align 4,,15
 1395              		.global	adcSTM32DisableTSVREFE
 1396              		.thumb
 1397              		.thumb_func
 1398              		.type	adcSTM32DisableTSVREFE, %function
 1399              	adcSTM32DisableTSVREFE:
 1400              	.LFB276:
 1401              		.loc 1 399 0
 1402              		.cfi_startproc
 1403              		@ args = 0, pretend = 0, frame = 0
 1404              		@ frame_needed = 0, uses_anonymous_args = 0
 1405              		@ link register save eliminated.
 1406              		.loc 1 401 0
 1407 0000 024A     		ldr	r2, .L130
 1408 0002 5368     		ldr	r3, [r2, #4]
 1409 0004 23F40003 		bic	r3, r3, #8388608
 1410 0008 5360     		str	r3, [r2, #4]
 1411 000a 7047     		bx	lr
 1412              	.L131:
 1413              		.align	2
 1414              	.L130:
 1415 000c 00230140 		.word	1073816320
 1416              		.cfi_endproc
 1417              	.LFE276:
 1418              		.size	adcSTM32DisableTSVREFE, .-adcSTM32DisableTSVREFE
 1419              		.section	.text.adcSTM32EnableVBATE,"ax",%progbits
 1420              		.align	2
 1421              		.p2align 4,,15
 1422              		.global	adcSTM32EnableVBATE
 1423              		.thumb
 1424              		.thumb_func
 1425              		.type	adcSTM32EnableVBATE, %function
ARM GAS  /var/folders/m4/4md61f0s1_g0rzfghffqnxvr0000gn/T//cc9zLe0i.s 			page 26


 1426              	adcSTM32EnableVBATE:
 1427              	.LFB277:
 1428              		.loc 1 410 0
 1429              		.cfi_startproc
 1430              		@ args = 0, pretend = 0, frame = 0
 1431              		@ frame_needed = 0, uses_anonymous_args = 0
 1432              		@ link register save eliminated.
 1433              		.loc 1 412 0
 1434 0000 024A     		ldr	r2, .L133
 1435 0002 5368     		ldr	r3, [r2, #4]
 1436 0004 43F48003 		orr	r3, r3, #4194304
 1437 0008 5360     		str	r3, [r2, #4]
 1438 000a 7047     		bx	lr
 1439              	.L134:
 1440              		.align	2
 1441              	.L133:
 1442 000c 00230140 		.word	1073816320
 1443              		.cfi_endproc
 1444              	.LFE277:
 1445              		.size	adcSTM32EnableVBATE, .-adcSTM32EnableVBATE
 1446              		.section	.text.adcSTM32DisableVBATE,"ax",%progbits
 1447              		.align	2
 1448              		.p2align 4,,15
 1449              		.global	adcSTM32DisableVBATE
 1450              		.thumb
 1451              		.thumb_func
 1452              		.type	adcSTM32DisableVBATE, %function
 1453              	adcSTM32DisableVBATE:
 1454              	.LFB278:
 1455              		.loc 1 421 0
 1456              		.cfi_startproc
 1457              		@ args = 0, pretend = 0, frame = 0
 1458              		@ frame_needed = 0, uses_anonymous_args = 0
 1459              		@ link register save eliminated.
 1460              		.loc 1 423 0
 1461 0000 024A     		ldr	r2, .L136
 1462 0002 5368     		ldr	r3, [r2, #4]
 1463 0004 23F48003 		bic	r3, r3, #4194304
 1464 0008 5360     		str	r3, [r2, #4]
 1465 000a 7047     		bx	lr
 1466              	.L137:
 1467              		.align	2
 1468              	.L136:
 1469 000c 00230140 		.word	1073816320
 1470              		.cfi_endproc
 1471              	.LFE278:
 1472              		.size	adcSTM32DisableVBATE, .-adcSTM32DisableVBATE
 1473              		.global	ADCD3
 1474              		.global	ADCD2
 1475              		.global	ADCD1
 1476              		.section	.bss.ADCD1,"aw",%nobits
 1477              		.align	2
 1478              		.set	.LANCHOR0,. + 0
 1479              		.type	ADCD1, %object
 1480              		.size	ADCD1, 52
 1481              	ADCD1:
 1482 0000 00000000 		.space	52
ARM GAS  /var/folders/m4/4md61f0s1_g0rzfghffqnxvr0000gn/T//cc9zLe0i.s 			page 27


 1482      00000000 
 1482      00000000 
 1482      00000000 
 1482      00000000 
 1483              		.section	.bss.ADCD2,"aw",%nobits
 1484              		.align	2
 1485              		.set	.LANCHOR1,. + 0
 1486              		.type	ADCD2, %object
 1487              		.size	ADCD2, 52
 1488              	ADCD2:
 1489 0000 00000000 		.space	52
 1489      00000000 
 1489      00000000 
 1489      00000000 
 1489      00000000 
 1490              		.section	.bss.ADCD3,"aw",%nobits
 1491              		.align	2
 1492              		.set	.LANCHOR2,. + 0
 1493              		.type	ADCD3, %object
 1494              		.size	ADCD3, 52
 1495              	ADCD3:
 1496 0000 00000000 		.space	52
 1496      00000000 
 1496      00000000 
 1496      00000000 
 1496      00000000 
 1497              		.text
 1498              	.Letext0:
 1499              		.file 4 "/opt/homebrew-cask/Caskroom/gcc-arm-embedded/5_2-2015q4,20151219/gcc-arm-none-eabi-5_2-20
 1500              		.file 5 "/opt/homebrew-cask/Caskroom/gcc-arm-embedded/5_2-2015q4,20151219/gcc-arm-none-eabi-5_2-20
 1501              		.file 6 "/opt/homebrew-cask/Caskroom/gcc-arm-embedded/5_2-2015q4,20151219/gcc-arm-none-eabi-5_2-20
 1502              		.file 7 "ChibiOS_16.1.4/os/rt/ports/ARMCMx/compilers/GCC/chtypes.h"
 1503              		.file 8 "ChibiOS_16.1.4/os/rt/include/chsystypes.h"
 1504              		.file 9 "ChibiOS_16.1.4/os/rt/include/chschd.h"
 1505              		.file 10 "ChibiOS_16.1.4/os/ext/CMSIS/ST/STM32F4xx/stm32f446xx.h"
 1506              		.file 11 "ChibiOS_16.1.4/os/rt/ports/ARMCMx/chcore.h"
 1507              		.file 12 "ChibiOS_16.1.4/os/rt/ports/ARMCMx/chcore_v7m.h"
 1508              		.file 13 "ChibiOS_16.1.4/os/rt/include/chtm.h"
 1509              		.file 14 "ChibiOS_16.1.4/os/rt/include/chsem.h"
 1510              		.file 15 "ChibiOS_16.1.4/os/rt/include/chmtx.h"
 1511              		.file 16 "ChibiOS_16.1.4/os/hal/ports/STM32/LLD/DMAv2/stm32_dma.h"
 1512              		.file 17 "ChibiOS_16.1.4/os/hal/include/adc.h"
 1513              		.file 18 "ChibiOS_16.1.4/os/hal/ports/STM32/LLD/ADCv2/adc_lld.h"
 1514              		.file 19 "ChibiOS_16.1.4/os/rt/include/chsys.h"
 1515              		.file 20 "ChibiOS_16.1.4/os/ext/CMSIS/include/core_cm4.h"
 1516              		.file 21 "ChibiOS_16.1.4/os/rt/include/chthreads.h"
 1517              		.file 22 "ChibiOS_16.1.4/os/hal/ports/common/ARMCMx/nvic.h"