ARM GAS  /var/folders/m4/4md61f0s1_g0rzfghffqnxvr0000gn/T//ccxffEJg.s 			page 1


   1              		.syntax unified
   2              		.cpu cortex-m4
   3              		.eabi_attribute 27, 1
   4              		.eabi_attribute 28, 1
   5              		.fpu fpv4-sp-d16
   6              		.eabi_attribute 20, 1
   7              		.eabi_attribute 21, 1
   8              		.eabi_attribute 23, 3
   9              		.eabi_attribute 24, 1
  10              		.eabi_attribute 25, 1
  11              		.eabi_attribute 26, 1
  12              		.eabi_attribute 30, 2
  13              		.eabi_attribute 34, 1
  14              		.eabi_attribute 18, 4
  15              		.thumb
  16              		.file	"bno055.cpp"
  17              		.text
  18              	.Ltext0:
  19              		.cfi_sections	.debug_frame
  20              		.section	.text._Z16bno055_read_addrh,"ax",%progbits
  21              		.align	2
  22              		.p2align 4,,15
  23              		.global	_Z16bno055_read_addrh
  24              		.thumb
  25              		.thumb_func
  26              		.type	_Z16bno055_read_addrh, %function
  27              	_Z16bno055_read_addrh:
  28              	.LFB272:
  29              		.file 1 "bno055.cpp"
  30              		.loc 1 100 0
  31              		.cfi_startproc
  32              		@ args = 0, pretend = 0, frame = 8
  33              		@ frame_needed = 0, uses_anonymous_args = 0
  34              	.LVL0:
  35 0000 70B5     		push	{r4, r5, r6, lr}
  36              		.cfi_def_cfa_offset 16
  37              		.cfi_offset 4, -16
  38              		.cfi_offset 5, -12
  39              		.cfi_offset 6, -8
  40              		.cfi_offset 14, -4
  41 0002 86B0     		sub	sp, sp, #24
  42              		.cfi_def_cfa_offset 40
  43              	.LBB2:
  44              		.loc 1 105 0
  45 0004 0B4C     		ldr	r4, .L3
  46              		.loc 1 104 0
  47 0006 06AD     		add	r5, sp, #24
  48              		.loc 1 106 0
  49 0008 05AE     		add	r6, sp, #20
  50              		.loc 1 104 0
  51 000a 05F8080D 		strb	r0, [r5, #-8]!
  52              		.loc 1 105 0
  53 000e 2046     		mov	r0, r4
  54              	.LVL1:
  55 0010 FFF7FEFF 		bl	i2cAcquireBus
  56              	.LVL2:
  57              		.loc 1 106 0
ARM GAS  /var/folders/m4/4md61f0s1_g0rzfghffqnxvr0000gn/T//ccxffEJg.s 			page 2


  58 0014 0123     		movs	r3, #1
  59 0016 2821     		movs	r1, #40
  60 0018 2A46     		mov	r2, r5
  61 001a 0193     		str	r3, [sp, #4]
  62 001c 0291     		str	r1, [sp, #8]
  63 001e 2046     		mov	r0, r4
  64 0020 0096     		str	r6, [sp]
  65 0022 FFF7FEFF 		bl	i2cMasterTransmitTimeout
  66              	.LVL3:
  67              		.loc 1 107 0
  68 0026 2046     		mov	r0, r4
  69 0028 FFF7FEFF 		bl	i2cReleaseBus
  70              	.LVL4:
  71              	.LBE2:
  72              		.loc 1 109 0
  73 002c 9DF81400 		ldrb	r0, [sp, #20]	@ zero_extendqisi2
  74 0030 06B0     		add	sp, sp, #24
  75              		.cfi_def_cfa_offset 16
  76              		@ sp needed
  77 0032 70BD     		pop	{r4, r5, r6, pc}
  78              	.L4:
  79              		.align	2
  80              	.L3:
  81 0034 00000000 		.word	I2CD1
  82              		.cfi_endproc
  83              	.LFE272:
  84              		.size	_Z16bno055_read_addrh, .-_Z16bno055_read_addrh
  85              		.section	.text._Z17bno055_get_statusv,"ax",%progbits
  86              		.align	2
  87              		.p2align 4,,15
  88              		.global	_Z17bno055_get_statusv
  89              		.thumb
  90              		.thumb_func
  91              		.type	_Z17bno055_get_statusv, %function
  92              	_Z17bno055_get_statusv:
  93              	.LFB270:
  94              		.loc 1 90 0
  95              		.cfi_startproc
  96              		@ args = 0, pretend = 0, frame = 0
  97              		@ frame_needed = 0, uses_anonymous_args = 0
  98              		@ link register save eliminated.
  99              		.loc 1 91 0
 100 0000 3920     		movs	r0, #57
 101 0002 FFF7FEBF 		b	_Z16bno055_read_addrh
 102              	.LVL5:
 103              		.cfi_endproc
 104              	.LFE270:
 105              		.size	_Z17bno055_get_statusv, .-_Z17bno055_get_statusv
 106 0006 00BF     		.section	.text._Z16bno055_get_errorv,"ax",%progbits
 107              		.align	2
 108              		.p2align 4,,15
 109              		.global	_Z16bno055_get_errorv
 110              		.thumb
 111              		.thumb_func
 112              		.type	_Z16bno055_get_errorv, %function
 113              	_Z16bno055_get_errorv:
 114              	.LFB271:
ARM GAS  /var/folders/m4/4md61f0s1_g0rzfghffqnxvr0000gn/T//ccxffEJg.s 			page 3


 115              		.loc 1 95 0
 116              		.cfi_startproc
 117              		@ args = 0, pretend = 0, frame = 0
 118              		@ frame_needed = 0, uses_anonymous_args = 0
 119              		@ link register save eliminated.
 120              		.loc 1 96 0
 121 0000 3A20     		movs	r0, #58
 122 0002 FFF7FEBF 		b	_Z16bno055_read_addrh
 123              	.LVL6:
 124              		.cfi_endproc
 125              	.LFE271:
 126              		.size	_Z16bno055_get_errorv, .-_Z16bno055_get_errorv
 127 0006 00BF     		.section	.text._Z15bno055_read_lenhhPh,"ax",%progbits
 128              		.align	2
 129              		.p2align 4,,15
 130              		.global	_Z15bno055_read_lenhhPh
 131              		.thumb
 132              		.thumb_func
 133              		.type	_Z15bno055_read_lenhhPh, %function
 134              	_Z15bno055_read_lenhhPh:
 135              	.LFB273:
 136              		.loc 1 112 0
 137              		.cfi_startproc
 138              		@ args = 0, pretend = 0, frame = 8
 139              		@ frame_needed = 0, uses_anonymous_args = 0
 140              	.LVL7:
 141 0000 F0B5     		push	{r4, r5, r6, r7, lr}
 142              		.cfi_def_cfa_offset 20
 143              		.cfi_offset 4, -20
 144              		.cfi_offset 5, -16
 145              		.cfi_offset 6, -12
 146              		.cfi_offset 7, -8
 147              		.cfi_offset 14, -4
 148 0002 87B0     		sub	sp, sp, #28
 149              		.cfi_def_cfa_offset 48
 150              	.LBB3:
 151              		.loc 1 116 0
 152 0004 0B4C     		ldr	r4, .L9
 153              		.loc 1 115 0
 154 0006 06AD     		add	r5, sp, #24
 155              	.LBE3:
 156              		.loc 1 112 0
 157 0008 0E46     		mov	r6, r1
 158              	.LBB4:
 159              		.loc 1 115 0
 160 000a 05F8040D 		strb	r0, [r5, #-4]!
 161              		.loc 1 116 0
 162 000e 2046     		mov	r0, r4
 163              	.LVL8:
 164              	.LBE4:
 165              		.loc 1 112 0
 166 0010 1746     		mov	r7, r2
 167              	.LBB5:
 168              		.loc 1 116 0
 169 0012 FFF7FEFF 		bl	i2cAcquireBus
 170              	.LVL9:
 171              		.loc 1 117 0
ARM GAS  /var/folders/m4/4md61f0s1_g0rzfghffqnxvr0000gn/T//ccxffEJg.s 			page 4


 172 0016 2821     		movs	r1, #40
 173 0018 2A46     		mov	r2, r5
 174 001a 0291     		str	r1, [sp, #8]
 175 001c 0123     		movs	r3, #1
 176 001e 0097     		str	r7, [sp]
 177 0020 0196     		str	r6, [sp, #4]
 178 0022 2046     		mov	r0, r4
 179 0024 FFF7FEFF 		bl	i2cMasterTransmitTimeout
 180              	.LVL10:
 181              		.loc 1 118 0
 182 0028 2046     		mov	r0, r4
 183 002a FFF7FEFF 		bl	i2cReleaseBus
 184              	.LVL11:
 185              	.LBE5:
 186              		.loc 1 119 0
 187 002e 07B0     		add	sp, sp, #28
 188              		.cfi_def_cfa_offset 20
 189              		@ sp needed
 190 0030 F0BD     		pop	{r4, r5, r6, r7, pc}
 191              	.LVL12:
 192              	.L10:
 193 0032 00BF     		.align	2
 194              	.L9:
 195 0034 00000000 		.word	I2CD1
 196              		.cfi_endproc
 197              	.LFE273:
 198              		.size	_Z15bno055_read_lenhhPh, .-_Z15bno055_read_lenhhPh
 199              		.global	__aeabi_i2d
 200              		.global	__aeabi_dmul
 201              		.global	__aeabi_ddiv
 202              		.section	.text._Z17bno055_get_vectorh,"ax",%progbits
 203              		.align	2
 204              		.p2align 4,,15
 205              		.global	_Z17bno055_get_vectorh
 206              		.thumb
 207              		.thumb_func
 208              		.type	_Z17bno055_get_vectorh, %function
 209              	_Z17bno055_get_vectorh:
 210              	.LFB269:
 211              		.loc 1 48 0
 212              		.cfi_startproc
 213              		@ args = 0, pretend = 0, frame = 56
 214              		@ frame_needed = 0, uses_anonymous_args = 0
 215              	.LVL13:
 216 0000 F0B5     		push	{r4, r5, r6, r7, lr}
 217              		.cfi_def_cfa_offset 20
 218              		.cfi_offset 4, -20
 219              		.cfi_offset 5, -16
 220              		.cfi_offset 6, -12
 221              		.cfi_offset 7, -8
 222              		.cfi_offset 14, -4
 223 0002 2DED068B 		fstmfdd	sp!, {d8, d9, d10}
 224              		.cfi_def_cfa_offset 44
 225              		.cfi_offset 80, -44
 226              		.cfi_offset 81, -40
 227              		.cfi_offset 82, -36
 228              		.cfi_offset 83, -32
ARM GAS  /var/folders/m4/4md61f0s1_g0rzfghffqnxvr0000gn/T//ccxffEJg.s 			page 5


 229              		.cfi_offset 84, -28
 230              		.cfi_offset 85, -24
 231 0006 8FB0     		sub	sp, sp, #60
 232              		.cfi_def_cfa_offset 104
 233              	.LBB6:
 234              		.loc 1 51 0
 235 0008 0023     		movs	r3, #0
 236              		.loc 1 52 0
 237 000a 06AA     		add	r2, sp, #24
 238 000c 0621     		movs	r1, #6
 239              	.LBE6:
 240              		.loc 1 48 0
 241 000e 0446     		mov	r4, r0
 242              	.LBB7:
 243              		.loc 1 51 0
 244 0010 ADF81C30 		strh	r3, [sp, #28]	@ movhi
 245 0014 0693     		str	r3, [sp, #24]
 246              		.loc 1 52 0
 247 0016 FFF7FEFF 		bl	_Z15bno055_read_lenhhPh
 248              	.LVL14:
 249              		.loc 1 53 0
 250 001a 9DF81970 		ldrb	r7, [sp, #25]	@ zero_extendqisi2
 251 001e 9DF81800 		ldrb	r0, [sp, #24]	@ zero_extendqisi2
 252              		.loc 1 54 0
 253 0022 9DF81B50 		ldrb	r5, [sp, #27]	@ zero_extendqisi2
 254 0026 9DF81A10 		ldrb	r1, [sp, #26]	@ zero_extendqisi2
 255              		.loc 1 55 0
 256 002a 9DF81D60 		ldrb	r6, [sp, #29]	@ zero_extendqisi2
 257 002e 9DF81C20 		ldrb	r2, [sp, #28]	@ zero_extendqisi2
 258              		.loc 1 56 0
 259 0032 A4F10803 		sub	r3, r4, #8
 260              		.loc 1 53 0
 261 0036 40EA0720 		orr	r0, r0, r7, lsl #8
 262              	.LVL15:
 263              		.loc 1 54 0
 264 003a 41EA0525 		orr	r5, r1, r5, lsl #8
 265              	.LVL16:
 266              		.loc 1 55 0
 267 003e 42EA0624 		orr	r4, r2, r6, lsl #8
 268              	.LVL17:
 269              		.loc 1 56 0
 270 0042 262B     		cmp	r3, #38
 271 0044 30D8     		bhi	.L12
 272 0046 DFE803F0 		tbb	[pc, r3]
 273              	.L14:
 274 004a 14       		.byte	(.L13-.L14)/2
 275 004b 2F       		.byte	(.L12-.L14)/2
 276 004c 2F       		.byte	(.L12-.L14)/2
 277 004d 2F       		.byte	(.L12-.L14)/2
 278 004e 2F       		.byte	(.L12-.L14)/2
 279 004f 2F       		.byte	(.L12-.L14)/2
 280 0050 77       		.byte	(.L15-.L14)/2
 281 0051 2F       		.byte	(.L12-.L14)/2
 282 0052 2F       		.byte	(.L12-.L14)/2
 283 0053 2F       		.byte	(.L12-.L14)/2
 284 0054 2F       		.byte	(.L12-.L14)/2
 285 0055 2F       		.byte	(.L12-.L14)/2
ARM GAS  /var/folders/m4/4md61f0s1_g0rzfghffqnxvr0000gn/T//ccxffEJg.s 			page 6


 286 0056 5B       		.byte	(.L16-.L14)/2
 287 0057 2F       		.byte	(.L12-.L14)/2
 288 0058 2F       		.byte	(.L12-.L14)/2
 289 0059 2F       		.byte	(.L12-.L14)/2
 290 005a 2F       		.byte	(.L12-.L14)/2
 291 005b 2F       		.byte	(.L12-.L14)/2
 292 005c 3F       		.byte	(.L17-.L14)/2
 293 005d 2F       		.byte	(.L12-.L14)/2
 294 005e 2F       		.byte	(.L12-.L14)/2
 295 005f 2F       		.byte	(.L12-.L14)/2
 296 0060 2F       		.byte	(.L12-.L14)/2
 297 0061 2F       		.byte	(.L12-.L14)/2
 298 0062 2F       		.byte	(.L12-.L14)/2
 299 0063 2F       		.byte	(.L12-.L14)/2
 300 0064 2F       		.byte	(.L12-.L14)/2
 301 0065 2F       		.byte	(.L12-.L14)/2
 302 0066 2F       		.byte	(.L12-.L14)/2
 303 0067 2F       		.byte	(.L12-.L14)/2
 304 0068 2F       		.byte	(.L12-.L14)/2
 305 0069 2F       		.byte	(.L12-.L14)/2
 306 006a 14       		.byte	(.L13-.L14)/2
 307 006b 2F       		.byte	(.L12-.L14)/2
 308 006c 2F       		.byte	(.L12-.L14)/2
 309 006d 2F       		.byte	(.L12-.L14)/2
 310 006e 2F       		.byte	(.L12-.L14)/2
 311 006f 2F       		.byte	(.L12-.L14)/2
 312 0070 14       		.byte	(.L13-.L14)/2
 313 0071 00       		.p2align 1
 314              	.L13:
 315              		.loc 1 80 0
 316 0072 00B2     		sxth	r0, r0
 317 0074 FFF7FEFF 		bl	__aeabi_i2d
 318              	.LVL18:
 319 0078 0022     		movs	r2, #0
 320 007a 3D4B     		ldr	r3, .L20
 321 007c FFF7FEFF 		bl	__aeabi_ddiv
 322              	.LVL19:
 323 0080 41EC1A0B 		fmdrr	d10, r0, r1
 324              	.LVL20:
 325              		.loc 1 81 0
 326 0084 28B2     		sxth	r0, r5
 327              	.LVL21:
 328 0086 FFF7FEFF 		bl	__aeabi_i2d
 329              	.LVL22:
 330 008a 0022     		movs	r2, #0
 331 008c 384B     		ldr	r3, .L20
 332 008e FFF7FEFF 		bl	__aeabi_ddiv
 333              	.LVL23:
 334 0092 41EC190B 		fmdrr	d9, r0, r1
 335              	.LVL24:
 336              		.loc 1 82 0
 337 0096 20B2     		sxth	r0, r4
 338              	.LVL25:
 339 0098 FFF7FEFF 		bl	__aeabi_i2d
 340              	.LVL26:
 341 009c 0022     		movs	r2, #0
 342 009e 344B     		ldr	r3, .L20
ARM GAS  /var/folders/m4/4md61f0s1_g0rzfghffqnxvr0000gn/T//ccxffEJg.s 			page 7


 343 00a0 FFF7FEFF 		bl	__aeabi_ddiv
 344              	.LVL27:
 345 00a4 41EC180B 		fmdrr	d8, r0, r1
 346              	.LVL28:
 347              	.L12:
 348              	.LBE7:
 349              		.loc 1 87 0
 350 00a8 B0EE4A0A 		fcpys	s0, s20
 351 00ac F0EE6A0A 		fcpys	s1, s21
 352 00b0 B0EE491A 		fcpys	s2, s18
 353 00b4 F0EE691A 		fcpys	s3, s19
 354 00b8 B0EE482A 		fcpys	s4, s16
 355 00bc F0EE682A 		fcpys	s5, s17
 356 00c0 0FB0     		add	sp, sp, #60
 357              		.cfi_remember_state
 358              		.cfi_def_cfa_offset 44
 359              		@ sp needed
 360 00c2 BDEC068B 		fldmfdd	sp!, {d8-d10}
 361              		.cfi_restore 84
 362              		.cfi_restore 85
 363              		.cfi_restore 82
 364              		.cfi_restore 83
 365              		.cfi_restore 80
 366              		.cfi_restore 81
 367              		.cfi_def_cfa_offset 20
 368              	.LVL29:
 369 00c6 F0BD     		pop	{r4, r5, r6, r7, pc}
 370              	.LVL30:
 371              	.L17:
 372              		.cfi_restore_state
 373              	.LBB8:
 374              		.loc 1 72 0
 375 00c8 00B2     		sxth	r0, r0
 376 00ca FFF7FEFF 		bl	__aeabi_i2d
 377              	.LVL31:
 378 00ce 0022     		movs	r2, #0
 379 00d0 284B     		ldr	r3, .L20+4
 380 00d2 FFF7FEFF 		bl	__aeabi_dmul
 381              	.LVL32:
 382 00d6 41EC180B 		fmdrr	d8, r0, r1
 383              	.LVL33:
 384              		.loc 1 73 0
 385 00da 28B2     		sxth	r0, r5
 386              	.LVL34:
 387 00dc FFF7FEFF 		bl	__aeabi_i2d
 388              	.LVL35:
 389 00e0 0022     		movs	r2, #0
 390 00e2 244B     		ldr	r3, .L20+4
 391 00e4 FFF7FEFF 		bl	__aeabi_dmul
 392              	.LVL36:
 393 00e8 41EC190B 		fmdrr	d9, r0, r1
 394              	.LVL37:
 395              		.loc 1 74 0
 396 00ec 20B2     		sxth	r0, r4
 397              	.LVL38:
 398 00ee FFF7FEFF 		bl	__aeabi_i2d
 399              	.LVL39:
ARM GAS  /var/folders/m4/4md61f0s1_g0rzfghffqnxvr0000gn/T//ccxffEJg.s 			page 8


 400 00f2 0022     		movs	r2, #0
 401 00f4 1F4B     		ldr	r3, .L20+4
 402 00f6 FFF7FEFF 		bl	__aeabi_dmul
 403              	.LVL40:
 404 00fa 41EC1A0B 		fmdrr	d10, r0, r1
 405              	.LVL41:
 406              		.loc 1 75 0
 407 00fe D3E7     		b	.L12
 408              	.LVL42:
 409              	.L16:
 410              		.loc 1 66 0
 411 0100 00B2     		sxth	r0, r0
 412 0102 FFF7FEFF 		bl	__aeabi_i2d
 413              	.LVL43:
 414 0106 0022     		movs	r2, #0
 415 0108 1B4B     		ldr	r3, .L20+8
 416 010a FFF7FEFF 		bl	__aeabi_ddiv
 417              	.LVL44:
 418 010e 41EC1A0B 		fmdrr	d10, r0, r1
 419              	.LVL45:
 420              		.loc 1 67 0
 421 0112 28B2     		sxth	r0, r5
 422              	.LVL46:
 423 0114 FFF7FEFF 		bl	__aeabi_i2d
 424              	.LVL47:
 425 0118 0022     		movs	r2, #0
 426 011a 174B     		ldr	r3, .L20+8
 427 011c FFF7FEFF 		bl	__aeabi_ddiv
 428              	.LVL48:
 429 0120 41EC190B 		fmdrr	d9, r0, r1
 430              	.LVL49:
 431              		.loc 1 68 0
 432 0124 20B2     		sxth	r0, r4
 433              	.LVL50:
 434 0126 FFF7FEFF 		bl	__aeabi_i2d
 435              	.LVL51:
 436 012a 0022     		movs	r2, #0
 437 012c 124B     		ldr	r3, .L20+8
 438 012e FFF7FEFF 		bl	__aeabi_ddiv
 439              	.LVL52:
 440 0132 41EC180B 		fmdrr	d8, r0, r1
 441              	.LVL53:
 442              		.loc 1 69 0
 443 0136 B7E7     		b	.L12
 444              	.LVL54:
 445              	.L15:
 446              		.loc 1 60 0
 447 0138 00B2     		sxth	r0, r0
 448 013a FFF7FEFF 		bl	__aeabi_i2d
 449              	.LVL55:
 450 013e 0022     		movs	r2, #0
 451 0140 0C4B     		ldr	r3, .L20+4
 452 0142 FFF7FEFF 		bl	__aeabi_dmul
 453              	.LVL56:
 454 0146 41EC1A0B 		fmdrr	d10, r0, r1
 455              	.LVL57:
 456              		.loc 1 61 0
ARM GAS  /var/folders/m4/4md61f0s1_g0rzfghffqnxvr0000gn/T//ccxffEJg.s 			page 9


 457 014a 28B2     		sxth	r0, r5
 458              	.LVL58:
 459 014c FFF7FEFF 		bl	__aeabi_i2d
 460              	.LVL59:
 461 0150 0022     		movs	r2, #0
 462 0152 084B     		ldr	r3, .L20+4
 463 0154 FFF7FEFF 		bl	__aeabi_dmul
 464              	.LVL60:
 465 0158 41EC190B 		fmdrr	d9, r0, r1
 466              	.LVL61:
 467              		.loc 1 62 0
 468 015c 20B2     		sxth	r0, r4
 469              	.LVL62:
 470 015e FFF7FEFF 		bl	__aeabi_i2d
 471              	.LVL63:
 472 0162 0022     		movs	r2, #0
 473 0164 034B     		ldr	r3, .L20+4
 474 0166 FFF7FEFF 		bl	__aeabi_dmul
 475              	.LVL64:
 476 016a 41EC180B 		fmdrr	d8, r0, r1
 477              	.LVL65:
 478              		.loc 1 63 0
 479 016e 9BE7     		b	.L12
 480              	.L21:
 481              		.align	2
 482              	.L20:
 483 0170 00005940 		.word	1079574528
 484 0174 0000B03F 		.word	1068498944
 485 0178 00208C40 		.word	1082925056
 486              	.LBE8:
 487              		.cfi_endproc
 488              	.LFE269:
 489              		.size	_Z17bno055_get_vectorh, .-_Z17bno055_get_vectorh
 490              		.section	.text._Z17bno055_write_addrhh,"ax",%progbits
 491              		.align	2
 492              		.p2align 4,,15
 493              		.global	_Z17bno055_write_addrhh
 494              		.thumb
 495              		.thumb_func
 496              		.type	_Z17bno055_write_addrhh, %function
 497              	_Z17bno055_write_addrhh:
 498              	.LFB274:
 499              		.loc 1 122 0
 500              		.cfi_startproc
 501              		@ args = 0, pretend = 0, frame = 8
 502              		@ frame_needed = 0, uses_anonymous_args = 0
 503              	.LVL66:
 504 0000 10B5     		push	{r4, lr}
 505              		.cfi_def_cfa_offset 8
 506              		.cfi_offset 4, -8
 507              		.cfi_offset 14, -4
 508              	.LBB9:
 509              		.loc 1 128 0
 510 0002 0C4C     		ldr	r4, .L24
 511              	.LBE9:
 512              		.loc 1 122 0
 513 0004 86B0     		sub	sp, sp, #24
ARM GAS  /var/folders/m4/4md61f0s1_g0rzfghffqnxvr0000gn/T//ccxffEJg.s 			page 10


 514              		.cfi_def_cfa_offset 32
 515              	.LBB10:
 516              		.loc 1 126 0
 517 0006 8DF81400 		strb	r0, [sp, #20]
 518              		.loc 1 128 0
 519 000a 2046     		mov	r0, r4
 520              	.LVL67:
 521              		.loc 1 127 0
 522 000c 8DF81510 		strb	r1, [sp, #21]
 523              		.loc 1 128 0
 524 0010 FFF7FEFF 		bl	i2cAcquireBus
 525              	.LVL68:
 526              		.loc 1 129 0
 527 0014 2821     		movs	r1, #40
 528 0016 04AA     		add	r2, sp, #16
 529 0018 0023     		movs	r3, #0
 530 001a 8DE80C00 		stmia	sp, {r2, r3}
 531 001e 0291     		str	r1, [sp, #8]
 532 0020 05AA     		add	r2, sp, #20
 533 0022 0223     		movs	r3, #2
 534 0024 2046     		mov	r0, r4
 535 0026 FFF7FEFF 		bl	i2cMasterTransmitTimeout
 536              	.LVL69:
 537              		.loc 1 130 0
 538 002a 2046     		mov	r0, r4
 539 002c FFF7FEFF 		bl	i2cReleaseBus
 540              	.LVL70:
 541              	.LBE10:
 542              		.loc 1 131 0
 543 0030 06B0     		add	sp, sp, #24
 544              		.cfi_def_cfa_offset 8
 545              		@ sp needed
 546 0032 10BD     		pop	{r4, pc}
 547              	.L25:
 548              		.align	2
 549              	.L24:
 550 0034 00000000 		.word	I2CD1
 551              		.cfi_endproc
 552              	.LFE274:
 553              		.size	_Z17bno055_write_addrhh, .-_Z17bno055_write_addrhh
 554              		.section	.text._Z11bno055_initv,"ax",%progbits
 555              		.align	2
 556              		.p2align 4,,15
 557              		.global	_Z11bno055_initv
 558              		.thumb
 559              		.thumb_func
 560              		.type	_Z11bno055_initv, %function
 561              	_Z11bno055_initv:
 562              	.LFB268:
 563              		.loc 1 13 0
 564              		.cfi_startproc
 565              		@ args = 0, pretend = 0, frame = 0
 566              		@ frame_needed = 0, uses_anonymous_args = 0
 567 0000 08B5     		push	{r3, lr}
 568              		.cfi_def_cfa_offset 8
 569              		.cfi_offset 3, -8
 570              		.cfi_offset 14, -4
ARM GAS  /var/folders/m4/4md61f0s1_g0rzfghffqnxvr0000gn/T//ccxffEJg.s 			page 11


 571              	.LBB11:
 572              		.loc 1 14 0
 573 0002 2B48     		ldr	r0, .L34
 574 0004 2B49     		ldr	r1, .L34+4
 575 0006 FFF7FEFF 		bl	i2cStart
 576              	.LVL71:
 577              		.loc 1 15 0
 578 000a 2B48     		ldr	r0, .L34+8
 579 000c 4021     		movs	r1, #64
 580 000e 40F20622 		movw	r2, #518
 581 0012 FFF7FEFF 		bl	_pal_lld_setgroupmode
 582              	.LVL72:
 583              		.loc 1 16 0
 584 0016 2848     		ldr	r0, .L34+8
 585 0018 8021     		movs	r1, #128
 586 001a 40F20622 		movw	r2, #518
 587 001e FFF7FEFF 		bl	_pal_lld_setgroupmode
 588              	.LVL73:
 589              		.loc 1 17 0
 590 0022 0020     		movs	r0, #0
 591 0024 FFF7FEFF 		bl	_Z16bno055_read_addrh
 592              	.LVL74:
 593              		.loc 1 18 0
 594 0028 A028     		cmp	r0, #160
 595 002a 0AD0     		beq	.L30
 596              		.loc 1 20 0
 597 002c 42F21070 		movw	r0, #10000
 598              	.LVL75:
 599 0030 FFF7FEFF 		bl	chThdSleep
 600              	.LVL76:
 601              		.loc 1 21 0
 602 0034 0020     		movs	r0, #0
 603 0036 FFF7FEFF 		bl	_Z16bno055_read_addrh
 604              	.LVL77:
 605              		.loc 1 22 0
 606 003a A028     		cmp	r0, #160
 607 003c 01D0     		beq	.L30
 608              		.loc 1 23 0
 609 003e 0020     		movs	r0, #0
 610              	.LVL78:
 611              	.LBE11:
 612              		.loc 1 45 0
 613 0040 08BD     		pop	{r3, pc}
 614              	.LVL79:
 615              	.L30:
 616              	.LBB12:
 617              		.loc 1 26 0
 618 0042 0021     		movs	r1, #0
 619 0044 3D20     		movs	r0, #61
 620              	.LVL80:
 621 0046 FFF7FEFF 		bl	_Z17bno055_write_addrhh
 622              	.LVL81:
 623              		.loc 1 27 0
 624 004a 4FF49670 		mov	r0, #300
 625 004e FFF7FEFF 		bl	chThdSleep
 626              	.LVL82:
 627              		.loc 1 28 0
ARM GAS  /var/folders/m4/4md61f0s1_g0rzfghffqnxvr0000gn/T//ccxffEJg.s 			page 12


 628 0052 3F20     		movs	r0, #63
 629 0054 2021     		movs	r1, #32
 630 0056 FFF7FEFF 		bl	_Z17bno055_write_addrhh
 631              	.LVL83:
 632              		.loc 1 29 0
 633 005a 01E0     		b	.L28
 634              	.L31:
 635              		.loc 1 31 0
 636 005c FFF7FEFF 		bl	chThdSleep
 637              	.LVL84:
 638              	.L28:
 639              		.loc 1 29 0
 640 0060 0020     		movs	r0, #0
 641 0062 FFF7FEFF 		bl	_Z16bno055_read_addrh
 642              	.LVL85:
 643 0066 A028     		cmp	r0, #160
 644              		.loc 1 31 0
 645 0068 4FF06400 		mov	r0, #100
 646              		.loc 1 29 0
 647 006c F6D1     		bne	.L31
 648              		.loc 1 33 0
 649 006e 4FF4FA70 		mov	r0, #500
 650 0072 FFF7FEFF 		bl	chThdSleep
 651              	.LVL86:
 652              		.loc 1 36 0
 653 0076 0021     		movs	r1, #0
 654 0078 3E20     		movs	r0, #62
 655 007a FFF7FEFF 		bl	_Z17bno055_write_addrhh
 656              	.LVL87:
 657              		.loc 1 37 0
 658 007e 6420     		movs	r0, #100
 659 0080 FFF7FEFF 		bl	chThdSleep
 660              	.LVL88:
 661              		.loc 1 39 0
 662 0084 0720     		movs	r0, #7
 663 0086 0021     		movs	r1, #0
 664 0088 FFF7FEFF 		bl	_Z17bno055_write_addrhh
 665              	.LVL89:
 666              		.loc 1 40 0
 667 008c 8021     		movs	r1, #128
 668 008e 3F20     		movs	r0, #63
 669 0090 FFF7FEFF 		bl	_Z17bno055_write_addrhh
 670              	.LVL90:
 671              		.loc 1 41 0
 672 0094 6420     		movs	r0, #100
 673 0096 FFF7FEFF 		bl	chThdSleep
 674              	.LVL91:
 675              		.loc 1 42 0
 676 009a 0C21     		movs	r1, #12
 677 009c 3D20     		movs	r0, #61
 678 009e FFF7FEFF 		bl	_Z17bno055_write_addrhh
 679              	.LVL92:
 680              		.loc 1 43 0
 681 00a2 4FF4FA70 		mov	r0, #500
 682 00a6 FFF7FEFF 		bl	chThdSleep
 683              	.LVL93:
 684              		.loc 1 44 0
ARM GAS  /var/folders/m4/4md61f0s1_g0rzfghffqnxvr0000gn/T//ccxffEJg.s 			page 13


 685 00aa 0120     		movs	r0, #1
 686 00ac 08BD     		pop	{r3, pc}
 687              	.L35:
 688 00ae 00BF     		.align	2
 689              	.L34:
 690 00b0 00000000 		.word	I2CD1
 691 00b4 00000000 		.word	.LANCHOR0
 692 00b8 00040240 		.word	1073873920
 693              	.LBE12:
 694              		.cfi_endproc
 695              	.LFE268:
 696              		.size	_Z11bno055_initv, .-_Z11bno055_initv
 697              		.section	.rodata._ZL6i2ccfg,"a",%progbits
 698              		.align	2
 699              		.set	.LANCHOR0,. + 0
 700              		.type	_ZL6i2ccfg, %object
 701              		.size	_ZL6i2ccfg, 12
 702              	_ZL6i2ccfg:
 703 0000 01       		.byte	1
 704 0001 000000   		.space	3
 705 0004 A0860100 		.word	100000
 706 0008 01       		.byte	1
 707 0009 000000   		.space	3
 708              		.text
 709              	.Letext0:
 710              		.file 2 "/usr/local/Cellar/gcc-arm-none-eabi-49/20150609/lib/gcc/arm-none-eabi/4.9.3/include/stdde
 711              		.file 3 "/usr/local/Cellar/gcc-arm-none-eabi-49/20150609/arm-none-eabi/include/machine/_default_ty
 712              		.file 4 "/usr/local/Cellar/gcc-arm-none-eabi-49/20150609/arm-none-eabi/include/sys/_stdint.h"
 713              		.file 5 "ChibiOS_16.1.4/os/rt/ports/ARMCMx/compilers/GCC/chtypes.h"
 714              		.file 6 "ChibiOS_16.1.4/os/rt/include/chsystypes.h"
 715              		.file 7 "ChibiOS_16.1.4/os/rt/include/chschd.h"
 716              		.file 8 "ChibiOS_16.1.4/os/ext/CMSIS/ST/STM32F4xx/stm32f446xx.h"
 717              		.file 9 "ChibiOS_16.1.4/os/ext/CMSIS/ST/STM32F4xx/stm32f4xx.h"
 718              		.file 10 "ChibiOS_16.1.4/os/rt/ports/ARMCMx/chcore.h"
 719              		.file 11 "ChibiOS_16.1.4/os/rt/ports/ARMCMx/chcore_v7m.h"
 720              		.file 12 "ChibiOS_16.1.4/os/rt/include/chtm.h"
 721              		.file 13 "ChibiOS_16.1.4/os/rt/include/chsem.h"
 722              		.file 14 "ChibiOS_16.1.4/os/rt/include/chmtx.h"
 723              		.file 15 "ChibiOS_16.1.4/os/hal/ports/STM32/LLD/DMAv2/stm32_dma.h"
 724              		.file 16 "ChibiOS_16.1.4/os/hal/ports/STM32/LLD/GPIOv2/pal_lld.h"
 725              		.file 17 "ChibiOS_16.1.4/os/hal/include/i2c.h"
 726              		.file 18 "ChibiOS_16.1.4/os/hal/ports/STM32/LLD/I2Cv1/i2c_lld.h"
 727              		.file 19 "bno055.h"
 728              		.file 20 "ChibiOS_16.1.4/os/ext/CMSIS/include/core_cm4.h"
 729              		.file 21 "ChibiOS_16.1.4/os/rt/include/chthreads.h"