ARM GAS  /var/folders/m4/4md61f0s1_g0rzfghffqnxvr0000gn/T//ccuZYhcl.s 			page 1


   1              		.syntax unified
   2              		.cpu cortex-m4
   3              		.eabi_attribute 27, 1
   4              		.eabi_attribute 28, 1
   5              		.fpu fpv4-sp-d16
   6              		.eabi_attribute 20, 1
   7              		.eabi_attribute 21, 1
   8              		.eabi_attribute 23, 3
   9              		.eabi_attribute 24, 1
  10              		.eabi_attribute 25, 1
  11              		.eabi_attribute 26, 1
  12              		.eabi_attribute 30, 2
  13              		.eabi_attribute 34, 1
  14              		.eabi_attribute 18, 4
  15              		.thumb
  16              		.file	"bno055.c"
  17              		.text
  18              	.Ltext0:
  19              		.cfi_sections	.debug_frame
  20              		.section	.text.bno055_read_addr,"ax",%progbits
  21              		.align	2
  22              		.p2align 4,,15
  23              		.global	bno055_read_addr
  24              		.thumb
  25              		.thumb_func
  26              		.type	bno055_read_addr, %function
  27              	bno055_read_addr:
  28              	.LFB269:
  29              		.file 1 "bno055.c"
  30              		.loc 1 169 0
  31              		.cfi_startproc
  32              		@ args = 0, pretend = 0, frame = 8
  33              		@ frame_needed = 0, uses_anonymous_args = 0
  34              	.LVL0:
  35 0000 70B5     		push	{r4, r5, r6, lr}
  36              		.cfi_def_cfa_offset 16
  37              		.cfi_offset 4, -16
  38              		.cfi_offset 5, -12
  39              		.cfi_offset 6, -8
  40              		.cfi_offset 14, -4
  41 0002 86B0     		sub	sp, sp, #24
  42              		.cfi_def_cfa_offset 40
  43              		.loc 1 174 0
  44 0004 0B4C     		ldr	r4, .L3
  45              		.loc 1 173 0
  46 0006 06AD     		add	r5, sp, #24
  47              		.loc 1 175 0
  48 0008 05AE     		add	r6, sp, #20
  49              		.loc 1 173 0
  50 000a 05F8080D 		strb	r0, [r5, #-8]!
  51              		.loc 1 174 0
  52 000e 2046     		mov	r0, r4
  53              	.LVL1:
  54 0010 FFF7FEFF 		bl	i2cAcquireBus
  55              	.LVL2:
  56              		.loc 1 175 0
  57 0014 0123     		movs	r3, #1
ARM GAS  /var/folders/m4/4md61f0s1_g0rzfghffqnxvr0000gn/T//ccuZYhcl.s 			page 2


  58 0016 2821     		movs	r1, #40
  59 0018 2A46     		mov	r2, r5
  60 001a 0193     		str	r3, [sp, #4]
  61 001c 0291     		str	r1, [sp, #8]
  62 001e 2046     		mov	r0, r4
  63 0020 0096     		str	r6, [sp]
  64 0022 FFF7FEFF 		bl	i2cMasterTransmitTimeout
  65              	.LVL3:
  66              		.loc 1 176 0
  67 0026 2046     		mov	r0, r4
  68 0028 FFF7FEFF 		bl	i2cReleaseBus
  69              	.LVL4:
  70              		.loc 1 178 0
  71 002c 9DF81400 		ldrb	r0, [sp, #20]	@ zero_extendqisi2
  72 0030 06B0     		add	sp, sp, #24
  73              		.cfi_def_cfa_offset 16
  74              		@ sp needed
  75 0032 70BD     		pop	{r4, r5, r6, pc}
  76              	.L4:
  77              		.align	2
  78              	.L3:
  79 0034 00000000 		.word	I2CD1
  80              		.cfi_endproc
  81              	.LFE269:
  82              		.size	bno055_read_addr, .-bno055_read_addr
  83              		.section	.text.bno055_init,"ax",%progbits
  84              		.align	2
  85              		.p2align 4,,15
  86              		.global	bno055_init
  87              		.thumb
  88              		.thumb_func
  89              		.type	bno055_init, %function
  90              	bno055_init:
  91              	.LFB268:
  92              		.loc 1 155 0
  93              		.cfi_startproc
  94              		@ args = 0, pretend = 0, frame = 0
  95              		@ frame_needed = 0, uses_anonymous_args = 0
  96 0000 08B5     		push	{r3, lr}
  97              		.cfi_def_cfa_offset 8
  98              		.cfi_offset 3, -8
  99              		.cfi_offset 14, -4
 100              		.loc 1 156 0
 101 0002 0020     		movs	r0, #0
 102 0004 FFF7FEFF 		bl	bno055_read_addr
 103              	.LVL5:
 104              		.loc 1 157 0
 105 0008 A028     		cmp	r0, #160
 106 000a 0CD0     		beq	.L7
 107              		.loc 1 159 0
 108 000c 42F21070 		movw	r0, #10000
 109              	.LVL6:
 110 0010 FFF7FEFF 		bl	chThdSleep
 111              	.LVL7:
 112              		.loc 1 160 0
 113 0014 0020     		movs	r0, #0
 114 0016 FFF7FEFF 		bl	bno055_read_addr
ARM GAS  /var/folders/m4/4md61f0s1_g0rzfghffqnxvr0000gn/T//ccuZYhcl.s 			page 3


 115              	.LVL8:
 116              		.loc 1 161 0
 117 001a A0F1A000 		sub	r0, #160
 118              	.LVL9:
 119 001e B0FA80F0 		clz	r0, r0
 120 0022 4009     		lsrs	r0, r0, #5
 121 0024 08BD     		pop	{r3, pc}
 122              	.LVL10:
 123              	.L7:
 124              		.loc 1 165 0
 125 0026 0120     		movs	r0, #1
 126              	.LVL11:
 127              		.loc 1 166 0
 128 0028 08BD     		pop	{r3, pc}
 129              		.cfi_endproc
 130              	.LFE268:
 131              		.size	bno055_init, .-bno055_init
 132 002a 00BF     		.text
 133              	.Letext0:
 134              		.file 2 "/usr/local/Cellar/gcc-arm-none-eabi-49/20150609/lib/gcc/arm-none-eabi/4.9.3/include/stdde
 135              		.file 3 "/usr/local/Cellar/gcc-arm-none-eabi-49/20150609/arm-none-eabi/include/machine/_default_ty
 136              		.file 4 "/usr/local/Cellar/gcc-arm-none-eabi-49/20150609/arm-none-eabi/include/sys/_stdint.h"
 137              		.file 5 "ChibiOS_16.1.4/os/rt/ports/ARMCMx/compilers/GCC/chtypes.h"
 138              		.file 6 "ChibiOS_16.1.4/os/rt/include/chsystypes.h"
 139              		.file 7 "ChibiOS_16.1.4/os/rt/include/chschd.h"
 140              		.file 8 "ChibiOS_16.1.4/os/ext/CMSIS/ST/STM32F4xx/stm32f446xx.h"
 141              		.file 9 "ChibiOS_16.1.4/os/rt/ports/ARMCMx/chcore.h"
 142              		.file 10 "ChibiOS_16.1.4/os/rt/ports/ARMCMx/chcore_v7m.h"
 143              		.file 11 "ChibiOS_16.1.4/os/rt/include/chtm.h"
 144              		.file 12 "ChibiOS_16.1.4/os/rt/include/chsem.h"
 145              		.file 13 "ChibiOS_16.1.4/os/rt/include/chmtx.h"
 146              		.file 14 "ChibiOS_16.1.4/os/hal/ports/STM32/LLD/DMAv2/stm32_dma.h"
 147              		.file 15 "ChibiOS_16.1.4/os/hal/include/i2c.h"
 148              		.file 16 "ChibiOS_16.1.4/os/hal/ports/STM32/LLD/I2Cv1/i2c_lld.h"
 149              		.file 17 "ChibiOS_16.1.4/os/ext/CMSIS/include/core_cm4.h"
 150              		.file 18 "ChibiOS_16.1.4/os/rt/include/chthreads.h"
 151              		.section	.debug_info,"",%progbits
 152              	.Ldebug_info0:
 153 0000 0F0C0000 		.4byte	0xc0f
 154 0004 0400     		.2byte	0x4
 155 0006 00000000 		.4byte	.Ldebug_abbrev0
 156 000a 04       		.byte	0x4
 157 000b 01       		.uleb128 0x1
 158 000c EE050000 		.4byte	.LASF163
 159 0010 01       		.byte	0x1
 160 0011 F9030000 		.4byte	.LASF164
 161 0015 00000000 		.4byte	.LASF165
 162 0019 00000000 		.4byte	.Ldebug_ranges0+0
 163 001d 00000000 		.4byte	0
 164 0021 00000000 		.4byte	.Ldebug_line0
 165 0025 02       		.uleb128 0x2
 166 0026 04       		.byte	0x4
 167 0027 05       		.byte	0x5
 168 0028 696E7400 		.ascii	"int\000"
 169 002c 03       		.uleb128 0x3
 170 002d 53000000 		.4byte	.LASF2
 171 0031 02       		.byte	0x2
ARM GAS  /var/folders/m4/4md61f0s1_g0rzfghffqnxvr0000gn/T//ccuZYhcl.s 			page 4


 172 0032 D4       		.byte	0xd4
 173 0033 37000000 		.4byte	0x37
 174 0037 04       		.uleb128 0x4
 175 0038 04       		.byte	0x4
 176 0039 07       		.byte	0x7
 177 003a 22020000 		.4byte	.LASF0
 178 003e 04       		.uleb128 0x4
 179 003f 01       		.byte	0x1
 180 0040 06       		.byte	0x6
 181 0041 43010000 		.4byte	.LASF1
 182 0045 03       		.uleb128 0x3
 183 0046 71000000 		.4byte	.LASF3
 184 004a 03       		.byte	0x3
 185 004b 1D       		.byte	0x1d
 186 004c 50000000 		.4byte	0x50
 187 0050 04       		.uleb128 0x4
 188 0051 01       		.byte	0x1
 189 0052 08       		.byte	0x8
 190 0053 B7040000 		.4byte	.LASF4
 191 0057 04       		.uleb128 0x4
 192 0058 02       		.byte	0x2
 193 0059 05       		.byte	0x5
 194 005a 18030000 		.4byte	.LASF5
 195 005e 03       		.uleb128 0x3
 196 005f A3050000 		.4byte	.LASF6
 197 0063 03       		.byte	0x3
 198 0064 2B       		.byte	0x2b
 199 0065 69000000 		.4byte	0x69
 200 0069 04       		.uleb128 0x4
 201 006a 02       		.byte	0x2
 202 006b 07       		.byte	0x7
 203 006c 87020000 		.4byte	.LASF7
 204 0070 03       		.uleb128 0x3
 205 0071 22030000 		.4byte	.LASF8
 206 0075 03       		.byte	0x3
 207 0076 3F       		.byte	0x3f
 208 0077 7B000000 		.4byte	0x7b
 209 007b 04       		.uleb128 0x4
 210 007c 04       		.byte	0x4
 211 007d 05       		.byte	0x5
 212 007e 9B010000 		.4byte	.LASF9
 213 0082 03       		.uleb128 0x3
 214 0083 DC050000 		.4byte	.LASF10
 215 0087 03       		.byte	0x3
 216 0088 41       		.byte	0x41
 217 0089 8D000000 		.4byte	0x8d
 218 008d 04       		.uleb128 0x4
 219 008e 04       		.byte	0x4
 220 008f 07       		.byte	0x7
 221 0090 85050000 		.4byte	.LASF11
 222 0094 04       		.uleb128 0x4
 223 0095 08       		.byte	0x8
 224 0096 05       		.byte	0x5
 225 0097 35010000 		.4byte	.LASF12
 226 009b 03       		.uleb128 0x3
 227 009c 02040000 		.4byte	.LASF13
 228 00a0 03       		.byte	0x3
ARM GAS  /var/folders/m4/4md61f0s1_g0rzfghffqnxvr0000gn/T//ccuZYhcl.s 			page 5


 229 00a1 5B       		.byte	0x5b
 230 00a2 A6000000 		.4byte	0xa6
 231 00a6 04       		.uleb128 0x4
 232 00a7 08       		.byte	0x8
 233 00a8 07       		.byte	0x7
 234 00a9 A3000000 		.4byte	.LASF14
 235 00ad 03       		.uleb128 0x3
 236 00ae 9B070000 		.4byte	.LASF15
 237 00b2 04       		.byte	0x4
 238 00b3 14       		.byte	0x14
 239 00b4 45000000 		.4byte	0x45
 240 00b8 03       		.uleb128 0x3
 241 00b9 E6020000 		.4byte	.LASF16
 242 00bd 04       		.byte	0x4
 243 00be 1A       		.byte	0x1a
 244 00bf 5E000000 		.4byte	0x5e
 245 00c3 03       		.uleb128 0x3
 246 00c4 AF040000 		.4byte	.LASF17
 247 00c8 04       		.byte	0x4
 248 00c9 1F       		.byte	0x1f
 249 00ca 70000000 		.4byte	0x70
 250 00ce 03       		.uleb128 0x3
 251 00cf 49050000 		.4byte	.LASF18
 252 00d3 04       		.byte	0x4
 253 00d4 20       		.byte	0x20
 254 00d5 82000000 		.4byte	0x82
 255 00d9 03       		.uleb128 0x3
 256 00da 61000000 		.4byte	.LASF19
 257 00de 04       		.byte	0x4
 258 00df 26       		.byte	0x26
 259 00e0 9B000000 		.4byte	0x9b
 260 00e4 03       		.uleb128 0x3
 261 00e5 57070000 		.4byte	.LASF20
 262 00e9 05       		.byte	0x5
 263 00ea 39       		.byte	0x39
 264 00eb CE000000 		.4byte	0xce
 265 00ef 03       		.uleb128 0x3
 266 00f0 DE020000 		.4byte	.LASF21
 267 00f4 05       		.byte	0x5
 268 00f5 3C       		.byte	0x3c
 269 00f6 AD000000 		.4byte	0xad
 270 00fa 03       		.uleb128 0x3
 271 00fb A4010000 		.4byte	.LASF22
 272 00ff 05       		.byte	0x5
 273 0100 3D       		.byte	0x3d
 274 0101 AD000000 		.4byte	0xad
 275 0105 03       		.uleb128 0x3
 276 0106 12040000 		.4byte	.LASF23
 277 010a 05       		.byte	0x5
 278 010b 3E       		.byte	0x3e
 279 010c AD000000 		.4byte	0xad
 280 0110 03       		.uleb128 0x3
 281 0111 77010000 		.4byte	.LASF24
 282 0115 05       		.byte	0x5
 283 0116 3F       		.byte	0x3f
 284 0117 AD000000 		.4byte	0xad
 285 011b 03       		.uleb128 0x3
ARM GAS  /var/folders/m4/4md61f0s1_g0rzfghffqnxvr0000gn/T//ccuZYhcl.s 			page 6


 286 011c 72040000 		.4byte	.LASF25
 287 0120 05       		.byte	0x5
 288 0121 40       		.byte	0x40
 289 0122 CE000000 		.4byte	0xce
 290 0126 03       		.uleb128 0x3
 291 0127 B9020000 		.4byte	.LASF26
 292 012b 05       		.byte	0x5
 293 012c 41       		.byte	0x41
 294 012d C3000000 		.4byte	0xc3
 295 0131 03       		.uleb128 0x3
 296 0132 0C030000 		.4byte	.LASF27
 297 0136 05       		.byte	0x5
 298 0137 43       		.byte	0x43
 299 0138 CE000000 		.4byte	0xce
 300 013c 03       		.uleb128 0x3
 301 013d 1C020000 		.4byte	.LASF28
 302 0141 05       		.byte	0x5
 303 0142 45       		.byte	0x45
 304 0143 C3000000 		.4byte	0xc3
 305 0147 03       		.uleb128 0x3
 306 0148 BE050000 		.4byte	.LASF29
 307 014c 06       		.byte	0x6
 308 014d 33       		.byte	0x33
 309 014e CE000000 		.4byte	0xce
 310 0152 03       		.uleb128 0x3
 311 0153 AE050000 		.4byte	.LASF30
 312 0157 06       		.byte	0x6
 313 0158 3F       		.byte	0x3f
 314 0159 5D010000 		.4byte	0x15d
 315 015d 05       		.uleb128 0x5
 316 015e A4020000 		.4byte	.LASF52
 317 0162 48       		.byte	0x48
 318 0163 07       		.byte	0x7
 319 0164 C2       		.byte	0xc2
 320 0165 62020000 		.4byte	0x262
 321 0169 06       		.uleb128 0x6
 322 016a FA040000 		.4byte	.LASF31
 323 016e 07       		.byte	0x7
 324 016f C3       		.byte	0xc3
 325 0170 6D020000 		.4byte	0x26d
 326 0174 00       		.byte	0
 327 0175 06       		.uleb128 0x6
 328 0176 4A040000 		.4byte	.LASF32
 329 017a 07       		.byte	0x7
 330 017b C5       		.byte	0xc5
 331 017c 6D020000 		.4byte	0x26d
 332 0180 04       		.byte	0x4
 333 0181 06       		.uleb128 0x6
 334 0182 10010000 		.4byte	.LASF33
 335 0186 07       		.byte	0x7
 336 0187 C7       		.byte	0xc7
 337 0188 1B010000 		.4byte	0x11b
 338 018c 08       		.byte	0x8
 339 018d 06       		.uleb128 0x6
 340 018e EC070000 		.4byte	.LASF34
 341 0192 07       		.byte	0x7
 342 0193 C8       		.byte	0xc8
ARM GAS  /var/folders/m4/4md61f0s1_g0rzfghffqnxvr0000gn/T//ccuZYhcl.s 			page 7


 343 0194 9C050000 		.4byte	0x59c
 344 0198 0C       		.byte	0xc
 345 0199 06       		.uleb128 0x6
 346 019a B2010000 		.4byte	.LASF35
 347 019e 07       		.byte	0x7
 348 019f CA       		.byte	0xca
 349 01a0 6D020000 		.4byte	0x26d
 350 01a4 10       		.byte	0x10
 351 01a5 06       		.uleb128 0x6
 352 01a6 9D030000 		.4byte	.LASF36
 353 01aa 07       		.byte	0x7
 354 01ab CB       		.byte	0xcb
 355 01ac 6D020000 		.4byte	0x26d
 356 01b0 14       		.byte	0x14
 357 01b1 06       		.uleb128 0x6
 358 01b2 B4070000 		.4byte	.LASF37
 359 01b6 07       		.byte	0x7
 360 01b7 D2       		.byte	0xd2
 361 01b8 EA070000 		.4byte	0x7ea
 362 01bc 18       		.byte	0x18
 363 01bd 06       		.uleb128 0x6
 364 01be DA040000 		.4byte	.LASF38
 365 01c2 07       		.byte	0x7
 366 01c3 DD       		.byte	0xdd
 367 01c4 FA000000 		.4byte	0xfa
 368 01c8 1C       		.byte	0x1c
 369 01c9 06       		.uleb128 0x6
 370 01ca 01050000 		.4byte	.LASF39
 371 01ce 07       		.byte	0x7
 372 01cf E1       		.byte	0xe1
 373 01d0 EF000000 		.4byte	0xef
 374 01d4 1D       		.byte	0x1d
 375 01d5 06       		.uleb128 0x6
 376 01d6 8E070000 		.4byte	.LASF40
 377 01da 07       		.byte	0x7
 378 01db E6       		.byte	0xe6
 379 01dc 05010000 		.4byte	0x105
 380 01e0 1E       		.byte	0x1e
 381 01e1 06       		.uleb128 0x6
 382 01e2 E2040000 		.4byte	.LASF41
 383 01e6 07       		.byte	0x7
 384 01e7 EC       		.byte	0xec
 385 01e8 10010000 		.4byte	0x110
 386 01ec 1F       		.byte	0x1f
 387 01ed 06       		.uleb128 0x6
 388 01ee 3D020000 		.4byte	.LASF42
 389 01f2 07       		.byte	0x7
 390 01f3 F3       		.byte	0xf3
 391 01f4 FC070000 		.4byte	0x7fc
 392 01f8 20       		.byte	0x20
 393 01f9 07       		.uleb128 0x7
 394 01fa 705F7500 		.ascii	"p_u\000"
 395 01fe 07       		.byte	0x7
 396 01ff 3101     		.2byte	0x131
 397 0201 25070000 		.4byte	0x725
 398 0205 24       		.byte	0x24
 399 0206 08       		.uleb128 0x8
ARM GAS  /var/folders/m4/4md61f0s1_g0rzfghffqnxvr0000gn/T//ccuZYhcl.s 			page 8


 400 0207 46030000 		.4byte	.LASF43
 401 020b 07       		.byte	0x7
 402 020c 3601     		.2byte	0x136
 403 020e 73020000 		.4byte	0x273
 404 0212 28       		.byte	0x28
 405 0213 08       		.uleb128 0x8
 406 0214 5B020000 		.4byte	.LASF44
 407 0218 07       		.byte	0x7
 408 0219 3C01     		.2byte	0x13c
 409 021b 97020000 		.4byte	0x297
 410 021f 2C       		.byte	0x2c
 411 0220 08       		.uleb128 0x8
 412 0221 C6070000 		.4byte	.LASF45
 413 0225 07       		.byte	0x7
 414 0226 4001     		.2byte	0x140
 415 0228 26010000 		.4byte	0x126
 416 022c 34       		.byte	0x34
 417 022d 08       		.uleb128 0x8
 418 022e 33050000 		.4byte	.LASF46
 419 0232 07       		.byte	0x7
 420 0233 4601     		.2byte	0x146
 421 0235 31010000 		.4byte	0x131
 422 0239 38       		.byte	0x38
 423 023a 08       		.uleb128 0x8
 424 023b C5040000 		.4byte	.LASF47
 425 023f 07       		.byte	0x7
 426 0240 4D01     		.2byte	0x14d
 427 0242 E4070000 		.4byte	0x7e4
 428 0246 3C       		.byte	0x3c
 429 0247 08       		.uleb128 0x8
 430 0248 C8050000 		.4byte	.LASF48
 431 024c 07       		.byte	0x7
 432 024d 5101     		.2byte	0x151
 433 024f 1B010000 		.4byte	0x11b
 434 0253 40       		.byte	0x40
 435 0254 08       		.uleb128 0x8
 436 0255 5B010000 		.4byte	.LASF49
 437 0259 07       		.byte	0x7
 438 025a 5801     		.2byte	0x158
 439 025c 4A030000 		.4byte	0x34a
 440 0260 44       		.byte	0x44
 441 0261 00       		.byte	0
 442 0262 03       		.uleb128 0x3
 443 0263 62030000 		.4byte	.LASF50
 444 0267 06       		.byte	0x6
 445 0268 44       		.byte	0x44
 446 0269 6D020000 		.4byte	0x26d
 447 026d 09       		.uleb128 0x9
 448 026e 04       		.byte	0x4
 449 026f 52010000 		.4byte	0x152
 450 0273 03       		.uleb128 0x3
 451 0274 37030000 		.4byte	.LASF51
 452 0278 06       		.byte	0x6
 453 0279 49       		.byte	0x49
 454 027a 7E020000 		.4byte	0x27e
 455 027e 05       		.uleb128 0x5
 456 027f 61050000 		.4byte	.LASF53
ARM GAS  /var/folders/m4/4md61f0s1_g0rzfghffqnxvr0000gn/T//ccuZYhcl.s 			page 9


 457 0283 04       		.byte	0x4
 458 0284 07       		.byte	0x7
 459 0285 B0       		.byte	0xb0
 460 0286 97020000 		.4byte	0x297
 461 028a 06       		.uleb128 0x6
 462 028b FA040000 		.4byte	.LASF31
 463 028f 07       		.byte	0x7
 464 0290 B1       		.byte	0xb1
 465 0291 6D020000 		.4byte	0x26d
 466 0295 00       		.byte	0
 467 0296 00       		.byte	0
 468 0297 03       		.uleb128 0x3
 469 0298 75070000 		.4byte	.LASF54
 470 029c 06       		.byte	0x6
 471 029d 50       		.byte	0x50
 472 029e A2020000 		.4byte	0x2a2
 473 02a2 05       		.uleb128 0x5
 474 02a3 FA000000 		.4byte	.LASF55
 475 02a7 08       		.byte	0x8
 476 02a8 07       		.byte	0x7
 477 02a9 B7       		.byte	0xb7
 478 02aa C7020000 		.4byte	0x2c7
 479 02ae 06       		.uleb128 0x6
 480 02af FA040000 		.4byte	.LASF31
 481 02b3 07       		.byte	0x7
 482 02b4 B8       		.byte	0xb8
 483 02b5 6D020000 		.4byte	0x26d
 484 02b9 00       		.byte	0
 485 02ba 06       		.uleb128 0x6
 486 02bb 4A040000 		.4byte	.LASF32
 487 02bf 07       		.byte	0x7
 488 02c0 B9       		.byte	0xb9
 489 02c1 6D020000 		.4byte	0x26d
 490 02c5 04       		.byte	0x4
 491 02c6 00       		.byte	0
 492 02c7 03       		.uleb128 0x3
 493 02c8 41000000 		.4byte	.LASF56
 494 02cc 06       		.byte	0x6
 495 02cd 57       		.byte	0x57
 496 02ce D2020000 		.4byte	0x2d2
 497 02d2 0A       		.uleb128 0xa
 498 02d3 FE020000 		.4byte	.LASF57
 499 02d7 1C       		.byte	0x1c
 500 02d8 07       		.byte	0x7
 501 02d9 9001     		.2byte	0x190
 502 02db 2E030000 		.4byte	0x32e
 503 02df 08       		.uleb128 0x8
 504 02e0 59050000 		.4byte	.LASF58
 505 02e4 07       		.byte	0x7
 506 02e5 9101     		.2byte	0x191
 507 02e7 97020000 		.4byte	0x297
 508 02eb 00       		.byte	0
 509 02ec 08       		.uleb128 0x8
 510 02ed EC040000 		.4byte	.LASF59
 511 02f1 07       		.byte	0x7
 512 02f2 9201     		.2byte	0x192
 513 02f4 1B010000 		.4byte	0x11b
ARM GAS  /var/folders/m4/4md61f0s1_g0rzfghffqnxvr0000gn/T//ccuZYhcl.s 			page 10


 514 02f8 08       		.byte	0x8
 515 02f9 08       		.uleb128 0x8
 516 02fa AF030000 		.4byte	.LASF60
 517 02fe 07       		.byte	0x7
 518 02ff 9401     		.2byte	0x194
 519 0301 9C050000 		.4byte	0x59c
 520 0305 0C       		.byte	0xc
 521 0306 08       		.uleb128 0x8
 522 0307 E4010000 		.4byte	.LASF61
 523 030b 07       		.byte	0x7
 524 030c 9701     		.2byte	0x197
 525 030e 6D020000 		.4byte	0x26d
 526 0312 10       		.byte	0x10
 527 0313 08       		.uleb128 0x8
 528 0314 E5030000 		.4byte	.LASF62
 529 0318 07       		.byte	0x7
 530 0319 9801     		.2byte	0x198
 531 031b 6D020000 		.4byte	0x26d
 532 031f 14       		.byte	0x14
 533 0320 08       		.uleb128 0x8
 534 0321 DB030000 		.4byte	.LASF63
 535 0325 07       		.byte	0x7
 536 0326 9B01     		.2byte	0x19b
 537 0328 6D020000 		.4byte	0x26d
 538 032c 18       		.byte	0x18
 539 032d 00       		.byte	0
 540 032e 03       		.uleb128 0x3
 541 032f D3050000 		.4byte	.LASF64
 542 0333 06       		.byte	0x6
 543 0334 5C       		.byte	0x5c
 544 0335 39030000 		.4byte	0x339
 545 0339 09       		.uleb128 0x9
 546 033a 04       		.byte	0x4
 547 033b 3F030000 		.4byte	0x33f
 548 033f 0B       		.uleb128 0xb
 549 0340 4A030000 		.4byte	0x34a
 550 0344 0C       		.uleb128 0xc
 551 0345 4A030000 		.4byte	0x34a
 552 0349 00       		.byte	0
 553 034a 0D       		.uleb128 0xd
 554 034b 04       		.byte	0x4
 555 034c 03       		.uleb128 0x3
 556 034d 3A040000 		.4byte	.LASF65
 557 0351 06       		.byte	0x6
 558 0352 61       		.byte	0x61
 559 0353 57030000 		.4byte	0x357
 560 0357 0A       		.uleb128 0xa
 561 0358 46070000 		.4byte	.LASF66
 562 035c 14       		.byte	0x14
 563 035d 07       		.byte	0x7
 564 035e 6B01     		.2byte	0x16b
 565 0360 A6030000 		.4byte	0x3a6
 566 0364 08       		.uleb128 0x8
 567 0365 2F020000 		.4byte	.LASF67
 568 0369 07       		.byte	0x7
 569 036a 6C01     		.2byte	0x16c
 570 036c 01080000 		.4byte	0x801
ARM GAS  /var/folders/m4/4md61f0s1_g0rzfghffqnxvr0000gn/T//ccuZYhcl.s 			page 11


 571 0370 00       		.byte	0
 572 0371 08       		.uleb128 0x8
 573 0372 F5010000 		.4byte	.LASF68
 574 0376 07       		.byte	0x7
 575 0377 6D01     		.2byte	0x16d
 576 0379 01080000 		.4byte	0x801
 577 037d 04       		.byte	0x4
 578 037e 08       		.uleb128 0x8
 579 037f 52020000 		.4byte	.LASF69
 580 0383 07       		.byte	0x7
 581 0384 6E01     		.2byte	0x16e
 582 0386 47010000 		.4byte	0x147
 583 038a 08       		.byte	0x8
 584 038b 08       		.uleb128 0x8
 585 038c F2070000 		.4byte	.LASF70
 586 0390 07       		.byte	0x7
 587 0391 6F01     		.2byte	0x16f
 588 0393 2E030000 		.4byte	0x32e
 589 0397 0C       		.byte	0xc
 590 0398 08       		.uleb128 0x8
 591 0399 6E070000 		.4byte	.LASF71
 592 039d 07       		.byte	0x7
 593 039e 7101     		.2byte	0x171
 594 03a0 4A030000 		.4byte	0x34a
 595 03a4 10       		.byte	0x10
 596 03a5 00       		.byte	0
 597 03a6 03       		.uleb128 0x3
 598 03a7 D1000000 		.4byte	.LASF72
 599 03ab 06       		.byte	0x6
 600 03ac 66       		.byte	0x66
 601 03ad B1030000 		.4byte	0x3b1
 602 03b1 0A       		.uleb128 0xa
 603 03b2 75030000 		.4byte	.LASF73
 604 03b6 10       		.byte	0x10
 605 03b7 07       		.byte	0x7
 606 03b8 7B01     		.2byte	0x17b
 607 03ba F3030000 		.4byte	0x3f3
 608 03be 08       		.uleb128 0x8
 609 03bf 2F020000 		.4byte	.LASF67
 610 03c3 07       		.byte	0x7
 611 03c4 7C01     		.2byte	0x17c
 612 03c6 01080000 		.4byte	0x801
 613 03ca 00       		.byte	0
 614 03cb 08       		.uleb128 0x8
 615 03cc F5010000 		.4byte	.LASF68
 616 03d0 07       		.byte	0x7
 617 03d1 7E01     		.2byte	0x17e
 618 03d3 01080000 		.4byte	0x801
 619 03d7 04       		.byte	0x4
 620 03d8 08       		.uleb128 0x8
 621 03d9 52020000 		.4byte	.LASF69
 622 03dd 07       		.byte	0x7
 623 03de 8001     		.2byte	0x180
 624 03e0 47010000 		.4byte	0x147
 625 03e4 08       		.byte	0x8
 626 03e5 08       		.uleb128 0x8
 627 03e6 BB070000 		.4byte	.LASF74
ARM GAS  /var/folders/m4/4md61f0s1_g0rzfghffqnxvr0000gn/T//ccuZYhcl.s 			page 12


 628 03ea 07       		.byte	0x7
 629 03eb 8201     		.2byte	0x182
 630 03ed FC070000 		.4byte	0x7fc
 631 03f1 0C       		.byte	0xc
 632 03f2 00       		.byte	0
 633 03f3 03       		.uleb128 0x3
 634 03f4 87000000 		.4byte	.LASF75
 635 03f8 06       		.byte	0x6
 636 03f9 6B       		.byte	0x6b
 637 03fa FE030000 		.4byte	0x3fe
 638 03fe 0A       		.uleb128 0xa
 639 03ff 99040000 		.4byte	.LASF76
 640 0403 04       		.byte	0x4
 641 0404 07       		.byte	0x7
 642 0405 A201     		.2byte	0x1a2
 643 0407 19040000 		.4byte	0x419
 644 040b 08       		.uleb128 0x8
 645 040c 12070000 		.4byte	.LASF77
 646 0410 07       		.byte	0x7
 647 0411 AA01     		.2byte	0x1aa
 648 0413 07080000 		.4byte	0x807
 649 0417 00       		.byte	0
 650 0418 00       		.byte	0
 651 0419 03       		.uleb128 0x3
 652 041a BF020000 		.4byte	.LASF78
 653 041e 06       		.byte	0x6
 654 041f 70       		.byte	0x70
 655 0420 24040000 		.4byte	0x424
 656 0424 0E       		.uleb128 0xe
 657 0425 91010000 		.4byte	.LASF79
 658 0429 5802     		.2byte	0x258
 659 042b 07       		.byte	0x7
 660 042c C201     		.2byte	0x1c2
 661 042e 80040000 		.4byte	0x480
 662 0432 08       		.uleb128 0x8
 663 0433 95070000 		.4byte	.LASF80
 664 0437 07       		.byte	0x7
 665 0438 C601     		.2byte	0x1c6
 666 043a C7020000 		.4byte	0x2c7
 667 043e 00       		.byte	0
 668 043f 08       		.uleb128 0x8
 669 0440 70010000 		.4byte	.LASF81
 670 0444 07       		.byte	0x7
 671 0445 CA01     		.2byte	0x1ca
 672 0447 A6030000 		.4byte	0x3a6
 673 044b 1C       		.byte	0x1c
 674 044c 07       		.uleb128 0x7
 675 044d 64626700 		.ascii	"dbg\000"
 676 0451 07       		.byte	0x7
 677 0452 CE01     		.2byte	0x1ce
 678 0454 F3030000 		.4byte	0x3f3
 679 0458 2C       		.byte	0x2c
 680 0459 08       		.uleb128 0x8
 681 045a AE020000 		.4byte	.LASF82
 682 045e 07       		.byte	0x7
 683 045f D201     		.2byte	0x1d2
 684 0461 52010000 		.4byte	0x152
ARM GAS  /var/folders/m4/4md61f0s1_g0rzfghffqnxvr0000gn/T//ccuZYhcl.s 			page 13


 685 0465 30       		.byte	0x30
 686 0466 07       		.uleb128 0x7
 687 0467 746D00   		.ascii	"tm\000"
 688 046a 07       		.byte	0x7
 689 046b D701     		.2byte	0x1d7
 690 046d 1A070000 		.4byte	0x71a
 691 0471 78       		.byte	0x78
 692 0472 08       		.uleb128 0x8
 693 0473 0D020000 		.4byte	.LASF83
 694 0477 07       		.byte	0x7
 695 0478 E301     		.2byte	0x1e3
 696 047a 0C080000 		.4byte	0x80c
 697 047e 80       		.byte	0x80
 698 047f 00       		.byte	0
 699 0480 04       		.uleb128 0x4
 700 0481 04       		.byte	0x4
 701 0482 07       		.byte	0x7
 702 0483 59030000 		.4byte	.LASF84
 703 0487 0F       		.uleb128 0xf
 704 0488 CE000000 		.4byte	0xce
 705 048c 10       		.uleb128 0x10
 706 048d 18       		.byte	0x18
 707 048e 08       		.byte	0x8
 708 048f 7D01     		.2byte	0x17d
 709 0491 E3040000 		.4byte	0x4e3
 710 0495 07       		.uleb128 0x7
 711 0496 435200   		.ascii	"CR\000"
 712 0499 08       		.byte	0x8
 713 049a 7F01     		.2byte	0x17f
 714 049c 87040000 		.4byte	0x487
 715 04a0 00       		.byte	0
 716 04a1 08       		.uleb128 0x8
 717 04a2 0B010000 		.4byte	.LASF85
 718 04a6 08       		.byte	0x8
 719 04a7 8001     		.2byte	0x180
 720 04a9 87040000 		.4byte	0x487
 721 04ad 04       		.byte	0x4
 722 04ae 07       		.uleb128 0x7
 723 04af 50415200 		.ascii	"PAR\000"
 724 04b3 08       		.byte	0x8
 725 04b4 8101     		.2byte	0x181
 726 04b6 87040000 		.4byte	0x487
 727 04ba 08       		.byte	0x8
 728 04bb 08       		.uleb128 0x8
 729 04bc 4E000000 		.4byte	.LASF86
 730 04c0 08       		.byte	0x8
 731 04c1 8201     		.2byte	0x182
 732 04c3 87040000 		.4byte	0x487
 733 04c7 0C       		.byte	0xc
 734 04c8 08       		.uleb128 0x8
 735 04c9 5F070000 		.4byte	.LASF87
 736 04cd 08       		.byte	0x8
 737 04ce 8301     		.2byte	0x183
 738 04d0 87040000 		.4byte	0x487
 739 04d4 10       		.byte	0x10
 740 04d5 07       		.uleb128 0x7
 741 04d6 46435200 		.ascii	"FCR\000"
ARM GAS  /var/folders/m4/4md61f0s1_g0rzfghffqnxvr0000gn/T//ccuZYhcl.s 			page 14


 742 04da 08       		.byte	0x8
 743 04db 8401     		.2byte	0x184
 744 04dd 87040000 		.4byte	0x487
 745 04e1 14       		.byte	0x14
 746 04e2 00       		.byte	0
 747 04e3 11       		.uleb128 0x11
 748 04e4 CB020000 		.4byte	.LASF88
 749 04e8 08       		.byte	0x8
 750 04e9 8501     		.2byte	0x185
 751 04eb 8C040000 		.4byte	0x48c
 752 04ef 10       		.uleb128 0x10
 753 04f0 28       		.byte	0x28
 754 04f1 08       		.byte	0x8
 755 04f2 FE01     		.2byte	0x1fe
 756 04f4 7A050000 		.4byte	0x57a
 757 04f8 07       		.uleb128 0x7
 758 04f9 43523100 		.ascii	"CR1\000"
 759 04fd 08       		.byte	0x8
 760 04fe 0002     		.2byte	0x200
 761 0500 87040000 		.4byte	0x487
 762 0504 00       		.byte	0
 763 0505 07       		.uleb128 0x7
 764 0506 43523200 		.ascii	"CR2\000"
 765 050a 08       		.byte	0x8
 766 050b 0102     		.2byte	0x201
 767 050d 87040000 		.4byte	0x487
 768 0511 04       		.byte	0x4
 769 0512 08       		.uleb128 0x8
 770 0513 A3070000 		.4byte	.LASF89
 771 0517 08       		.byte	0x8
 772 0518 0202     		.2byte	0x202
 773 051a 87040000 		.4byte	0x487
 774 051e 08       		.byte	0x8
 775 051f 08       		.uleb128 0x8
 776 0520 A8070000 		.4byte	.LASF90
 777 0524 08       		.byte	0x8
 778 0525 0302     		.2byte	0x203
 779 0527 87040000 		.4byte	0x487
 780 052b 0C       		.byte	0xc
 781 052c 07       		.uleb128 0x7
 782 052d 445200   		.ascii	"DR\000"
 783 0530 08       		.byte	0x8
 784 0531 0402     		.2byte	0x204
 785 0533 87040000 		.4byte	0x487
 786 0537 10       		.byte	0x10
 787 0538 07       		.uleb128 0x7
 788 0539 53523100 		.ascii	"SR1\000"
 789 053d 08       		.byte	0x8
 790 053e 0502     		.2byte	0x205
 791 0540 87040000 		.4byte	0x487
 792 0544 14       		.byte	0x14
 793 0545 07       		.uleb128 0x7
 794 0546 53523200 		.ascii	"SR2\000"
 795 054a 08       		.byte	0x8
 796 054b 0602     		.2byte	0x206
 797 054d 87040000 		.4byte	0x487
 798 0551 18       		.byte	0x18
ARM GAS  /var/folders/m4/4md61f0s1_g0rzfghffqnxvr0000gn/T//ccuZYhcl.s 			page 15


 799 0552 07       		.uleb128 0x7
 800 0553 43435200 		.ascii	"CCR\000"
 801 0557 08       		.byte	0x8
 802 0558 0702     		.2byte	0x207
 803 055a 87040000 		.4byte	0x487
 804 055e 1C       		.byte	0x1c
 805 055f 08       		.uleb128 0x8
 806 0560 96000000 		.4byte	.LASF91
 807 0564 08       		.byte	0x8
 808 0565 0802     		.2byte	0x208
 809 0567 87040000 		.4byte	0x487
 810 056b 20       		.byte	0x20
 811 056c 08       		.uleb128 0x8
 812 056d AD010000 		.4byte	.LASF92
 813 0571 08       		.byte	0x8
 814 0572 0902     		.2byte	0x209
 815 0574 87040000 		.4byte	0x487
 816 0578 24       		.byte	0x24
 817 0579 00       		.byte	0
 818 057a 11       		.uleb128 0x11
 819 057b CC070000 		.4byte	.LASF93
 820 057f 08       		.byte	0x8
 821 0580 0A02     		.2byte	0x20a
 822 0582 EF040000 		.4byte	0x4ef
 823 0586 03       		.uleb128 0x3
 824 0587 EC010000 		.4byte	.LASF94
 825 058b 09       		.byte	0x9
 826 058c 65       		.byte	0x65
 827 058d 4A030000 		.4byte	0x34a
 828 0591 03       		.uleb128 0x3
 829 0592 2C030000 		.4byte	.LASF95
 830 0596 09       		.byte	0x9
 831 0597 6D       		.byte	0x6d
 832 0598 D9000000 		.4byte	0xd9
 833 059c 05       		.uleb128 0x5
 834 059d 3E070000 		.4byte	.LASF96
 835 05a1 04       		.byte	0x4
 836 05a2 09       		.byte	0x9
 837 05a3 89       		.byte	0x89
 838 05a4 B5050000 		.4byte	0x5b5
 839 05a8 12       		.uleb128 0x12
 840 05a9 72313300 		.ascii	"r13\000"
 841 05ad 09       		.byte	0x9
 842 05ae 8A       		.byte	0x8a
 843 05af FF060000 		.4byte	0x6ff
 844 05b3 00       		.byte	0
 845 05b4 00       		.byte	0
 846 05b5 05       		.uleb128 0x5
 847 05b6 7B000000 		.4byte	.LASF97
 848 05ba 64       		.byte	0x64
 849 05bb 0A       		.byte	0xa
 850 05bc FD       		.byte	0xfd
 851 05bd FF060000 		.4byte	0x6ff
 852 05c1 12       		.uleb128 0x12
 853 05c2 73313600 		.ascii	"s16\000"
 854 05c6 0A       		.byte	0xa
 855 05c7 FF       		.byte	0xff
ARM GAS  /var/folders/m4/4md61f0s1_g0rzfghffqnxvr0000gn/T//ccuZYhcl.s 			page 16


 856 05c8 86050000 		.4byte	0x586
 857 05cc 00       		.byte	0
 858 05cd 07       		.uleb128 0x7
 859 05ce 73313700 		.ascii	"s17\000"
 860 05d2 0A       		.byte	0xa
 861 05d3 0001     		.2byte	0x100
 862 05d5 86050000 		.4byte	0x586
 863 05d9 04       		.byte	0x4
 864 05da 07       		.uleb128 0x7
 865 05db 73313800 		.ascii	"s18\000"
 866 05df 0A       		.byte	0xa
 867 05e0 0101     		.2byte	0x101
 868 05e2 86050000 		.4byte	0x586
 869 05e6 08       		.byte	0x8
 870 05e7 07       		.uleb128 0x7
 871 05e8 73313900 		.ascii	"s19\000"
 872 05ec 0A       		.byte	0xa
 873 05ed 0201     		.2byte	0x102
 874 05ef 86050000 		.4byte	0x586
 875 05f3 0C       		.byte	0xc
 876 05f4 07       		.uleb128 0x7
 877 05f5 73323000 		.ascii	"s20\000"
 878 05f9 0A       		.byte	0xa
 879 05fa 0301     		.2byte	0x103
 880 05fc 86050000 		.4byte	0x586
 881 0600 10       		.byte	0x10
 882 0601 07       		.uleb128 0x7
 883 0602 73323100 		.ascii	"s21\000"
 884 0606 0A       		.byte	0xa
 885 0607 0401     		.2byte	0x104
 886 0609 86050000 		.4byte	0x586
 887 060d 14       		.byte	0x14
 888 060e 07       		.uleb128 0x7
 889 060f 73323200 		.ascii	"s22\000"
 890 0613 0A       		.byte	0xa
 891 0614 0501     		.2byte	0x105
 892 0616 86050000 		.4byte	0x586
 893 061a 18       		.byte	0x18
 894 061b 07       		.uleb128 0x7
 895 061c 73323300 		.ascii	"s23\000"
 896 0620 0A       		.byte	0xa
 897 0621 0601     		.2byte	0x106
 898 0623 86050000 		.4byte	0x586
 899 0627 1C       		.byte	0x1c
 900 0628 07       		.uleb128 0x7
 901 0629 73323400 		.ascii	"s24\000"
 902 062d 0A       		.byte	0xa
 903 062e 0701     		.2byte	0x107
 904 0630 86050000 		.4byte	0x586
 905 0634 20       		.byte	0x20
 906 0635 07       		.uleb128 0x7
 907 0636 73323500 		.ascii	"s25\000"
 908 063a 0A       		.byte	0xa
 909 063b 0801     		.2byte	0x108
 910 063d 86050000 		.4byte	0x586
 911 0641 24       		.byte	0x24
 912 0642 07       		.uleb128 0x7
ARM GAS  /var/folders/m4/4md61f0s1_g0rzfghffqnxvr0000gn/T//ccuZYhcl.s 			page 17


 913 0643 73323600 		.ascii	"s26\000"
 914 0647 0A       		.byte	0xa
 915 0648 0901     		.2byte	0x109
 916 064a 86050000 		.4byte	0x586
 917 064e 28       		.byte	0x28
 918 064f 07       		.uleb128 0x7
 919 0650 73323700 		.ascii	"s27\000"
 920 0654 0A       		.byte	0xa
 921 0655 0A01     		.2byte	0x10a
 922 0657 86050000 		.4byte	0x586
 923 065b 2C       		.byte	0x2c
 924 065c 07       		.uleb128 0x7
 925 065d 73323800 		.ascii	"s28\000"
 926 0661 0A       		.byte	0xa
 927 0662 0B01     		.2byte	0x10b
 928 0664 86050000 		.4byte	0x586
 929 0668 30       		.byte	0x30
 930 0669 07       		.uleb128 0x7
 931 066a 73323900 		.ascii	"s29\000"
 932 066e 0A       		.byte	0xa
 933 066f 0C01     		.2byte	0x10c
 934 0671 86050000 		.4byte	0x586
 935 0675 34       		.byte	0x34
 936 0676 07       		.uleb128 0x7
 937 0677 73333000 		.ascii	"s30\000"
 938 067b 0A       		.byte	0xa
 939 067c 0D01     		.2byte	0x10d
 940 067e 86050000 		.4byte	0x586
 941 0682 38       		.byte	0x38
 942 0683 07       		.uleb128 0x7
 943 0684 73333100 		.ascii	"s31\000"
 944 0688 0A       		.byte	0xa
 945 0689 0E01     		.2byte	0x10e
 946 068b 86050000 		.4byte	0x586
 947 068f 3C       		.byte	0x3c
 948 0690 07       		.uleb128 0x7
 949 0691 723400   		.ascii	"r4\000"
 950 0694 0A       		.byte	0xa
 951 0695 1001     		.2byte	0x110
 952 0697 86050000 		.4byte	0x586
 953 069b 40       		.byte	0x40
 954 069c 07       		.uleb128 0x7
 955 069d 723500   		.ascii	"r5\000"
 956 06a0 0A       		.byte	0xa
 957 06a1 1101     		.2byte	0x111
 958 06a3 86050000 		.4byte	0x586
 959 06a7 44       		.byte	0x44
 960 06a8 07       		.uleb128 0x7
 961 06a9 723600   		.ascii	"r6\000"
 962 06ac 0A       		.byte	0xa
 963 06ad 1201     		.2byte	0x112
 964 06af 86050000 		.4byte	0x586
 965 06b3 48       		.byte	0x48
 966 06b4 07       		.uleb128 0x7
 967 06b5 723700   		.ascii	"r7\000"
 968 06b8 0A       		.byte	0xa
 969 06b9 1301     		.2byte	0x113
ARM GAS  /var/folders/m4/4md61f0s1_g0rzfghffqnxvr0000gn/T//ccuZYhcl.s 			page 18


 970 06bb 86050000 		.4byte	0x586
 971 06bf 4C       		.byte	0x4c
 972 06c0 07       		.uleb128 0x7
 973 06c1 723800   		.ascii	"r8\000"
 974 06c4 0A       		.byte	0xa
 975 06c5 1401     		.2byte	0x114
 976 06c7 86050000 		.4byte	0x586
 977 06cb 50       		.byte	0x50
 978 06cc 07       		.uleb128 0x7
 979 06cd 723900   		.ascii	"r9\000"
 980 06d0 0A       		.byte	0xa
 981 06d1 1501     		.2byte	0x115
 982 06d3 86050000 		.4byte	0x586
 983 06d7 54       		.byte	0x54
 984 06d8 07       		.uleb128 0x7
 985 06d9 72313000 		.ascii	"r10\000"
 986 06dd 0A       		.byte	0xa
 987 06de 1601     		.2byte	0x116
 988 06e0 86050000 		.4byte	0x586
 989 06e4 58       		.byte	0x58
 990 06e5 07       		.uleb128 0x7
 991 06e6 72313100 		.ascii	"r11\000"
 992 06ea 0A       		.byte	0xa
 993 06eb 1701     		.2byte	0x117
 994 06ed 86050000 		.4byte	0x586
 995 06f1 5C       		.byte	0x5c
 996 06f2 07       		.uleb128 0x7
 997 06f3 6C7200   		.ascii	"lr\000"
 998 06f6 0A       		.byte	0xa
 999 06f7 1801     		.2byte	0x118
 1000 06f9 86050000 		.4byte	0x586
 1001 06fd 60       		.byte	0x60
 1002 06fe 00       		.byte	0
 1003 06ff 09       		.uleb128 0x9
 1004 0700 04       		.byte	0x4
 1005 0701 B5050000 		.4byte	0x5b5
 1006 0705 13       		.uleb128 0x13
 1007 0706 04       		.byte	0x4
 1008 0707 0B       		.byte	0xb
 1009 0708 38       		.byte	0x38
 1010 0709 1A070000 		.4byte	0x71a
 1011 070d 06       		.uleb128 0x6
 1012 070e 26070000 		.4byte	.LASF98
 1013 0712 0B       		.byte	0xb
 1014 0713 3C       		.byte	0x3c
 1015 0714 E4000000 		.4byte	0xe4
 1016 0718 00       		.byte	0
 1017 0719 00       		.byte	0
 1018 071a 03       		.uleb128 0x3
 1019 071b BF030000 		.4byte	.LASF99
 1020 071f 0B       		.byte	0xb
 1021 0720 3D       		.byte	0x3d
 1022 0721 05070000 		.4byte	0x705
 1023 0725 14       		.uleb128 0x14
 1024 0726 04       		.byte	0x4
 1025 0727 07       		.byte	0x7
 1026 0728 FA       		.byte	0xfa
ARM GAS  /var/folders/m4/4md61f0s1_g0rzfghffqnxvr0000gn/T//ccuZYhcl.s 			page 19


 1027 0729 82070000 		.4byte	0x782
 1028 072d 15       		.uleb128 0x15
 1029 072e 5A000000 		.4byte	.LASF100
 1030 0732 07       		.byte	0x7
 1031 0733 0101     		.2byte	0x101
 1032 0735 26010000 		.4byte	0x126
 1033 0739 15       		.uleb128 0x15
 1034 073a BA000000 		.4byte	.LASF101
 1035 073e 07       		.byte	0x7
 1036 073f 0801     		.2byte	0x108
 1037 0741 26010000 		.4byte	0x126
 1038 0745 15       		.uleb128 0x15
 1039 0746 AD070000 		.4byte	.LASF102
 1040 074a 07       		.byte	0x7
 1041 074b 0F01     		.2byte	0x10f
 1042 074d 4A030000 		.4byte	0x34a
 1043 0751 15       		.uleb128 0x15
 1044 0752 8C030000 		.4byte	.LASF103
 1045 0756 07       		.byte	0x7
 1046 0757 1601     		.2byte	0x116
 1047 0759 82070000 		.4byte	0x782
 1048 075d 15       		.uleb128 0x15
 1049 075e 44020000 		.4byte	.LASF104
 1050 0762 07       		.byte	0x7
 1051 0763 1E01     		.2byte	0x11e
 1052 0765 AD070000 		.4byte	0x7ad
 1053 0769 15       		.uleb128 0x15
 1054 076a 52050000 		.4byte	.LASF105
 1055 076e 07       		.byte	0x7
 1056 076f 2701     		.2byte	0x127
 1057 0771 E4070000 		.4byte	0x7e4
 1058 0775 15       		.uleb128 0x15
 1059 0776 F3040000 		.4byte	.LASF106
 1060 077a 07       		.byte	0x7
 1061 077b 2F01     		.2byte	0x12f
 1062 077d 31010000 		.4byte	0x131
 1063 0781 00       		.byte	0
 1064 0782 09       		.uleb128 0x9
 1065 0783 04       		.byte	0x4
 1066 0784 62020000 		.4byte	0x262
 1067 0788 05       		.uleb128 0x5
 1068 0789 26050000 		.4byte	.LASF107
 1069 078d 0C       		.byte	0xc
 1070 078e 0C       		.byte	0xc
 1071 078f 34       		.byte	0x34
 1072 0790 AD070000 		.4byte	0x7ad
 1073 0794 06       		.uleb128 0x6
 1074 0795 BA010000 		.4byte	.LASF108
 1075 0799 0C       		.byte	0xc
 1076 079a 35       		.byte	0x35
 1077 079b 97020000 		.4byte	0x297
 1078 079f 00       		.byte	0
 1079 07a0 06       		.uleb128 0x6
 1080 07a1 6D020000 		.4byte	.LASF109
 1081 07a5 0C       		.byte	0xc
 1082 07a6 37       		.byte	0x37
 1083 07a7 3C010000 		.4byte	0x13c
ARM GAS  /var/folders/m4/4md61f0s1_g0rzfghffqnxvr0000gn/T//ccuZYhcl.s 			page 20


 1084 07ab 08       		.byte	0x8
 1085 07ac 00       		.byte	0
 1086 07ad 09       		.uleb128 0x9
 1087 07ae 04       		.byte	0x4
 1088 07af 88070000 		.4byte	0x788
 1089 07b3 05       		.uleb128 0x5
 1090 07b4 85070000 		.4byte	.LASF110
 1091 07b8 10       		.byte	0x10
 1092 07b9 0D       		.byte	0xd
 1093 07ba 39       		.byte	0x39
 1094 07bb E4070000 		.4byte	0x7e4
 1095 07bf 06       		.uleb128 0x6
 1096 07c0 63010000 		.4byte	.LASF111
 1097 07c4 0D       		.byte	0xd
 1098 07c5 3A       		.byte	0x3a
 1099 07c6 97020000 		.4byte	0x297
 1100 07ca 00       		.byte	0
 1101 07cb 06       		.uleb128 0x6
 1102 07cc E4070000 		.4byte	.LASF112
 1103 07d0 0D       		.byte	0xd
 1104 07d1 3C       		.byte	0x3c
 1105 07d2 6D020000 		.4byte	0x26d
 1106 07d6 08       		.byte	0x8
 1107 07d7 06       		.uleb128 0x6
 1108 07d8 B7050000 		.4byte	.LASF113
 1109 07dc 0D       		.byte	0xd
 1110 07dd 3E       		.byte	0x3e
 1111 07de 27080000 		.4byte	0x827
 1112 07e2 0C       		.byte	0xc
 1113 07e3 00       		.byte	0
 1114 07e4 09       		.uleb128 0x9
 1115 07e5 04       		.byte	0x4
 1116 07e6 B3070000 		.4byte	0x7b3
 1117 07ea 09       		.uleb128 0x9
 1118 07eb 04       		.byte	0x4
 1119 07ec F0070000 		.4byte	0x7f0
 1120 07f0 16       		.uleb128 0x16
 1121 07f1 F5070000 		.4byte	0x7f5
 1122 07f5 04       		.uleb128 0x4
 1123 07f6 01       		.byte	0x1
 1124 07f7 08       		.byte	0x8
 1125 07f8 97050000 		.4byte	.LASF114
 1126 07fc 0F       		.uleb128 0xf
 1127 07fd 47010000 		.4byte	0x147
 1128 0801 09       		.uleb128 0x9
 1129 0802 04       		.byte	0x4
 1130 0803 4C030000 		.4byte	0x34c
 1131 0807 0F       		.uleb128 0xf
 1132 0808 EA070000 		.4byte	0x7ea
 1133 080c 17       		.uleb128 0x17
 1134 080d 91050000 		.4byte	0x591
 1135 0811 1C080000 		.4byte	0x81c
 1136 0815 18       		.uleb128 0x18
 1137 0816 80040000 		.4byte	0x480
 1138 081a 3A       		.byte	0x3a
 1139 081b 00       		.byte	0
 1140 081c 03       		.uleb128 0x3
ARM GAS  /var/folders/m4/4md61f0s1_g0rzfghffqnxvr0000gn/T//ccuZYhcl.s 			page 21


 1141 081d 05020000 		.4byte	.LASF115
 1142 0821 0D       		.byte	0xd
 1143 0822 34       		.byte	0x34
 1144 0823 B3070000 		.4byte	0x7b3
 1145 0827 09       		.uleb128 0x9
 1146 0828 04       		.byte	0x4
 1147 0829 1C080000 		.4byte	0x81c
 1148 082d 09       		.uleb128 0x9
 1149 082e 04       		.byte	0x4
 1150 082f AD000000 		.4byte	0xad
 1151 0833 09       		.uleb128 0x9
 1152 0834 04       		.byte	0x4
 1153 0835 39080000 		.4byte	0x839
 1154 0839 16       		.uleb128 0x16
 1155 083a AD000000 		.4byte	0xad
 1156 083e 10       		.uleb128 0x10
 1157 083f 0C       		.byte	0xc
 1158 0840 0E       		.byte	0xe
 1159 0841 6D01     		.2byte	0x16d
 1160 0843 89080000 		.4byte	0x889
 1161 0847 08       		.uleb128 0x8
 1162 0848 9C000000 		.4byte	.LASF116
 1163 084c 0E       		.byte	0xe
 1164 084d 6E01     		.2byte	0x16e
 1165 084f 89080000 		.4byte	0x889
 1166 0853 00       		.byte	0
 1167 0854 08       		.uleb128 0x8
 1168 0855 0D040000 		.4byte	.LASF117
 1169 0859 0E       		.byte	0xe
 1170 085a 6F01     		.2byte	0x16f
 1171 085c 8F080000 		.4byte	0x88f
 1172 0860 04       		.byte	0x4
 1173 0861 08       		.uleb128 0x8
 1174 0862 66020000 		.4byte	.LASF118
 1175 0866 0E       		.byte	0xe
 1176 0867 7001     		.2byte	0x170
 1177 0869 AD000000 		.4byte	0xad
 1178 086d 08       		.byte	0x8
 1179 086e 08       		.uleb128 0x8
 1180 086f 64070000 		.4byte	.LASF119
 1181 0873 0E       		.byte	0xe
 1182 0874 7201     		.2byte	0x172
 1183 0876 AD000000 		.4byte	0xad
 1184 087a 09       		.byte	0x9
 1185 087b 08       		.uleb128 0x8
 1186 087c 6A000000 		.4byte	.LASF120
 1187 0880 0E       		.byte	0xe
 1188 0881 7301     		.2byte	0x173
 1189 0883 AD000000 		.4byte	0xad
 1190 0887 0A       		.byte	0xa
 1191 0888 00       		.byte	0
 1192 0889 09       		.uleb128 0x9
 1193 088a 04       		.byte	0x4
 1194 088b E3040000 		.4byte	0x4e3
 1195 088f 09       		.uleb128 0x9
 1196 0890 04       		.byte	0x4
 1197 0891 87040000 		.4byte	0x487
ARM GAS  /var/folders/m4/4md61f0s1_g0rzfghffqnxvr0000gn/T//ccuZYhcl.s 			page 22


 1198 0895 11       		.uleb128 0x11
 1199 0896 51040000 		.4byte	.LASF121
 1200 089a 0E       		.byte	0xe
 1201 089b 7401     		.2byte	0x174
 1202 089d 3E080000 		.4byte	0x83e
 1203 08a1 04       		.uleb128 0x4
 1204 08a2 01       		.byte	0x1
 1205 08a3 02       		.byte	0x2
 1206 08a4 A9040000 		.4byte	.LASF122
 1207 08a8 09       		.uleb128 0x9
 1208 08a9 04       		.byte	0x4
 1209 08aa AE080000 		.4byte	0x8ae
 1210 08ae 16       		.uleb128 0x16
 1211 08af 95080000 		.4byte	0x895
 1212 08b3 19       		.uleb128 0x19
 1213 08b4 01       		.byte	0x1
 1214 08b5 0F       		.byte	0xf
 1215 08b6 4C       		.byte	0x4c
 1216 08b7 E0080000 		.4byte	0x8e0
 1217 08bb 1A       		.uleb128 0x1a
 1218 08bc CF040000 		.4byte	.LASF123
 1219 08c0 00       		.sleb128 0
 1220 08c1 1A       		.uleb128 0x1a
 1221 08c2 50030000 		.4byte	.LASF124
 1222 08c6 01       		.sleb128 1
 1223 08c7 1A       		.uleb128 0x1a
 1224 08c8 1C070000 		.4byte	.LASF125
 1225 08cc 02       		.sleb128 2
 1226 08cd 1A       		.uleb128 0x1a
 1227 08ce 7A040000 		.4byte	.LASF126
 1228 08d2 03       		.sleb128 3
 1229 08d3 1A       		.uleb128 0x1a
 1230 08d4 77050000 		.4byte	.LASF127
 1231 08d8 04       		.sleb128 4
 1232 08d9 1A       		.uleb128 0x1a
 1233 08da 1B050000 		.4byte	.LASF128
 1234 08de 05       		.sleb128 5
 1235 08df 00       		.byte	0
 1236 08e0 03       		.uleb128 0x3
 1237 08e1 1A040000 		.4byte	.LASF129
 1238 08e5 0F       		.byte	0xf
 1239 08e6 53       		.byte	0x53
 1240 08e7 B3080000 		.4byte	0x8b3
 1241 08eb 11       		.uleb128 0x11
 1242 08ec 81010000 		.4byte	.LASF130
 1243 08f0 10       		.byte	0x10
 1244 08f1 6A01     		.2byte	0x16a
 1245 08f3 B8000000 		.4byte	0xb8
 1246 08f7 11       		.uleb128 0x11
 1247 08f8 88040000 		.4byte	.LASF131
 1248 08fc 10       		.byte	0x10
 1249 08fd 6F01     		.2byte	0x16f
 1250 08ff CE000000 		.4byte	0xce
 1251 0903 1B       		.uleb128 0x1b
 1252 0904 01       		.byte	0x1
 1253 0905 10       		.byte	0x10
 1254 0906 7401     		.2byte	0x174
ARM GAS  /var/folders/m4/4md61f0s1_g0rzfghffqnxvr0000gn/T//ccuZYhcl.s 			page 23


 1255 0908 1F090000 		.4byte	0x91f
 1256 090c 1A       		.uleb128 0x1a
 1257 090d D0030000 		.4byte	.LASF132
 1258 0911 01       		.sleb128 1
 1259 0912 1A       		.uleb128 0x1a
 1260 0913 73020000 		.4byte	.LASF133
 1261 0917 02       		.sleb128 2
 1262 0918 1A       		.uleb128 0x1a
 1263 0919 D2010000 		.4byte	.LASF134
 1264 091d 03       		.sleb128 3
 1265 091e 00       		.byte	0
 1266 091f 11       		.uleb128 0x11
 1267 0920 D8070000 		.4byte	.LASF135
 1268 0924 10       		.byte	0x10
 1269 0925 7801     		.2byte	0x178
 1270 0927 03090000 		.4byte	0x903
 1271 092b 1B       		.uleb128 0x1b
 1272 092c 01       		.byte	0x1
 1273 092d 10       		.byte	0x10
 1274 092e 7D01     		.2byte	0x17d
 1275 0930 47090000 		.4byte	0x947
 1276 0934 1A       		.uleb128 0x1a
 1277 0935 EF020000 		.4byte	.LASF136
 1278 0939 01       		.sleb128 1
 1279 093a 1A       		.uleb128 0x1a
 1280 093b 09050000 		.4byte	.LASF137
 1281 093f 02       		.sleb128 2
 1282 0940 1A       		.uleb128 0x1a
 1283 0941 25040000 		.4byte	.LASF138
 1284 0945 03       		.sleb128 3
 1285 0946 00       		.byte	0
 1286 0947 11       		.uleb128 0x11
 1287 0948 32000000 		.4byte	.LASF139
 1288 094c 10       		.byte	0x10
 1289 094d 8101     		.2byte	0x181
 1290 094f 2B090000 		.4byte	0x92b
 1291 0953 10       		.uleb128 0x10
 1292 0954 0C       		.byte	0xc
 1293 0955 10       		.byte	0x10
 1294 0956 8601     		.2byte	0x186
 1295 0958 84090000 		.4byte	0x984
 1296 095c 08       		.uleb128 0x8
 1297 095d FD010000 		.4byte	.LASF140
 1298 0961 10       		.byte	0x10
 1299 0962 8801     		.2byte	0x188
 1300 0964 1F090000 		.4byte	0x91f
 1301 0968 00       		.byte	0
 1302 0969 08       		.uleb128 0x8
 1303 096a 4F010000 		.4byte	.LASF141
 1304 096e 10       		.byte	0x10
 1305 096f 8901     		.2byte	0x189
 1306 0971 CE000000 		.4byte	0xce
 1307 0975 04       		.byte	0x4
 1308 0976 08       		.uleb128 0x8
 1309 0977 92030000 		.4byte	.LASF142
 1310 097b 10       		.byte	0x10
 1311 097c 8C01     		.2byte	0x18c
ARM GAS  /var/folders/m4/4md61f0s1_g0rzfghffqnxvr0000gn/T//ccuZYhcl.s 			page 24


 1312 097e 47090000 		.4byte	0x947
 1313 0982 08       		.byte	0x8
 1314 0983 00       		.byte	0
 1315 0984 11       		.uleb128 0x11
 1316 0985 A5030000 		.4byte	.LASF143
 1317 0989 10       		.byte	0x10
 1318 098a 8E01     		.2byte	0x18e
 1319 098c 53090000 		.4byte	0x953
 1320 0990 11       		.uleb128 0x11
 1321 0991 9A020000 		.4byte	.LASF144
 1322 0995 10       		.byte	0x10
 1323 0996 9301     		.2byte	0x193
 1324 0998 9C090000 		.4byte	0x99c
 1325 099c 0A       		.uleb128 0xa
 1326 099d 9A020000 		.4byte	.LASF144
 1327 09a1 38       		.byte	0x38
 1328 09a2 10       		.byte	0x10
 1329 09a3 9801     		.2byte	0x198
 1330 09a5 390A0000 		.4byte	0xa39
 1331 09a9 08       		.uleb128 0x8
 1332 09aa 8B010000 		.4byte	.LASF145
 1333 09ae 10       		.byte	0x10
 1334 09af 9C01     		.2byte	0x19c
 1335 09b1 E0080000 		.4byte	0x8e0
 1336 09b5 00       		.byte	0
 1337 09b6 08       		.uleb128 0x8
 1338 09b7 9C050000 		.4byte	.LASF146
 1339 09bb 10       		.byte	0x10
 1340 09bc A001     		.2byte	0x1a0
 1341 09be 390A0000 		.4byte	0xa39
 1342 09c2 04       		.byte	0x4
 1343 09c3 08       		.uleb128 0x8
 1344 09c4 4B020000 		.4byte	.LASF147
 1345 09c8 10       		.byte	0x10
 1346 09c9 A401     		.2byte	0x1a4
 1347 09cb F7080000 		.4byte	0x8f7
 1348 09cf 08       		.byte	0x8
 1349 09d0 08       		.uleb128 0x8
 1350 09d1 93040000 		.4byte	.LASF148
 1351 09d5 10       		.byte	0x10
 1352 09d6 A901     		.2byte	0x1a9
 1353 09d8 1C080000 		.4byte	0x81c
 1354 09dc 0C       		.byte	0xc
 1355 09dd 08       		.uleb128 0x8
 1356 09de E7050000 		.4byte	.LASF149
 1357 09e2 10       		.byte	0x10
 1358 09e3 B201     		.2byte	0x1b2
 1359 09e5 62020000 		.4byte	0x262
 1360 09e9 1C       		.byte	0x1c
 1361 09ea 08       		.uleb128 0x8
 1362 09eb 6B010000 		.4byte	.LASF150
 1363 09ef 10       		.byte	0x10
 1364 09f0 B601     		.2byte	0x1b6
 1365 09f2 EB080000 		.4byte	0x8eb
 1366 09f6 20       		.byte	0x20
 1367 09f7 08       		.uleb128 0x8
 1368 09f8 C2010000 		.4byte	.LASF151
ARM GAS  /var/folders/m4/4md61f0s1_g0rzfghffqnxvr0000gn/T//ccuZYhcl.s 			page 25


 1369 09fc 10       		.byte	0x10
 1370 09fd BA01     		.2byte	0x1ba
 1371 09ff CE000000 		.4byte	0xce
 1372 0a03 24       		.byte	0x24
 1373 0a04 08       		.uleb128 0x8
 1374 0a05 B5030000 		.4byte	.LASF152
 1375 0a09 10       		.byte	0x10
 1376 0a0a BE01     		.2byte	0x1be
 1377 0a0c CE000000 		.4byte	0xce
 1378 0a10 28       		.byte	0x28
 1379 0a11 08       		.uleb128 0x8
 1380 0a12 2C000000 		.4byte	.LASF153
 1381 0a16 10       		.byte	0x10
 1382 0a17 C201     		.2byte	0x1c2
 1383 0a19 A8080000 		.4byte	0x8a8
 1384 0a1d 2C       		.byte	0x2c
 1385 0a1e 08       		.uleb128 0x8
 1386 0a1f CC010000 		.4byte	.LASF154
 1387 0a23 10       		.byte	0x10
 1388 0a24 C601     		.2byte	0x1c6
 1389 0a26 A8080000 		.4byte	0x8a8
 1390 0a2a 30       		.byte	0x30
 1391 0a2b 07       		.uleb128 0x7
 1392 0a2c 69326300 		.ascii	"i2c\000"
 1393 0a30 10       		.byte	0x10
 1394 0a31 CA01     		.2byte	0x1ca
 1395 0a33 440A0000 		.4byte	0xa44
 1396 0a37 34       		.byte	0x34
 1397 0a38 00       		.byte	0
 1398 0a39 09       		.uleb128 0x9
 1399 0a3a 04       		.byte	0x4
 1400 0a3b 3F0A0000 		.4byte	0xa3f
 1401 0a3f 16       		.uleb128 0x16
 1402 0a40 84090000 		.4byte	0x984
 1403 0a44 09       		.uleb128 0x9
 1404 0a45 04       		.byte	0x4
 1405 0a46 7A050000 		.4byte	0x57a
 1406 0a4a 1C       		.uleb128 0x1c
 1407 0a4b 2D070000 		.4byte	.LASF157
 1408 0a4f 01       		.byte	0x1
 1409 0a50 A8       		.byte	0xa8
 1410 0a51 AD000000 		.4byte	0xad
 1411 0a55 00000000 		.4byte	.LFB269
 1412 0a59 38000000 		.4byte	.LFE269-.LFB269
 1413 0a5d 01       		.uleb128 0x1
 1414 0a5e 9C       		.byte	0x9c
 1415 0a5f 030B0000 		.4byte	0xb03
 1416 0a63 1D       		.uleb128 0x1d
 1417 0a64 6B010000 		.4byte	.LASF150
 1418 0a68 01       		.byte	0x1
 1419 0a69 A8       		.byte	0xa8
 1420 0a6a AD000000 		.4byte	0xad
 1421 0a6e 00000000 		.4byte	.LLST0
 1422 0a72 1E       		.uleb128 0x1e
 1423 0a73 746D6F00 		.ascii	"tmo\000"
 1424 0a77 01       		.byte	0x1
 1425 0a78 AA       		.byte	0xaa
ARM GAS  /var/folders/m4/4md61f0s1_g0rzfghffqnxvr0000gn/T//ccuZYhcl.s 			page 26


 1426 0a79 47010000 		.4byte	0x147
 1427 0a7d 28       		.byte	0x28
 1428 0a7e 1F       		.uleb128 0x1f
 1429 0a7f 37020000 		.4byte	.LASF155
 1430 0a83 01       		.byte	0x1
 1431 0a84 AB       		.byte	0xab
 1432 0a85 030B0000 		.4byte	0xb03
 1433 0a89 02       		.uleb128 0x2
 1434 0a8a 91       		.byte	0x91
 1435 0a8b 68       		.sleb128 -24
 1436 0a8c 1F       		.uleb128 0x1f
 1437 0a8d F4000000 		.4byte	.LASF156
 1438 0a91 01       		.byte	0x1
 1439 0a92 AC       		.byte	0xac
 1440 0a93 130B0000 		.4byte	0xb13
 1441 0a97 02       		.uleb128 0x2
 1442 0a98 91       		.byte	0x91
 1443 0a99 6C       		.sleb128 -20
 1444 0a9a 20       		.uleb128 0x20
 1445 0a9b 30010000 		.4byte	.LASF166
 1446 0a9f 01       		.byte	0x1
 1447 0aa0 AF       		.byte	0xaf
 1448 0aa1 AD000000 		.4byte	0xad
 1449 0aa5 21       		.uleb128 0x21
 1450 0aa6 14000000 		.4byte	.LVL2
 1451 0aaa AA0B0000 		.4byte	0xbaa
 1452 0aae B90A0000 		.4byte	0xab9
 1453 0ab2 22       		.uleb128 0x22
 1454 0ab3 01       		.uleb128 0x1
 1455 0ab4 50       		.byte	0x50
 1456 0ab5 02       		.uleb128 0x2
 1457 0ab6 74       		.byte	0x74
 1458 0ab7 00       		.sleb128 0
 1459 0ab8 00       		.byte	0
 1460 0ab9 21       		.uleb128 0x21
 1461 0aba 26000000 		.4byte	.LVL3
 1462 0abe C10B0000 		.4byte	0xbc1
 1463 0ac2 F20A0000 		.4byte	0xaf2
 1464 0ac6 22       		.uleb128 0x22
 1465 0ac7 01       		.uleb128 0x1
 1466 0ac8 53       		.byte	0x53
 1467 0ac9 01       		.uleb128 0x1
 1468 0aca 31       		.byte	0x31
 1469 0acb 22       		.uleb128 0x22
 1470 0acc 01       		.uleb128 0x1
 1471 0acd 52       		.byte	0x52
 1472 0ace 02       		.uleb128 0x2
 1473 0acf 75       		.byte	0x75
 1474 0ad0 00       		.sleb128 0
 1475 0ad1 22       		.uleb128 0x22
 1476 0ad2 01       		.uleb128 0x1
 1477 0ad3 51       		.byte	0x51
 1478 0ad4 02       		.uleb128 0x2
 1479 0ad5 08       		.byte	0x8
 1480 0ad6 28       		.byte	0x28
 1481 0ad7 22       		.uleb128 0x22
 1482 0ad8 01       		.uleb128 0x1
ARM GAS  /var/folders/m4/4md61f0s1_g0rzfghffqnxvr0000gn/T//ccuZYhcl.s 			page 27


 1483 0ad9 50       		.byte	0x50
 1484 0ada 02       		.uleb128 0x2
 1485 0adb 74       		.byte	0x74
 1486 0adc 00       		.sleb128 0
 1487 0add 22       		.uleb128 0x22
 1488 0ade 02       		.uleb128 0x2
 1489 0adf 7D       		.byte	0x7d
 1490 0ae0 08       		.sleb128 8
 1491 0ae1 02       		.uleb128 0x2
 1492 0ae2 08       		.byte	0x8
 1493 0ae3 28       		.byte	0x28
 1494 0ae4 22       		.uleb128 0x22
 1495 0ae5 02       		.uleb128 0x2
 1496 0ae6 7D       		.byte	0x7d
 1497 0ae7 04       		.sleb128 4
 1498 0ae8 01       		.uleb128 0x1
 1499 0ae9 31       		.byte	0x31
 1500 0aea 22       		.uleb128 0x22
 1501 0aeb 02       		.uleb128 0x2
 1502 0aec 7D       		.byte	0x7d
 1503 0aed 00       		.sleb128 0
 1504 0aee 02       		.uleb128 0x2
 1505 0aef 76       		.byte	0x76
 1506 0af0 00       		.sleb128 0
 1507 0af1 00       		.byte	0
 1508 0af2 23       		.uleb128 0x23
 1509 0af3 2C000000 		.4byte	.LVL4
 1510 0af7 F40B0000 		.4byte	0xbf4
 1511 0afb 22       		.uleb128 0x22
 1512 0afc 01       		.uleb128 0x1
 1513 0afd 50       		.byte	0x50
 1514 0afe 02       		.uleb128 0x2
 1515 0aff 74       		.byte	0x74
 1516 0b00 00       		.sleb128 0
 1517 0b01 00       		.byte	0
 1518 0b02 00       		.byte	0
 1519 0b03 17       		.uleb128 0x17
 1520 0b04 AD000000 		.4byte	0xad
 1521 0b08 130B0000 		.4byte	0xb13
 1522 0b0c 18       		.uleb128 0x18
 1523 0b0d 80040000 		.4byte	0x480
 1524 0b11 00       		.byte	0
 1525 0b12 00       		.byte	0
 1526 0b13 17       		.uleb128 0x17
 1527 0b14 AD000000 		.4byte	0xad
 1528 0b18 230B0000 		.4byte	0xb23
 1529 0b1c 18       		.uleb128 0x18
 1530 0b1d 80040000 		.4byte	0x480
 1531 0b21 01       		.byte	0x1
 1532 0b22 00       		.byte	0
 1533 0b23 1C       		.uleb128 0x1c
 1534 0b24 ED030000 		.4byte	.LASF158
 1535 0b28 01       		.byte	0x1
 1536 0b29 9A       		.byte	0x9a
 1537 0b2a A1080000 		.4byte	0x8a1
 1538 0b2e 00000000 		.4byte	.LFB268
 1539 0b32 2A000000 		.4byte	.LFE268-.LFB268
ARM GAS  /var/folders/m4/4md61f0s1_g0rzfghffqnxvr0000gn/T//ccuZYhcl.s 			page 28


 1540 0b36 01       		.uleb128 0x1
 1541 0b37 9C       		.byte	0x9c
 1542 0b38 820B0000 		.4byte	0xb82
 1543 0b3c 24       		.uleb128 0x24
 1544 0b3d 696400   		.ascii	"id\000"
 1545 0b40 01       		.byte	0x1
 1546 0b41 9C       		.byte	0x9c
 1547 0b42 AD000000 		.4byte	0xad
 1548 0b46 2D000000 		.4byte	.LLST1
 1549 0b4a 21       		.uleb128 0x21
 1550 0b4b 08000000 		.4byte	.LVL5
 1551 0b4f 4A0A0000 		.4byte	0xa4a
 1552 0b53 5D0B0000 		.4byte	0xb5d
 1553 0b57 22       		.uleb128 0x22
 1554 0b58 01       		.uleb128 0x1
 1555 0b59 50       		.byte	0x50
 1556 0b5a 01       		.uleb128 0x1
 1557 0b5b 30       		.byte	0x30
 1558 0b5c 00       		.byte	0
 1559 0b5d 21       		.uleb128 0x21
 1560 0b5e 14000000 		.4byte	.LVL7
 1561 0b62 050C0000 		.4byte	0xc05
 1562 0b66 720B0000 		.4byte	0xb72
 1563 0b6a 22       		.uleb128 0x22
 1564 0b6b 01       		.uleb128 0x1
 1565 0b6c 50       		.byte	0x50
 1566 0b6d 03       		.uleb128 0x3
 1567 0b6e 0A       		.byte	0xa
 1568 0b6f 1027     		.2byte	0x2710
 1569 0b71 00       		.byte	0
 1570 0b72 23       		.uleb128 0x23
 1571 0b73 1A000000 		.4byte	.LVL8
 1572 0b77 4A0A0000 		.4byte	0xa4a
 1573 0b7b 22       		.uleb128 0x22
 1574 0b7c 01       		.uleb128 0x1
 1575 0b7d 50       		.byte	0x50
 1576 0b7e 01       		.uleb128 0x1
 1577 0b7f 30       		.byte	0x30
 1578 0b80 00       		.byte	0
 1579 0b81 00       		.byte	0
 1580 0b82 25       		.uleb128 0x25
 1581 0b83 E7000000 		.4byte	.LASF159
 1582 0b87 11       		.byte	0x11
 1583 0b88 FA06     		.2byte	0x6fa
 1584 0b8a 8E0B0000 		.4byte	0xb8e
 1585 0b8e 0F       		.uleb128 0xf
 1586 0b8f C3000000 		.4byte	0xc3
 1587 0b93 26       		.uleb128 0x26
 1588 0b94 636800   		.ascii	"ch\000"
 1589 0b97 07       		.byte	0x7
 1590 0b98 0902     		.2byte	0x209
 1591 0b9a 19040000 		.4byte	0x419
 1592 0b9e 25       		.uleb128 0x25
 1593 0b9f 71050000 		.4byte	.LASF160
 1594 0ba3 10       		.byte	0x10
 1595 0ba4 E001     		.2byte	0x1e0
 1596 0ba6 90090000 		.4byte	0x990
ARM GAS  /var/folders/m4/4md61f0s1_g0rzfghffqnxvr0000gn/T//ccuZYhcl.s 			page 29


 1597 0baa 27       		.uleb128 0x27
 1598 0bab 64040000 		.4byte	.LASF161
 1599 0baf 0F       		.byte	0xf
 1600 0bb0 9A       		.byte	0x9a
 1601 0bb1 BB0B0000 		.4byte	0xbbb
 1602 0bb5 0C       		.uleb128 0xc
 1603 0bb6 BB0B0000 		.4byte	0xbbb
 1604 0bba 00       		.byte	0
 1605 0bbb 09       		.uleb128 0x9
 1606 0bbc 04       		.byte	0x4
 1607 0bbd 90090000 		.4byte	0x990
 1608 0bc1 28       		.uleb128 0x28
 1609 0bc2 17010000 		.4byte	.LASF167
 1610 0bc6 0F       		.byte	0xf
 1611 0bc7 90       		.byte	0x90
 1612 0bc8 26010000 		.4byte	0x126
 1613 0bcc F40B0000 		.4byte	0xbf4
 1614 0bd0 0C       		.uleb128 0xc
 1615 0bd1 BB0B0000 		.4byte	0xbbb
 1616 0bd5 0C       		.uleb128 0xc
 1617 0bd6 EB080000 		.4byte	0x8eb
 1618 0bda 0C       		.uleb128 0xc
 1619 0bdb 33080000 		.4byte	0x833
 1620 0bdf 0C       		.uleb128 0xc
 1621 0be0 2C000000 		.4byte	0x2c
 1622 0be4 0C       		.uleb128 0xc
 1623 0be5 2D080000 		.4byte	0x82d
 1624 0be9 0C       		.uleb128 0xc
 1625 0bea 2C000000 		.4byte	0x2c
 1626 0bee 0C       		.uleb128 0xc
 1627 0bef 47010000 		.4byte	0x147
 1628 0bf3 00       		.byte	0
 1629 0bf4 27       		.uleb128 0x27
 1630 0bf5 C3000000 		.4byte	.LASF162
 1631 0bf9 0F       		.byte	0xf
 1632 0bfa 9B       		.byte	0x9b
 1633 0bfb 050C0000 		.4byte	0xc05
 1634 0bff 0C       		.uleb128 0xc
 1635 0c00 BB0B0000 		.4byte	0xbbb
 1636 0c04 00       		.byte	0
 1637 0c05 29       		.uleb128 0x29
 1638 0c06 3E050000 		.4byte	.LASF168
 1639 0c0a 12       		.byte	0x12
 1640 0c0b 96       		.byte	0x96
 1641 0c0c 0C       		.uleb128 0xc
 1642 0c0d 47010000 		.4byte	0x147
 1643 0c11 00       		.byte	0
 1644 0c12 00       		.byte	0
 1645              		.section	.debug_abbrev,"",%progbits
 1646              	.Ldebug_abbrev0:
 1647 0000 01       		.uleb128 0x1
 1648 0001 11       		.uleb128 0x11
 1649 0002 01       		.byte	0x1
 1650 0003 25       		.uleb128 0x25
 1651 0004 0E       		.uleb128 0xe
 1652 0005 13       		.uleb128 0x13
 1653 0006 0B       		.uleb128 0xb
ARM GAS  /var/folders/m4/4md61f0s1_g0rzfghffqnxvr0000gn/T//ccuZYhcl.s 			page 30


 1654 0007 03       		.uleb128 0x3
 1655 0008 0E       		.uleb128 0xe
 1656 0009 1B       		.uleb128 0x1b
 1657 000a 0E       		.uleb128 0xe
 1658 000b 55       		.uleb128 0x55
 1659 000c 17       		.uleb128 0x17
 1660 000d 11       		.uleb128 0x11
 1661 000e 01       		.uleb128 0x1
 1662 000f 10       		.uleb128 0x10
 1663 0010 17       		.uleb128 0x17
 1664 0011 00       		.byte	0
 1665 0012 00       		.byte	0
 1666 0013 02       		.uleb128 0x2
 1667 0014 24       		.uleb128 0x24
 1668 0015 00       		.byte	0
 1669 0016 0B       		.uleb128 0xb
 1670 0017 0B       		.uleb128 0xb
 1671 0018 3E       		.uleb128 0x3e
 1672 0019 0B       		.uleb128 0xb
 1673 001a 03       		.uleb128 0x3
 1674 001b 08       		.uleb128 0x8
 1675 001c 00       		.byte	0
 1676 001d 00       		.byte	0
 1677 001e 03       		.uleb128 0x3
 1678 001f 16       		.uleb128 0x16
 1679 0020 00       		.byte	0
 1680 0021 03       		.uleb128 0x3
 1681 0022 0E       		.uleb128 0xe
 1682 0023 3A       		.uleb128 0x3a
 1683 0024 0B       		.uleb128 0xb
 1684 0025 3B       		.uleb128 0x3b
 1685 0026 0B       		.uleb128 0xb
 1686 0027 49       		.uleb128 0x49
 1687 0028 13       		.uleb128 0x13
 1688 0029 00       		.byte	0
 1689 002a 00       		.byte	0
 1690 002b 04       		.uleb128 0x4
 1691 002c 24       		.uleb128 0x24
 1692 002d 00       		.byte	0
 1693 002e 0B       		.uleb128 0xb
 1694 002f 0B       		.uleb128 0xb
 1695 0030 3E       		.uleb128 0x3e
 1696 0031 0B       		.uleb128 0xb
 1697 0032 03       		.uleb128 0x3
 1698 0033 0E       		.uleb128 0xe
 1699 0034 00       		.byte	0
 1700 0035 00       		.byte	0
 1701 0036 05       		.uleb128 0x5
 1702 0037 13       		.uleb128 0x13
 1703 0038 01       		.byte	0x1
 1704 0039 03       		.uleb128 0x3
 1705 003a 0E       		.uleb128 0xe
 1706 003b 0B       		.uleb128 0xb
 1707 003c 0B       		.uleb128 0xb
 1708 003d 3A       		.uleb128 0x3a
 1709 003e 0B       		.uleb128 0xb
 1710 003f 3B       		.uleb128 0x3b
ARM GAS  /var/folders/m4/4md61f0s1_g0rzfghffqnxvr0000gn/T//ccuZYhcl.s 			page 31


 1711 0040 0B       		.uleb128 0xb
 1712 0041 01       		.uleb128 0x1
 1713 0042 13       		.uleb128 0x13
 1714 0043 00       		.byte	0
 1715 0044 00       		.byte	0
 1716 0045 06       		.uleb128 0x6
 1717 0046 0D       		.uleb128 0xd
 1718 0047 00       		.byte	0
 1719 0048 03       		.uleb128 0x3
 1720 0049 0E       		.uleb128 0xe
 1721 004a 3A       		.uleb128 0x3a
 1722 004b 0B       		.uleb128 0xb
 1723 004c 3B       		.uleb128 0x3b
 1724 004d 0B       		.uleb128 0xb
 1725 004e 49       		.uleb128 0x49
 1726 004f 13       		.uleb128 0x13
 1727 0050 38       		.uleb128 0x38
 1728 0051 0B       		.uleb128 0xb
 1729 0052 00       		.byte	0
 1730 0053 00       		.byte	0
 1731 0054 07       		.uleb128 0x7
 1732 0055 0D       		.uleb128 0xd
 1733 0056 00       		.byte	0
 1734 0057 03       		.uleb128 0x3
 1735 0058 08       		.uleb128 0x8
 1736 0059 3A       		.uleb128 0x3a
 1737 005a 0B       		.uleb128 0xb
 1738 005b 3B       		.uleb128 0x3b
 1739 005c 05       		.uleb128 0x5
 1740 005d 49       		.uleb128 0x49
 1741 005e 13       		.uleb128 0x13
 1742 005f 38       		.uleb128 0x38
 1743 0060 0B       		.uleb128 0xb
 1744 0061 00       		.byte	0
 1745 0062 00       		.byte	0
 1746 0063 08       		.uleb128 0x8
 1747 0064 0D       		.uleb128 0xd
 1748 0065 00       		.byte	0
 1749 0066 03       		.uleb128 0x3
 1750 0067 0E       		.uleb128 0xe
 1751 0068 3A       		.uleb128 0x3a
 1752 0069 0B       		.uleb128 0xb
 1753 006a 3B       		.uleb128 0x3b
 1754 006b 05       		.uleb128 0x5
 1755 006c 49       		.uleb128 0x49
 1756 006d 13       		.uleb128 0x13
 1757 006e 38       		.uleb128 0x38
 1758 006f 0B       		.uleb128 0xb
 1759 0070 00       		.byte	0
 1760 0071 00       		.byte	0
 1761 0072 09       		.uleb128 0x9
 1762 0073 0F       		.uleb128 0xf
 1763 0074 00       		.byte	0
 1764 0075 0B       		.uleb128 0xb
 1765 0076 0B       		.uleb128 0xb
 1766 0077 49       		.uleb128 0x49
 1767 0078 13       		.uleb128 0x13
ARM GAS  /var/folders/m4/4md61f0s1_g0rzfghffqnxvr0000gn/T//ccuZYhcl.s 			page 32


 1768 0079 00       		.byte	0
 1769 007a 00       		.byte	0
 1770 007b 0A       		.uleb128 0xa
 1771 007c 13       		.uleb128 0x13
 1772 007d 01       		.byte	0x1
 1773 007e 03       		.uleb128 0x3
 1774 007f 0E       		.uleb128 0xe
 1775 0080 0B       		.uleb128 0xb
 1776 0081 0B       		.uleb128 0xb
 1777 0082 3A       		.uleb128 0x3a
 1778 0083 0B       		.uleb128 0xb
 1779 0084 3B       		.uleb128 0x3b
 1780 0085 05       		.uleb128 0x5
 1781 0086 01       		.uleb128 0x1
 1782 0087 13       		.uleb128 0x13
 1783 0088 00       		.byte	0
 1784 0089 00       		.byte	0
 1785 008a 0B       		.uleb128 0xb
 1786 008b 15       		.uleb128 0x15
 1787 008c 01       		.byte	0x1
 1788 008d 27       		.uleb128 0x27
 1789 008e 19       		.uleb128 0x19
 1790 008f 01       		.uleb128 0x1
 1791 0090 13       		.uleb128 0x13
 1792 0091 00       		.byte	0
 1793 0092 00       		.byte	0
 1794 0093 0C       		.uleb128 0xc
 1795 0094 05       		.uleb128 0x5
 1796 0095 00       		.byte	0
 1797 0096 49       		.uleb128 0x49
 1798 0097 13       		.uleb128 0x13
 1799 0098 00       		.byte	0
 1800 0099 00       		.byte	0
 1801 009a 0D       		.uleb128 0xd
 1802 009b 0F       		.uleb128 0xf
 1803 009c 00       		.byte	0
 1804 009d 0B       		.uleb128 0xb
 1805 009e 0B       		.uleb128 0xb
 1806 009f 00       		.byte	0
 1807 00a0 00       		.byte	0
 1808 00a1 0E       		.uleb128 0xe
 1809 00a2 13       		.uleb128 0x13
 1810 00a3 01       		.byte	0x1
 1811 00a4 03       		.uleb128 0x3
 1812 00a5 0E       		.uleb128 0xe
 1813 00a6 0B       		.uleb128 0xb
 1814 00a7 05       		.uleb128 0x5
 1815 00a8 3A       		.uleb128 0x3a
 1816 00a9 0B       		.uleb128 0xb
 1817 00aa 3B       		.uleb128 0x3b
 1818 00ab 05       		.uleb128 0x5
 1819 00ac 01       		.uleb128 0x1
 1820 00ad 13       		.uleb128 0x13
 1821 00ae 00       		.byte	0
 1822 00af 00       		.byte	0
 1823 00b0 0F       		.uleb128 0xf
 1824 00b1 35       		.uleb128 0x35
ARM GAS  /var/folders/m4/4md61f0s1_g0rzfghffqnxvr0000gn/T//ccuZYhcl.s 			page 33


 1825 00b2 00       		.byte	0
 1826 00b3 49       		.uleb128 0x49
 1827 00b4 13       		.uleb128 0x13
 1828 00b5 00       		.byte	0
 1829 00b6 00       		.byte	0
 1830 00b7 10       		.uleb128 0x10
 1831 00b8 13       		.uleb128 0x13
 1832 00b9 01       		.byte	0x1
 1833 00ba 0B       		.uleb128 0xb
 1834 00bb 0B       		.uleb128 0xb
 1835 00bc 3A       		.uleb128 0x3a
 1836 00bd 0B       		.uleb128 0xb
 1837 00be 3B       		.uleb128 0x3b
 1838 00bf 05       		.uleb128 0x5
 1839 00c0 01       		.uleb128 0x1
 1840 00c1 13       		.uleb128 0x13
 1841 00c2 00       		.byte	0
 1842 00c3 00       		.byte	0
 1843 00c4 11       		.uleb128 0x11
 1844 00c5 16       		.uleb128 0x16
 1845 00c6 00       		.byte	0
 1846 00c7 03       		.uleb128 0x3
 1847 00c8 0E       		.uleb128 0xe
 1848 00c9 3A       		.uleb128 0x3a
 1849 00ca 0B       		.uleb128 0xb
 1850 00cb 3B       		.uleb128 0x3b
 1851 00cc 05       		.uleb128 0x5
 1852 00cd 49       		.uleb128 0x49
 1853 00ce 13       		.uleb128 0x13
 1854 00cf 00       		.byte	0
 1855 00d0 00       		.byte	0
 1856 00d1 12       		.uleb128 0x12
 1857 00d2 0D       		.uleb128 0xd
 1858 00d3 00       		.byte	0
 1859 00d4 03       		.uleb128 0x3
 1860 00d5 08       		.uleb128 0x8
 1861 00d6 3A       		.uleb128 0x3a
 1862 00d7 0B       		.uleb128 0xb
 1863 00d8 3B       		.uleb128 0x3b
 1864 00d9 0B       		.uleb128 0xb
 1865 00da 49       		.uleb128 0x49
 1866 00db 13       		.uleb128 0x13
 1867 00dc 38       		.uleb128 0x38
 1868 00dd 0B       		.uleb128 0xb
 1869 00de 00       		.byte	0
 1870 00df 00       		.byte	0
 1871 00e0 13       		.uleb128 0x13
 1872 00e1 13       		.uleb128 0x13
 1873 00e2 01       		.byte	0x1
 1874 00e3 0B       		.uleb128 0xb
 1875 00e4 0B       		.uleb128 0xb
 1876 00e5 3A       		.uleb128 0x3a
 1877 00e6 0B       		.uleb128 0xb
 1878 00e7 3B       		.uleb128 0x3b
 1879 00e8 0B       		.uleb128 0xb
 1880 00e9 01       		.uleb128 0x1
 1881 00ea 13       		.uleb128 0x13
ARM GAS  /var/folders/m4/4md61f0s1_g0rzfghffqnxvr0000gn/T//ccuZYhcl.s 			page 34


 1882 00eb 00       		.byte	0
 1883 00ec 00       		.byte	0
 1884 00ed 14       		.uleb128 0x14
 1885 00ee 17       		.uleb128 0x17
 1886 00ef 01       		.byte	0x1
 1887 00f0 0B       		.uleb128 0xb
 1888 00f1 0B       		.uleb128 0xb
 1889 00f2 3A       		.uleb128 0x3a
 1890 00f3 0B       		.uleb128 0xb
 1891 00f4 3B       		.uleb128 0x3b
 1892 00f5 0B       		.uleb128 0xb
 1893 00f6 01       		.uleb128 0x1
 1894 00f7 13       		.uleb128 0x13
 1895 00f8 00       		.byte	0
 1896 00f9 00       		.byte	0
 1897 00fa 15       		.uleb128 0x15
 1898 00fb 0D       		.uleb128 0xd
 1899 00fc 00       		.byte	0
 1900 00fd 03       		.uleb128 0x3
 1901 00fe 0E       		.uleb128 0xe
 1902 00ff 3A       		.uleb128 0x3a
 1903 0100 0B       		.uleb128 0xb
 1904 0101 3B       		.uleb128 0x3b
 1905 0102 05       		.uleb128 0x5
 1906 0103 49       		.uleb128 0x49
 1907 0104 13       		.uleb128 0x13
 1908 0105 00       		.byte	0
 1909 0106 00       		.byte	0
 1910 0107 16       		.uleb128 0x16
 1911 0108 26       		.uleb128 0x26
 1912 0109 00       		.byte	0
 1913 010a 49       		.uleb128 0x49
 1914 010b 13       		.uleb128 0x13
 1915 010c 00       		.byte	0
 1916 010d 00       		.byte	0
 1917 010e 17       		.uleb128 0x17
 1918 010f 01       		.uleb128 0x1
 1919 0110 01       		.byte	0x1
 1920 0111 49       		.uleb128 0x49
 1921 0112 13       		.uleb128 0x13
 1922 0113 01       		.uleb128 0x1
 1923 0114 13       		.uleb128 0x13
 1924 0115 00       		.byte	0
 1925 0116 00       		.byte	0
 1926 0117 18       		.uleb128 0x18
 1927 0118 21       		.uleb128 0x21
 1928 0119 00       		.byte	0
 1929 011a 49       		.uleb128 0x49
 1930 011b 13       		.uleb128 0x13
 1931 011c 2F       		.uleb128 0x2f
 1932 011d 0B       		.uleb128 0xb
 1933 011e 00       		.byte	0
 1934 011f 00       		.byte	0
 1935 0120 19       		.uleb128 0x19
 1936 0121 04       		.uleb128 0x4
 1937 0122 01       		.byte	0x1
 1938 0123 0B       		.uleb128 0xb
ARM GAS  /var/folders/m4/4md61f0s1_g0rzfghffqnxvr0000gn/T//ccuZYhcl.s 			page 35


 1939 0124 0B       		.uleb128 0xb
 1940 0125 3A       		.uleb128 0x3a
 1941 0126 0B       		.uleb128 0xb
 1942 0127 3B       		.uleb128 0x3b
 1943 0128 0B       		.uleb128 0xb
 1944 0129 01       		.uleb128 0x1
 1945 012a 13       		.uleb128 0x13
 1946 012b 00       		.byte	0
 1947 012c 00       		.byte	0
 1948 012d 1A       		.uleb128 0x1a
 1949 012e 28       		.uleb128 0x28
 1950 012f 00       		.byte	0
 1951 0130 03       		.uleb128 0x3
 1952 0131 0E       		.uleb128 0xe
 1953 0132 1C       		.uleb128 0x1c
 1954 0133 0D       		.uleb128 0xd
 1955 0134 00       		.byte	0
 1956 0135 00       		.byte	0
 1957 0136 1B       		.uleb128 0x1b
 1958 0137 04       		.uleb128 0x4
 1959 0138 01       		.byte	0x1
 1960 0139 0B       		.uleb128 0xb
 1961 013a 0B       		.uleb128 0xb
 1962 013b 3A       		.uleb128 0x3a
 1963 013c 0B       		.uleb128 0xb
 1964 013d 3B       		.uleb128 0x3b
 1965 013e 05       		.uleb128 0x5
 1966 013f 01       		.uleb128 0x1
 1967 0140 13       		.uleb128 0x13
 1968 0141 00       		.byte	0
 1969 0142 00       		.byte	0
 1970 0143 1C       		.uleb128 0x1c
 1971 0144 2E       		.uleb128 0x2e
 1972 0145 01       		.byte	0x1
 1973 0146 3F       		.uleb128 0x3f
 1974 0147 19       		.uleb128 0x19
 1975 0148 03       		.uleb128 0x3
 1976 0149 0E       		.uleb128 0xe
 1977 014a 3A       		.uleb128 0x3a
 1978 014b 0B       		.uleb128 0xb
 1979 014c 3B       		.uleb128 0x3b
 1980 014d 0B       		.uleb128 0xb
 1981 014e 27       		.uleb128 0x27
 1982 014f 19       		.uleb128 0x19
 1983 0150 49       		.uleb128 0x49
 1984 0151 13       		.uleb128 0x13
 1985 0152 11       		.uleb128 0x11
 1986 0153 01       		.uleb128 0x1
 1987 0154 12       		.uleb128 0x12
 1988 0155 06       		.uleb128 0x6
 1989 0156 40       		.uleb128 0x40
 1990 0157 18       		.uleb128 0x18
 1991 0158 9742     		.uleb128 0x2117
 1992 015a 19       		.uleb128 0x19
 1993 015b 01       		.uleb128 0x1
 1994 015c 13       		.uleb128 0x13
 1995 015d 00       		.byte	0
ARM GAS  /var/folders/m4/4md61f0s1_g0rzfghffqnxvr0000gn/T//ccuZYhcl.s 			page 36


 1996 015e 00       		.byte	0
 1997 015f 1D       		.uleb128 0x1d
 1998 0160 05       		.uleb128 0x5
 1999 0161 00       		.byte	0
 2000 0162 03       		.uleb128 0x3
 2001 0163 0E       		.uleb128 0xe
 2002 0164 3A       		.uleb128 0x3a
 2003 0165 0B       		.uleb128 0xb
 2004 0166 3B       		.uleb128 0x3b
 2005 0167 0B       		.uleb128 0xb
 2006 0168 49       		.uleb128 0x49
 2007 0169 13       		.uleb128 0x13
 2008 016a 02       		.uleb128 0x2
 2009 016b 17       		.uleb128 0x17
 2010 016c 00       		.byte	0
 2011 016d 00       		.byte	0
 2012 016e 1E       		.uleb128 0x1e
 2013 016f 34       		.uleb128 0x34
 2014 0170 00       		.byte	0
 2015 0171 03       		.uleb128 0x3
 2016 0172 08       		.uleb128 0x8
 2017 0173 3A       		.uleb128 0x3a
 2018 0174 0B       		.uleb128 0xb
 2019 0175 3B       		.uleb128 0x3b
 2020 0176 0B       		.uleb128 0xb
 2021 0177 49       		.uleb128 0x49
 2022 0178 13       		.uleb128 0x13
 2023 0179 1C       		.uleb128 0x1c
 2024 017a 0B       		.uleb128 0xb
 2025 017b 00       		.byte	0
 2026 017c 00       		.byte	0
 2027 017d 1F       		.uleb128 0x1f
 2028 017e 34       		.uleb128 0x34
 2029 017f 00       		.byte	0
 2030 0180 03       		.uleb128 0x3
 2031 0181 0E       		.uleb128 0xe
 2032 0182 3A       		.uleb128 0x3a
 2033 0183 0B       		.uleb128 0xb
 2034 0184 3B       		.uleb128 0x3b
 2035 0185 0B       		.uleb128 0xb
 2036 0186 49       		.uleb128 0x49
 2037 0187 13       		.uleb128 0x13
 2038 0188 02       		.uleb128 0x2
 2039 0189 18       		.uleb128 0x18
 2040 018a 00       		.byte	0
 2041 018b 00       		.byte	0
 2042 018c 20       		.uleb128 0x20
 2043 018d 34       		.uleb128 0x34
 2044 018e 00       		.byte	0
 2045 018f 03       		.uleb128 0x3
 2046 0190 0E       		.uleb128 0xe
 2047 0191 3A       		.uleb128 0x3a
 2048 0192 0B       		.uleb128 0xb
 2049 0193 3B       		.uleb128 0x3b
 2050 0194 0B       		.uleb128 0xb
 2051 0195 49       		.uleb128 0x49
 2052 0196 13       		.uleb128 0x13
ARM GAS  /var/folders/m4/4md61f0s1_g0rzfghffqnxvr0000gn/T//ccuZYhcl.s 			page 37


 2053 0197 00       		.byte	0
 2054 0198 00       		.byte	0
 2055 0199 21       		.uleb128 0x21
 2056 019a 898201   		.uleb128 0x4109
 2057 019d 01       		.byte	0x1
 2058 019e 11       		.uleb128 0x11
 2059 019f 01       		.uleb128 0x1
 2060 01a0 31       		.uleb128 0x31
 2061 01a1 13       		.uleb128 0x13
 2062 01a2 01       		.uleb128 0x1
 2063 01a3 13       		.uleb128 0x13
 2064 01a4 00       		.byte	0
 2065 01a5 00       		.byte	0
 2066 01a6 22       		.uleb128 0x22
 2067 01a7 8A8201   		.uleb128 0x410a
 2068 01aa 00       		.byte	0
 2069 01ab 02       		.uleb128 0x2
 2070 01ac 18       		.uleb128 0x18
 2071 01ad 9142     		.uleb128 0x2111
 2072 01af 18       		.uleb128 0x18
 2073 01b0 00       		.byte	0
 2074 01b1 00       		.byte	0
 2075 01b2 23       		.uleb128 0x23
 2076 01b3 898201   		.uleb128 0x4109
 2077 01b6 01       		.byte	0x1
 2078 01b7 11       		.uleb128 0x11
 2079 01b8 01       		.uleb128 0x1
 2080 01b9 31       		.uleb128 0x31
 2081 01ba 13       		.uleb128 0x13
 2082 01bb 00       		.byte	0
 2083 01bc 00       		.byte	0
 2084 01bd 24       		.uleb128 0x24
 2085 01be 34       		.uleb128 0x34
 2086 01bf 00       		.byte	0
 2087 01c0 03       		.uleb128 0x3
 2088 01c1 08       		.uleb128 0x8
 2089 01c2 3A       		.uleb128 0x3a
 2090 01c3 0B       		.uleb128 0xb
 2091 01c4 3B       		.uleb128 0x3b
 2092 01c5 0B       		.uleb128 0xb
 2093 01c6 49       		.uleb128 0x49
 2094 01c7 13       		.uleb128 0x13
 2095 01c8 02       		.uleb128 0x2
 2096 01c9 17       		.uleb128 0x17
 2097 01ca 00       		.byte	0
 2098 01cb 00       		.byte	0
 2099 01cc 25       		.uleb128 0x25
 2100 01cd 34       		.uleb128 0x34
 2101 01ce 00       		.byte	0
 2102 01cf 03       		.uleb128 0x3
 2103 01d0 0E       		.uleb128 0xe
 2104 01d1 3A       		.uleb128 0x3a
 2105 01d2 0B       		.uleb128 0xb
 2106 01d3 3B       		.uleb128 0x3b
 2107 01d4 05       		.uleb128 0x5
 2108 01d5 49       		.uleb128 0x49
 2109 01d6 13       		.uleb128 0x13
ARM GAS  /var/folders/m4/4md61f0s1_g0rzfghffqnxvr0000gn/T//ccuZYhcl.s 			page 38


 2110 01d7 3F       		.uleb128 0x3f
 2111 01d8 19       		.uleb128 0x19
 2112 01d9 3C       		.uleb128 0x3c
 2113 01da 19       		.uleb128 0x19
 2114 01db 00       		.byte	0
 2115 01dc 00       		.byte	0
 2116 01dd 26       		.uleb128 0x26
 2117 01de 34       		.uleb128 0x34
 2118 01df 00       		.byte	0
 2119 01e0 03       		.uleb128 0x3
 2120 01e1 08       		.uleb128 0x8
 2121 01e2 3A       		.uleb128 0x3a
 2122 01e3 0B       		.uleb128 0xb
 2123 01e4 3B       		.uleb128 0x3b
 2124 01e5 05       		.uleb128 0x5
 2125 01e6 49       		.uleb128 0x49
 2126 01e7 13       		.uleb128 0x13
 2127 01e8 3F       		.uleb128 0x3f
 2128 01e9 19       		.uleb128 0x19
 2129 01ea 3C       		.uleb128 0x3c
 2130 01eb 19       		.uleb128 0x19
 2131 01ec 00       		.byte	0
 2132 01ed 00       		.byte	0
 2133 01ee 27       		.uleb128 0x27
 2134 01ef 2E       		.uleb128 0x2e
 2135 01f0 01       		.byte	0x1
 2136 01f1 3F       		.uleb128 0x3f
 2137 01f2 19       		.uleb128 0x19
 2138 01f3 03       		.uleb128 0x3
 2139 01f4 0E       		.uleb128 0xe
 2140 01f5 3A       		.uleb128 0x3a
 2141 01f6 0B       		.uleb128 0xb
 2142 01f7 3B       		.uleb128 0x3b
 2143 01f8 0B       		.uleb128 0xb
 2144 01f9 27       		.uleb128 0x27
 2145 01fa 19       		.uleb128 0x19
 2146 01fb 3C       		.uleb128 0x3c
 2147 01fc 19       		.uleb128 0x19
 2148 01fd 01       		.uleb128 0x1
 2149 01fe 13       		.uleb128 0x13
 2150 01ff 00       		.byte	0
 2151 0200 00       		.byte	0
 2152 0201 28       		.uleb128 0x28
 2153 0202 2E       		.uleb128 0x2e
 2154 0203 01       		.byte	0x1
 2155 0204 3F       		.uleb128 0x3f
 2156 0205 19       		.uleb128 0x19
 2157 0206 03       		.uleb128 0x3
 2158 0207 0E       		.uleb128 0xe
 2159 0208 3A       		.uleb128 0x3a
 2160 0209 0B       		.uleb128 0xb
 2161 020a 3B       		.uleb128 0x3b
 2162 020b 0B       		.uleb128 0xb
 2163 020c 27       		.uleb128 0x27
 2164 020d 19       		.uleb128 0x19
 2165 020e 49       		.uleb128 0x49
 2166 020f 13       		.uleb128 0x13
ARM GAS  /var/folders/m4/4md61f0s1_g0rzfghffqnxvr0000gn/T//ccuZYhcl.s 			page 39


 2167 0210 3C       		.uleb128 0x3c
 2168 0211 19       		.uleb128 0x19
 2169 0212 01       		.uleb128 0x1
 2170 0213 13       		.uleb128 0x13
 2171 0214 00       		.byte	0
 2172 0215 00       		.byte	0
 2173 0216 29       		.uleb128 0x29
 2174 0217 2E       		.uleb128 0x2e
 2175 0218 01       		.byte	0x1
 2176 0219 3F       		.uleb128 0x3f
 2177 021a 19       		.uleb128 0x19
 2178 021b 03       		.uleb128 0x3
 2179 021c 0E       		.uleb128 0xe
 2180 021d 3A       		.uleb128 0x3a
 2181 021e 0B       		.uleb128 0xb
 2182 021f 3B       		.uleb128 0x3b
 2183 0220 0B       		.uleb128 0xb
 2184 0221 27       		.uleb128 0x27
 2185 0222 19       		.uleb128 0x19
 2186 0223 3C       		.uleb128 0x3c
 2187 0224 19       		.uleb128 0x19
 2188 0225 00       		.byte	0
 2189 0226 00       		.byte	0
 2190 0227 00       		.byte	0
 2191              		.section	.debug_loc,"",%progbits
 2192              	.Ldebug_loc0:
 2193              	.LLST0:
 2194 0000 00000000 		.4byte	.LVL0
 2195 0004 10000000 		.4byte	.LVL1
 2196 0008 0100     		.2byte	0x1
 2197 000a 50       		.byte	0x50
 2198 000b 10000000 		.4byte	.LVL1
 2199 000f 13000000 		.4byte	.LVL2-1
 2200 0013 0200     		.2byte	0x2
 2201 0015 75       		.byte	0x75
 2202 0016 00       		.sleb128 0
 2203 0017 13000000 		.4byte	.LVL2-1
 2204 001b 38000000 		.4byte	.LFE269
 2205 001f 0400     		.2byte	0x4
 2206 0021 F3       		.byte	0xf3
 2207 0022 01       		.uleb128 0x1
 2208 0023 50       		.byte	0x50
 2209 0024 9F       		.byte	0x9f
 2210 0025 00000000 		.4byte	0
 2211 0029 00000000 		.4byte	0
 2212              	.LLST1:
 2213 002d 08000000 		.4byte	.LVL5
 2214 0031 10000000 		.4byte	.LVL6
 2215 0035 0100     		.2byte	0x1
 2216 0037 50       		.byte	0x50
 2217 0038 1A000000 		.4byte	.LVL8
 2218 003c 1E000000 		.4byte	.LVL9
 2219 0040 0100     		.2byte	0x1
 2220 0042 50       		.byte	0x50
 2221 0043 26000000 		.4byte	.LVL10
 2222 0047 28000000 		.4byte	.LVL11
 2223 004b 0100     		.2byte	0x1
ARM GAS  /var/folders/m4/4md61f0s1_g0rzfghffqnxvr0000gn/T//ccuZYhcl.s 			page 40


 2224 004d 50       		.byte	0x50
 2225 004e 00000000 		.4byte	0
 2226 0052 00000000 		.4byte	0
 2227              		.section	.debug_aranges,"",%progbits
 2228 0000 24000000 		.4byte	0x24
 2229 0004 0200     		.2byte	0x2
 2230 0006 00000000 		.4byte	.Ldebug_info0
 2231 000a 04       		.byte	0x4
 2232 000b 00       		.byte	0
 2233 000c 0000     		.2byte	0
 2234 000e 0000     		.2byte	0
 2235 0010 00000000 		.4byte	.LFB269
 2236 0014 38000000 		.4byte	.LFE269-.LFB269
 2237 0018 00000000 		.4byte	.LFB268
 2238 001c 2A000000 		.4byte	.LFE268-.LFB268
 2239 0020 00000000 		.4byte	0
 2240 0024 00000000 		.4byte	0
 2241              		.section	.debug_ranges,"",%progbits
 2242              	.Ldebug_ranges0:
 2243 0000 00000000 		.4byte	.LFB269
 2244 0004 38000000 		.4byte	.LFE269
 2245 0008 00000000 		.4byte	.LFB268
 2246 000c 2A000000 		.4byte	.LFE268
 2247 0010 00000000 		.4byte	0
 2248 0014 00000000 		.4byte	0
 2249              		.section	.debug_line,"",%progbits
 2250              	.Ldebug_line0:
 2251 0000 57030000 		.section	.debug_str,"MS",%progbits,1
 2251      02002203 
 2251      00000201 
 2251      FB0E0D00 
 2251      01010101 
 2252              	.LASF165:
 2253 0000 2F557365 		.ascii	"/Users/raphael/Documents/pcb-quadrotor/code\000"
 2253      72732F72 
 2253      61706861 
 2253      656C2F44 
 2253      6F63756D 
 2254              	.LASF153:
 2255 002c 646D6172 		.ascii	"dmarx\000"
 2255      7800
 2256              	.LASF139:
 2257 0032 69326364 		.ascii	"i2cdutycycle_t\000"
 2257      75747963 
 2257      79636C65 
 2257      5F7400
 2258              	.LASF56:
 2259 0041 72656164 		.ascii	"ready_list_t\000"
 2259      795F6C69 
 2259      73745F74 
 2259      00
 2260              	.LASF86:
 2261 004e 4D304152 		.ascii	"M0AR\000"
 2261      00
 2262              	.LASF2:
 2263 0053 73697A65 		.ascii	"size_t\000"
 2263      5F7400
ARM GAS  /var/folders/m4/4md61f0s1_g0rzfghffqnxvr0000gn/T//ccuZYhcl.s 			page 41


 2264              	.LASF100:
 2265 005a 7264796D 		.ascii	"rdymsg\000"
 2265      736700
 2266              	.LASF19:
 2267 0061 75696E74 		.ascii	"uint64_t\000"
 2267      36345F74 
 2267      00
 2268              	.LASF120:
 2269 006a 76656374 		.ascii	"vector\000"
 2269      6F7200
 2270              	.LASF3:
 2271 0071 5F5F7569 		.ascii	"__uint8_t\000"
 2271      6E74385F 
 2271      7400
 2272              	.LASF97:
 2273 007b 706F7274 		.ascii	"port_intctx\000"
 2273      5F696E74 
 2273      63747800 
 2274              	.LASF75:
 2275 0087 73797374 		.ascii	"system_debug_t\000"
 2275      656D5F64 
 2275      65627567 
 2275      5F7400
 2276              	.LASF91:
 2277 0096 54524953 		.ascii	"TRISE\000"
 2277      4500
 2278              	.LASF116:
 2279 009c 73747265 		.ascii	"stream\000"
 2279      616D00
 2280              	.LASF14:
 2281 00a3 6C6F6E67 		.ascii	"long long unsigned int\000"
 2281      206C6F6E 
 2281      6720756E 
 2281      7369676E 
 2281      65642069 
 2282              	.LASF101:
 2283 00ba 65786974 		.ascii	"exitcode\000"
 2283      636F6465 
 2283      00
 2284              	.LASF162:
 2285 00c3 69326352 		.ascii	"i2cReleaseBus\000"
 2285      656C6561 
 2285      73654275 
 2285      7300
 2286              	.LASF72:
 2287 00d1 76697274 		.ascii	"virtual_timers_list_t\000"
 2287      75616C5F 
 2287      74696D65 
 2287      72735F6C 
 2287      6973745F 
 2288              	.LASF159:
 2289 00e7 49544D5F 		.ascii	"ITM_RxBuffer\000"
 2289      52784275 
 2289      66666572 
 2289      00
 2290              	.LASF156:
 2291 00f4 72786275 		.ascii	"rxbuf\000"
ARM GAS  /var/folders/m4/4md61f0s1_g0rzfghffqnxvr0000gn/T//ccuZYhcl.s 			page 42


 2291      6600
 2292              	.LASF55:
 2293 00fa 63685F74 		.ascii	"ch_threads_queue\000"
 2293      68726561 
 2293      64735F71 
 2293      75657565 
 2293      00
 2294              	.LASF85:
 2295 010b 4E445452 		.ascii	"NDTR\000"
 2295      00
 2296              	.LASF33:
 2297 0110 705F7072 		.ascii	"p_prio\000"
 2297      696F00
 2298              	.LASF167:
 2299 0117 6932634D 		.ascii	"i2cMasterTransmitTimeout\000"
 2299      61737465 
 2299      72547261 
 2299      6E736D69 
 2299      7454696D 
 2300              	.LASF166:
 2301 0130 73746174 		.ascii	"stat\000"
 2301      00
 2302              	.LASF12:
 2303 0135 6C6F6E67 		.ascii	"long long int\000"
 2303      206C6F6E 
 2303      6720696E 
 2303      7400
 2304              	.LASF1:
 2305 0143 7369676E 		.ascii	"signed char\000"
 2305      65642063 
 2305      68617200 
 2306              	.LASF141:
 2307 014f 636C6F63 		.ascii	"clock_speed\000"
 2307      6B5F7370 
 2307      65656400 
 2308              	.LASF49:
 2309 015b 705F6D70 		.ascii	"p_mpool\000"
 2309      6F6F6C00 
 2310              	.LASF111:
 2311 0163 6D5F7175 		.ascii	"m_queue\000"
 2311      65756500 
 2312              	.LASF150:
 2313 016b 61646472 		.ascii	"addr\000"
 2313      00
 2314              	.LASF81:
 2315 0170 76746C69 		.ascii	"vtlist\000"
 2315      737400
 2316              	.LASF24:
 2317 0177 74736C69 		.ascii	"tslices_t\000"
 2317      6365735F 
 2317      7400
 2318              	.LASF130:
 2319 0181 69326361 		.ascii	"i2caddr_t\000"
 2319      6464725F 
 2319      7400
 2320              	.LASF145:
 2321 018b 73746174 		.ascii	"state\000"
ARM GAS  /var/folders/m4/4md61f0s1_g0rzfghffqnxvr0000gn/T//ccuZYhcl.s 			page 43


 2321      6500
 2322              	.LASF79:
 2323 0191 63685F73 		.ascii	"ch_system\000"
 2323      79737465 
 2323      6D00
 2324              	.LASF9:
 2325 019b 6C6F6E67 		.ascii	"long int\000"
 2325      20696E74 
 2325      00
 2326              	.LASF22:
 2327 01a4 74737461 		.ascii	"tstate_t\000"
 2327      74655F74 
 2327      00
 2328              	.LASF92:
 2329 01ad 464C5452 		.ascii	"FLTR\000"
 2329      00
 2330              	.LASF35:
 2331 01b2 705F6E65 		.ascii	"p_newer\000"
 2331      77657200 
 2332              	.LASF108:
 2333 01ba 735F7175 		.ascii	"s_queue\000"
 2333      65756500 
 2334              	.LASF151:
 2335 01c2 7278646D 		.ascii	"rxdmamode\000"
 2335      616D6F64 
 2335      6500
 2336              	.LASF154:
 2337 01cc 646D6174 		.ascii	"dmatx\000"
 2337      7800
 2338              	.LASF134:
 2339 01d2 4F504D4F 		.ascii	"OPMODE_SMBUS_HOST\000"
 2339      44455F53 
 2339      4D425553 
 2339      5F484F53 
 2339      5400
 2340              	.LASF61:
 2341 01e4 725F6E65 		.ascii	"r_newer\000"
 2341      77657200 
 2342              	.LASF94:
 2343 01ec 72656761 		.ascii	"regarm_t\000"
 2343      726D5F74 
 2343      00
 2344              	.LASF68:
 2345 01f5 76745F70 		.ascii	"vt_prev\000"
 2345      72657600 
 2346              	.LASF140:
 2347 01fd 6F705F6D 		.ascii	"op_mode\000"
 2347      6F646500 
 2348              	.LASF115:
 2349 0205 6D757465 		.ascii	"mutex_t\000"
 2349      785F7400 
 2350              	.LASF83:
 2351 020d 69646C65 		.ascii	"idle_thread_wa\000"
 2351      5F746872 
 2351      6561645F 
 2351      776100
 2352              	.LASF28:
ARM GAS  /var/folders/m4/4md61f0s1_g0rzfghffqnxvr0000gn/T//ccuZYhcl.s 			page 44


 2353 021c 636E745F 		.ascii	"cnt_t\000"
 2353      7400
 2354              	.LASF0:
 2355 0222 756E7369 		.ascii	"unsigned int\000"
 2355      676E6564 
 2355      20696E74 
 2355      00
 2356              	.LASF67:
 2357 022f 76745F6E 		.ascii	"vt_next\000"
 2357      65787400 
 2358              	.LASF155:
 2359 0237 74786275 		.ascii	"txbuf\000"
 2359      6600
 2360              	.LASF42:
 2361 023d 705F7469 		.ascii	"p_time\000"
 2361      6D6500
 2362              	.LASF104:
 2363 0244 77747365 		.ascii	"wtsemp\000"
 2363      6D7000
 2364              	.LASF147:
 2365 024b 6572726F 		.ascii	"errors\000"
 2365      727300
 2366              	.LASF69:
 2367 0252 76745F64 		.ascii	"vt_delta\000"
 2367      656C7461 
 2367      00
 2368              	.LASF44:
 2369 025b 705F6D73 		.ascii	"p_msgqueue\000"
 2369      67717565 
 2369      756500
 2370              	.LASF118:
 2371 0266 69736869 		.ascii	"ishift\000"
 2371      667400
 2372              	.LASF109:
 2373 026d 735F636E 		.ascii	"s_cnt\000"
 2373      7400
 2374              	.LASF133:
 2375 0273 4F504D4F 		.ascii	"OPMODE_SMBUS_DEVICE\000"
 2375      44455F53 
 2375      4D425553 
 2375      5F444556 
 2375      49434500 
 2376              	.LASF7:
 2377 0287 73686F72 		.ascii	"short unsigned int\000"
 2377      7420756E 
 2377      7369676E 
 2377      65642069 
 2377      6E7400
 2378              	.LASF144:
 2379 029a 49324344 		.ascii	"I2CDriver\000"
 2379      72697665 
 2379      7200
 2380              	.LASF52:
 2381 02a4 63685F74 		.ascii	"ch_thread\000"
 2381      68726561 
 2381      6400
 2382              	.LASF82:
ARM GAS  /var/folders/m4/4md61f0s1_g0rzfghffqnxvr0000gn/T//ccuZYhcl.s 			page 45


 2383 02ae 6D61696E 		.ascii	"mainthread\000"
 2383      74687265 
 2383      616400
 2384              	.LASF26:
 2385 02b9 6D73675F 		.ascii	"msg_t\000"
 2385      7400
 2386              	.LASF78:
 2387 02bf 63685F73 		.ascii	"ch_system_t\000"
 2387      79737465 
 2387      6D5F7400 
 2388              	.LASF88:
 2389 02cb 444D415F 		.ascii	"DMA_Stream_TypeDef\000"
 2389      53747265 
 2389      616D5F54 
 2389      79706544 
 2389      656600
 2390              	.LASF21:
 2391 02de 746D6F64 		.ascii	"tmode_t\000"
 2391      655F7400 
 2392              	.LASF16:
 2393 02e6 75696E74 		.ascii	"uint16_t\000"
 2393      31365F74 
 2393      00
 2394              	.LASF136:
 2395 02ef 5354445F 		.ascii	"STD_DUTY_CYCLE\000"
 2395      44555459 
 2395      5F435943 
 2395      4C4500
 2396              	.LASF57:
 2397 02fe 63685F72 		.ascii	"ch_ready_list\000"
 2397      65616479 
 2397      5F6C6973 
 2397      7400
 2398              	.LASF27:
 2399 030c 6576656E 		.ascii	"eventmask_t\000"
 2399      746D6173 
 2399      6B5F7400 
 2400              	.LASF5:
 2401 0318 73686F72 		.ascii	"short int\000"
 2401      7420696E 
 2401      7400
 2402              	.LASF8:
 2403 0322 5F5F696E 		.ascii	"__int32_t\000"
 2403      7433325F 
 2403      7400
 2404              	.LASF95:
 2405 032c 73746B61 		.ascii	"stkalign_t\000"
 2405      6C69676E 
 2405      5F7400
 2406              	.LASF51:
 2407 0337 74687265 		.ascii	"threads_list_t\000"
 2407      6164735F 
 2407      6C697374 
 2407      5F7400
 2408              	.LASF43:
 2409 0346 705F7761 		.ascii	"p_waiting\000"
 2409      6974696E 
ARM GAS  /var/folders/m4/4md61f0s1_g0rzfghffqnxvr0000gn/T//ccuZYhcl.s 			page 46


 2409      6700
 2410              	.LASF124:
 2411 0350 4932435F 		.ascii	"I2C_STOP\000"
 2411      53544F50 
 2411      00
 2412              	.LASF84:
 2413 0359 73697A65 		.ascii	"sizetype\000"
 2413      74797065 
 2413      00
 2414              	.LASF50:
 2415 0362 74687265 		.ascii	"thread_reference_t\000"
 2415      61645F72 
 2415      65666572 
 2415      656E6365 
 2415      5F7400
 2416              	.LASF73:
 2417 0375 63685F76 		.ascii	"ch_virtual_timers_list\000"
 2417      69727475 
 2417      616C5F74 
 2417      696D6572 
 2417      735F6C69 
 2418              	.LASF103:
 2419 038c 77747472 		.ascii	"wttrp\000"
 2419      7000
 2420              	.LASF142:
 2421 0392 64757479 		.ascii	"duty_cycle\000"
 2421      5F637963 
 2421      6C6500
 2422              	.LASF36:
 2423 039d 705F6F6C 		.ascii	"p_older\000"
 2423      64657200 
 2424              	.LASF143:
 2425 03a5 49324343 		.ascii	"I2CConfig\000"
 2425      6F6E6669 
 2425      6700
 2426              	.LASF60:
 2427 03af 725F6374 		.ascii	"r_ctx\000"
 2427      7800
 2428              	.LASF152:
 2429 03b5 7478646D 		.ascii	"txdmamode\000"
 2429      616D6F64 
 2429      6500
 2430              	.LASF99:
 2431 03bf 746D5F63 		.ascii	"tm_calibration_t\000"
 2431      616C6962 
 2431      72617469 
 2431      6F6E5F74 
 2431      00
 2432              	.LASF132:
 2433 03d0 4F504D4F 		.ascii	"OPMODE_I2C\000"
 2433      44455F49 
 2433      324300
 2434              	.LASF63:
 2435 03db 725F6375 		.ascii	"r_current\000"
 2435      7272656E 
 2435      7400
 2436              	.LASF62:
ARM GAS  /var/folders/m4/4md61f0s1_g0rzfghffqnxvr0000gn/T//ccuZYhcl.s 			page 47


 2437 03e5 725F6F6C 		.ascii	"r_older\000"
 2437      64657200 
 2438              	.LASF158:
 2439 03ed 626E6F30 		.ascii	"bno055_init\000"
 2439      35355F69 
 2439      6E697400 
 2440              	.LASF164:
 2441 03f9 626E6F30 		.ascii	"bno055.c\000"
 2441      35352E63 
 2441      00
 2442              	.LASF13:
 2443 0402 5F5F7569 		.ascii	"__uint64_t\000"
 2443      6E743634 
 2443      5F7400
 2444              	.LASF117:
 2445 040d 69666372 		.ascii	"ifcr\000"
 2445      00
 2446              	.LASF23:
 2447 0412 74726566 		.ascii	"trefs_t\000"
 2447      735F7400 
 2448              	.LASF129:
 2449 041a 69326373 		.ascii	"i2cstate_t\000"
 2449      74617465 
 2449      5F7400
 2450              	.LASF138:
 2451 0425 46415354 		.ascii	"FAST_DUTY_CYCLE_16_9\000"
 2451      5F445554 
 2451      595F4359 
 2451      434C455F 
 2451      31365F39 
 2452              	.LASF65:
 2453 043a 76697274 		.ascii	"virtual_timer_t\000"
 2453      75616C5F 
 2453      74696D65 
 2453      725F7400 
 2454              	.LASF32:
 2455 044a 705F7072 		.ascii	"p_prev\000"
 2455      657600
 2456              	.LASF121:
 2457 0451 73746D33 		.ascii	"stm32_dma_stream_t\000"
 2457      325F646D 
 2457      615F7374 
 2457      7265616D 
 2457      5F7400
 2458              	.LASF161:
 2459 0464 69326341 		.ascii	"i2cAcquireBus\000"
 2459      63717569 
 2459      72654275 
 2459      7300
 2460              	.LASF25:
 2461 0472 74707269 		.ascii	"tprio_t\000"
 2461      6F5F7400 
 2462              	.LASF126:
 2463 047a 4932435F 		.ascii	"I2C_ACTIVE_TX\000"
 2463      41435449 
 2463      56455F54 
 2463      5800
ARM GAS  /var/folders/m4/4md61f0s1_g0rzfghffqnxvr0000gn/T//ccuZYhcl.s 			page 48


 2464              	.LASF131:
 2465 0488 69326366 		.ascii	"i2cflags_t\000"
 2465      6C616773 
 2465      5F7400
 2466              	.LASF148:
 2467 0493 6D757465 		.ascii	"mutex\000"
 2467      7800
 2468              	.LASF76:
 2469 0499 63685F73 		.ascii	"ch_system_debug\000"
 2469      79737465 
 2469      6D5F6465 
 2469      62756700 
 2470              	.LASF122:
 2471 04a9 5F426F6F 		.ascii	"_Bool\000"
 2471      6C00
 2472              	.LASF17:
 2473 04af 696E7433 		.ascii	"int32_t\000"
 2473      325F7400 
 2474              	.LASF4:
 2475 04b7 756E7369 		.ascii	"unsigned char\000"
 2475      676E6564 
 2475      20636861 
 2475      7200
 2476              	.LASF47:
 2477 04c5 705F6D74 		.ascii	"p_mtxlist\000"
 2477      786C6973 
 2477      7400
 2478              	.LASF123:
 2479 04cf 4932435F 		.ascii	"I2C_UNINIT\000"
 2479      554E494E 
 2479      495400
 2480              	.LASF38:
 2481 04da 705F7374 		.ascii	"p_state\000"
 2481      61746500 
 2482              	.LASF41:
 2483 04e2 705F7072 		.ascii	"p_preempt\000"
 2483      65656D70 
 2483      7400
 2484              	.LASF59:
 2485 04ec 725F7072 		.ascii	"r_prio\000"
 2485      696F00
 2486              	.LASF106:
 2487 04f3 65776D61 		.ascii	"ewmask\000"
 2487      736B00
 2488              	.LASF31:
 2489 04fa 705F6E65 		.ascii	"p_next\000"
 2489      787400
 2490              	.LASF39:
 2491 0501 705F666C 		.ascii	"p_flags\000"
 2491      61677300 
 2492              	.LASF137:
 2493 0509 46415354 		.ascii	"FAST_DUTY_CYCLE_2\000"
 2493      5F445554 
 2493      595F4359 
 2493      434C455F 
 2493      3200
 2494              	.LASF128:
ARM GAS  /var/folders/m4/4md61f0s1_g0rzfghffqnxvr0000gn/T//ccuZYhcl.s 			page 49


 2495 051b 4932435F 		.ascii	"I2C_LOCKED\000"
 2495      4C4F434B 
 2495      454400
 2496              	.LASF107:
 2497 0526 63685F73 		.ascii	"ch_semaphore\000"
 2497      656D6170 
 2497      686F7265 
 2497      00
 2498              	.LASF46:
 2499 0533 705F6570 		.ascii	"p_epending\000"
 2499      656E6469 
 2499      6E6700
 2500              	.LASF168:
 2501 053e 63685468 		.ascii	"chThdSleep\000"
 2501      64536C65 
 2501      657000
 2502              	.LASF18:
 2503 0549 75696E74 		.ascii	"uint32_t\000"
 2503      33325F74 
 2503      00
 2504              	.LASF105:
 2505 0552 77746D74 		.ascii	"wtmtxp\000"
 2505      787000
 2506              	.LASF58:
 2507 0559 725F7175 		.ascii	"r_queue\000"
 2507      65756500 
 2508              	.LASF53:
 2509 0561 63685F74 		.ascii	"ch_threads_list\000"
 2509      68726561 
 2509      64735F6C 
 2509      69737400 
 2510              	.LASF160:
 2511 0571 49324344 		.ascii	"I2CD1\000"
 2511      3100
 2512              	.LASF127:
 2513 0577 4932435F 		.ascii	"I2C_ACTIVE_RX\000"
 2513      41435449 
 2513      56455F52 
 2513      5800
 2514              	.LASF11:
 2515 0585 6C6F6E67 		.ascii	"long unsigned int\000"
 2515      20756E73 
 2515      69676E65 
 2515      6420696E 
 2515      7400
 2516              	.LASF114:
 2517 0597 63686172 		.ascii	"char\000"
 2517      00
 2518              	.LASF146:
 2519 059c 636F6E66 		.ascii	"config\000"
 2519      696700
 2520              	.LASF6:
 2521 05a3 5F5F7569 		.ascii	"__uint16_t\000"
 2521      6E743136 
 2521      5F7400
 2522              	.LASF30:
 2523 05ae 74687265 		.ascii	"thread_t\000"
ARM GAS  /var/folders/m4/4md61f0s1_g0rzfghffqnxvr0000gn/T//ccuZYhcl.s 			page 50


 2523      61645F74 
 2523      00
 2524              	.LASF113:
 2525 05b7 6D5F6E65 		.ascii	"m_next\000"
 2525      787400
 2526              	.LASF29:
 2527 05be 73797374 		.ascii	"systime_t\000"
 2527      696D655F 
 2527      7400
 2528              	.LASF48:
 2529 05c8 705F7265 		.ascii	"p_realprio\000"
 2529      616C7072 
 2529      696F00
 2530              	.LASF64:
 2531 05d3 76746675 		.ascii	"vtfunc_t\000"
 2531      6E635F74 
 2531      00
 2532              	.LASF10:
 2533 05dc 5F5F7569 		.ascii	"__uint32_t\000"
 2533      6E743332 
 2533      5F7400
 2534              	.LASF149:
 2535 05e7 74687265 		.ascii	"thread\000"
 2535      616400
 2536              	.LASF163:
 2537 05ee 474E5520 		.ascii	"GNU C 4.9.3 20150529 (release) [ARM/embedded-4_9-br"
 2537      4320342E 
 2537      392E3320 
 2537      32303135 
 2537      30353239 
 2538 0621 616E6368 		.ascii	"anch revision 224288] -mcpu=cortex-m4 -mfloat-abi=h"
 2538      20726576 
 2538      6973696F 
 2538      6E203232 
 2538      34323838 
 2539 0654 61726420 		.ascii	"ard -mfpu=fpv4-sp-d16 -mno-thumb-interwork -mthumb "
 2539      2D6D6670 
 2539      753D6670 
 2539      76342D73 
 2539      702D6431 
 2540 0687 2D676764 		.ascii	"-ggdb -O2 -std=gnu99 -fomit-frame-pointer -falign-f"
 2540      62202D4F 
 2540      32202D73 
 2540      74643D67 
 2540      6E753939 
 2541 06ba 756E6374 		.ascii	"unctions=16 -ffunction-sections -fdata-sections -fn"
 2541      696F6E73 
 2541      3D313620 
 2541      2D666675 
 2541      6E637469 
 2542 06ed 6F2D636F 		.ascii	"o-common -fsingle-precision-constant\000"
 2542      6D6D6F6E 
 2542      202D6673 
 2542      696E676C 
 2542      652D7072 
 2543              	.LASF77:
 2544 0712 70616E69 		.ascii	"panic_msg\000"
ARM GAS  /var/folders/m4/4md61f0s1_g0rzfghffqnxvr0000gn/T//ccuZYhcl.s 			page 51


 2544      635F6D73 
 2544      6700
 2545              	.LASF125:
 2546 071c 4932435F 		.ascii	"I2C_READY\000"
 2546      52454144 
 2546      5900
 2547              	.LASF98:
 2548 0726 6F666673 		.ascii	"offset\000"
 2548      657400
 2549              	.LASF157:
 2550 072d 626E6F30 		.ascii	"bno055_read_addr\000"
 2550      35355F72 
 2550      6561645F 
 2550      61646472 
 2550      00
 2551              	.LASF96:
 2552 073e 636F6E74 		.ascii	"context\000"
 2552      65787400 
 2553              	.LASF66:
 2554 0746 63685F76 		.ascii	"ch_virtual_timer\000"
 2554      69727475 
 2554      616C5F74 
 2554      696D6572 
 2554      00
 2555              	.LASF20:
 2556 0757 7274636E 		.ascii	"rtcnt_t\000"
 2556      745F7400 
 2557              	.LASF87:
 2558 075f 4D314152 		.ascii	"M1AR\000"
 2558      00
 2559              	.LASF119:
 2560 0764 73656C66 		.ascii	"selfindex\000"
 2560      696E6465 
 2560      7800
 2561              	.LASF71:
 2562 076e 76745F70 		.ascii	"vt_par\000"
 2562      617200
 2563              	.LASF54:
 2564 0775 74687265 		.ascii	"threads_queue_t\000"
 2564      6164735F 
 2564      71756575 
 2564      655F7400 
 2565              	.LASF110:
 2566 0785 63685F6D 		.ascii	"ch_mutex\000"
 2566      75746578 
 2566      00
 2567              	.LASF40:
 2568 078e 705F7265 		.ascii	"p_refs\000"
 2568      667300
 2569              	.LASF80:
 2570 0795 726C6973 		.ascii	"rlist\000"
 2570      7400
 2571              	.LASF15:
 2572 079b 75696E74 		.ascii	"uint8_t\000"
 2572      385F7400 
 2573              	.LASF89:
 2574 07a3 4F415231 		.ascii	"OAR1\000"
ARM GAS  /var/folders/m4/4md61f0s1_g0rzfghffqnxvr0000gn/T//ccuZYhcl.s 			page 52


 2574      00
 2575              	.LASF90:
 2576 07a8 4F415232 		.ascii	"OAR2\000"
 2576      00
 2577              	.LASF102:
 2578 07ad 77746F62 		.ascii	"wtobjp\000"
 2578      6A7000
 2579              	.LASF37:
 2580 07b4 705F6E61 		.ascii	"p_name\000"
 2580      6D6500
 2581              	.LASF74:
 2582 07bb 76745F73 		.ascii	"vt_systime\000"
 2582      79737469 
 2582      6D6500
 2583              	.LASF45:
 2584 07c6 705F6D73 		.ascii	"p_msg\000"
 2584      6700
 2585              	.LASF93:
 2586 07cc 4932435F 		.ascii	"I2C_TypeDef\000"
 2586      54797065 
 2586      44656600 
 2587              	.LASF135:
 2588 07d8 6932636F 		.ascii	"i2copmode_t\000"
 2588      706D6F64 
 2588      655F7400 
 2589              	.LASF112:
 2590 07e4 6D5F6F77 		.ascii	"m_owner\000"
 2590      6E657200 
 2591              	.LASF34:
 2592 07ec 705F6374 		.ascii	"p_ctx\000"
 2592      7800
 2593              	.LASF70:
 2594 07f2 76745F66 		.ascii	"vt_func\000"
 2594      756E6300 
 2595              		.ident	"GCC: (GNU Tools for ARM Embedded Processors) 4.9.3 20150529 (release) [ARM/embedded-4_9-br
ARM GAS  /var/folders/m4/4md61f0s1_g0rzfghffqnxvr0000gn/T//ccuZYhcl.s 			page 53


DEFINED SYMBOLS
                            *ABS*:0000000000000000 bno055.c
/var/folders/m4/4md61f0s1_g0rzfghffqnxvr0000gn/T//ccuZYhcl.s:21     .text.bno055_read_addr:0000000000000000 $t
/var/folders/m4/4md61f0s1_g0rzfghffqnxvr0000gn/T//ccuZYhcl.s:27     .text.bno055_read_addr:0000000000000000 bno055_read_addr
/var/folders/m4/4md61f0s1_g0rzfghffqnxvr0000gn/T//ccuZYhcl.s:79     .text.bno055_read_addr:0000000000000034 $d
/var/folders/m4/4md61f0s1_g0rzfghffqnxvr0000gn/T//ccuZYhcl.s:84     .text.bno055_init:0000000000000000 $t
/var/folders/m4/4md61f0s1_g0rzfghffqnxvr0000gn/T//ccuZYhcl.s:90     .text.bno055_init:0000000000000000 bno055_init
                     .debug_frame:0000000000000010 $d

UNDEFINED SYMBOLS
i2cAcquireBus
i2cMasterTransmitTimeout
i2cReleaseBus
I2CD1
chThdSleep
