ARM GAS  /var/folders/m4/4md61f0s1_g0rzfghffqnxvr0000gn/T//ccYVkMSH.s 			page 1


   1              		.syntax unified
   2              		.cpu cortex-m4
   3              		.eabi_attribute 27, 1
   4              		.eabi_attribute 28, 1
   5              		.fpu fpv4-sp-d16
   6              		.eabi_attribute 20, 1
   7              		.eabi_attribute 21, 1
   8              		.eabi_attribute 23, 3
   9              		.eabi_attribute 24, 1
  10              		.eabi_attribute 25, 1
  11              		.eabi_attribute 26, 1
  12              		.eabi_attribute 30, 2
  13              		.eabi_attribute 34, 1
  14              		.eabi_attribute 18, 4
  15              		.thumb
  16              		.file	"bno055.c"
  17              		.text
  18              	.Ltext0:
  19              		.cfi_sections	.debug_frame
  20              		.section	.text.bno055_read_addr,"ax",%progbits
  21              		.align	2
  22              		.p2align 4,,15
  23              		.global	bno055_read_addr
  24              		.thumb
  25              		.thumb_func
  26              		.type	bno055_read_addr, %function
  27              	bno055_read_addr:
  28              	.LFB272:
  29              		.file 1 "bno055.c"
  30              		.loc 1 99 0
  31              		.cfi_startproc
  32              		@ args = 0, pretend = 0, frame = 8
  33              		@ frame_needed = 0, uses_anonymous_args = 0
  34              	.LVL0:
  35 0000 70B5     		push	{r4, r5, r6, lr}
  36              		.cfi_def_cfa_offset 16
  37              		.cfi_offset 4, -16
  38              		.cfi_offset 5, -12
  39              		.cfi_offset 6, -8
  40              		.cfi_offset 14, -4
  41 0002 86B0     		sub	sp, sp, #24
  42              		.cfi_def_cfa_offset 40
  43              		.loc 1 104 0
  44 0004 0B4C     		ldr	r4, .L3
  45              		.loc 1 103 0
  46 0006 06AD     		add	r5, sp, #24
  47              		.loc 1 105 0
  48 0008 05AE     		add	r6, sp, #20
  49              		.loc 1 103 0
  50 000a 05F8080D 		strb	r0, [r5, #-8]!
  51              		.loc 1 104 0
  52 000e 2046     		mov	r0, r4
  53              	.LVL1:
  54 0010 FFF7FEFF 		bl	i2cAcquireBus
  55              	.LVL2:
  56              		.loc 1 105 0
  57 0014 0123     		movs	r3, #1
ARM GAS  /var/folders/m4/4md61f0s1_g0rzfghffqnxvr0000gn/T//ccYVkMSH.s 			page 2


  58 0016 2821     		movs	r1, #40
  59 0018 2A46     		mov	r2, r5
  60 001a 0193     		str	r3, [sp, #4]
  61 001c 0291     		str	r1, [sp, #8]
  62 001e 2046     		mov	r0, r4
  63 0020 0096     		str	r6, [sp]
  64 0022 FFF7FEFF 		bl	i2cMasterTransmitTimeout
  65              	.LVL3:
  66              		.loc 1 106 0
  67 0026 2046     		mov	r0, r4
  68 0028 FFF7FEFF 		bl	i2cReleaseBus
  69              	.LVL4:
  70              		.loc 1 108 0
  71 002c 9DF81400 		ldrb	r0, [sp, #20]	@ zero_extendqisi2
  72 0030 06B0     		add	sp, sp, #24
  73              		.cfi_def_cfa_offset 16
  74              		@ sp needed
  75 0032 70BD     		pop	{r4, r5, r6, pc}
  76              	.L4:
  77              		.align	2
  78              	.L3:
  79 0034 00000000 		.word	I2CD1
  80              		.cfi_endproc
  81              	.LFE272:
  82              		.size	bno055_read_addr, .-bno055_read_addr
  83              		.section	.text.bno055_get_status,"ax",%progbits
  84              		.align	2
  85              		.p2align 4,,15
  86              		.global	bno055_get_status
  87              		.thumb
  88              		.thumb_func
  89              		.type	bno055_get_status, %function
  90              	bno055_get_status:
  91              	.LFB270:
  92              		.loc 1 89 0
  93              		.cfi_startproc
  94              		@ args = 0, pretend = 0, frame = 0
  95              		@ frame_needed = 0, uses_anonymous_args = 0
  96              		@ link register save eliminated.
  97              		.loc 1 90 0
  98 0000 3920     		movs	r0, #57
  99 0002 FFF7FEBF 		b	bno055_read_addr
 100              	.LVL5:
 101              		.cfi_endproc
 102              	.LFE270:
 103              		.size	bno055_get_status, .-bno055_get_status
 104 0006 00BF     		.section	.text.bno055_get_error,"ax",%progbits
 105              		.align	2
 106              		.p2align 4,,15
 107              		.global	bno055_get_error
 108              		.thumb
 109              		.thumb_func
 110              		.type	bno055_get_error, %function
 111              	bno055_get_error:
 112              	.LFB271:
 113              		.loc 1 94 0
 114              		.cfi_startproc
ARM GAS  /var/folders/m4/4md61f0s1_g0rzfghffqnxvr0000gn/T//ccYVkMSH.s 			page 3


 115              		@ args = 0, pretend = 0, frame = 0
 116              		@ frame_needed = 0, uses_anonymous_args = 0
 117              		@ link register save eliminated.
 118              		.loc 1 95 0
 119 0000 3A20     		movs	r0, #58
 120 0002 FFF7FEBF 		b	bno055_read_addr
 121              	.LVL6:
 122              		.cfi_endproc
 123              	.LFE271:
 124              		.size	bno055_get_error, .-bno055_get_error
 125 0006 00BF     		.section	.text.bno055_read_len,"ax",%progbits
 126              		.align	2
 127              		.p2align 4,,15
 128              		.global	bno055_read_len
 129              		.thumb
 130              		.thumb_func
 131              		.type	bno055_read_len, %function
 132              	bno055_read_len:
 133              	.LFB273:
 134              		.loc 1 111 0
 135              		.cfi_startproc
 136              		@ args = 0, pretend = 0, frame = 8
 137              		@ frame_needed = 0, uses_anonymous_args = 0
 138              	.LVL7:
 139 0000 F0B5     		push	{r4, r5, r6, r7, lr}
 140              		.cfi_def_cfa_offset 20
 141              		.cfi_offset 4, -20
 142              		.cfi_offset 5, -16
 143              		.cfi_offset 6, -12
 144              		.cfi_offset 7, -8
 145              		.cfi_offset 14, -4
 146 0002 87B0     		sub	sp, sp, #28
 147              		.cfi_def_cfa_offset 48
 148              		.loc 1 115 0
 149 0004 0B4C     		ldr	r4, .L9
 150              		.loc 1 114 0
 151 0006 06AD     		add	r5, sp, #24
 152              		.loc 1 111 0
 153 0008 0E46     		mov	r6, r1
 154              		.loc 1 114 0
 155 000a 05F8040D 		strb	r0, [r5, #-4]!
 156              		.loc 1 115 0
 157 000e 2046     		mov	r0, r4
 158              	.LVL8:
 159              		.loc 1 111 0
 160 0010 1746     		mov	r7, r2
 161              		.loc 1 115 0
 162 0012 FFF7FEFF 		bl	i2cAcquireBus
 163              	.LVL9:
 164              		.loc 1 116 0
 165 0016 2821     		movs	r1, #40
 166 0018 2A46     		mov	r2, r5
 167 001a 0291     		str	r1, [sp, #8]
 168 001c 0123     		movs	r3, #1
 169 001e 0097     		str	r7, [sp]
 170 0020 0196     		str	r6, [sp, #4]
 171 0022 2046     		mov	r0, r4
ARM GAS  /var/folders/m4/4md61f0s1_g0rzfghffqnxvr0000gn/T//ccYVkMSH.s 			page 4


 172 0024 FFF7FEFF 		bl	i2cMasterTransmitTimeout
 173              	.LVL10:
 174              		.loc 1 117 0
 175 0028 2046     		mov	r0, r4
 176 002a FFF7FEFF 		bl	i2cReleaseBus
 177              	.LVL11:
 178              		.loc 1 118 0
 179 002e 07B0     		add	sp, sp, #28
 180              		.cfi_def_cfa_offset 20
 181              		@ sp needed
 182 0030 F0BD     		pop	{r4, r5, r6, r7, pc}
 183              	.LVL12:
 184              	.L10:
 185 0032 00BF     		.align	2
 186              	.L9:
 187 0034 00000000 		.word	I2CD1
 188              		.cfi_endproc
 189              	.LFE273:
 190              		.size	bno055_read_len, .-bno055_read_len
 191              		.global	__aeabi_i2d
 192              		.global	__aeabi_dmul
 193              		.global	__aeabi_ddiv
 194              		.section	.text.bno055_get_vector,"ax",%progbits
 195              		.align	2
 196              		.p2align 4,,15
 197              		.global	bno055_get_vector
 198              		.thumb
 199              		.thumb_func
 200              		.type	bno055_get_vector, %function
 201              	bno055_get_vector:
 202              	.LFB269:
 203              		.loc 1 47 0
 204              		.cfi_startproc
 205              		@ args = 0, pretend = 0, frame = 56
 206              		@ frame_needed = 0, uses_anonymous_args = 0
 207              	.LVL13:
 208 0000 F0B5     		push	{r4, r5, r6, r7, lr}
 209              		.cfi_def_cfa_offset 20
 210              		.cfi_offset 4, -20
 211              		.cfi_offset 5, -16
 212              		.cfi_offset 6, -12
 213              		.cfi_offset 7, -8
 214              		.cfi_offset 14, -4
 215 0002 2DED068B 		fstmfdd	sp!, {d8, d9, d10}
 216              		.cfi_def_cfa_offset 44
 217              		.cfi_offset 80, -44
 218              		.cfi_offset 81, -40
 219              		.cfi_offset 82, -36
 220              		.cfi_offset 83, -32
 221              		.cfi_offset 84, -28
 222              		.cfi_offset 85, -24
 223 0006 8FB0     		sub	sp, sp, #60
 224              		.cfi_def_cfa_offset 104
 225              		.loc 1 50 0
 226 0008 0023     		movs	r3, #0
 227              		.loc 1 51 0
 228 000a 06AA     		add	r2, sp, #24
ARM GAS  /var/folders/m4/4md61f0s1_g0rzfghffqnxvr0000gn/T//ccYVkMSH.s 			page 5


 229 000c 0621     		movs	r1, #6
 230              		.loc 1 47 0
 231 000e 0446     		mov	r4, r0
 232              		.loc 1 50 0
 233 0010 ADF81C30 		strh	r3, [sp, #28]	@ movhi
 234 0014 0693     		str	r3, [sp, #24]
 235              		.loc 1 51 0
 236 0016 FFF7FEFF 		bl	bno055_read_len
 237              	.LVL14:
 238              		.loc 1 52 0
 239 001a 9DF81970 		ldrb	r7, [sp, #25]	@ zero_extendqisi2
 240 001e 9DF81800 		ldrb	r0, [sp, #24]	@ zero_extendqisi2
 241              		.loc 1 53 0
 242 0022 9DF81B50 		ldrb	r5, [sp, #27]	@ zero_extendqisi2
 243 0026 9DF81A10 		ldrb	r1, [sp, #26]	@ zero_extendqisi2
 244              		.loc 1 54 0
 245 002a 9DF81D60 		ldrb	r6, [sp, #29]	@ zero_extendqisi2
 246 002e 9DF81C20 		ldrb	r2, [sp, #28]	@ zero_extendqisi2
 247              		.loc 1 55 0
 248 0032 A4F10803 		sub	r3, r4, #8
 249              		.loc 1 52 0
 250 0036 40EA0720 		orr	r0, r0, r7, lsl #8
 251              	.LVL15:
 252              		.loc 1 53 0
 253 003a 41EA0525 		orr	r5, r1, r5, lsl #8
 254              	.LVL16:
 255              		.loc 1 54 0
 256 003e 42EA0624 		orr	r4, r2, r6, lsl #8
 257              	.LVL17:
 258              		.loc 1 55 0
 259 0042 262B     		cmp	r3, #38
 260 0044 30D8     		bhi	.L12
 261 0046 DFE803F0 		tbb	[pc, r3]
 262              	.L14:
 263 004a 14       		.byte	(.L13-.L14)/2
 264 004b 2F       		.byte	(.L12-.L14)/2
 265 004c 2F       		.byte	(.L12-.L14)/2
 266 004d 2F       		.byte	(.L12-.L14)/2
 267 004e 2F       		.byte	(.L12-.L14)/2
 268 004f 2F       		.byte	(.L12-.L14)/2
 269 0050 77       		.byte	(.L15-.L14)/2
 270 0051 2F       		.byte	(.L12-.L14)/2
 271 0052 2F       		.byte	(.L12-.L14)/2
 272 0053 2F       		.byte	(.L12-.L14)/2
 273 0054 2F       		.byte	(.L12-.L14)/2
 274 0055 2F       		.byte	(.L12-.L14)/2
 275 0056 5B       		.byte	(.L16-.L14)/2
 276 0057 2F       		.byte	(.L12-.L14)/2
 277 0058 2F       		.byte	(.L12-.L14)/2
 278 0059 2F       		.byte	(.L12-.L14)/2
 279 005a 2F       		.byte	(.L12-.L14)/2
 280 005b 2F       		.byte	(.L12-.L14)/2
 281 005c 3F       		.byte	(.L17-.L14)/2
 282 005d 2F       		.byte	(.L12-.L14)/2
 283 005e 2F       		.byte	(.L12-.L14)/2
 284 005f 2F       		.byte	(.L12-.L14)/2
 285 0060 2F       		.byte	(.L12-.L14)/2
ARM GAS  /var/folders/m4/4md61f0s1_g0rzfghffqnxvr0000gn/T//ccYVkMSH.s 			page 6


 286 0061 2F       		.byte	(.L12-.L14)/2
 287 0062 2F       		.byte	(.L12-.L14)/2
 288 0063 2F       		.byte	(.L12-.L14)/2
 289 0064 2F       		.byte	(.L12-.L14)/2
 290 0065 2F       		.byte	(.L12-.L14)/2
 291 0066 2F       		.byte	(.L12-.L14)/2
 292 0067 2F       		.byte	(.L12-.L14)/2
 293 0068 2F       		.byte	(.L12-.L14)/2
 294 0069 2F       		.byte	(.L12-.L14)/2
 295 006a 14       		.byte	(.L13-.L14)/2
 296 006b 2F       		.byte	(.L12-.L14)/2
 297 006c 2F       		.byte	(.L12-.L14)/2
 298 006d 2F       		.byte	(.L12-.L14)/2
 299 006e 2F       		.byte	(.L12-.L14)/2
 300 006f 2F       		.byte	(.L12-.L14)/2
 301 0070 14       		.byte	(.L13-.L14)/2
 302 0071 00       		.p2align 1
 303              	.L13:
 304              		.loc 1 79 0
 305 0072 00B2     		sxth	r0, r0
 306 0074 FFF7FEFF 		bl	__aeabi_i2d
 307              	.LVL18:
 308 0078 0022     		movs	r2, #0
 309 007a 3D4B     		ldr	r3, .L20
 310 007c FFF7FEFF 		bl	__aeabi_ddiv
 311              	.LVL19:
 312 0080 41EC1A0B 		fmdrr	d10, r0, r1
 313              	.LVL20:
 314              		.loc 1 80 0
 315 0084 28B2     		sxth	r0, r5
 316              	.LVL21:
 317 0086 FFF7FEFF 		bl	__aeabi_i2d
 318              	.LVL22:
 319 008a 0022     		movs	r2, #0
 320 008c 384B     		ldr	r3, .L20
 321 008e FFF7FEFF 		bl	__aeabi_ddiv
 322              	.LVL23:
 323 0092 41EC190B 		fmdrr	d9, r0, r1
 324              	.LVL24:
 325              		.loc 1 81 0
 326 0096 20B2     		sxth	r0, r4
 327              	.LVL25:
 328 0098 FFF7FEFF 		bl	__aeabi_i2d
 329              	.LVL26:
 330 009c 0022     		movs	r2, #0
 331 009e 344B     		ldr	r3, .L20
 332 00a0 FFF7FEFF 		bl	__aeabi_ddiv
 333              	.LVL27:
 334 00a4 41EC180B 		fmdrr	d8, r0, r1
 335              	.LVL28:
 336              	.L12:
 337              		.loc 1 86 0
 338 00a8 B0EE4A0A 		fcpys	s0, s20
 339 00ac F0EE6A0A 		fcpys	s1, s21
 340 00b0 B0EE491A 		fcpys	s2, s18
 341 00b4 F0EE691A 		fcpys	s3, s19
 342 00b8 B0EE482A 		fcpys	s4, s16
ARM GAS  /var/folders/m4/4md61f0s1_g0rzfghffqnxvr0000gn/T//ccYVkMSH.s 			page 7


 343 00bc F0EE682A 		fcpys	s5, s17
 344 00c0 0FB0     		add	sp, sp, #60
 345              		.cfi_remember_state
 346              		.cfi_def_cfa_offset 44
 347              		@ sp needed
 348 00c2 BDEC068B 		fldmfdd	sp!, {d8-d10}
 349              		.cfi_restore 84
 350              		.cfi_restore 85
 351              		.cfi_restore 82
 352              		.cfi_restore 83
 353              		.cfi_restore 80
 354              		.cfi_restore 81
 355              		.cfi_def_cfa_offset 20
 356              	.LVL29:
 357 00c6 F0BD     		pop	{r4, r5, r6, r7, pc}
 358              	.LVL30:
 359              	.L17:
 360              		.cfi_restore_state
 361              		.loc 1 71 0
 362 00c8 00B2     		sxth	r0, r0
 363 00ca FFF7FEFF 		bl	__aeabi_i2d
 364              	.LVL31:
 365 00ce 0022     		movs	r2, #0
 366 00d0 284B     		ldr	r3, .L20+4
 367 00d2 FFF7FEFF 		bl	__aeabi_dmul
 368              	.LVL32:
 369 00d6 41EC180B 		fmdrr	d8, r0, r1
 370              	.LVL33:
 371              		.loc 1 72 0
 372 00da 28B2     		sxth	r0, r5
 373              	.LVL34:
 374 00dc FFF7FEFF 		bl	__aeabi_i2d
 375              	.LVL35:
 376 00e0 0022     		movs	r2, #0
 377 00e2 244B     		ldr	r3, .L20+4
 378 00e4 FFF7FEFF 		bl	__aeabi_dmul
 379              	.LVL36:
 380 00e8 41EC190B 		fmdrr	d9, r0, r1
 381              	.LVL37:
 382              		.loc 1 73 0
 383 00ec 20B2     		sxth	r0, r4
 384              	.LVL38:
 385 00ee FFF7FEFF 		bl	__aeabi_i2d
 386              	.LVL39:
 387 00f2 0022     		movs	r2, #0
 388 00f4 1F4B     		ldr	r3, .L20+4
 389 00f6 FFF7FEFF 		bl	__aeabi_dmul
 390              	.LVL40:
 391 00fa 41EC1A0B 		fmdrr	d10, r0, r1
 392              	.LVL41:
 393              		.loc 1 74 0
 394 00fe D3E7     		b	.L12
 395              	.LVL42:
 396              	.L16:
 397              		.loc 1 65 0
 398 0100 00B2     		sxth	r0, r0
 399 0102 FFF7FEFF 		bl	__aeabi_i2d
ARM GAS  /var/folders/m4/4md61f0s1_g0rzfghffqnxvr0000gn/T//ccYVkMSH.s 			page 8


 400              	.LVL43:
 401 0106 0022     		movs	r2, #0
 402 0108 1B4B     		ldr	r3, .L20+8
 403 010a FFF7FEFF 		bl	__aeabi_ddiv
 404              	.LVL44:
 405 010e 41EC1A0B 		fmdrr	d10, r0, r1
 406              	.LVL45:
 407              		.loc 1 66 0
 408 0112 28B2     		sxth	r0, r5
 409              	.LVL46:
 410 0114 FFF7FEFF 		bl	__aeabi_i2d
 411              	.LVL47:
 412 0118 0022     		movs	r2, #0
 413 011a 174B     		ldr	r3, .L20+8
 414 011c FFF7FEFF 		bl	__aeabi_ddiv
 415              	.LVL48:
 416 0120 41EC190B 		fmdrr	d9, r0, r1
 417              	.LVL49:
 418              		.loc 1 67 0
 419 0124 20B2     		sxth	r0, r4
 420              	.LVL50:
 421 0126 FFF7FEFF 		bl	__aeabi_i2d
 422              	.LVL51:
 423 012a 0022     		movs	r2, #0
 424 012c 124B     		ldr	r3, .L20+8
 425 012e FFF7FEFF 		bl	__aeabi_ddiv
 426              	.LVL52:
 427 0132 41EC180B 		fmdrr	d8, r0, r1
 428              	.LVL53:
 429              		.loc 1 68 0
 430 0136 B7E7     		b	.L12
 431              	.LVL54:
 432              	.L15:
 433              		.loc 1 59 0
 434 0138 00B2     		sxth	r0, r0
 435 013a FFF7FEFF 		bl	__aeabi_i2d
 436              	.LVL55:
 437 013e 0022     		movs	r2, #0
 438 0140 0C4B     		ldr	r3, .L20+4
 439 0142 FFF7FEFF 		bl	__aeabi_dmul
 440              	.LVL56:
 441 0146 41EC1A0B 		fmdrr	d10, r0, r1
 442              	.LVL57:
 443              		.loc 1 60 0
 444 014a 28B2     		sxth	r0, r5
 445              	.LVL58:
 446 014c FFF7FEFF 		bl	__aeabi_i2d
 447              	.LVL59:
 448 0150 0022     		movs	r2, #0
 449 0152 084B     		ldr	r3, .L20+4
 450 0154 FFF7FEFF 		bl	__aeabi_dmul
 451              	.LVL60:
 452 0158 41EC190B 		fmdrr	d9, r0, r1
 453              	.LVL61:
 454              		.loc 1 61 0
 455 015c 20B2     		sxth	r0, r4
 456              	.LVL62:
ARM GAS  /var/folders/m4/4md61f0s1_g0rzfghffqnxvr0000gn/T//ccYVkMSH.s 			page 9


 457 015e FFF7FEFF 		bl	__aeabi_i2d
 458              	.LVL63:
 459 0162 0022     		movs	r2, #0
 460 0164 034B     		ldr	r3, .L20+4
 461 0166 FFF7FEFF 		bl	__aeabi_dmul
 462              	.LVL64:
 463 016a 41EC180B 		fmdrr	d8, r0, r1
 464              	.LVL65:
 465              		.loc 1 62 0
 466 016e 9BE7     		b	.L12
 467              	.L21:
 468              		.align	2
 469              	.L20:
 470 0170 00005940 		.word	1079574528
 471 0174 0000B03F 		.word	1068498944
 472 0178 00208C40 		.word	1082925056
 473              		.cfi_endproc
 474              	.LFE269:
 475              		.size	bno055_get_vector, .-bno055_get_vector
 476              		.section	.text.bno055_write_addr,"ax",%progbits
 477              		.align	2
 478              		.p2align 4,,15
 479              		.global	bno055_write_addr
 480              		.thumb
 481              		.thumb_func
 482              		.type	bno055_write_addr, %function
 483              	bno055_write_addr:
 484              	.LFB274:
 485              		.loc 1 121 0
 486              		.cfi_startproc
 487              		@ args = 0, pretend = 0, frame = 8
 488              		@ frame_needed = 0, uses_anonymous_args = 0
 489              	.LVL66:
 490 0000 10B5     		push	{r4, lr}
 491              		.cfi_def_cfa_offset 8
 492              		.cfi_offset 4, -8
 493              		.cfi_offset 14, -4
 494              		.loc 1 127 0
 495 0002 0C4C     		ldr	r4, .L24
 496              		.loc 1 121 0
 497 0004 86B0     		sub	sp, sp, #24
 498              		.cfi_def_cfa_offset 32
 499              		.loc 1 125 0
 500 0006 8DF81400 		strb	r0, [sp, #20]
 501              		.loc 1 127 0
 502 000a 2046     		mov	r0, r4
 503              	.LVL67:
 504              		.loc 1 126 0
 505 000c 8DF81510 		strb	r1, [sp, #21]
 506              		.loc 1 127 0
 507 0010 FFF7FEFF 		bl	i2cAcquireBus
 508              	.LVL68:
 509              		.loc 1 128 0
 510 0014 2821     		movs	r1, #40
 511 0016 04AA     		add	r2, sp, #16
 512 0018 0023     		movs	r3, #0
 513 001a 8DE80C00 		stmia	sp, {r2, r3}
ARM GAS  /var/folders/m4/4md61f0s1_g0rzfghffqnxvr0000gn/T//ccYVkMSH.s 			page 10


 514 001e 0291     		str	r1, [sp, #8]
 515 0020 05AA     		add	r2, sp, #20
 516 0022 0223     		movs	r3, #2
 517 0024 2046     		mov	r0, r4
 518 0026 FFF7FEFF 		bl	i2cMasterTransmitTimeout
 519              	.LVL69:
 520              		.loc 1 129 0
 521 002a 2046     		mov	r0, r4
 522 002c FFF7FEFF 		bl	i2cReleaseBus
 523              	.LVL70:
 524              		.loc 1 130 0
 525 0030 06B0     		add	sp, sp, #24
 526              		.cfi_def_cfa_offset 8
 527              		@ sp needed
 528 0032 10BD     		pop	{r4, pc}
 529              	.L25:
 530              		.align	2
 531              	.L24:
 532 0034 00000000 		.word	I2CD1
 533              		.cfi_endproc
 534              	.LFE274:
 535              		.size	bno055_write_addr, .-bno055_write_addr
 536              		.section	.text.bno055_init,"ax",%progbits
 537              		.align	2
 538              		.p2align 4,,15
 539              		.global	bno055_init
 540              		.thumb
 541              		.thumb_func
 542              		.type	bno055_init, %function
 543              	bno055_init:
 544              	.LFB268:
 545              		.loc 1 12 0
 546              		.cfi_startproc
 547              		@ args = 0, pretend = 0, frame = 0
 548              		@ frame_needed = 0, uses_anonymous_args = 0
 549 0000 08B5     		push	{r3, lr}
 550              		.cfi_def_cfa_offset 8
 551              		.cfi_offset 3, -8
 552              		.cfi_offset 14, -4
 553              		.loc 1 13 0
 554 0002 2B48     		ldr	r0, .L34
 555 0004 2B49     		ldr	r1, .L34+4
 556 0006 FFF7FEFF 		bl	i2cStart
 557              	.LVL71:
 558              		.loc 1 14 0
 559 000a 2B48     		ldr	r0, .L34+8
 560 000c 4021     		movs	r1, #64
 561 000e 40F20622 		movw	r2, #518
 562 0012 FFF7FEFF 		bl	_pal_lld_setgroupmode
 563              	.LVL72:
 564              		.loc 1 15 0
 565 0016 2848     		ldr	r0, .L34+8
 566 0018 8021     		movs	r1, #128
 567 001a 40F20622 		movw	r2, #518
 568 001e FFF7FEFF 		bl	_pal_lld_setgroupmode
 569              	.LVL73:
 570              		.loc 1 16 0
ARM GAS  /var/folders/m4/4md61f0s1_g0rzfghffqnxvr0000gn/T//ccYVkMSH.s 			page 11


 571 0022 0020     		movs	r0, #0
 572 0024 FFF7FEFF 		bl	bno055_read_addr
 573              	.LVL74:
 574              		.loc 1 17 0
 575 0028 A028     		cmp	r0, #160
 576 002a 0AD0     		beq	.L30
 577              		.loc 1 19 0
 578 002c 42F21070 		movw	r0, #10000
 579              	.LVL75:
 580 0030 FFF7FEFF 		bl	chThdSleep
 581              	.LVL76:
 582              		.loc 1 20 0
 583 0034 0020     		movs	r0, #0
 584 0036 FFF7FEFF 		bl	bno055_read_addr
 585              	.LVL77:
 586              		.loc 1 21 0
 587 003a A028     		cmp	r0, #160
 588 003c 01D0     		beq	.L30
 589              		.loc 1 22 0
 590 003e 0020     		movs	r0, #0
 591              	.LVL78:
 592              		.loc 1 44 0
 593 0040 08BD     		pop	{r3, pc}
 594              	.LVL79:
 595              	.L30:
 596              		.loc 1 25 0
 597 0042 0021     		movs	r1, #0
 598 0044 3D20     		movs	r0, #61
 599              	.LVL80:
 600 0046 FFF7FEFF 		bl	bno055_write_addr
 601              	.LVL81:
 602              		.loc 1 26 0
 603 004a 4FF49670 		mov	r0, #300
 604 004e FFF7FEFF 		bl	chThdSleep
 605              	.LVL82:
 606              		.loc 1 27 0
 607 0052 3F20     		movs	r0, #63
 608 0054 2021     		movs	r1, #32
 609 0056 FFF7FEFF 		bl	bno055_write_addr
 610              	.LVL83:
 611              		.loc 1 28 0
 612 005a 01E0     		b	.L28
 613              	.L31:
 614              		.loc 1 30 0
 615 005c FFF7FEFF 		bl	chThdSleep
 616              	.LVL84:
 617              	.L28:
 618              		.loc 1 28 0
 619 0060 0020     		movs	r0, #0
 620 0062 FFF7FEFF 		bl	bno055_read_addr
 621              	.LVL85:
 622 0066 A028     		cmp	r0, #160
 623              		.loc 1 30 0
 624 0068 4FF06400 		mov	r0, #100
 625              		.loc 1 28 0
 626 006c F6D1     		bne	.L31
 627              		.loc 1 32 0
ARM GAS  /var/folders/m4/4md61f0s1_g0rzfghffqnxvr0000gn/T//ccYVkMSH.s 			page 12


 628 006e 4FF4FA70 		mov	r0, #500
 629 0072 FFF7FEFF 		bl	chThdSleep
 630              	.LVL86:
 631              		.loc 1 35 0
 632 0076 0021     		movs	r1, #0
 633 0078 3E20     		movs	r0, #62
 634 007a FFF7FEFF 		bl	bno055_write_addr
 635              	.LVL87:
 636              		.loc 1 36 0
 637 007e 6420     		movs	r0, #100
 638 0080 FFF7FEFF 		bl	chThdSleep
 639              	.LVL88:
 640              		.loc 1 38 0
 641 0084 0720     		movs	r0, #7
 642 0086 0021     		movs	r1, #0
 643 0088 FFF7FEFF 		bl	bno055_write_addr
 644              	.LVL89:
 645              		.loc 1 39 0
 646 008c 8021     		movs	r1, #128
 647 008e 3F20     		movs	r0, #63
 648 0090 FFF7FEFF 		bl	bno055_write_addr
 649              	.LVL90:
 650              		.loc 1 40 0
 651 0094 6420     		movs	r0, #100
 652 0096 FFF7FEFF 		bl	chThdSleep
 653              	.LVL91:
 654              		.loc 1 41 0
 655 009a 0C21     		movs	r1, #12
 656 009c 3D20     		movs	r0, #61
 657 009e FFF7FEFF 		bl	bno055_write_addr
 658              	.LVL92:
 659              		.loc 1 42 0
 660 00a2 4FF4FA70 		mov	r0, #500
 661 00a6 FFF7FEFF 		bl	chThdSleep
 662              	.LVL93:
 663              		.loc 1 43 0
 664 00aa 0120     		movs	r0, #1
 665 00ac 08BD     		pop	{r3, pc}
 666              	.L35:
 667 00ae 00BF     		.align	2
 668              	.L34:
 669 00b0 00000000 		.word	I2CD1
 670 00b4 00000000 		.word	.LANCHOR0
 671 00b8 00040240 		.word	1073873920
 672              		.cfi_endproc
 673              	.LFE268:
 674              		.size	bno055_init, .-bno055_init
 675              		.section	.rodata.i2ccfg,"a",%progbits
 676              		.align	2
 677              		.set	.LANCHOR0,. + 0
 678              		.type	i2ccfg, %object
 679              		.size	i2ccfg, 12
 680              	i2ccfg:
 681 0000 01       		.byte	1
 682 0001 000000   		.space	3
 683 0004 A0860100 		.word	100000
 684 0008 01       		.byte	1
ARM GAS  /var/folders/m4/4md61f0s1_g0rzfghffqnxvr0000gn/T//ccYVkMSH.s 			page 13


 685 0009 000000   		.space	3
 686              		.text
 687              	.Letext0:
 688              		.file 2 "/usr/local/Cellar/gcc-arm-none-eabi-49/20150609/lib/gcc/arm-none-eabi/4.9.3/include/stdde
 689              		.file 3 "/usr/local/Cellar/gcc-arm-none-eabi-49/20150609/arm-none-eabi/include/machine/_default_ty
 690              		.file 4 "/usr/local/Cellar/gcc-arm-none-eabi-49/20150609/arm-none-eabi/include/sys/_stdint.h"
 691              		.file 5 "ChibiOS_16.1.4/os/rt/ports/ARMCMx/compilers/GCC/chtypes.h"
 692              		.file 6 "ChibiOS_16.1.4/os/rt/include/chsystypes.h"
 693              		.file 7 "ChibiOS_16.1.4/os/rt/include/chschd.h"
 694              		.file 8 "ChibiOS_16.1.4/os/ext/CMSIS/ST/STM32F4xx/stm32f446xx.h"
 695              		.file 9 "ChibiOS_16.1.4/os/rt/ports/ARMCMx/chcore.h"
 696              		.file 10 "ChibiOS_16.1.4/os/rt/ports/ARMCMx/chcore_v7m.h"
 697              		.file 11 "ChibiOS_16.1.4/os/rt/include/chtm.h"
 698              		.file 12 "ChibiOS_16.1.4/os/rt/include/chsem.h"
 699              		.file 13 "ChibiOS_16.1.4/os/rt/include/chmtx.h"
 700              		.file 14 "ChibiOS_16.1.4/os/hal/ports/STM32/LLD/DMAv2/stm32_dma.h"
 701              		.file 15 "ChibiOS_16.1.4/os/hal/ports/STM32/LLD/GPIOv2/pal_lld.h"
 702              		.file 16 "ChibiOS_16.1.4/os/hal/include/i2c.h"
 703              		.file 17 "ChibiOS_16.1.4/os/hal/ports/STM32/LLD/I2Cv1/i2c_lld.h"
 704              		.file 18 "bno055.h"
 705              		.file 19 "ChibiOS_16.1.4/os/ext/CMSIS/include/core_cm4.h"
 706              		.file 20 "<built-in>"
 707              		.file 21 "ChibiOS_16.1.4/os/rt/include/chthreads.h"
 708              		.section	.debug_info,"",%progbits
 709              	.Ldebug_info0:
 710 0000 B0110000 		.4byte	0x11b0
 711 0004 0400     		.2byte	0x4
 712 0006 00000000 		.4byte	.Ldebug_abbrev0
 713 000a 04       		.byte	0x4
 714 000b 01       		.uleb128 0x1
 715 000c BF060000 		.4byte	.LASF193
 716 0010 01       		.byte	0x1
 717 0011 7A040000 		.4byte	.LASF194
 718 0015 00000000 		.4byte	.LASF195
 719 0019 00000000 		.4byte	.Ldebug_ranges0+0
 720 001d 00000000 		.4byte	0
 721 0021 00000000 		.4byte	.Ldebug_line0
 722 0025 02       		.uleb128 0x2
 723 0026 04       		.byte	0x4
 724 0027 05       		.byte	0x5
 725 0028 696E7400 		.ascii	"int\000"
 726 002c 03       		.uleb128 0x3
 727 002d 39020000 		.4byte	.LASF2
 728 0031 02       		.byte	0x2
 729 0032 D4       		.byte	0xd4
 730 0033 37000000 		.4byte	0x37
 731 0037 04       		.uleb128 0x4
 732 0038 04       		.byte	0x4
 733 0039 07       		.byte	0x7
 734 003a 70020000 		.4byte	.LASF0
 735 003e 04       		.uleb128 0x4
 736 003f 01       		.byte	0x1
 737 0040 06       		.byte	0x6
 738 0041 67010000 		.4byte	.LASF1
 739 0045 03       		.uleb128 0x3
 740 0046 6B000000 		.4byte	.LASF3
 741 004a 03       		.byte	0x3
ARM GAS  /var/folders/m4/4md61f0s1_g0rzfghffqnxvr0000gn/T//ccYVkMSH.s 			page 14


 742 004b 1D       		.byte	0x1d
 743 004c 50000000 		.4byte	0x50
 744 0050 04       		.uleb128 0x4
 745 0051 01       		.byte	0x1
 746 0052 08       		.byte	0x8
 747 0053 49050000 		.4byte	.LASF4
 748 0057 03       		.uleb128 0x3
 749 0058 2F020000 		.4byte	.LASF5
 750 005c 03       		.byte	0x3
 751 005d 29       		.byte	0x29
 752 005e 62000000 		.4byte	0x62
 753 0062 04       		.uleb128 0x4
 754 0063 02       		.byte	0x2
 755 0064 05       		.byte	0x5
 756 0065 6B030000 		.4byte	.LASF6
 757 0069 03       		.uleb128 0x3
 758 006a 74060000 		.4byte	.LASF7
 759 006e 03       		.byte	0x3
 760 006f 2B       		.byte	0x2b
 761 0070 74000000 		.4byte	0x74
 762 0074 04       		.uleb128 0x4
 763 0075 02       		.byte	0x2
 764 0076 07       		.byte	0x7
 765 0077 DA020000 		.4byte	.LASF8
 766 007b 03       		.uleb128 0x3
 767 007c 75030000 		.4byte	.LASF9
 768 0080 03       		.byte	0x3
 769 0081 3F       		.byte	0x3f
 770 0082 86000000 		.4byte	0x86
 771 0086 04       		.uleb128 0x4
 772 0087 04       		.byte	0x4
 773 0088 05       		.byte	0x5
 774 0089 D5010000 		.4byte	.LASF10
 775 008d 03       		.uleb128 0x3
 776 008e AD060000 		.4byte	.LASF11
 777 0092 03       		.byte	0x3
 778 0093 41       		.byte	0x41
 779 0094 98000000 		.4byte	0x98
 780 0098 04       		.uleb128 0x4
 781 0099 04       		.byte	0x4
 782 009a 07       		.byte	0x7
 783 009b 44060000 		.4byte	.LASF12
 784 009f 04       		.uleb128 0x4
 785 00a0 08       		.byte	0x8
 786 00a1 05       		.byte	0x5
 787 00a2 59010000 		.4byte	.LASF13
 788 00a6 03       		.uleb128 0x3
 789 00a7 83040000 		.4byte	.LASF14
 790 00ab 03       		.byte	0x3
 791 00ac 5B       		.byte	0x5b
 792 00ad B1000000 		.4byte	0xb1
 793 00b1 04       		.uleb128 0x4
 794 00b2 08       		.byte	0x8
 795 00b3 07       		.byte	0x7
 796 00b4 AA000000 		.4byte	.LASF15
 797 00b8 03       		.uleb128 0x3
 798 00b9 94080000 		.4byte	.LASF16
ARM GAS  /var/folders/m4/4md61f0s1_g0rzfghffqnxvr0000gn/T//ccYVkMSH.s 			page 15


 799 00bd 04       		.byte	0x4
 800 00be 14       		.byte	0x14
 801 00bf 45000000 		.4byte	0x45
 802 00c3 03       		.uleb128 0x3
 803 00c4 49010000 		.4byte	.LASF17
 804 00c8 04       		.byte	0x4
 805 00c9 19       		.byte	0x19
 806 00ca 57000000 		.4byte	0x57
 807 00ce 03       		.uleb128 0x3
 808 00cf 39030000 		.4byte	.LASF18
 809 00d3 04       		.byte	0x4
 810 00d4 1A       		.byte	0x1a
 811 00d5 69000000 		.4byte	0x69
 812 00d9 03       		.uleb128 0x3
 813 00da 41050000 		.4byte	.LASF19
 814 00de 04       		.byte	0x4
 815 00df 1F       		.byte	0x1f
 816 00e0 7B000000 		.4byte	0x7b
 817 00e4 03       		.uleb128 0x3
 818 00e5 08060000 		.4byte	.LASF20
 819 00e9 04       		.byte	0x4
 820 00ea 20       		.byte	0x20
 821 00eb 8D000000 		.4byte	0x8d
 822 00ef 03       		.uleb128 0x3
 823 00f0 62000000 		.4byte	.LASF21
 824 00f4 04       		.byte	0x4
 825 00f5 26       		.byte	0x26
 826 00f6 A6000000 		.4byte	0xa6
 827 00fa 03       		.uleb128 0x3
 828 00fb 49080000 		.4byte	.LASF22
 829 00ff 05       		.byte	0x5
 830 0100 39       		.byte	0x39
 831 0101 E4000000 		.4byte	0xe4
 832 0105 03       		.uleb128 0x3
 833 0106 31030000 		.4byte	.LASF23
 834 010a 05       		.byte	0x5
 835 010b 3C       		.byte	0x3c
 836 010c B8000000 		.4byte	0xb8
 837 0110 03       		.uleb128 0x3
 838 0111 DE010000 		.4byte	.LASF24
 839 0115 05       		.byte	0x5
 840 0116 3D       		.byte	0x3d
 841 0117 B8000000 		.4byte	0xb8
 842 011b 03       		.uleb128 0x3
 843 011c 9D040000 		.4byte	.LASF25
 844 0120 05       		.byte	0x5
 845 0121 3E       		.byte	0x3e
 846 0122 B8000000 		.4byte	0xb8
 847 0126 03       		.uleb128 0x3
 848 0127 B1010000 		.4byte	.LASF26
 849 012b 05       		.byte	0x5
 850 012c 3F       		.byte	0x3f
 851 012d B8000000 		.4byte	0xb8
 852 0131 03       		.uleb128 0x3
 853 0132 FD040000 		.4byte	.LASF27
 854 0136 05       		.byte	0x5
 855 0137 40       		.byte	0x40
ARM GAS  /var/folders/m4/4md61f0s1_g0rzfghffqnxvr0000gn/T//ccYVkMSH.s 			page 16


 856 0138 E4000000 		.4byte	0xe4
 857 013c 03       		.uleb128 0x3
 858 013d 0C030000 		.4byte	.LASF28
 859 0141 05       		.byte	0x5
 860 0142 41       		.byte	0x41
 861 0143 D9000000 		.4byte	0xd9
 862 0147 03       		.uleb128 0x3
 863 0148 5F030000 		.4byte	.LASF29
 864 014c 05       		.byte	0x5
 865 014d 43       		.byte	0x43
 866 014e E4000000 		.4byte	0xe4
 867 0152 03       		.uleb128 0x3
 868 0153 6A020000 		.4byte	.LASF30
 869 0157 05       		.byte	0x5
 870 0158 45       		.byte	0x45
 871 0159 D9000000 		.4byte	0xd9
 872 015d 03       		.uleb128 0x3
 873 015e 8F060000 		.4byte	.LASF31
 874 0162 06       		.byte	0x6
 875 0163 33       		.byte	0x33
 876 0164 E4000000 		.4byte	0xe4
 877 0168 03       		.uleb128 0x3
 878 0169 7F060000 		.4byte	.LASF32
 879 016d 06       		.byte	0x6
 880 016e 3F       		.byte	0x3f
 881 016f 73010000 		.4byte	0x173
 882 0173 05       		.uleb128 0x5
 883 0174 F7020000 		.4byte	.LASF54
 884 0178 48       		.byte	0x48
 885 0179 07       		.byte	0x7
 886 017a C2       		.byte	0xc2
 887 017b 78020000 		.4byte	0x278
 888 017f 06       		.uleb128 0x6
 889 0180 97050000 		.4byte	.LASF33
 890 0184 07       		.byte	0x7
 891 0185 C3       		.byte	0xc3
 892 0186 83020000 		.4byte	0x283
 893 018a 00       		.byte	0
 894 018b 06       		.uleb128 0x6
 895 018c D5040000 		.4byte	.LASF34
 896 0190 07       		.byte	0x7
 897 0191 C5       		.byte	0xc5
 898 0192 83020000 		.4byte	0x283
 899 0196 04       		.byte	0x4
 900 0197 06       		.uleb128 0x6
 901 0198 24010000 		.4byte	.LASF35
 902 019c 07       		.byte	0x7
 903 019d C7       		.byte	0xc7
 904 019e 31010000 		.4byte	0x131
 905 01a2 08       		.byte	0x8
 906 01a3 06       		.uleb128 0x6
 907 01a4 01090000 		.4byte	.LASF36
 908 01a8 07       		.byte	0x7
 909 01a9 C8       		.byte	0xc8
 910 01aa B2050000 		.4byte	0x5b2
 911 01ae 0C       		.byte	0xc
 912 01af 06       		.uleb128 0x6
ARM GAS  /var/folders/m4/4md61f0s1_g0rzfghffqnxvr0000gn/T//ccYVkMSH.s 			page 17


 913 01b0 EE010000 		.4byte	.LASF37
 914 01b4 07       		.byte	0x7
 915 01b5 CA       		.byte	0xca
 916 01b6 83020000 		.4byte	0x283
 917 01ba 10       		.byte	0x10
 918 01bb 06       		.uleb128 0x6
 919 01bc 0C040000 		.4byte	.LASF38
 920 01c0 07       		.byte	0x7
 921 01c1 CB       		.byte	0xcb
 922 01c2 83020000 		.4byte	0x283
 923 01c6 14       		.byte	0x14
 924 01c7 06       		.uleb128 0x6
 925 01c8 B2080000 		.4byte	.LASF39
 926 01cc 07       		.byte	0x7
 927 01cd D2       		.byte	0xd2
 928 01ce 00080000 		.4byte	0x800
 929 01d2 18       		.byte	0x18
 930 01d3 06       		.uleb128 0x6
 931 01d4 77050000 		.4byte	.LASF40
 932 01d8 07       		.byte	0x7
 933 01d9 DD       		.byte	0xdd
 934 01da 10010000 		.4byte	0x110
 935 01de 1C       		.byte	0x1c
 936 01df 06       		.uleb128 0x6
 937 01e0 9E050000 		.4byte	.LASF41
 938 01e4 07       		.byte	0x7
 939 01e5 E1       		.byte	0xe1
 940 01e6 05010000 		.4byte	0x105
 941 01ea 1D       		.byte	0x1d
 942 01eb 06       		.uleb128 0x6
 943 01ec 87080000 		.4byte	.LASF42
 944 01f0 07       		.byte	0x7
 945 01f1 E6       		.byte	0xe6
 946 01f2 1B010000 		.4byte	0x11b
 947 01f6 1E       		.byte	0x1e
 948 01f7 06       		.uleb128 0x6
 949 01f8 7F050000 		.4byte	.LASF43
 950 01fc 07       		.byte	0x7
 951 01fd EC       		.byte	0xec
 952 01fe 26010000 		.4byte	0x126
 953 0202 1F       		.byte	0x1f
 954 0203 06       		.uleb128 0x6
 955 0204 8B020000 		.4byte	.LASF44
 956 0208 07       		.byte	0x7
 957 0209 F3       		.byte	0xf3
 958 020a 12080000 		.4byte	0x812
 959 020e 20       		.byte	0x20
 960 020f 07       		.uleb128 0x7
 961 0210 705F7500 		.ascii	"p_u\000"
 962 0214 07       		.byte	0x7
 963 0215 3101     		.2byte	0x131
 964 0217 3B070000 		.4byte	0x73b
 965 021b 24       		.byte	0x24
 966 021c 08       		.uleb128 0x8
 967 021d 99030000 		.4byte	.LASF45
 968 0221 07       		.byte	0x7
 969 0222 3601     		.2byte	0x136
ARM GAS  /var/folders/m4/4md61f0s1_g0rzfghffqnxvr0000gn/T//ccYVkMSH.s 			page 18


 970 0224 89020000 		.4byte	0x289
 971 0228 28       		.byte	0x28
 972 0229 08       		.uleb128 0x8
 973 022a A9020000 		.4byte	.LASF46
 974 022e 07       		.byte	0x7
 975 022f 3C01     		.2byte	0x13c
 976 0231 AD020000 		.4byte	0x2ad
 977 0235 2C       		.byte	0x2c
 978 0236 08       		.uleb128 0x8
 979 0237 C4080000 		.4byte	.LASF47
 980 023b 07       		.byte	0x7
 981 023c 4001     		.2byte	0x140
 982 023e 3C010000 		.4byte	0x13c
 983 0242 34       		.byte	0x34
 984 0243 08       		.uleb128 0x8
 985 0244 F2050000 		.4byte	.LASF48
 986 0248 07       		.byte	0x7
 987 0249 4601     		.2byte	0x146
 988 024b 47010000 		.4byte	0x147
 989 024f 38       		.byte	0x38
 990 0250 08       		.uleb128 0x8
 991 0251 62050000 		.4byte	.LASF49
 992 0255 07       		.byte	0x7
 993 0256 4D01     		.2byte	0x14d
 994 0258 FA070000 		.4byte	0x7fa
 995 025c 3C       		.byte	0x3c
 996 025d 08       		.uleb128 0x8
 997 025e 99060000 		.4byte	.LASF50
 998 0262 07       		.byte	0x7
 999 0263 5101     		.2byte	0x151
 1000 0265 31010000 		.4byte	0x131
 1001 0269 40       		.byte	0x40
 1002 026a 08       		.uleb128 0x8
 1003 026b 84010000 		.4byte	.LASF51
 1004 026f 07       		.byte	0x7
 1005 0270 5801     		.2byte	0x158
 1006 0272 60030000 		.4byte	0x360
 1007 0276 44       		.byte	0x44
 1008 0277 00       		.byte	0
 1009 0278 03       		.uleb128 0x3
 1010 0279 B5030000 		.4byte	.LASF52
 1011 027d 06       		.byte	0x6
 1012 027e 44       		.byte	0x44
 1013 027f 83020000 		.4byte	0x283
 1014 0283 09       		.uleb128 0x9
 1015 0284 04       		.byte	0x4
 1016 0285 68010000 		.4byte	0x168
 1017 0289 03       		.uleb128 0x3
 1018 028a 8A030000 		.4byte	.LASF53
 1019 028e 06       		.byte	0x6
 1020 028f 49       		.byte	0x49
 1021 0290 94020000 		.4byte	0x294
 1022 0294 05       		.uleb128 0x5
 1023 0295 20060000 		.4byte	.LASF55
 1024 0299 04       		.byte	0x4
 1025 029a 07       		.byte	0x7
 1026 029b B0       		.byte	0xb0
ARM GAS  /var/folders/m4/4md61f0s1_g0rzfghffqnxvr0000gn/T//ccYVkMSH.s 			page 19


 1027 029c AD020000 		.4byte	0x2ad
 1028 02a0 06       		.uleb128 0x6
 1029 02a1 97050000 		.4byte	.LASF33
 1030 02a5 07       		.byte	0x7
 1031 02a6 B1       		.byte	0xb1
 1032 02a7 83020000 		.4byte	0x283
 1033 02ab 00       		.byte	0
 1034 02ac 00       		.byte	0
 1035 02ad 03       		.uleb128 0x3
 1036 02ae 6E080000 		.4byte	.LASF56
 1037 02b2 06       		.byte	0x6
 1038 02b3 50       		.byte	0x50
 1039 02b4 B8020000 		.4byte	0x2b8
 1040 02b8 05       		.uleb128 0x5
 1041 02b9 0E010000 		.4byte	.LASF57
 1042 02bd 08       		.byte	0x8
 1043 02be 07       		.byte	0x7
 1044 02bf B7       		.byte	0xb7
 1045 02c0 DD020000 		.4byte	0x2dd
 1046 02c4 06       		.uleb128 0x6
 1047 02c5 97050000 		.4byte	.LASF33
 1048 02c9 07       		.byte	0x7
 1049 02ca B8       		.byte	0xb8
 1050 02cb 83020000 		.4byte	0x283
 1051 02cf 00       		.byte	0
 1052 02d0 06       		.uleb128 0x6
 1053 02d1 D5040000 		.4byte	.LASF34
 1054 02d5 07       		.byte	0x7
 1055 02d6 B9       		.byte	0xb9
 1056 02d7 83020000 		.4byte	0x283
 1057 02db 04       		.byte	0x4
 1058 02dc 00       		.byte	0
 1059 02dd 03       		.uleb128 0x3
 1060 02de 41000000 		.4byte	.LASF58
 1061 02e2 06       		.byte	0x6
 1062 02e3 57       		.byte	0x57
 1063 02e4 E8020000 		.4byte	0x2e8
 1064 02e8 0A       		.uleb128 0xa
 1065 02e9 51030000 		.4byte	.LASF59
 1066 02ed 1C       		.byte	0x1c
 1067 02ee 07       		.byte	0x7
 1068 02ef 9001     		.2byte	0x190
 1069 02f1 44030000 		.4byte	0x344
 1070 02f5 08       		.uleb128 0x8
 1071 02f6 18060000 		.4byte	.LASF60
 1072 02fa 07       		.byte	0x7
 1073 02fb 9101     		.2byte	0x191
 1074 02fd AD020000 		.4byte	0x2ad
 1075 0301 00       		.byte	0
 1076 0302 08       		.uleb128 0x8
 1077 0303 89050000 		.4byte	.LASF61
 1078 0307 07       		.byte	0x7
 1079 0308 9201     		.2byte	0x192
 1080 030a 31010000 		.4byte	0x131
 1081 030e 08       		.byte	0x8
 1082 030f 08       		.uleb128 0x8
 1083 0310 1E040000 		.4byte	.LASF62
ARM GAS  /var/folders/m4/4md61f0s1_g0rzfghffqnxvr0000gn/T//ccYVkMSH.s 			page 20


 1084 0314 07       		.byte	0x7
 1085 0315 9401     		.2byte	0x194
 1086 0317 B2050000 		.4byte	0x5b2
 1087 031b 0C       		.byte	0xc
 1088 031c 08       		.uleb128 0x8
 1089 031d 16020000 		.4byte	.LASF63
 1090 0321 07       		.byte	0x7
 1091 0322 9701     		.2byte	0x197
 1092 0324 83020000 		.4byte	0x283
 1093 0328 10       		.byte	0x10
 1094 0329 08       		.uleb128 0x8
 1095 032a 66040000 		.4byte	.LASF64
 1096 032e 07       		.byte	0x7
 1097 032f 9801     		.2byte	0x198
 1098 0331 83020000 		.4byte	0x283
 1099 0335 14       		.byte	0x14
 1100 0336 08       		.uleb128 0x8
 1101 0337 5C040000 		.4byte	.LASF65
 1102 033b 07       		.byte	0x7
 1103 033c 9B01     		.2byte	0x19b
 1104 033e 83020000 		.4byte	0x283
 1105 0342 18       		.byte	0x18
 1106 0343 00       		.byte	0
 1107 0344 03       		.uleb128 0x3
 1108 0345 A4060000 		.4byte	.LASF66
 1109 0349 06       		.byte	0x6
 1110 034a 5C       		.byte	0x5c
 1111 034b 4F030000 		.4byte	0x34f
 1112 034f 09       		.uleb128 0x9
 1113 0350 04       		.byte	0x4
 1114 0351 55030000 		.4byte	0x355
 1115 0355 0B       		.uleb128 0xb
 1116 0356 60030000 		.4byte	0x360
 1117 035a 0C       		.uleb128 0xc
 1118 035b 60030000 		.4byte	0x360
 1119 035f 00       		.byte	0
 1120 0360 0D       		.uleb128 0xd
 1121 0361 04       		.byte	0x4
 1122 0362 03       		.uleb128 0x3
 1123 0363 C5040000 		.4byte	.LASF67
 1124 0367 06       		.byte	0x6
 1125 0368 61       		.byte	0x61
 1126 0369 6D030000 		.4byte	0x36d
 1127 036d 0A       		.uleb128 0xa
 1128 036e 38080000 		.4byte	.LASF68
 1129 0372 14       		.byte	0x14
 1130 0373 07       		.byte	0x7
 1131 0374 6B01     		.2byte	0x16b
 1132 0376 BC030000 		.4byte	0x3bc
 1133 037a 08       		.uleb128 0x8
 1134 037b 7D020000 		.4byte	.LASF69
 1135 037f 07       		.byte	0x7
 1136 0380 6C01     		.2byte	0x16c
 1137 0382 17080000 		.4byte	0x817
 1138 0386 00       		.byte	0
 1139 0387 08       		.uleb128 0x8
 1140 0388 27020000 		.4byte	.LASF70
ARM GAS  /var/folders/m4/4md61f0s1_g0rzfghffqnxvr0000gn/T//ccYVkMSH.s 			page 21


 1141 038c 07       		.byte	0x7
 1142 038d 6D01     		.2byte	0x16d
 1143 038f 17080000 		.4byte	0x817
 1144 0393 04       		.byte	0x4
 1145 0394 08       		.uleb128 0x8
 1146 0395 A0020000 		.4byte	.LASF71
 1147 0399 07       		.byte	0x7
 1148 039a 6E01     		.2byte	0x16e
 1149 039c 5D010000 		.4byte	0x15d
 1150 03a0 08       		.byte	0x8
 1151 03a1 08       		.uleb128 0x8
 1152 03a2 07090000 		.4byte	.LASF72
 1153 03a6 07       		.byte	0x7
 1154 03a7 6F01     		.2byte	0x16f
 1155 03a9 44030000 		.4byte	0x344
 1156 03ad 0C       		.byte	0xc
 1157 03ae 08       		.uleb128 0x8
 1158 03af 60080000 		.4byte	.LASF73
 1159 03b3 07       		.byte	0x7
 1160 03b4 7101     		.2byte	0x171
 1161 03b6 60030000 		.4byte	0x360
 1162 03ba 10       		.byte	0x10
 1163 03bb 00       		.byte	0
 1164 03bc 03       		.uleb128 0x3
 1165 03bd DE000000 		.4byte	.LASF74
 1166 03c1 06       		.byte	0x6
 1167 03c2 66       		.byte	0x66
 1168 03c3 C7030000 		.4byte	0x3c7
 1169 03c7 0A       		.uleb128 0xa
 1170 03c8 C8030000 		.4byte	.LASF75
 1171 03cc 10       		.byte	0x10
 1172 03cd 07       		.byte	0x7
 1173 03ce 7B01     		.2byte	0x17b
 1174 03d0 09040000 		.4byte	0x409
 1175 03d4 08       		.uleb128 0x8
 1176 03d5 7D020000 		.4byte	.LASF69
 1177 03d9 07       		.byte	0x7
 1178 03da 7C01     		.2byte	0x17c
 1179 03dc 17080000 		.4byte	0x817
 1180 03e0 00       		.byte	0
 1181 03e1 08       		.uleb128 0x8
 1182 03e2 27020000 		.4byte	.LASF70
 1183 03e6 07       		.byte	0x7
 1184 03e7 7E01     		.2byte	0x17e
 1185 03e9 17080000 		.4byte	0x817
 1186 03ed 04       		.byte	0x4
 1187 03ee 08       		.uleb128 0x8
 1188 03ef A0020000 		.4byte	.LASF71
 1189 03f3 07       		.byte	0x7
 1190 03f4 8001     		.2byte	0x180
 1191 03f6 5D010000 		.4byte	0x15d
 1192 03fa 08       		.byte	0x8
 1193 03fb 08       		.uleb128 0x8
 1194 03fc B9080000 		.4byte	.LASF76
 1195 0400 07       		.byte	0x7
 1196 0401 8201     		.2byte	0x182
 1197 0403 12080000 		.4byte	0x812
ARM GAS  /var/folders/m4/4md61f0s1_g0rzfghffqnxvr0000gn/T//ccYVkMSH.s 			page 22


 1198 0407 0C       		.byte	0xc
 1199 0408 00       		.byte	0
 1200 0409 03       		.uleb128 0x3
 1201 040a 88000000 		.4byte	.LASF77
 1202 040e 06       		.byte	0x6
 1203 040f 6B       		.byte	0x6b
 1204 0410 14040000 		.4byte	0x414
 1205 0414 0A       		.uleb128 0xa
 1206 0415 2B050000 		.4byte	.LASF78
 1207 0419 04       		.byte	0x4
 1208 041a 07       		.byte	0x7
 1209 041b A201     		.2byte	0x1a2
 1210 041d 2F040000 		.4byte	0x42f
 1211 0421 08       		.uleb128 0x8
 1212 0422 E3070000 		.4byte	.LASF79
 1213 0426 07       		.byte	0x7
 1214 0427 AA01     		.2byte	0x1aa
 1215 0429 1D080000 		.4byte	0x81d
 1216 042d 00       		.byte	0
 1217 042e 00       		.byte	0
 1218 042f 03       		.uleb128 0x3
 1219 0430 12030000 		.4byte	.LASF80
 1220 0434 06       		.byte	0x6
 1221 0435 70       		.byte	0x70
 1222 0436 3A040000 		.4byte	0x43a
 1223 043a 0E       		.uleb128 0xe
 1224 043b CB010000 		.4byte	.LASF81
 1225 043f 5802     		.2byte	0x258
 1226 0441 07       		.byte	0x7
 1227 0442 C201     		.2byte	0x1c2
 1228 0444 96040000 		.4byte	0x496
 1229 0448 08       		.uleb128 0x8
 1230 0449 8E080000 		.4byte	.LASF82
 1231 044d 07       		.byte	0x7
 1232 044e C601     		.2byte	0x1c6
 1233 0450 DD020000 		.4byte	0x2dd
 1234 0454 00       		.byte	0
 1235 0455 08       		.uleb128 0x8
 1236 0456 AA010000 		.4byte	.LASF83
 1237 045a 07       		.byte	0x7
 1238 045b CA01     		.2byte	0x1ca
 1239 045d BC030000 		.4byte	0x3bc
 1240 0461 1C       		.byte	0x1c
 1241 0462 07       		.uleb128 0x7
 1242 0463 64626700 		.ascii	"dbg\000"
 1243 0467 07       		.byte	0x7
 1244 0468 CE01     		.2byte	0x1ce
 1245 046a 09040000 		.4byte	0x409
 1246 046e 2C       		.byte	0x2c
 1247 046f 08       		.uleb128 0x8
 1248 0470 01030000 		.4byte	.LASF84
 1249 0474 07       		.byte	0x7
 1250 0475 D201     		.2byte	0x1d2
 1251 0477 68010000 		.4byte	0x168
 1252 047b 30       		.byte	0x30
 1253 047c 07       		.uleb128 0x7
 1254 047d 746D00   		.ascii	"tm\000"
ARM GAS  /var/folders/m4/4md61f0s1_g0rzfghffqnxvr0000gn/T//ccYVkMSH.s 			page 23


 1255 0480 07       		.byte	0x7
 1256 0481 D701     		.2byte	0x1d7
 1257 0483 30070000 		.4byte	0x730
 1258 0487 78       		.byte	0x78
 1259 0488 08       		.uleb128 0x8
 1260 0489 5B020000 		.4byte	.LASF85
 1261 048d 07       		.byte	0x7
 1262 048e E301     		.2byte	0x1e3
 1263 0490 22080000 		.4byte	0x822
 1264 0494 80       		.byte	0x80
 1265 0495 00       		.byte	0
 1266 0496 04       		.uleb128 0x4
 1267 0497 04       		.byte	0x4
 1268 0498 07       		.byte	0x7
 1269 0499 AC030000 		.4byte	.LASF86
 1270 049d 0F       		.uleb128 0xf
 1271 049e E4000000 		.4byte	0xe4
 1272 04a2 10       		.uleb128 0x10
 1273 04a3 18       		.byte	0x18
 1274 04a4 08       		.byte	0x8
 1275 04a5 7D01     		.2byte	0x17d
 1276 04a7 F9040000 		.4byte	0x4f9
 1277 04ab 07       		.uleb128 0x7
 1278 04ac 435200   		.ascii	"CR\000"
 1279 04af 08       		.byte	0x8
 1280 04b0 7F01     		.2byte	0x17f
 1281 04b2 9D040000 		.4byte	0x49d
 1282 04b6 00       		.byte	0
 1283 04b7 08       		.uleb128 0x8
 1284 04b8 1F010000 		.4byte	.LASF87
 1285 04bc 08       		.byte	0x8
 1286 04bd 8001     		.2byte	0x180
 1287 04bf 9D040000 		.4byte	0x49d
 1288 04c3 04       		.byte	0x4
 1289 04c4 07       		.uleb128 0x7
 1290 04c5 50415200 		.ascii	"PAR\000"
 1291 04c9 08       		.byte	0x8
 1292 04ca 8101     		.2byte	0x181
 1293 04cc 9D040000 		.4byte	0x49d
 1294 04d0 08       		.byte	0x8
 1295 04d1 08       		.uleb128 0x8
 1296 04d2 4E000000 		.4byte	.LASF88
 1297 04d6 08       		.byte	0x8
 1298 04d7 8201     		.2byte	0x182
 1299 04d9 9D040000 		.4byte	0x49d
 1300 04dd 0C       		.byte	0xc
 1301 04de 08       		.uleb128 0x8
 1302 04df 51080000 		.4byte	.LASF89
 1303 04e3 08       		.byte	0x8
 1304 04e4 8301     		.2byte	0x183
 1305 04e6 9D040000 		.4byte	0x49d
 1306 04ea 10       		.byte	0x10
 1307 04eb 07       		.uleb128 0x7
 1308 04ec 46435200 		.ascii	"FCR\000"
 1309 04f0 08       		.byte	0x8
 1310 04f1 8401     		.2byte	0x184
 1311 04f3 9D040000 		.4byte	0x49d
ARM GAS  /var/folders/m4/4md61f0s1_g0rzfghffqnxvr0000gn/T//ccYVkMSH.s 			page 24


 1312 04f7 14       		.byte	0x14
 1313 04f8 00       		.byte	0
 1314 04f9 11       		.uleb128 0x11
 1315 04fa 1E030000 		.4byte	.LASF90
 1316 04fe 08       		.byte	0x8
 1317 04ff 8501     		.2byte	0x185
 1318 0501 A2040000 		.4byte	0x4a2
 1319 0505 10       		.uleb128 0x10
 1320 0506 28       		.byte	0x28
 1321 0507 08       		.byte	0x8
 1322 0508 FE01     		.2byte	0x1fe
 1323 050a 90050000 		.4byte	0x590
 1324 050e 07       		.uleb128 0x7
 1325 050f 43523100 		.ascii	"CR1\000"
 1326 0513 08       		.byte	0x8
 1327 0514 0002     		.2byte	0x200
 1328 0516 9D040000 		.4byte	0x49d
 1329 051a 00       		.byte	0
 1330 051b 07       		.uleb128 0x7
 1331 051c 43523200 		.ascii	"CR2\000"
 1332 0520 08       		.byte	0x8
 1333 0521 0102     		.2byte	0x201
 1334 0523 9D040000 		.4byte	0x49d
 1335 0527 04       		.byte	0x4
 1336 0528 08       		.uleb128 0x8
 1337 0529 9C080000 		.4byte	.LASF91
 1338 052d 08       		.byte	0x8
 1339 052e 0202     		.2byte	0x202
 1340 0530 9D040000 		.4byte	0x49d
 1341 0534 08       		.byte	0x8
 1342 0535 08       		.uleb128 0x8
 1343 0536 A1080000 		.4byte	.LASF92
 1344 053a 08       		.byte	0x8
 1345 053b 0302     		.2byte	0x203
 1346 053d 9D040000 		.4byte	0x49d
 1347 0541 0C       		.byte	0xc
 1348 0542 07       		.uleb128 0x7
 1349 0543 445200   		.ascii	"DR\000"
 1350 0546 08       		.byte	0x8
 1351 0547 0402     		.2byte	0x204
 1352 0549 9D040000 		.4byte	0x49d
 1353 054d 10       		.byte	0x10
 1354 054e 07       		.uleb128 0x7
 1355 054f 53523100 		.ascii	"SR1\000"
 1356 0553 08       		.byte	0x8
 1357 0554 0502     		.2byte	0x205
 1358 0556 9D040000 		.4byte	0x49d
 1359 055a 14       		.byte	0x14
 1360 055b 07       		.uleb128 0x7
 1361 055c 53523200 		.ascii	"SR2\000"
 1362 0560 08       		.byte	0x8
 1363 0561 0602     		.2byte	0x206
 1364 0563 9D040000 		.4byte	0x49d
 1365 0567 18       		.byte	0x18
 1366 0568 07       		.uleb128 0x7
 1367 0569 43435200 		.ascii	"CCR\000"
 1368 056d 08       		.byte	0x8
ARM GAS  /var/folders/m4/4md61f0s1_g0rzfghffqnxvr0000gn/T//ccYVkMSH.s 			page 25


 1369 056e 0702     		.2byte	0x207
 1370 0570 9D040000 		.4byte	0x49d
 1371 0574 1C       		.byte	0x1c
 1372 0575 08       		.uleb128 0x8
 1373 0576 97000000 		.4byte	.LASF93
 1374 057a 08       		.byte	0x8
 1375 057b 0802     		.2byte	0x208
 1376 057d 9D040000 		.4byte	0x49d
 1377 0581 20       		.byte	0x20
 1378 0582 08       		.uleb128 0x8
 1379 0583 A6080000 		.4byte	.LASF94
 1380 0587 08       		.byte	0x8
 1381 0588 0902     		.2byte	0x209
 1382 058a 9D040000 		.4byte	0x49d
 1383 058e 24       		.byte	0x24
 1384 058f 00       		.byte	0
 1385 0590 11       		.uleb128 0x11
 1386 0591 CA080000 		.4byte	.LASF95
 1387 0595 08       		.byte	0x8
 1388 0596 0A02     		.2byte	0x20a
 1389 0598 05050000 		.4byte	0x505
 1390 059c 03       		.uleb128 0x3
 1391 059d 1E020000 		.4byte	.LASF96
 1392 05a1 09       		.byte	0x9
 1393 05a2 65       		.byte	0x65
 1394 05a3 60030000 		.4byte	0x360
 1395 05a7 03       		.uleb128 0x3
 1396 05a8 7F030000 		.4byte	.LASF97
 1397 05ac 09       		.byte	0x9
 1398 05ad 6D       		.byte	0x6d
 1399 05ae EF000000 		.4byte	0xef
 1400 05b2 05       		.uleb128 0x5
 1401 05b3 1A080000 		.4byte	.LASF98
 1402 05b7 04       		.byte	0x4
 1403 05b8 09       		.byte	0x9
 1404 05b9 89       		.byte	0x89
 1405 05ba CB050000 		.4byte	0x5cb
 1406 05be 12       		.uleb128 0x12
 1407 05bf 72313300 		.ascii	"r13\000"
 1408 05c3 09       		.byte	0x9
 1409 05c4 8A       		.byte	0x8a
 1410 05c5 15070000 		.4byte	0x715
 1411 05c9 00       		.byte	0
 1412 05ca 00       		.byte	0
 1413 05cb 05       		.uleb128 0x5
 1414 05cc 7C000000 		.4byte	.LASF99
 1415 05d0 64       		.byte	0x64
 1416 05d1 0A       		.byte	0xa
 1417 05d2 FD       		.byte	0xfd
 1418 05d3 15070000 		.4byte	0x715
 1419 05d7 12       		.uleb128 0x12
 1420 05d8 73313600 		.ascii	"s16\000"
 1421 05dc 0A       		.byte	0xa
 1422 05dd FF       		.byte	0xff
 1423 05de 9C050000 		.4byte	0x59c
 1424 05e2 00       		.byte	0
 1425 05e3 07       		.uleb128 0x7
ARM GAS  /var/folders/m4/4md61f0s1_g0rzfghffqnxvr0000gn/T//ccYVkMSH.s 			page 26


 1426 05e4 73313700 		.ascii	"s17\000"
 1427 05e8 0A       		.byte	0xa
 1428 05e9 0001     		.2byte	0x100
 1429 05eb 9C050000 		.4byte	0x59c
 1430 05ef 04       		.byte	0x4
 1431 05f0 07       		.uleb128 0x7
 1432 05f1 73313800 		.ascii	"s18\000"
 1433 05f5 0A       		.byte	0xa
 1434 05f6 0101     		.2byte	0x101
 1435 05f8 9C050000 		.4byte	0x59c
 1436 05fc 08       		.byte	0x8
 1437 05fd 07       		.uleb128 0x7
 1438 05fe 73313900 		.ascii	"s19\000"
 1439 0602 0A       		.byte	0xa
 1440 0603 0201     		.2byte	0x102
 1441 0605 9C050000 		.4byte	0x59c
 1442 0609 0C       		.byte	0xc
 1443 060a 07       		.uleb128 0x7
 1444 060b 73323000 		.ascii	"s20\000"
 1445 060f 0A       		.byte	0xa
 1446 0610 0301     		.2byte	0x103
 1447 0612 9C050000 		.4byte	0x59c
 1448 0616 10       		.byte	0x10
 1449 0617 07       		.uleb128 0x7
 1450 0618 73323100 		.ascii	"s21\000"
 1451 061c 0A       		.byte	0xa
 1452 061d 0401     		.2byte	0x104
 1453 061f 9C050000 		.4byte	0x59c
 1454 0623 14       		.byte	0x14
 1455 0624 07       		.uleb128 0x7
 1456 0625 73323200 		.ascii	"s22\000"
 1457 0629 0A       		.byte	0xa
 1458 062a 0501     		.2byte	0x105
 1459 062c 9C050000 		.4byte	0x59c
 1460 0630 18       		.byte	0x18
 1461 0631 07       		.uleb128 0x7
 1462 0632 73323300 		.ascii	"s23\000"
 1463 0636 0A       		.byte	0xa
 1464 0637 0601     		.2byte	0x106
 1465 0639 9C050000 		.4byte	0x59c
 1466 063d 1C       		.byte	0x1c
 1467 063e 07       		.uleb128 0x7
 1468 063f 73323400 		.ascii	"s24\000"
 1469 0643 0A       		.byte	0xa
 1470 0644 0701     		.2byte	0x107
 1471 0646 9C050000 		.4byte	0x59c
 1472 064a 20       		.byte	0x20
 1473 064b 07       		.uleb128 0x7
 1474 064c 73323500 		.ascii	"s25\000"
 1475 0650 0A       		.byte	0xa
 1476 0651 0801     		.2byte	0x108
 1477 0653 9C050000 		.4byte	0x59c
 1478 0657 24       		.byte	0x24
 1479 0658 07       		.uleb128 0x7
 1480 0659 73323600 		.ascii	"s26\000"
 1481 065d 0A       		.byte	0xa
 1482 065e 0901     		.2byte	0x109
ARM GAS  /var/folders/m4/4md61f0s1_g0rzfghffqnxvr0000gn/T//ccYVkMSH.s 			page 27


 1483 0660 9C050000 		.4byte	0x59c
 1484 0664 28       		.byte	0x28
 1485 0665 07       		.uleb128 0x7
 1486 0666 73323700 		.ascii	"s27\000"
 1487 066a 0A       		.byte	0xa
 1488 066b 0A01     		.2byte	0x10a
 1489 066d 9C050000 		.4byte	0x59c
 1490 0671 2C       		.byte	0x2c
 1491 0672 07       		.uleb128 0x7
 1492 0673 73323800 		.ascii	"s28\000"
 1493 0677 0A       		.byte	0xa
 1494 0678 0B01     		.2byte	0x10b
 1495 067a 9C050000 		.4byte	0x59c
 1496 067e 30       		.byte	0x30
 1497 067f 07       		.uleb128 0x7
 1498 0680 73323900 		.ascii	"s29\000"
 1499 0684 0A       		.byte	0xa
 1500 0685 0C01     		.2byte	0x10c
 1501 0687 9C050000 		.4byte	0x59c
 1502 068b 34       		.byte	0x34
 1503 068c 07       		.uleb128 0x7
 1504 068d 73333000 		.ascii	"s30\000"
 1505 0691 0A       		.byte	0xa
 1506 0692 0D01     		.2byte	0x10d
 1507 0694 9C050000 		.4byte	0x59c
 1508 0698 38       		.byte	0x38
 1509 0699 07       		.uleb128 0x7
 1510 069a 73333100 		.ascii	"s31\000"
 1511 069e 0A       		.byte	0xa
 1512 069f 0E01     		.2byte	0x10e
 1513 06a1 9C050000 		.4byte	0x59c
 1514 06a5 3C       		.byte	0x3c
 1515 06a6 07       		.uleb128 0x7
 1516 06a7 723400   		.ascii	"r4\000"
 1517 06aa 0A       		.byte	0xa
 1518 06ab 1001     		.2byte	0x110
 1519 06ad 9C050000 		.4byte	0x59c
 1520 06b1 40       		.byte	0x40
 1521 06b2 07       		.uleb128 0x7
 1522 06b3 723500   		.ascii	"r5\000"
 1523 06b6 0A       		.byte	0xa
 1524 06b7 1101     		.2byte	0x111
 1525 06b9 9C050000 		.4byte	0x59c
 1526 06bd 44       		.byte	0x44
 1527 06be 07       		.uleb128 0x7
 1528 06bf 723600   		.ascii	"r6\000"
 1529 06c2 0A       		.byte	0xa
 1530 06c3 1201     		.2byte	0x112
 1531 06c5 9C050000 		.4byte	0x59c
 1532 06c9 48       		.byte	0x48
 1533 06ca 07       		.uleb128 0x7
 1534 06cb 723700   		.ascii	"r7\000"
 1535 06ce 0A       		.byte	0xa
 1536 06cf 1301     		.2byte	0x113
 1537 06d1 9C050000 		.4byte	0x59c
 1538 06d5 4C       		.byte	0x4c
 1539 06d6 07       		.uleb128 0x7
ARM GAS  /var/folders/m4/4md61f0s1_g0rzfghffqnxvr0000gn/T//ccYVkMSH.s 			page 28


 1540 06d7 723800   		.ascii	"r8\000"
 1541 06da 0A       		.byte	0xa
 1542 06db 1401     		.2byte	0x114
 1543 06dd 9C050000 		.4byte	0x59c
 1544 06e1 50       		.byte	0x50
 1545 06e2 07       		.uleb128 0x7
 1546 06e3 723900   		.ascii	"r9\000"
 1547 06e6 0A       		.byte	0xa
 1548 06e7 1501     		.2byte	0x115
 1549 06e9 9C050000 		.4byte	0x59c
 1550 06ed 54       		.byte	0x54
 1551 06ee 07       		.uleb128 0x7
 1552 06ef 72313000 		.ascii	"r10\000"
 1553 06f3 0A       		.byte	0xa
 1554 06f4 1601     		.2byte	0x116
 1555 06f6 9C050000 		.4byte	0x59c
 1556 06fa 58       		.byte	0x58
 1557 06fb 07       		.uleb128 0x7
 1558 06fc 72313100 		.ascii	"r11\000"
 1559 0700 0A       		.byte	0xa
 1560 0701 1701     		.2byte	0x117
 1561 0703 9C050000 		.4byte	0x59c
 1562 0707 5C       		.byte	0x5c
 1563 0708 07       		.uleb128 0x7
 1564 0709 6C7200   		.ascii	"lr\000"
 1565 070c 0A       		.byte	0xa
 1566 070d 1801     		.2byte	0x118
 1567 070f 9C050000 		.4byte	0x59c
 1568 0713 60       		.byte	0x60
 1569 0714 00       		.byte	0
 1570 0715 09       		.uleb128 0x9
 1571 0716 04       		.byte	0x4
 1572 0717 CB050000 		.4byte	0x5cb
 1573 071b 13       		.uleb128 0x13
 1574 071c 04       		.byte	0x4
 1575 071d 0B       		.byte	0xb
 1576 071e 38       		.byte	0x38
 1577 071f 30070000 		.4byte	0x730
 1578 0723 06       		.uleb128 0x6
 1579 0724 F7070000 		.4byte	.LASF100
 1580 0728 0B       		.byte	0xb
 1581 0729 3C       		.byte	0x3c
 1582 072a FA000000 		.4byte	0xfa
 1583 072e 00       		.byte	0
 1584 072f 00       		.byte	0
 1585 0730 03       		.uleb128 0x3
 1586 0731 40040000 		.4byte	.LASF101
 1587 0735 0B       		.byte	0xb
 1588 0736 3D       		.byte	0x3d
 1589 0737 1B070000 		.4byte	0x71b
 1590 073b 14       		.uleb128 0x14
 1591 073c 04       		.byte	0x4
 1592 073d 07       		.byte	0x7
 1593 073e FA       		.byte	0xfa
 1594 073f 98070000 		.4byte	0x798
 1595 0743 15       		.uleb128 0x15
 1596 0744 5B000000 		.4byte	.LASF102
ARM GAS  /var/folders/m4/4md61f0s1_g0rzfghffqnxvr0000gn/T//ccYVkMSH.s 			page 29


 1597 0748 07       		.byte	0x7
 1598 0749 0101     		.2byte	0x101
 1599 074b 3C010000 		.4byte	0x13c
 1600 074f 15       		.uleb128 0x15
 1601 0750 C7000000 		.4byte	.LASF103
 1602 0754 07       		.byte	0x7
 1603 0755 0801     		.2byte	0x108
 1604 0757 3C010000 		.4byte	0x13c
 1605 075b 15       		.uleb128 0x15
 1606 075c AB080000 		.4byte	.LASF104
 1607 0760 07       		.byte	0x7
 1608 0761 0F01     		.2byte	0x10f
 1609 0763 60030000 		.4byte	0x360
 1610 0767 15       		.uleb128 0x15
 1611 0768 E5030000 		.4byte	.LASF105
 1612 076c 07       		.byte	0x7
 1613 076d 1601     		.2byte	0x116
 1614 076f 98070000 		.4byte	0x798
 1615 0773 15       		.uleb128 0x15
 1616 0774 92020000 		.4byte	.LASF106
 1617 0778 07       		.byte	0x7
 1618 0779 1E01     		.2byte	0x11e
 1619 077b C3070000 		.4byte	0x7c3
 1620 077f 15       		.uleb128 0x15
 1621 0780 11060000 		.4byte	.LASF107
 1622 0784 07       		.byte	0x7
 1623 0785 2701     		.2byte	0x127
 1624 0787 FA070000 		.4byte	0x7fa
 1625 078b 15       		.uleb128 0x15
 1626 078c 90050000 		.4byte	.LASF108
 1627 0790 07       		.byte	0x7
 1628 0791 2F01     		.2byte	0x12f
 1629 0793 47010000 		.4byte	0x147
 1630 0797 00       		.byte	0
 1631 0798 09       		.uleb128 0x9
 1632 0799 04       		.byte	0x4
 1633 079a 78020000 		.4byte	0x278
 1634 079e 05       		.uleb128 0x5
 1635 079f D5050000 		.4byte	.LASF109
 1636 07a3 0C       		.byte	0xc
 1637 07a4 0C       		.byte	0xc
 1638 07a5 34       		.byte	0x34
 1639 07a6 C3070000 		.4byte	0x7c3
 1640 07aa 06       		.uleb128 0x6
 1641 07ab F6010000 		.4byte	.LASF110
 1642 07af 0C       		.byte	0xc
 1643 07b0 35       		.byte	0x35
 1644 07b1 AD020000 		.4byte	0x2ad
 1645 07b5 00       		.byte	0
 1646 07b6 06       		.uleb128 0x6
 1647 07b7 C0020000 		.4byte	.LASF111
 1648 07bb 0C       		.byte	0xc
 1649 07bc 37       		.byte	0x37
 1650 07bd 52010000 		.4byte	0x152
 1651 07c1 08       		.byte	0x8
 1652 07c2 00       		.byte	0
 1653 07c3 09       		.uleb128 0x9
ARM GAS  /var/folders/m4/4md61f0s1_g0rzfghffqnxvr0000gn/T//ccYVkMSH.s 			page 30


 1654 07c4 04       		.byte	0x4
 1655 07c5 9E070000 		.4byte	0x79e
 1656 07c9 05       		.uleb128 0x5
 1657 07ca 7E080000 		.4byte	.LASF112
 1658 07ce 10       		.byte	0x10
 1659 07cf 0D       		.byte	0xd
 1660 07d0 39       		.byte	0x39
 1661 07d1 FA070000 		.4byte	0x7fa
 1662 07d5 06       		.uleb128 0x6
 1663 07d6 9D010000 		.4byte	.LASF113
 1664 07da 0D       		.byte	0xd
 1665 07db 3A       		.byte	0x3a
 1666 07dc AD020000 		.4byte	0x2ad
 1667 07e0 00       		.byte	0
 1668 07e1 06       		.uleb128 0x6
 1669 07e2 EB080000 		.4byte	.LASF114
 1670 07e6 0D       		.byte	0xd
 1671 07e7 3C       		.byte	0x3c
 1672 07e8 83020000 		.4byte	0x283
 1673 07ec 08       		.byte	0x8
 1674 07ed 06       		.uleb128 0x6
 1675 07ee 88060000 		.4byte	.LASF115
 1676 07f2 0D       		.byte	0xd
 1677 07f3 3E       		.byte	0x3e
 1678 07f4 3D080000 		.4byte	0x83d
 1679 07f8 0C       		.byte	0xc
 1680 07f9 00       		.byte	0
 1681 07fa 09       		.uleb128 0x9
 1682 07fb 04       		.byte	0x4
 1683 07fc C9070000 		.4byte	0x7c9
 1684 0800 09       		.uleb128 0x9
 1685 0801 04       		.byte	0x4
 1686 0802 06080000 		.4byte	0x806
 1687 0806 16       		.uleb128 0x16
 1688 0807 0B080000 		.4byte	0x80b
 1689 080b 04       		.uleb128 0x4
 1690 080c 01       		.byte	0x1
 1691 080d 08       		.byte	0x8
 1692 080e 56060000 		.4byte	.LASF116
 1693 0812 0F       		.uleb128 0xf
 1694 0813 5D010000 		.4byte	0x15d
 1695 0817 09       		.uleb128 0x9
 1696 0818 04       		.byte	0x4
 1697 0819 62030000 		.4byte	0x362
 1698 081d 0F       		.uleb128 0xf
 1699 081e 00080000 		.4byte	0x800
 1700 0822 17       		.uleb128 0x17
 1701 0823 A7050000 		.4byte	0x5a7
 1702 0827 32080000 		.4byte	0x832
 1703 082b 18       		.uleb128 0x18
 1704 082c 96040000 		.4byte	0x496
 1705 0830 3A       		.byte	0x3a
 1706 0831 00       		.byte	0
 1707 0832 03       		.uleb128 0x3
 1708 0833 4D020000 		.4byte	.LASF117
 1709 0837 0D       		.byte	0xd
 1710 0838 34       		.byte	0x34
ARM GAS  /var/folders/m4/4md61f0s1_g0rzfghffqnxvr0000gn/T//ccYVkMSH.s 			page 31


 1711 0839 C9070000 		.4byte	0x7c9
 1712 083d 09       		.uleb128 0x9
 1713 083e 04       		.byte	0x4
 1714 083f 32080000 		.4byte	0x832
 1715 0843 09       		.uleb128 0x9
 1716 0844 04       		.byte	0x4
 1717 0845 B8000000 		.4byte	0xb8
 1718 0849 09       		.uleb128 0x9
 1719 084a 04       		.byte	0x4
 1720 084b 4F080000 		.4byte	0x84f
 1721 084f 16       		.uleb128 0x16
 1722 0850 B8000000 		.4byte	0xb8
 1723 0854 10       		.uleb128 0x10
 1724 0855 0C       		.byte	0xc
 1725 0856 0E       		.byte	0xe
 1726 0857 6D01     		.2byte	0x16d
 1727 0859 9F080000 		.4byte	0x89f
 1728 085d 08       		.uleb128 0x8
 1729 085e 9D000000 		.4byte	.LASF118
 1730 0862 0E       		.byte	0xe
 1731 0863 6E01     		.2byte	0x16e
 1732 0865 9F080000 		.4byte	0x89f
 1733 0869 00       		.byte	0
 1734 086a 08       		.uleb128 0x8
 1735 086b 98040000 		.4byte	.LASF119
 1736 086f 0E       		.byte	0xe
 1737 0870 6F01     		.2byte	0x16f
 1738 0872 A5080000 		.4byte	0x8a5
 1739 0876 04       		.byte	0x4
 1740 0877 08       		.uleb128 0x8
 1741 0878 B9020000 		.4byte	.LASF120
 1742 087c 0E       		.byte	0xe
 1743 087d 7001     		.2byte	0x170
 1744 087f B8000000 		.4byte	0xb8
 1745 0883 08       		.byte	0x8
 1746 0884 08       		.uleb128 0x8
 1747 0885 56080000 		.4byte	.LASF121
 1748 0889 0E       		.byte	0xe
 1749 088a 7201     		.2byte	0x172
 1750 088c B8000000 		.4byte	0xb8
 1751 0890 09       		.byte	0x9
 1752 0891 08       		.uleb128 0x8
 1753 0892 FA080000 		.4byte	.LASF122
 1754 0896 0E       		.byte	0xe
 1755 0897 7301     		.2byte	0x173
 1756 0899 B8000000 		.4byte	0xb8
 1757 089d 0A       		.byte	0xa
 1758 089e 00       		.byte	0
 1759 089f 09       		.uleb128 0x9
 1760 08a0 04       		.byte	0x4
 1761 08a1 F9040000 		.4byte	0x4f9
 1762 08a5 09       		.uleb128 0x9
 1763 08a6 04       		.byte	0x4
 1764 08a7 9D040000 		.4byte	0x49d
 1765 08ab 11       		.uleb128 0x11
 1766 08ac DC040000 		.4byte	.LASF123
 1767 08b0 0E       		.byte	0xe
ARM GAS  /var/folders/m4/4md61f0s1_g0rzfghffqnxvr0000gn/T//ccYVkMSH.s 			page 32


 1768 08b1 7401     		.2byte	0x174
 1769 08b3 54080000 		.4byte	0x854
 1770 08b7 04       		.uleb128 0x4
 1771 08b8 01       		.byte	0x1
 1772 08b9 02       		.byte	0x2
 1773 08ba 3B050000 		.4byte	.LASF124
 1774 08be 13       		.uleb128 0x13
 1775 08bf 04       		.byte	0x4
 1776 08c0 0F       		.byte	0xf
 1777 08c1 E7       		.byte	0xe7
 1778 08c2 DF080000 		.4byte	0x8df
 1779 08c6 12       		.uleb128 0x12
 1780 08c7 73657400 		.ascii	"set\000"
 1781 08cb 0F       		.byte	0xf
 1782 08cc E8       		.byte	0xe8
 1783 08cd CE000000 		.4byte	0xce
 1784 08d1 00       		.byte	0
 1785 08d2 06       		.uleb128 0x6
 1786 08d3 DF030000 		.4byte	.LASF125
 1787 08d7 0F       		.byte	0xf
 1788 08d8 E9       		.byte	0xe9
 1789 08d9 CE000000 		.4byte	0xce
 1790 08dd 02       		.byte	0x2
 1791 08de 00       		.byte	0
 1792 08df 14       		.uleb128 0x14
 1793 08e0 04       		.byte	0x4
 1794 08e1 0F       		.byte	0xf
 1795 08e2 E5       		.byte	0xe5
 1796 08e3 FA080000 		.4byte	0x8fa
 1797 08e7 19       		.uleb128 0x19
 1798 08e8 5700     		.ascii	"W\000"
 1799 08ea 0F       		.byte	0xf
 1800 08eb E6       		.byte	0xe6
 1801 08ec E4000000 		.4byte	0xe4
 1802 08f0 19       		.uleb128 0x19
 1803 08f1 4800     		.ascii	"H\000"
 1804 08f3 0F       		.byte	0xf
 1805 08f4 EA       		.byte	0xea
 1806 08f5 BE080000 		.4byte	0x8be
 1807 08f9 00       		.byte	0
 1808 08fa 13       		.uleb128 0x13
 1809 08fb 2C       		.byte	0x2c
 1810 08fc 0F       		.byte	0xf
 1811 08fd DD       		.byte	0xdd
 1812 08fe 87090000 		.4byte	0x987
 1813 0902 06       		.uleb128 0x6
 1814 0903 A4000000 		.4byte	.LASF126
 1815 0907 0F       		.byte	0xf
 1816 0908 DF       		.byte	0xdf
 1817 0909 9D040000 		.4byte	0x49d
 1818 090d 00       		.byte	0
 1819 090e 06       		.uleb128 0x6
 1820 090f 75000000 		.4byte	.LASF127
 1821 0913 0F       		.byte	0xf
 1822 0914 E0       		.byte	0xe0
 1823 0915 9D040000 		.4byte	0x49d
 1824 0919 04       		.byte	0x4
ARM GAS  /var/folders/m4/4md61f0s1_g0rzfghffqnxvr0000gn/T//ccYVkMSH.s 			page 33


 1825 091a 06       		.uleb128 0x6
 1826 091b 0E020000 		.4byte	.LASF128
 1827 091f 0F       		.byte	0xf
 1828 0920 E1       		.byte	0xe1
 1829 0921 9D040000 		.4byte	0x49d
 1830 0925 08       		.byte	0x8
 1831 0926 06       		.uleb128 0x6
 1832 0927 C1000000 		.4byte	.LASF129
 1833 092b 0F       		.byte	0xf
 1834 092c E2       		.byte	0xe2
 1835 092d 9D040000 		.4byte	0x49d
 1836 0931 0C       		.byte	0xc
 1837 0932 12       		.uleb128 0x12
 1838 0933 49445200 		.ascii	"IDR\000"
 1839 0937 0F       		.byte	0xf
 1840 0938 E3       		.byte	0xe3
 1841 0939 9D040000 		.4byte	0x49d
 1842 093d 10       		.byte	0x10
 1843 093e 12       		.uleb128 0x12
 1844 093f 4F445200 		.ascii	"ODR\000"
 1845 0943 0F       		.byte	0xf
 1846 0944 E4       		.byte	0xe4
 1847 0945 9D040000 		.4byte	0x49d
 1848 0949 14       		.byte	0x14
 1849 094a 06       		.uleb128 0x6
 1850 094b 73010000 		.4byte	.LASF130
 1851 094f 0F       		.byte	0xf
 1852 0950 EB       		.byte	0xeb
 1853 0951 87090000 		.4byte	0x987
 1854 0955 18       		.byte	0x18
 1855 0956 06       		.uleb128 0x6
 1856 0957 B4020000 		.4byte	.LASF131
 1857 095b 0F       		.byte	0xf
 1858 095c EC       		.byte	0xec
 1859 095d 9D040000 		.4byte	0x49d
 1860 0961 1C       		.byte	0x1c
 1861 0962 06       		.uleb128 0x6
 1862 0963 93040000 		.4byte	.LASF132
 1863 0967 0F       		.byte	0xf
 1864 0968 ED       		.byte	0xed
 1865 0969 9D040000 		.4byte	0x49d
 1866 096d 20       		.byte	0x20
 1867 096e 06       		.uleb128 0x6
 1868 096f 8E040000 		.4byte	.LASF133
 1869 0973 0F       		.byte	0xf
 1870 0974 EE       		.byte	0xee
 1871 0975 9D040000 		.4byte	0x49d
 1872 0979 24       		.byte	0x24
 1873 097a 12       		.uleb128 0x12
 1874 097b 42525200 		.ascii	"BRR\000"
 1875 097f 0F       		.byte	0xf
 1876 0980 EF       		.byte	0xef
 1877 0981 9D040000 		.4byte	0x49d
 1878 0985 28       		.byte	0x28
 1879 0986 00       		.byte	0
 1880 0987 0F       		.uleb128 0xf
 1881 0988 DF080000 		.4byte	0x8df
ARM GAS  /var/folders/m4/4md61f0s1_g0rzfghffqnxvr0000gn/T//ccYVkMSH.s 			page 34


 1882 098c 03       		.uleb128 0x3
 1883 098d 40020000 		.4byte	.LASF134
 1884 0991 0F       		.byte	0xf
 1885 0992 F0       		.byte	0xf0
 1886 0993 FA080000 		.4byte	0x8fa
 1887 0997 11       		.uleb128 0x11
 1888 0998 FF030000 		.4byte	.LASF135
 1889 099c 0F       		.byte	0xf
 1890 099d 3F01     		.2byte	0x13f
 1891 099f E4000000 		.4byte	0xe4
 1892 09a3 11       		.uleb128 0x11
 1893 09a4 E2080000 		.4byte	.LASF136
 1894 09a8 0F       		.byte	0xf
 1895 09a9 4401     		.2byte	0x144
 1896 09ab E4000000 		.4byte	0xe4
 1897 09af 11       		.uleb128 0x11
 1898 09b0 0F080000 		.4byte	.LASF137
 1899 09b4 0F       		.byte	0xf
 1900 09b5 5101     		.2byte	0x151
 1901 09b7 BB090000 		.4byte	0x9bb
 1902 09bb 09       		.uleb128 0x9
 1903 09bc 04       		.byte	0x4
 1904 09bd 8C090000 		.4byte	0x98c
 1905 09c1 09       		.uleb128 0x9
 1906 09c2 04       		.byte	0x4
 1907 09c3 C7090000 		.4byte	0x9c7
 1908 09c7 16       		.uleb128 0x16
 1909 09c8 AB080000 		.4byte	0x8ab
 1910 09cc 1A       		.uleb128 0x1a
 1911 09cd 01       		.byte	0x1
 1912 09ce 10       		.byte	0x10
 1913 09cf 4C       		.byte	0x4c
 1914 09d0 F9090000 		.4byte	0x9f9
 1915 09d4 1B       		.uleb128 0x1b
 1916 09d5 6C050000 		.4byte	.LASF138
 1917 09d9 00       		.sleb128 0
 1918 09da 1B       		.uleb128 0x1b
 1919 09db A3030000 		.4byte	.LASF139
 1920 09df 01       		.sleb128 1
 1921 09e0 1B       		.uleb128 0x1b
 1922 09e1 ED070000 		.4byte	.LASF140
 1923 09e5 02       		.sleb128 2
 1924 09e6 1B       		.uleb128 0x1b
 1925 09e7 05050000 		.4byte	.LASF141
 1926 09eb 03       		.sleb128 3
 1927 09ec 1B       		.uleb128 0x1b
 1928 09ed 36060000 		.4byte	.LASF142
 1929 09f1 04       		.sleb128 4
 1930 09f2 1B       		.uleb128 0x1b
 1931 09f3 CA050000 		.4byte	.LASF143
 1932 09f7 05       		.sleb128 5
 1933 09f8 00       		.byte	0
 1934 09f9 03       		.uleb128 0x3
 1935 09fa A5040000 		.4byte	.LASF144
 1936 09fe 10       		.byte	0x10
 1937 09ff 53       		.byte	0x53
 1938 0a00 CC090000 		.4byte	0x9cc
ARM GAS  /var/folders/m4/4md61f0s1_g0rzfghffqnxvr0000gn/T//ccYVkMSH.s 			page 35


 1939 0a04 11       		.uleb128 0x11
 1940 0a05 BB010000 		.4byte	.LASF145
 1941 0a09 11       		.byte	0x11
 1942 0a0a 6A01     		.2byte	0x16a
 1943 0a0c CE000000 		.4byte	0xce
 1944 0a10 11       		.uleb128 0x11
 1945 0a11 57050000 		.4byte	.LASF146
 1946 0a15 11       		.byte	0x11
 1947 0a16 6F01     		.2byte	0x16f
 1948 0a18 E4000000 		.4byte	0xe4
 1949 0a1c 1C       		.uleb128 0x1c
 1950 0a1d 01       		.byte	0x1
 1951 0a1e 11       		.byte	0x11
 1952 0a1f 7401     		.2byte	0x174
 1953 0a21 380A0000 		.4byte	0xa38
 1954 0a25 1B       		.uleb128 0x1b
 1955 0a26 51040000 		.4byte	.LASF147
 1956 0a2a 01       		.sleb128 1
 1957 0a2b 1B       		.uleb128 0x1b
 1958 0a2c C6020000 		.4byte	.LASF148
 1959 0a30 02       		.sleb128 2
 1960 0a31 1B       		.uleb128 0x1b
 1961 0a32 5B060000 		.4byte	.LASF149
 1962 0a36 03       		.sleb128 3
 1963 0a37 00       		.byte	0
 1964 0a38 11       		.uleb128 0x11
 1965 0a39 D6080000 		.4byte	.LASF150
 1966 0a3d 11       		.byte	0x11
 1967 0a3e 7801     		.2byte	0x178
 1968 0a40 1C0A0000 		.4byte	0xa1c
 1969 0a44 1C       		.uleb128 0x1c
 1970 0a45 01       		.byte	0x1
 1971 0a46 11       		.byte	0x11
 1972 0a47 7D01     		.2byte	0x17d
 1973 0a49 600A0000 		.4byte	0xa60
 1974 0a4d 1B       		.uleb128 0x1b
 1975 0a4e 42030000 		.4byte	.LASF151
 1976 0a52 01       		.sleb128 1
 1977 0a53 1B       		.uleb128 0x1b
 1978 0a54 B8050000 		.4byte	.LASF152
 1979 0a58 02       		.sleb128 2
 1980 0a59 1B       		.uleb128 0x1b
 1981 0a5a B0040000 		.4byte	.LASF153
 1982 0a5e 03       		.sleb128 3
 1983 0a5f 00       		.byte	0
 1984 0a60 11       		.uleb128 0x11
 1985 0a61 32000000 		.4byte	.LASF154
 1986 0a65 11       		.byte	0x11
 1987 0a66 8101     		.2byte	0x181
 1988 0a68 440A0000 		.4byte	0xa44
 1989 0a6c 10       		.uleb128 0x10
 1990 0a6d 0C       		.byte	0xc
 1991 0a6e 11       		.byte	0x11
 1992 0a6f 8601     		.2byte	0x186
 1993 0a71 9D0A0000 		.4byte	0xa9d
 1994 0a75 08       		.uleb128 0x8
 1995 0a76 53000000 		.4byte	.LASF155
ARM GAS  /var/folders/m4/4md61f0s1_g0rzfghffqnxvr0000gn/T//ccYVkMSH.s 			page 36


 1996 0a7a 11       		.byte	0x11
 1997 0a7b 8801     		.2byte	0x188
 1998 0a7d 380A0000 		.4byte	0xa38
 1999 0a81 00       		.byte	0
 2000 0a82 08       		.uleb128 0x8
 2001 0a83 78010000 		.4byte	.LASF156
 2002 0a87 11       		.byte	0x11
 2003 0a88 8901     		.2byte	0x189
 2004 0a8a E4000000 		.4byte	0xe4
 2005 0a8e 04       		.byte	0x4
 2006 0a8f 08       		.uleb128 0x8
 2007 0a90 F4030000 		.4byte	.LASF157
 2008 0a94 11       		.byte	0x11
 2009 0a95 8C01     		.2byte	0x18c
 2010 0a97 600A0000 		.4byte	0xa60
 2011 0a9b 08       		.byte	0x8
 2012 0a9c 00       		.byte	0
 2013 0a9d 11       		.uleb128 0x11
 2014 0a9e 14040000 		.4byte	.LASF158
 2015 0aa2 11       		.byte	0x11
 2016 0aa3 8E01     		.2byte	0x18e
 2017 0aa5 6C0A0000 		.4byte	0xa6c
 2018 0aa9 11       		.uleb128 0x11
 2019 0aaa ED020000 		.4byte	.LASF159
 2020 0aae 11       		.byte	0x11
 2021 0aaf 9301     		.2byte	0x193
 2022 0ab1 B50A0000 		.4byte	0xab5
 2023 0ab5 0A       		.uleb128 0xa
 2024 0ab6 ED020000 		.4byte	.LASF159
 2025 0aba 38       		.byte	0x38
 2026 0abb 11       		.byte	0x11
 2027 0abc 9801     		.2byte	0x198
 2028 0abe 520B0000 		.4byte	0xb52
 2029 0ac2 08       		.uleb128 0x8
 2030 0ac3 C5010000 		.4byte	.LASF160
 2031 0ac7 11       		.byte	0x11
 2032 0ac8 9C01     		.2byte	0x19c
 2033 0aca F9090000 		.4byte	0x9f9
 2034 0ace 00       		.byte	0
 2035 0acf 08       		.uleb128 0x8
 2036 0ad0 6D060000 		.4byte	.LASF161
 2037 0ad4 11       		.byte	0x11
 2038 0ad5 A001     		.2byte	0x1a0
 2039 0ad7 520B0000 		.4byte	0xb52
 2040 0adb 04       		.byte	0x4
 2041 0adc 08       		.uleb128 0x8
 2042 0add 99020000 		.4byte	.LASF162
 2043 0ae1 11       		.byte	0x11
 2044 0ae2 A401     		.2byte	0x1a4
 2045 0ae4 100A0000 		.4byte	0xa10
 2046 0ae8 08       		.byte	0x8
 2047 0ae9 08       		.uleb128 0x8
 2048 0aea 25050000 		.4byte	.LASF163
 2049 0aee 11       		.byte	0x11
 2050 0aef A901     		.2byte	0x1a9
 2051 0af1 32080000 		.4byte	0x832
 2052 0af5 0C       		.byte	0xc
ARM GAS  /var/folders/m4/4md61f0s1_g0rzfghffqnxvr0000gn/T//ccYVkMSH.s 			page 37


 2053 0af6 08       		.uleb128 0x8
 2054 0af7 B8060000 		.4byte	.LASF164
 2055 0afb 11       		.byte	0x11
 2056 0afc B201     		.2byte	0x1b2
 2057 0afe 78020000 		.4byte	0x278
 2058 0b02 1C       		.byte	0x1c
 2059 0b03 08       		.uleb128 0x8
 2060 0b04 A5010000 		.4byte	.LASF165
 2061 0b08 11       		.byte	0x11
 2062 0b09 B601     		.2byte	0x1b6
 2063 0b0b 040A0000 		.4byte	0xa04
 2064 0b0f 20       		.byte	0x20
 2065 0b10 08       		.uleb128 0x8
 2066 0b11 FE010000 		.4byte	.LASF166
 2067 0b15 11       		.byte	0x11
 2068 0b16 BA01     		.2byte	0x1ba
 2069 0b18 E4000000 		.4byte	0xe4
 2070 0b1c 24       		.byte	0x24
 2071 0b1d 08       		.uleb128 0x8
 2072 0b1e 24040000 		.4byte	.LASF167
 2073 0b22 11       		.byte	0x11
 2074 0b23 BE01     		.2byte	0x1be
 2075 0b25 E4000000 		.4byte	0xe4
 2076 0b29 28       		.byte	0x28
 2077 0b2a 08       		.uleb128 0x8
 2078 0b2b 2C000000 		.4byte	.LASF168
 2079 0b2f 11       		.byte	0x11
 2080 0b30 C201     		.2byte	0x1c2
 2081 0b32 C1090000 		.4byte	0x9c1
 2082 0b36 2C       		.byte	0x2c
 2083 0b37 08       		.uleb128 0x8
 2084 0b38 08020000 		.4byte	.LASF169
 2085 0b3c 11       		.byte	0x11
 2086 0b3d C601     		.2byte	0x1c6
 2087 0b3f C1090000 		.4byte	0x9c1
 2088 0b43 30       		.byte	0x30
 2089 0b44 07       		.uleb128 0x7
 2090 0b45 69326300 		.ascii	"i2c\000"
 2091 0b49 11       		.byte	0x11
 2092 0b4a CA01     		.2byte	0x1ca
 2093 0b4c 5D0B0000 		.4byte	0xb5d
 2094 0b50 34       		.byte	0x34
 2095 0b51 00       		.byte	0
 2096 0b52 09       		.uleb128 0x9
 2097 0b53 04       		.byte	0x4
 2098 0b54 580B0000 		.4byte	0xb58
 2099 0b58 16       		.uleb128 0x16
 2100 0b59 9D0A0000 		.4byte	0xa9d
 2101 0b5d 09       		.uleb128 0x9
 2102 0b5e 04       		.byte	0x4
 2103 0b5f 90050000 		.4byte	0x590
 2104 0b63 13       		.uleb128 0x13
 2105 0b64 18       		.byte	0x18
 2106 0b65 12       		.byte	0x12
 2107 0b66 B1       		.byte	0xb1
 2108 0b67 8A0B0000 		.4byte	0xb8a
 2109 0b6b 12       		.uleb128 0x12
ARM GAS  /var/folders/m4/4md61f0s1_g0rzfghffqnxvr0000gn/T//ccYVkMSH.s 			page 38


 2110 0b6c 7800     		.ascii	"x\000"
 2111 0b6e 12       		.byte	0x12
 2112 0b6f B2       		.byte	0xb2
 2113 0b70 8A0B0000 		.4byte	0xb8a
 2114 0b74 00       		.byte	0
 2115 0b75 12       		.uleb128 0x12
 2116 0b76 7900     		.ascii	"y\000"
 2117 0b78 12       		.byte	0x12
 2118 0b79 B3       		.byte	0xb3
 2119 0b7a 8A0B0000 		.4byte	0xb8a
 2120 0b7e 08       		.byte	0x8
 2121 0b7f 12       		.uleb128 0x12
 2122 0b80 7A00     		.ascii	"z\000"
 2123 0b82 12       		.byte	0x12
 2124 0b83 B4       		.byte	0xb4
 2125 0b84 8A0B0000 		.4byte	0xb8a
 2126 0b88 10       		.byte	0x10
 2127 0b89 00       		.byte	0
 2128 0b8a 04       		.uleb128 0x4
 2129 0b8b 08       		.byte	0x8
 2130 0b8c 04       		.byte	0x4
 2131 0b8d F3080000 		.4byte	.LASF170
 2132 0b91 03       		.uleb128 0x3
 2133 0b92 51010000 		.4byte	.LASF171
 2134 0b96 12       		.byte	0x12
 2135 0b97 B5       		.byte	0xb5
 2136 0b98 630B0000 		.4byte	0xb63
 2137 0b9c 1D       		.uleb128 0x1d
 2138 0b9d FE070000 		.4byte	.LASF179
 2139 0ba1 01       		.byte	0x1
 2140 0ba2 62       		.byte	0x62
 2141 0ba3 B8000000 		.4byte	0xb8
 2142 0ba7 00000000 		.4byte	.LFB272
 2143 0bab 38000000 		.4byte	.LFE272-.LFB272
 2144 0baf 01       		.uleb128 0x1
 2145 0bb0 9C       		.byte	0x9c
 2146 0bb1 550C0000 		.4byte	0xc55
 2147 0bb5 1E       		.uleb128 0x1e
 2148 0bb6 A5010000 		.4byte	.LASF165
 2149 0bba 01       		.byte	0x1
 2150 0bbb 62       		.byte	0x62
 2151 0bbc B8000000 		.4byte	0xb8
 2152 0bc0 00000000 		.4byte	.LLST0
 2153 0bc4 1F       		.uleb128 0x1f
 2154 0bc5 746D6F00 		.ascii	"tmo\000"
 2155 0bc9 01       		.byte	0x1
 2156 0bca 64       		.byte	0x64
 2157 0bcb 5D010000 		.4byte	0x15d
 2158 0bcf 28       		.byte	0x28
 2159 0bd0 20       		.uleb128 0x20
 2160 0bd1 85020000 		.4byte	.LASF172
 2161 0bd5 01       		.byte	0x1
 2162 0bd6 65       		.byte	0x65
 2163 0bd7 550C0000 		.4byte	0xc55
 2164 0bdb 02       		.uleb128 0x2
 2165 0bdc 91       		.byte	0x91
 2166 0bdd 68       		.sleb128 -24
ARM GAS  /var/folders/m4/4md61f0s1_g0rzfghffqnxvr0000gn/T//ccYVkMSH.s 			page 39


 2167 0bde 20       		.uleb128 0x20
 2168 0bdf 08010000 		.4byte	.LASF173
 2169 0be3 01       		.byte	0x1
 2170 0be4 66       		.byte	0x66
 2171 0be5 550C0000 		.4byte	0xc55
 2172 0be9 02       		.uleb128 0x2
 2173 0bea 91       		.byte	0x91
 2174 0beb 6C       		.sleb128 -20
 2175 0bec 21       		.uleb128 0x21
 2176 0bed 44010000 		.4byte	.LASF178
 2177 0bf1 01       		.byte	0x1
 2178 0bf2 69       		.byte	0x69
 2179 0bf3 B8000000 		.4byte	0xb8
 2180 0bf7 22       		.uleb128 0x22
 2181 0bf8 14000000 		.4byte	.LVL2
 2182 0bfc 19110000 		.4byte	0x1119
 2183 0c00 0B0C0000 		.4byte	0xc0b
 2184 0c04 23       		.uleb128 0x23
 2185 0c05 01       		.uleb128 0x1
 2186 0c06 50       		.byte	0x50
 2187 0c07 02       		.uleb128 0x2
 2188 0c08 74       		.byte	0x74
 2189 0c09 00       		.sleb128 0
 2190 0c0a 00       		.byte	0
 2191 0c0b 22       		.uleb128 0x22
 2192 0c0c 26000000 		.4byte	.LVL3
 2193 0c10 30110000 		.4byte	0x1130
 2194 0c14 440C0000 		.4byte	0xc44
 2195 0c18 23       		.uleb128 0x23
 2196 0c19 01       		.uleb128 0x1
 2197 0c1a 53       		.byte	0x53
 2198 0c1b 01       		.uleb128 0x1
 2199 0c1c 31       		.byte	0x31
 2200 0c1d 23       		.uleb128 0x23
 2201 0c1e 01       		.uleb128 0x1
 2202 0c1f 52       		.byte	0x52
 2203 0c20 02       		.uleb128 0x2
 2204 0c21 75       		.byte	0x75
 2205 0c22 00       		.sleb128 0
 2206 0c23 23       		.uleb128 0x23
 2207 0c24 01       		.uleb128 0x1
 2208 0c25 51       		.byte	0x51
 2209 0c26 02       		.uleb128 0x2
 2210 0c27 08       		.byte	0x8
 2211 0c28 28       		.byte	0x28
 2212 0c29 23       		.uleb128 0x23
 2213 0c2a 01       		.uleb128 0x1
 2214 0c2b 50       		.byte	0x50
 2215 0c2c 02       		.uleb128 0x2
 2216 0c2d 74       		.byte	0x74
 2217 0c2e 00       		.sleb128 0
 2218 0c2f 23       		.uleb128 0x23
 2219 0c30 02       		.uleb128 0x2
 2220 0c31 7D       		.byte	0x7d
 2221 0c32 08       		.sleb128 8
 2222 0c33 02       		.uleb128 0x2
 2223 0c34 08       		.byte	0x8
ARM GAS  /var/folders/m4/4md61f0s1_g0rzfghffqnxvr0000gn/T//ccYVkMSH.s 			page 40


 2224 0c35 28       		.byte	0x28
 2225 0c36 23       		.uleb128 0x23
 2226 0c37 02       		.uleb128 0x2
 2227 0c38 7D       		.byte	0x7d
 2228 0c39 04       		.sleb128 4
 2229 0c3a 01       		.uleb128 0x1
 2230 0c3b 31       		.byte	0x31
 2231 0c3c 23       		.uleb128 0x23
 2232 0c3d 02       		.uleb128 0x2
 2233 0c3e 7D       		.byte	0x7d
 2234 0c3f 00       		.sleb128 0
 2235 0c40 02       		.uleb128 0x2
 2236 0c41 76       		.byte	0x76
 2237 0c42 00       		.sleb128 0
 2238 0c43 00       		.byte	0
 2239 0c44 24       		.uleb128 0x24
 2240 0c45 2C000000 		.4byte	.LVL4
 2241 0c49 63110000 		.4byte	0x1163
 2242 0c4d 23       		.uleb128 0x23
 2243 0c4e 01       		.uleb128 0x1
 2244 0c4f 50       		.byte	0x50
 2245 0c50 02       		.uleb128 0x2
 2246 0c51 74       		.byte	0x74
 2247 0c52 00       		.sleb128 0
 2248 0c53 00       		.byte	0
 2249 0c54 00       		.byte	0
 2250 0c55 17       		.uleb128 0x17
 2251 0c56 B8000000 		.4byte	0xb8
 2252 0c5a 650C0000 		.4byte	0xc65
 2253 0c5e 18       		.uleb128 0x18
 2254 0c5f 96040000 		.4byte	0x496
 2255 0c63 00       		.byte	0
 2256 0c64 00       		.byte	0
 2257 0c65 25       		.uleb128 0x25
 2258 0c66 13050000 		.4byte	.LASF174
 2259 0c6a 01       		.byte	0x1
 2260 0c6b 58       		.byte	0x58
 2261 0c6c B8000000 		.4byte	0xb8
 2262 0c70 00000000 		.4byte	.LFB270
 2263 0c74 06000000 		.4byte	.LFE270-.LFB270
 2264 0c78 01       		.uleb128 0x1
 2265 0c79 9C       		.byte	0x9c
 2266 0c7a 8F0C0000 		.4byte	0xc8f
 2267 0c7e 26       		.uleb128 0x26
 2268 0c7f 06000000 		.4byte	.LVL5
 2269 0c83 9C0B0000 		.4byte	0xb9c
 2270 0c87 23       		.uleb128 0x23
 2271 0c88 01       		.uleb128 0x1
 2272 0c89 50       		.byte	0x50
 2273 0c8a 02       		.uleb128 0x2
 2274 0c8b 08       		.byte	0x8
 2275 0c8c 39       		.byte	0x39
 2276 0c8d 00       		.byte	0
 2277 0c8e 00       		.byte	0
 2278 0c8f 25       		.uleb128 0x25
 2279 0c90 8C010000 		.4byte	.LASF175
 2280 0c94 01       		.byte	0x1
ARM GAS  /var/folders/m4/4md61f0s1_g0rzfghffqnxvr0000gn/T//ccYVkMSH.s 			page 41


 2281 0c95 5D       		.byte	0x5d
 2282 0c96 B8000000 		.4byte	0xb8
 2283 0c9a 00000000 		.4byte	.LFB271
 2284 0c9e 06000000 		.4byte	.LFE271-.LFB271
 2285 0ca2 01       		.uleb128 0x1
 2286 0ca3 9C       		.byte	0x9c
 2287 0ca4 B90C0000 		.4byte	0xcb9
 2288 0ca8 26       		.uleb128 0x26
 2289 0ca9 06000000 		.4byte	.LVL6
 2290 0cad 9C0B0000 		.4byte	0xb9c
 2291 0cb1 23       		.uleb128 0x23
 2292 0cb2 01       		.uleb128 0x1
 2293 0cb3 50       		.byte	0x50
 2294 0cb4 02       		.uleb128 0x2
 2295 0cb5 08       		.byte	0x8
 2296 0cb6 3A       		.byte	0x3a
 2297 0cb7 00       		.byte	0
 2298 0cb8 00       		.byte	0
 2299 0cb9 27       		.uleb128 0x27
 2300 0cba E2050000 		.4byte	.LASF176
 2301 0cbe 01       		.byte	0x1
 2302 0cbf 6E       		.byte	0x6e
 2303 0cc0 00000000 		.4byte	.LFB273
 2304 0cc4 38000000 		.4byte	.LFE273-.LFB273
 2305 0cc8 01       		.uleb128 0x1
 2306 0cc9 9C       		.byte	0x9c
 2307 0cca 7F0D0000 		.4byte	0xd7f
 2308 0cce 1E       		.uleb128 0x1e
 2309 0ccf A5010000 		.4byte	.LASF165
 2310 0cd3 01       		.byte	0x1
 2311 0cd4 6E       		.byte	0x6e
 2312 0cd5 B8000000 		.4byte	0xb8
 2313 0cd9 2D000000 		.4byte	.LLST1
 2314 0cdd 28       		.uleb128 0x28
 2315 0cde 6C656E00 		.ascii	"len\000"
 2316 0ce2 01       		.byte	0x1
 2317 0ce3 6E       		.byte	0x6e
 2318 0ce4 B8000000 		.4byte	0xb8
 2319 0ce8 5A000000 		.4byte	.LLST2
 2320 0cec 1E       		.uleb128 0x1e
 2321 0ced E7010000 		.4byte	.LASF177
 2322 0cf1 01       		.byte	0x1
 2323 0cf2 6E       		.byte	0x6e
 2324 0cf3 43080000 		.4byte	0x843
 2325 0cf7 7B000000 		.4byte	.LLST3
 2326 0cfb 1F       		.uleb128 0x1f
 2327 0cfc 746D6F00 		.ascii	"tmo\000"
 2328 0d00 01       		.byte	0x1
 2329 0d01 70       		.byte	0x70
 2330 0d02 5D010000 		.4byte	0x15d
 2331 0d06 28       		.byte	0x28
 2332 0d07 20       		.uleb128 0x20
 2333 0d08 85020000 		.4byte	.LASF172
 2334 0d0c 01       		.byte	0x1
 2335 0d0d 71       		.byte	0x71
 2336 0d0e 550C0000 		.4byte	0xc55
 2337 0d12 02       		.uleb128 0x2
ARM GAS  /var/folders/m4/4md61f0s1_g0rzfghffqnxvr0000gn/T//ccYVkMSH.s 			page 42


 2338 0d13 91       		.byte	0x91
 2339 0d14 64       		.sleb128 -28
 2340 0d15 21       		.uleb128 0x21
 2341 0d16 44010000 		.4byte	.LASF178
 2342 0d1a 01       		.byte	0x1
 2343 0d1b 74       		.byte	0x74
 2344 0d1c B8000000 		.4byte	0xb8
 2345 0d20 22       		.uleb128 0x22
 2346 0d21 16000000 		.4byte	.LVL9
 2347 0d25 19110000 		.4byte	0x1119
 2348 0d29 340D0000 		.4byte	0xd34
 2349 0d2d 23       		.uleb128 0x23
 2350 0d2e 01       		.uleb128 0x1
 2351 0d2f 50       		.byte	0x50
 2352 0d30 02       		.uleb128 0x2
 2353 0d31 74       		.byte	0x74
 2354 0d32 00       		.sleb128 0
 2355 0d33 00       		.byte	0
 2356 0d34 22       		.uleb128 0x22
 2357 0d35 28000000 		.4byte	.LVL10
 2358 0d39 30110000 		.4byte	0x1130
 2359 0d3d 6E0D0000 		.4byte	0xd6e
 2360 0d41 23       		.uleb128 0x23
 2361 0d42 01       		.uleb128 0x1
 2362 0d43 53       		.byte	0x53
 2363 0d44 01       		.uleb128 0x1
 2364 0d45 31       		.byte	0x31
 2365 0d46 23       		.uleb128 0x23
 2366 0d47 01       		.uleb128 0x1
 2367 0d48 52       		.byte	0x52
 2368 0d49 02       		.uleb128 0x2
 2369 0d4a 75       		.byte	0x75
 2370 0d4b 00       		.sleb128 0
 2371 0d4c 23       		.uleb128 0x23
 2372 0d4d 01       		.uleb128 0x1
 2373 0d4e 51       		.byte	0x51
 2374 0d4f 02       		.uleb128 0x2
 2375 0d50 08       		.byte	0x8
 2376 0d51 28       		.byte	0x28
 2377 0d52 23       		.uleb128 0x23
 2378 0d53 01       		.uleb128 0x1
 2379 0d54 50       		.byte	0x50
 2380 0d55 02       		.uleb128 0x2
 2381 0d56 74       		.byte	0x74
 2382 0d57 00       		.sleb128 0
 2383 0d58 23       		.uleb128 0x23
 2384 0d59 02       		.uleb128 0x2
 2385 0d5a 7D       		.byte	0x7d
 2386 0d5b 08       		.sleb128 8
 2387 0d5c 02       		.uleb128 0x2
 2388 0d5d 08       		.byte	0x8
 2389 0d5e 28       		.byte	0x28
 2390 0d5f 23       		.uleb128 0x23
 2391 0d60 02       		.uleb128 0x2
 2392 0d61 7D       		.byte	0x7d
 2393 0d62 04       		.sleb128 4
 2394 0d63 02       		.uleb128 0x2
ARM GAS  /var/folders/m4/4md61f0s1_g0rzfghffqnxvr0000gn/T//ccYVkMSH.s 			page 43


 2395 0d64 76       		.byte	0x76
 2396 0d65 00       		.sleb128 0
 2397 0d66 23       		.uleb128 0x23
 2398 0d67 02       		.uleb128 0x2
 2399 0d68 7D       		.byte	0x7d
 2400 0d69 00       		.sleb128 0
 2401 0d6a 02       		.uleb128 0x2
 2402 0d6b 77       		.byte	0x77
 2403 0d6c 00       		.sleb128 0
 2404 0d6d 00       		.byte	0
 2405 0d6e 24       		.uleb128 0x24
 2406 0d6f 2E000000 		.4byte	.LVL11
 2407 0d73 63110000 		.4byte	0x1163
 2408 0d77 23       		.uleb128 0x23
 2409 0d78 01       		.uleb128 0x1
 2410 0d79 50       		.byte	0x50
 2411 0d7a 02       		.uleb128 0x2
 2412 0d7b 74       		.byte	0x74
 2413 0d7c 00       		.sleb128 0
 2414 0d7d 00       		.byte	0
 2415 0d7e 00       		.byte	0
 2416 0d7f 29       		.uleb128 0x29
 2417 0d80 2E040000 		.4byte	.LASF180
 2418 0d84 01       		.byte	0x1
 2419 0d85 2E       		.byte	0x2e
 2420 0d86 910B0000 		.4byte	0xb91
 2421 0d8a 00000000 		.4byte	.LFB269
 2422 0d8e 7C010000 		.4byte	.LFE269-.LFB269
 2423 0d92 01       		.uleb128 0x1
 2424 0d93 9C       		.byte	0x9c
 2425 0d94 240E0000 		.4byte	0xe24
 2426 0d98 1E       		.uleb128 0x1e
 2427 0d99 A5010000 		.4byte	.LASF165
 2428 0d9d 01       		.byte	0x1
 2429 0d9e 2E       		.byte	0x2e
 2430 0d9f B8000000 		.4byte	0xb8
 2431 0da3 A7000000 		.4byte	.LLST4
 2432 0da7 2A       		.uleb128 0x2a
 2433 0da8 FA080000 		.4byte	.LASF122
 2434 0dac 01       		.byte	0x1
 2435 0dad 30       		.byte	0x30
 2436 0dae 910B0000 		.4byte	0xb91
 2437 0db2 C8000000 		.4byte	.LLST5
 2438 0db6 20       		.uleb128 0x20
 2439 0db7 E7010000 		.4byte	.LASF177
 2440 0dbb 01       		.byte	0x1
 2441 0dbc 31       		.byte	0x31
 2442 0dbd 240E0000 		.4byte	0xe24
 2443 0dc1 03       		.uleb128 0x3
 2444 0dc2 91       		.byte	0x91
 2445 0dc3 B07F     		.sleb128 -80
 2446 0dc5 2B       		.uleb128 0x2b
 2447 0dc6 67080000 		.4byte	.LASF187
 2448 0dca 14       		.byte	0x14
 2449 0dcb 00       		.byte	0
 2450 0dcc 60030000 		.4byte	0x360
 2451 0dd0 E40D0000 		.4byte	0xde4
ARM GAS  /var/folders/m4/4md61f0s1_g0rzfghffqnxvr0000gn/T//ccYVkMSH.s 			page 44


 2452 0dd4 0C       		.uleb128 0xc
 2453 0dd5 60030000 		.4byte	0x360
 2454 0dd9 0C       		.uleb128 0xc
 2455 0dda 25000000 		.4byte	0x25
 2456 0dde 0C       		.uleb128 0xc
 2457 0ddf 37000000 		.4byte	0x37
 2458 0de3 00       		.byte	0
 2459 0de4 2C       		.uleb128 0x2c
 2460 0de5 7800     		.ascii	"x\000"
 2461 0de7 01       		.byte	0x1
 2462 0de8 34       		.byte	0x34
 2463 0de9 C3000000 		.4byte	0xc3
 2464 0ded E4020000 		.4byte	.LLST6
 2465 0df1 2D       		.uleb128 0x2d
 2466 0df2 7900     		.ascii	"y\000"
 2467 0df4 01       		.byte	0x1
 2468 0df5 35       		.byte	0x35
 2469 0df6 C3000000 		.4byte	0xc3
 2470 0dfa 01       		.uleb128 0x1
 2471 0dfb 55       		.byte	0x55
 2472 0dfc 2D       		.uleb128 0x2d
 2473 0dfd 7A00     		.ascii	"z\000"
 2474 0dff 01       		.byte	0x1
 2475 0e00 36       		.byte	0x36
 2476 0e01 C3000000 		.4byte	0xc3
 2477 0e05 01       		.uleb128 0x1
 2478 0e06 54       		.byte	0x54
 2479 0e07 24       		.uleb128 0x24
 2480 0e08 1A000000 		.4byte	.LVL14
 2481 0e0c B90C0000 		.4byte	0xcb9
 2482 0e10 23       		.uleb128 0x23
 2483 0e11 01       		.uleb128 0x1
 2484 0e12 52       		.byte	0x52
 2485 0e13 03       		.uleb128 0x3
 2486 0e14 91       		.byte	0x91
 2487 0e15 B07F     		.sleb128 -80
 2488 0e17 23       		.uleb128 0x23
 2489 0e18 01       		.uleb128 0x1
 2490 0e19 51       		.byte	0x51
 2491 0e1a 01       		.uleb128 0x1
 2492 0e1b 36       		.byte	0x36
 2493 0e1c 23       		.uleb128 0x23
 2494 0e1d 01       		.uleb128 0x1
 2495 0e1e 50       		.byte	0x50
 2496 0e1f 02       		.uleb128 0x2
 2497 0e20 74       		.byte	0x74
 2498 0e21 00       		.sleb128 0
 2499 0e22 00       		.byte	0
 2500 0e23 00       		.byte	0
 2501 0e24 17       		.uleb128 0x17
 2502 0e25 B8000000 		.4byte	0xb8
 2503 0e29 340E0000 		.4byte	0xe34
 2504 0e2d 18       		.uleb128 0x18
 2505 0e2e 96040000 		.4byte	0x496
 2506 0e32 05       		.byte	0x5
 2507 0e33 00       		.byte	0
 2508 0e34 27       		.uleb128 0x27
ARM GAS  /var/folders/m4/4md61f0s1_g0rzfghffqnxvr0000gn/T//ccYVkMSH.s 			page 45


 2509 0e35 A6050000 		.4byte	.LASF181
 2510 0e39 01       		.byte	0x1
 2511 0e3a 78       		.byte	0x78
 2512 0e3b 00000000 		.4byte	.LFB274
 2513 0e3f 38000000 		.4byte	.LFE274-.LFB274
 2514 0e43 01       		.uleb128 0x1
 2515 0e44 9C       		.byte	0x9c
 2516 0e45 F80E0000 		.4byte	0xef8
 2517 0e49 1E       		.uleb128 0x1e
 2518 0e4a A5010000 		.4byte	.LASF165
 2519 0e4e 01       		.byte	0x1
 2520 0e4f 78       		.byte	0x78
 2521 0e50 B8000000 		.4byte	0xb8
 2522 0e54 18030000 		.4byte	.LLST7
 2523 0e58 1E       		.uleb128 0x1e
 2524 0e59 55020000 		.4byte	.LASF182
 2525 0e5d 01       		.byte	0x1
 2526 0e5e 78       		.byte	0x78
 2527 0e5f B8000000 		.4byte	0xb8
 2528 0e63 45030000 		.4byte	.LLST8
 2529 0e67 1F       		.uleb128 0x1f
 2530 0e68 746D6F00 		.ascii	"tmo\000"
 2531 0e6c 01       		.byte	0x1
 2532 0e6d 7A       		.byte	0x7a
 2533 0e6e 5D010000 		.4byte	0x15d
 2534 0e72 28       		.byte	0x28
 2535 0e73 20       		.uleb128 0x20
 2536 0e74 85020000 		.4byte	.LASF172
 2537 0e78 01       		.byte	0x1
 2538 0e79 7B       		.byte	0x7b
 2539 0e7a F80E0000 		.4byte	0xef8
 2540 0e7e 02       		.uleb128 0x2
 2541 0e7f 91       		.byte	0x91
 2542 0e80 74       		.sleb128 -12
 2543 0e81 20       		.uleb128 0x20
 2544 0e82 08010000 		.4byte	.LASF173
 2545 0e86 01       		.byte	0x1
 2546 0e87 7C       		.byte	0x7c
 2547 0e88 550C0000 		.4byte	0xc55
 2548 0e8c 02       		.uleb128 0x2
 2549 0e8d 91       		.byte	0x91
 2550 0e8e 70       		.sleb128 -16
 2551 0e8f 21       		.uleb128 0x21
 2552 0e90 44010000 		.4byte	.LASF178
 2553 0e94 01       		.byte	0x1
 2554 0e95 80       		.byte	0x80
 2555 0e96 B8000000 		.4byte	0xb8
 2556 0e9a 22       		.uleb128 0x22
 2557 0e9b 14000000 		.4byte	.LVL68
 2558 0e9f 19110000 		.4byte	0x1119
 2559 0ea3 AE0E0000 		.4byte	0xeae
 2560 0ea7 23       		.uleb128 0x23
 2561 0ea8 01       		.uleb128 0x1
 2562 0ea9 50       		.byte	0x50
 2563 0eaa 02       		.uleb128 0x2
 2564 0eab 74       		.byte	0x74
 2565 0eac 00       		.sleb128 0
ARM GAS  /var/folders/m4/4md61f0s1_g0rzfghffqnxvr0000gn/T//ccYVkMSH.s 			page 46


 2566 0ead 00       		.byte	0
 2567 0eae 22       		.uleb128 0x22
 2568 0eaf 2A000000 		.4byte	.LVL69
 2569 0eb3 30110000 		.4byte	0x1130
 2570 0eb7 E70E0000 		.4byte	0xee7
 2571 0ebb 23       		.uleb128 0x23
 2572 0ebc 01       		.uleb128 0x1
 2573 0ebd 53       		.byte	0x53
 2574 0ebe 01       		.uleb128 0x1
 2575 0ebf 32       		.byte	0x32
 2576 0ec0 23       		.uleb128 0x23
 2577 0ec1 01       		.uleb128 0x1
 2578 0ec2 52       		.byte	0x52
 2579 0ec3 02       		.uleb128 0x2
 2580 0ec4 91       		.byte	0x91
 2581 0ec5 74       		.sleb128 -12
 2582 0ec6 23       		.uleb128 0x23
 2583 0ec7 01       		.uleb128 0x1
 2584 0ec8 51       		.byte	0x51
 2585 0ec9 02       		.uleb128 0x2
 2586 0eca 08       		.byte	0x8
 2587 0ecb 28       		.byte	0x28
 2588 0ecc 23       		.uleb128 0x23
 2589 0ecd 01       		.uleb128 0x1
 2590 0ece 50       		.byte	0x50
 2591 0ecf 02       		.uleb128 0x2
 2592 0ed0 74       		.byte	0x74
 2593 0ed1 00       		.sleb128 0
 2594 0ed2 23       		.uleb128 0x23
 2595 0ed3 02       		.uleb128 0x2
 2596 0ed4 7D       		.byte	0x7d
 2597 0ed5 08       		.sleb128 8
 2598 0ed6 02       		.uleb128 0x2
 2599 0ed7 08       		.byte	0x8
 2600 0ed8 28       		.byte	0x28
 2601 0ed9 23       		.uleb128 0x23
 2602 0eda 02       		.uleb128 0x2
 2603 0edb 7D       		.byte	0x7d
 2604 0edc 04       		.sleb128 4
 2605 0edd 01       		.uleb128 0x1
 2606 0ede 30       		.byte	0x30
 2607 0edf 23       		.uleb128 0x23
 2608 0ee0 02       		.uleb128 0x2
 2609 0ee1 7D       		.byte	0x7d
 2610 0ee2 00       		.sleb128 0
 2611 0ee3 02       		.uleb128 0x2
 2612 0ee4 91       		.byte	0x91
 2613 0ee5 70       		.sleb128 -16
 2614 0ee6 00       		.byte	0
 2615 0ee7 24       		.uleb128 0x24
 2616 0ee8 30000000 		.4byte	.LVL70
 2617 0eec 63110000 		.4byte	0x1163
 2618 0ef0 23       		.uleb128 0x23
 2619 0ef1 01       		.uleb128 0x1
 2620 0ef2 50       		.byte	0x50
 2621 0ef3 02       		.uleb128 0x2
 2622 0ef4 74       		.byte	0x74
ARM GAS  /var/folders/m4/4md61f0s1_g0rzfghffqnxvr0000gn/T//ccYVkMSH.s 			page 47


 2623 0ef5 00       		.sleb128 0
 2624 0ef6 00       		.byte	0
 2625 0ef7 00       		.byte	0
 2626 0ef8 17       		.uleb128 0x17
 2627 0ef9 B8000000 		.4byte	0xb8
 2628 0efd 080F0000 		.4byte	0xf08
 2629 0f01 18       		.uleb128 0x18
 2630 0f02 96040000 		.4byte	0x496
 2631 0f06 01       		.byte	0x1
 2632 0f07 00       		.byte	0
 2633 0f08 1D       		.uleb128 0x1d
 2634 0f09 6E040000 		.4byte	.LASF183
 2635 0f0d 01       		.byte	0x1
 2636 0f0e 0B       		.byte	0xb
 2637 0f0f B7080000 		.4byte	0x8b7
 2638 0f13 00000000 		.4byte	.LFB268
 2639 0f17 BC000000 		.4byte	.LFE268-.LFB268
 2640 0f1b 01       		.uleb128 0x1
 2641 0f1c 9C       		.byte	0x9c
 2642 0f1d E0100000 		.4byte	0x10e0
 2643 0f21 2C       		.uleb128 0x2c
 2644 0f22 696400   		.ascii	"id\000"
 2645 0f25 01       		.byte	0x1
 2646 0f26 10       		.byte	0x10
 2647 0f27 B8000000 		.4byte	0xb8
 2648 0f2b 66030000 		.4byte	.LLST9
 2649 0f2f 22       		.uleb128 0x22
 2650 0f30 0A000000 		.4byte	.LVL71
 2651 0f34 74110000 		.4byte	0x1174
 2652 0f38 460F0000 		.4byte	0xf46
 2653 0f3c 23       		.uleb128 0x23
 2654 0f3d 01       		.uleb128 0x1
 2655 0f3e 51       		.byte	0x51
 2656 0f3f 05       		.uleb128 0x5
 2657 0f40 03       		.byte	0x3
 2658 0f41 00000000 		.4byte	.LANCHOR0
 2659 0f45 00       		.byte	0
 2660 0f46 22       		.uleb128 0x22
 2661 0f47 16000000 		.4byte	.LVL72
 2662 0f4b 8A110000 		.4byte	0x118a
 2663 0f4f 6A0F0000 		.4byte	0xf6a
 2664 0f53 23       		.uleb128 0x23
 2665 0f54 01       		.uleb128 0x1
 2666 0f55 52       		.byte	0x52
 2667 0f56 03       		.uleb128 0x3
 2668 0f57 0A       		.byte	0xa
 2669 0f58 0602     		.2byte	0x206
 2670 0f5a 23       		.uleb128 0x23
 2671 0f5b 01       		.uleb128 0x1
 2672 0f5c 51       		.byte	0x51
 2673 0f5d 02       		.uleb128 0x2
 2674 0f5e 08       		.byte	0x8
 2675 0f5f 40       		.byte	0x40
 2676 0f60 23       		.uleb128 0x23
 2677 0f61 01       		.uleb128 0x1
 2678 0f62 50       		.byte	0x50
 2679 0f63 05       		.uleb128 0x5
ARM GAS  /var/folders/m4/4md61f0s1_g0rzfghffqnxvr0000gn/T//ccYVkMSH.s 			page 48


 2680 0f64 0C       		.byte	0xc
 2681 0f65 00040240 		.4byte	0x40020400
 2682 0f69 00       		.byte	0
 2683 0f6a 22       		.uleb128 0x22
 2684 0f6b 22000000 		.4byte	.LVL73
 2685 0f6f 8A110000 		.4byte	0x118a
 2686 0f73 8E0F0000 		.4byte	0xf8e
 2687 0f77 23       		.uleb128 0x23
 2688 0f78 01       		.uleb128 0x1
 2689 0f79 52       		.byte	0x52
 2690 0f7a 03       		.uleb128 0x3
 2691 0f7b 0A       		.byte	0xa
 2692 0f7c 0602     		.2byte	0x206
 2693 0f7e 23       		.uleb128 0x23
 2694 0f7f 01       		.uleb128 0x1
 2695 0f80 51       		.byte	0x51
 2696 0f81 02       		.uleb128 0x2
 2697 0f82 08       		.byte	0x8
 2698 0f83 80       		.byte	0x80
 2699 0f84 23       		.uleb128 0x23
 2700 0f85 01       		.uleb128 0x1
 2701 0f86 50       		.byte	0x50
 2702 0f87 05       		.uleb128 0x5
 2703 0f88 0C       		.byte	0xc
 2704 0f89 00040240 		.4byte	0x40020400
 2705 0f8d 00       		.byte	0
 2706 0f8e 22       		.uleb128 0x22
 2707 0f8f 28000000 		.4byte	.LVL74
 2708 0f93 9C0B0000 		.4byte	0xb9c
 2709 0f97 A10F0000 		.4byte	0xfa1
 2710 0f9b 23       		.uleb128 0x23
 2711 0f9c 01       		.uleb128 0x1
 2712 0f9d 50       		.byte	0x50
 2713 0f9e 01       		.uleb128 0x1
 2714 0f9f 30       		.byte	0x30
 2715 0fa0 00       		.byte	0
 2716 0fa1 22       		.uleb128 0x22
 2717 0fa2 34000000 		.4byte	.LVL76
 2718 0fa6 A6110000 		.4byte	0x11a6
 2719 0faa B60F0000 		.4byte	0xfb6
 2720 0fae 23       		.uleb128 0x23
 2721 0faf 01       		.uleb128 0x1
 2722 0fb0 50       		.byte	0x50
 2723 0fb1 03       		.uleb128 0x3
 2724 0fb2 0A       		.byte	0xa
 2725 0fb3 1027     		.2byte	0x2710
 2726 0fb5 00       		.byte	0
 2727 0fb6 22       		.uleb128 0x22
 2728 0fb7 3A000000 		.4byte	.LVL77
 2729 0fbb 9C0B0000 		.4byte	0xb9c
 2730 0fbf C90F0000 		.4byte	0xfc9
 2731 0fc3 23       		.uleb128 0x23
 2732 0fc4 01       		.uleb128 0x1
 2733 0fc5 50       		.byte	0x50
 2734 0fc6 01       		.uleb128 0x1
 2735 0fc7 30       		.byte	0x30
 2736 0fc8 00       		.byte	0
ARM GAS  /var/folders/m4/4md61f0s1_g0rzfghffqnxvr0000gn/T//ccYVkMSH.s 			page 49


 2737 0fc9 22       		.uleb128 0x22
 2738 0fca 4A000000 		.4byte	.LVL81
 2739 0fce 340E0000 		.4byte	0xe34
 2740 0fd2 E20F0000 		.4byte	0xfe2
 2741 0fd6 23       		.uleb128 0x23
 2742 0fd7 01       		.uleb128 0x1
 2743 0fd8 51       		.byte	0x51
 2744 0fd9 01       		.uleb128 0x1
 2745 0fda 30       		.byte	0x30
 2746 0fdb 23       		.uleb128 0x23
 2747 0fdc 01       		.uleb128 0x1
 2748 0fdd 50       		.byte	0x50
 2749 0fde 02       		.uleb128 0x2
 2750 0fdf 08       		.byte	0x8
 2751 0fe0 3D       		.byte	0x3d
 2752 0fe1 00       		.byte	0
 2753 0fe2 22       		.uleb128 0x22
 2754 0fe3 52000000 		.4byte	.LVL82
 2755 0fe7 A6110000 		.4byte	0x11a6
 2756 0feb F70F0000 		.4byte	0xff7
 2757 0fef 23       		.uleb128 0x23
 2758 0ff0 01       		.uleb128 0x1
 2759 0ff1 50       		.byte	0x50
 2760 0ff2 03       		.uleb128 0x3
 2761 0ff3 0A       		.byte	0xa
 2762 0ff4 2C01     		.2byte	0x12c
 2763 0ff6 00       		.byte	0
 2764 0ff7 22       		.uleb128 0x22
 2765 0ff8 5A000000 		.4byte	.LVL83
 2766 0ffc 340E0000 		.4byte	0xe34
 2767 1000 11100000 		.4byte	0x1011
 2768 1004 23       		.uleb128 0x23
 2769 1005 01       		.uleb128 0x1
 2770 1006 51       		.byte	0x51
 2771 1007 02       		.uleb128 0x2
 2772 1008 08       		.byte	0x8
 2773 1009 20       		.byte	0x20
 2774 100a 23       		.uleb128 0x23
 2775 100b 01       		.uleb128 0x1
 2776 100c 50       		.byte	0x50
 2777 100d 02       		.uleb128 0x2
 2778 100e 08       		.byte	0x8
 2779 100f 3F       		.byte	0x3f
 2780 1010 00       		.byte	0
 2781 1011 2E       		.uleb128 0x2e
 2782 1012 60000000 		.4byte	.LVL84
 2783 1016 A6110000 		.4byte	0x11a6
 2784 101a 22       		.uleb128 0x22
 2785 101b 66000000 		.4byte	.LVL85
 2786 101f 9C0B0000 		.4byte	0xb9c
 2787 1023 2D100000 		.4byte	0x102d
 2788 1027 23       		.uleb128 0x23
 2789 1028 01       		.uleb128 0x1
 2790 1029 50       		.byte	0x50
 2791 102a 01       		.uleb128 0x1
 2792 102b 30       		.byte	0x30
 2793 102c 00       		.byte	0
ARM GAS  /var/folders/m4/4md61f0s1_g0rzfghffqnxvr0000gn/T//ccYVkMSH.s 			page 50


 2794 102d 22       		.uleb128 0x22
 2795 102e 76000000 		.4byte	.LVL86
 2796 1032 A6110000 		.4byte	0x11a6
 2797 1036 42100000 		.4byte	0x1042
 2798 103a 23       		.uleb128 0x23
 2799 103b 01       		.uleb128 0x1
 2800 103c 50       		.byte	0x50
 2801 103d 03       		.uleb128 0x3
 2802 103e 0A       		.byte	0xa
 2803 103f F401     		.2byte	0x1f4
 2804 1041 00       		.byte	0
 2805 1042 22       		.uleb128 0x22
 2806 1043 7E000000 		.4byte	.LVL87
 2807 1047 340E0000 		.4byte	0xe34
 2808 104b 5B100000 		.4byte	0x105b
 2809 104f 23       		.uleb128 0x23
 2810 1050 01       		.uleb128 0x1
 2811 1051 51       		.byte	0x51
 2812 1052 01       		.uleb128 0x1
 2813 1053 30       		.byte	0x30
 2814 1054 23       		.uleb128 0x23
 2815 1055 01       		.uleb128 0x1
 2816 1056 50       		.byte	0x50
 2817 1057 02       		.uleb128 0x2
 2818 1058 08       		.byte	0x8
 2819 1059 3E       		.byte	0x3e
 2820 105a 00       		.byte	0
 2821 105b 22       		.uleb128 0x22
 2822 105c 84000000 		.4byte	.LVL88
 2823 1060 A6110000 		.4byte	0x11a6
 2824 1064 6F100000 		.4byte	0x106f
 2825 1068 23       		.uleb128 0x23
 2826 1069 01       		.uleb128 0x1
 2827 106a 50       		.byte	0x50
 2828 106b 02       		.uleb128 0x2
 2829 106c 08       		.byte	0x8
 2830 106d 64       		.byte	0x64
 2831 106e 00       		.byte	0
 2832 106f 22       		.uleb128 0x22
 2833 1070 8C000000 		.4byte	.LVL89
 2834 1074 340E0000 		.4byte	0xe34
 2835 1078 87100000 		.4byte	0x1087
 2836 107c 23       		.uleb128 0x23
 2837 107d 01       		.uleb128 0x1
 2838 107e 51       		.byte	0x51
 2839 107f 01       		.uleb128 0x1
 2840 1080 30       		.byte	0x30
 2841 1081 23       		.uleb128 0x23
 2842 1082 01       		.uleb128 0x1
 2843 1083 50       		.byte	0x50
 2844 1084 01       		.uleb128 0x1
 2845 1085 37       		.byte	0x37
 2846 1086 00       		.byte	0
 2847 1087 22       		.uleb128 0x22
 2848 1088 94000000 		.4byte	.LVL90
 2849 108c 340E0000 		.4byte	0xe34
 2850 1090 A1100000 		.4byte	0x10a1
ARM GAS  /var/folders/m4/4md61f0s1_g0rzfghffqnxvr0000gn/T//ccYVkMSH.s 			page 51


 2851 1094 23       		.uleb128 0x23
 2852 1095 01       		.uleb128 0x1
 2853 1096 51       		.byte	0x51
 2854 1097 02       		.uleb128 0x2
 2855 1098 09       		.byte	0x9
 2856 1099 80       		.byte	0x80
 2857 109a 23       		.uleb128 0x23
 2858 109b 01       		.uleb128 0x1
 2859 109c 50       		.byte	0x50
 2860 109d 02       		.uleb128 0x2
 2861 109e 08       		.byte	0x8
 2862 109f 3F       		.byte	0x3f
 2863 10a0 00       		.byte	0
 2864 10a1 22       		.uleb128 0x22
 2865 10a2 9A000000 		.4byte	.LVL91
 2866 10a6 A6110000 		.4byte	0x11a6
 2867 10aa B5100000 		.4byte	0x10b5
 2868 10ae 23       		.uleb128 0x23
 2869 10af 01       		.uleb128 0x1
 2870 10b0 50       		.byte	0x50
 2871 10b1 02       		.uleb128 0x2
 2872 10b2 08       		.byte	0x8
 2873 10b3 64       		.byte	0x64
 2874 10b4 00       		.byte	0
 2875 10b5 22       		.uleb128 0x22
 2876 10b6 A2000000 		.4byte	.LVL92
 2877 10ba 340E0000 		.4byte	0xe34
 2878 10be CE100000 		.4byte	0x10ce
 2879 10c2 23       		.uleb128 0x23
 2880 10c3 01       		.uleb128 0x1
 2881 10c4 51       		.byte	0x51
 2882 10c5 01       		.uleb128 0x1
 2883 10c6 3C       		.byte	0x3c
 2884 10c7 23       		.uleb128 0x23
 2885 10c8 01       		.uleb128 0x1
 2886 10c9 50       		.byte	0x50
 2887 10ca 02       		.uleb128 0x2
 2888 10cb 08       		.byte	0x8
 2889 10cc 3D       		.byte	0x3d
 2890 10cd 00       		.byte	0
 2891 10ce 24       		.uleb128 0x24
 2892 10cf AA000000 		.4byte	.LVL93
 2893 10d3 A6110000 		.4byte	0x11a6
 2894 10d7 23       		.uleb128 0x23
 2895 10d8 01       		.uleb128 0x1
 2896 10d9 50       		.byte	0x50
 2897 10da 03       		.uleb128 0x3
 2898 10db 0A       		.byte	0xa
 2899 10dc F401     		.2byte	0x1f4
 2900 10de 00       		.byte	0
 2901 10df 00       		.byte	0
 2902 10e0 20       		.uleb128 0x20
 2903 10e1 F4000000 		.4byte	.LASF184
 2904 10e5 01       		.byte	0x1
 2905 10e6 05       		.byte	0x5
 2906 10e7 580B0000 		.4byte	0xb58
 2907 10eb 05       		.uleb128 0x5
ARM GAS  /var/folders/m4/4md61f0s1_g0rzfghffqnxvr0000gn/T//ccYVkMSH.s 			page 52


 2908 10ec 03       		.byte	0x3
 2909 10ed 00000000 		.4byte	i2ccfg
 2910 10f1 2F       		.uleb128 0x2f
 2911 10f2 FB000000 		.4byte	.LASF185
 2912 10f6 13       		.byte	0x13
 2913 10f7 FA06     		.2byte	0x6fa
 2914 10f9 FD100000 		.4byte	0x10fd
 2915 10fd 0F       		.uleb128 0xf
 2916 10fe D9000000 		.4byte	0xd9
 2917 1102 30       		.uleb128 0x30
 2918 1103 636800   		.ascii	"ch\000"
 2919 1106 07       		.byte	0x7
 2920 1107 0902     		.2byte	0x209
 2921 1109 2F040000 		.4byte	0x42f
 2922 110d 2F       		.uleb128 0x2f
 2923 110e 30060000 		.4byte	.LASF186
 2924 1112 11       		.byte	0x11
 2925 1113 E001     		.2byte	0x1e0
 2926 1115 A90A0000 		.4byte	0xaa9
 2927 1119 31       		.uleb128 0x31
 2928 111a EF040000 		.4byte	.LASF189
 2929 111e 10       		.byte	0x10
 2930 111f 9A       		.byte	0x9a
 2931 1120 2A110000 		.4byte	0x112a
 2932 1124 0C       		.uleb128 0xc
 2933 1125 2A110000 		.4byte	0x112a
 2934 1129 00       		.byte	0
 2935 112a 09       		.uleb128 0x9
 2936 112b 04       		.byte	0x4
 2937 112c A90A0000 		.4byte	0xaa9
 2938 1130 2B       		.uleb128 0x2b
 2939 1131 2B010000 		.4byte	.LASF188
 2940 1135 10       		.byte	0x10
 2941 1136 90       		.byte	0x90
 2942 1137 3C010000 		.4byte	0x13c
 2943 113b 63110000 		.4byte	0x1163
 2944 113f 0C       		.uleb128 0xc
 2945 1140 2A110000 		.4byte	0x112a
 2946 1144 0C       		.uleb128 0xc
 2947 1145 040A0000 		.4byte	0xa04
 2948 1149 0C       		.uleb128 0xc
 2949 114a 49080000 		.4byte	0x849
 2950 114e 0C       		.uleb128 0xc
 2951 114f 2C000000 		.4byte	0x2c
 2952 1153 0C       		.uleb128 0xc
 2953 1154 43080000 		.4byte	0x843
 2954 1158 0C       		.uleb128 0xc
 2955 1159 2C000000 		.4byte	0x2c
 2956 115d 0C       		.uleb128 0xc
 2957 115e 5D010000 		.4byte	0x15d
 2958 1162 00       		.byte	0
 2959 1163 31       		.uleb128 0x31
 2960 1164 D0000000 		.4byte	.LASF190
 2961 1168 10       		.byte	0x10
 2962 1169 9B       		.byte	0x9b
 2963 116a 74110000 		.4byte	0x1174
 2964 116e 0C       		.uleb128 0xc
ARM GAS  /var/folders/m4/4md61f0s1_g0rzfghffqnxvr0000gn/T//ccYVkMSH.s 			page 53


 2965 116f 2A110000 		.4byte	0x112a
 2966 1173 00       		.byte	0
 2967 1174 31       		.uleb128 0x31
 2968 1175 EB030000 		.4byte	.LASF191
 2969 1179 10       		.byte	0x10
 2970 117a 8D       		.byte	0x8d
 2971 117b 8A110000 		.4byte	0x118a
 2972 117f 0C       		.uleb128 0xc
 2973 1180 2A110000 		.4byte	0x112a
 2974 1184 0C       		.uleb128 0xc
 2975 1185 520B0000 		.4byte	0xb52
 2976 1189 00       		.byte	0
 2977 118a 32       		.uleb128 0x32
 2978 118b 22080000 		.4byte	.LASF192
 2979 118f 0F       		.byte	0xf
 2980 1190 2402     		.2byte	0x224
 2981 1192 A6110000 		.4byte	0x11a6
 2982 1196 0C       		.uleb128 0xc
 2983 1197 AF090000 		.4byte	0x9af
 2984 119b 0C       		.uleb128 0xc
 2985 119c 97090000 		.4byte	0x997
 2986 11a0 0C       		.uleb128 0xc
 2987 11a1 A3090000 		.4byte	0x9a3
 2988 11a5 00       		.byte	0
 2989 11a6 33       		.uleb128 0x33
 2990 11a7 FD050000 		.4byte	.LASF196
 2991 11ab 15       		.byte	0x15
 2992 11ac 96       		.byte	0x96
 2993 11ad 0C       		.uleb128 0xc
 2994 11ae 5D010000 		.4byte	0x15d
 2995 11b2 00       		.byte	0
 2996 11b3 00       		.byte	0
 2997              		.section	.debug_abbrev,"",%progbits
 2998              	.Ldebug_abbrev0:
 2999 0000 01       		.uleb128 0x1
 3000 0001 11       		.uleb128 0x11
 3001 0002 01       		.byte	0x1
 3002 0003 25       		.uleb128 0x25
 3003 0004 0E       		.uleb128 0xe
 3004 0005 13       		.uleb128 0x13
 3005 0006 0B       		.uleb128 0xb
 3006 0007 03       		.uleb128 0x3
 3007 0008 0E       		.uleb128 0xe
 3008 0009 1B       		.uleb128 0x1b
 3009 000a 0E       		.uleb128 0xe
 3010 000b 55       		.uleb128 0x55
 3011 000c 17       		.uleb128 0x17
 3012 000d 11       		.uleb128 0x11
 3013 000e 01       		.uleb128 0x1
 3014 000f 10       		.uleb128 0x10
 3015 0010 17       		.uleb128 0x17
 3016 0011 00       		.byte	0
 3017 0012 00       		.byte	0
 3018 0013 02       		.uleb128 0x2
 3019 0014 24       		.uleb128 0x24
 3020 0015 00       		.byte	0
 3021 0016 0B       		.uleb128 0xb
ARM GAS  /var/folders/m4/4md61f0s1_g0rzfghffqnxvr0000gn/T//ccYVkMSH.s 			page 54


 3022 0017 0B       		.uleb128 0xb
 3023 0018 3E       		.uleb128 0x3e
 3024 0019 0B       		.uleb128 0xb
 3025 001a 03       		.uleb128 0x3
 3026 001b 08       		.uleb128 0x8
 3027 001c 00       		.byte	0
 3028 001d 00       		.byte	0
 3029 001e 03       		.uleb128 0x3
 3030 001f 16       		.uleb128 0x16
 3031 0020 00       		.byte	0
 3032 0021 03       		.uleb128 0x3
 3033 0022 0E       		.uleb128 0xe
 3034 0023 3A       		.uleb128 0x3a
 3035 0024 0B       		.uleb128 0xb
 3036 0025 3B       		.uleb128 0x3b
 3037 0026 0B       		.uleb128 0xb
 3038 0027 49       		.uleb128 0x49
 3039 0028 13       		.uleb128 0x13
 3040 0029 00       		.byte	0
 3041 002a 00       		.byte	0
 3042 002b 04       		.uleb128 0x4
 3043 002c 24       		.uleb128 0x24
 3044 002d 00       		.byte	0
 3045 002e 0B       		.uleb128 0xb
 3046 002f 0B       		.uleb128 0xb
 3047 0030 3E       		.uleb128 0x3e
 3048 0031 0B       		.uleb128 0xb
 3049 0032 03       		.uleb128 0x3
 3050 0033 0E       		.uleb128 0xe
 3051 0034 00       		.byte	0
 3052 0035 00       		.byte	0
 3053 0036 05       		.uleb128 0x5
 3054 0037 13       		.uleb128 0x13
 3055 0038 01       		.byte	0x1
 3056 0039 03       		.uleb128 0x3
 3057 003a 0E       		.uleb128 0xe
 3058 003b 0B       		.uleb128 0xb
 3059 003c 0B       		.uleb128 0xb
 3060 003d 3A       		.uleb128 0x3a
 3061 003e 0B       		.uleb128 0xb
 3062 003f 3B       		.uleb128 0x3b
 3063 0040 0B       		.uleb128 0xb
 3064 0041 01       		.uleb128 0x1
 3065 0042 13       		.uleb128 0x13
 3066 0043 00       		.byte	0
 3067 0044 00       		.byte	0
 3068 0045 06       		.uleb128 0x6
 3069 0046 0D       		.uleb128 0xd
 3070 0047 00       		.byte	0
 3071 0048 03       		.uleb128 0x3
 3072 0049 0E       		.uleb128 0xe
 3073 004a 3A       		.uleb128 0x3a
 3074 004b 0B       		.uleb128 0xb
 3075 004c 3B       		.uleb128 0x3b
 3076 004d 0B       		.uleb128 0xb
 3077 004e 49       		.uleb128 0x49
 3078 004f 13       		.uleb128 0x13
ARM GAS  /var/folders/m4/4md61f0s1_g0rzfghffqnxvr0000gn/T//ccYVkMSH.s 			page 55


 3079 0050 38       		.uleb128 0x38
 3080 0051 0B       		.uleb128 0xb
 3081 0052 00       		.byte	0
 3082 0053 00       		.byte	0
 3083 0054 07       		.uleb128 0x7
 3084 0055 0D       		.uleb128 0xd
 3085 0056 00       		.byte	0
 3086 0057 03       		.uleb128 0x3
 3087 0058 08       		.uleb128 0x8
 3088 0059 3A       		.uleb128 0x3a
 3089 005a 0B       		.uleb128 0xb
 3090 005b 3B       		.uleb128 0x3b
 3091 005c 05       		.uleb128 0x5
 3092 005d 49       		.uleb128 0x49
 3093 005e 13       		.uleb128 0x13
 3094 005f 38       		.uleb128 0x38
 3095 0060 0B       		.uleb128 0xb
 3096 0061 00       		.byte	0
 3097 0062 00       		.byte	0
 3098 0063 08       		.uleb128 0x8
 3099 0064 0D       		.uleb128 0xd
 3100 0065 00       		.byte	0
 3101 0066 03       		.uleb128 0x3
 3102 0067 0E       		.uleb128 0xe
 3103 0068 3A       		.uleb128 0x3a
 3104 0069 0B       		.uleb128 0xb
 3105 006a 3B       		.uleb128 0x3b
 3106 006b 05       		.uleb128 0x5
 3107 006c 49       		.uleb128 0x49
 3108 006d 13       		.uleb128 0x13
 3109 006e 38       		.uleb128 0x38
 3110 006f 0B       		.uleb128 0xb
 3111 0070 00       		.byte	0
 3112 0071 00       		.byte	0
 3113 0072 09       		.uleb128 0x9
 3114 0073 0F       		.uleb128 0xf
 3115 0074 00       		.byte	0
 3116 0075 0B       		.uleb128 0xb
 3117 0076 0B       		.uleb128 0xb
 3118 0077 49       		.uleb128 0x49
 3119 0078 13       		.uleb128 0x13
 3120 0079 00       		.byte	0
 3121 007a 00       		.byte	0
 3122 007b 0A       		.uleb128 0xa
 3123 007c 13       		.uleb128 0x13
 3124 007d 01       		.byte	0x1
 3125 007e 03       		.uleb128 0x3
 3126 007f 0E       		.uleb128 0xe
 3127 0080 0B       		.uleb128 0xb
 3128 0081 0B       		.uleb128 0xb
 3129 0082 3A       		.uleb128 0x3a
 3130 0083 0B       		.uleb128 0xb
 3131 0084 3B       		.uleb128 0x3b
 3132 0085 05       		.uleb128 0x5
 3133 0086 01       		.uleb128 0x1
 3134 0087 13       		.uleb128 0x13
 3135 0088 00       		.byte	0
ARM GAS  /var/folders/m4/4md61f0s1_g0rzfghffqnxvr0000gn/T//ccYVkMSH.s 			page 56


 3136 0089 00       		.byte	0
 3137 008a 0B       		.uleb128 0xb
 3138 008b 15       		.uleb128 0x15
 3139 008c 01       		.byte	0x1
 3140 008d 27       		.uleb128 0x27
 3141 008e 19       		.uleb128 0x19
 3142 008f 01       		.uleb128 0x1
 3143 0090 13       		.uleb128 0x13
 3144 0091 00       		.byte	0
 3145 0092 00       		.byte	0
 3146 0093 0C       		.uleb128 0xc
 3147 0094 05       		.uleb128 0x5
 3148 0095 00       		.byte	0
 3149 0096 49       		.uleb128 0x49
 3150 0097 13       		.uleb128 0x13
 3151 0098 00       		.byte	0
 3152 0099 00       		.byte	0
 3153 009a 0D       		.uleb128 0xd
 3154 009b 0F       		.uleb128 0xf
 3155 009c 00       		.byte	0
 3156 009d 0B       		.uleb128 0xb
 3157 009e 0B       		.uleb128 0xb
 3158 009f 00       		.byte	0
 3159 00a0 00       		.byte	0
 3160 00a1 0E       		.uleb128 0xe
 3161 00a2 13       		.uleb128 0x13
 3162 00a3 01       		.byte	0x1
 3163 00a4 03       		.uleb128 0x3
 3164 00a5 0E       		.uleb128 0xe
 3165 00a6 0B       		.uleb128 0xb
 3166 00a7 05       		.uleb128 0x5
 3167 00a8 3A       		.uleb128 0x3a
 3168 00a9 0B       		.uleb128 0xb
 3169 00aa 3B       		.uleb128 0x3b
 3170 00ab 05       		.uleb128 0x5
 3171 00ac 01       		.uleb128 0x1
 3172 00ad 13       		.uleb128 0x13
 3173 00ae 00       		.byte	0
 3174 00af 00       		.byte	0
 3175 00b0 0F       		.uleb128 0xf
 3176 00b1 35       		.uleb128 0x35
 3177 00b2 00       		.byte	0
 3178 00b3 49       		.uleb128 0x49
 3179 00b4 13       		.uleb128 0x13
 3180 00b5 00       		.byte	0
 3181 00b6 00       		.byte	0
 3182 00b7 10       		.uleb128 0x10
 3183 00b8 13       		.uleb128 0x13
 3184 00b9 01       		.byte	0x1
 3185 00ba 0B       		.uleb128 0xb
 3186 00bb 0B       		.uleb128 0xb
 3187 00bc 3A       		.uleb128 0x3a
 3188 00bd 0B       		.uleb128 0xb
 3189 00be 3B       		.uleb128 0x3b
 3190 00bf 05       		.uleb128 0x5
 3191 00c0 01       		.uleb128 0x1
 3192 00c1 13       		.uleb128 0x13
ARM GAS  /var/folders/m4/4md61f0s1_g0rzfghffqnxvr0000gn/T//ccYVkMSH.s 			page 57


 3193 00c2 00       		.byte	0
 3194 00c3 00       		.byte	0
 3195 00c4 11       		.uleb128 0x11
 3196 00c5 16       		.uleb128 0x16
 3197 00c6 00       		.byte	0
 3198 00c7 03       		.uleb128 0x3
 3199 00c8 0E       		.uleb128 0xe
 3200 00c9 3A       		.uleb128 0x3a
 3201 00ca 0B       		.uleb128 0xb
 3202 00cb 3B       		.uleb128 0x3b
 3203 00cc 05       		.uleb128 0x5
 3204 00cd 49       		.uleb128 0x49
 3205 00ce 13       		.uleb128 0x13
 3206 00cf 00       		.byte	0
 3207 00d0 00       		.byte	0
 3208 00d1 12       		.uleb128 0x12
 3209 00d2 0D       		.uleb128 0xd
 3210 00d3 00       		.byte	0
 3211 00d4 03       		.uleb128 0x3
 3212 00d5 08       		.uleb128 0x8
 3213 00d6 3A       		.uleb128 0x3a
 3214 00d7 0B       		.uleb128 0xb
 3215 00d8 3B       		.uleb128 0x3b
 3216 00d9 0B       		.uleb128 0xb
 3217 00da 49       		.uleb128 0x49
 3218 00db 13       		.uleb128 0x13
 3219 00dc 38       		.uleb128 0x38
 3220 00dd 0B       		.uleb128 0xb
 3221 00de 00       		.byte	0
 3222 00df 00       		.byte	0
 3223 00e0 13       		.uleb128 0x13
 3224 00e1 13       		.uleb128 0x13
 3225 00e2 01       		.byte	0x1
 3226 00e3 0B       		.uleb128 0xb
 3227 00e4 0B       		.uleb128 0xb
 3228 00e5 3A       		.uleb128 0x3a
 3229 00e6 0B       		.uleb128 0xb
 3230 00e7 3B       		.uleb128 0x3b
 3231 00e8 0B       		.uleb128 0xb
 3232 00e9 01       		.uleb128 0x1
 3233 00ea 13       		.uleb128 0x13
 3234 00eb 00       		.byte	0
 3235 00ec 00       		.byte	0
 3236 00ed 14       		.uleb128 0x14
 3237 00ee 17       		.uleb128 0x17
 3238 00ef 01       		.byte	0x1
 3239 00f0 0B       		.uleb128 0xb
 3240 00f1 0B       		.uleb128 0xb
 3241 00f2 3A       		.uleb128 0x3a
 3242 00f3 0B       		.uleb128 0xb
 3243 00f4 3B       		.uleb128 0x3b
 3244 00f5 0B       		.uleb128 0xb
 3245 00f6 01       		.uleb128 0x1
 3246 00f7 13       		.uleb128 0x13
 3247 00f8 00       		.byte	0
 3248 00f9 00       		.byte	0
 3249 00fa 15       		.uleb128 0x15
ARM GAS  /var/folders/m4/4md61f0s1_g0rzfghffqnxvr0000gn/T//ccYVkMSH.s 			page 58


 3250 00fb 0D       		.uleb128 0xd
 3251 00fc 00       		.byte	0
 3252 00fd 03       		.uleb128 0x3
 3253 00fe 0E       		.uleb128 0xe
 3254 00ff 3A       		.uleb128 0x3a
 3255 0100 0B       		.uleb128 0xb
 3256 0101 3B       		.uleb128 0x3b
 3257 0102 05       		.uleb128 0x5
 3258 0103 49       		.uleb128 0x49
 3259 0104 13       		.uleb128 0x13
 3260 0105 00       		.byte	0
 3261 0106 00       		.byte	0
 3262 0107 16       		.uleb128 0x16
 3263 0108 26       		.uleb128 0x26
 3264 0109 00       		.byte	0
 3265 010a 49       		.uleb128 0x49
 3266 010b 13       		.uleb128 0x13
 3267 010c 00       		.byte	0
 3268 010d 00       		.byte	0
 3269 010e 17       		.uleb128 0x17
 3270 010f 01       		.uleb128 0x1
 3271 0110 01       		.byte	0x1
 3272 0111 49       		.uleb128 0x49
 3273 0112 13       		.uleb128 0x13
 3274 0113 01       		.uleb128 0x1
 3275 0114 13       		.uleb128 0x13
 3276 0115 00       		.byte	0
 3277 0116 00       		.byte	0
 3278 0117 18       		.uleb128 0x18
 3279 0118 21       		.uleb128 0x21
 3280 0119 00       		.byte	0
 3281 011a 49       		.uleb128 0x49
 3282 011b 13       		.uleb128 0x13
 3283 011c 2F       		.uleb128 0x2f
 3284 011d 0B       		.uleb128 0xb
 3285 011e 00       		.byte	0
 3286 011f 00       		.byte	0
 3287 0120 19       		.uleb128 0x19
 3288 0121 0D       		.uleb128 0xd
 3289 0122 00       		.byte	0
 3290 0123 03       		.uleb128 0x3
 3291 0124 08       		.uleb128 0x8
 3292 0125 3A       		.uleb128 0x3a
 3293 0126 0B       		.uleb128 0xb
 3294 0127 3B       		.uleb128 0x3b
 3295 0128 0B       		.uleb128 0xb
 3296 0129 49       		.uleb128 0x49
 3297 012a 13       		.uleb128 0x13
 3298 012b 00       		.byte	0
 3299 012c 00       		.byte	0
 3300 012d 1A       		.uleb128 0x1a
 3301 012e 04       		.uleb128 0x4
 3302 012f 01       		.byte	0x1
 3303 0130 0B       		.uleb128 0xb
 3304 0131 0B       		.uleb128 0xb
 3305 0132 3A       		.uleb128 0x3a
 3306 0133 0B       		.uleb128 0xb
ARM GAS  /var/folders/m4/4md61f0s1_g0rzfghffqnxvr0000gn/T//ccYVkMSH.s 			page 59


 3307 0134 3B       		.uleb128 0x3b
 3308 0135 0B       		.uleb128 0xb
 3309 0136 01       		.uleb128 0x1
 3310 0137 13       		.uleb128 0x13
 3311 0138 00       		.byte	0
 3312 0139 00       		.byte	0
 3313 013a 1B       		.uleb128 0x1b
 3314 013b 28       		.uleb128 0x28
 3315 013c 00       		.byte	0
 3316 013d 03       		.uleb128 0x3
 3317 013e 0E       		.uleb128 0xe
 3318 013f 1C       		.uleb128 0x1c
 3319 0140 0D       		.uleb128 0xd
 3320 0141 00       		.byte	0
 3321 0142 00       		.byte	0
 3322 0143 1C       		.uleb128 0x1c
 3323 0144 04       		.uleb128 0x4
 3324 0145 01       		.byte	0x1
 3325 0146 0B       		.uleb128 0xb
 3326 0147 0B       		.uleb128 0xb
 3327 0148 3A       		.uleb128 0x3a
 3328 0149 0B       		.uleb128 0xb
 3329 014a 3B       		.uleb128 0x3b
 3330 014b 05       		.uleb128 0x5
 3331 014c 01       		.uleb128 0x1
 3332 014d 13       		.uleb128 0x13
 3333 014e 00       		.byte	0
 3334 014f 00       		.byte	0
 3335 0150 1D       		.uleb128 0x1d
 3336 0151 2E       		.uleb128 0x2e
 3337 0152 01       		.byte	0x1
 3338 0153 3F       		.uleb128 0x3f
 3339 0154 19       		.uleb128 0x19
 3340 0155 03       		.uleb128 0x3
 3341 0156 0E       		.uleb128 0xe
 3342 0157 3A       		.uleb128 0x3a
 3343 0158 0B       		.uleb128 0xb
 3344 0159 3B       		.uleb128 0x3b
 3345 015a 0B       		.uleb128 0xb
 3346 015b 27       		.uleb128 0x27
 3347 015c 19       		.uleb128 0x19
 3348 015d 49       		.uleb128 0x49
 3349 015e 13       		.uleb128 0x13
 3350 015f 11       		.uleb128 0x11
 3351 0160 01       		.uleb128 0x1
 3352 0161 12       		.uleb128 0x12
 3353 0162 06       		.uleb128 0x6
 3354 0163 40       		.uleb128 0x40
 3355 0164 18       		.uleb128 0x18
 3356 0165 9742     		.uleb128 0x2117
 3357 0167 19       		.uleb128 0x19
 3358 0168 01       		.uleb128 0x1
 3359 0169 13       		.uleb128 0x13
 3360 016a 00       		.byte	0
 3361 016b 00       		.byte	0
 3362 016c 1E       		.uleb128 0x1e
 3363 016d 05       		.uleb128 0x5
ARM GAS  /var/folders/m4/4md61f0s1_g0rzfghffqnxvr0000gn/T//ccYVkMSH.s 			page 60


 3364 016e 00       		.byte	0
 3365 016f 03       		.uleb128 0x3
 3366 0170 0E       		.uleb128 0xe
 3367 0171 3A       		.uleb128 0x3a
 3368 0172 0B       		.uleb128 0xb
 3369 0173 3B       		.uleb128 0x3b
 3370 0174 0B       		.uleb128 0xb
 3371 0175 49       		.uleb128 0x49
 3372 0176 13       		.uleb128 0x13
 3373 0177 02       		.uleb128 0x2
 3374 0178 17       		.uleb128 0x17
 3375 0179 00       		.byte	0
 3376 017a 00       		.byte	0
 3377 017b 1F       		.uleb128 0x1f
 3378 017c 34       		.uleb128 0x34
 3379 017d 00       		.byte	0
 3380 017e 03       		.uleb128 0x3
 3381 017f 08       		.uleb128 0x8
 3382 0180 3A       		.uleb128 0x3a
 3383 0181 0B       		.uleb128 0xb
 3384 0182 3B       		.uleb128 0x3b
 3385 0183 0B       		.uleb128 0xb
 3386 0184 49       		.uleb128 0x49
 3387 0185 13       		.uleb128 0x13
 3388 0186 1C       		.uleb128 0x1c
 3389 0187 0B       		.uleb128 0xb
 3390 0188 00       		.byte	0
 3391 0189 00       		.byte	0
 3392 018a 20       		.uleb128 0x20
 3393 018b 34       		.uleb128 0x34
 3394 018c 00       		.byte	0
 3395 018d 03       		.uleb128 0x3
 3396 018e 0E       		.uleb128 0xe
 3397 018f 3A       		.uleb128 0x3a
 3398 0190 0B       		.uleb128 0xb
 3399 0191 3B       		.uleb128 0x3b
 3400 0192 0B       		.uleb128 0xb
 3401 0193 49       		.uleb128 0x49
 3402 0194 13       		.uleb128 0x13
 3403 0195 02       		.uleb128 0x2
 3404 0196 18       		.uleb128 0x18
 3405 0197 00       		.byte	0
 3406 0198 00       		.byte	0
 3407 0199 21       		.uleb128 0x21
 3408 019a 34       		.uleb128 0x34
 3409 019b 00       		.byte	0
 3410 019c 03       		.uleb128 0x3
 3411 019d 0E       		.uleb128 0xe
 3412 019e 3A       		.uleb128 0x3a
 3413 019f 0B       		.uleb128 0xb
 3414 01a0 3B       		.uleb128 0x3b
 3415 01a1 0B       		.uleb128 0xb
 3416 01a2 49       		.uleb128 0x49
 3417 01a3 13       		.uleb128 0x13
 3418 01a4 00       		.byte	0
 3419 01a5 00       		.byte	0
 3420 01a6 22       		.uleb128 0x22
ARM GAS  /var/folders/m4/4md61f0s1_g0rzfghffqnxvr0000gn/T//ccYVkMSH.s 			page 61


 3421 01a7 898201   		.uleb128 0x4109
 3422 01aa 01       		.byte	0x1
 3423 01ab 11       		.uleb128 0x11
 3424 01ac 01       		.uleb128 0x1
 3425 01ad 31       		.uleb128 0x31
 3426 01ae 13       		.uleb128 0x13
 3427 01af 01       		.uleb128 0x1
 3428 01b0 13       		.uleb128 0x13
 3429 01b1 00       		.byte	0
 3430 01b2 00       		.byte	0
 3431 01b3 23       		.uleb128 0x23
 3432 01b4 8A8201   		.uleb128 0x410a
 3433 01b7 00       		.byte	0
 3434 01b8 02       		.uleb128 0x2
 3435 01b9 18       		.uleb128 0x18
 3436 01ba 9142     		.uleb128 0x2111
 3437 01bc 18       		.uleb128 0x18
 3438 01bd 00       		.byte	0
 3439 01be 00       		.byte	0
 3440 01bf 24       		.uleb128 0x24
 3441 01c0 898201   		.uleb128 0x4109
 3442 01c3 01       		.byte	0x1
 3443 01c4 11       		.uleb128 0x11
 3444 01c5 01       		.uleb128 0x1
 3445 01c6 31       		.uleb128 0x31
 3446 01c7 13       		.uleb128 0x13
 3447 01c8 00       		.byte	0
 3448 01c9 00       		.byte	0
 3449 01ca 25       		.uleb128 0x25
 3450 01cb 2E       		.uleb128 0x2e
 3451 01cc 01       		.byte	0x1
 3452 01cd 3F       		.uleb128 0x3f
 3453 01ce 19       		.uleb128 0x19
 3454 01cf 03       		.uleb128 0x3
 3455 01d0 0E       		.uleb128 0xe
 3456 01d1 3A       		.uleb128 0x3a
 3457 01d2 0B       		.uleb128 0xb
 3458 01d3 3B       		.uleb128 0x3b
 3459 01d4 0B       		.uleb128 0xb
 3460 01d5 49       		.uleb128 0x49
 3461 01d6 13       		.uleb128 0x13
 3462 01d7 11       		.uleb128 0x11
 3463 01d8 01       		.uleb128 0x1
 3464 01d9 12       		.uleb128 0x12
 3465 01da 06       		.uleb128 0x6
 3466 01db 40       		.uleb128 0x40
 3467 01dc 18       		.uleb128 0x18
 3468 01dd 9742     		.uleb128 0x2117
 3469 01df 19       		.uleb128 0x19
 3470 01e0 01       		.uleb128 0x1
 3471 01e1 13       		.uleb128 0x13
 3472 01e2 00       		.byte	0
 3473 01e3 00       		.byte	0
 3474 01e4 26       		.uleb128 0x26
 3475 01e5 898201   		.uleb128 0x4109
 3476 01e8 01       		.byte	0x1
 3477 01e9 11       		.uleb128 0x11
ARM GAS  /var/folders/m4/4md61f0s1_g0rzfghffqnxvr0000gn/T//ccYVkMSH.s 			page 62


 3478 01ea 01       		.uleb128 0x1
 3479 01eb 9542     		.uleb128 0x2115
 3480 01ed 19       		.uleb128 0x19
 3481 01ee 31       		.uleb128 0x31
 3482 01ef 13       		.uleb128 0x13
 3483 01f0 00       		.byte	0
 3484 01f1 00       		.byte	0
 3485 01f2 27       		.uleb128 0x27
 3486 01f3 2E       		.uleb128 0x2e
 3487 01f4 01       		.byte	0x1
 3488 01f5 3F       		.uleb128 0x3f
 3489 01f6 19       		.uleb128 0x19
 3490 01f7 03       		.uleb128 0x3
 3491 01f8 0E       		.uleb128 0xe
 3492 01f9 3A       		.uleb128 0x3a
 3493 01fa 0B       		.uleb128 0xb
 3494 01fb 3B       		.uleb128 0x3b
 3495 01fc 0B       		.uleb128 0xb
 3496 01fd 27       		.uleb128 0x27
 3497 01fe 19       		.uleb128 0x19
 3498 01ff 11       		.uleb128 0x11
 3499 0200 01       		.uleb128 0x1
 3500 0201 12       		.uleb128 0x12
 3501 0202 06       		.uleb128 0x6
 3502 0203 40       		.uleb128 0x40
 3503 0204 18       		.uleb128 0x18
 3504 0205 9742     		.uleb128 0x2117
 3505 0207 19       		.uleb128 0x19
 3506 0208 01       		.uleb128 0x1
 3507 0209 13       		.uleb128 0x13
 3508 020a 00       		.byte	0
 3509 020b 00       		.byte	0
 3510 020c 28       		.uleb128 0x28
 3511 020d 05       		.uleb128 0x5
 3512 020e 00       		.byte	0
 3513 020f 03       		.uleb128 0x3
 3514 0210 08       		.uleb128 0x8
 3515 0211 3A       		.uleb128 0x3a
 3516 0212 0B       		.uleb128 0xb
 3517 0213 3B       		.uleb128 0x3b
 3518 0214 0B       		.uleb128 0xb
 3519 0215 49       		.uleb128 0x49
 3520 0216 13       		.uleb128 0x13
 3521 0217 02       		.uleb128 0x2
 3522 0218 17       		.uleb128 0x17
 3523 0219 00       		.byte	0
 3524 021a 00       		.byte	0
 3525 021b 29       		.uleb128 0x29
 3526 021c 2E       		.uleb128 0x2e
 3527 021d 01       		.byte	0x1
 3528 021e 3F       		.uleb128 0x3f
 3529 021f 19       		.uleb128 0x19
 3530 0220 03       		.uleb128 0x3
 3531 0221 0E       		.uleb128 0xe
 3532 0222 3A       		.uleb128 0x3a
 3533 0223 0B       		.uleb128 0xb
 3534 0224 3B       		.uleb128 0x3b
ARM GAS  /var/folders/m4/4md61f0s1_g0rzfghffqnxvr0000gn/T//ccYVkMSH.s 			page 63


 3535 0225 0B       		.uleb128 0xb
 3536 0226 27       		.uleb128 0x27
 3537 0227 19       		.uleb128 0x19
 3538 0228 49       		.uleb128 0x49
 3539 0229 13       		.uleb128 0x13
 3540 022a 11       		.uleb128 0x11
 3541 022b 01       		.uleb128 0x1
 3542 022c 12       		.uleb128 0x12
 3543 022d 06       		.uleb128 0x6
 3544 022e 40       		.uleb128 0x40
 3545 022f 18       		.uleb128 0x18
 3546 0230 9642     		.uleb128 0x2116
 3547 0232 19       		.uleb128 0x19
 3548 0233 01       		.uleb128 0x1
 3549 0234 13       		.uleb128 0x13
 3550 0235 00       		.byte	0
 3551 0236 00       		.byte	0
 3552 0237 2A       		.uleb128 0x2a
 3553 0238 34       		.uleb128 0x34
 3554 0239 00       		.byte	0
 3555 023a 03       		.uleb128 0x3
 3556 023b 0E       		.uleb128 0xe
 3557 023c 3A       		.uleb128 0x3a
 3558 023d 0B       		.uleb128 0xb
 3559 023e 3B       		.uleb128 0x3b
 3560 023f 0B       		.uleb128 0xb
 3561 0240 49       		.uleb128 0x49
 3562 0241 13       		.uleb128 0x13
 3563 0242 02       		.uleb128 0x2
 3564 0243 17       		.uleb128 0x17
 3565 0244 00       		.byte	0
 3566 0245 00       		.byte	0
 3567 0246 2B       		.uleb128 0x2b
 3568 0247 2E       		.uleb128 0x2e
 3569 0248 01       		.byte	0x1
 3570 0249 3F       		.uleb128 0x3f
 3571 024a 19       		.uleb128 0x19
 3572 024b 03       		.uleb128 0x3
 3573 024c 0E       		.uleb128 0xe
 3574 024d 3A       		.uleb128 0x3a
 3575 024e 0B       		.uleb128 0xb
 3576 024f 3B       		.uleb128 0x3b
 3577 0250 0B       		.uleb128 0xb
 3578 0251 27       		.uleb128 0x27
 3579 0252 19       		.uleb128 0x19
 3580 0253 49       		.uleb128 0x49
 3581 0254 13       		.uleb128 0x13
 3582 0255 3C       		.uleb128 0x3c
 3583 0256 19       		.uleb128 0x19
 3584 0257 01       		.uleb128 0x1
 3585 0258 13       		.uleb128 0x13
 3586 0259 00       		.byte	0
 3587 025a 00       		.byte	0
 3588 025b 2C       		.uleb128 0x2c
 3589 025c 34       		.uleb128 0x34
 3590 025d 00       		.byte	0
 3591 025e 03       		.uleb128 0x3
ARM GAS  /var/folders/m4/4md61f0s1_g0rzfghffqnxvr0000gn/T//ccYVkMSH.s 			page 64


 3592 025f 08       		.uleb128 0x8
 3593 0260 3A       		.uleb128 0x3a
 3594 0261 0B       		.uleb128 0xb
 3595 0262 3B       		.uleb128 0x3b
 3596 0263 0B       		.uleb128 0xb
 3597 0264 49       		.uleb128 0x49
 3598 0265 13       		.uleb128 0x13
 3599 0266 02       		.uleb128 0x2
 3600 0267 17       		.uleb128 0x17
 3601 0268 00       		.byte	0
 3602 0269 00       		.byte	0
 3603 026a 2D       		.uleb128 0x2d
 3604 026b 34       		.uleb128 0x34
 3605 026c 00       		.byte	0
 3606 026d 03       		.uleb128 0x3
 3607 026e 08       		.uleb128 0x8
 3608 026f 3A       		.uleb128 0x3a
 3609 0270 0B       		.uleb128 0xb
 3610 0271 3B       		.uleb128 0x3b
 3611 0272 0B       		.uleb128 0xb
 3612 0273 49       		.uleb128 0x49
 3613 0274 13       		.uleb128 0x13
 3614 0275 02       		.uleb128 0x2
 3615 0276 18       		.uleb128 0x18
 3616 0277 00       		.byte	0
 3617 0278 00       		.byte	0
 3618 0279 2E       		.uleb128 0x2e
 3619 027a 898201   		.uleb128 0x4109
 3620 027d 00       		.byte	0
 3621 027e 11       		.uleb128 0x11
 3622 027f 01       		.uleb128 0x1
 3623 0280 31       		.uleb128 0x31
 3624 0281 13       		.uleb128 0x13
 3625 0282 00       		.byte	0
 3626 0283 00       		.byte	0
 3627 0284 2F       		.uleb128 0x2f
 3628 0285 34       		.uleb128 0x34
 3629 0286 00       		.byte	0
 3630 0287 03       		.uleb128 0x3
 3631 0288 0E       		.uleb128 0xe
 3632 0289 3A       		.uleb128 0x3a
 3633 028a 0B       		.uleb128 0xb
 3634 028b 3B       		.uleb128 0x3b
 3635 028c 05       		.uleb128 0x5
 3636 028d 49       		.uleb128 0x49
 3637 028e 13       		.uleb128 0x13
 3638 028f 3F       		.uleb128 0x3f
 3639 0290 19       		.uleb128 0x19
 3640 0291 3C       		.uleb128 0x3c
 3641 0292 19       		.uleb128 0x19
 3642 0293 00       		.byte	0
 3643 0294 00       		.byte	0
 3644 0295 30       		.uleb128 0x30
 3645 0296 34       		.uleb128 0x34
 3646 0297 00       		.byte	0
 3647 0298 03       		.uleb128 0x3
 3648 0299 08       		.uleb128 0x8
ARM GAS  /var/folders/m4/4md61f0s1_g0rzfghffqnxvr0000gn/T//ccYVkMSH.s 			page 65


 3649 029a 3A       		.uleb128 0x3a
 3650 029b 0B       		.uleb128 0xb
 3651 029c 3B       		.uleb128 0x3b
 3652 029d 05       		.uleb128 0x5
 3653 029e 49       		.uleb128 0x49
 3654 029f 13       		.uleb128 0x13
 3655 02a0 3F       		.uleb128 0x3f
 3656 02a1 19       		.uleb128 0x19
 3657 02a2 3C       		.uleb128 0x3c
 3658 02a3 19       		.uleb128 0x19
 3659 02a4 00       		.byte	0
 3660 02a5 00       		.byte	0
 3661 02a6 31       		.uleb128 0x31
 3662 02a7 2E       		.uleb128 0x2e
 3663 02a8 01       		.byte	0x1
 3664 02a9 3F       		.uleb128 0x3f
 3665 02aa 19       		.uleb128 0x19
 3666 02ab 03       		.uleb128 0x3
 3667 02ac 0E       		.uleb128 0xe
 3668 02ad 3A       		.uleb128 0x3a
 3669 02ae 0B       		.uleb128 0xb
 3670 02af 3B       		.uleb128 0x3b
 3671 02b0 0B       		.uleb128 0xb
 3672 02b1 27       		.uleb128 0x27
 3673 02b2 19       		.uleb128 0x19
 3674 02b3 3C       		.uleb128 0x3c
 3675 02b4 19       		.uleb128 0x19
 3676 02b5 01       		.uleb128 0x1
 3677 02b6 13       		.uleb128 0x13
 3678 02b7 00       		.byte	0
 3679 02b8 00       		.byte	0
 3680 02b9 32       		.uleb128 0x32
 3681 02ba 2E       		.uleb128 0x2e
 3682 02bb 01       		.byte	0x1
 3683 02bc 3F       		.uleb128 0x3f
 3684 02bd 19       		.uleb128 0x19
 3685 02be 03       		.uleb128 0x3
 3686 02bf 0E       		.uleb128 0xe
 3687 02c0 3A       		.uleb128 0x3a
 3688 02c1 0B       		.uleb128 0xb
 3689 02c2 3B       		.uleb128 0x3b
 3690 02c3 05       		.uleb128 0x5
 3691 02c4 27       		.uleb128 0x27
 3692 02c5 19       		.uleb128 0x19
 3693 02c6 3C       		.uleb128 0x3c
 3694 02c7 19       		.uleb128 0x19
 3695 02c8 01       		.uleb128 0x1
 3696 02c9 13       		.uleb128 0x13
 3697 02ca 00       		.byte	0
 3698 02cb 00       		.byte	0
 3699 02cc 33       		.uleb128 0x33
 3700 02cd 2E       		.uleb128 0x2e
 3701 02ce 01       		.byte	0x1
 3702 02cf 3F       		.uleb128 0x3f
 3703 02d0 19       		.uleb128 0x19
 3704 02d1 03       		.uleb128 0x3
 3705 02d2 0E       		.uleb128 0xe
ARM GAS  /var/folders/m4/4md61f0s1_g0rzfghffqnxvr0000gn/T//ccYVkMSH.s 			page 66


 3706 02d3 3A       		.uleb128 0x3a
 3707 02d4 0B       		.uleb128 0xb
 3708 02d5 3B       		.uleb128 0x3b
 3709 02d6 0B       		.uleb128 0xb
 3710 02d7 27       		.uleb128 0x27
 3711 02d8 19       		.uleb128 0x19
 3712 02d9 3C       		.uleb128 0x3c
 3713 02da 19       		.uleb128 0x19
 3714 02db 00       		.byte	0
 3715 02dc 00       		.byte	0
 3716 02dd 00       		.byte	0
 3717              		.section	.debug_loc,"",%progbits
 3718              	.Ldebug_loc0:
 3719              	.LLST0:
 3720 0000 00000000 		.4byte	.LVL0
 3721 0004 10000000 		.4byte	.LVL1
 3722 0008 0100     		.2byte	0x1
 3723 000a 50       		.byte	0x50
 3724 000b 10000000 		.4byte	.LVL1
 3725 000f 13000000 		.4byte	.LVL2-1
 3726 0013 0200     		.2byte	0x2
 3727 0015 75       		.byte	0x75
 3728 0016 00       		.sleb128 0
 3729 0017 13000000 		.4byte	.LVL2-1
 3730 001b 38000000 		.4byte	.LFE272
 3731 001f 0400     		.2byte	0x4
 3732 0021 F3       		.byte	0xf3
 3733 0022 01       		.uleb128 0x1
 3734 0023 50       		.byte	0x50
 3735 0024 9F       		.byte	0x9f
 3736 0025 00000000 		.4byte	0
 3737 0029 00000000 		.4byte	0
 3738              	.LLST1:
 3739 002d 00000000 		.4byte	.LVL7
 3740 0031 10000000 		.4byte	.LVL8
 3741 0035 0100     		.2byte	0x1
 3742 0037 50       		.byte	0x50
 3743 0038 10000000 		.4byte	.LVL8
 3744 003c 15000000 		.4byte	.LVL9-1
 3745 0040 0200     		.2byte	0x2
 3746 0042 75       		.byte	0x75
 3747 0043 00       		.sleb128 0
 3748 0044 15000000 		.4byte	.LVL9-1
 3749 0048 38000000 		.4byte	.LFE273
 3750 004c 0400     		.2byte	0x4
 3751 004e F3       		.byte	0xf3
 3752 004f 01       		.uleb128 0x1
 3753 0050 50       		.byte	0x50
 3754 0051 9F       		.byte	0x9f
 3755 0052 00000000 		.4byte	0
 3756 0056 00000000 		.4byte	0
 3757              	.LLST2:
 3758 005a 00000000 		.4byte	.LVL7
 3759 005e 15000000 		.4byte	.LVL9-1
 3760 0062 0100     		.2byte	0x1
 3761 0064 51       		.byte	0x51
 3762 0065 15000000 		.4byte	.LVL9-1
ARM GAS  /var/folders/m4/4md61f0s1_g0rzfghffqnxvr0000gn/T//ccYVkMSH.s 			page 67


 3763 0069 38000000 		.4byte	.LFE273
 3764 006d 0400     		.2byte	0x4
 3765 006f F3       		.byte	0xf3
 3766 0070 01       		.uleb128 0x1
 3767 0071 51       		.byte	0x51
 3768 0072 9F       		.byte	0x9f
 3769 0073 00000000 		.4byte	0
 3770 0077 00000000 		.4byte	0
 3771              	.LLST3:
 3772 007b 00000000 		.4byte	.LVL7
 3773 007f 15000000 		.4byte	.LVL9-1
 3774 0083 0100     		.2byte	0x1
 3775 0085 52       		.byte	0x52
 3776 0086 15000000 		.4byte	.LVL9-1
 3777 008a 32000000 		.4byte	.LVL12
 3778 008e 0100     		.2byte	0x1
 3779 0090 57       		.byte	0x57
 3780 0091 32000000 		.4byte	.LVL12
 3781 0095 38000000 		.4byte	.LFE273
 3782 0099 0400     		.2byte	0x4
 3783 009b F3       		.byte	0xf3
 3784 009c 01       		.uleb128 0x1
 3785 009d 52       		.byte	0x52
 3786 009e 9F       		.byte	0x9f
 3787 009f 00000000 		.4byte	0
 3788 00a3 00000000 		.4byte	0
 3789              	.LLST4:
 3790 00a7 00000000 		.4byte	.LVL13
 3791 00ab 19000000 		.4byte	.LVL14-1
 3792 00af 0100     		.2byte	0x1
 3793 00b1 50       		.byte	0x50
 3794 00b2 19000000 		.4byte	.LVL14-1
 3795 00b6 7C010000 		.4byte	.LFE269
 3796 00ba 0400     		.2byte	0x4
 3797 00bc F3       		.byte	0xf3
 3798 00bd 01       		.uleb128 0x1
 3799 00be 50       		.byte	0x50
 3800 00bf 9F       		.byte	0x9f
 3801 00c0 00000000 		.4byte	0
 3802 00c4 00000000 		.4byte	0
 3803              	.LLST5:
 3804 00c8 84000000 		.4byte	.LVL20
 3805 00cc 86000000 		.4byte	.LVL21
 3806 00d0 0800     		.2byte	0x8
 3807 00d2 50       		.byte	0x50
 3808 00d3 93       		.byte	0x93
 3809 00d4 04       		.uleb128 0x4
 3810 00d5 51       		.byte	0x51
 3811 00d6 93       		.byte	0x93
 3812 00d7 04       		.uleb128 0x4
 3813 00d8 93       		.byte	0x93
 3814 00d9 10       		.uleb128 0x10
 3815 00da 86000000 		.4byte	.LVL21
 3816 00de 96000000 		.4byte	.LVL24
 3817 00e2 0A00     		.2byte	0xa
 3818 00e4 90       		.byte	0x90
 3819 00e5 54       		.uleb128 0x54
ARM GAS  /var/folders/m4/4md61f0s1_g0rzfghffqnxvr0000gn/T//ccYVkMSH.s 			page 68


 3820 00e6 93       		.byte	0x93
 3821 00e7 04       		.uleb128 0x4
 3822 00e8 90       		.byte	0x90
 3823 00e9 55       		.uleb128 0x55
 3824 00ea 93       		.byte	0x93
 3825 00eb 04       		.uleb128 0x4
 3826 00ec 93       		.byte	0x93
 3827 00ed 10       		.uleb128 0x10
 3828 00ee 96000000 		.4byte	.LVL24
 3829 00f2 98000000 		.4byte	.LVL25
 3830 00f6 1000     		.2byte	0x10
 3831 00f8 90       		.byte	0x90
 3832 00f9 54       		.uleb128 0x54
 3833 00fa 93       		.byte	0x93
 3834 00fb 04       		.uleb128 0x4
 3835 00fc 90       		.byte	0x90
 3836 00fd 55       		.uleb128 0x55
 3837 00fe 93       		.byte	0x93
 3838 00ff 04       		.uleb128 0x4
 3839 0100 50       		.byte	0x50
 3840 0101 93       		.byte	0x93
 3841 0102 04       		.uleb128 0x4
 3842 0103 51       		.byte	0x51
 3843 0104 93       		.byte	0x93
 3844 0105 04       		.uleb128 0x4
 3845 0106 93       		.byte	0x93
 3846 0107 08       		.uleb128 0x8
 3847 0108 98000000 		.4byte	.LVL25
 3848 010c A8000000 		.4byte	.LVL28
 3849 0110 1200     		.2byte	0x12
 3850 0112 90       		.byte	0x90
 3851 0113 54       		.uleb128 0x54
 3852 0114 93       		.byte	0x93
 3853 0115 04       		.uleb128 0x4
 3854 0116 90       		.byte	0x90
 3855 0117 55       		.uleb128 0x55
 3856 0118 93       		.byte	0x93
 3857 0119 04       		.uleb128 0x4
 3858 011a 90       		.byte	0x90
 3859 011b 52       		.uleb128 0x52
 3860 011c 93       		.byte	0x93
 3861 011d 04       		.uleb128 0x4
 3862 011e 90       		.byte	0x90
 3863 011f 53       		.uleb128 0x53
 3864 0120 93       		.byte	0x93
 3865 0121 04       		.uleb128 0x4
 3866 0122 93       		.byte	0x93
 3867 0123 08       		.uleb128 0x8
 3868 0124 A8000000 		.4byte	.LVL28
 3869 0128 C6000000 		.4byte	.LVL29
 3870 012c 1800     		.2byte	0x18
 3871 012e 90       		.byte	0x90
 3872 012f 54       		.uleb128 0x54
 3873 0130 93       		.byte	0x93
 3874 0131 04       		.uleb128 0x4
 3875 0132 90       		.byte	0x90
 3876 0133 55       		.uleb128 0x55
ARM GAS  /var/folders/m4/4md61f0s1_g0rzfghffqnxvr0000gn/T//ccYVkMSH.s 			page 69


 3877 0134 93       		.byte	0x93
 3878 0135 04       		.uleb128 0x4
 3879 0136 90       		.byte	0x90
 3880 0137 52       		.uleb128 0x52
 3881 0138 93       		.byte	0x93
 3882 0139 04       		.uleb128 0x4
 3883 013a 90       		.byte	0x90
 3884 013b 53       		.uleb128 0x53
 3885 013c 93       		.byte	0x93
 3886 013d 04       		.uleb128 0x4
 3887 013e 90       		.byte	0x90
 3888 013f 50       		.uleb128 0x50
 3889 0140 93       		.byte	0x93
 3890 0141 04       		.uleb128 0x4
 3891 0142 90       		.byte	0x90
 3892 0143 51       		.uleb128 0x51
 3893 0144 93       		.byte	0x93
 3894 0145 04       		.uleb128 0x4
 3895 0146 C6000000 		.4byte	.LVL29
 3896 014a C8000000 		.4byte	.LVL30
 3897 014e 1800     		.2byte	0x18
 3898 0150 90       		.byte	0x90
 3899 0151 40       		.uleb128 0x40
 3900 0152 93       		.byte	0x93
 3901 0153 04       		.uleb128 0x4
 3902 0154 90       		.byte	0x90
 3903 0155 41       		.uleb128 0x41
 3904 0156 93       		.byte	0x93
 3905 0157 04       		.uleb128 0x4
 3906 0158 90       		.byte	0x90
 3907 0159 42       		.uleb128 0x42
 3908 015a 93       		.byte	0x93
 3909 015b 04       		.uleb128 0x4
 3910 015c 90       		.byte	0x90
 3911 015d 43       		.uleb128 0x43
 3912 015e 93       		.byte	0x93
 3913 015f 04       		.uleb128 0x4
 3914 0160 90       		.byte	0x90
 3915 0161 44       		.uleb128 0x44
 3916 0162 93       		.byte	0x93
 3917 0163 04       		.uleb128 0x4
 3918 0164 90       		.byte	0x90
 3919 0165 45       		.uleb128 0x45
 3920 0166 93       		.byte	0x93
 3921 0167 04       		.uleb128 0x4
 3922 0168 DA000000 		.4byte	.LVL33
 3923 016c DC000000 		.4byte	.LVL34
 3924 0170 0800     		.2byte	0x8
 3925 0172 93       		.byte	0x93
 3926 0173 10       		.uleb128 0x10
 3927 0174 50       		.byte	0x50
 3928 0175 93       		.byte	0x93
 3929 0176 04       		.uleb128 0x4
 3930 0177 51       		.byte	0x51
 3931 0178 93       		.byte	0x93
 3932 0179 04       		.uleb128 0x4
 3933 017a DC000000 		.4byte	.LVL34
ARM GAS  /var/folders/m4/4md61f0s1_g0rzfghffqnxvr0000gn/T//ccYVkMSH.s 			page 70


 3934 017e EC000000 		.4byte	.LVL37
 3935 0182 0A00     		.2byte	0xa
 3936 0184 93       		.byte	0x93
 3937 0185 10       		.uleb128 0x10
 3938 0186 90       		.byte	0x90
 3939 0187 50       		.uleb128 0x50
 3940 0188 93       		.byte	0x93
 3941 0189 04       		.uleb128 0x4
 3942 018a 90       		.byte	0x90
 3943 018b 51       		.uleb128 0x51
 3944 018c 93       		.byte	0x93
 3945 018d 04       		.uleb128 0x4
 3946 018e EC000000 		.4byte	.LVL37
 3947 0192 EE000000 		.4byte	.LVL38
 3948 0196 1000     		.2byte	0x10
 3949 0198 93       		.byte	0x93
 3950 0199 08       		.uleb128 0x8
 3951 019a 50       		.byte	0x50
 3952 019b 93       		.byte	0x93
 3953 019c 04       		.uleb128 0x4
 3954 019d 51       		.byte	0x51
 3955 019e 93       		.byte	0x93
 3956 019f 04       		.uleb128 0x4
 3957 01a0 90       		.byte	0x90
 3958 01a1 50       		.uleb128 0x50
 3959 01a2 93       		.byte	0x93
 3960 01a3 04       		.uleb128 0x4
 3961 01a4 90       		.byte	0x90
 3962 01a5 51       		.uleb128 0x51
 3963 01a6 93       		.byte	0x93
 3964 01a7 04       		.uleb128 0x4
 3965 01a8 EE000000 		.4byte	.LVL38
 3966 01ac FE000000 		.4byte	.LVL41
 3967 01b0 1200     		.2byte	0x12
 3968 01b2 93       		.byte	0x93
 3969 01b3 08       		.uleb128 0x8
 3970 01b4 90       		.byte	0x90
 3971 01b5 52       		.uleb128 0x52
 3972 01b6 93       		.byte	0x93
 3973 01b7 04       		.uleb128 0x4
 3974 01b8 90       		.byte	0x90
 3975 01b9 53       		.uleb128 0x53
 3976 01ba 93       		.byte	0x93
 3977 01bb 04       		.uleb128 0x4
 3978 01bc 90       		.byte	0x90
 3979 01bd 50       		.uleb128 0x50
 3980 01be 93       		.byte	0x93
 3981 01bf 04       		.uleb128 0x4
 3982 01c0 90       		.byte	0x90
 3983 01c1 51       		.uleb128 0x51
 3984 01c2 93       		.byte	0x93
 3985 01c3 04       		.uleb128 0x4
 3986 01c4 FE000000 		.4byte	.LVL41
 3987 01c8 00010000 		.4byte	.LVL42
 3988 01cc 1600     		.2byte	0x16
 3989 01ce 50       		.byte	0x50
 3990 01cf 93       		.byte	0x93
ARM GAS  /var/folders/m4/4md61f0s1_g0rzfghffqnxvr0000gn/T//ccYVkMSH.s 			page 71


 3991 01d0 04       		.uleb128 0x4
 3992 01d1 51       		.byte	0x51
 3993 01d2 93       		.byte	0x93
 3994 01d3 04       		.uleb128 0x4
 3995 01d4 90       		.byte	0x90
 3996 01d5 52       		.uleb128 0x52
 3997 01d6 93       		.byte	0x93
 3998 01d7 04       		.uleb128 0x4
 3999 01d8 90       		.byte	0x90
 4000 01d9 53       		.uleb128 0x53
 4001 01da 93       		.byte	0x93
 4002 01db 04       		.uleb128 0x4
 4003 01dc 90       		.byte	0x90
 4004 01dd 50       		.uleb128 0x50
 4005 01de 93       		.byte	0x93
 4006 01df 04       		.uleb128 0x4
 4007 01e0 90       		.byte	0x90
 4008 01e1 51       		.uleb128 0x51
 4009 01e2 93       		.byte	0x93
 4010 01e3 04       		.uleb128 0x4
 4011 01e4 12010000 		.4byte	.LVL45
 4012 01e8 14010000 		.4byte	.LVL46
 4013 01ec 0800     		.2byte	0x8
 4014 01ee 50       		.byte	0x50
 4015 01ef 93       		.byte	0x93
 4016 01f0 04       		.uleb128 0x4
 4017 01f1 51       		.byte	0x51
 4018 01f2 93       		.byte	0x93
 4019 01f3 04       		.uleb128 0x4
 4020 01f4 93       		.byte	0x93
 4021 01f5 10       		.uleb128 0x10
 4022 01f6 14010000 		.4byte	.LVL46
 4023 01fa 24010000 		.4byte	.LVL49
 4024 01fe 0A00     		.2byte	0xa
 4025 0200 90       		.byte	0x90
 4026 0201 54       		.uleb128 0x54
 4027 0202 93       		.byte	0x93
 4028 0203 04       		.uleb128 0x4
 4029 0204 90       		.byte	0x90
 4030 0205 55       		.uleb128 0x55
 4031 0206 93       		.byte	0x93
 4032 0207 04       		.uleb128 0x4
 4033 0208 93       		.byte	0x93
 4034 0209 10       		.uleb128 0x10
 4035 020a 24010000 		.4byte	.LVL49
 4036 020e 26010000 		.4byte	.LVL50
 4037 0212 1000     		.2byte	0x10
 4038 0214 90       		.byte	0x90
 4039 0215 54       		.uleb128 0x54
 4040 0216 93       		.byte	0x93
 4041 0217 04       		.uleb128 0x4
 4042 0218 90       		.byte	0x90
 4043 0219 55       		.uleb128 0x55
 4044 021a 93       		.byte	0x93
 4045 021b 04       		.uleb128 0x4
 4046 021c 50       		.byte	0x50
 4047 021d 93       		.byte	0x93
ARM GAS  /var/folders/m4/4md61f0s1_g0rzfghffqnxvr0000gn/T//ccYVkMSH.s 			page 72


 4048 021e 04       		.uleb128 0x4
 4049 021f 51       		.byte	0x51
 4050 0220 93       		.byte	0x93
 4051 0221 04       		.uleb128 0x4
 4052 0222 93       		.byte	0x93
 4053 0223 08       		.uleb128 0x8
 4054 0224 26010000 		.4byte	.LVL50
 4055 0228 36010000 		.4byte	.LVL53
 4056 022c 1200     		.2byte	0x12
 4057 022e 90       		.byte	0x90
 4058 022f 54       		.uleb128 0x54
 4059 0230 93       		.byte	0x93
 4060 0231 04       		.uleb128 0x4
 4061 0232 90       		.byte	0x90
 4062 0233 55       		.uleb128 0x55
 4063 0234 93       		.byte	0x93
 4064 0235 04       		.uleb128 0x4
 4065 0236 90       		.byte	0x90
 4066 0237 52       		.uleb128 0x52
 4067 0238 93       		.byte	0x93
 4068 0239 04       		.uleb128 0x4
 4069 023a 90       		.byte	0x90
 4070 023b 53       		.uleb128 0x53
 4071 023c 93       		.byte	0x93
 4072 023d 04       		.uleb128 0x4
 4073 023e 93       		.byte	0x93
 4074 023f 08       		.uleb128 0x8
 4075 0240 36010000 		.4byte	.LVL53
 4076 0244 38010000 		.4byte	.LVL54
 4077 0248 1600     		.2byte	0x16
 4078 024a 90       		.byte	0x90
 4079 024b 54       		.uleb128 0x54
 4080 024c 93       		.byte	0x93
 4081 024d 04       		.uleb128 0x4
 4082 024e 90       		.byte	0x90
 4083 024f 55       		.uleb128 0x55
 4084 0250 93       		.byte	0x93
 4085 0251 04       		.uleb128 0x4
 4086 0252 90       		.byte	0x90
 4087 0253 52       		.uleb128 0x52
 4088 0254 93       		.byte	0x93
 4089 0255 04       		.uleb128 0x4
 4090 0256 90       		.byte	0x90
 4091 0257 53       		.uleb128 0x53
 4092 0258 93       		.byte	0x93
 4093 0259 04       		.uleb128 0x4
 4094 025a 50       		.byte	0x50
 4095 025b 93       		.byte	0x93
 4096 025c 04       		.uleb128 0x4
 4097 025d 51       		.byte	0x51
 4098 025e 93       		.byte	0x93
 4099 025f 04       		.uleb128 0x4
 4100 0260 4A010000 		.4byte	.LVL57
 4101 0264 4C010000 		.4byte	.LVL58
 4102 0268 0800     		.2byte	0x8
 4103 026a 50       		.byte	0x50
 4104 026b 93       		.byte	0x93
ARM GAS  /var/folders/m4/4md61f0s1_g0rzfghffqnxvr0000gn/T//ccYVkMSH.s 			page 73


 4105 026c 04       		.uleb128 0x4
 4106 026d 51       		.byte	0x51
 4107 026e 93       		.byte	0x93
 4108 026f 04       		.uleb128 0x4
 4109 0270 93       		.byte	0x93
 4110 0271 10       		.uleb128 0x10
 4111 0272 4C010000 		.4byte	.LVL58
 4112 0276 5C010000 		.4byte	.LVL61
 4113 027a 0A00     		.2byte	0xa
 4114 027c 90       		.byte	0x90
 4115 027d 54       		.uleb128 0x54
 4116 027e 93       		.byte	0x93
 4117 027f 04       		.uleb128 0x4
 4118 0280 90       		.byte	0x90
 4119 0281 55       		.uleb128 0x55
 4120 0282 93       		.byte	0x93
 4121 0283 04       		.uleb128 0x4
 4122 0284 93       		.byte	0x93
 4123 0285 10       		.uleb128 0x10
 4124 0286 5C010000 		.4byte	.LVL61
 4125 028a 5E010000 		.4byte	.LVL62
 4126 028e 1000     		.2byte	0x10
 4127 0290 90       		.byte	0x90
 4128 0291 54       		.uleb128 0x54
 4129 0292 93       		.byte	0x93
 4130 0293 04       		.uleb128 0x4
 4131 0294 90       		.byte	0x90
 4132 0295 55       		.uleb128 0x55
 4133 0296 93       		.byte	0x93
 4134 0297 04       		.uleb128 0x4
 4135 0298 50       		.byte	0x50
 4136 0299 93       		.byte	0x93
 4137 029a 04       		.uleb128 0x4
 4138 029b 51       		.byte	0x51
 4139 029c 93       		.byte	0x93
 4140 029d 04       		.uleb128 0x4
 4141 029e 93       		.byte	0x93
 4142 029f 08       		.uleb128 0x8
 4143 02a0 5E010000 		.4byte	.LVL62
 4144 02a4 6E010000 		.4byte	.LVL65
 4145 02a8 1200     		.2byte	0x12
 4146 02aa 90       		.byte	0x90
 4147 02ab 54       		.uleb128 0x54
 4148 02ac 93       		.byte	0x93
 4149 02ad 04       		.uleb128 0x4
 4150 02ae 90       		.byte	0x90
 4151 02af 55       		.uleb128 0x55
 4152 02b0 93       		.byte	0x93
 4153 02b1 04       		.uleb128 0x4
 4154 02b2 90       		.byte	0x90
 4155 02b3 52       		.uleb128 0x52
 4156 02b4 93       		.byte	0x93
 4157 02b5 04       		.uleb128 0x4
 4158 02b6 90       		.byte	0x90
 4159 02b7 53       		.uleb128 0x53
 4160 02b8 93       		.byte	0x93
 4161 02b9 04       		.uleb128 0x4
ARM GAS  /var/folders/m4/4md61f0s1_g0rzfghffqnxvr0000gn/T//ccYVkMSH.s 			page 74


 4162 02ba 93       		.byte	0x93
 4163 02bb 08       		.uleb128 0x8
 4164 02bc 6E010000 		.4byte	.LVL65
 4165 02c0 7C010000 		.4byte	.LFE269
 4166 02c4 1600     		.2byte	0x16
 4167 02c6 90       		.byte	0x90
 4168 02c7 54       		.uleb128 0x54
 4169 02c8 93       		.byte	0x93
 4170 02c9 04       		.uleb128 0x4
 4171 02ca 90       		.byte	0x90
 4172 02cb 55       		.uleb128 0x55
 4173 02cc 93       		.byte	0x93
 4174 02cd 04       		.uleb128 0x4
 4175 02ce 90       		.byte	0x90
 4176 02cf 52       		.uleb128 0x52
 4177 02d0 93       		.byte	0x93
 4178 02d1 04       		.uleb128 0x4
 4179 02d2 90       		.byte	0x90
 4180 02d3 53       		.uleb128 0x53
 4181 02d4 93       		.byte	0x93
 4182 02d5 04       		.uleb128 0x4
 4183 02d6 50       		.byte	0x50
 4184 02d7 93       		.byte	0x93
 4185 02d8 04       		.uleb128 0x4
 4186 02d9 51       		.byte	0x51
 4187 02da 93       		.byte	0x93
 4188 02db 04       		.uleb128 0x4
 4189 02dc 00000000 		.4byte	0
 4190 02e0 00000000 		.4byte	0
 4191              	.LLST6:
 4192 02e4 3A000000 		.4byte	.LVL15
 4193 02e8 77000000 		.4byte	.LVL18-1
 4194 02ec 0100     		.2byte	0x1
 4195 02ee 50       		.byte	0x50
 4196 02ef C8000000 		.4byte	.LVL30
 4197 02f3 CD000000 		.4byte	.LVL31-1
 4198 02f7 0100     		.2byte	0x1
 4199 02f9 50       		.byte	0x50
 4200 02fa 00010000 		.4byte	.LVL42
 4201 02fe 05010000 		.4byte	.LVL43-1
 4202 0302 0100     		.2byte	0x1
 4203 0304 50       		.byte	0x50
 4204 0305 38010000 		.4byte	.LVL54
 4205 0309 3D010000 		.4byte	.LVL55-1
 4206 030d 0100     		.2byte	0x1
 4207 030f 50       		.byte	0x50
 4208 0310 00000000 		.4byte	0
 4209 0314 00000000 		.4byte	0
 4210              	.LLST7:
 4211 0318 00000000 		.4byte	.LVL66
 4212 031c 0C000000 		.4byte	.LVL67
 4213 0320 0100     		.2byte	0x1
 4214 0322 50       		.byte	0x50
 4215 0323 0C000000 		.4byte	.LVL67
 4216 0327 13000000 		.4byte	.LVL68-1
 4217 032b 0200     		.2byte	0x2
 4218 032d 91       		.byte	0x91
ARM GAS  /var/folders/m4/4md61f0s1_g0rzfghffqnxvr0000gn/T//ccYVkMSH.s 			page 75


 4219 032e 74       		.sleb128 -12
 4220 032f 13000000 		.4byte	.LVL68-1
 4221 0333 38000000 		.4byte	.LFE274
 4222 0337 0400     		.2byte	0x4
 4223 0339 F3       		.byte	0xf3
 4224 033a 01       		.uleb128 0x1
 4225 033b 50       		.byte	0x50
 4226 033c 9F       		.byte	0x9f
 4227 033d 00000000 		.4byte	0
 4228 0341 00000000 		.4byte	0
 4229              	.LLST8:
 4230 0345 00000000 		.4byte	.LVL66
 4231 0349 13000000 		.4byte	.LVL68-1
 4232 034d 0100     		.2byte	0x1
 4233 034f 51       		.byte	0x51
 4234 0350 13000000 		.4byte	.LVL68-1
 4235 0354 38000000 		.4byte	.LFE274
 4236 0358 0400     		.2byte	0x4
 4237 035a F3       		.byte	0xf3
 4238 035b 01       		.uleb128 0x1
 4239 035c 51       		.byte	0x51
 4240 035d 9F       		.byte	0x9f
 4241 035e 00000000 		.4byte	0
 4242 0362 00000000 		.4byte	0
 4243              	.LLST9:
 4244 0366 28000000 		.4byte	.LVL74
 4245 036a 30000000 		.4byte	.LVL75
 4246 036e 0100     		.2byte	0x1
 4247 0370 50       		.byte	0x50
 4248 0371 3A000000 		.4byte	.LVL77
 4249 0375 40000000 		.4byte	.LVL78
 4250 0379 0100     		.2byte	0x1
 4251 037b 50       		.byte	0x50
 4252 037c 42000000 		.4byte	.LVL79
 4253 0380 46000000 		.4byte	.LVL80
 4254 0384 0100     		.2byte	0x1
 4255 0386 50       		.byte	0x50
 4256 0387 00000000 		.4byte	0
 4257 038b 00000000 		.4byte	0
 4258              		.section	.debug_aranges,"",%progbits
 4259 0000 4C000000 		.4byte	0x4c
 4260 0004 0200     		.2byte	0x2
 4261 0006 00000000 		.4byte	.Ldebug_info0
 4262 000a 04       		.byte	0x4
 4263 000b 00       		.byte	0
 4264 000c 0000     		.2byte	0
 4265 000e 0000     		.2byte	0
 4266 0010 00000000 		.4byte	.LFB272
 4267 0014 38000000 		.4byte	.LFE272-.LFB272
 4268 0018 00000000 		.4byte	.LFB270
 4269 001c 06000000 		.4byte	.LFE270-.LFB270
 4270 0020 00000000 		.4byte	.LFB271
 4271 0024 06000000 		.4byte	.LFE271-.LFB271
 4272 0028 00000000 		.4byte	.LFB273
 4273 002c 38000000 		.4byte	.LFE273-.LFB273
 4274 0030 00000000 		.4byte	.LFB269
 4275 0034 7C010000 		.4byte	.LFE269-.LFB269
ARM GAS  /var/folders/m4/4md61f0s1_g0rzfghffqnxvr0000gn/T//ccYVkMSH.s 			page 76


 4276 0038 00000000 		.4byte	.LFB274
 4277 003c 38000000 		.4byte	.LFE274-.LFB274
 4278 0040 00000000 		.4byte	.LFB268
 4279 0044 BC000000 		.4byte	.LFE268-.LFB268
 4280 0048 00000000 		.4byte	0
 4281 004c 00000000 		.4byte	0
 4282              		.section	.debug_ranges,"",%progbits
 4283              	.Ldebug_ranges0:
 4284 0000 00000000 		.4byte	.LFB272
 4285 0004 38000000 		.4byte	.LFE272
 4286 0008 00000000 		.4byte	.LFB270
 4287 000c 06000000 		.4byte	.LFE270
 4288 0010 00000000 		.4byte	.LFB271
 4289 0014 06000000 		.4byte	.LFE271
 4290 0018 00000000 		.4byte	.LFB273
 4291 001c 38000000 		.4byte	.LFE273
 4292 0020 00000000 		.4byte	.LFB269
 4293 0024 7C010000 		.4byte	.LFE269
 4294 0028 00000000 		.4byte	.LFB274
 4295 002c 38000000 		.4byte	.LFE274
 4296 0030 00000000 		.4byte	.LFB268
 4297 0034 BC000000 		.4byte	.LFE268
 4298 0038 00000000 		.4byte	0
 4299 003c 00000000 		.4byte	0
 4300              		.section	.debug_line,"",%progbits
 4301              	.Ldebug_line0:
 4302 0000 4E040000 		.section	.debug_str,"MS",%progbits,1
 4302      02007603 
 4302      00000201 
 4302      FB0E0D00 
 4302      01010101 
 4303              	.LASF195:
 4304 0000 2F557365 		.ascii	"/Users/raphael/Documents/pcb-quadrotor/code\000"
 4304      72732F72 
 4304      61706861 
 4304      656C2F44 
 4304      6F63756D 
 4305              	.LASF168:
 4306 002c 646D6172 		.ascii	"dmarx\000"
 4306      7800
 4307              	.LASF154:
 4308 0032 69326364 		.ascii	"i2cdutycycle_t\000"
 4308      75747963 
 4308      79636C65 
 4308      5F7400
 4309              	.LASF58:
 4310 0041 72656164 		.ascii	"ready_list_t\000"
 4310      795F6C69 
 4310      73745F74 
 4310      00
 4311              	.LASF88:
 4312 004e 4D304152 		.ascii	"M0AR\000"
 4312      00
 4313              	.LASF155:
 4314 0053 6F705F6D 		.ascii	"op_mode\000"
 4314      6F646500 
 4315              	.LASF102:
ARM GAS  /var/folders/m4/4md61f0s1_g0rzfghffqnxvr0000gn/T//ccYVkMSH.s 			page 77


 4316 005b 7264796D 		.ascii	"rdymsg\000"
 4316      736700
 4317              	.LASF21:
 4318 0062 75696E74 		.ascii	"uint64_t\000"
 4318      36345F74 
 4318      00
 4319              	.LASF3:
 4320 006b 5F5F7569 		.ascii	"__uint8_t\000"
 4320      6E74385F 
 4320      7400
 4321              	.LASF127:
 4322 0075 4F545950 		.ascii	"OTYPER\000"
 4322      455200
 4323              	.LASF99:
 4324 007c 706F7274 		.ascii	"port_intctx\000"
 4324      5F696E74 
 4324      63747800 
 4325              	.LASF77:
 4326 0088 73797374 		.ascii	"system_debug_t\000"
 4326      656D5F64 
 4326      65627567 
 4326      5F7400
 4327              	.LASF93:
 4328 0097 54524953 		.ascii	"TRISE\000"
 4328      4500
 4329              	.LASF118:
 4330 009d 73747265 		.ascii	"stream\000"
 4330      616D00
 4331              	.LASF126:
 4332 00a4 4D4F4445 		.ascii	"MODER\000"
 4332      5200
 4333              	.LASF15:
 4334 00aa 6C6F6E67 		.ascii	"long long unsigned int\000"
 4334      206C6F6E 
 4334      6720756E 
 4334      7369676E 
 4334      65642069 
 4335              	.LASF129:
 4336 00c1 50555044 		.ascii	"PUPDR\000"
 4336      5200
 4337              	.LASF103:
 4338 00c7 65786974 		.ascii	"exitcode\000"
 4338      636F6465 
 4338      00
 4339              	.LASF190:
 4340 00d0 69326352 		.ascii	"i2cReleaseBus\000"
 4340      656C6561 
 4340      73654275 
 4340      7300
 4341              	.LASF74:
 4342 00de 76697274 		.ascii	"virtual_timers_list_t\000"
 4342      75616C5F 
 4342      74696D65 
 4342      72735F6C 
 4342      6973745F 
 4343              	.LASF184:
 4344 00f4 69326363 		.ascii	"i2ccfg\000"
ARM GAS  /var/folders/m4/4md61f0s1_g0rzfghffqnxvr0000gn/T//ccYVkMSH.s 			page 78


 4344      666700
 4345              	.LASF185:
 4346 00fb 49544D5F 		.ascii	"ITM_RxBuffer\000"
 4346      52784275 
 4346      66666572 
 4346      00
 4347              	.LASF173:
 4348 0108 72786275 		.ascii	"rxbuf\000"
 4348      6600
 4349              	.LASF57:
 4350 010e 63685F74 		.ascii	"ch_threads_queue\000"
 4350      68726561 
 4350      64735F71 
 4350      75657565 
 4350      00
 4351              	.LASF87:
 4352 011f 4E445452 		.ascii	"NDTR\000"
 4352      00
 4353              	.LASF35:
 4354 0124 705F7072 		.ascii	"p_prio\000"
 4354      696F00
 4355              	.LASF188:
 4356 012b 6932634D 		.ascii	"i2cMasterTransmitTimeout\000"
 4356      61737465 
 4356      72547261 
 4356      6E736D69 
 4356      7454696D 
 4357              	.LASF178:
 4358 0144 73746174 		.ascii	"stat\000"
 4358      00
 4359              	.LASF17:
 4360 0149 696E7431 		.ascii	"int16_t\000"
 4360      365F7400 
 4361              	.LASF171:
 4362 0151 76656374 		.ascii	"vector3\000"
 4362      6F723300 
 4363              	.LASF13:
 4364 0159 6C6F6E67 		.ascii	"long long int\000"
 4364      206C6F6E 
 4364      6720696E 
 4364      7400
 4365              	.LASF1:
 4366 0167 7369676E 		.ascii	"signed char\000"
 4366      65642063 
 4366      68617200 
 4367              	.LASF130:
 4368 0173 42535252 		.ascii	"BSRR\000"
 4368      00
 4369              	.LASF156:
 4370 0178 636C6F63 		.ascii	"clock_speed\000"
 4370      6B5F7370 
 4370      65656400 
 4371              	.LASF51:
 4372 0184 705F6D70 		.ascii	"p_mpool\000"
 4372      6F6F6C00 
 4373              	.LASF175:
 4374 018c 626E6F30 		.ascii	"bno055_get_error\000"
ARM GAS  /var/folders/m4/4md61f0s1_g0rzfghffqnxvr0000gn/T//ccYVkMSH.s 			page 79


 4374      35355F67 
 4374      65745F65 
 4374      72726F72 
 4374      00
 4375              	.LASF113:
 4376 019d 6D5F7175 		.ascii	"m_queue\000"
 4376      65756500 
 4377              	.LASF165:
 4378 01a5 61646472 		.ascii	"addr\000"
 4378      00
 4379              	.LASF83:
 4380 01aa 76746C69 		.ascii	"vtlist\000"
 4380      737400
 4381              	.LASF26:
 4382 01b1 74736C69 		.ascii	"tslices_t\000"
 4382      6365735F 
 4382      7400
 4383              	.LASF145:
 4384 01bb 69326361 		.ascii	"i2caddr_t\000"
 4384      6464725F 
 4384      7400
 4385              	.LASF160:
 4386 01c5 73746174 		.ascii	"state\000"
 4386      6500
 4387              	.LASF81:
 4388 01cb 63685F73 		.ascii	"ch_system\000"
 4388      79737465 
 4388      6D00
 4389              	.LASF10:
 4390 01d5 6C6F6E67 		.ascii	"long int\000"
 4390      20696E74 
 4390      00
 4391              	.LASF24:
 4392 01de 74737461 		.ascii	"tstate_t\000"
 4392      74655F74 
 4392      00
 4393              	.LASF177:
 4394 01e7 62756666 		.ascii	"buffer\000"
 4394      657200
 4395              	.LASF37:
 4396 01ee 705F6E65 		.ascii	"p_newer\000"
 4396      77657200 
 4397              	.LASF110:
 4398 01f6 735F7175 		.ascii	"s_queue\000"
 4398      65756500 
 4399              	.LASF166:
 4400 01fe 7278646D 		.ascii	"rxdmamode\000"
 4400      616D6F64 
 4400      6500
 4401              	.LASF169:
 4402 0208 646D6174 		.ascii	"dmatx\000"
 4402      7800
 4403              	.LASF128:
 4404 020e 4F535045 		.ascii	"OSPEEDR\000"
 4404      45445200 
 4405              	.LASF63:
 4406 0216 725F6E65 		.ascii	"r_newer\000"
ARM GAS  /var/folders/m4/4md61f0s1_g0rzfghffqnxvr0000gn/T//ccYVkMSH.s 			page 80


 4406      77657200 
 4407              	.LASF96:
 4408 021e 72656761 		.ascii	"regarm_t\000"
 4408      726D5F74 
 4408      00
 4409              	.LASF70:
 4410 0227 76745F70 		.ascii	"vt_prev\000"
 4410      72657600 
 4411              	.LASF5:
 4412 022f 5F5F696E 		.ascii	"__int16_t\000"
 4412      7431365F 
 4412      7400
 4413              	.LASF2:
 4414 0239 73697A65 		.ascii	"size_t\000"
 4414      5F7400
 4415              	.LASF134:
 4416 0240 73746D33 		.ascii	"stm32_gpio_t\000"
 4416      325F6770 
 4416      696F5F74 
 4416      00
 4417              	.LASF117:
 4418 024d 6D757465 		.ascii	"mutex_t\000"
 4418      785F7400 
 4419              	.LASF182:
 4420 0255 76616C75 		.ascii	"value\000"
 4420      6500
 4421              	.LASF85:
 4422 025b 69646C65 		.ascii	"idle_thread_wa\000"
 4422      5F746872 
 4422      6561645F 
 4422      776100
 4423              	.LASF30:
 4424 026a 636E745F 		.ascii	"cnt_t\000"
 4424      7400
 4425              	.LASF0:
 4426 0270 756E7369 		.ascii	"unsigned int\000"
 4426      676E6564 
 4426      20696E74 
 4426      00
 4427              	.LASF69:
 4428 027d 76745F6E 		.ascii	"vt_next\000"
 4428      65787400 
 4429              	.LASF172:
 4430 0285 74786275 		.ascii	"txbuf\000"
 4430      6600
 4431              	.LASF44:
 4432 028b 705F7469 		.ascii	"p_time\000"
 4432      6D6500
 4433              	.LASF106:
 4434 0292 77747365 		.ascii	"wtsemp\000"
 4434      6D7000
 4435              	.LASF162:
 4436 0299 6572726F 		.ascii	"errors\000"
 4436      727300
 4437              	.LASF71:
 4438 02a0 76745F64 		.ascii	"vt_delta\000"
 4438      656C7461 
ARM GAS  /var/folders/m4/4md61f0s1_g0rzfghffqnxvr0000gn/T//ccYVkMSH.s 			page 81


 4438      00
 4439              	.LASF46:
 4440 02a9 705F6D73 		.ascii	"p_msgqueue\000"
 4440      67717565 
 4440      756500
 4441              	.LASF131:
 4442 02b4 4C434B52 		.ascii	"LCKR\000"
 4442      00
 4443              	.LASF120:
 4444 02b9 69736869 		.ascii	"ishift\000"
 4444      667400
 4445              	.LASF111:
 4446 02c0 735F636E 		.ascii	"s_cnt\000"
 4446      7400
 4447              	.LASF148:
 4448 02c6 4F504D4F 		.ascii	"OPMODE_SMBUS_DEVICE\000"
 4448      44455F53 
 4448      4D425553 
 4448      5F444556 
 4448      49434500 
 4449              	.LASF8:
 4450 02da 73686F72 		.ascii	"short unsigned int\000"
 4450      7420756E 
 4450      7369676E 
 4450      65642069 
 4450      6E7400
 4451              	.LASF159:
 4452 02ed 49324344 		.ascii	"I2CDriver\000"
 4452      72697665 
 4452      7200
 4453              	.LASF54:
 4454 02f7 63685F74 		.ascii	"ch_thread\000"
 4454      68726561 
 4454      6400
 4455              	.LASF84:
 4456 0301 6D61696E 		.ascii	"mainthread\000"
 4456      74687265 
 4456      616400
 4457              	.LASF28:
 4458 030c 6D73675F 		.ascii	"msg_t\000"
 4458      7400
 4459              	.LASF80:
 4460 0312 63685F73 		.ascii	"ch_system_t\000"
 4460      79737465 
 4460      6D5F7400 
 4461              	.LASF90:
 4462 031e 444D415F 		.ascii	"DMA_Stream_TypeDef\000"
 4462      53747265 
 4462      616D5F54 
 4462      79706544 
 4462      656600
 4463              	.LASF23:
 4464 0331 746D6F64 		.ascii	"tmode_t\000"
 4464      655F7400 
 4465              	.LASF18:
 4466 0339 75696E74 		.ascii	"uint16_t\000"
 4466      31365F74 
ARM GAS  /var/folders/m4/4md61f0s1_g0rzfghffqnxvr0000gn/T//ccYVkMSH.s 			page 82


 4466      00
 4467              	.LASF151:
 4468 0342 5354445F 		.ascii	"STD_DUTY_CYCLE\000"
 4468      44555459 
 4468      5F435943 
 4468      4C4500
 4469              	.LASF59:
 4470 0351 63685F72 		.ascii	"ch_ready_list\000"
 4470      65616479 
 4470      5F6C6973 
 4470      7400
 4471              	.LASF29:
 4472 035f 6576656E 		.ascii	"eventmask_t\000"
 4472      746D6173 
 4472      6B5F7400 
 4473              	.LASF6:
 4474 036b 73686F72 		.ascii	"short int\000"
 4474      7420696E 
 4474      7400
 4475              	.LASF9:
 4476 0375 5F5F696E 		.ascii	"__int32_t\000"
 4476      7433325F 
 4476      7400
 4477              	.LASF97:
 4478 037f 73746B61 		.ascii	"stkalign_t\000"
 4478      6C69676E 
 4478      5F7400
 4479              	.LASF53:
 4480 038a 74687265 		.ascii	"threads_list_t\000"
 4480      6164735F 
 4480      6C697374 
 4480      5F7400
 4481              	.LASF45:
 4482 0399 705F7761 		.ascii	"p_waiting\000"
 4482      6974696E 
 4482      6700
 4483              	.LASF139:
 4484 03a3 4932435F 		.ascii	"I2C_STOP\000"
 4484      53544F50 
 4484      00
 4485              	.LASF86:
 4486 03ac 73697A65 		.ascii	"sizetype\000"
 4486      74797065 
 4486      00
 4487              	.LASF52:
 4488 03b5 74687265 		.ascii	"thread_reference_t\000"
 4488      61645F72 
 4488      65666572 
 4488      656E6365 
 4488      5F7400
 4489              	.LASF75:
 4490 03c8 63685F76 		.ascii	"ch_virtual_timers_list\000"
 4490      69727475 
 4490      616C5F74 
 4490      696D6572 
 4490      735F6C69 
 4491              	.LASF125:
ARM GAS  /var/folders/m4/4md61f0s1_g0rzfghffqnxvr0000gn/T//ccYVkMSH.s 			page 83


 4492 03df 636C6561 		.ascii	"clear\000"
 4492      7200
 4493              	.LASF105:
 4494 03e5 77747472 		.ascii	"wttrp\000"
 4494      7000
 4495              	.LASF191:
 4496 03eb 69326353 		.ascii	"i2cStart\000"
 4496      74617274 
 4496      00
 4497              	.LASF157:
 4498 03f4 64757479 		.ascii	"duty_cycle\000"
 4498      5F637963 
 4498      6C6500
 4499              	.LASF135:
 4500 03ff 696F706F 		.ascii	"ioportmask_t\000"
 4500      72746D61 
 4500      736B5F74 
 4500      00
 4501              	.LASF38:
 4502 040c 705F6F6C 		.ascii	"p_older\000"
 4502      64657200 
 4503              	.LASF158:
 4504 0414 49324343 		.ascii	"I2CConfig\000"
 4504      6F6E6669 
 4504      6700
 4505              	.LASF62:
 4506 041e 725F6374 		.ascii	"r_ctx\000"
 4506      7800
 4507              	.LASF167:
 4508 0424 7478646D 		.ascii	"txdmamode\000"
 4508      616D6F64 
 4508      6500
 4509              	.LASF180:
 4510 042e 626E6F30 		.ascii	"bno055_get_vector\000"
 4510      35355F67 
 4510      65745F76 
 4510      6563746F 
 4510      7200
 4511              	.LASF101:
 4512 0440 746D5F63 		.ascii	"tm_calibration_t\000"
 4512      616C6962 
 4512      72617469 
 4512      6F6E5F74 
 4512      00
 4513              	.LASF147:
 4514 0451 4F504D4F 		.ascii	"OPMODE_I2C\000"
 4514      44455F49 
 4514      324300
 4515              	.LASF65:
 4516 045c 725F6375 		.ascii	"r_current\000"
 4516      7272656E 
 4516      7400
 4517              	.LASF64:
 4518 0466 725F6F6C 		.ascii	"r_older\000"
 4518      64657200 
 4519              	.LASF183:
 4520 046e 626E6F30 		.ascii	"bno055_init\000"
ARM GAS  /var/folders/m4/4md61f0s1_g0rzfghffqnxvr0000gn/T//ccYVkMSH.s 			page 84


 4520      35355F69 
 4520      6E697400 
 4521              	.LASF194:
 4522 047a 626E6F30 		.ascii	"bno055.c\000"
 4522      35352E63 
 4522      00
 4523              	.LASF14:
 4524 0483 5F5F7569 		.ascii	"__uint64_t\000"
 4524      6E743634 
 4524      5F7400
 4525              	.LASF133:
 4526 048e 41465248 		.ascii	"AFRH\000"
 4526      00
 4527              	.LASF132:
 4528 0493 4146524C 		.ascii	"AFRL\000"
 4528      00
 4529              	.LASF119:
 4530 0498 69666372 		.ascii	"ifcr\000"
 4530      00
 4531              	.LASF25:
 4532 049d 74726566 		.ascii	"trefs_t\000"
 4532      735F7400 
 4533              	.LASF144:
 4534 04a5 69326373 		.ascii	"i2cstate_t\000"
 4534      74617465 
 4534      5F7400
 4535              	.LASF153:
 4536 04b0 46415354 		.ascii	"FAST_DUTY_CYCLE_16_9\000"
 4536      5F445554 
 4536      595F4359 
 4536      434C455F 
 4536      31365F39 
 4537              	.LASF67:
 4538 04c5 76697274 		.ascii	"virtual_timer_t\000"
 4538      75616C5F 
 4538      74696D65 
 4538      725F7400 
 4539              	.LASF34:
 4540 04d5 705F7072 		.ascii	"p_prev\000"
 4540      657600
 4541              	.LASF123:
 4542 04dc 73746D33 		.ascii	"stm32_dma_stream_t\000"
 4542      325F646D 
 4542      615F7374 
 4542      7265616D 
 4542      5F7400
 4543              	.LASF189:
 4544 04ef 69326341 		.ascii	"i2cAcquireBus\000"
 4544      63717569 
 4544      72654275 
 4544      7300
 4545              	.LASF27:
 4546 04fd 74707269 		.ascii	"tprio_t\000"
 4546      6F5F7400 
 4547              	.LASF141:
 4548 0505 4932435F 		.ascii	"I2C_ACTIVE_TX\000"
 4548      41435449 
ARM GAS  /var/folders/m4/4md61f0s1_g0rzfghffqnxvr0000gn/T//ccYVkMSH.s 			page 85


 4548      56455F54 
 4548      5800
 4549              	.LASF174:
 4550 0513 626E6F30 		.ascii	"bno055_get_status\000"
 4550      35355F67 
 4550      65745F73 
 4550      74617475 
 4550      7300
 4551              	.LASF163:
 4552 0525 6D757465 		.ascii	"mutex\000"
 4552      7800
 4553              	.LASF78:
 4554 052b 63685F73 		.ascii	"ch_system_debug\000"
 4554      79737465 
 4554      6D5F6465 
 4554      62756700 
 4555              	.LASF124:
 4556 053b 5F426F6F 		.ascii	"_Bool\000"
 4556      6C00
 4557              	.LASF19:
 4558 0541 696E7433 		.ascii	"int32_t\000"
 4558      325F7400 
 4559              	.LASF4:
 4560 0549 756E7369 		.ascii	"unsigned char\000"
 4560      676E6564 
 4560      20636861 
 4560      7200
 4561              	.LASF146:
 4562 0557 69326366 		.ascii	"i2cflags_t\000"
 4562      6C616773 
 4562      5F7400
 4563              	.LASF49:
 4564 0562 705F6D74 		.ascii	"p_mtxlist\000"
 4564      786C6973 
 4564      7400
 4565              	.LASF138:
 4566 056c 4932435F 		.ascii	"I2C_UNINIT\000"
 4566      554E494E 
 4566      495400
 4567              	.LASF40:
 4568 0577 705F7374 		.ascii	"p_state\000"
 4568      61746500 
 4569              	.LASF43:
 4570 057f 705F7072 		.ascii	"p_preempt\000"
 4570      65656D70 
 4570      7400
 4571              	.LASF61:
 4572 0589 725F7072 		.ascii	"r_prio\000"
 4572      696F00
 4573              	.LASF108:
 4574 0590 65776D61 		.ascii	"ewmask\000"
 4574      736B00
 4575              	.LASF33:
 4576 0597 705F6E65 		.ascii	"p_next\000"
 4576      787400
 4577              	.LASF41:
 4578 059e 705F666C 		.ascii	"p_flags\000"
ARM GAS  /var/folders/m4/4md61f0s1_g0rzfghffqnxvr0000gn/T//ccYVkMSH.s 			page 86


 4578      61677300 
 4579              	.LASF181:
 4580 05a6 626E6F30 		.ascii	"bno055_write_addr\000"
 4580      35355F77 
 4580      72697465 
 4580      5F616464 
 4580      7200
 4581              	.LASF152:
 4582 05b8 46415354 		.ascii	"FAST_DUTY_CYCLE_2\000"
 4582      5F445554 
 4582      595F4359 
 4582      434C455F 
 4582      3200
 4583              	.LASF143:
 4584 05ca 4932435F 		.ascii	"I2C_LOCKED\000"
 4584      4C4F434B 
 4584      454400
 4585              	.LASF109:
 4586 05d5 63685F73 		.ascii	"ch_semaphore\000"
 4586      656D6170 
 4586      686F7265 
 4586      00
 4587              	.LASF176:
 4588 05e2 626E6F30 		.ascii	"bno055_read_len\000"
 4588      35355F72 
 4588      6561645F 
 4588      6C656E00 
 4589              	.LASF48:
 4590 05f2 705F6570 		.ascii	"p_epending\000"
 4590      656E6469 
 4590      6E6700
 4591              	.LASF196:
 4592 05fd 63685468 		.ascii	"chThdSleep\000"
 4592      64536C65 
 4592      657000
 4593              	.LASF20:
 4594 0608 75696E74 		.ascii	"uint32_t\000"
 4594      33325F74 
 4594      00
 4595              	.LASF107:
 4596 0611 77746D74 		.ascii	"wtmtxp\000"
 4596      787000
 4597              	.LASF60:
 4598 0618 725F7175 		.ascii	"r_queue\000"
 4598      65756500 
 4599              	.LASF55:
 4600 0620 63685F74 		.ascii	"ch_threads_list\000"
 4600      68726561 
 4600      64735F6C 
 4600      69737400 
 4601              	.LASF186:
 4602 0630 49324344 		.ascii	"I2CD1\000"
 4602      3100
 4603              	.LASF142:
 4604 0636 4932435F 		.ascii	"I2C_ACTIVE_RX\000"
 4604      41435449 
 4604      56455F52 
ARM GAS  /var/folders/m4/4md61f0s1_g0rzfghffqnxvr0000gn/T//ccYVkMSH.s 			page 87


 4604      5800
 4605              	.LASF12:
 4606 0644 6C6F6E67 		.ascii	"long unsigned int\000"
 4606      20756E73 
 4606      69676E65 
 4606      6420696E 
 4606      7400
 4607              	.LASF116:
 4608 0656 63686172 		.ascii	"char\000"
 4608      00
 4609              	.LASF149:
 4610 065b 4F504D4F 		.ascii	"OPMODE_SMBUS_HOST\000"
 4610      44455F53 
 4610      4D425553 
 4610      5F484F53 
 4610      5400
 4611              	.LASF161:
 4612 066d 636F6E66 		.ascii	"config\000"
 4612      696700
 4613              	.LASF7:
 4614 0674 5F5F7569 		.ascii	"__uint16_t\000"
 4614      6E743136 
 4614      5F7400
 4615              	.LASF32:
 4616 067f 74687265 		.ascii	"thread_t\000"
 4616      61645F74 
 4616      00
 4617              	.LASF115:
 4618 0688 6D5F6E65 		.ascii	"m_next\000"
 4618      787400
 4619              	.LASF31:
 4620 068f 73797374 		.ascii	"systime_t\000"
 4620      696D655F 
 4620      7400
 4621              	.LASF50:
 4622 0699 705F7265 		.ascii	"p_realprio\000"
 4622      616C7072 
 4622      696F00
 4623              	.LASF66:
 4624 06a4 76746675 		.ascii	"vtfunc_t\000"
 4624      6E635F74 
 4624      00
 4625              	.LASF11:
 4626 06ad 5F5F7569 		.ascii	"__uint32_t\000"
 4626      6E743332 
 4626      5F7400
 4627              	.LASF164:
 4628 06b8 74687265 		.ascii	"thread\000"
 4628      616400
 4629              	.LASF193:
 4630 06bf 474E5520 		.ascii	"GNU C 4.9.3 20150529 (release) [ARM/embedded-4_9-br"
 4630      4320342E 
 4630      392E3320 
 4630      32303135 
 4630      30353239 
 4631 06f2 616E6368 		.ascii	"anch revision 224288] -mcpu=cortex-m4 -mfloat-abi=h"
 4631      20726576 
ARM GAS  /var/folders/m4/4md61f0s1_g0rzfghffqnxvr0000gn/T//ccYVkMSH.s 			page 88


 4631      6973696F 
 4631      6E203232 
 4631      34323838 
 4632 0725 61726420 		.ascii	"ard -mfpu=fpv4-sp-d16 -mno-thumb-interwork -mthumb "
 4632      2D6D6670 
 4632      753D6670 
 4632      76342D73 
 4632      702D6431 
 4633 0758 2D676764 		.ascii	"-ggdb -O2 -std=gnu99 -fomit-frame-pointer -falign-f"
 4633      62202D4F 
 4633      32202D73 
 4633      74643D67 
 4633      6E753939 
 4634 078b 756E6374 		.ascii	"unctions=16 -ffunction-sections -fdata-sections -fn"
 4634      696F6E73 
 4634      3D313620 
 4634      2D666675 
 4634      6E637469 
 4635 07be 6F2D636F 		.ascii	"o-common -fsingle-precision-constant\000"
 4635      6D6D6F6E 
 4635      202D6673 
 4635      696E676C 
 4635      652D7072 
 4636              	.LASF79:
 4637 07e3 70616E69 		.ascii	"panic_msg\000"
 4637      635F6D73 
 4637      6700
 4638              	.LASF140:
 4639 07ed 4932435F 		.ascii	"I2C_READY\000"
 4639      52454144 
 4639      5900
 4640              	.LASF100:
 4641 07f7 6F666673 		.ascii	"offset\000"
 4641      657400
 4642              	.LASF179:
 4643 07fe 626E6F30 		.ascii	"bno055_read_addr\000"
 4643      35355F72 
 4643      6561645F 
 4643      61646472 
 4643      00
 4644              	.LASF137:
 4645 080f 696F706F 		.ascii	"ioportid_t\000"
 4645      72746964 
 4645      5F7400
 4646              	.LASF98:
 4647 081a 636F6E74 		.ascii	"context\000"
 4647      65787400 
 4648              	.LASF192:
 4649 0822 5F70616C 		.ascii	"_pal_lld_setgroupmode\000"
 4649      5F6C6C64 
 4649      5F736574 
 4649      67726F75 
 4649      706D6F64 
 4650              	.LASF68:
 4651 0838 63685F76 		.ascii	"ch_virtual_timer\000"
 4651      69727475 
 4651      616C5F74 
ARM GAS  /var/folders/m4/4md61f0s1_g0rzfghffqnxvr0000gn/T//ccYVkMSH.s 			page 89


 4651      696D6572 
 4651      00
 4652              	.LASF22:
 4653 0849 7274636E 		.ascii	"rtcnt_t\000"
 4653      745F7400 
 4654              	.LASF89:
 4655 0851 4D314152 		.ascii	"M1AR\000"
 4655      00
 4656              	.LASF121:
 4657 0856 73656C66 		.ascii	"selfindex\000"
 4657      696E6465 
 4657      7800
 4658              	.LASF73:
 4659 0860 76745F70 		.ascii	"vt_par\000"
 4659      617200
 4660              	.LASF187:
 4661 0867 6D656D73 		.ascii	"memset\000"
 4661      657400
 4662              	.LASF56:
 4663 086e 74687265 		.ascii	"threads_queue_t\000"
 4663      6164735F 
 4663      71756575 
 4663      655F7400 
 4664              	.LASF112:
 4665 087e 63685F6D 		.ascii	"ch_mutex\000"
 4665      75746578 
 4665      00
 4666              	.LASF42:
 4667 0887 705F7265 		.ascii	"p_refs\000"
 4667      667300
 4668              	.LASF82:
 4669 088e 726C6973 		.ascii	"rlist\000"
 4669      7400
 4670              	.LASF16:
 4671 0894 75696E74 		.ascii	"uint8_t\000"
 4671      385F7400 
 4672              	.LASF91:
 4673 089c 4F415231 		.ascii	"OAR1\000"
 4673      00
 4674              	.LASF92:
 4675 08a1 4F415232 		.ascii	"OAR2\000"
 4675      00
 4676              	.LASF94:
 4677 08a6 464C5452 		.ascii	"FLTR\000"
 4677      00
 4678              	.LASF104:
 4679 08ab 77746F62 		.ascii	"wtobjp\000"
 4679      6A7000
 4680              	.LASF39:
 4681 08b2 705F6E61 		.ascii	"p_name\000"
 4681      6D6500
 4682              	.LASF76:
 4683 08b9 76745F73 		.ascii	"vt_systime\000"
 4683      79737469 
 4683      6D6500
 4684              	.LASF47:
 4685 08c4 705F6D73 		.ascii	"p_msg\000"
ARM GAS  /var/folders/m4/4md61f0s1_g0rzfghffqnxvr0000gn/T//ccYVkMSH.s 			page 90


 4685      6700
 4686              	.LASF95:
 4687 08ca 4932435F 		.ascii	"I2C_TypeDef\000"
 4687      54797065 
 4687      44656600 
 4688              	.LASF150:
 4689 08d6 6932636F 		.ascii	"i2copmode_t\000"
 4689      706D6F64 
 4689      655F7400 
 4690              	.LASF136:
 4691 08e2 696F6D6F 		.ascii	"iomode_t\000"
 4691      64655F74 
 4691      00
 4692              	.LASF114:
 4693 08eb 6D5F6F77 		.ascii	"m_owner\000"
 4693      6E657200 
 4694              	.LASF170:
 4695 08f3 646F7562 		.ascii	"double\000"
 4695      6C6500
 4696              	.LASF122:
 4697 08fa 76656374 		.ascii	"vector\000"
 4697      6F7200
 4698              	.LASF36:
 4699 0901 705F6374 		.ascii	"p_ctx\000"
 4699      7800
 4700              	.LASF72:
 4701 0907 76745F66 		.ascii	"vt_func\000"
 4701      756E6300 
 4702              		.ident	"GCC: (GNU Tools for ARM Embedded Processors) 4.9.3 20150529 (release) [ARM/embedded-4_9-br
ARM GAS  /var/folders/m4/4md61f0s1_g0rzfghffqnxvr0000gn/T//ccYVkMSH.s 			page 91


DEFINED SYMBOLS
                            *ABS*:0000000000000000 bno055.c
/var/folders/m4/4md61f0s1_g0rzfghffqnxvr0000gn/T//ccYVkMSH.s:21     .text.bno055_read_addr:0000000000000000 $t
/var/folders/m4/4md61f0s1_g0rzfghffqnxvr0000gn/T//ccYVkMSH.s:27     .text.bno055_read_addr:0000000000000000 bno055_read_addr
/var/folders/m4/4md61f0s1_g0rzfghffqnxvr0000gn/T//ccYVkMSH.s:79     .text.bno055_read_addr:0000000000000034 $d
/var/folders/m4/4md61f0s1_g0rzfghffqnxvr0000gn/T//ccYVkMSH.s:84     .text.bno055_get_status:0000000000000000 $t
/var/folders/m4/4md61f0s1_g0rzfghffqnxvr0000gn/T//ccYVkMSH.s:90     .text.bno055_get_status:0000000000000000 bno055_get_status
/var/folders/m4/4md61f0s1_g0rzfghffqnxvr0000gn/T//ccYVkMSH.s:105    .text.bno055_get_error:0000000000000000 $t
/var/folders/m4/4md61f0s1_g0rzfghffqnxvr0000gn/T//ccYVkMSH.s:111    .text.bno055_get_error:0000000000000000 bno055_get_error
/var/folders/m4/4md61f0s1_g0rzfghffqnxvr0000gn/T//ccYVkMSH.s:126    .text.bno055_read_len:0000000000000000 $t
/var/folders/m4/4md61f0s1_g0rzfghffqnxvr0000gn/T//ccYVkMSH.s:132    .text.bno055_read_len:0000000000000000 bno055_read_len
/var/folders/m4/4md61f0s1_g0rzfghffqnxvr0000gn/T//ccYVkMSH.s:187    .text.bno055_read_len:0000000000000034 $d
/var/folders/m4/4md61f0s1_g0rzfghffqnxvr0000gn/T//ccYVkMSH.s:195    .text.bno055_get_vector:0000000000000000 $t
/var/folders/m4/4md61f0s1_g0rzfghffqnxvr0000gn/T//ccYVkMSH.s:201    .text.bno055_get_vector:0000000000000000 bno055_get_vector
/var/folders/m4/4md61f0s1_g0rzfghffqnxvr0000gn/T//ccYVkMSH.s:263    .text.bno055_get_vector:000000000000004a $d
/var/folders/m4/4md61f0s1_g0rzfghffqnxvr0000gn/T//ccYVkMSH.s:470    .text.bno055_get_vector:0000000000000170 $d
/var/folders/m4/4md61f0s1_g0rzfghffqnxvr0000gn/T//ccYVkMSH.s:477    .text.bno055_write_addr:0000000000000000 $t
/var/folders/m4/4md61f0s1_g0rzfghffqnxvr0000gn/T//ccYVkMSH.s:483    .text.bno055_write_addr:0000000000000000 bno055_write_addr
/var/folders/m4/4md61f0s1_g0rzfghffqnxvr0000gn/T//ccYVkMSH.s:532    .text.bno055_write_addr:0000000000000034 $d
/var/folders/m4/4md61f0s1_g0rzfghffqnxvr0000gn/T//ccYVkMSH.s:537    .text.bno055_init:0000000000000000 $t
/var/folders/m4/4md61f0s1_g0rzfghffqnxvr0000gn/T//ccYVkMSH.s:543    .text.bno055_init:0000000000000000 bno055_init
/var/folders/m4/4md61f0s1_g0rzfghffqnxvr0000gn/T//ccYVkMSH.s:669    .text.bno055_init:00000000000000b0 $d
/var/folders/m4/4md61f0s1_g0rzfghffqnxvr0000gn/T//ccYVkMSH.s:676    .rodata.i2ccfg:0000000000000000 $d
/var/folders/m4/4md61f0s1_g0rzfghffqnxvr0000gn/T//ccYVkMSH.s:680    .rodata.i2ccfg:0000000000000000 i2ccfg
                     .debug_frame:0000000000000010 $d
/var/folders/m4/4md61f0s1_g0rzfghffqnxvr0000gn/T//ccYVkMSH.s:302    .text.bno055_get_vector:0000000000000071 $d
/var/folders/m4/4md61f0s1_g0rzfghffqnxvr0000gn/T//ccYVkMSH.s:302    .text.bno055_get_vector:0000000000000072 $t

UNDEFINED SYMBOLS
i2cAcquireBus
i2cMasterTransmitTimeout
i2cReleaseBus
I2CD1
__aeabi_i2d
__aeabi_dmul
__aeabi_ddiv
i2cStart
_pal_lld_setgroupmode
chThdSleep
