ARM GAS  /var/folders/m4/4md61f0s1_g0rzfghffqnxvr0000gn/T//cc22WqKP.s 			page 1


   1              		.syntax unified
   2              		.cpu cortex-m4
   3              		.eabi_attribute 27, 1
   4              		.eabi_attribute 28, 1
   5              		.fpu fpv4-sp-d16
   6              		.eabi_attribute 20, 1
   7              		.eabi_attribute 21, 1
   8              		.eabi_attribute 23, 3
   9              		.eabi_attribute 24, 1
  10              		.eabi_attribute 25, 1
  11              		.eabi_attribute 26, 1
  12              		.eabi_attribute 30, 2
  13              		.eabi_attribute 34, 1
  14              		.eabi_attribute 18, 4
  15              		.thumb
  16              		.syntax unified
  17              		.file	"bno055.cpp"
  18              		.text
  19              	.Ltext0:
  20              		.cfi_sections	.debug_frame
  21              		.section	.text._Z16bno055_read_addrh,"ax",%progbits
  22              		.align	2
  23              		.p2align 4,,15
  24              		.global	_Z16bno055_read_addrh
  25              		.thumb
  26              		.thumb_func
  27              		.type	_Z16bno055_read_addrh, %function
  28              	_Z16bno055_read_addrh:
  29              	.LFB272:
  30              		.file 1 "bno055.cpp"
  31              		.loc 1 100 0
  32              		.cfi_startproc
  33              		@ args = 0, pretend = 0, frame = 8
  34              		@ frame_needed = 0, uses_anonymous_args = 0
  35              	.LVL0:
  36 0000 70B5     		push	{r4, r5, r6, lr}
  37              		.cfi_def_cfa_offset 16
  38              		.cfi_offset 4, -16
  39              		.cfi_offset 5, -12
  40              		.cfi_offset 6, -8
  41              		.cfi_offset 14, -4
  42 0002 86B0     		sub	sp, sp, #24
  43              		.cfi_def_cfa_offset 40
  44              		.loc 1 105 0
  45 0004 0B4C     		ldr	r4, .L3
  46              		.loc 1 104 0
  47 0006 06AD     		add	r5, sp, #24
  48              		.loc 1 106 0
  49 0008 05AE     		add	r6, sp, #20
  50              		.loc 1 104 0
  51 000a 05F8080D 		strb	r0, [r5, #-8]!
  52              		.loc 1 105 0
  53 000e 2046     		mov	r0, r4
  54              	.LVL1:
  55 0010 FFF7FEFF 		bl	i2cAcquireBus
  56              	.LVL2:
  57              		.loc 1 106 0
ARM GAS  /var/folders/m4/4md61f0s1_g0rzfghffqnxvr0000gn/T//cc22WqKP.s 			page 2


  58 0014 2821     		movs	r1, #40
  59 0016 0123     		movs	r3, #1
  60 0018 2A46     		mov	r2, r5
  61 001a 0291     		str	r1, [sp, #8]
  62 001c 0193     		str	r3, [sp, #4]
  63 001e 2046     		mov	r0, r4
  64 0020 0096     		str	r6, [sp]
  65 0022 FFF7FEFF 		bl	i2cMasterTransmitTimeout
  66              	.LVL3:
  67              		.loc 1 107 0
  68 0026 2046     		mov	r0, r4
  69 0028 FFF7FEFF 		bl	i2cReleaseBus
  70              	.LVL4:
  71              		.loc 1 109 0
  72 002c 9DF81400 		ldrb	r0, [sp, #20]	@ zero_extendqisi2
  73 0030 06B0     		add	sp, sp, #24
  74              		.cfi_def_cfa_offset 16
  75              		@ sp needed
  76 0032 70BD     		pop	{r4, r5, r6, pc}
  77              	.L4:
  78              		.align	2
  79              	.L3:
  80 0034 00000000 		.word	I2CD1
  81              		.cfi_endproc
  82              	.LFE272:
  83              		.size	_Z16bno055_read_addrh, .-_Z16bno055_read_addrh
  84              		.section	.text._Z17bno055_get_statusv,"ax",%progbits
  85              		.align	2
  86              		.p2align 4,,15
  87              		.global	_Z17bno055_get_statusv
  88              		.thumb
  89              		.thumb_func
  90              		.type	_Z17bno055_get_statusv, %function
  91              	_Z17bno055_get_statusv:
  92              	.LFB270:
  93              		.loc 1 90 0
  94              		.cfi_startproc
  95              		@ args = 0, pretend = 0, frame = 0
  96              		@ frame_needed = 0, uses_anonymous_args = 0
  97              		@ link register save eliminated.
  98              		.loc 1 91 0
  99 0000 3920     		movs	r0, #57
 100 0002 FFF7FEBF 		b	_Z16bno055_read_addrh
 101              	.LVL5:
 102              		.cfi_endproc
 103              	.LFE270:
 104              		.size	_Z17bno055_get_statusv, .-_Z17bno055_get_statusv
 105 0006 00BF     		.section	.text._Z16bno055_get_errorv,"ax",%progbits
 106              		.align	2
 107              		.p2align 4,,15
 108              		.global	_Z16bno055_get_errorv
 109              		.thumb
 110              		.thumb_func
 111              		.type	_Z16bno055_get_errorv, %function
 112              	_Z16bno055_get_errorv:
 113              	.LFB271:
 114              		.loc 1 95 0
ARM GAS  /var/folders/m4/4md61f0s1_g0rzfghffqnxvr0000gn/T//cc22WqKP.s 			page 3


 115              		.cfi_startproc
 116              		@ args = 0, pretend = 0, frame = 0
 117              		@ frame_needed = 0, uses_anonymous_args = 0
 118              		@ link register save eliminated.
 119              		.loc 1 96 0
 120 0000 3A20     		movs	r0, #58
 121 0002 FFF7FEBF 		b	_Z16bno055_read_addrh
 122              	.LVL6:
 123              		.cfi_endproc
 124              	.LFE271:
 125              		.size	_Z16bno055_get_errorv, .-_Z16bno055_get_errorv
 126 0006 00BF     		.section	.text._Z15bno055_read_lenhhPh,"ax",%progbits
 127              		.align	2
 128              		.p2align 4,,15
 129              		.global	_Z15bno055_read_lenhhPh
 130              		.thumb
 131              		.thumb_func
 132              		.type	_Z15bno055_read_lenhhPh, %function
 133              	_Z15bno055_read_lenhhPh:
 134              	.LFB273:
 135              		.loc 1 112 0
 136              		.cfi_startproc
 137              		@ args = 0, pretend = 0, frame = 8
 138              		@ frame_needed = 0, uses_anonymous_args = 0
 139              	.LVL7:
 140 0000 F0B5     		push	{r4, r5, r6, r7, lr}
 141              		.cfi_def_cfa_offset 20
 142              		.cfi_offset 4, -20
 143              		.cfi_offset 5, -16
 144              		.cfi_offset 6, -12
 145              		.cfi_offset 7, -8
 146              		.cfi_offset 14, -4
 147 0002 87B0     		sub	sp, sp, #28
 148              		.cfi_def_cfa_offset 48
 149              		.loc 1 116 0
 150 0004 0B4C     		ldr	r4, .L9
 151              		.loc 1 115 0
 152 0006 06AD     		add	r5, sp, #24
 153              		.loc 1 112 0
 154 0008 0F46     		mov	r7, r1
 155              		.loc 1 115 0
 156 000a 05F8040D 		strb	r0, [r5, #-4]!
 157              		.loc 1 116 0
 158 000e 2046     		mov	r0, r4
 159              	.LVL8:
 160              		.loc 1 112 0
 161 0010 1646     		mov	r6, r2
 162              		.loc 1 116 0
 163 0012 FFF7FEFF 		bl	i2cAcquireBus
 164              	.LVL9:
 165              		.loc 1 117 0
 166 0016 2821     		movs	r1, #40
 167 0018 2A46     		mov	r2, r5
 168 001a 0291     		str	r1, [sp, #8]
 169 001c 0123     		movs	r3, #1
 170 001e 0197     		str	r7, [sp, #4]
 171 0020 0096     		str	r6, [sp]
ARM GAS  /var/folders/m4/4md61f0s1_g0rzfghffqnxvr0000gn/T//cc22WqKP.s 			page 4


 172 0022 2046     		mov	r0, r4
 173 0024 FFF7FEFF 		bl	i2cMasterTransmitTimeout
 174              	.LVL10:
 175              		.loc 1 118 0
 176 0028 2046     		mov	r0, r4
 177 002a FFF7FEFF 		bl	i2cReleaseBus
 178              	.LVL11:
 179              		.loc 1 119 0
 180 002e 07B0     		add	sp, sp, #28
 181              		.cfi_def_cfa_offset 20
 182              		@ sp needed
 183 0030 F0BD     		pop	{r4, r5, r6, r7, pc}
 184              	.LVL12:
 185              	.L10:
 186 0032 00BF     		.align	2
 187              	.L9:
 188 0034 00000000 		.word	I2CD1
 189              		.cfi_endproc
 190              	.LFE273:
 191              		.size	_Z15bno055_read_lenhhPh, .-_Z15bno055_read_lenhhPh
 192              		.global	__aeabi_i2d
 193              		.global	__aeabi_dmul
 194              		.global	__aeabi_ddiv
 195              		.section	.text._Z17bno055_get_vectorh,"ax",%progbits
 196              		.align	2
 197              		.p2align 4,,15
 198              		.global	_Z17bno055_get_vectorh
 199              		.thumb
 200              		.thumb_func
 201              		.type	_Z17bno055_get_vectorh, %function
 202              	_Z17bno055_get_vectorh:
 203              	.LFB269:
 204              		.loc 1 48 0
 205              		.cfi_startproc
 206              		@ args = 0, pretend = 0, frame = 56
 207              		@ frame_needed = 0, uses_anonymous_args = 0
 208              	.LVL13:
 209 0000 F0B5     		push	{r4, r5, r6, r7, lr}
 210              		.cfi_def_cfa_offset 20
 211              		.cfi_offset 4, -20
 212              		.cfi_offset 5, -16
 213              		.cfi_offset 6, -12
 214              		.cfi_offset 7, -8
 215              		.cfi_offset 14, -4
 216 0002 2DED068B 		vpush.64	{d8, d9, d10}
 217              		.cfi_def_cfa_offset 44
 218              		.cfi_offset 80, -44
 219              		.cfi_offset 81, -40
 220              		.cfi_offset 82, -36
 221              		.cfi_offset 83, -32
 222              		.cfi_offset 84, -28
 223              		.cfi_offset 85, -24
 224 0006 8FB0     		sub	sp, sp, #60
 225              		.cfi_def_cfa_offset 104
 226              		.loc 1 51 0
 227 0008 0023     		movs	r3, #0
 228              		.loc 1 52 0
ARM GAS  /var/folders/m4/4md61f0s1_g0rzfghffqnxvr0000gn/T//cc22WqKP.s 			page 5


 229 000a 06AA     		add	r2, sp, #24
 230 000c 0621     		movs	r1, #6
 231              		.loc 1 48 0
 232 000e 0446     		mov	r4, r0
 233              		.loc 1 51 0
 234 0010 ADF81C30 		strh	r3, [sp, #28]	@ movhi
 235 0014 0693     		str	r3, [sp, #24]
 236              		.loc 1 52 0
 237 0016 FFF7FEFF 		bl	_Z15bno055_read_lenhhPh
 238              	.LVL14:
 239              		.loc 1 53 0
 240 001a 9DF81970 		ldrb	r7, [sp, #25]	@ zero_extendqisi2
 241 001e 9DF81800 		ldrb	r0, [sp, #24]	@ zero_extendqisi2
 242              		.loc 1 54 0
 243 0022 9DF81B50 		ldrb	r5, [sp, #27]	@ zero_extendqisi2
 244 0026 9DF81A10 		ldrb	r1, [sp, #26]	@ zero_extendqisi2
 245              		.loc 1 55 0
 246 002a 9DF81D60 		ldrb	r6, [sp, #29]	@ zero_extendqisi2
 247 002e 9DF81C20 		ldrb	r2, [sp, #28]	@ zero_extendqisi2
 248              		.loc 1 56 0
 249 0032 A4F10803 		sub	r3, r4, #8
 250              		.loc 1 53 0
 251 0036 40EA0720 		orr	r0, r0, r7, lsl #8
 252              	.LVL15:
 253              		.loc 1 54 0
 254 003a 41EA0525 		orr	r5, r1, r5, lsl #8
 255              	.LVL16:
 256              		.loc 1 55 0
 257 003e 42EA0624 		orr	r4, r2, r6, lsl #8
 258              	.LVL17:
 259              		.loc 1 56 0
 260 0042 262B     		cmp	r3, #38
 261 0044 30D8     		bhi	.L12
 262 0046 DFE803F0 		tbb	[pc, r3]
 263              	.L14:
 264 004a 14       		.byte	(.L13-.L14)/2
 265 004b 2F       		.byte	(.L12-.L14)/2
 266 004c 2F       		.byte	(.L12-.L14)/2
 267 004d 2F       		.byte	(.L12-.L14)/2
 268 004e 2F       		.byte	(.L12-.L14)/2
 269 004f 2F       		.byte	(.L12-.L14)/2
 270 0050 77       		.byte	(.L15-.L14)/2
 271 0051 2F       		.byte	(.L12-.L14)/2
 272 0052 2F       		.byte	(.L12-.L14)/2
 273 0053 2F       		.byte	(.L12-.L14)/2
 274 0054 2F       		.byte	(.L12-.L14)/2
 275 0055 2F       		.byte	(.L12-.L14)/2
 276 0056 5B       		.byte	(.L16-.L14)/2
 277 0057 2F       		.byte	(.L12-.L14)/2
 278 0058 2F       		.byte	(.L12-.L14)/2
 279 0059 2F       		.byte	(.L12-.L14)/2
 280 005a 2F       		.byte	(.L12-.L14)/2
 281 005b 2F       		.byte	(.L12-.L14)/2
 282 005c 3F       		.byte	(.L17-.L14)/2
 283 005d 2F       		.byte	(.L12-.L14)/2
 284 005e 2F       		.byte	(.L12-.L14)/2
 285 005f 2F       		.byte	(.L12-.L14)/2
ARM GAS  /var/folders/m4/4md61f0s1_g0rzfghffqnxvr0000gn/T//cc22WqKP.s 			page 6


 286 0060 2F       		.byte	(.L12-.L14)/2
 287 0061 2F       		.byte	(.L12-.L14)/2
 288 0062 2F       		.byte	(.L12-.L14)/2
 289 0063 2F       		.byte	(.L12-.L14)/2
 290 0064 2F       		.byte	(.L12-.L14)/2
 291 0065 2F       		.byte	(.L12-.L14)/2
 292 0066 2F       		.byte	(.L12-.L14)/2
 293 0067 2F       		.byte	(.L12-.L14)/2
 294 0068 2F       		.byte	(.L12-.L14)/2
 295 0069 2F       		.byte	(.L12-.L14)/2
 296 006a 14       		.byte	(.L13-.L14)/2
 297 006b 2F       		.byte	(.L12-.L14)/2
 298 006c 2F       		.byte	(.L12-.L14)/2
 299 006d 2F       		.byte	(.L12-.L14)/2
 300 006e 2F       		.byte	(.L12-.L14)/2
 301 006f 2F       		.byte	(.L12-.L14)/2
 302 0070 14       		.byte	(.L13-.L14)/2
 303 0071 00       		.p2align 1
 304              	.L13:
 305              		.loc 1 80 0
 306 0072 00B2     		sxth	r0, r0
 307 0074 FFF7FEFF 		bl	__aeabi_i2d
 308              	.LVL18:
 309 0078 0022     		movs	r2, #0
 310 007a 3D4B     		ldr	r3, .L20
 311 007c FFF7FEFF 		bl	__aeabi_ddiv
 312              	.LVL19:
 313 0080 41EC1A0B 		vmov	d10, r0, r1
 314              	.LVL20:
 315              		.loc 1 81 0
 316 0084 28B2     		sxth	r0, r5
 317              	.LVL21:
 318 0086 FFF7FEFF 		bl	__aeabi_i2d
 319              	.LVL22:
 320 008a 0022     		movs	r2, #0
 321 008c 384B     		ldr	r3, .L20
 322 008e FFF7FEFF 		bl	__aeabi_ddiv
 323              	.LVL23:
 324 0092 41EC190B 		vmov	d9, r0, r1
 325              	.LVL24:
 326              		.loc 1 82 0
 327 0096 20B2     		sxth	r0, r4
 328              	.LVL25:
 329 0098 FFF7FEFF 		bl	__aeabi_i2d
 330              	.LVL26:
 331 009c 0022     		movs	r2, #0
 332 009e 344B     		ldr	r3, .L20
 333 00a0 FFF7FEFF 		bl	__aeabi_ddiv
 334              	.LVL27:
 335 00a4 41EC180B 		vmov	d8, r0, r1
 336              	.LVL28:
 337              	.L12:
 338              		.loc 1 87 0
 339 00a8 B0EE4A0A 		vmov.f32	s0, s20
 340 00ac F0EE6A0A 		vmov.f32	s1, s21
 341 00b0 B0EE491A 		vmov.f32	s2, s18
 342 00b4 F0EE691A 		vmov.f32	s3, s19
ARM GAS  /var/folders/m4/4md61f0s1_g0rzfghffqnxvr0000gn/T//cc22WqKP.s 			page 7


 343 00b8 B0EE482A 		vmov.f32	s4, s16
 344 00bc F0EE682A 		vmov.f32	s5, s17
 345 00c0 0FB0     		add	sp, sp, #60
 346              		.cfi_remember_state
 347              		.cfi_def_cfa_offset 44
 348              		@ sp needed
 349 00c2 BDEC068B 		vldm	sp!, {d8-d10}
 350              		.cfi_restore 84
 351              		.cfi_restore 85
 352              		.cfi_restore 82
 353              		.cfi_restore 83
 354              		.cfi_restore 80
 355              		.cfi_restore 81
 356              		.cfi_def_cfa_offset 20
 357 00c6 F0BD     		pop	{r4, r5, r6, r7, pc}
 358              	.LVL29:
 359              	.L17:
 360              		.cfi_restore_state
 361              		.loc 1 72 0
 362 00c8 00B2     		sxth	r0, r0
 363 00ca FFF7FEFF 		bl	__aeabi_i2d
 364              	.LVL30:
 365 00ce 0022     		movs	r2, #0
 366 00d0 284B     		ldr	r3, .L20+4
 367 00d2 FFF7FEFF 		bl	__aeabi_dmul
 368              	.LVL31:
 369 00d6 41EC180B 		vmov	d8, r0, r1
 370              	.LVL32:
 371              		.loc 1 73 0
 372 00da 28B2     		sxth	r0, r5
 373              	.LVL33:
 374 00dc FFF7FEFF 		bl	__aeabi_i2d
 375              	.LVL34:
 376 00e0 0022     		movs	r2, #0
 377 00e2 244B     		ldr	r3, .L20+4
 378 00e4 FFF7FEFF 		bl	__aeabi_dmul
 379              	.LVL35:
 380 00e8 41EC190B 		vmov	d9, r0, r1
 381              	.LVL36:
 382              		.loc 1 74 0
 383 00ec 20B2     		sxth	r0, r4
 384              	.LVL37:
 385 00ee FFF7FEFF 		bl	__aeabi_i2d
 386              	.LVL38:
 387 00f2 0022     		movs	r2, #0
 388 00f4 1F4B     		ldr	r3, .L20+4
 389 00f6 FFF7FEFF 		bl	__aeabi_dmul
 390              	.LVL39:
 391 00fa 41EC1A0B 		vmov	d10, r0, r1
 392              	.LVL40:
 393              		.loc 1 75 0
 394 00fe D3E7     		b	.L12
 395              	.LVL41:
 396              	.L16:
 397              		.loc 1 66 0
 398 0100 00B2     		sxth	r0, r0
 399 0102 FFF7FEFF 		bl	__aeabi_i2d
ARM GAS  /var/folders/m4/4md61f0s1_g0rzfghffqnxvr0000gn/T//cc22WqKP.s 			page 8


 400              	.LVL42:
 401 0106 0022     		movs	r2, #0
 402 0108 1B4B     		ldr	r3, .L20+8
 403 010a FFF7FEFF 		bl	__aeabi_ddiv
 404              	.LVL43:
 405 010e 41EC1A0B 		vmov	d10, r0, r1
 406              	.LVL44:
 407              		.loc 1 67 0
 408 0112 28B2     		sxth	r0, r5
 409              	.LVL45:
 410 0114 FFF7FEFF 		bl	__aeabi_i2d
 411              	.LVL46:
 412 0118 0022     		movs	r2, #0
 413 011a 174B     		ldr	r3, .L20+8
 414 011c FFF7FEFF 		bl	__aeabi_ddiv
 415              	.LVL47:
 416 0120 41EC190B 		vmov	d9, r0, r1
 417              	.LVL48:
 418              		.loc 1 68 0
 419 0124 20B2     		sxth	r0, r4
 420              	.LVL49:
 421 0126 FFF7FEFF 		bl	__aeabi_i2d
 422              	.LVL50:
 423 012a 0022     		movs	r2, #0
 424 012c 124B     		ldr	r3, .L20+8
 425 012e FFF7FEFF 		bl	__aeabi_ddiv
 426              	.LVL51:
 427 0132 41EC180B 		vmov	d8, r0, r1
 428              	.LVL52:
 429              		.loc 1 69 0
 430 0136 B7E7     		b	.L12
 431              	.LVL53:
 432              	.L15:
 433              		.loc 1 60 0
 434 0138 00B2     		sxth	r0, r0
 435 013a FFF7FEFF 		bl	__aeabi_i2d
 436              	.LVL54:
 437 013e 0022     		movs	r2, #0
 438 0140 0C4B     		ldr	r3, .L20+4
 439 0142 FFF7FEFF 		bl	__aeabi_dmul
 440              	.LVL55:
 441 0146 41EC1A0B 		vmov	d10, r0, r1
 442              	.LVL56:
 443              		.loc 1 61 0
 444 014a 28B2     		sxth	r0, r5
 445              	.LVL57:
 446 014c FFF7FEFF 		bl	__aeabi_i2d
 447              	.LVL58:
 448 0150 0022     		movs	r2, #0
 449 0152 084B     		ldr	r3, .L20+4
 450 0154 FFF7FEFF 		bl	__aeabi_dmul
 451              	.LVL59:
 452 0158 41EC190B 		vmov	d9, r0, r1
 453              	.LVL60:
 454              		.loc 1 62 0
 455 015c 20B2     		sxth	r0, r4
 456              	.LVL61:
ARM GAS  /var/folders/m4/4md61f0s1_g0rzfghffqnxvr0000gn/T//cc22WqKP.s 			page 9


 457 015e FFF7FEFF 		bl	__aeabi_i2d
 458              	.LVL62:
 459 0162 0022     		movs	r2, #0
 460 0164 034B     		ldr	r3, .L20+4
 461 0166 FFF7FEFF 		bl	__aeabi_dmul
 462              	.LVL63:
 463 016a 41EC180B 		vmov	d8, r0, r1
 464              	.LVL64:
 465              		.loc 1 63 0
 466 016e 9BE7     		b	.L12
 467              	.L21:
 468              		.align	2
 469              	.L20:
 470 0170 00005940 		.word	1079574528
 471 0174 0000B03F 		.word	1068498944
 472 0178 00208C40 		.word	1082925056
 473              		.cfi_endproc
 474              	.LFE269:
 475              		.size	_Z17bno055_get_vectorh, .-_Z17bno055_get_vectorh
 476              		.section	.text._Z17bno055_write_addrhh,"ax",%progbits
 477              		.align	2
 478              		.p2align 4,,15
 479              		.global	_Z17bno055_write_addrhh
 480              		.thumb
 481              		.thumb_func
 482              		.type	_Z17bno055_write_addrhh, %function
 483              	_Z17bno055_write_addrhh:
 484              	.LFB274:
 485              		.loc 1 122 0
 486              		.cfi_startproc
 487              		@ args = 0, pretend = 0, frame = 8
 488              		@ frame_needed = 0, uses_anonymous_args = 0
 489              	.LVL65:
 490 0000 10B5     		push	{r4, lr}
 491              		.cfi_def_cfa_offset 8
 492              		.cfi_offset 4, -8
 493              		.cfi_offset 14, -4
 494              		.loc 1 128 0
 495 0002 0C4C     		ldr	r4, .L24
 496              		.loc 1 122 0
 497 0004 86B0     		sub	sp, sp, #24
 498              		.cfi_def_cfa_offset 32
 499              		.loc 1 126 0
 500 0006 8DF81400 		strb	r0, [sp, #20]
 501              		.loc 1 128 0
 502 000a 2046     		mov	r0, r4
 503              	.LVL66:
 504              		.loc 1 127 0
 505 000c 8DF81510 		strb	r1, [sp, #21]
 506              		.loc 1 128 0
 507 0010 FFF7FEFF 		bl	i2cAcquireBus
 508              	.LVL67:
 509              		.loc 1 129 0
 510 0014 2821     		movs	r1, #40
 511 0016 04AB     		add	r3, sp, #16
 512 0018 0022     		movs	r2, #0
 513 001a 0291     		str	r1, [sp, #8]
ARM GAS  /var/folders/m4/4md61f0s1_g0rzfghffqnxvr0000gn/T//cc22WqKP.s 			page 10


 514 001c 0192     		str	r2, [sp, #4]
 515 001e 0093     		str	r3, [sp]
 516 0020 05AA     		add	r2, sp, #20
 517 0022 0223     		movs	r3, #2
 518 0024 2046     		mov	r0, r4
 519 0026 FFF7FEFF 		bl	i2cMasterTransmitTimeout
 520              	.LVL68:
 521              		.loc 1 130 0
 522 002a 2046     		mov	r0, r4
 523 002c FFF7FEFF 		bl	i2cReleaseBus
 524              	.LVL69:
 525              		.loc 1 131 0
 526 0030 06B0     		add	sp, sp, #24
 527              		.cfi_def_cfa_offset 8
 528              		@ sp needed
 529 0032 10BD     		pop	{r4, pc}
 530              	.L25:
 531              		.align	2
 532              	.L24:
 533 0034 00000000 		.word	I2CD1
 534              		.cfi_endproc
 535              	.LFE274:
 536              		.size	_Z17bno055_write_addrhh, .-_Z17bno055_write_addrhh
 537              		.section	.text._Z11bno055_initv,"ax",%progbits
 538              		.align	2
 539              		.p2align 4,,15
 540              		.global	_Z11bno055_initv
 541              		.thumb
 542              		.thumb_func
 543              		.type	_Z11bno055_initv, %function
 544              	_Z11bno055_initv:
 545              	.LFB268:
 546              		.loc 1 13 0
 547              		.cfi_startproc
 548              		@ args = 0, pretend = 0, frame = 0
 549              		@ frame_needed = 0, uses_anonymous_args = 0
 550 0000 08B5     		push	{r3, lr}
 551              		.cfi_def_cfa_offset 8
 552              		.cfi_offset 3, -8
 553              		.cfi_offset 14, -4
 554              		.loc 1 14 0
 555 0002 2B49     		ldr	r1, .L35
 556 0004 2B48     		ldr	r0, .L35+4
 557 0006 FFF7FEFF 		bl	i2cStart
 558              	.LVL70:
 559              		.loc 1 15 0
 560 000a 40F20622 		movw	r2, #518
 561 000e 4021     		movs	r1, #64
 562 0010 2948     		ldr	r0, .L35+8
 563 0012 FFF7FEFF 		bl	_pal_lld_setgroupmode
 564              	.LVL71:
 565              		.loc 1 16 0
 566 0016 40F20622 		movw	r2, #518
 567 001a 8021     		movs	r1, #128
 568 001c 2648     		ldr	r0, .L35+8
 569 001e FFF7FEFF 		bl	_pal_lld_setgroupmode
 570              	.LVL72:
ARM GAS  /var/folders/m4/4md61f0s1_g0rzfghffqnxvr0000gn/T//cc22WqKP.s 			page 11


 571              		.loc 1 17 0
 572 0022 0020     		movs	r0, #0
 573 0024 FFF7FEFF 		bl	_Z16bno055_read_addrh
 574              	.LVL73:
 575              		.loc 1 18 0
 576 0028 A028     		cmp	r0, #160
 577 002a 0AD0     		beq	.L30
 578              		.loc 1 20 0
 579 002c 42F21070 		movw	r0, #10000
 580              	.LVL74:
 581 0030 FFF7FEFF 		bl	chThdSleep
 582              	.LVL75:
 583              		.loc 1 21 0
 584 0034 0020     		movs	r0, #0
 585 0036 FFF7FEFF 		bl	_Z16bno055_read_addrh
 586              	.LVL76:
 587              		.loc 1 22 0
 588 003a A028     		cmp	r0, #160
 589 003c 01D0     		beq	.L30
 590              		.loc 1 23 0
 591 003e 0020     		movs	r0, #0
 592              	.LVL77:
 593              		.loc 1 45 0
 594 0040 08BD     		pop	{r3, pc}
 595              	.LVL78:
 596              	.L30:
 597              		.loc 1 26 0
 598 0042 0021     		movs	r1, #0
 599 0044 3D20     		movs	r0, #61
 600              	.LVL79:
 601 0046 FFF7FEFF 		bl	_Z17bno055_write_addrhh
 602              	.LVL80:
 603              		.loc 1 27 0
 604 004a 4FF49670 		mov	r0, #300
 605 004e FFF7FEFF 		bl	chThdSleep
 606              	.LVL81:
 607              		.loc 1 28 0
 608 0052 2021     		movs	r1, #32
 609 0054 3F20     		movs	r0, #63
 610 0056 FFF7FEFF 		bl	_Z17bno055_write_addrhh
 611              	.LVL82:
 612 005a 01E0     		b	.L28
 613              	.L34:
 614              		.loc 1 31 0
 615 005c FFF7FEFF 		bl	chThdSleep
 616              	.LVL83:
 617              	.L28:
 618              		.loc 1 29 0
 619 0060 0020     		movs	r0, #0
 620 0062 FFF7FEFF 		bl	_Z16bno055_read_addrh
 621              	.LVL84:
 622 0066 A028     		cmp	r0, #160
 623              		.loc 1 31 0
 624 0068 4FF06400 		mov	r0, #100
 625              		.loc 1 29 0
 626 006c F6D1     		bne	.L34
 627              		.loc 1 33 0
ARM GAS  /var/folders/m4/4md61f0s1_g0rzfghffqnxvr0000gn/T//cc22WqKP.s 			page 12


 628 006e 4FF4FA70 		mov	r0, #500
 629 0072 FFF7FEFF 		bl	chThdSleep
 630              	.LVL85:
 631              		.loc 1 36 0
 632 0076 0021     		movs	r1, #0
 633 0078 3E20     		movs	r0, #62
 634 007a FFF7FEFF 		bl	_Z17bno055_write_addrhh
 635              	.LVL86:
 636              		.loc 1 37 0
 637 007e 6420     		movs	r0, #100
 638 0080 FFF7FEFF 		bl	chThdSleep
 639              	.LVL87:
 640              		.loc 1 39 0
 641 0084 0021     		movs	r1, #0
 642 0086 0720     		movs	r0, #7
 643 0088 FFF7FEFF 		bl	_Z17bno055_write_addrhh
 644              	.LVL88:
 645              		.loc 1 40 0
 646 008c 8021     		movs	r1, #128
 647 008e 3F20     		movs	r0, #63
 648 0090 FFF7FEFF 		bl	_Z17bno055_write_addrhh
 649              	.LVL89:
 650              		.loc 1 41 0
 651 0094 6420     		movs	r0, #100
 652 0096 FFF7FEFF 		bl	chThdSleep
 653              	.LVL90:
 654              		.loc 1 42 0
 655 009a 0C21     		movs	r1, #12
 656 009c 3D20     		movs	r0, #61
 657 009e FFF7FEFF 		bl	_Z17bno055_write_addrhh
 658              	.LVL91:
 659              		.loc 1 43 0
 660 00a2 4FF4FA70 		mov	r0, #500
 661 00a6 FFF7FEFF 		bl	chThdSleep
 662              	.LVL92:
 663              		.loc 1 44 0
 664 00aa 0120     		movs	r0, #1
 665 00ac 08BD     		pop	{r3, pc}
 666              	.L36:
 667 00ae 00BF     		.align	2
 668              	.L35:
 669 00b0 00000000 		.word	.LANCHOR0
 670 00b4 00000000 		.word	I2CD1
 671 00b8 00040240 		.word	1073873920
 672              		.cfi_endproc
 673              	.LFE268:
 674              		.size	_Z11bno055_initv, .-_Z11bno055_initv
 675              		.section	.rodata._ZL6i2ccfg,"a",%progbits
 676              		.align	2
 677              		.set	.LANCHOR0,. + 0
 678              		.type	_ZL6i2ccfg, %object
 679              		.size	_ZL6i2ccfg, 12
 680              	_ZL6i2ccfg:
 681 0000 01       		.byte	1
 682 0001 000000   		.space	3
 683 0004 A0860100 		.word	100000
 684 0008 01       		.byte	1
ARM GAS  /var/folders/m4/4md61f0s1_g0rzfghffqnxvr0000gn/T//cc22WqKP.s 			page 13


 685 0009 000000   		.space	3
 686              		.text
 687              	.Letext0:
 688              		.file 2 "/opt/homebrew-cask/Caskroom/gcc-arm-embedded/5_2-2015q4,20151219/gcc-arm-none-eabi-5_2-20
 689              		.file 3 "/opt/homebrew-cask/Caskroom/gcc-arm-embedded/5_2-2015q4,20151219/gcc-arm-none-eabi-5_2-20
 690              		.file 4 "/opt/homebrew-cask/Caskroom/gcc-arm-embedded/5_2-2015q4,20151219/gcc-arm-none-eabi-5_2-20
 691              		.file 5 "ChibiOS_16.1.4/os/rt/ports/ARMCMx/compilers/GCC/chtypes.h"
 692              		.file 6 "ChibiOS_16.1.4/os/rt/include/chsystypes.h"
 693              		.file 7 "ChibiOS_16.1.4/os/rt/include/chschd.h"
 694              		.file 8 "ChibiOS_16.1.4/os/ext/CMSIS/ST/STM32F4xx/stm32f446xx.h"
 695              		.file 9 "ChibiOS_16.1.4/os/ext/CMSIS/ST/STM32F4xx/stm32f4xx.h"
 696              		.file 10 "ChibiOS_16.1.4/os/rt/ports/ARMCMx/chcore.h"
 697              		.file 11 "ChibiOS_16.1.4/os/rt/ports/ARMCMx/chcore_v7m.h"
 698              		.file 12 "ChibiOS_16.1.4/os/rt/include/chtm.h"
 699              		.file 13 "ChibiOS_16.1.4/os/rt/include/chsem.h"
 700              		.file 14 "ChibiOS_16.1.4/os/rt/include/chmtx.h"
 701              		.file 15 "ChibiOS_16.1.4/os/hal/ports/STM32/LLD/DMAv2/stm32_dma.h"
 702              		.file 16 "ChibiOS_16.1.4/os/hal/ports/STM32/LLD/GPIOv2/pal_lld.h"
 703              		.file 17 "ChibiOS_16.1.4/os/hal/include/i2c.h"
 704              		.file 18 "ChibiOS_16.1.4/os/hal/ports/STM32/LLD/I2Cv1/i2c_lld.h"
 705              		.file 19 "bno055.h"
 706              		.file 20 "ChibiOS_16.1.4/os/ext/CMSIS/include/core_cm4.h"
 707              		.file 21 "ChibiOS_16.1.4/os/rt/include/chthreads.h"
 708              		.section	.debug_info,"",%progbits
 709              	.Ldebug_info0:
 710 0000 C4110000 		.4byte	0x11c4
 711 0004 0400     		.2byte	0x4
 712 0006 00000000 		.4byte	.Ldebug_abbrev0
 713 000a 04       		.byte	0x4
 714 000b 01       		.uleb128 0x1
 715 000c 54060000 		.4byte	.LASF217
 716 0010 04       		.byte	0x4
 717 0011 AA000000 		.4byte	.LASF218
 718 0015 52010000 		.4byte	.LASF219
 719 0019 00000000 		.4byte	.Ldebug_ranges0+0
 720 001d 00000000 		.4byte	0
 721 0021 00000000 		.4byte	.Ldebug_line0
 722 0025 02       		.uleb128 0x2
 723 0026 04       		.byte	0x4
 724 0027 05       		.byte	0x5
 725 0028 696E7400 		.ascii	"int\000"
 726 002c 03       		.uleb128 0x3
 727 002d 4C030000 		.4byte	.LASF4
 728 0031 02       		.byte	0x2
 729 0032 D8       		.byte	0xd8
 730 0033 37000000 		.4byte	0x37
 731 0037 04       		.uleb128 0x4
 732 0038 04       		.byte	0x4
 733 0039 07       		.byte	0x7
 734 003a 52040000 		.4byte	.LASF0
 735 003e 04       		.uleb128 0x4
 736 003f 08       		.byte	0x8
 737 0040 05       		.byte	0x5
 738 0041 44040000 		.4byte	.LASF1
 739 0045 04       		.uleb128 0x4
 740 0046 08       		.byte	0x8
 741 0047 04       		.byte	0x4
ARM GAS  /var/folders/m4/4md61f0s1_g0rzfghffqnxvr0000gn/T//cc22WqKP.s 			page 14


 742 0048 F0050000 		.4byte	.LASF2
 743 004c 05       		.uleb128 0x5
 744 004d 83090000 		.4byte	.LASF220
 745 0051 04       		.uleb128 0x4
 746 0052 01       		.byte	0x1
 747 0053 06       		.byte	0x6
 748 0054 ED090000 		.4byte	.LASF3
 749 0058 03       		.uleb128 0x3
 750 0059 51080000 		.4byte	.LASF5
 751 005d 03       		.byte	0x3
 752 005e 1D       		.byte	0x1d
 753 005f 63000000 		.4byte	0x63
 754 0063 04       		.uleb128 0x4
 755 0064 01       		.byte	0x1
 756 0065 08       		.byte	0x8
 757 0066 1E090000 		.4byte	.LASF6
 758 006a 03       		.uleb128 0x3
 759 006b 3C050000 		.4byte	.LASF7
 760 006f 03       		.byte	0x3
 761 0070 29       		.byte	0x29
 762 0071 75000000 		.4byte	0x75
 763 0075 04       		.uleb128 0x4
 764 0076 02       		.byte	0x2
 765 0077 05       		.byte	0x5
 766 0078 78070000 		.4byte	.LASF8
 767 007c 03       		.uleb128 0x3
 768 007d B7020000 		.4byte	.LASF9
 769 0081 03       		.byte	0x3
 770 0082 2B       		.byte	0x2b
 771 0083 87000000 		.4byte	0x87
 772 0087 04       		.uleb128 0x4
 773 0088 02       		.byte	0x2
 774 0089 07       		.byte	0x7
 775 008a 0B0A0000 		.4byte	.LASF10
 776 008e 03       		.uleb128 0x3
 777 008f F4000000 		.4byte	.LASF11
 778 0093 03       		.byte	0x3
 779 0094 3F       		.byte	0x3f
 780 0095 99000000 		.4byte	0x99
 781 0099 04       		.uleb128 0x4
 782 009a 04       		.byte	0x4
 783 009b 05       		.byte	0x5
 784 009c 9F070000 		.4byte	.LASF12
 785 00a0 03       		.uleb128 0x3
 786 00a1 2C090000 		.4byte	.LASF13
 787 00a5 03       		.byte	0x3
 788 00a6 41       		.byte	0x41
 789 00a7 AB000000 		.4byte	0xab
 790 00ab 04       		.uleb128 0x4
 791 00ac 04       		.byte	0x4
 792 00ad 07       		.byte	0x7
 793 00ae 9B080000 		.4byte	.LASF14
 794 00b2 04       		.uleb128 0x4
 795 00b3 08       		.byte	0x8
 796 00b4 07       		.byte	0x7
 797 00b5 87020000 		.4byte	.LASF15
 798 00b9 03       		.uleb128 0x3
ARM GAS  /var/folders/m4/4md61f0s1_g0rzfghffqnxvr0000gn/T//cc22WqKP.s 			page 15


 799 00ba 82040000 		.4byte	.LASF16
 800 00be 04       		.byte	0x4
 801 00bf 14       		.byte	0x14
 802 00c0 58000000 		.4byte	0x58
 803 00c4 03       		.uleb128 0x3
 804 00c5 7F020000 		.4byte	.LASF17
 805 00c9 04       		.byte	0x4
 806 00ca 19       		.byte	0x19
 807 00cb 6A000000 		.4byte	0x6a
 808 00cf 03       		.uleb128 0x3
 809 00d0 FC050000 		.4byte	.LASF18
 810 00d4 04       		.byte	0x4
 811 00d5 1A       		.byte	0x1a
 812 00d6 7C000000 		.4byte	0x7c
 813 00da 03       		.uleb128 0x3
 814 00db CD080000 		.4byte	.LASF19
 815 00df 04       		.byte	0x4
 816 00e0 1F       		.byte	0x1f
 817 00e1 8E000000 		.4byte	0x8e
 818 00e5 03       		.uleb128 0x3
 819 00e6 F0010000 		.4byte	.LASF20
 820 00ea 04       		.byte	0x4
 821 00eb 20       		.byte	0x20
 822 00ec A0000000 		.4byte	0xa0
 823 00f0 03       		.uleb128 0x3
 824 00f1 18060000 		.4byte	.LASF21
 825 00f5 05       		.byte	0x5
 826 00f6 39       		.byte	0x39
 827 00f7 E5000000 		.4byte	0xe5
 828 00fb 03       		.uleb128 0x3
 829 00fc D5050000 		.4byte	.LASF22
 830 0100 05       		.byte	0x5
 831 0101 3C       		.byte	0x3c
 832 0102 B9000000 		.4byte	0xb9
 833 0106 03       		.uleb128 0x3
 834 0107 28040000 		.4byte	.LASF23
 835 010b 05       		.byte	0x5
 836 010c 3D       		.byte	0x3d
 837 010d B9000000 		.4byte	0xb9
 838 0111 03       		.uleb128 0x3
 839 0112 93080000 		.4byte	.LASF24
 840 0116 05       		.byte	0x5
 841 0117 3E       		.byte	0x3e
 842 0118 B9000000 		.4byte	0xb9
 843 011c 03       		.uleb128 0x3
 844 011d 95050000 		.4byte	.LASF25
 845 0121 05       		.byte	0x5
 846 0122 3F       		.byte	0x3f
 847 0123 B9000000 		.4byte	0xb9
 848 0127 03       		.uleb128 0x3
 849 0128 51020000 		.4byte	.LASF26
 850 012c 05       		.byte	0x5
 851 012d 40       		.byte	0x40
 852 012e E5000000 		.4byte	0xe5
 853 0132 03       		.uleb128 0x3
 854 0133 14050000 		.4byte	.LASF27
 855 0137 05       		.byte	0x5
ARM GAS  /var/folders/m4/4md61f0s1_g0rzfghffqnxvr0000gn/T//cc22WqKP.s 			page 16


 856 0138 41       		.byte	0x41
 857 0139 DA000000 		.4byte	0xda
 858 013d 03       		.uleb128 0x3
 859 013e 12020000 		.4byte	.LASF28
 860 0142 05       		.byte	0x5
 861 0143 43       		.byte	0x43
 862 0144 E5000000 		.4byte	0xe5
 863 0148 03       		.uleb128 0x3
 864 0149 C2020000 		.4byte	.LASF29
 865 014d 05       		.byte	0x5
 866 014e 45       		.byte	0x45
 867 014f DA000000 		.4byte	0xda
 868 0153 03       		.uleb128 0x3
 869 0154 D4030000 		.4byte	.LASF30
 870 0158 06       		.byte	0x6
 871 0159 33       		.byte	0x33
 872 015a E5000000 		.4byte	0xe5
 873 015e 03       		.uleb128 0x3
 874 015f 43030000 		.4byte	.LASF31
 875 0163 06       		.byte	0x6
 876 0164 3F       		.byte	0x3f
 877 0165 69010000 		.4byte	0x169
 878 0169 06       		.uleb128 0x6
 879 016a BC040000 		.4byte	.LASF60
 880 016e 48       		.byte	0x48
 881 016f 07       		.byte	0x7
 882 0170 C2       		.byte	0xc2
 883 0171 CB020000 		.4byte	0x2cb
 884 0175 07       		.uleb128 0x7
 885 0176 04       		.byte	0x4
 886 0177 07       		.byte	0x7
 887 0178 FA       		.byte	0xfa
 888 0179 D2010000 		.4byte	0x1d2
 889 017d 08       		.uleb128 0x8
 890 017e 53030000 		.4byte	.LASF32
 891 0182 07       		.byte	0x7
 892 0183 0101     		.2byte	0x101
 893 0185 32010000 		.4byte	0x132
 894 0189 08       		.uleb128 0x8
 895 018a 840A0000 		.4byte	.LASF33
 896 018e 07       		.byte	0x7
 897 018f 0801     		.2byte	0x108
 898 0191 32010000 		.4byte	0x132
 899 0195 08       		.uleb128 0x8
 900 0196 FE000000 		.4byte	.LASF34
 901 019a 07       		.byte	0x7
 902 019b 0F01     		.2byte	0x10f
 903 019d B3030000 		.4byte	0x3b3
 904 01a1 08       		.uleb128 0x8
 905 01a2 E0090000 		.4byte	.LASF35
 906 01a6 07       		.byte	0x7
 907 01a7 1601     		.2byte	0x116
 908 01a9 07080000 		.4byte	0x807
 909 01ad 08       		.uleb128 0x8
 910 01ae FF080000 		.4byte	.LASF36
 911 01b2 07       		.byte	0x7
 912 01b3 1E01     		.2byte	0x11e
ARM GAS  /var/folders/m4/4md61f0s1_g0rzfghffqnxvr0000gn/T//cc22WqKP.s 			page 17


 913 01b5 32080000 		.4byte	0x832
 914 01b9 08       		.uleb128 0x8
 915 01ba 2A000000 		.4byte	.LASF37
 916 01be 07       		.byte	0x7
 917 01bf 2701     		.2byte	0x127
 918 01c1 69080000 		.4byte	0x869
 919 01c5 08       		.uleb128 0x8
 920 01c6 4B010000 		.4byte	.LASF38
 921 01ca 07       		.byte	0x7
 922 01cb 2F01     		.2byte	0x12f
 923 01cd 3D010000 		.4byte	0x13d
 924 01d1 00       		.byte	0
 925 01d2 09       		.uleb128 0x9
 926 01d3 10080000 		.4byte	.LASF39
 927 01d7 07       		.byte	0x7
 928 01d8 C3       		.byte	0xc3
 929 01d9 D6020000 		.4byte	0x2d6
 930 01dd 00       		.byte	0
 931 01de 09       		.uleb128 0x9
 932 01df 7C080000 		.4byte	.LASF40
 933 01e3 07       		.byte	0x7
 934 01e4 C5       		.byte	0xc5
 935 01e5 D6020000 		.4byte	0x2d6
 936 01e9 04       		.byte	0x4
 937 01ea 09       		.uleb128 0x9
 938 01eb 5C000000 		.4byte	.LASF41
 939 01ef 07       		.byte	0x7
 940 01f0 C7       		.byte	0xc7
 941 01f1 27010000 		.4byte	0x127
 942 01f5 08       		.byte	0x8
 943 01f6 09       		.uleb128 0x9
 944 01f7 2D080000 		.4byte	.LASF42
 945 01fb 07       		.byte	0x7
 946 01fc C8       		.byte	0xc8
 947 01fd 7A060000 		.4byte	0x67a
 948 0201 0C       		.byte	0xc
 949 0202 09       		.uleb128 0x9
 950 0203 FF020000 		.4byte	.LASF43
 951 0207 07       		.byte	0x7
 952 0208 CA       		.byte	0xca
 953 0209 D6020000 		.4byte	0x2d6
 954 020d 10       		.byte	0x10
 955 020e 09       		.uleb128 0x9
 956 020f 5F040000 		.4byte	.LASF44
 957 0213 07       		.byte	0x7
 958 0214 CB       		.byte	0xcb
 959 0215 D6020000 		.4byte	0x2d6
 960 0219 14       		.byte	0x14
 961 021a 09       		.uleb128 0x9
 962 021b E7030000 		.4byte	.LASF45
 963 021f 07       		.byte	0x7
 964 0220 D2       		.byte	0xd2
 965 0221 6F080000 		.4byte	0x86f
 966 0225 18       		.byte	0x18
 967 0226 09       		.uleb128 0x9
 968 0227 B4040000 		.4byte	.LASF46
 969 022b 07       		.byte	0x7
ARM GAS  /var/folders/m4/4md61f0s1_g0rzfghffqnxvr0000gn/T//cc22WqKP.s 			page 18


 970 022c DD       		.byte	0xdd
 971 022d 06010000 		.4byte	0x106
 972 0231 1C       		.byte	0x1c
 973 0232 09       		.uleb128 0x9
 974 0233 34050000 		.4byte	.LASF47
 975 0237 07       		.byte	0x7
 976 0238 E1       		.byte	0xe1
 977 0239 FB000000 		.4byte	0xfb
 978 023d 1D       		.byte	0x1d
 979 023e 09       		.uleb128 0x9
 980 023f 5B090000 		.4byte	.LASF48
 981 0243 07       		.byte	0x7
 982 0244 E6       		.byte	0xe6
 983 0245 11010000 		.4byte	0x111
 984 0249 1E       		.byte	0x1e
 985 024a 09       		.uleb128 0x9
 986 024b 95090000 		.4byte	.LASF49
 987 024f 07       		.byte	0x7
 988 0250 EC       		.byte	0xec
 989 0251 1C010000 		.4byte	0x11c
 990 0255 1F       		.byte	0x1f
 991 0256 09       		.uleb128 0x9
 992 0257 42000000 		.4byte	.LASF50
 993 025b 07       		.byte	0x7
 994 025c F3       		.byte	0xf3
 995 025d 81080000 		.4byte	0x881
 996 0261 20       		.byte	0x20
 997 0262 0A       		.uleb128 0xa
 998 0263 705F7500 		.ascii	"p_u\000"
 999 0267 07       		.byte	0x7
 1000 0268 3101     		.2byte	0x131
 1001 026a 75010000 		.4byte	0x175
 1002 026e 24       		.byte	0x24
 1003 026f 0B       		.uleb128 0xb
 1004 0270 DE000000 		.4byte	.LASF51
 1005 0274 07       		.byte	0x7
 1006 0275 3601     		.2byte	0x136
 1007 0277 DC020000 		.4byte	0x2dc
 1008 027b 28       		.byte	0x28
 1009 027c 0B       		.uleb128 0xb
 1010 027d 240A0000 		.4byte	.LASF52
 1011 0281 07       		.byte	0x7
 1012 0282 3C01     		.2byte	0x13c
 1013 0284 00030000 		.4byte	0x300
 1014 0288 2C       		.byte	0x2c
 1015 0289 0B       		.uleb128 0xb
 1016 028a CF050000 		.4byte	.LASF53
 1017 028e 07       		.byte	0x7
 1018 028f 4001     		.2byte	0x140
 1019 0291 32010000 		.4byte	0x132
 1020 0295 34       		.byte	0x34
 1021 0296 0B       		.uleb128 0xb
 1022 0297 8C070000 		.4byte	.LASF54
 1023 029b 07       		.byte	0x7
 1024 029c 4601     		.2byte	0x146
 1025 029e 3D010000 		.4byte	0x13d
 1026 02a2 38       		.byte	0x38
ARM GAS  /var/folders/m4/4md61f0s1_g0rzfghffqnxvr0000gn/T//cc22WqKP.s 			page 19


 1027 02a3 0B       		.uleb128 0xb
 1028 02a4 98040000 		.4byte	.LASF55
 1029 02a8 07       		.byte	0x7
 1030 02a9 4D01     		.2byte	0x14d
 1031 02ab 69080000 		.4byte	0x869
 1032 02af 3C       		.byte	0x3c
 1033 02b0 0B       		.uleb128 0xb
 1034 02b1 49060000 		.4byte	.LASF56
 1035 02b5 07       		.byte	0x7
 1036 02b6 5101     		.2byte	0x151
 1037 02b8 27010000 		.4byte	0x127
 1038 02bc 40       		.byte	0x40
 1039 02bd 0B       		.uleb128 0xb
 1040 02be 90040000 		.4byte	.LASF57
 1041 02c2 07       		.byte	0x7
 1042 02c3 5801     		.2byte	0x158
 1043 02c5 B3030000 		.4byte	0x3b3
 1044 02c9 44       		.byte	0x44
 1045 02ca 00       		.byte	0
 1046 02cb 03       		.uleb128 0x3
 1047 02cc 05060000 		.4byte	.LASF58
 1048 02d0 06       		.byte	0x6
 1049 02d1 44       		.byte	0x44
 1050 02d2 D6020000 		.4byte	0x2d6
 1051 02d6 0C       		.uleb128 0xc
 1052 02d7 04       		.byte	0x4
 1053 02d8 5E010000 		.4byte	0x15e
 1054 02dc 03       		.uleb128 0x3
 1055 02dd CF000000 		.4byte	.LASF59
 1056 02e1 06       		.byte	0x6
 1057 02e2 49       		.byte	0x49
 1058 02e3 E7020000 		.4byte	0x2e7
 1059 02e7 06       		.uleb128 0x6
 1060 02e8 00000000 		.4byte	.LASF61
 1061 02ec 04       		.byte	0x4
 1062 02ed 07       		.byte	0x7
 1063 02ee B0       		.byte	0xb0
 1064 02ef 00030000 		.4byte	0x300
 1065 02f3 09       		.uleb128 0x9
 1066 02f4 10080000 		.4byte	.LASF39
 1067 02f8 07       		.byte	0x7
 1068 02f9 B1       		.byte	0xb1
 1069 02fa D6020000 		.4byte	0x2d6
 1070 02fe 00       		.byte	0
 1071 02ff 00       		.byte	0
 1072 0300 03       		.uleb128 0x3
 1073 0301 EF020000 		.4byte	.LASF62
 1074 0305 06       		.byte	0x6
 1075 0306 50       		.byte	0x50
 1076 0307 0B030000 		.4byte	0x30b
 1077 030b 06       		.uleb128 0x6
 1078 030c DE040000 		.4byte	.LASF63
 1079 0310 08       		.byte	0x8
 1080 0311 07       		.byte	0x7
 1081 0312 B7       		.byte	0xb7
 1082 0313 30030000 		.4byte	0x330
 1083 0317 09       		.uleb128 0x9
ARM GAS  /var/folders/m4/4md61f0s1_g0rzfghffqnxvr0000gn/T//cc22WqKP.s 			page 20


 1084 0318 10080000 		.4byte	.LASF39
 1085 031c 07       		.byte	0x7
 1086 031d B8       		.byte	0xb8
 1087 031e D6020000 		.4byte	0x2d6
 1088 0322 00       		.byte	0
 1089 0323 09       		.uleb128 0x9
 1090 0324 7C080000 		.4byte	.LASF40
 1091 0328 07       		.byte	0x7
 1092 0329 B9       		.byte	0xb9
 1093 032a D6020000 		.4byte	0x2d6
 1094 032e 04       		.byte	0x4
 1095 032f 00       		.byte	0
 1096 0330 03       		.uleb128 0x3
 1097 0331 C0080000 		.4byte	.LASF64
 1098 0335 06       		.byte	0x6
 1099 0336 57       		.byte	0x57
 1100 0337 3B030000 		.4byte	0x33b
 1101 033b 0D       		.uleb128 0xd
 1102 033c 2D010000 		.4byte	.LASF65
 1103 0340 1C       		.byte	0x1c
 1104 0341 07       		.byte	0x7
 1105 0342 9001     		.2byte	0x190
 1106 0344 97030000 		.4byte	0x397
 1107 0348 0B       		.uleb128 0xb
 1108 0349 01050000 		.4byte	.LASF66
 1109 034d 07       		.byte	0x7
 1110 034e 9101     		.2byte	0x191
 1111 0350 00030000 		.4byte	0x300
 1112 0354 00       		.byte	0
 1113 0355 0B       		.uleb128 0xb
 1114 0356 1E020000 		.4byte	.LASF67
 1115 035a 07       		.byte	0x7
 1116 035b 9201     		.2byte	0x192
 1117 035d 27010000 		.4byte	0x127
 1118 0361 08       		.byte	0x8
 1119 0362 0B       		.uleb128 0xb
 1120 0363 1E0A0000 		.4byte	.LASF68
 1121 0367 07       		.byte	0x7
 1122 0368 9401     		.2byte	0x194
 1123 036a 7A060000 		.4byte	0x67a
 1124 036e 0C       		.byte	0xc
 1125 036f 0B       		.uleb128 0xb
 1126 0370 0F040000 		.4byte	.LASF69
 1127 0374 07       		.byte	0x7
 1128 0375 9701     		.2byte	0x197
 1129 0377 D6020000 		.4byte	0x2d6
 1130 037b 10       		.byte	0x10
 1131 037c 0B       		.uleb128 0xb
 1132 037d 9F050000 		.4byte	.LASF70
 1133 0381 07       		.byte	0x7
 1134 0382 9801     		.2byte	0x198
 1135 0384 D6020000 		.4byte	0x2d6
 1136 0388 14       		.byte	0x14
 1137 0389 0B       		.uleb128 0xb
 1138 038a 82070000 		.4byte	.LASF71
 1139 038e 07       		.byte	0x7
 1140 038f 9B01     		.2byte	0x19b
ARM GAS  /var/folders/m4/4md61f0s1_g0rzfghffqnxvr0000gn/T//cc22WqKP.s 			page 21


 1141 0391 D6020000 		.4byte	0x2d6
 1142 0395 18       		.byte	0x18
 1143 0396 00       		.byte	0
 1144 0397 03       		.uleb128 0x3
 1145 0398 87010000 		.4byte	.LASF72
 1146 039c 06       		.byte	0x6
 1147 039d 5C       		.byte	0x5c
 1148 039e A2030000 		.4byte	0x3a2
 1149 03a2 0C       		.uleb128 0xc
 1150 03a3 04       		.byte	0x4
 1151 03a4 A8030000 		.4byte	0x3a8
 1152 03a8 0E       		.uleb128 0xe
 1153 03a9 B3030000 		.4byte	0x3b3
 1154 03ad 0F       		.uleb128 0xf
 1155 03ae B3030000 		.4byte	0x3b3
 1156 03b2 00       		.byte	0
 1157 03b3 10       		.uleb128 0x10
 1158 03b4 04       		.byte	0x4
 1159 03b5 03       		.uleb128 0x3
 1160 03b6 46050000 		.4byte	.LASF73
 1161 03ba 06       		.byte	0x6
 1162 03bb 61       		.byte	0x61
 1163 03bc C0030000 		.4byte	0x3c0
 1164 03c0 0D       		.uleb128 0xd
 1165 03c1 6E020000 		.4byte	.LASF74
 1166 03c5 14       		.byte	0x14
 1167 03c6 07       		.byte	0x7
 1168 03c7 6B01     		.2byte	0x16b
 1169 03c9 0F040000 		.4byte	0x40f
 1170 03cd 0B       		.uleb128 0xb
 1171 03ce B6090000 		.4byte	.LASF75
 1172 03d2 07       		.byte	0x7
 1173 03d3 6C01     		.2byte	0x16c
 1174 03d5 86080000 		.4byte	0x886
 1175 03d9 00       		.byte	0
 1176 03da 0B       		.uleb128 0xb
 1177 03db 4C0A0000 		.4byte	.LASF76
 1178 03df 07       		.byte	0x7
 1179 03e0 6D01     		.2byte	0x16d
 1180 03e2 86080000 		.4byte	0x886
 1181 03e6 04       		.byte	0x4
 1182 03e7 0B       		.uleb128 0xb
 1183 03e8 FE030000 		.4byte	.LASF77
 1184 03ec 07       		.byte	0x7
 1185 03ed 6E01     		.2byte	0x16e
 1186 03ef 53010000 		.4byte	0x153
 1187 03f3 08       		.byte	0x8
 1188 03f4 0B       		.uleb128 0xb
 1189 03f5 3D0A0000 		.4byte	.LASF78
 1190 03f9 07       		.byte	0x7
 1191 03fa 6F01     		.2byte	0x16f
 1192 03fc 97030000 		.4byte	0x397
 1193 0400 0C       		.byte	0xc
 1194 0401 0B       		.uleb128 0xb
 1195 0402 2A020000 		.4byte	.LASF79
 1196 0406 07       		.byte	0x7
 1197 0407 7101     		.2byte	0x171
ARM GAS  /var/folders/m4/4md61f0s1_g0rzfghffqnxvr0000gn/T//cc22WqKP.s 			page 22


 1198 0409 B3030000 		.4byte	0x3b3
 1199 040d 10       		.byte	0x10
 1200 040e 00       		.byte	0
 1201 040f 03       		.uleb128 0x3
 1202 0410 45090000 		.4byte	.LASF80
 1203 0414 06       		.byte	0x6
 1204 0415 66       		.byte	0x66
 1205 0416 1A040000 		.4byte	0x41a
 1206 041a 0D       		.uleb128 0xd
 1207 041b 0D030000 		.4byte	.LASF81
 1208 041f 10       		.byte	0x10
 1209 0420 07       		.byte	0x7
 1210 0421 7B01     		.2byte	0x17b
 1211 0423 5C040000 		.4byte	0x45c
 1212 0427 0B       		.uleb128 0xb
 1213 0428 B6090000 		.4byte	.LASF75
 1214 042c 07       		.byte	0x7
 1215 042d 7C01     		.2byte	0x17c
 1216 042f 86080000 		.4byte	0x886
 1217 0433 00       		.byte	0
 1218 0434 0B       		.uleb128 0xb
 1219 0435 4C0A0000 		.4byte	.LASF76
 1220 0439 07       		.byte	0x7
 1221 043a 7E01     		.2byte	0x17e
 1222 043c 86080000 		.4byte	0x886
 1223 0440 04       		.byte	0x4
 1224 0441 0B       		.uleb128 0xb
 1225 0442 FE030000 		.4byte	.LASF77
 1226 0446 07       		.byte	0x7
 1227 0447 8001     		.2byte	0x180
 1228 0449 53010000 		.4byte	0x153
 1229 044d 08       		.byte	0x8
 1230 044e 0B       		.uleb128 0xb
 1231 044f 78000000 		.4byte	.LASF82
 1232 0453 07       		.byte	0x7
 1233 0454 8201     		.2byte	0x182
 1234 0456 81080000 		.4byte	0x881
 1235 045a 0C       		.byte	0xc
 1236 045b 00       		.byte	0
 1237 045c 03       		.uleb128 0x3
 1238 045d C6040000 		.4byte	.LASF83
 1239 0461 06       		.byte	0x6
 1240 0462 6B       		.byte	0x6b
 1241 0463 67040000 		.4byte	0x467
 1242 0467 0D       		.uleb128 0xd
 1243 0468 B5010000 		.4byte	.LASF84
 1244 046c 04       		.byte	0x4
 1245 046d 07       		.byte	0x7
 1246 046e A201     		.2byte	0x1a2
 1247 0470 82040000 		.4byte	0x482
 1248 0474 0B       		.uleb128 0xb
 1249 0475 23080000 		.4byte	.LASF85
 1250 0479 07       		.byte	0x7
 1251 047a AA01     		.2byte	0x1aa
 1252 047c 8C080000 		.4byte	0x88c
 1253 0480 00       		.byte	0
 1254 0481 00       		.byte	0
ARM GAS  /var/folders/m4/4md61f0s1_g0rzfghffqnxvr0000gn/T//cc22WqKP.s 			page 23


 1255 0482 03       		.uleb128 0x3
 1256 0483 D4090000 		.4byte	.LASF86
 1257 0487 06       		.byte	0x6
 1258 0488 70       		.byte	0x70
 1259 0489 8D040000 		.4byte	0x48d
 1260 048d 11       		.uleb128 0x11
 1261 048e ED070000 		.4byte	.LASF87
 1262 0492 5802     		.2byte	0x258
 1263 0494 07       		.byte	0x7
 1264 0495 C201     		.2byte	0x1c2
 1265 0497 E9040000 		.4byte	0x4e9
 1266 049b 0B       		.uleb128 0xb
 1267 049c 33080000 		.4byte	.LASF88
 1268 04a0 07       		.byte	0x7
 1269 04a1 C601     		.2byte	0x1c6
 1270 04a3 30030000 		.4byte	0x330
 1271 04a7 00       		.byte	0
 1272 04a8 0B       		.uleb128 0xb
 1273 04a9 05010000 		.4byte	.LASF89
 1274 04ad 07       		.byte	0x7
 1275 04ae CA01     		.2byte	0x1ca
 1276 04b0 0F040000 		.4byte	0x40f
 1277 04b4 1C       		.byte	0x1c
 1278 04b5 0A       		.uleb128 0xa
 1279 04b6 64626700 		.ascii	"dbg\000"
 1280 04ba 07       		.byte	0x7
 1281 04bb CE01     		.2byte	0x1ce
 1282 04bd 5C040000 		.4byte	0x45c
 1283 04c1 2C       		.byte	0x2c
 1284 04c2 0B       		.uleb128 0xb
 1285 04c3 DD050000 		.4byte	.LASF90
 1286 04c7 07       		.byte	0x7
 1287 04c8 D201     		.2byte	0x1d2
 1288 04ca 5E010000 		.4byte	0x15e
 1289 04ce 30       		.byte	0x30
 1290 04cf 0A       		.uleb128 0xa
 1291 04d0 746D00   		.ascii	"tm\000"
 1292 04d3 07       		.byte	0x7
 1293 04d4 D701     		.2byte	0x1d7
 1294 04d6 FC070000 		.4byte	0x7fc
 1295 04da 78       		.byte	0x78
 1296 04db 0B       		.uleb128 0xb
 1297 04dc D5080000 		.4byte	.LASF91
 1298 04e0 07       		.byte	0x7
 1299 04e1 E301     		.2byte	0x1e3
 1300 04e3 91080000 		.4byte	0x891
 1301 04e7 80       		.byte	0x80
 1302 04e8 00       		.byte	0
 1303 04e9 04       		.uleb128 0x4
 1304 04ea 04       		.byte	0x4
 1305 04eb 07       		.byte	0x7
 1306 04ec 8A080000 		.4byte	.LASF92
 1307 04f0 12       		.uleb128 0x12
 1308 04f1 E5000000 		.4byte	0xe5
 1309 04f5 13       		.uleb128 0x13
 1310 04f6 18       		.byte	0x18
 1311 04f7 08       		.byte	0x8
ARM GAS  /var/folders/m4/4md61f0s1_g0rzfghffqnxvr0000gn/T//cc22WqKP.s 			page 24


 1312 04f8 7E01     		.2byte	0x17e
 1313 04fa 59020000 		.4byte	.LASF97
 1314 04fe 50050000 		.4byte	0x550
 1315 0502 0A       		.uleb128 0xa
 1316 0503 435200   		.ascii	"CR\000"
 1317 0506 08       		.byte	0x8
 1318 0507 7F01     		.2byte	0x17f
 1319 0509 F0040000 		.4byte	0x4f0
 1320 050d 00       		.byte	0
 1321 050e 0B       		.uleb128 0xb
 1322 050f 46010000 		.4byte	.LASF93
 1323 0513 08       		.byte	0x8
 1324 0514 8001     		.2byte	0x180
 1325 0516 F0040000 		.4byte	0x4f0
 1326 051a 04       		.byte	0x4
 1327 051b 0A       		.uleb128 0xa
 1328 051c 50415200 		.ascii	"PAR\000"
 1329 0520 08       		.byte	0x8
 1330 0521 8101     		.2byte	0x181
 1331 0523 F0040000 		.4byte	0x4f0
 1332 0527 08       		.byte	0x8
 1333 0528 0B       		.uleb128 0xb
 1334 0529 CF030000 		.4byte	.LASF94
 1335 052d 08       		.byte	0x8
 1336 052e 8201     		.2byte	0x182
 1337 0530 F0040000 		.4byte	0x4f0
 1338 0534 0C       		.byte	0xc
 1339 0535 0B       		.uleb128 0xb
 1340 0536 77080000 		.4byte	.LASF95
 1341 053a 08       		.byte	0x8
 1342 053b 8301     		.2byte	0x183
 1343 053d F0040000 		.4byte	0x4f0
 1344 0541 10       		.byte	0x10
 1345 0542 0A       		.uleb128 0xa
 1346 0543 46435200 		.ascii	"FCR\000"
 1347 0547 08       		.byte	0x8
 1348 0548 8401     		.2byte	0x184
 1349 054a F0040000 		.4byte	0x4f0
 1350 054e 14       		.byte	0x14
 1351 054f 00       		.byte	0
 1352 0550 14       		.uleb128 0x14
 1353 0551 76050000 		.4byte	.LASF96
 1354 0555 08       		.byte	0x8
 1355 0556 8501     		.2byte	0x185
 1356 0558 F5040000 		.4byte	0x4f5
 1357 055c 13       		.uleb128 0x13
 1358 055d 28       		.byte	0x28
 1359 055e 08       		.byte	0x8
 1360 055f FF01     		.2byte	0x1ff
 1361 0561 2F0A0000 		.4byte	.LASF98
 1362 0565 EB050000 		.4byte	0x5eb
 1363 0569 0A       		.uleb128 0xa
 1364 056a 43523100 		.ascii	"CR1\000"
 1365 056e 08       		.byte	0x8
 1366 056f 0002     		.2byte	0x200
 1367 0571 F0040000 		.4byte	0x4f0
 1368 0575 00       		.byte	0
ARM GAS  /var/folders/m4/4md61f0s1_g0rzfghffqnxvr0000gn/T//cc22WqKP.s 			page 25


 1369 0576 0A       		.uleb128 0xa
 1370 0577 43523200 		.ascii	"CR2\000"
 1371 057b 08       		.byte	0x8
 1372 057c 0102     		.2byte	0x201
 1373 057e F0040000 		.4byte	0x4f0
 1374 0582 04       		.byte	0x4
 1375 0583 0B       		.uleb128 0xb
 1376 0584 25000000 		.4byte	.LASF99
 1377 0588 08       		.byte	0x8
 1378 0589 0202     		.2byte	0x202
 1379 058b F0040000 		.4byte	0x4f0
 1380 058f 08       		.byte	0x8
 1381 0590 0B       		.uleb128 0xb
 1382 0591 A7030000 		.4byte	.LASF100
 1383 0595 08       		.byte	0x8
 1384 0596 0302     		.2byte	0x203
 1385 0598 F0040000 		.4byte	0x4f0
 1386 059c 0C       		.byte	0xc
 1387 059d 0A       		.uleb128 0xa
 1388 059e 445200   		.ascii	"DR\000"
 1389 05a1 08       		.byte	0x8
 1390 05a2 0402     		.2byte	0x204
 1391 05a4 F0040000 		.4byte	0x4f0
 1392 05a8 10       		.byte	0x10
 1393 05a9 0A       		.uleb128 0xa
 1394 05aa 53523100 		.ascii	"SR1\000"
 1395 05ae 08       		.byte	0x8
 1396 05af 0502     		.2byte	0x205
 1397 05b1 F0040000 		.4byte	0x4f0
 1398 05b5 14       		.byte	0x14
 1399 05b6 0A       		.uleb128 0xa
 1400 05b7 53523200 		.ascii	"SR2\000"
 1401 05bb 08       		.byte	0x8
 1402 05bc 0602     		.2byte	0x206
 1403 05be F0040000 		.4byte	0x4f0
 1404 05c2 18       		.byte	0x18
 1405 05c3 0A       		.uleb128 0xa
 1406 05c4 43435200 		.ascii	"CCR\000"
 1407 05c8 08       		.byte	0x8
 1408 05c9 0702     		.2byte	0x207
 1409 05cb F0040000 		.4byte	0x4f0
 1410 05cf 1C       		.byte	0x1c
 1411 05d0 0B       		.uleb128 0xb
 1412 05d1 8A040000 		.4byte	.LASF101
 1413 05d5 08       		.byte	0x8
 1414 05d6 0802     		.2byte	0x208
 1415 05d8 F0040000 		.4byte	0x4f0
 1416 05dc 20       		.byte	0x20
 1417 05dd 0B       		.uleb128 0xb
 1418 05de A7050000 		.4byte	.LASF102
 1419 05e2 08       		.byte	0x8
 1420 05e3 0902     		.2byte	0x209
 1421 05e5 F0040000 		.4byte	0x4f0
 1422 05e9 24       		.byte	0x24
 1423 05ea 00       		.byte	0
 1424 05eb 14       		.uleb128 0x14
 1425 05ec 6C090000 		.4byte	.LASF103
ARM GAS  /var/folders/m4/4md61f0s1_g0rzfghffqnxvr0000gn/T//cc22WqKP.s 			page 26


 1426 05f0 08       		.byte	0x8
 1427 05f1 0A02     		.2byte	0x20a
 1428 05f3 5C050000 		.4byte	0x55c
 1429 05f7 15       		.uleb128 0x15
 1430 05f8 01       		.byte	0x1
 1431 05f9 63000000 		.4byte	0x63
 1432 05fd 09       		.byte	0x9
 1433 05fe B8       		.byte	0xb8
 1434 05ff 600A0000 		.4byte	.LASF106
 1435 0603 14060000 		.4byte	0x614
 1436 0607 16       		.uleb128 0x16
 1437 0608 17080000 		.4byte	.LASF104
 1438 060c 00       		.byte	0
 1439 060d 17       		.uleb128 0x17
 1440 060e 53455400 		.ascii	"SET\000"
 1441 0612 01       		.byte	0x1
 1442 0613 00       		.byte	0
 1443 0614 03       		.uleb128 0x3
 1444 0615 22010000 		.4byte	.LASF105
 1445 0619 09       		.byte	0x9
 1446 061a BB       		.byte	0xbb
 1447 061b F7050000 		.4byte	0x5f7
 1448 061f 15       		.uleb128 0x15
 1449 0620 01       		.byte	0x1
 1450 0621 63000000 		.4byte	0x63
 1451 0625 09       		.byte	0x9
 1452 0626 BE       		.byte	0xbe
 1453 0627 A2040000 		.4byte	.LASF107
 1454 062b 3C060000 		.4byte	0x63c
 1455 062f 16       		.uleb128 0x16
 1456 0630 07040000 		.4byte	.LASF108
 1457 0634 00       		.byte	0
 1458 0635 16       		.uleb128 0x16
 1459 0636 83080000 		.4byte	.LASF109
 1460 063a 01       		.byte	0x1
 1461 063b 00       		.byte	0
 1462 063c 03       		.uleb128 0x3
 1463 063d BF000000 		.4byte	.LASF110
 1464 0641 09       		.byte	0x9
 1465 0642 C1       		.byte	0xc1
 1466 0643 1F060000 		.4byte	0x61f
 1467 0647 15       		.uleb128 0x15
 1468 0648 01       		.byte	0x1
 1469 0649 63000000 		.4byte	0x63
 1470 064d 09       		.byte	0x9
 1471 064e C5       		.byte	0xc5
 1472 064f C5010000 		.4byte	.LASF111
 1473 0653 64060000 		.4byte	0x664
 1474 0657 16       		.uleb128 0x16
 1475 0658 71080000 		.4byte	.LASF112
 1476 065c 00       		.byte	0
 1477 065d 16       		.uleb128 0x16
 1478 065e F6030000 		.4byte	.LASF113
 1479 0662 01       		.byte	0x1
 1480 0663 00       		.byte	0
 1481 0664 03       		.uleb128 0x3
 1482 0665 E8000000 		.4byte	.LASF114
ARM GAS  /var/folders/m4/4md61f0s1_g0rzfghffqnxvr0000gn/T//cc22WqKP.s 			page 27


 1483 0669 09       		.byte	0x9
 1484 066a C8       		.byte	0xc8
 1485 066b 47060000 		.4byte	0x647
 1486 066f 03       		.uleb128 0x3
 1487 0670 53000000 		.4byte	.LASF115
 1488 0674 0A       		.byte	0xa
 1489 0675 65       		.byte	0x65
 1490 0676 B3030000 		.4byte	0x3b3
 1491 067a 06       		.uleb128 0x6
 1492 067b 1A050000 		.4byte	.LASF116
 1493 067f 04       		.byte	0x4
 1494 0680 0A       		.byte	0xa
 1495 0681 89       		.byte	0x89
 1496 0682 93060000 		.4byte	0x693
 1497 0686 18       		.uleb128 0x18
 1498 0687 72313300 		.ascii	"r13\000"
 1499 068b 0A       		.byte	0xa
 1500 068c 8A       		.byte	0x8a
 1501 068d DD070000 		.4byte	0x7dd
 1502 0691 00       		.byte	0
 1503 0692 00       		.byte	0
 1504 0693 06       		.uleb128 0x6
 1505 0694 A8070000 		.4byte	.LASF117
 1506 0698 64       		.byte	0x64
 1507 0699 0B       		.byte	0xb
 1508 069a FD       		.byte	0xfd
 1509 069b DD070000 		.4byte	0x7dd
 1510 069f 18       		.uleb128 0x18
 1511 06a0 73313600 		.ascii	"s16\000"
 1512 06a4 0B       		.byte	0xb
 1513 06a5 FF       		.byte	0xff
 1514 06a6 6F060000 		.4byte	0x66f
 1515 06aa 00       		.byte	0
 1516 06ab 0A       		.uleb128 0xa
 1517 06ac 73313700 		.ascii	"s17\000"
 1518 06b0 0B       		.byte	0xb
 1519 06b1 0001     		.2byte	0x100
 1520 06b3 6F060000 		.4byte	0x66f
 1521 06b7 04       		.byte	0x4
 1522 06b8 0A       		.uleb128 0xa
 1523 06b9 73313800 		.ascii	"s18\000"
 1524 06bd 0B       		.byte	0xb
 1525 06be 0101     		.2byte	0x101
 1526 06c0 6F060000 		.4byte	0x66f
 1527 06c4 08       		.byte	0x8
 1528 06c5 0A       		.uleb128 0xa
 1529 06c6 73313900 		.ascii	"s19\000"
 1530 06ca 0B       		.byte	0xb
 1531 06cb 0201     		.2byte	0x102
 1532 06cd 6F060000 		.4byte	0x66f
 1533 06d1 0C       		.byte	0xc
 1534 06d2 0A       		.uleb128 0xa
 1535 06d3 73323000 		.ascii	"s20\000"
 1536 06d7 0B       		.byte	0xb
 1537 06d8 0301     		.2byte	0x103
 1538 06da 6F060000 		.4byte	0x66f
 1539 06de 10       		.byte	0x10
ARM GAS  /var/folders/m4/4md61f0s1_g0rzfghffqnxvr0000gn/T//cc22WqKP.s 			page 28


 1540 06df 0A       		.uleb128 0xa
 1541 06e0 73323100 		.ascii	"s21\000"
 1542 06e4 0B       		.byte	0xb
 1543 06e5 0401     		.2byte	0x104
 1544 06e7 6F060000 		.4byte	0x66f
 1545 06eb 14       		.byte	0x14
 1546 06ec 0A       		.uleb128 0xa
 1547 06ed 73323200 		.ascii	"s22\000"
 1548 06f1 0B       		.byte	0xb
 1549 06f2 0501     		.2byte	0x105
 1550 06f4 6F060000 		.4byte	0x66f
 1551 06f8 18       		.byte	0x18
 1552 06f9 0A       		.uleb128 0xa
 1553 06fa 73323300 		.ascii	"s23\000"
 1554 06fe 0B       		.byte	0xb
 1555 06ff 0601     		.2byte	0x106
 1556 0701 6F060000 		.4byte	0x66f
 1557 0705 1C       		.byte	0x1c
 1558 0706 0A       		.uleb128 0xa
 1559 0707 73323400 		.ascii	"s24\000"
 1560 070b 0B       		.byte	0xb
 1561 070c 0701     		.2byte	0x107
 1562 070e 6F060000 		.4byte	0x66f
 1563 0712 20       		.byte	0x20
 1564 0713 0A       		.uleb128 0xa
 1565 0714 73323500 		.ascii	"s25\000"
 1566 0718 0B       		.byte	0xb
 1567 0719 0801     		.2byte	0x108
 1568 071b 6F060000 		.4byte	0x66f
 1569 071f 24       		.byte	0x24
 1570 0720 0A       		.uleb128 0xa
 1571 0721 73323600 		.ascii	"s26\000"
 1572 0725 0B       		.byte	0xb
 1573 0726 0901     		.2byte	0x109
 1574 0728 6F060000 		.4byte	0x66f
 1575 072c 28       		.byte	0x28
 1576 072d 0A       		.uleb128 0xa
 1577 072e 73323700 		.ascii	"s27\000"
 1578 0732 0B       		.byte	0xb
 1579 0733 0A01     		.2byte	0x10a
 1580 0735 6F060000 		.4byte	0x66f
 1581 0739 2C       		.byte	0x2c
 1582 073a 0A       		.uleb128 0xa
 1583 073b 73323800 		.ascii	"s28\000"
 1584 073f 0B       		.byte	0xb
 1585 0740 0B01     		.2byte	0x10b
 1586 0742 6F060000 		.4byte	0x66f
 1587 0746 30       		.byte	0x30
 1588 0747 0A       		.uleb128 0xa
 1589 0748 73323900 		.ascii	"s29\000"
 1590 074c 0B       		.byte	0xb
 1591 074d 0C01     		.2byte	0x10c
 1592 074f 6F060000 		.4byte	0x66f
 1593 0753 34       		.byte	0x34
 1594 0754 0A       		.uleb128 0xa
 1595 0755 73333000 		.ascii	"s30\000"
 1596 0759 0B       		.byte	0xb
ARM GAS  /var/folders/m4/4md61f0s1_g0rzfghffqnxvr0000gn/T//cc22WqKP.s 			page 29


 1597 075a 0D01     		.2byte	0x10d
 1598 075c 6F060000 		.4byte	0x66f
 1599 0760 38       		.byte	0x38
 1600 0761 0A       		.uleb128 0xa
 1601 0762 73333100 		.ascii	"s31\000"
 1602 0766 0B       		.byte	0xb
 1603 0767 0E01     		.2byte	0x10e
 1604 0769 6F060000 		.4byte	0x66f
 1605 076d 3C       		.byte	0x3c
 1606 076e 0A       		.uleb128 0xa
 1607 076f 723400   		.ascii	"r4\000"
 1608 0772 0B       		.byte	0xb
 1609 0773 1001     		.2byte	0x110
 1610 0775 6F060000 		.4byte	0x66f
 1611 0779 40       		.byte	0x40
 1612 077a 0A       		.uleb128 0xa
 1613 077b 723500   		.ascii	"r5\000"
 1614 077e 0B       		.byte	0xb
 1615 077f 1101     		.2byte	0x111
 1616 0781 6F060000 		.4byte	0x66f
 1617 0785 44       		.byte	0x44
 1618 0786 0A       		.uleb128 0xa
 1619 0787 723600   		.ascii	"r6\000"
 1620 078a 0B       		.byte	0xb
 1621 078b 1201     		.2byte	0x112
 1622 078d 6F060000 		.4byte	0x66f
 1623 0791 48       		.byte	0x48
 1624 0792 0A       		.uleb128 0xa
 1625 0793 723700   		.ascii	"r7\000"
 1626 0796 0B       		.byte	0xb
 1627 0797 1301     		.2byte	0x113
 1628 0799 6F060000 		.4byte	0x66f
 1629 079d 4C       		.byte	0x4c
 1630 079e 0A       		.uleb128 0xa
 1631 079f 723800   		.ascii	"r8\000"
 1632 07a2 0B       		.byte	0xb
 1633 07a3 1401     		.2byte	0x114
 1634 07a5 6F060000 		.4byte	0x66f
 1635 07a9 50       		.byte	0x50
 1636 07aa 0A       		.uleb128 0xa
 1637 07ab 723900   		.ascii	"r9\000"
 1638 07ae 0B       		.byte	0xb
 1639 07af 1501     		.2byte	0x115
 1640 07b1 6F060000 		.4byte	0x66f
 1641 07b5 54       		.byte	0x54
 1642 07b6 0A       		.uleb128 0xa
 1643 07b7 72313000 		.ascii	"r10\000"
 1644 07bb 0B       		.byte	0xb
 1645 07bc 1601     		.2byte	0x116
 1646 07be 6F060000 		.4byte	0x66f
 1647 07c2 58       		.byte	0x58
 1648 07c3 0A       		.uleb128 0xa
 1649 07c4 72313100 		.ascii	"r11\000"
 1650 07c8 0B       		.byte	0xb
 1651 07c9 1701     		.2byte	0x117
 1652 07cb 6F060000 		.4byte	0x66f
 1653 07cf 5C       		.byte	0x5c
ARM GAS  /var/folders/m4/4md61f0s1_g0rzfghffqnxvr0000gn/T//cc22WqKP.s 			page 30


 1654 07d0 0A       		.uleb128 0xa
 1655 07d1 6C7200   		.ascii	"lr\000"
 1656 07d4 0B       		.byte	0xb
 1657 07d5 1801     		.2byte	0x118
 1658 07d7 6F060000 		.4byte	0x66f
 1659 07db 60       		.byte	0x60
 1660 07dc 00       		.byte	0
 1661 07dd 0C       		.uleb128 0xc
 1662 07de 04       		.byte	0x4
 1663 07df 93060000 		.4byte	0x693
 1664 07e3 19       		.uleb128 0x19
 1665 07e4 04       		.byte	0x4
 1666 07e5 0C       		.byte	0xc
 1667 07e6 38       		.byte	0x38
 1668 07e7 AD080000 		.4byte	.LASF137
 1669 07eb FC070000 		.4byte	0x7fc
 1670 07ef 09       		.uleb128 0x9
 1671 07f0 5A030000 		.4byte	.LASF118
 1672 07f4 0C       		.byte	0xc
 1673 07f5 3C       		.byte	0x3c
 1674 07f6 F0000000 		.4byte	0xf0
 1675 07fa 00       		.byte	0
 1676 07fb 00       		.byte	0
 1677 07fc 03       		.uleb128 0x3
 1678 07fd 31000000 		.4byte	.LASF119
 1679 0801 0C       		.byte	0xc
 1680 0802 3D       		.byte	0x3d
 1681 0803 E3070000 		.4byte	0x7e3
 1682 0807 0C       		.uleb128 0xc
 1683 0808 04       		.byte	0x4
 1684 0809 CB020000 		.4byte	0x2cb
 1685 080d 06       		.uleb128 0x6
 1686 080e 44020000 		.4byte	.LASF120
 1687 0812 0C       		.byte	0xc
 1688 0813 0D       		.byte	0xd
 1689 0814 34       		.byte	0x34
 1690 0815 32080000 		.4byte	0x832
 1691 0819 09       		.uleb128 0x9
 1692 081a 70000000 		.4byte	.LASF121
 1693 081e 0D       		.byte	0xd
 1694 081f 35       		.byte	0x35
 1695 0820 00030000 		.4byte	0x300
 1696 0824 00       		.byte	0
 1697 0825 09       		.uleb128 0x9
 1698 0826 AF010000 		.4byte	.LASF122
 1699 082a 0D       		.byte	0xd
 1700 082b 37       		.byte	0x37
 1701 082c 48010000 		.4byte	0x148
 1702 0830 08       		.byte	0x8
 1703 0831 00       		.byte	0
 1704 0832 0C       		.uleb128 0xc
 1705 0833 04       		.byte	0x4
 1706 0834 0D080000 		.4byte	0x80d
 1707 0838 06       		.uleb128 0x6
 1708 0839 AC030000 		.4byte	.LASF123
 1709 083d 10       		.byte	0x10
 1710 083e 0E       		.byte	0xe
ARM GAS  /var/folders/m4/4md61f0s1_g0rzfghffqnxvr0000gn/T//cc22WqKP.s 			page 31


 1711 083f 39       		.byte	0x39
 1712 0840 69080000 		.4byte	0x869
 1713 0844 09       		.uleb128 0x9
 1714 0845 97070000 		.4byte	.LASF124
 1715 0849 0E       		.byte	0xe
 1716 084a 3A       		.byte	0x3a
 1717 084b 00030000 		.4byte	0x300
 1718 084f 00       		.byte	0
 1719 0850 09       		.uleb128 0x9
 1720 0851 9F030000 		.4byte	.LASF125
 1721 0855 0E       		.byte	0xe
 1722 0856 3C       		.byte	0x3c
 1723 0857 D6020000 		.4byte	0x2d6
 1724 085b 08       		.byte	0x8
 1725 085c 09       		.uleb128 0x9
 1726 085d E6090000 		.4byte	.LASF126
 1727 0861 0E       		.byte	0xe
 1728 0862 3E       		.byte	0x3e
 1729 0863 AC080000 		.4byte	0x8ac
 1730 0867 0C       		.byte	0xc
 1731 0868 00       		.byte	0
 1732 0869 0C       		.uleb128 0xc
 1733 086a 04       		.byte	0x4
 1734 086b 38080000 		.4byte	0x838
 1735 086f 0C       		.uleb128 0xc
 1736 0870 04       		.byte	0x4
 1737 0871 7C080000 		.4byte	0x87c
 1738 0875 04       		.uleb128 0x4
 1739 0876 01       		.byte	0x1
 1740 0877 08       		.byte	0x8
 1741 0878 4E000000 		.4byte	.LASF127
 1742 087c 1A       		.uleb128 0x1a
 1743 087d 75080000 		.4byte	0x875
 1744 0881 12       		.uleb128 0x12
 1745 0882 53010000 		.4byte	0x153
 1746 0886 0C       		.uleb128 0xc
 1747 0887 04       		.byte	0x4
 1748 0888 B5030000 		.4byte	0x3b5
 1749 088c 12       		.uleb128 0x12
 1750 088d 6F080000 		.4byte	0x86f
 1751 0891 1B       		.uleb128 0x1b
 1752 0892 B2000000 		.4byte	0xb2
 1753 0896 A1080000 		.4byte	0x8a1
 1754 089a 1C       		.uleb128 0x1c
 1755 089b E9040000 		.4byte	0x4e9
 1756 089f 3A       		.byte	0x3a
 1757 08a0 00       		.byte	0
 1758 08a1 03       		.uleb128 0x3
 1759 08a2 16090000 		.4byte	.LASF128
 1760 08a6 0E       		.byte	0xe
 1761 08a7 34       		.byte	0x34
 1762 08a8 38080000 		.4byte	0x838
 1763 08ac 0C       		.uleb128 0xc
 1764 08ad 04       		.byte	0x4
 1765 08ae A1080000 		.4byte	0x8a1
 1766 08b2 0C       		.uleb128 0xc
 1767 08b3 04       		.byte	0x4
ARM GAS  /var/folders/m4/4md61f0s1_g0rzfghffqnxvr0000gn/T//cc22WqKP.s 			page 32


 1768 08b4 B9000000 		.4byte	0xb9
 1769 08b8 13       		.uleb128 0x13
 1770 08b9 0C       		.byte	0xc
 1771 08ba 0F       		.byte	0xf
 1772 08bb 6D01     		.2byte	0x16d
 1773 08bd 10000000 		.4byte	.LASF129
 1774 08c1 07090000 		.4byte	0x907
 1775 08c5 0B       		.uleb128 0xb
 1776 08c6 A20A0000 		.4byte	.LASF130
 1777 08ca 0F       		.byte	0xf
 1778 08cb 6E01     		.2byte	0x16e
 1779 08cd 07090000 		.4byte	0x907
 1780 08d1 00       		.byte	0
 1781 08d2 0B       		.uleb128 0xb
 1782 08d3 25020000 		.4byte	.LASF131
 1783 08d7 0F       		.byte	0xf
 1784 08d8 6F01     		.2byte	0x16f
 1785 08da 0D090000 		.4byte	0x90d
 1786 08de 04       		.byte	0x4
 1787 08df 0B       		.uleb128 0xb
 1788 08e0 21040000 		.4byte	.LASF132
 1789 08e4 0F       		.byte	0xf
 1790 08e5 7001     		.2byte	0x170
 1791 08e7 B9000000 		.4byte	0xb9
 1792 08eb 08       		.byte	0x8
 1793 08ec 0B       		.uleb128 0xb
 1794 08ed 8D0A0000 		.4byte	.LASF133
 1795 08f1 0F       		.byte	0xf
 1796 08f2 7201     		.2byte	0x172
 1797 08f4 B9000000 		.4byte	0xb9
 1798 08f8 09       		.byte	0x9
 1799 08f9 0B       		.uleb128 0xb
 1800 08fa 9E020000 		.4byte	.LASF134
 1801 08fe 0F       		.byte	0xf
 1802 08ff 7301     		.2byte	0x173
 1803 0901 B9000000 		.4byte	0xb9
 1804 0905 0A       		.byte	0xa
 1805 0906 00       		.byte	0
 1806 0907 0C       		.uleb128 0xc
 1807 0908 04       		.byte	0x4
 1808 0909 50050000 		.4byte	0x550
 1809 090d 0C       		.uleb128 0xc
 1810 090e 04       		.byte	0x4
 1811 090f F0040000 		.4byte	0x4f0
 1812 0913 14       		.uleb128 0x14
 1813 0914 31040000 		.4byte	.LASF135
 1814 0918 0F       		.byte	0xf
 1815 0919 7401     		.2byte	0x174
 1816 091b B8080000 		.4byte	0x8b8
 1817 091f 04       		.uleb128 0x4
 1818 0920 01       		.byte	0x1
 1819 0921 02       		.byte	0x2
 1820 0922 22050000 		.4byte	.LASF136
 1821 0926 19       		.uleb128 0x19
 1822 0927 2C       		.byte	0x2c
 1823 0928 10       		.byte	0x10
 1824 0929 DD       		.byte	0xdd
ARM GAS  /var/folders/m4/4md61f0s1_g0rzfghffqnxvr0000gn/T//cc22WqKP.s 			page 33


 1825 092a 8A030000 		.4byte	.LASF138
 1826 092e F8090000 		.4byte	0x9f8
 1827 0932 07       		.uleb128 0x7
 1828 0933 04       		.byte	0x4
 1829 0934 10       		.byte	0x10
 1830 0935 E5       		.byte	0xe5
 1831 0936 6E090000 		.4byte	0x96e
 1832 093a 1D       		.uleb128 0x1d
 1833 093b 04       		.byte	0x4
 1834 093c 10       		.byte	0x10
 1835 093d E7       		.byte	0xe7
 1836 093e 5B090000 		.4byte	0x95b
 1837 0942 18       		.uleb128 0x18
 1838 0943 73657400 		.ascii	"set\000"
 1839 0947 10       		.byte	0x10
 1840 0948 E8       		.byte	0xe8
 1841 0949 CF000000 		.4byte	0xcf
 1842 094d 00       		.byte	0
 1843 094e 09       		.uleb128 0x9
 1844 094f 07030000 		.4byte	.LASF139
 1845 0953 10       		.byte	0x10
 1846 0954 E9       		.byte	0xe9
 1847 0955 CF000000 		.4byte	0xcf
 1848 0959 02       		.byte	0x2
 1849 095a 00       		.byte	0
 1850 095b 1E       		.uleb128 0x1e
 1851 095c 5700     		.ascii	"W\000"
 1852 095e 10       		.byte	0x10
 1853 095f E6       		.byte	0xe6
 1854 0960 E5000000 		.4byte	0xe5
 1855 0964 1E       		.uleb128 0x1e
 1856 0965 4800     		.ascii	"H\000"
 1857 0967 10       		.byte	0x10
 1858 0968 EA       		.byte	0xea
 1859 0969 3A090000 		.4byte	0x93a
 1860 096d 00       		.byte	0
 1861 096e 09       		.uleb128 0x9
 1862 096f D2020000 		.4byte	.LASF140
 1863 0973 10       		.byte	0x10
 1864 0974 DF       		.byte	0xdf
 1865 0975 F0040000 		.4byte	0x4f0
 1866 0979 00       		.byte	0
 1867 097a 09       		.uleb128 0x9
 1868 097b F7070000 		.4byte	.LASF141
 1869 097f 10       		.byte	0x10
 1870 0980 E0       		.byte	0xe0
 1871 0981 F0040000 		.4byte	0x4f0
 1872 0985 04       		.byte	0x4
 1873 0986 09       		.uleb128 0x9
 1874 0987 E8050000 		.4byte	.LASF142
 1875 098b 10       		.byte	0x10
 1876 098c E1       		.byte	0xe1
 1877 098d F0040000 		.4byte	0x4f0
 1878 0991 08       		.byte	0x8
 1879 0992 09       		.uleb128 0x9
 1880 0993 99030000 		.4byte	.LASF143
 1881 0997 10       		.byte	0x10
ARM GAS  /var/folders/m4/4md61f0s1_g0rzfghffqnxvr0000gn/T//cc22WqKP.s 			page 34


 1882 0998 E2       		.byte	0xe2
 1883 0999 F0040000 		.4byte	0x4f0
 1884 099d 0C       		.byte	0xc
 1885 099e 18       		.uleb128 0x18
 1886 099f 49445200 		.ascii	"IDR\000"
 1887 09a3 10       		.byte	0x10
 1888 09a4 E3       		.byte	0xe3
 1889 09a5 F0040000 		.4byte	0x4f0
 1890 09a9 10       		.byte	0x10
 1891 09aa 18       		.uleb128 0x18
 1892 09ab 4F445200 		.ascii	"ODR\000"
 1893 09af 10       		.byte	0x10
 1894 09b0 E4       		.byte	0xe4
 1895 09b1 F0040000 		.4byte	0x4f0
 1896 09b5 14       		.byte	0x14
 1897 09b6 09       		.uleb128 0x9
 1898 09b7 49000000 		.4byte	.LASF144
 1899 09bb 10       		.byte	0x10
 1900 09bc EB       		.byte	0xeb
 1901 09bd C2090000 		.4byte	0x9c2
 1902 09c1 18       		.byte	0x18
 1903 09c2 12       		.uleb128 0x12
 1904 09c3 32090000 		.4byte	0x932
 1905 09c7 09       		.uleb128 0x9
 1906 09c8 970A0000 		.4byte	.LASF145
 1907 09cc 10       		.byte	0x10
 1908 09cd EC       		.byte	0xec
 1909 09ce F0040000 		.4byte	0x4f0
 1910 09d2 1C       		.byte	0x1c
 1911 09d3 09       		.uleb128 0x9
 1912 09d4 EA020000 		.4byte	.LASF146
 1913 09d8 10       		.byte	0x10
 1914 09d9 ED       		.byte	0xed
 1915 09da F0040000 		.4byte	0x4f0
 1916 09de 20       		.byte	0x20
 1917 09df 09       		.uleb128 0x9
 1918 09e0 D8020000 		.4byte	.LASF147
 1919 09e4 10       		.byte	0x10
 1920 09e5 EE       		.byte	0xee
 1921 09e6 F0040000 		.4byte	0x4f0
 1922 09ea 24       		.byte	0x24
 1923 09eb 18       		.uleb128 0x18
 1924 09ec 42525200 		.ascii	"BRR\000"
 1925 09f0 10       		.byte	0x10
 1926 09f1 EF       		.byte	0xef
 1927 09f2 F0040000 		.4byte	0x4f0
 1928 09f6 28       		.byte	0x28
 1929 09f7 00       		.byte	0
 1930 09f8 03       		.uleb128 0x3
 1931 09f9 DD020000 		.4byte	.LASF148
 1932 09fd 10       		.byte	0x10
 1933 09fe F0       		.byte	0xf0
 1934 09ff 26090000 		.4byte	0x926
 1935 0a03 14       		.uleb128 0x14
 1936 0a04 27050000 		.4byte	.LASF149
 1937 0a08 10       		.byte	0x10
 1938 0a09 3F01     		.2byte	0x13f
ARM GAS  /var/folders/m4/4md61f0s1_g0rzfghffqnxvr0000gn/T//cc22WqKP.s 			page 35


 1939 0a0b E5000000 		.4byte	0xe5
 1940 0a0f 0C       		.uleb128 0xc
 1941 0a10 04       		.byte	0x4
 1942 0a11 150A0000 		.4byte	0xa15
 1943 0a15 1A       		.uleb128 0x1a
 1944 0a16 13090000 		.4byte	0x913
 1945 0a1a 15       		.uleb128 0x15
 1946 0a1b 01       		.byte	0x1
 1947 0a1c 63000000 		.4byte	0x63
 1948 0a20 11       		.byte	0x11
 1949 0a21 4C       		.byte	0x4c
 1950 0a22 37020000 		.4byte	.LASF150
 1951 0a26 4F0A0000 		.4byte	0xa4f
 1952 0a2a 16       		.uleb128 0x16
 1953 0a2b 09050000 		.4byte	.LASF151
 1954 0a2f 00       		.byte	0
 1955 0a30 16       		.uleb128 0x16
 1956 0a31 0D090000 		.4byte	.LASF152
 1957 0a35 01       		.byte	0x1
 1958 0a36 16       		.uleb128 0x16
 1959 0a37 28060000 		.4byte	.LASF153
 1960 0a3b 02       		.byte	0x2
 1961 0a3c 16       		.uleb128 0x16
 1962 0a3d 04020000 		.4byte	.LASF154
 1963 0a41 03       		.byte	0x3
 1964 0a42 16       		.uleb128 0x16
 1965 0a43 83000000 		.4byte	.LASF155
 1966 0a47 04       		.byte	0x4
 1967 0a48 16       		.uleb128 0x16
 1968 0a49 CB070000 		.4byte	.LASF156
 1969 0a4d 05       		.byte	0x5
 1970 0a4e 00       		.byte	0
 1971 0a4f 03       		.uleb128 0x3
 1972 0a50 AC020000 		.4byte	.LASF157
 1973 0a54 11       		.byte	0x11
 1974 0a55 53       		.byte	0x53
 1975 0a56 1A0A0000 		.4byte	0xa1a
 1976 0a5a 14       		.uleb128 0x14
 1977 0a5b B4070000 		.4byte	.LASF158
 1978 0a5f 12       		.byte	0x12
 1979 0a60 6A01     		.2byte	0x16a
 1980 0a62 CF000000 		.4byte	0xcf
 1981 0a66 14       		.uleb128 0x14
 1982 0a67 38030000 		.4byte	.LASF159
 1983 0a6b 12       		.byte	0x12
 1984 0a6c 6F01     		.2byte	0x16f
 1985 0a6e E5000000 		.4byte	0xe5
 1986 0a72 1F       		.uleb128 0x1f
 1987 0a73 01       		.byte	0x1
 1988 0a74 63000000 		.4byte	0x63
 1989 0a78 12       		.byte	0x12
 1990 0a79 7401     		.2byte	0x174
 1991 0a7b 90010000 		.4byte	.LASF164
 1992 0a7f 960A0000 		.4byte	0xa96
 1993 0a83 16       		.uleb128 0x16
 1994 0a84 F9010000 		.4byte	.LASF160
 1995 0a88 01       		.byte	0x1
ARM GAS  /var/folders/m4/4md61f0s1_g0rzfghffqnxvr0000gn/T//cc22WqKP.s 			page 36


 1996 0a89 16       		.uleb128 0x16
 1997 0a8a E4080000 		.4byte	.LASF161
 1998 0a8e 02       		.byte	0x2
 1999 0a8f 16       		.uleb128 0x16
 2000 0a90 EF040000 		.4byte	.LASF162
 2001 0a94 03       		.byte	0x3
 2002 0a95 00       		.byte	0
 2003 0a96 14       		.uleb128 0x14
 2004 0a97 9F090000 		.4byte	.LASF163
 2005 0a9b 12       		.byte	0x12
 2006 0a9c 7801     		.2byte	0x178
 2007 0a9e 720A0000 		.4byte	0xa72
 2008 0aa2 1F       		.uleb128 0x1f
 2009 0aa3 01       		.byte	0x1
 2010 0aa4 63000000 		.4byte	0x63
 2011 0aa8 12       		.byte	0x12
 2012 0aa9 7D01     		.2byte	0x17d
 2013 0aab 9E010000 		.4byte	.LASF165
 2014 0aaf C60A0000 		.4byte	0xac6
 2015 0ab3 16       		.uleb128 0x16
 2016 0ab4 B5030000 		.4byte	.LASF166
 2017 0ab8 01       		.byte	0x1
 2018 0ab9 16       		.uleb128 0x16
 2019 0aba BD050000 		.4byte	.LASF167
 2020 0abe 02       		.byte	0x2
 2021 0abf 16       		.uleb128 0x16
 2022 0ac0 6D040000 		.4byte	.LASF168
 2023 0ac4 03       		.byte	0x3
 2024 0ac5 00       		.byte	0
 2025 0ac6 14       		.uleb128 0x14
 2026 0ac7 29030000 		.4byte	.LASF169
 2027 0acb 12       		.byte	0x12
 2028 0acc 8101     		.2byte	0x181
 2029 0ace A20A0000 		.4byte	0xaa2
 2030 0ad2 13       		.uleb128 0x13
 2031 0ad3 0C       		.byte	0xc
 2032 0ad4 12       		.byte	0x12
 2033 0ad5 8601     		.2byte	0x186
 2034 0ad7 3B010000 		.4byte	.LASF170
 2035 0adb 070B0000 		.4byte	0xb07
 2036 0adf 0B       		.uleb128 0xb
 2037 0ae0 20060000 		.4byte	.LASF171
 2038 0ae4 12       		.byte	0x12
 2039 0ae5 8801     		.2byte	0x188
 2040 0ae7 960A0000 		.4byte	0xa96
 2041 0aeb 00       		.byte	0
 2042 0aec 0B       		.uleb128 0xb
 2043 0aed 89050000 		.4byte	.LASF172
 2044 0af1 12       		.byte	0x12
 2045 0af2 8901     		.2byte	0x189
 2046 0af4 E5000000 		.4byte	0xe5
 2047 0af8 04       		.byte	0x4
 2048 0af9 0B       		.uleb128 0xb
 2049 0afa C4030000 		.4byte	.LASF173
 2050 0afe 12       		.byte	0x12
 2051 0aff 8C01     		.2byte	0x18c
 2052 0b01 C60A0000 		.4byte	0xac6
ARM GAS  /var/folders/m4/4md61f0s1_g0rzfghffqnxvr0000gn/T//cc22WqKP.s 			page 37


 2053 0b05 08       		.byte	0x8
 2054 0b06 00       		.byte	0
 2055 0b07 14       		.uleb128 0x14
 2056 0b08 C8020000 		.4byte	.LASF174
 2057 0b0c 12       		.byte	0x12
 2058 0b0d 8E01     		.2byte	0x18e
 2059 0b0f D20A0000 		.4byte	0xad2
 2060 0b13 14       		.uleb128 0x14
 2061 0b14 B5000000 		.4byte	.LASF175
 2062 0b18 12       		.byte	0x12
 2063 0b19 9301     		.2byte	0x193
 2064 0b1b 1F0B0000 		.4byte	0xb1f
 2065 0b1f 0D       		.uleb128 0xd
 2066 0b20 B5000000 		.4byte	.LASF175
 2067 0b24 38       		.byte	0x38
 2068 0b25 12       		.byte	0x12
 2069 0b26 9801     		.2byte	0x198
 2070 0b28 BC0B0000 		.4byte	0xbbc
 2071 0b2c 0B       		.uleb128 0xb
 2072 0b2d B0090000 		.4byte	.LASF176
 2073 0b31 12       		.byte	0x12
 2074 0b32 9C01     		.2byte	0x19c
 2075 0b34 4F0A0000 		.4byte	0xa4f
 2076 0b38 00       		.byte	0
 2077 0b39 0B       		.uleb128 0xb
 2078 0b3a 42060000 		.4byte	.LASF177
 2079 0b3e 12       		.byte	0x12
 2080 0b3f A001     		.2byte	0x1a0
 2081 0b41 BC0B0000 		.4byte	0xbbc
 2082 0b45 04       		.byte	0x4
 2083 0b46 0B       		.uleb128 0xb
 2084 0b47 A5020000 		.4byte	.LASF178
 2085 0b4b 12       		.byte	0x12
 2086 0b4c A401     		.2byte	0x1a4
 2087 0b4e 660A0000 		.4byte	0xa66
 2088 0b52 08       		.byte	0x8
 2089 0b53 0B       		.uleb128 0xb
 2090 0b54 31020000 		.4byte	.LASF179
 2091 0b58 12       		.byte	0x12
 2092 0b59 A901     		.2byte	0x1a9
 2093 0b5b A1080000 		.4byte	0x8a1
 2094 0b5f 0C       		.byte	0xc
 2095 0b60 0B       		.uleb128 0xb
 2096 0b61 F8080000 		.4byte	.LASF180
 2097 0b65 12       		.byte	0x12
 2098 0b66 B201     		.2byte	0x1b2
 2099 0b68 CB020000 		.4byte	0x2cb
 2100 0b6c 1C       		.byte	0x1c
 2101 0b6d 0B       		.uleb128 0xb
 2102 0b6e AB090000 		.4byte	.LASF181
 2103 0b72 12       		.byte	0x12
 2104 0b73 B601     		.2byte	0x1b6
 2105 0b75 5A0A0000 		.4byte	0xa5a
 2106 0b79 20       		.byte	0x20
 2107 0b7a 0B       		.uleb128 0xb
 2108 0b7b 62090000 		.4byte	.LASF182
 2109 0b7f 12       		.byte	0x12
ARM GAS  /var/folders/m4/4md61f0s1_g0rzfghffqnxvr0000gn/T//cc22WqKP.s 			page 38


 2110 0b80 BA01     		.2byte	0x1ba
 2111 0b82 E5000000 		.4byte	0xe5
 2112 0b86 24       		.byte	0x24
 2113 0b87 0B       		.uleb128 0xb
 2114 0b88 17040000 		.4byte	.LASF183
 2115 0b8c 12       		.byte	0x12
 2116 0b8d BE01     		.2byte	0x1be
 2117 0b8f E5000000 		.4byte	0xe5
 2118 0b93 28       		.byte	0x28
 2119 0b94 0B       		.uleb128 0xb
 2120 0b95 63000000 		.4byte	.LASF184
 2121 0b99 12       		.byte	0x12
 2122 0b9a C201     		.2byte	0x1c2
 2123 0b9c 0F0A0000 		.4byte	0xa0f
 2124 0ba0 2C       		.byte	0x2c
 2125 0ba1 0B       		.uleb128 0xb
 2126 0ba2 EA010000 		.4byte	.LASF185
 2127 0ba6 12       		.byte	0x12
 2128 0ba7 C601     		.2byte	0x1c6
 2129 0ba9 0F0A0000 		.4byte	0xa0f
 2130 0bad 30       		.byte	0x30
 2131 0bae 0A       		.uleb128 0xa
 2132 0baf 69326300 		.ascii	"i2c\000"
 2133 0bb3 12       		.byte	0x12
 2134 0bb4 CA01     		.2byte	0x1ca
 2135 0bb6 C70B0000 		.4byte	0xbc7
 2136 0bba 34       		.byte	0x34
 2137 0bbb 00       		.byte	0
 2138 0bbc 0C       		.uleb128 0xc
 2139 0bbd 04       		.byte	0x4
 2140 0bbe C20B0000 		.4byte	0xbc2
 2141 0bc2 1A       		.uleb128 0x1a
 2142 0bc3 070B0000 		.4byte	0xb07
 2143 0bc7 0C       		.uleb128 0xc
 2144 0bc8 04       		.byte	0x4
 2145 0bc9 EB050000 		.4byte	0x5eb
 2146 0bcd 1B       		.uleb128 0x1b
 2147 0bce 63000000 		.4byte	0x63
 2148 0bd2 DD0B0000 		.4byte	0xbdd
 2149 0bd6 1C       		.uleb128 0x1c
 2150 0bd7 E9040000 		.4byte	0x4e9
 2151 0bdb 00       		.byte	0
 2152 0bdc 00       		.byte	0
 2153 0bdd 19       		.uleb128 0x19
 2154 0bde 18       		.byte	0x18
 2155 0bdf 13       		.byte	0x13
 2156 0be0 B3       		.byte	0xb3
 2157 0be1 DE030000 		.4byte	.LASF186
 2158 0be5 080C0000 		.4byte	0xc08
 2159 0be9 18       		.uleb128 0x18
 2160 0bea 7800     		.ascii	"x\000"
 2161 0bec 13       		.byte	0x13
 2162 0bed B4       		.byte	0xb4
 2163 0bee 080C0000 		.4byte	0xc08
 2164 0bf2 00       		.byte	0
 2165 0bf3 18       		.uleb128 0x18
 2166 0bf4 7900     		.ascii	"y\000"
ARM GAS  /var/folders/m4/4md61f0s1_g0rzfghffqnxvr0000gn/T//cc22WqKP.s 			page 39


 2167 0bf6 13       		.byte	0x13
 2168 0bf7 B5       		.byte	0xb5
 2169 0bf8 080C0000 		.4byte	0xc08
 2170 0bfc 08       		.byte	0x8
 2171 0bfd 18       		.uleb128 0x18
 2172 0bfe 7A00     		.ascii	"z\000"
 2173 0c00 13       		.byte	0x13
 2174 0c01 B6       		.byte	0xb6
 2175 0c02 080C0000 		.4byte	0xc08
 2176 0c06 10       		.byte	0x10
 2177 0c07 00       		.byte	0
 2178 0c08 04       		.uleb128 0x4
 2179 0c09 08       		.byte	0x8
 2180 0c0a 04       		.byte	0x4
 2181 0c0b 450A0000 		.4byte	.LASF187
 2182 0c0f 03       		.uleb128 0x3
 2183 0c10 EE030000 		.4byte	.LASF188
 2184 0c14 13       		.byte	0x13
 2185 0c15 B7       		.byte	0xb7
 2186 0c16 DD0B0000 		.4byte	0xbdd
 2187 0c1a 20       		.uleb128 0x20
 2188 0c1b 6D0A0000 		.4byte	.LASF191
 2189 0c1f 01       		.byte	0x1
 2190 0c20 63       		.byte	0x63
 2191 0c21 0C010000 		.4byte	.LASF193
 2192 0c25 B9000000 		.4byte	0xb9
 2193 0c29 00000000 		.4byte	.LFB272
 2194 0c2d 38000000 		.4byte	.LFE272-.LFB272
 2195 0c31 01       		.uleb128 0x1
 2196 0c32 9C       		.byte	0x9c
 2197 0c33 D70C0000 		.4byte	0xcd7
 2198 0c37 21       		.uleb128 0x21
 2199 0c38 AB090000 		.4byte	.LASF181
 2200 0c3c 01       		.byte	0x1
 2201 0c3d 63       		.byte	0x63
 2202 0c3e B9000000 		.4byte	0xb9
 2203 0c42 00000000 		.4byte	.LLST0
 2204 0c46 22       		.uleb128 0x22
 2205 0c47 746D6F00 		.ascii	"tmo\000"
 2206 0c4b 01       		.byte	0x1
 2207 0c4c 65       		.byte	0x65
 2208 0c4d 53010000 		.4byte	0x153
 2209 0c51 28       		.byte	0x28
 2210 0c52 23       		.uleb128 0x23
 2211 0c53 1D080000 		.4byte	.LASF189
 2212 0c57 01       		.byte	0x1
 2213 0c58 66       		.byte	0x66
 2214 0c59 CD0B0000 		.4byte	0xbcd
 2215 0c5d 02       		.uleb128 0x2
 2216 0c5e 91       		.byte	0x91
 2217 0c5f 68       		.sleb128 -24
 2218 0c60 23       		.uleb128 0x23
 2219 0c61 9C0A0000 		.4byte	.LASF190
 2220 0c65 01       		.byte	0x1
 2221 0c66 67       		.byte	0x67
 2222 0c67 CD0B0000 		.4byte	0xbcd
 2223 0c6b 02       		.uleb128 0x2
ARM GAS  /var/folders/m4/4md61f0s1_g0rzfghffqnxvr0000gn/T//cc22WqKP.s 			page 40


 2224 0c6c 91       		.byte	0x91
 2225 0c6d 6C       		.sleb128 -20
 2226 0c6e 24       		.uleb128 0x24
 2227 0c6f 24030000 		.4byte	.LASF198
 2228 0c73 01       		.byte	0x1
 2229 0c74 6A       		.byte	0x6a
 2230 0c75 B9000000 		.4byte	0xb9
 2231 0c79 25       		.uleb128 0x25
 2232 0c7a 14000000 		.4byte	.LVL2
 2233 0c7e 84110000 		.4byte	0x1184
 2234 0c82 8D0C0000 		.4byte	0xc8d
 2235 0c86 26       		.uleb128 0x26
 2236 0c87 01       		.uleb128 0x1
 2237 0c88 50       		.byte	0x50
 2238 0c89 02       		.uleb128 0x2
 2239 0c8a 74       		.byte	0x74
 2240 0c8b 00       		.sleb128 0
 2241 0c8c 00       		.byte	0
 2242 0c8d 25       		.uleb128 0x25
 2243 0c8e 26000000 		.4byte	.LVL3
 2244 0c92 8F110000 		.4byte	0x118f
 2245 0c96 C60C0000 		.4byte	0xcc6
 2246 0c9a 26       		.uleb128 0x26
 2247 0c9b 01       		.uleb128 0x1
 2248 0c9c 50       		.byte	0x50
 2249 0c9d 02       		.uleb128 0x2
 2250 0c9e 74       		.byte	0x74
 2251 0c9f 00       		.sleb128 0
 2252 0ca0 26       		.uleb128 0x26
 2253 0ca1 01       		.uleb128 0x1
 2254 0ca2 51       		.byte	0x51
 2255 0ca3 02       		.uleb128 0x2
 2256 0ca4 08       		.byte	0x8
 2257 0ca5 28       		.byte	0x28
 2258 0ca6 26       		.uleb128 0x26
 2259 0ca7 01       		.uleb128 0x1
 2260 0ca8 52       		.byte	0x52
 2261 0ca9 02       		.uleb128 0x2
 2262 0caa 75       		.byte	0x75
 2263 0cab 00       		.sleb128 0
 2264 0cac 26       		.uleb128 0x26
 2265 0cad 01       		.uleb128 0x1
 2266 0cae 53       		.byte	0x53
 2267 0caf 01       		.uleb128 0x1
 2268 0cb0 31       		.byte	0x31
 2269 0cb1 26       		.uleb128 0x26
 2270 0cb2 02       		.uleb128 0x2
 2271 0cb3 7D       		.byte	0x7d
 2272 0cb4 00       		.sleb128 0
 2273 0cb5 02       		.uleb128 0x2
 2274 0cb6 76       		.byte	0x76
 2275 0cb7 00       		.sleb128 0
 2276 0cb8 26       		.uleb128 0x26
 2277 0cb9 02       		.uleb128 0x2
 2278 0cba 7D       		.byte	0x7d
 2279 0cbb 04       		.sleb128 4
 2280 0cbc 01       		.uleb128 0x1
ARM GAS  /var/folders/m4/4md61f0s1_g0rzfghffqnxvr0000gn/T//cc22WqKP.s 			page 41


 2281 0cbd 31       		.byte	0x31
 2282 0cbe 26       		.uleb128 0x26
 2283 0cbf 02       		.uleb128 0x2
 2284 0cc0 7D       		.byte	0x7d
 2285 0cc1 08       		.sleb128 8
 2286 0cc2 02       		.uleb128 0x2
 2287 0cc3 08       		.byte	0x8
 2288 0cc4 28       		.byte	0x28
 2289 0cc5 00       		.byte	0
 2290 0cc6 27       		.uleb128 0x27
 2291 0cc7 2C000000 		.4byte	.LVL4
 2292 0ccb 9A110000 		.4byte	0x119a
 2293 0ccf 26       		.uleb128 0x26
 2294 0cd0 01       		.uleb128 0x1
 2295 0cd1 50       		.byte	0x50
 2296 0cd2 02       		.uleb128 0x2
 2297 0cd3 74       		.byte	0x74
 2298 0cd4 00       		.sleb128 0
 2299 0cd5 00       		.byte	0
 2300 0cd6 00       		.byte	0
 2301 0cd7 20       		.uleb128 0x20
 2302 0cd8 F9090000 		.4byte	.LASF192
 2303 0cdc 01       		.byte	0x1
 2304 0cdd 59       		.byte	0x59
 2305 0cde D6070000 		.4byte	.LASF194
 2306 0ce2 B9000000 		.4byte	0xb9
 2307 0ce6 00000000 		.4byte	.LFB270
 2308 0cea 06000000 		.4byte	.LFE270-.LFB270
 2309 0cee 01       		.uleb128 0x1
 2310 0cef 9C       		.byte	0x9c
 2311 0cf0 050D0000 		.4byte	0xd05
 2312 0cf4 28       		.uleb128 0x28
 2313 0cf5 06000000 		.4byte	.LVL5
 2314 0cf9 1A0C0000 		.4byte	0xc1a
 2315 0cfd 26       		.uleb128 0x26
 2316 0cfe 01       		.uleb128 0x1
 2317 0cff 50       		.byte	0x50
 2318 0d00 02       		.uleb128 0x2
 2319 0d01 08       		.byte	0x8
 2320 0d02 39       		.byte	0x39
 2321 0d03 00       		.byte	0
 2322 0d04 00       		.byte	0
 2323 0d05 20       		.uleb128 0x20
 2324 0d06 79030000 		.4byte	.LASF195
 2325 0d0a 01       		.byte	0x1
 2326 0d0b 5E       		.byte	0x5e
 2327 0d0c 5B080000 		.4byte	.LASF196
 2328 0d10 B9000000 		.4byte	0xb9
 2329 0d14 00000000 		.4byte	.LFB271
 2330 0d18 06000000 		.4byte	.LFE271-.LFB271
 2331 0d1c 01       		.uleb128 0x1
 2332 0d1d 9C       		.byte	0x9c
 2333 0d1e 330D0000 		.4byte	0xd33
 2334 0d22 28       		.uleb128 0x28
 2335 0d23 06000000 		.4byte	.LVL6
 2336 0d27 1A0C0000 		.4byte	0xc1a
 2337 0d2b 26       		.uleb128 0x26
ARM GAS  /var/folders/m4/4md61f0s1_g0rzfghffqnxvr0000gn/T//cc22WqKP.s 			page 42


 2338 0d2c 01       		.uleb128 0x1
 2339 0d2d 50       		.byte	0x50
 2340 0d2e 02       		.uleb128 0x2
 2341 0d2f 08       		.byte	0x8
 2342 0d30 3A       		.byte	0x3a
 2343 0d31 00       		.byte	0
 2344 0d32 00       		.byte	0
 2345 0d33 29       		.uleb128 0x29
 2346 0d34 32060000 		.4byte	.LASF201
 2347 0d38 01       		.byte	0x1
 2348 0d39 6F       		.byte	0x6f
 2349 0d3a 39080000 		.4byte	.LASF203
 2350 0d3e 00000000 		.4byte	.LFB273
 2351 0d42 38000000 		.4byte	.LFE273-.LFB273
 2352 0d46 01       		.uleb128 0x1
 2353 0d47 9C       		.byte	0x9c
 2354 0d48 FD0D0000 		.4byte	0xdfd
 2355 0d4c 21       		.uleb128 0x21
 2356 0d4d AB090000 		.4byte	.LASF181
 2357 0d51 01       		.byte	0x1
 2358 0d52 6F       		.byte	0x6f
 2359 0d53 B9000000 		.4byte	0xb9
 2360 0d57 2D000000 		.4byte	.LLST1
 2361 0d5b 2A       		.uleb128 0x2a
 2362 0d5c 6C656E00 		.ascii	"len\000"
 2363 0d60 01       		.byte	0x1
 2364 0d61 6F       		.byte	0x6f
 2365 0d62 B9000000 		.4byte	0xb9
 2366 0d66 5A000000 		.4byte	.LLST2
 2367 0d6a 21       		.uleb128 0x21
 2368 0d6b 69000000 		.4byte	.LASF197
 2369 0d6f 01       		.byte	0x1
 2370 0d70 6F       		.byte	0x6f
 2371 0d71 B2080000 		.4byte	0x8b2
 2372 0d75 7B000000 		.4byte	.LLST3
 2373 0d79 22       		.uleb128 0x22
 2374 0d7a 746D6F00 		.ascii	"tmo\000"
 2375 0d7e 01       		.byte	0x1
 2376 0d7f 71       		.byte	0x71
 2377 0d80 53010000 		.4byte	0x153
 2378 0d84 28       		.byte	0x28
 2379 0d85 23       		.uleb128 0x23
 2380 0d86 1D080000 		.4byte	.LASF189
 2381 0d8a 01       		.byte	0x1
 2382 0d8b 72       		.byte	0x72
 2383 0d8c CD0B0000 		.4byte	0xbcd
 2384 0d90 02       		.uleb128 0x2
 2385 0d91 91       		.byte	0x91
 2386 0d92 64       		.sleb128 -28
 2387 0d93 24       		.uleb128 0x24
 2388 0d94 24030000 		.4byte	.LASF198
 2389 0d98 01       		.byte	0x1
 2390 0d99 75       		.byte	0x75
 2391 0d9a B9000000 		.4byte	0xb9
 2392 0d9e 25       		.uleb128 0x25
 2393 0d9f 16000000 		.4byte	.LVL9
 2394 0da3 84110000 		.4byte	0x1184
ARM GAS  /var/folders/m4/4md61f0s1_g0rzfghffqnxvr0000gn/T//cc22WqKP.s 			page 43


 2395 0da7 B20D0000 		.4byte	0xdb2
 2396 0dab 26       		.uleb128 0x26
 2397 0dac 01       		.uleb128 0x1
 2398 0dad 50       		.byte	0x50
 2399 0dae 02       		.uleb128 0x2
 2400 0daf 74       		.byte	0x74
 2401 0db0 00       		.sleb128 0
 2402 0db1 00       		.byte	0
 2403 0db2 25       		.uleb128 0x25
 2404 0db3 28000000 		.4byte	.LVL10
 2405 0db7 8F110000 		.4byte	0x118f
 2406 0dbb EC0D0000 		.4byte	0xdec
 2407 0dbf 26       		.uleb128 0x26
 2408 0dc0 01       		.uleb128 0x1
 2409 0dc1 50       		.byte	0x50
 2410 0dc2 02       		.uleb128 0x2
 2411 0dc3 74       		.byte	0x74
 2412 0dc4 00       		.sleb128 0
 2413 0dc5 26       		.uleb128 0x26
 2414 0dc6 01       		.uleb128 0x1
 2415 0dc7 51       		.byte	0x51
 2416 0dc8 02       		.uleb128 0x2
 2417 0dc9 08       		.byte	0x8
 2418 0dca 28       		.byte	0x28
 2419 0dcb 26       		.uleb128 0x26
 2420 0dcc 01       		.uleb128 0x1
 2421 0dcd 52       		.byte	0x52
 2422 0dce 02       		.uleb128 0x2
 2423 0dcf 75       		.byte	0x75
 2424 0dd0 00       		.sleb128 0
 2425 0dd1 26       		.uleb128 0x26
 2426 0dd2 01       		.uleb128 0x1
 2427 0dd3 53       		.byte	0x53
 2428 0dd4 01       		.uleb128 0x1
 2429 0dd5 31       		.byte	0x31
 2430 0dd6 26       		.uleb128 0x26
 2431 0dd7 02       		.uleb128 0x2
 2432 0dd8 7D       		.byte	0x7d
 2433 0dd9 00       		.sleb128 0
 2434 0dda 02       		.uleb128 0x2
 2435 0ddb 76       		.byte	0x76
 2436 0ddc 00       		.sleb128 0
 2437 0ddd 26       		.uleb128 0x26
 2438 0dde 02       		.uleb128 0x2
 2439 0ddf 7D       		.byte	0x7d
 2440 0de0 04       		.sleb128 4
 2441 0de1 02       		.uleb128 0x2
 2442 0de2 77       		.byte	0x77
 2443 0de3 00       		.sleb128 0
 2444 0de4 26       		.uleb128 0x26
 2445 0de5 02       		.uleb128 0x2
 2446 0de6 7D       		.byte	0x7d
 2447 0de7 08       		.sleb128 8
 2448 0de8 02       		.uleb128 0x2
 2449 0de9 08       		.byte	0x8
 2450 0dea 28       		.byte	0x28
 2451 0deb 00       		.byte	0
ARM GAS  /var/folders/m4/4md61f0s1_g0rzfghffqnxvr0000gn/T//cc22WqKP.s 			page 44


 2452 0dec 27       		.uleb128 0x27
 2453 0ded 2E000000 		.4byte	.LVL11
 2454 0df1 9A110000 		.4byte	0x119a
 2455 0df5 26       		.uleb128 0x26
 2456 0df6 01       		.uleb128 0x1
 2457 0df7 50       		.byte	0x50
 2458 0df8 02       		.uleb128 0x2
 2459 0df9 74       		.byte	0x74
 2460 0dfa 00       		.sleb128 0
 2461 0dfb 00       		.byte	0
 2462 0dfc 00       		.byte	0
 2463 0dfd 2B       		.uleb128 0x2b
 2464 0dfe FE070000 		.4byte	.LASF199
 2465 0e02 01       		.byte	0x1
 2466 0e03 2F       		.byte	0x2f
 2467 0e04 D3010000 		.4byte	.LASF200
 2468 0e08 0F0C0000 		.4byte	0xc0f
 2469 0e0c 00000000 		.4byte	.LFB269
 2470 0e10 7C010000 		.4byte	.LFE269-.LFB269
 2471 0e14 01       		.uleb128 0x1
 2472 0e15 9C       		.byte	0x9c
 2473 0e16 870E0000 		.4byte	0xe87
 2474 0e1a 21       		.uleb128 0x21
 2475 0e1b AB090000 		.4byte	.LASF181
 2476 0e1f 01       		.byte	0x1
 2477 0e20 2F       		.byte	0x2f
 2478 0e21 B9000000 		.4byte	0xb9
 2479 0e25 A7000000 		.4byte	.LLST4
 2480 0e29 2C       		.uleb128 0x2c
 2481 0e2a 9E020000 		.4byte	.LASF134
 2482 0e2e 01       		.byte	0x1
 2483 0e2f 31       		.byte	0x31
 2484 0e30 0F0C0000 		.4byte	0xc0f
 2485 0e34 C8000000 		.4byte	.LLST5
 2486 0e38 23       		.uleb128 0x23
 2487 0e39 69000000 		.4byte	.LASF197
 2488 0e3d 01       		.byte	0x1
 2489 0e3e 32       		.byte	0x32
 2490 0e3f 870E0000 		.4byte	0xe87
 2491 0e43 03       		.uleb128 0x3
 2492 0e44 91       		.byte	0x91
 2493 0e45 B07F     		.sleb128 -80
 2494 0e47 2D       		.uleb128 0x2d
 2495 0e48 7800     		.ascii	"x\000"
 2496 0e4a 01       		.byte	0x1
 2497 0e4b 35       		.byte	0x35
 2498 0e4c C4000000 		.4byte	0xc4
 2499 0e50 A0020000 		.4byte	.LLST6
 2500 0e54 2E       		.uleb128 0x2e
 2501 0e55 7900     		.ascii	"y\000"
 2502 0e57 01       		.byte	0x1
 2503 0e58 36       		.byte	0x36
 2504 0e59 C4000000 		.4byte	0xc4
 2505 0e5d 01       		.uleb128 0x1
 2506 0e5e 55       		.byte	0x55
 2507 0e5f 2E       		.uleb128 0x2e
 2508 0e60 7A00     		.ascii	"z\000"
ARM GAS  /var/folders/m4/4md61f0s1_g0rzfghffqnxvr0000gn/T//cc22WqKP.s 			page 45


 2509 0e62 01       		.byte	0x1
 2510 0e63 37       		.byte	0x37
 2511 0e64 C4000000 		.4byte	0xc4
 2512 0e68 01       		.uleb128 0x1
 2513 0e69 54       		.byte	0x54
 2514 0e6a 27       		.uleb128 0x27
 2515 0e6b 1A000000 		.4byte	.LVL14
 2516 0e6f 330D0000 		.4byte	0xd33
 2517 0e73 26       		.uleb128 0x26
 2518 0e74 01       		.uleb128 0x1
 2519 0e75 50       		.byte	0x50
 2520 0e76 02       		.uleb128 0x2
 2521 0e77 74       		.byte	0x74
 2522 0e78 00       		.sleb128 0
 2523 0e79 26       		.uleb128 0x26
 2524 0e7a 01       		.uleb128 0x1
 2525 0e7b 51       		.byte	0x51
 2526 0e7c 01       		.uleb128 0x1
 2527 0e7d 36       		.byte	0x36
 2528 0e7e 26       		.uleb128 0x26
 2529 0e7f 01       		.uleb128 0x1
 2530 0e80 52       		.byte	0x52
 2531 0e81 03       		.uleb128 0x3
 2532 0e82 91       		.byte	0x91
 2533 0e83 B07F     		.sleb128 -80
 2534 0e85 00       		.byte	0
 2535 0e86 00       		.byte	0
 2536 0e87 1B       		.uleb128 0x1b
 2537 0e88 63000000 		.4byte	0x63
 2538 0e8c 970E0000 		.4byte	0xe97
 2539 0e90 1C       		.uleb128 0x1c
 2540 0e91 E9040000 		.4byte	0x4e9
 2541 0e95 05       		.byte	0x5
 2542 0e96 00       		.byte	0
 2543 0e97 29       		.uleb128 0x29
 2544 0e98 64050000 		.4byte	.LASF202
 2545 0e9c 01       		.byte	0x1
 2546 0e9d 79       		.byte	0x79
 2547 0e9e 61030000 		.4byte	.LASF204
 2548 0ea2 00000000 		.4byte	.LFB274
 2549 0ea6 38000000 		.4byte	.LFE274-.LFB274
 2550 0eaa 01       		.uleb128 0x1
 2551 0eab 9C       		.byte	0x9c
 2552 0eac 5F0F0000 		.4byte	0xf5f
 2553 0eb0 21       		.uleb128 0x21
 2554 0eb1 AB090000 		.4byte	.LASF181
 2555 0eb5 01       		.byte	0x1
 2556 0eb6 79       		.byte	0x79
 2557 0eb7 B9000000 		.4byte	0xb9
 2558 0ebb D4020000 		.4byte	.LLST7
 2559 0ebf 21       		.uleb128 0x21
 2560 0ec0 7E0A0000 		.4byte	.LASF205
 2561 0ec4 01       		.byte	0x1
 2562 0ec5 79       		.byte	0x79
 2563 0ec6 B9000000 		.4byte	0xb9
 2564 0eca 01030000 		.4byte	.LLST8
 2565 0ece 22       		.uleb128 0x22
ARM GAS  /var/folders/m4/4md61f0s1_g0rzfghffqnxvr0000gn/T//cc22WqKP.s 			page 46


 2566 0ecf 746D6F00 		.ascii	"tmo\000"
 2567 0ed3 01       		.byte	0x1
 2568 0ed4 7B       		.byte	0x7b
 2569 0ed5 53010000 		.4byte	0x153
 2570 0ed9 28       		.byte	0x28
 2571 0eda 23       		.uleb128 0x23
 2572 0edb 1D080000 		.4byte	.LASF189
 2573 0edf 01       		.byte	0x1
 2574 0ee0 7C       		.byte	0x7c
 2575 0ee1 5F0F0000 		.4byte	0xf5f
 2576 0ee5 02       		.uleb128 0x2
 2577 0ee6 91       		.byte	0x91
 2578 0ee7 74       		.sleb128 -12
 2579 0ee8 23       		.uleb128 0x23
 2580 0ee9 9C0A0000 		.4byte	.LASF190
 2581 0eed 01       		.byte	0x1
 2582 0eee 7D       		.byte	0x7d
 2583 0eef CD0B0000 		.4byte	0xbcd
 2584 0ef3 02       		.uleb128 0x2
 2585 0ef4 91       		.byte	0x91
 2586 0ef5 70       		.sleb128 -16
 2587 0ef6 24       		.uleb128 0x24
 2588 0ef7 24030000 		.4byte	.LASF198
 2589 0efb 01       		.byte	0x1
 2590 0efc 81       		.byte	0x81
 2591 0efd B9000000 		.4byte	0xb9
 2592 0f01 25       		.uleb128 0x25
 2593 0f02 14000000 		.4byte	.LVL67
 2594 0f06 84110000 		.4byte	0x1184
 2595 0f0a 150F0000 		.4byte	0xf15
 2596 0f0e 26       		.uleb128 0x26
 2597 0f0f 01       		.uleb128 0x1
 2598 0f10 50       		.byte	0x50
 2599 0f11 02       		.uleb128 0x2
 2600 0f12 74       		.byte	0x74
 2601 0f13 00       		.sleb128 0
 2602 0f14 00       		.byte	0
 2603 0f15 25       		.uleb128 0x25
 2604 0f16 2A000000 		.4byte	.LVL68
 2605 0f1a 8F110000 		.4byte	0x118f
 2606 0f1e 4E0F0000 		.4byte	0xf4e
 2607 0f22 26       		.uleb128 0x26
 2608 0f23 01       		.uleb128 0x1
 2609 0f24 50       		.byte	0x50
 2610 0f25 02       		.uleb128 0x2
 2611 0f26 74       		.byte	0x74
 2612 0f27 00       		.sleb128 0
 2613 0f28 26       		.uleb128 0x26
 2614 0f29 01       		.uleb128 0x1
 2615 0f2a 51       		.byte	0x51
 2616 0f2b 02       		.uleb128 0x2
 2617 0f2c 08       		.byte	0x8
 2618 0f2d 28       		.byte	0x28
 2619 0f2e 26       		.uleb128 0x26
 2620 0f2f 01       		.uleb128 0x1
 2621 0f30 52       		.byte	0x52
 2622 0f31 02       		.uleb128 0x2
ARM GAS  /var/folders/m4/4md61f0s1_g0rzfghffqnxvr0000gn/T//cc22WqKP.s 			page 47


 2623 0f32 91       		.byte	0x91
 2624 0f33 74       		.sleb128 -12
 2625 0f34 26       		.uleb128 0x26
 2626 0f35 01       		.uleb128 0x1
 2627 0f36 53       		.byte	0x53
 2628 0f37 01       		.uleb128 0x1
 2629 0f38 32       		.byte	0x32
 2630 0f39 26       		.uleb128 0x26
 2631 0f3a 02       		.uleb128 0x2
 2632 0f3b 7D       		.byte	0x7d
 2633 0f3c 00       		.sleb128 0
 2634 0f3d 02       		.uleb128 0x2
 2635 0f3e 91       		.byte	0x91
 2636 0f3f 70       		.sleb128 -16
 2637 0f40 26       		.uleb128 0x26
 2638 0f41 02       		.uleb128 0x2
 2639 0f42 7D       		.byte	0x7d
 2640 0f43 04       		.sleb128 4
 2641 0f44 01       		.uleb128 0x1
 2642 0f45 30       		.byte	0x30
 2643 0f46 26       		.uleb128 0x26
 2644 0f47 02       		.uleb128 0x2
 2645 0f48 7D       		.byte	0x7d
 2646 0f49 08       		.sleb128 8
 2647 0f4a 02       		.uleb128 0x2
 2648 0f4b 08       		.byte	0x8
 2649 0f4c 28       		.byte	0x28
 2650 0f4d 00       		.byte	0
 2651 0f4e 27       		.uleb128 0x27
 2652 0f4f 30000000 		.4byte	.LVL69
 2653 0f53 9A110000 		.4byte	0x119a
 2654 0f57 26       		.uleb128 0x26
 2655 0f58 01       		.uleb128 0x1
 2656 0f59 50       		.byte	0x50
 2657 0f5a 02       		.uleb128 0x2
 2658 0f5b 74       		.byte	0x74
 2659 0f5c 00       		.sleb128 0
 2660 0f5d 00       		.byte	0
 2661 0f5e 00       		.byte	0
 2662 0f5f 1B       		.uleb128 0x1b
 2663 0f60 63000000 		.4byte	0x63
 2664 0f64 6F0F0000 		.4byte	0xf6f
 2665 0f68 1C       		.uleb128 0x1c
 2666 0f69 E9040000 		.4byte	0x4e9
 2667 0f6d 01       		.byte	0x1
 2668 0f6e 00       		.byte	0
 2669 0f6f 20       		.uleb128 0x20
 2670 0f70 540A0000 		.4byte	.LASF206
 2671 0f74 01       		.byte	0x1
 2672 0f75 0C       		.byte	0xc
 2673 0f76 AC050000 		.4byte	.LASF207
 2674 0f7a 1F090000 		.4byte	0x91f
 2675 0f7e 00000000 		.4byte	.LFB268
 2676 0f82 BC000000 		.4byte	.LFE268-.LFB268
 2677 0f86 01       		.uleb128 0x1
 2678 0f87 9C       		.byte	0x9c
 2679 0f88 4B110000 		.4byte	0x114b
ARM GAS  /var/folders/m4/4md61f0s1_g0rzfghffqnxvr0000gn/T//cc22WqKP.s 			page 48


 2680 0f8c 2D       		.uleb128 0x2d
 2681 0f8d 696400   		.ascii	"id\000"
 2682 0f90 01       		.byte	0x1
 2683 0f91 11       		.byte	0x11
 2684 0f92 B9000000 		.4byte	0xb9
 2685 0f96 22030000 		.4byte	.LLST9
 2686 0f9a 25       		.uleb128 0x25
 2687 0f9b 0A000000 		.4byte	.LVL70
 2688 0f9f A5110000 		.4byte	0x11a5
 2689 0fa3 B10F0000 		.4byte	0xfb1
 2690 0fa7 26       		.uleb128 0x26
 2691 0fa8 01       		.uleb128 0x1
 2692 0fa9 51       		.byte	0x51
 2693 0faa 05       		.uleb128 0x5
 2694 0fab 03       		.byte	0x3
 2695 0fac 00000000 		.4byte	.LANCHOR0
 2696 0fb0 00       		.byte	0
 2697 0fb1 25       		.uleb128 0x25
 2698 0fb2 16000000 		.4byte	.LVL71
 2699 0fb6 B0110000 		.4byte	0x11b0
 2700 0fba D50F0000 		.4byte	0xfd5
 2701 0fbe 26       		.uleb128 0x26
 2702 0fbf 01       		.uleb128 0x1
 2703 0fc0 50       		.byte	0x50
 2704 0fc1 05       		.uleb128 0x5
 2705 0fc2 0C       		.byte	0xc
 2706 0fc3 00040240 		.4byte	0x40020400
 2707 0fc7 26       		.uleb128 0x26
 2708 0fc8 01       		.uleb128 0x1
 2709 0fc9 51       		.byte	0x51
 2710 0fca 02       		.uleb128 0x2
 2711 0fcb 08       		.byte	0x8
 2712 0fcc 40       		.byte	0x40
 2713 0fcd 26       		.uleb128 0x26
 2714 0fce 01       		.uleb128 0x1
 2715 0fcf 52       		.byte	0x52
 2716 0fd0 03       		.uleb128 0x3
 2717 0fd1 0A       		.byte	0xa
 2718 0fd2 0602     		.2byte	0x206
 2719 0fd4 00       		.byte	0
 2720 0fd5 25       		.uleb128 0x25
 2721 0fd6 22000000 		.4byte	.LVL72
 2722 0fda B0110000 		.4byte	0x11b0
 2723 0fde F90F0000 		.4byte	0xff9
 2724 0fe2 26       		.uleb128 0x26
 2725 0fe3 01       		.uleb128 0x1
 2726 0fe4 50       		.byte	0x50
 2727 0fe5 05       		.uleb128 0x5
 2728 0fe6 0C       		.byte	0xc
 2729 0fe7 00040240 		.4byte	0x40020400
 2730 0feb 26       		.uleb128 0x26
 2731 0fec 01       		.uleb128 0x1
 2732 0fed 51       		.byte	0x51
 2733 0fee 02       		.uleb128 0x2
 2734 0fef 08       		.byte	0x8
 2735 0ff0 80       		.byte	0x80
 2736 0ff1 26       		.uleb128 0x26
ARM GAS  /var/folders/m4/4md61f0s1_g0rzfghffqnxvr0000gn/T//cc22WqKP.s 			page 49


 2737 0ff2 01       		.uleb128 0x1
 2738 0ff3 52       		.byte	0x52
 2739 0ff4 03       		.uleb128 0x3
 2740 0ff5 0A       		.byte	0xa
 2741 0ff6 0602     		.2byte	0x206
 2742 0ff8 00       		.byte	0
 2743 0ff9 25       		.uleb128 0x25
 2744 0ffa 28000000 		.4byte	.LVL73
 2745 0ffe 1A0C0000 		.4byte	0xc1a
 2746 1002 0C100000 		.4byte	0x100c
 2747 1006 26       		.uleb128 0x26
 2748 1007 01       		.uleb128 0x1
 2749 1008 50       		.byte	0x50
 2750 1009 01       		.uleb128 0x1
 2751 100a 30       		.byte	0x30
 2752 100b 00       		.byte	0
 2753 100c 25       		.uleb128 0x25
 2754 100d 34000000 		.4byte	.LVL75
 2755 1011 BC110000 		.4byte	0x11bc
 2756 1015 21100000 		.4byte	0x1021
 2757 1019 26       		.uleb128 0x26
 2758 101a 01       		.uleb128 0x1
 2759 101b 50       		.byte	0x50
 2760 101c 03       		.uleb128 0x3
 2761 101d 0A       		.byte	0xa
 2762 101e 1027     		.2byte	0x2710
 2763 1020 00       		.byte	0
 2764 1021 25       		.uleb128 0x25
 2765 1022 3A000000 		.4byte	.LVL76
 2766 1026 1A0C0000 		.4byte	0xc1a
 2767 102a 34100000 		.4byte	0x1034
 2768 102e 26       		.uleb128 0x26
 2769 102f 01       		.uleb128 0x1
 2770 1030 50       		.byte	0x50
 2771 1031 01       		.uleb128 0x1
 2772 1032 30       		.byte	0x30
 2773 1033 00       		.byte	0
 2774 1034 25       		.uleb128 0x25
 2775 1035 4A000000 		.4byte	.LVL80
 2776 1039 970E0000 		.4byte	0xe97
 2777 103d 4D100000 		.4byte	0x104d
 2778 1041 26       		.uleb128 0x26
 2779 1042 01       		.uleb128 0x1
 2780 1043 50       		.byte	0x50
 2781 1044 02       		.uleb128 0x2
 2782 1045 08       		.byte	0x8
 2783 1046 3D       		.byte	0x3d
 2784 1047 26       		.uleb128 0x26
 2785 1048 01       		.uleb128 0x1
 2786 1049 51       		.byte	0x51
 2787 104a 01       		.uleb128 0x1
 2788 104b 30       		.byte	0x30
 2789 104c 00       		.byte	0
 2790 104d 25       		.uleb128 0x25
 2791 104e 52000000 		.4byte	.LVL81
 2792 1052 BC110000 		.4byte	0x11bc
 2793 1056 62100000 		.4byte	0x1062
ARM GAS  /var/folders/m4/4md61f0s1_g0rzfghffqnxvr0000gn/T//cc22WqKP.s 			page 50


 2794 105a 26       		.uleb128 0x26
 2795 105b 01       		.uleb128 0x1
 2796 105c 50       		.byte	0x50
 2797 105d 03       		.uleb128 0x3
 2798 105e 0A       		.byte	0xa
 2799 105f 2C01     		.2byte	0x12c
 2800 1061 00       		.byte	0
 2801 1062 25       		.uleb128 0x25
 2802 1063 5A000000 		.4byte	.LVL82
 2803 1067 970E0000 		.4byte	0xe97
 2804 106b 7C100000 		.4byte	0x107c
 2805 106f 26       		.uleb128 0x26
 2806 1070 01       		.uleb128 0x1
 2807 1071 50       		.byte	0x50
 2808 1072 02       		.uleb128 0x2
 2809 1073 08       		.byte	0x8
 2810 1074 3F       		.byte	0x3f
 2811 1075 26       		.uleb128 0x26
 2812 1076 01       		.uleb128 0x1
 2813 1077 51       		.byte	0x51
 2814 1078 02       		.uleb128 0x2
 2815 1079 08       		.byte	0x8
 2816 107a 20       		.byte	0x20
 2817 107b 00       		.byte	0
 2818 107c 2F       		.uleb128 0x2f
 2819 107d 60000000 		.4byte	.LVL83
 2820 1081 BC110000 		.4byte	0x11bc
 2821 1085 25       		.uleb128 0x25
 2822 1086 66000000 		.4byte	.LVL84
 2823 108a 1A0C0000 		.4byte	0xc1a
 2824 108e 98100000 		.4byte	0x1098
 2825 1092 26       		.uleb128 0x26
 2826 1093 01       		.uleb128 0x1
 2827 1094 50       		.byte	0x50
 2828 1095 01       		.uleb128 0x1
 2829 1096 30       		.byte	0x30
 2830 1097 00       		.byte	0
 2831 1098 25       		.uleb128 0x25
 2832 1099 76000000 		.4byte	.LVL85
 2833 109d BC110000 		.4byte	0x11bc
 2834 10a1 AD100000 		.4byte	0x10ad
 2835 10a5 26       		.uleb128 0x26
 2836 10a6 01       		.uleb128 0x1
 2837 10a7 50       		.byte	0x50
 2838 10a8 03       		.uleb128 0x3
 2839 10a9 0A       		.byte	0xa
 2840 10aa F401     		.2byte	0x1f4
 2841 10ac 00       		.byte	0
 2842 10ad 25       		.uleb128 0x25
 2843 10ae 7E000000 		.4byte	.LVL86
 2844 10b2 970E0000 		.4byte	0xe97
 2845 10b6 C6100000 		.4byte	0x10c6
 2846 10ba 26       		.uleb128 0x26
 2847 10bb 01       		.uleb128 0x1
 2848 10bc 50       		.byte	0x50
 2849 10bd 02       		.uleb128 0x2
 2850 10be 08       		.byte	0x8
ARM GAS  /var/folders/m4/4md61f0s1_g0rzfghffqnxvr0000gn/T//cc22WqKP.s 			page 51


 2851 10bf 3E       		.byte	0x3e
 2852 10c0 26       		.uleb128 0x26
 2853 10c1 01       		.uleb128 0x1
 2854 10c2 51       		.byte	0x51
 2855 10c3 01       		.uleb128 0x1
 2856 10c4 30       		.byte	0x30
 2857 10c5 00       		.byte	0
 2858 10c6 25       		.uleb128 0x25
 2859 10c7 84000000 		.4byte	.LVL87
 2860 10cb BC110000 		.4byte	0x11bc
 2861 10cf DA100000 		.4byte	0x10da
 2862 10d3 26       		.uleb128 0x26
 2863 10d4 01       		.uleb128 0x1
 2864 10d5 50       		.byte	0x50
 2865 10d6 02       		.uleb128 0x2
 2866 10d7 08       		.byte	0x8
 2867 10d8 64       		.byte	0x64
 2868 10d9 00       		.byte	0
 2869 10da 25       		.uleb128 0x25
 2870 10db 8C000000 		.4byte	.LVL88
 2871 10df 970E0000 		.4byte	0xe97
 2872 10e3 F2100000 		.4byte	0x10f2
 2873 10e7 26       		.uleb128 0x26
 2874 10e8 01       		.uleb128 0x1
 2875 10e9 50       		.byte	0x50
 2876 10ea 01       		.uleb128 0x1
 2877 10eb 37       		.byte	0x37
 2878 10ec 26       		.uleb128 0x26
 2879 10ed 01       		.uleb128 0x1
 2880 10ee 51       		.byte	0x51
 2881 10ef 01       		.uleb128 0x1
 2882 10f0 30       		.byte	0x30
 2883 10f1 00       		.byte	0
 2884 10f2 25       		.uleb128 0x25
 2885 10f3 94000000 		.4byte	.LVL89
 2886 10f7 970E0000 		.4byte	0xe97
 2887 10fb 0C110000 		.4byte	0x110c
 2888 10ff 26       		.uleb128 0x26
 2889 1100 01       		.uleb128 0x1
 2890 1101 50       		.byte	0x50
 2891 1102 02       		.uleb128 0x2
 2892 1103 08       		.byte	0x8
 2893 1104 3F       		.byte	0x3f
 2894 1105 26       		.uleb128 0x26
 2895 1106 01       		.uleb128 0x1
 2896 1107 51       		.byte	0x51
 2897 1108 02       		.uleb128 0x2
 2898 1109 09       		.byte	0x9
 2899 110a 80       		.byte	0x80
 2900 110b 00       		.byte	0
 2901 110c 25       		.uleb128 0x25
 2902 110d 9A000000 		.4byte	.LVL90
 2903 1111 BC110000 		.4byte	0x11bc
 2904 1115 20110000 		.4byte	0x1120
 2905 1119 26       		.uleb128 0x26
 2906 111a 01       		.uleb128 0x1
 2907 111b 50       		.byte	0x50
ARM GAS  /var/folders/m4/4md61f0s1_g0rzfghffqnxvr0000gn/T//cc22WqKP.s 			page 52


 2908 111c 02       		.uleb128 0x2
 2909 111d 08       		.byte	0x8
 2910 111e 64       		.byte	0x64
 2911 111f 00       		.byte	0
 2912 1120 25       		.uleb128 0x25
 2913 1121 A2000000 		.4byte	.LVL91
 2914 1125 970E0000 		.4byte	0xe97
 2915 1129 39110000 		.4byte	0x1139
 2916 112d 26       		.uleb128 0x26
 2917 112e 01       		.uleb128 0x1
 2918 112f 50       		.byte	0x50
 2919 1130 02       		.uleb128 0x2
 2920 1131 08       		.byte	0x8
 2921 1132 3D       		.byte	0x3d
 2922 1133 26       		.uleb128 0x26
 2923 1134 01       		.uleb128 0x1
 2924 1135 51       		.byte	0x51
 2925 1136 01       		.uleb128 0x1
 2926 1137 3C       		.byte	0x3c
 2927 1138 00       		.byte	0
 2928 1139 27       		.uleb128 0x27
 2929 113a AA000000 		.4byte	.LVL92
 2930 113e BC110000 		.4byte	0x11bc
 2931 1142 26       		.uleb128 0x26
 2932 1143 01       		.uleb128 0x1
 2933 1144 50       		.byte	0x50
 2934 1145 03       		.uleb128 0x3
 2935 1146 0A       		.byte	0xa
 2936 1147 F401     		.2byte	0x1f4
 2937 1149 00       		.byte	0
 2938 114a 00       		.byte	0
 2939 114b 30       		.uleb128 0x30
 2940 114c BE070000 		.4byte	.LASF208
 2941 1150 14       		.byte	0x14
 2942 1151 FA06     		.2byte	0x6fa
 2943 1153 57110000 		.4byte	0x1157
 2944 1157 12       		.uleb128 0x12
 2945 1158 DA000000 		.4byte	0xda
 2946 115c 31       		.uleb128 0x31
 2947 115d 636800   		.ascii	"ch\000"
 2948 1160 07       		.byte	0x7
 2949 1161 0902     		.2byte	0x209
 2950 1163 82040000 		.4byte	0x482
 2951 1167 30       		.uleb128 0x30
 2952 1168 67040000 		.4byte	.LASF209
 2953 116c 12       		.byte	0x12
 2954 116d E001     		.2byte	0x1e0
 2955 116f 130B0000 		.4byte	0xb13
 2956 1173 23       		.uleb128 0x23
 2957 1174 06090000 		.4byte	.LASF210
 2958 1178 01       		.byte	0x1
 2959 1179 06       		.byte	0x6
 2960 117a C20B0000 		.4byte	0xbc2
 2961 117e 05       		.uleb128 0x5
 2962 117f 03       		.byte	0x3
 2963 1180 00000000 		.4byte	_ZL6i2ccfg
 2964 1184 32       		.uleb128 0x32
ARM GAS  /var/folders/m4/4md61f0s1_g0rzfghffqnxvr0000gn/T//cc22WqKP.s 			page 53


 2965 1185 37090000 		.4byte	.LASF211
 2966 1189 37090000 		.4byte	.LASF211
 2967 118d 11       		.byte	0x11
 2968 118e 9A       		.byte	0x9a
 2969 118f 32       		.uleb128 0x32
 2970 1190 91000000 		.4byte	.LASF212
 2971 1194 91000000 		.4byte	.LASF212
 2972 1198 11       		.byte	0x11
 2973 1199 90       		.byte	0x90
 2974 119a 32       		.uleb128 0x32
 2975 119b 56050000 		.4byte	.LASF213
 2976 119f 56050000 		.4byte	.LASF213
 2977 11a3 11       		.byte	0x11
 2978 11a4 9B       		.byte	0x9b
 2979 11a5 32       		.uleb128 0x32
 2980 11a6 D5040000 		.4byte	.LASF214
 2981 11aa D5040000 		.4byte	.LASF214
 2982 11ae 11       		.byte	0x11
 2983 11af 8D       		.byte	0x8d
 2984 11b0 33       		.uleb128 0x33
 2985 11b1 BE090000 		.4byte	.LASF215
 2986 11b5 BE090000 		.4byte	.LASF215
 2987 11b9 10       		.byte	0x10
 2988 11ba 2402     		.2byte	0x224
 2989 11bc 32       		.uleb128 0x32
 2990 11bd 78090000 		.4byte	.LASF216
 2991 11c1 78090000 		.4byte	.LASF216
 2992 11c5 15       		.byte	0x15
 2993 11c6 96       		.byte	0x96
 2994 11c7 00       		.byte	0
 2995              		.section	.debug_abbrev,"",%progbits
 2996              	.Ldebug_abbrev0:
 2997 0000 01       		.uleb128 0x1
 2998 0001 11       		.uleb128 0x11
 2999 0002 01       		.byte	0x1
 3000 0003 25       		.uleb128 0x25
 3001 0004 0E       		.uleb128 0xe
 3002 0005 13       		.uleb128 0x13
 3003 0006 0B       		.uleb128 0xb
 3004 0007 03       		.uleb128 0x3
 3005 0008 0E       		.uleb128 0xe
 3006 0009 1B       		.uleb128 0x1b
 3007 000a 0E       		.uleb128 0xe
 3008 000b 55       		.uleb128 0x55
 3009 000c 17       		.uleb128 0x17
 3010 000d 11       		.uleb128 0x11
 3011 000e 01       		.uleb128 0x1
 3012 000f 10       		.uleb128 0x10
 3013 0010 17       		.uleb128 0x17
 3014 0011 00       		.byte	0
 3015 0012 00       		.byte	0
 3016 0013 02       		.uleb128 0x2
 3017 0014 24       		.uleb128 0x24
 3018 0015 00       		.byte	0
 3019 0016 0B       		.uleb128 0xb
 3020 0017 0B       		.uleb128 0xb
 3021 0018 3E       		.uleb128 0x3e
ARM GAS  /var/folders/m4/4md61f0s1_g0rzfghffqnxvr0000gn/T//cc22WqKP.s 			page 54


 3022 0019 0B       		.uleb128 0xb
 3023 001a 03       		.uleb128 0x3
 3024 001b 08       		.uleb128 0x8
 3025 001c 00       		.byte	0
 3026 001d 00       		.byte	0
 3027 001e 03       		.uleb128 0x3
 3028 001f 16       		.uleb128 0x16
 3029 0020 00       		.byte	0
 3030 0021 03       		.uleb128 0x3
 3031 0022 0E       		.uleb128 0xe
 3032 0023 3A       		.uleb128 0x3a
 3033 0024 0B       		.uleb128 0xb
 3034 0025 3B       		.uleb128 0x3b
 3035 0026 0B       		.uleb128 0xb
 3036 0027 49       		.uleb128 0x49
 3037 0028 13       		.uleb128 0x13
 3038 0029 00       		.byte	0
 3039 002a 00       		.byte	0
 3040 002b 04       		.uleb128 0x4
 3041 002c 24       		.uleb128 0x24
 3042 002d 00       		.byte	0
 3043 002e 0B       		.uleb128 0xb
 3044 002f 0B       		.uleb128 0xb
 3045 0030 3E       		.uleb128 0x3e
 3046 0031 0B       		.uleb128 0xb
 3047 0032 03       		.uleb128 0x3
 3048 0033 0E       		.uleb128 0xe
 3049 0034 00       		.byte	0
 3050 0035 00       		.byte	0
 3051 0036 05       		.uleb128 0x5
 3052 0037 3B       		.uleb128 0x3b
 3053 0038 00       		.byte	0
 3054 0039 03       		.uleb128 0x3
 3055 003a 0E       		.uleb128 0xe
 3056 003b 00       		.byte	0
 3057 003c 00       		.byte	0
 3058 003d 06       		.uleb128 0x6
 3059 003e 13       		.uleb128 0x13
 3060 003f 01       		.byte	0x1
 3061 0040 03       		.uleb128 0x3
 3062 0041 0E       		.uleb128 0xe
 3063 0042 0B       		.uleb128 0xb
 3064 0043 0B       		.uleb128 0xb
 3065 0044 3A       		.uleb128 0x3a
 3066 0045 0B       		.uleb128 0xb
 3067 0046 3B       		.uleb128 0x3b
 3068 0047 0B       		.uleb128 0xb
 3069 0048 01       		.uleb128 0x1
 3070 0049 13       		.uleb128 0x13
 3071 004a 00       		.byte	0
 3072 004b 00       		.byte	0
 3073 004c 07       		.uleb128 0x7
 3074 004d 17       		.uleb128 0x17
 3075 004e 01       		.byte	0x1
 3076 004f 0B       		.uleb128 0xb
 3077 0050 0B       		.uleb128 0xb
 3078 0051 3A       		.uleb128 0x3a
ARM GAS  /var/folders/m4/4md61f0s1_g0rzfghffqnxvr0000gn/T//cc22WqKP.s 			page 55


 3079 0052 0B       		.uleb128 0xb
 3080 0053 3B       		.uleb128 0x3b
 3081 0054 0B       		.uleb128 0xb
 3082 0055 01       		.uleb128 0x1
 3083 0056 13       		.uleb128 0x13
 3084 0057 00       		.byte	0
 3085 0058 00       		.byte	0
 3086 0059 08       		.uleb128 0x8
 3087 005a 0D       		.uleb128 0xd
 3088 005b 00       		.byte	0
 3089 005c 03       		.uleb128 0x3
 3090 005d 0E       		.uleb128 0xe
 3091 005e 3A       		.uleb128 0x3a
 3092 005f 0B       		.uleb128 0xb
 3093 0060 3B       		.uleb128 0x3b
 3094 0061 05       		.uleb128 0x5
 3095 0062 49       		.uleb128 0x49
 3096 0063 13       		.uleb128 0x13
 3097 0064 00       		.byte	0
 3098 0065 00       		.byte	0
 3099 0066 09       		.uleb128 0x9
 3100 0067 0D       		.uleb128 0xd
 3101 0068 00       		.byte	0
 3102 0069 03       		.uleb128 0x3
 3103 006a 0E       		.uleb128 0xe
 3104 006b 3A       		.uleb128 0x3a
 3105 006c 0B       		.uleb128 0xb
 3106 006d 3B       		.uleb128 0x3b
 3107 006e 0B       		.uleb128 0xb
 3108 006f 49       		.uleb128 0x49
 3109 0070 13       		.uleb128 0x13
 3110 0071 38       		.uleb128 0x38
 3111 0072 0B       		.uleb128 0xb
 3112 0073 00       		.byte	0
 3113 0074 00       		.byte	0
 3114 0075 0A       		.uleb128 0xa
 3115 0076 0D       		.uleb128 0xd
 3116 0077 00       		.byte	0
 3117 0078 03       		.uleb128 0x3
 3118 0079 08       		.uleb128 0x8
 3119 007a 3A       		.uleb128 0x3a
 3120 007b 0B       		.uleb128 0xb
 3121 007c 3B       		.uleb128 0x3b
 3122 007d 05       		.uleb128 0x5
 3123 007e 49       		.uleb128 0x49
 3124 007f 13       		.uleb128 0x13
 3125 0080 38       		.uleb128 0x38
 3126 0081 0B       		.uleb128 0xb
 3127 0082 00       		.byte	0
 3128 0083 00       		.byte	0
 3129 0084 0B       		.uleb128 0xb
 3130 0085 0D       		.uleb128 0xd
 3131 0086 00       		.byte	0
 3132 0087 03       		.uleb128 0x3
 3133 0088 0E       		.uleb128 0xe
 3134 0089 3A       		.uleb128 0x3a
 3135 008a 0B       		.uleb128 0xb
ARM GAS  /var/folders/m4/4md61f0s1_g0rzfghffqnxvr0000gn/T//cc22WqKP.s 			page 56


 3136 008b 3B       		.uleb128 0x3b
 3137 008c 05       		.uleb128 0x5
 3138 008d 49       		.uleb128 0x49
 3139 008e 13       		.uleb128 0x13
 3140 008f 38       		.uleb128 0x38
 3141 0090 0B       		.uleb128 0xb
 3142 0091 00       		.byte	0
 3143 0092 00       		.byte	0
 3144 0093 0C       		.uleb128 0xc
 3145 0094 0F       		.uleb128 0xf
 3146 0095 00       		.byte	0
 3147 0096 0B       		.uleb128 0xb
 3148 0097 0B       		.uleb128 0xb
 3149 0098 49       		.uleb128 0x49
 3150 0099 13       		.uleb128 0x13
 3151 009a 00       		.byte	0
 3152 009b 00       		.byte	0
 3153 009c 0D       		.uleb128 0xd
 3154 009d 13       		.uleb128 0x13
 3155 009e 01       		.byte	0x1
 3156 009f 03       		.uleb128 0x3
 3157 00a0 0E       		.uleb128 0xe
 3158 00a1 0B       		.uleb128 0xb
 3159 00a2 0B       		.uleb128 0xb
 3160 00a3 3A       		.uleb128 0x3a
 3161 00a4 0B       		.uleb128 0xb
 3162 00a5 3B       		.uleb128 0x3b
 3163 00a6 05       		.uleb128 0x5
 3164 00a7 01       		.uleb128 0x1
 3165 00a8 13       		.uleb128 0x13
 3166 00a9 00       		.byte	0
 3167 00aa 00       		.byte	0
 3168 00ab 0E       		.uleb128 0xe
 3169 00ac 15       		.uleb128 0x15
 3170 00ad 01       		.byte	0x1
 3171 00ae 01       		.uleb128 0x1
 3172 00af 13       		.uleb128 0x13
 3173 00b0 00       		.byte	0
 3174 00b1 00       		.byte	0
 3175 00b2 0F       		.uleb128 0xf
 3176 00b3 05       		.uleb128 0x5
 3177 00b4 00       		.byte	0
 3178 00b5 49       		.uleb128 0x49
 3179 00b6 13       		.uleb128 0x13
 3180 00b7 00       		.byte	0
 3181 00b8 00       		.byte	0
 3182 00b9 10       		.uleb128 0x10
 3183 00ba 0F       		.uleb128 0xf
 3184 00bb 00       		.byte	0
 3185 00bc 0B       		.uleb128 0xb
 3186 00bd 0B       		.uleb128 0xb
 3187 00be 00       		.byte	0
 3188 00bf 00       		.byte	0
 3189 00c0 11       		.uleb128 0x11
 3190 00c1 13       		.uleb128 0x13
 3191 00c2 01       		.byte	0x1
 3192 00c3 03       		.uleb128 0x3
ARM GAS  /var/folders/m4/4md61f0s1_g0rzfghffqnxvr0000gn/T//cc22WqKP.s 			page 57


 3193 00c4 0E       		.uleb128 0xe
 3194 00c5 0B       		.uleb128 0xb
 3195 00c6 05       		.uleb128 0x5
 3196 00c7 3A       		.uleb128 0x3a
 3197 00c8 0B       		.uleb128 0xb
 3198 00c9 3B       		.uleb128 0x3b
 3199 00ca 05       		.uleb128 0x5
 3200 00cb 01       		.uleb128 0x1
 3201 00cc 13       		.uleb128 0x13
 3202 00cd 00       		.byte	0
 3203 00ce 00       		.byte	0
 3204 00cf 12       		.uleb128 0x12
 3205 00d0 35       		.uleb128 0x35
 3206 00d1 00       		.byte	0
 3207 00d2 49       		.uleb128 0x49
 3208 00d3 13       		.uleb128 0x13
 3209 00d4 00       		.byte	0
 3210 00d5 00       		.byte	0
 3211 00d6 13       		.uleb128 0x13
 3212 00d7 13       		.uleb128 0x13
 3213 00d8 01       		.byte	0x1
 3214 00d9 0B       		.uleb128 0xb
 3215 00da 0B       		.uleb128 0xb
 3216 00db 3A       		.uleb128 0x3a
 3217 00dc 0B       		.uleb128 0xb
 3218 00dd 3B       		.uleb128 0x3b
 3219 00de 05       		.uleb128 0x5
 3220 00df 6E       		.uleb128 0x6e
 3221 00e0 0E       		.uleb128 0xe
 3222 00e1 01       		.uleb128 0x1
 3223 00e2 13       		.uleb128 0x13
 3224 00e3 00       		.byte	0
 3225 00e4 00       		.byte	0
 3226 00e5 14       		.uleb128 0x14
 3227 00e6 16       		.uleb128 0x16
 3228 00e7 00       		.byte	0
 3229 00e8 03       		.uleb128 0x3
 3230 00e9 0E       		.uleb128 0xe
 3231 00ea 3A       		.uleb128 0x3a
 3232 00eb 0B       		.uleb128 0xb
 3233 00ec 3B       		.uleb128 0x3b
 3234 00ed 05       		.uleb128 0x5
 3235 00ee 49       		.uleb128 0x49
 3236 00ef 13       		.uleb128 0x13
 3237 00f0 00       		.byte	0
 3238 00f1 00       		.byte	0
 3239 00f2 15       		.uleb128 0x15
 3240 00f3 04       		.uleb128 0x4
 3241 00f4 01       		.byte	0x1
 3242 00f5 0B       		.uleb128 0xb
 3243 00f6 0B       		.uleb128 0xb
 3244 00f7 49       		.uleb128 0x49
 3245 00f8 13       		.uleb128 0x13
 3246 00f9 3A       		.uleb128 0x3a
 3247 00fa 0B       		.uleb128 0xb
 3248 00fb 3B       		.uleb128 0x3b
 3249 00fc 0B       		.uleb128 0xb
ARM GAS  /var/folders/m4/4md61f0s1_g0rzfghffqnxvr0000gn/T//cc22WqKP.s 			page 58


 3250 00fd 6E       		.uleb128 0x6e
 3251 00fe 0E       		.uleb128 0xe
 3252 00ff 01       		.uleb128 0x1
 3253 0100 13       		.uleb128 0x13
 3254 0101 00       		.byte	0
 3255 0102 00       		.byte	0
 3256 0103 16       		.uleb128 0x16
 3257 0104 28       		.uleb128 0x28
 3258 0105 00       		.byte	0
 3259 0106 03       		.uleb128 0x3
 3260 0107 0E       		.uleb128 0xe
 3261 0108 1C       		.uleb128 0x1c
 3262 0109 0B       		.uleb128 0xb
 3263 010a 00       		.byte	0
 3264 010b 00       		.byte	0
 3265 010c 17       		.uleb128 0x17
 3266 010d 28       		.uleb128 0x28
 3267 010e 00       		.byte	0
 3268 010f 03       		.uleb128 0x3
 3269 0110 08       		.uleb128 0x8
 3270 0111 1C       		.uleb128 0x1c
 3271 0112 0B       		.uleb128 0xb
 3272 0113 00       		.byte	0
 3273 0114 00       		.byte	0
 3274 0115 18       		.uleb128 0x18
 3275 0116 0D       		.uleb128 0xd
 3276 0117 00       		.byte	0
 3277 0118 03       		.uleb128 0x3
 3278 0119 08       		.uleb128 0x8
 3279 011a 3A       		.uleb128 0x3a
 3280 011b 0B       		.uleb128 0xb
 3281 011c 3B       		.uleb128 0x3b
 3282 011d 0B       		.uleb128 0xb
 3283 011e 49       		.uleb128 0x49
 3284 011f 13       		.uleb128 0x13
 3285 0120 38       		.uleb128 0x38
 3286 0121 0B       		.uleb128 0xb
 3287 0122 00       		.byte	0
 3288 0123 00       		.byte	0
 3289 0124 19       		.uleb128 0x19
 3290 0125 13       		.uleb128 0x13
 3291 0126 01       		.byte	0x1
 3292 0127 0B       		.uleb128 0xb
 3293 0128 0B       		.uleb128 0xb
 3294 0129 3A       		.uleb128 0x3a
 3295 012a 0B       		.uleb128 0xb
 3296 012b 3B       		.uleb128 0x3b
 3297 012c 0B       		.uleb128 0xb
 3298 012d 6E       		.uleb128 0x6e
 3299 012e 0E       		.uleb128 0xe
 3300 012f 01       		.uleb128 0x1
 3301 0130 13       		.uleb128 0x13
 3302 0131 00       		.byte	0
 3303 0132 00       		.byte	0
 3304 0133 1A       		.uleb128 0x1a
 3305 0134 26       		.uleb128 0x26
 3306 0135 00       		.byte	0
ARM GAS  /var/folders/m4/4md61f0s1_g0rzfghffqnxvr0000gn/T//cc22WqKP.s 			page 59


 3307 0136 49       		.uleb128 0x49
 3308 0137 13       		.uleb128 0x13
 3309 0138 00       		.byte	0
 3310 0139 00       		.byte	0
 3311 013a 1B       		.uleb128 0x1b
 3312 013b 01       		.uleb128 0x1
 3313 013c 01       		.byte	0x1
 3314 013d 49       		.uleb128 0x49
 3315 013e 13       		.uleb128 0x13
 3316 013f 01       		.uleb128 0x1
 3317 0140 13       		.uleb128 0x13
 3318 0141 00       		.byte	0
 3319 0142 00       		.byte	0
 3320 0143 1C       		.uleb128 0x1c
 3321 0144 21       		.uleb128 0x21
 3322 0145 00       		.byte	0
 3323 0146 49       		.uleb128 0x49
 3324 0147 13       		.uleb128 0x13
 3325 0148 2F       		.uleb128 0x2f
 3326 0149 0B       		.uleb128 0xb
 3327 014a 00       		.byte	0
 3328 014b 00       		.byte	0
 3329 014c 1D       		.uleb128 0x1d
 3330 014d 13       		.uleb128 0x13
 3331 014e 01       		.byte	0x1
 3332 014f 0B       		.uleb128 0xb
 3333 0150 0B       		.uleb128 0xb
 3334 0151 3A       		.uleb128 0x3a
 3335 0152 0B       		.uleb128 0xb
 3336 0153 3B       		.uleb128 0x3b
 3337 0154 0B       		.uleb128 0xb
 3338 0155 01       		.uleb128 0x1
 3339 0156 13       		.uleb128 0x13
 3340 0157 00       		.byte	0
 3341 0158 00       		.byte	0
 3342 0159 1E       		.uleb128 0x1e
 3343 015a 0D       		.uleb128 0xd
 3344 015b 00       		.byte	0
 3345 015c 03       		.uleb128 0x3
 3346 015d 08       		.uleb128 0x8
 3347 015e 3A       		.uleb128 0x3a
 3348 015f 0B       		.uleb128 0xb
 3349 0160 3B       		.uleb128 0x3b
 3350 0161 0B       		.uleb128 0xb
 3351 0162 49       		.uleb128 0x49
 3352 0163 13       		.uleb128 0x13
 3353 0164 00       		.byte	0
 3354 0165 00       		.byte	0
 3355 0166 1F       		.uleb128 0x1f
 3356 0167 04       		.uleb128 0x4
 3357 0168 01       		.byte	0x1
 3358 0169 0B       		.uleb128 0xb
 3359 016a 0B       		.uleb128 0xb
 3360 016b 49       		.uleb128 0x49
 3361 016c 13       		.uleb128 0x13
 3362 016d 3A       		.uleb128 0x3a
 3363 016e 0B       		.uleb128 0xb
ARM GAS  /var/folders/m4/4md61f0s1_g0rzfghffqnxvr0000gn/T//cc22WqKP.s 			page 60


 3364 016f 3B       		.uleb128 0x3b
 3365 0170 05       		.uleb128 0x5
 3366 0171 6E       		.uleb128 0x6e
 3367 0172 0E       		.uleb128 0xe
 3368 0173 01       		.uleb128 0x1
 3369 0174 13       		.uleb128 0x13
 3370 0175 00       		.byte	0
 3371 0176 00       		.byte	0
 3372 0177 20       		.uleb128 0x20
 3373 0178 2E       		.uleb128 0x2e
 3374 0179 01       		.byte	0x1
 3375 017a 3F       		.uleb128 0x3f
 3376 017b 19       		.uleb128 0x19
 3377 017c 03       		.uleb128 0x3
 3378 017d 0E       		.uleb128 0xe
 3379 017e 3A       		.uleb128 0x3a
 3380 017f 0B       		.uleb128 0xb
 3381 0180 3B       		.uleb128 0x3b
 3382 0181 0B       		.uleb128 0xb
 3383 0182 6E       		.uleb128 0x6e
 3384 0183 0E       		.uleb128 0xe
 3385 0184 49       		.uleb128 0x49
 3386 0185 13       		.uleb128 0x13
 3387 0186 11       		.uleb128 0x11
 3388 0187 01       		.uleb128 0x1
 3389 0188 12       		.uleb128 0x12
 3390 0189 06       		.uleb128 0x6
 3391 018a 40       		.uleb128 0x40
 3392 018b 18       		.uleb128 0x18
 3393 018c 9742     		.uleb128 0x2117
 3394 018e 19       		.uleb128 0x19
 3395 018f 01       		.uleb128 0x1
 3396 0190 13       		.uleb128 0x13
 3397 0191 00       		.byte	0
 3398 0192 00       		.byte	0
 3399 0193 21       		.uleb128 0x21
 3400 0194 05       		.uleb128 0x5
 3401 0195 00       		.byte	0
 3402 0196 03       		.uleb128 0x3
 3403 0197 0E       		.uleb128 0xe
 3404 0198 3A       		.uleb128 0x3a
 3405 0199 0B       		.uleb128 0xb
 3406 019a 3B       		.uleb128 0x3b
 3407 019b 0B       		.uleb128 0xb
 3408 019c 49       		.uleb128 0x49
 3409 019d 13       		.uleb128 0x13
 3410 019e 02       		.uleb128 0x2
 3411 019f 17       		.uleb128 0x17
 3412 01a0 00       		.byte	0
 3413 01a1 00       		.byte	0
 3414 01a2 22       		.uleb128 0x22
 3415 01a3 34       		.uleb128 0x34
 3416 01a4 00       		.byte	0
 3417 01a5 03       		.uleb128 0x3
 3418 01a6 08       		.uleb128 0x8
 3419 01a7 3A       		.uleb128 0x3a
 3420 01a8 0B       		.uleb128 0xb
ARM GAS  /var/folders/m4/4md61f0s1_g0rzfghffqnxvr0000gn/T//cc22WqKP.s 			page 61


 3421 01a9 3B       		.uleb128 0x3b
 3422 01aa 0B       		.uleb128 0xb
 3423 01ab 49       		.uleb128 0x49
 3424 01ac 13       		.uleb128 0x13
 3425 01ad 1C       		.uleb128 0x1c
 3426 01ae 0B       		.uleb128 0xb
 3427 01af 00       		.byte	0
 3428 01b0 00       		.byte	0
 3429 01b1 23       		.uleb128 0x23
 3430 01b2 34       		.uleb128 0x34
 3431 01b3 00       		.byte	0
 3432 01b4 03       		.uleb128 0x3
 3433 01b5 0E       		.uleb128 0xe
 3434 01b6 3A       		.uleb128 0x3a
 3435 01b7 0B       		.uleb128 0xb
 3436 01b8 3B       		.uleb128 0x3b
 3437 01b9 0B       		.uleb128 0xb
 3438 01ba 49       		.uleb128 0x49
 3439 01bb 13       		.uleb128 0x13
 3440 01bc 02       		.uleb128 0x2
 3441 01bd 18       		.uleb128 0x18
 3442 01be 00       		.byte	0
 3443 01bf 00       		.byte	0
 3444 01c0 24       		.uleb128 0x24
 3445 01c1 34       		.uleb128 0x34
 3446 01c2 00       		.byte	0
 3447 01c3 03       		.uleb128 0x3
 3448 01c4 0E       		.uleb128 0xe
 3449 01c5 3A       		.uleb128 0x3a
 3450 01c6 0B       		.uleb128 0xb
 3451 01c7 3B       		.uleb128 0x3b
 3452 01c8 0B       		.uleb128 0xb
 3453 01c9 49       		.uleb128 0x49
 3454 01ca 13       		.uleb128 0x13
 3455 01cb 00       		.byte	0
 3456 01cc 00       		.byte	0
 3457 01cd 25       		.uleb128 0x25
 3458 01ce 898201   		.uleb128 0x4109
 3459 01d1 01       		.byte	0x1
 3460 01d2 11       		.uleb128 0x11
 3461 01d3 01       		.uleb128 0x1
 3462 01d4 31       		.uleb128 0x31
 3463 01d5 13       		.uleb128 0x13
 3464 01d6 01       		.uleb128 0x1
 3465 01d7 13       		.uleb128 0x13
 3466 01d8 00       		.byte	0
 3467 01d9 00       		.byte	0
 3468 01da 26       		.uleb128 0x26
 3469 01db 8A8201   		.uleb128 0x410a
 3470 01de 00       		.byte	0
 3471 01df 02       		.uleb128 0x2
 3472 01e0 18       		.uleb128 0x18
 3473 01e1 9142     		.uleb128 0x2111
 3474 01e3 18       		.uleb128 0x18
 3475 01e4 00       		.byte	0
 3476 01e5 00       		.byte	0
 3477 01e6 27       		.uleb128 0x27
ARM GAS  /var/folders/m4/4md61f0s1_g0rzfghffqnxvr0000gn/T//cc22WqKP.s 			page 62


 3478 01e7 898201   		.uleb128 0x4109
 3479 01ea 01       		.byte	0x1
 3480 01eb 11       		.uleb128 0x11
 3481 01ec 01       		.uleb128 0x1
 3482 01ed 31       		.uleb128 0x31
 3483 01ee 13       		.uleb128 0x13
 3484 01ef 00       		.byte	0
 3485 01f0 00       		.byte	0
 3486 01f1 28       		.uleb128 0x28
 3487 01f2 898201   		.uleb128 0x4109
 3488 01f5 01       		.byte	0x1
 3489 01f6 11       		.uleb128 0x11
 3490 01f7 01       		.uleb128 0x1
 3491 01f8 9542     		.uleb128 0x2115
 3492 01fa 19       		.uleb128 0x19
 3493 01fb 31       		.uleb128 0x31
 3494 01fc 13       		.uleb128 0x13
 3495 01fd 00       		.byte	0
 3496 01fe 00       		.byte	0
 3497 01ff 29       		.uleb128 0x29
 3498 0200 2E       		.uleb128 0x2e
 3499 0201 01       		.byte	0x1
 3500 0202 3F       		.uleb128 0x3f
 3501 0203 19       		.uleb128 0x19
 3502 0204 03       		.uleb128 0x3
 3503 0205 0E       		.uleb128 0xe
 3504 0206 3A       		.uleb128 0x3a
 3505 0207 0B       		.uleb128 0xb
 3506 0208 3B       		.uleb128 0x3b
 3507 0209 0B       		.uleb128 0xb
 3508 020a 6E       		.uleb128 0x6e
 3509 020b 0E       		.uleb128 0xe
 3510 020c 11       		.uleb128 0x11
 3511 020d 01       		.uleb128 0x1
 3512 020e 12       		.uleb128 0x12
 3513 020f 06       		.uleb128 0x6
 3514 0210 40       		.uleb128 0x40
 3515 0211 18       		.uleb128 0x18
 3516 0212 9742     		.uleb128 0x2117
 3517 0214 19       		.uleb128 0x19
 3518 0215 01       		.uleb128 0x1
 3519 0216 13       		.uleb128 0x13
 3520 0217 00       		.byte	0
 3521 0218 00       		.byte	0
 3522 0219 2A       		.uleb128 0x2a
 3523 021a 05       		.uleb128 0x5
 3524 021b 00       		.byte	0
 3525 021c 03       		.uleb128 0x3
 3526 021d 08       		.uleb128 0x8
 3527 021e 3A       		.uleb128 0x3a
 3528 021f 0B       		.uleb128 0xb
 3529 0220 3B       		.uleb128 0x3b
 3530 0221 0B       		.uleb128 0xb
 3531 0222 49       		.uleb128 0x49
 3532 0223 13       		.uleb128 0x13
 3533 0224 02       		.uleb128 0x2
 3534 0225 17       		.uleb128 0x17
ARM GAS  /var/folders/m4/4md61f0s1_g0rzfghffqnxvr0000gn/T//cc22WqKP.s 			page 63


 3535 0226 00       		.byte	0
 3536 0227 00       		.byte	0
 3537 0228 2B       		.uleb128 0x2b
 3538 0229 2E       		.uleb128 0x2e
 3539 022a 01       		.byte	0x1
 3540 022b 3F       		.uleb128 0x3f
 3541 022c 19       		.uleb128 0x19
 3542 022d 03       		.uleb128 0x3
 3543 022e 0E       		.uleb128 0xe
 3544 022f 3A       		.uleb128 0x3a
 3545 0230 0B       		.uleb128 0xb
 3546 0231 3B       		.uleb128 0x3b
 3547 0232 0B       		.uleb128 0xb
 3548 0233 6E       		.uleb128 0x6e
 3549 0234 0E       		.uleb128 0xe
 3550 0235 49       		.uleb128 0x49
 3551 0236 13       		.uleb128 0x13
 3552 0237 11       		.uleb128 0x11
 3553 0238 01       		.uleb128 0x1
 3554 0239 12       		.uleb128 0x12
 3555 023a 06       		.uleb128 0x6
 3556 023b 40       		.uleb128 0x40
 3557 023c 18       		.uleb128 0x18
 3558 023d 9642     		.uleb128 0x2116
 3559 023f 19       		.uleb128 0x19
 3560 0240 01       		.uleb128 0x1
 3561 0241 13       		.uleb128 0x13
 3562 0242 00       		.byte	0
 3563 0243 00       		.byte	0
 3564 0244 2C       		.uleb128 0x2c
 3565 0245 34       		.uleb128 0x34
 3566 0246 00       		.byte	0
 3567 0247 03       		.uleb128 0x3
 3568 0248 0E       		.uleb128 0xe
 3569 0249 3A       		.uleb128 0x3a
 3570 024a 0B       		.uleb128 0xb
 3571 024b 3B       		.uleb128 0x3b
 3572 024c 0B       		.uleb128 0xb
 3573 024d 49       		.uleb128 0x49
 3574 024e 13       		.uleb128 0x13
 3575 024f 02       		.uleb128 0x2
 3576 0250 17       		.uleb128 0x17
 3577 0251 00       		.byte	0
 3578 0252 00       		.byte	0
 3579 0253 2D       		.uleb128 0x2d
 3580 0254 34       		.uleb128 0x34
 3581 0255 00       		.byte	0
 3582 0256 03       		.uleb128 0x3
 3583 0257 08       		.uleb128 0x8
 3584 0258 3A       		.uleb128 0x3a
 3585 0259 0B       		.uleb128 0xb
 3586 025a 3B       		.uleb128 0x3b
 3587 025b 0B       		.uleb128 0xb
 3588 025c 49       		.uleb128 0x49
 3589 025d 13       		.uleb128 0x13
 3590 025e 02       		.uleb128 0x2
 3591 025f 17       		.uleb128 0x17
ARM GAS  /var/folders/m4/4md61f0s1_g0rzfghffqnxvr0000gn/T//cc22WqKP.s 			page 64


 3592 0260 00       		.byte	0
 3593 0261 00       		.byte	0
 3594 0262 2E       		.uleb128 0x2e
 3595 0263 34       		.uleb128 0x34
 3596 0264 00       		.byte	0
 3597 0265 03       		.uleb128 0x3
 3598 0266 08       		.uleb128 0x8
 3599 0267 3A       		.uleb128 0x3a
 3600 0268 0B       		.uleb128 0xb
 3601 0269 3B       		.uleb128 0x3b
 3602 026a 0B       		.uleb128 0xb
 3603 026b 49       		.uleb128 0x49
 3604 026c 13       		.uleb128 0x13
 3605 026d 02       		.uleb128 0x2
 3606 026e 18       		.uleb128 0x18
 3607 026f 00       		.byte	0
 3608 0270 00       		.byte	0
 3609 0271 2F       		.uleb128 0x2f
 3610 0272 898201   		.uleb128 0x4109
 3611 0275 00       		.byte	0
 3612 0276 11       		.uleb128 0x11
 3613 0277 01       		.uleb128 0x1
 3614 0278 31       		.uleb128 0x31
 3615 0279 13       		.uleb128 0x13
 3616 027a 00       		.byte	0
 3617 027b 00       		.byte	0
 3618 027c 30       		.uleb128 0x30
 3619 027d 34       		.uleb128 0x34
 3620 027e 00       		.byte	0
 3621 027f 03       		.uleb128 0x3
 3622 0280 0E       		.uleb128 0xe
 3623 0281 3A       		.uleb128 0x3a
 3624 0282 0B       		.uleb128 0xb
 3625 0283 3B       		.uleb128 0x3b
 3626 0284 05       		.uleb128 0x5
 3627 0285 49       		.uleb128 0x49
 3628 0286 13       		.uleb128 0x13
 3629 0287 3F       		.uleb128 0x3f
 3630 0288 19       		.uleb128 0x19
 3631 0289 3C       		.uleb128 0x3c
 3632 028a 19       		.uleb128 0x19
 3633 028b 00       		.byte	0
 3634 028c 00       		.byte	0
 3635 028d 31       		.uleb128 0x31
 3636 028e 34       		.uleb128 0x34
 3637 028f 00       		.byte	0
 3638 0290 03       		.uleb128 0x3
 3639 0291 08       		.uleb128 0x8
 3640 0292 3A       		.uleb128 0x3a
 3641 0293 0B       		.uleb128 0xb
 3642 0294 3B       		.uleb128 0x3b
 3643 0295 05       		.uleb128 0x5
 3644 0296 49       		.uleb128 0x49
 3645 0297 13       		.uleb128 0x13
 3646 0298 3F       		.uleb128 0x3f
 3647 0299 19       		.uleb128 0x19
 3648 029a 3C       		.uleb128 0x3c
ARM GAS  /var/folders/m4/4md61f0s1_g0rzfghffqnxvr0000gn/T//cc22WqKP.s 			page 65


 3649 029b 19       		.uleb128 0x19
 3650 029c 00       		.byte	0
 3651 029d 00       		.byte	0
 3652 029e 32       		.uleb128 0x32
 3653 029f 2E       		.uleb128 0x2e
 3654 02a0 00       		.byte	0
 3655 02a1 3F       		.uleb128 0x3f
 3656 02a2 19       		.uleb128 0x19
 3657 02a3 3C       		.uleb128 0x3c
 3658 02a4 19       		.uleb128 0x19
 3659 02a5 6E       		.uleb128 0x6e
 3660 02a6 0E       		.uleb128 0xe
 3661 02a7 03       		.uleb128 0x3
 3662 02a8 0E       		.uleb128 0xe
 3663 02a9 3A       		.uleb128 0x3a
 3664 02aa 0B       		.uleb128 0xb
 3665 02ab 3B       		.uleb128 0x3b
 3666 02ac 0B       		.uleb128 0xb
 3667 02ad 00       		.byte	0
 3668 02ae 00       		.byte	0
 3669 02af 33       		.uleb128 0x33
 3670 02b0 2E       		.uleb128 0x2e
 3671 02b1 00       		.byte	0
 3672 02b2 3F       		.uleb128 0x3f
 3673 02b3 19       		.uleb128 0x19
 3674 02b4 3C       		.uleb128 0x3c
 3675 02b5 19       		.uleb128 0x19
 3676 02b6 6E       		.uleb128 0x6e
 3677 02b7 0E       		.uleb128 0xe
 3678 02b8 03       		.uleb128 0x3
 3679 02b9 0E       		.uleb128 0xe
 3680 02ba 3A       		.uleb128 0x3a
 3681 02bb 0B       		.uleb128 0xb
 3682 02bc 3B       		.uleb128 0x3b
 3683 02bd 05       		.uleb128 0x5
 3684 02be 00       		.byte	0
 3685 02bf 00       		.byte	0
 3686 02c0 00       		.byte	0
 3687              		.section	.debug_loc,"",%progbits
 3688              	.Ldebug_loc0:
 3689              	.LLST0:
 3690 0000 00000000 		.4byte	.LVL0
 3691 0004 10000000 		.4byte	.LVL1
 3692 0008 0100     		.2byte	0x1
 3693 000a 50       		.byte	0x50
 3694 000b 10000000 		.4byte	.LVL1
 3695 000f 13000000 		.4byte	.LVL2-1
 3696 0013 0200     		.2byte	0x2
 3697 0015 75       		.byte	0x75
 3698 0016 00       		.sleb128 0
 3699 0017 13000000 		.4byte	.LVL2-1
 3700 001b 38000000 		.4byte	.LFE272
 3701 001f 0400     		.2byte	0x4
 3702 0021 F3       		.byte	0xf3
 3703 0022 01       		.uleb128 0x1
 3704 0023 50       		.byte	0x50
 3705 0024 9F       		.byte	0x9f
ARM GAS  /var/folders/m4/4md61f0s1_g0rzfghffqnxvr0000gn/T//cc22WqKP.s 			page 66


 3706 0025 00000000 		.4byte	0
 3707 0029 00000000 		.4byte	0
 3708              	.LLST1:
 3709 002d 00000000 		.4byte	.LVL7
 3710 0031 10000000 		.4byte	.LVL8
 3711 0035 0100     		.2byte	0x1
 3712 0037 50       		.byte	0x50
 3713 0038 10000000 		.4byte	.LVL8
 3714 003c 15000000 		.4byte	.LVL9-1
 3715 0040 0200     		.2byte	0x2
 3716 0042 75       		.byte	0x75
 3717 0043 00       		.sleb128 0
 3718 0044 15000000 		.4byte	.LVL9-1
 3719 0048 38000000 		.4byte	.LFE273
 3720 004c 0400     		.2byte	0x4
 3721 004e F3       		.byte	0xf3
 3722 004f 01       		.uleb128 0x1
 3723 0050 50       		.byte	0x50
 3724 0051 9F       		.byte	0x9f
 3725 0052 00000000 		.4byte	0
 3726 0056 00000000 		.4byte	0
 3727              	.LLST2:
 3728 005a 00000000 		.4byte	.LVL7
 3729 005e 15000000 		.4byte	.LVL9-1
 3730 0062 0100     		.2byte	0x1
 3731 0064 51       		.byte	0x51
 3732 0065 15000000 		.4byte	.LVL9-1
 3733 0069 38000000 		.4byte	.LFE273
 3734 006d 0400     		.2byte	0x4
 3735 006f F3       		.byte	0xf3
 3736 0070 01       		.uleb128 0x1
 3737 0071 51       		.byte	0x51
 3738 0072 9F       		.byte	0x9f
 3739 0073 00000000 		.4byte	0
 3740 0077 00000000 		.4byte	0
 3741              	.LLST3:
 3742 007b 00000000 		.4byte	.LVL7
 3743 007f 15000000 		.4byte	.LVL9-1
 3744 0083 0100     		.2byte	0x1
 3745 0085 52       		.byte	0x52
 3746 0086 15000000 		.4byte	.LVL9-1
 3747 008a 32000000 		.4byte	.LVL12
 3748 008e 0100     		.2byte	0x1
 3749 0090 56       		.byte	0x56
 3750 0091 32000000 		.4byte	.LVL12
 3751 0095 38000000 		.4byte	.LFE273
 3752 0099 0400     		.2byte	0x4
 3753 009b F3       		.byte	0xf3
 3754 009c 01       		.uleb128 0x1
 3755 009d 52       		.byte	0x52
 3756 009e 9F       		.byte	0x9f
 3757 009f 00000000 		.4byte	0
 3758 00a3 00000000 		.4byte	0
 3759              	.LLST4:
 3760 00a7 00000000 		.4byte	.LVL13
 3761 00ab 19000000 		.4byte	.LVL14-1
 3762 00af 0100     		.2byte	0x1
ARM GAS  /var/folders/m4/4md61f0s1_g0rzfghffqnxvr0000gn/T//cc22WqKP.s 			page 67


 3763 00b1 50       		.byte	0x50
 3764 00b2 19000000 		.4byte	.LVL14-1
 3765 00b6 7C010000 		.4byte	.LFE269
 3766 00ba 0400     		.2byte	0x4
 3767 00bc F3       		.byte	0xf3
 3768 00bd 01       		.uleb128 0x1
 3769 00be 50       		.byte	0x50
 3770 00bf 9F       		.byte	0x9f
 3771 00c0 00000000 		.4byte	0
 3772 00c4 00000000 		.4byte	0
 3773              	.LLST5:
 3774 00c8 84000000 		.4byte	.LVL20
 3775 00cc 86000000 		.4byte	.LVL21
 3776 00d0 0800     		.2byte	0x8
 3777 00d2 50       		.byte	0x50
 3778 00d3 93       		.byte	0x93
 3779 00d4 04       		.uleb128 0x4
 3780 00d5 51       		.byte	0x51
 3781 00d6 93       		.byte	0x93
 3782 00d7 04       		.uleb128 0x4
 3783 00d8 93       		.byte	0x93
 3784 00d9 10       		.uleb128 0x10
 3785 00da 86000000 		.4byte	.LVL21
 3786 00de 96000000 		.4byte	.LVL24
 3787 00e2 0A00     		.2byte	0xa
 3788 00e4 90       		.byte	0x90
 3789 00e5 54       		.uleb128 0x54
 3790 00e6 93       		.byte	0x93
 3791 00e7 04       		.uleb128 0x4
 3792 00e8 90       		.byte	0x90
 3793 00e9 55       		.uleb128 0x55
 3794 00ea 93       		.byte	0x93
 3795 00eb 04       		.uleb128 0x4
 3796 00ec 93       		.byte	0x93
 3797 00ed 10       		.uleb128 0x10
 3798 00ee 96000000 		.4byte	.LVL24
 3799 00f2 98000000 		.4byte	.LVL25
 3800 00f6 1000     		.2byte	0x10
 3801 00f8 90       		.byte	0x90
 3802 00f9 54       		.uleb128 0x54
 3803 00fa 93       		.byte	0x93
 3804 00fb 04       		.uleb128 0x4
 3805 00fc 90       		.byte	0x90
 3806 00fd 55       		.uleb128 0x55
 3807 00fe 93       		.byte	0x93
 3808 00ff 04       		.uleb128 0x4
 3809 0100 50       		.byte	0x50
 3810 0101 93       		.byte	0x93
 3811 0102 04       		.uleb128 0x4
 3812 0103 51       		.byte	0x51
 3813 0104 93       		.byte	0x93
 3814 0105 04       		.uleb128 0x4
 3815 0106 93       		.byte	0x93
 3816 0107 08       		.uleb128 0x8
 3817 0108 98000000 		.4byte	.LVL25
 3818 010c A8000000 		.4byte	.LVL28
 3819 0110 1200     		.2byte	0x12
ARM GAS  /var/folders/m4/4md61f0s1_g0rzfghffqnxvr0000gn/T//cc22WqKP.s 			page 68


 3820 0112 90       		.byte	0x90
 3821 0113 54       		.uleb128 0x54
 3822 0114 93       		.byte	0x93
 3823 0115 04       		.uleb128 0x4
 3824 0116 90       		.byte	0x90
 3825 0117 55       		.uleb128 0x55
 3826 0118 93       		.byte	0x93
 3827 0119 04       		.uleb128 0x4
 3828 011a 90       		.byte	0x90
 3829 011b 52       		.uleb128 0x52
 3830 011c 93       		.byte	0x93
 3831 011d 04       		.uleb128 0x4
 3832 011e 90       		.byte	0x90
 3833 011f 53       		.uleb128 0x53
 3834 0120 93       		.byte	0x93
 3835 0121 04       		.uleb128 0x4
 3836 0122 93       		.byte	0x93
 3837 0123 08       		.uleb128 0x8
 3838 0124 DA000000 		.4byte	.LVL32
 3839 0128 DC000000 		.4byte	.LVL33
 3840 012c 0800     		.2byte	0x8
 3841 012e 93       		.byte	0x93
 3842 012f 10       		.uleb128 0x10
 3843 0130 50       		.byte	0x50
 3844 0131 93       		.byte	0x93
 3845 0132 04       		.uleb128 0x4
 3846 0133 51       		.byte	0x51
 3847 0134 93       		.byte	0x93
 3848 0135 04       		.uleb128 0x4
 3849 0136 DC000000 		.4byte	.LVL33
 3850 013a EC000000 		.4byte	.LVL36
 3851 013e 0A00     		.2byte	0xa
 3852 0140 93       		.byte	0x93
 3853 0141 10       		.uleb128 0x10
 3854 0142 90       		.byte	0x90
 3855 0143 50       		.uleb128 0x50
 3856 0144 93       		.byte	0x93
 3857 0145 04       		.uleb128 0x4
 3858 0146 90       		.byte	0x90
 3859 0147 51       		.uleb128 0x51
 3860 0148 93       		.byte	0x93
 3861 0149 04       		.uleb128 0x4
 3862 014a EC000000 		.4byte	.LVL36
 3863 014e EE000000 		.4byte	.LVL37
 3864 0152 1000     		.2byte	0x10
 3865 0154 93       		.byte	0x93
 3866 0155 08       		.uleb128 0x8
 3867 0156 50       		.byte	0x50
 3868 0157 93       		.byte	0x93
 3869 0158 04       		.uleb128 0x4
 3870 0159 51       		.byte	0x51
 3871 015a 93       		.byte	0x93
 3872 015b 04       		.uleb128 0x4
 3873 015c 90       		.byte	0x90
 3874 015d 50       		.uleb128 0x50
 3875 015e 93       		.byte	0x93
 3876 015f 04       		.uleb128 0x4
ARM GAS  /var/folders/m4/4md61f0s1_g0rzfghffqnxvr0000gn/T//cc22WqKP.s 			page 69


 3877 0160 90       		.byte	0x90
 3878 0161 51       		.uleb128 0x51
 3879 0162 93       		.byte	0x93
 3880 0163 04       		.uleb128 0x4
 3881 0164 EE000000 		.4byte	.LVL37
 3882 0168 FE000000 		.4byte	.LVL40
 3883 016c 1200     		.2byte	0x12
 3884 016e 93       		.byte	0x93
 3885 016f 08       		.uleb128 0x8
 3886 0170 90       		.byte	0x90
 3887 0171 52       		.uleb128 0x52
 3888 0172 93       		.byte	0x93
 3889 0173 04       		.uleb128 0x4
 3890 0174 90       		.byte	0x90
 3891 0175 53       		.uleb128 0x53
 3892 0176 93       		.byte	0x93
 3893 0177 04       		.uleb128 0x4
 3894 0178 90       		.byte	0x90
 3895 0179 50       		.uleb128 0x50
 3896 017a 93       		.byte	0x93
 3897 017b 04       		.uleb128 0x4
 3898 017c 90       		.byte	0x90
 3899 017d 51       		.uleb128 0x51
 3900 017e 93       		.byte	0x93
 3901 017f 04       		.uleb128 0x4
 3902 0180 FE000000 		.4byte	.LVL40
 3903 0184 00010000 		.4byte	.LVL41
 3904 0188 1600     		.2byte	0x16
 3905 018a 50       		.byte	0x50
 3906 018b 93       		.byte	0x93
 3907 018c 04       		.uleb128 0x4
 3908 018d 51       		.byte	0x51
 3909 018e 93       		.byte	0x93
 3910 018f 04       		.uleb128 0x4
 3911 0190 90       		.byte	0x90
 3912 0191 52       		.uleb128 0x52
 3913 0192 93       		.byte	0x93
 3914 0193 04       		.uleb128 0x4
 3915 0194 90       		.byte	0x90
 3916 0195 53       		.uleb128 0x53
 3917 0196 93       		.byte	0x93
 3918 0197 04       		.uleb128 0x4
 3919 0198 90       		.byte	0x90
 3920 0199 50       		.uleb128 0x50
 3921 019a 93       		.byte	0x93
 3922 019b 04       		.uleb128 0x4
 3923 019c 90       		.byte	0x90
 3924 019d 51       		.uleb128 0x51
 3925 019e 93       		.byte	0x93
 3926 019f 04       		.uleb128 0x4
 3927 01a0 12010000 		.4byte	.LVL44
 3928 01a4 14010000 		.4byte	.LVL45
 3929 01a8 0800     		.2byte	0x8
 3930 01aa 50       		.byte	0x50
 3931 01ab 93       		.byte	0x93
 3932 01ac 04       		.uleb128 0x4
 3933 01ad 51       		.byte	0x51
ARM GAS  /var/folders/m4/4md61f0s1_g0rzfghffqnxvr0000gn/T//cc22WqKP.s 			page 70


 3934 01ae 93       		.byte	0x93
 3935 01af 04       		.uleb128 0x4
 3936 01b0 93       		.byte	0x93
 3937 01b1 10       		.uleb128 0x10
 3938 01b2 14010000 		.4byte	.LVL45
 3939 01b6 24010000 		.4byte	.LVL48
 3940 01ba 0A00     		.2byte	0xa
 3941 01bc 90       		.byte	0x90
 3942 01bd 54       		.uleb128 0x54
 3943 01be 93       		.byte	0x93
 3944 01bf 04       		.uleb128 0x4
 3945 01c0 90       		.byte	0x90
 3946 01c1 55       		.uleb128 0x55
 3947 01c2 93       		.byte	0x93
 3948 01c3 04       		.uleb128 0x4
 3949 01c4 93       		.byte	0x93
 3950 01c5 10       		.uleb128 0x10
 3951 01c6 24010000 		.4byte	.LVL48
 3952 01ca 26010000 		.4byte	.LVL49
 3953 01ce 1000     		.2byte	0x10
 3954 01d0 90       		.byte	0x90
 3955 01d1 54       		.uleb128 0x54
 3956 01d2 93       		.byte	0x93
 3957 01d3 04       		.uleb128 0x4
 3958 01d4 90       		.byte	0x90
 3959 01d5 55       		.uleb128 0x55
 3960 01d6 93       		.byte	0x93
 3961 01d7 04       		.uleb128 0x4
 3962 01d8 50       		.byte	0x50
 3963 01d9 93       		.byte	0x93
 3964 01da 04       		.uleb128 0x4
 3965 01db 51       		.byte	0x51
 3966 01dc 93       		.byte	0x93
 3967 01dd 04       		.uleb128 0x4
 3968 01de 93       		.byte	0x93
 3969 01df 08       		.uleb128 0x8
 3970 01e0 26010000 		.4byte	.LVL49
 3971 01e4 36010000 		.4byte	.LVL52
 3972 01e8 1200     		.2byte	0x12
 3973 01ea 90       		.byte	0x90
 3974 01eb 54       		.uleb128 0x54
 3975 01ec 93       		.byte	0x93
 3976 01ed 04       		.uleb128 0x4
 3977 01ee 90       		.byte	0x90
 3978 01ef 55       		.uleb128 0x55
 3979 01f0 93       		.byte	0x93
 3980 01f1 04       		.uleb128 0x4
 3981 01f2 90       		.byte	0x90
 3982 01f3 52       		.uleb128 0x52
 3983 01f4 93       		.byte	0x93
 3984 01f5 04       		.uleb128 0x4
 3985 01f6 90       		.byte	0x90
 3986 01f7 53       		.uleb128 0x53
 3987 01f8 93       		.byte	0x93
 3988 01f9 04       		.uleb128 0x4
 3989 01fa 93       		.byte	0x93
 3990 01fb 08       		.uleb128 0x8
ARM GAS  /var/folders/m4/4md61f0s1_g0rzfghffqnxvr0000gn/T//cc22WqKP.s 			page 71


 3991 01fc 36010000 		.4byte	.LVL52
 3992 0200 38010000 		.4byte	.LVL53
 3993 0204 1600     		.2byte	0x16
 3994 0206 90       		.byte	0x90
 3995 0207 54       		.uleb128 0x54
 3996 0208 93       		.byte	0x93
 3997 0209 04       		.uleb128 0x4
 3998 020a 90       		.byte	0x90
 3999 020b 55       		.uleb128 0x55
 4000 020c 93       		.byte	0x93
 4001 020d 04       		.uleb128 0x4
 4002 020e 90       		.byte	0x90
 4003 020f 52       		.uleb128 0x52
 4004 0210 93       		.byte	0x93
 4005 0211 04       		.uleb128 0x4
 4006 0212 90       		.byte	0x90
 4007 0213 53       		.uleb128 0x53
 4008 0214 93       		.byte	0x93
 4009 0215 04       		.uleb128 0x4
 4010 0216 50       		.byte	0x50
 4011 0217 93       		.byte	0x93
 4012 0218 04       		.uleb128 0x4
 4013 0219 51       		.byte	0x51
 4014 021a 93       		.byte	0x93
 4015 021b 04       		.uleb128 0x4
 4016 021c 4A010000 		.4byte	.LVL56
 4017 0220 4C010000 		.4byte	.LVL57
 4018 0224 0800     		.2byte	0x8
 4019 0226 50       		.byte	0x50
 4020 0227 93       		.byte	0x93
 4021 0228 04       		.uleb128 0x4
 4022 0229 51       		.byte	0x51
 4023 022a 93       		.byte	0x93
 4024 022b 04       		.uleb128 0x4
 4025 022c 93       		.byte	0x93
 4026 022d 10       		.uleb128 0x10
 4027 022e 4C010000 		.4byte	.LVL57
 4028 0232 5C010000 		.4byte	.LVL60
 4029 0236 0A00     		.2byte	0xa
 4030 0238 90       		.byte	0x90
 4031 0239 54       		.uleb128 0x54
 4032 023a 93       		.byte	0x93
 4033 023b 04       		.uleb128 0x4
 4034 023c 90       		.byte	0x90
 4035 023d 55       		.uleb128 0x55
 4036 023e 93       		.byte	0x93
 4037 023f 04       		.uleb128 0x4
 4038 0240 93       		.byte	0x93
 4039 0241 10       		.uleb128 0x10
 4040 0242 5C010000 		.4byte	.LVL60
 4041 0246 5E010000 		.4byte	.LVL61
 4042 024a 1000     		.2byte	0x10
 4043 024c 90       		.byte	0x90
 4044 024d 54       		.uleb128 0x54
 4045 024e 93       		.byte	0x93
 4046 024f 04       		.uleb128 0x4
 4047 0250 90       		.byte	0x90
ARM GAS  /var/folders/m4/4md61f0s1_g0rzfghffqnxvr0000gn/T//cc22WqKP.s 			page 72


 4048 0251 55       		.uleb128 0x55
 4049 0252 93       		.byte	0x93
 4050 0253 04       		.uleb128 0x4
 4051 0254 50       		.byte	0x50
 4052 0255 93       		.byte	0x93
 4053 0256 04       		.uleb128 0x4
 4054 0257 51       		.byte	0x51
 4055 0258 93       		.byte	0x93
 4056 0259 04       		.uleb128 0x4
 4057 025a 93       		.byte	0x93
 4058 025b 08       		.uleb128 0x8
 4059 025c 5E010000 		.4byte	.LVL61
 4060 0260 6E010000 		.4byte	.LVL64
 4061 0264 1200     		.2byte	0x12
 4062 0266 90       		.byte	0x90
 4063 0267 54       		.uleb128 0x54
 4064 0268 93       		.byte	0x93
 4065 0269 04       		.uleb128 0x4
 4066 026a 90       		.byte	0x90
 4067 026b 55       		.uleb128 0x55
 4068 026c 93       		.byte	0x93
 4069 026d 04       		.uleb128 0x4
 4070 026e 90       		.byte	0x90
 4071 026f 52       		.uleb128 0x52
 4072 0270 93       		.byte	0x93
 4073 0271 04       		.uleb128 0x4
 4074 0272 90       		.byte	0x90
 4075 0273 53       		.uleb128 0x53
 4076 0274 93       		.byte	0x93
 4077 0275 04       		.uleb128 0x4
 4078 0276 93       		.byte	0x93
 4079 0277 08       		.uleb128 0x8
 4080 0278 6E010000 		.4byte	.LVL64
 4081 027c 7C010000 		.4byte	.LFE269
 4082 0280 1600     		.2byte	0x16
 4083 0282 90       		.byte	0x90
 4084 0283 54       		.uleb128 0x54
 4085 0284 93       		.byte	0x93
 4086 0285 04       		.uleb128 0x4
 4087 0286 90       		.byte	0x90
 4088 0287 55       		.uleb128 0x55
 4089 0288 93       		.byte	0x93
 4090 0289 04       		.uleb128 0x4
 4091 028a 90       		.byte	0x90
 4092 028b 52       		.uleb128 0x52
 4093 028c 93       		.byte	0x93
 4094 028d 04       		.uleb128 0x4
 4095 028e 90       		.byte	0x90
 4096 028f 53       		.uleb128 0x53
 4097 0290 93       		.byte	0x93
 4098 0291 04       		.uleb128 0x4
 4099 0292 50       		.byte	0x50
 4100 0293 93       		.byte	0x93
 4101 0294 04       		.uleb128 0x4
 4102 0295 51       		.byte	0x51
 4103 0296 93       		.byte	0x93
 4104 0297 04       		.uleb128 0x4
ARM GAS  /var/folders/m4/4md61f0s1_g0rzfghffqnxvr0000gn/T//cc22WqKP.s 			page 73


 4105 0298 00000000 		.4byte	0
 4106 029c 00000000 		.4byte	0
 4107              	.LLST6:
 4108 02a0 3A000000 		.4byte	.LVL15
 4109 02a4 77000000 		.4byte	.LVL18-1
 4110 02a8 0100     		.2byte	0x1
 4111 02aa 50       		.byte	0x50
 4112 02ab C8000000 		.4byte	.LVL29
 4113 02af CD000000 		.4byte	.LVL30-1
 4114 02b3 0100     		.2byte	0x1
 4115 02b5 50       		.byte	0x50
 4116 02b6 00010000 		.4byte	.LVL41
 4117 02ba 05010000 		.4byte	.LVL42-1
 4118 02be 0100     		.2byte	0x1
 4119 02c0 50       		.byte	0x50
 4120 02c1 38010000 		.4byte	.LVL53
 4121 02c5 3D010000 		.4byte	.LVL54-1
 4122 02c9 0100     		.2byte	0x1
 4123 02cb 50       		.byte	0x50
 4124 02cc 00000000 		.4byte	0
 4125 02d0 00000000 		.4byte	0
 4126              	.LLST7:
 4127 02d4 00000000 		.4byte	.LVL65
 4128 02d8 0C000000 		.4byte	.LVL66
 4129 02dc 0100     		.2byte	0x1
 4130 02de 50       		.byte	0x50
 4131 02df 0C000000 		.4byte	.LVL66
 4132 02e3 13000000 		.4byte	.LVL67-1
 4133 02e7 0200     		.2byte	0x2
 4134 02e9 91       		.byte	0x91
 4135 02ea 74       		.sleb128 -12
 4136 02eb 13000000 		.4byte	.LVL67-1
 4137 02ef 38000000 		.4byte	.LFE274
 4138 02f3 0400     		.2byte	0x4
 4139 02f5 F3       		.byte	0xf3
 4140 02f6 01       		.uleb128 0x1
 4141 02f7 50       		.byte	0x50
 4142 02f8 9F       		.byte	0x9f
 4143 02f9 00000000 		.4byte	0
 4144 02fd 00000000 		.4byte	0
 4145              	.LLST8:
 4146 0301 00000000 		.4byte	.LVL65
 4147 0305 13000000 		.4byte	.LVL67-1
 4148 0309 0100     		.2byte	0x1
 4149 030b 51       		.byte	0x51
 4150 030c 13000000 		.4byte	.LVL67-1
 4151 0310 38000000 		.4byte	.LFE274
 4152 0314 0400     		.2byte	0x4
 4153 0316 F3       		.byte	0xf3
 4154 0317 01       		.uleb128 0x1
 4155 0318 51       		.byte	0x51
 4156 0319 9F       		.byte	0x9f
 4157 031a 00000000 		.4byte	0
 4158 031e 00000000 		.4byte	0
 4159              	.LLST9:
 4160 0322 28000000 		.4byte	.LVL73
 4161 0326 30000000 		.4byte	.LVL74
ARM GAS  /var/folders/m4/4md61f0s1_g0rzfghffqnxvr0000gn/T//cc22WqKP.s 			page 74


 4162 032a 0100     		.2byte	0x1
 4163 032c 50       		.byte	0x50
 4164 032d 3A000000 		.4byte	.LVL76
 4165 0331 40000000 		.4byte	.LVL77
 4166 0335 0100     		.2byte	0x1
 4167 0337 50       		.byte	0x50
 4168 0338 42000000 		.4byte	.LVL78
 4169 033c 46000000 		.4byte	.LVL79
 4170 0340 0100     		.2byte	0x1
 4171 0342 50       		.byte	0x50
 4172 0343 00000000 		.4byte	0
 4173 0347 00000000 		.4byte	0
 4174              		.section	.debug_aranges,"",%progbits
 4175 0000 4C000000 		.4byte	0x4c
 4176 0004 0200     		.2byte	0x2
 4177 0006 00000000 		.4byte	.Ldebug_info0
 4178 000a 04       		.byte	0x4
 4179 000b 00       		.byte	0
 4180 000c 0000     		.2byte	0
 4181 000e 0000     		.2byte	0
 4182 0010 00000000 		.4byte	.LFB272
 4183 0014 38000000 		.4byte	.LFE272-.LFB272
 4184 0018 00000000 		.4byte	.LFB270
 4185 001c 06000000 		.4byte	.LFE270-.LFB270
 4186 0020 00000000 		.4byte	.LFB271
 4187 0024 06000000 		.4byte	.LFE271-.LFB271
 4188 0028 00000000 		.4byte	.LFB273
 4189 002c 38000000 		.4byte	.LFE273-.LFB273
 4190 0030 00000000 		.4byte	.LFB269
 4191 0034 7C010000 		.4byte	.LFE269-.LFB269
 4192 0038 00000000 		.4byte	.LFB274
 4193 003c 38000000 		.4byte	.LFE274-.LFB274
 4194 0040 00000000 		.4byte	.LFB268
 4195 0044 BC000000 		.4byte	.LFE268-.LFB268
 4196 0048 00000000 		.4byte	0
 4197 004c 00000000 		.4byte	0
 4198              		.section	.debug_ranges,"",%progbits
 4199              	.Ldebug_ranges0:
 4200 0000 00000000 		.4byte	.LFB272
 4201 0004 38000000 		.4byte	.LFE272
 4202 0008 00000000 		.4byte	.LFB270
 4203 000c 06000000 		.4byte	.LFE270
 4204 0010 00000000 		.4byte	.LFB271
 4205 0014 06000000 		.4byte	.LFE271
 4206 0018 00000000 		.4byte	.LFB273
 4207 001c 38000000 		.4byte	.LFE273
 4208 0020 00000000 		.4byte	.LFB269
 4209 0024 7C010000 		.4byte	.LFE269
 4210 0028 00000000 		.4byte	.LFB274
 4211 002c 38000000 		.4byte	.LFE274
 4212 0030 00000000 		.4byte	.LFB268
 4213 0034 BC000000 		.4byte	.LFE268
 4214 0038 00000000 		.4byte	0
 4215 003c 00000000 		.4byte	0
 4216              		.section	.debug_line,"",%progbits
 4217              	.Ldebug_line0:
 4218 0000 DA040000 		.section	.debug_str,"MS",%progbits,1
ARM GAS  /var/folders/m4/4md61f0s1_g0rzfghffqnxvr0000gn/T//cc22WqKP.s 			page 75


 4218      02000304 
 4218      00000201 
 4218      FB0E0D00 
 4218      01010101 
 4219              	.LASF61:
 4220 0000 63685F74 		.ascii	"ch_threads_list\000"
 4220      68726561 
 4220      64735F6C 
 4220      69737400 
 4221              	.LASF129:
 4222 0010 31387374 		.ascii	"18stm32_dma_stream_t\000"
 4222      6D33325F 
 4222      646D615F 
 4222      73747265 
 4222      616D5F74 
 4223              	.LASF99:
 4224 0025 4F415231 		.ascii	"OAR1\000"
 4224      00
 4225              	.LASF37:
 4226 002a 77746D74 		.ascii	"wtmtxp\000"
 4226      787000
 4227              	.LASF119:
 4228 0031 746D5F63 		.ascii	"tm_calibration_t\000"
 4228      616C6962 
 4228      72617469 
 4228      6F6E5F74 
 4228      00
 4229              	.LASF50:
 4230 0042 705F7469 		.ascii	"p_time\000"
 4230      6D6500
 4231              	.LASF144:
 4232 0049 42535252 		.ascii	"BSRR\000"
 4232      00
 4233              	.LASF127:
 4234 004e 63686172 		.ascii	"char\000"
 4234      00
 4235              	.LASF115:
 4236 0053 72656761 		.ascii	"regarm_t\000"
 4236      726D5F74 
 4236      00
 4237              	.LASF41:
 4238 005c 705F7072 		.ascii	"p_prio\000"
 4238      696F00
 4239              	.LASF184:
 4240 0063 646D6172 		.ascii	"dmarx\000"
 4240      7800
 4241              	.LASF197:
 4242 0069 62756666 		.ascii	"buffer\000"
 4242      657200
 4243              	.LASF121:
 4244 0070 735F7175 		.ascii	"s_queue\000"
 4244      65756500 
 4245              	.LASF82:
 4246 0078 76745F73 		.ascii	"vt_systime\000"
 4246      79737469 
 4246      6D6500
 4247              	.LASF155:
ARM GAS  /var/folders/m4/4md61f0s1_g0rzfghffqnxvr0000gn/T//cc22WqKP.s 			page 76


 4248 0083 4932435F 		.ascii	"I2C_ACTIVE_RX\000"
 4248      41435449 
 4248      56455F52 
 4248      5800
 4249              	.LASF212:
 4250 0091 6932634D 		.ascii	"i2cMasterTransmitTimeout\000"
 4250      61737465 
 4250      72547261 
 4250      6E736D69 
 4250      7454696D 
 4251              	.LASF218:
 4252 00aa 626E6F30 		.ascii	"bno055.cpp\000"
 4252      35352E63 
 4252      707000
 4253              	.LASF175:
 4254 00b5 49324344 		.ascii	"I2CDriver\000"
 4254      72697665 
 4254      7200
 4255              	.LASF110:
 4256 00bf 46756E63 		.ascii	"FunctionalState\000"
 4256      74696F6E 
 4256      616C5374 
 4256      61746500 
 4257              	.LASF59:
 4258 00cf 74687265 		.ascii	"threads_list_t\000"
 4258      6164735F 
 4258      6C697374 
 4258      5F7400
 4259              	.LASF51:
 4260 00de 705F7761 		.ascii	"p_waiting\000"
 4260      6974696E 
 4260      6700
 4261              	.LASF114:
 4262 00e8 4572726F 		.ascii	"ErrorStatus\000"
 4262      72537461 
 4262      74757300 
 4263              	.LASF11:
 4264 00f4 5F5F696E 		.ascii	"__int32_t\000"
 4264      7433325F 
 4264      7400
 4265              	.LASF34:
 4266 00fe 77746F62 		.ascii	"wtobjp\000"
 4266      6A7000
 4267              	.LASF89:
 4268 0105 76746C69 		.ascii	"vtlist\000"
 4268      737400
 4269              	.LASF193:
 4270 010c 5F5A3136 		.ascii	"_Z16bno055_read_addrh\000"
 4270      626E6F30 
 4270      35355F72 
 4270      6561645F 
 4270      61646472 
 4271              	.LASF105:
 4272 0122 466C6167 		.ascii	"FlagStatus\000"
 4272      53746174 
 4272      757300
 4273              	.LASF65:
ARM GAS  /var/folders/m4/4md61f0s1_g0rzfghffqnxvr0000gn/T//cc22WqKP.s 			page 77


 4274 012d 63685F72 		.ascii	"ch_ready_list\000"
 4274      65616479 
 4274      5F6C6973 
 4274      7400
 4275              	.LASF170:
 4276 013b 39493243 		.ascii	"9I2CConfig\000"
 4276      436F6E66 
 4276      696700
 4277              	.LASF93:
 4278 0146 4E445452 		.ascii	"NDTR\000"
 4278      00
 4279              	.LASF38:
 4280 014b 65776D61 		.ascii	"ewmask\000"
 4280      736B00
 4281              	.LASF219:
 4282 0152 2F557365 		.ascii	"/Users/raphael/Documents/Projects/pcb-quadrotor/cod"
 4282      72732F72 
 4282      61706861 
 4282      656C2F44 
 4282      6F63756D 
 4283 0185 6500     		.ascii	"e\000"
 4284              	.LASF72:
 4285 0187 76746675 		.ascii	"vtfunc_t\000"
 4285      6E635F74 
 4285      00
 4286              	.LASF164:
 4287 0190 31316932 		.ascii	"11i2copmode_t\000"
 4287      636F706D 
 4287      6F64655F 
 4287      7400
 4288              	.LASF165:
 4289 019e 31346932 		.ascii	"14i2cdutycycle_t\000"
 4289      63647574 
 4289      79637963 
 4289      6C655F74 
 4289      00
 4290              	.LASF122:
 4291 01af 735F636E 		.ascii	"s_cnt\000"
 4291      7400
 4292              	.LASF84:
 4293 01b5 63685F73 		.ascii	"ch_system_debug\000"
 4293      79737465 
 4293      6D5F6465 
 4293      62756700 
 4294              	.LASF111:
 4295 01c5 31314572 		.ascii	"11ErrorStatus\000"
 4295      726F7253 
 4295      74617475 
 4295      7300
 4296              	.LASF200:
 4297 01d3 5F5A3137 		.ascii	"_Z17bno055_get_vectorh\000"
 4297      626E6F30 
 4297      35355F67 
 4297      65745F76 
 4297      6563746F 
 4298              	.LASF185:
 4299 01ea 646D6174 		.ascii	"dmatx\000"
ARM GAS  /var/folders/m4/4md61f0s1_g0rzfghffqnxvr0000gn/T//cc22WqKP.s 			page 78


 4299      7800
 4300              	.LASF20:
 4301 01f0 75696E74 		.ascii	"uint32_t\000"
 4301      33325F74 
 4301      00
 4302              	.LASF160:
 4303 01f9 4F504D4F 		.ascii	"OPMODE_I2C\000"
 4303      44455F49 
 4303      324300
 4304              	.LASF154:
 4305 0204 4932435F 		.ascii	"I2C_ACTIVE_TX\000"
 4305      41435449 
 4305      56455F54 
 4305      5800
 4306              	.LASF28:
 4307 0212 6576656E 		.ascii	"eventmask_t\000"
 4307      746D6173 
 4307      6B5F7400 
 4308              	.LASF67:
 4309 021e 725F7072 		.ascii	"r_prio\000"
 4309      696F00
 4310              	.LASF131:
 4311 0225 69666372 		.ascii	"ifcr\000"
 4311      00
 4312              	.LASF79:
 4313 022a 76745F70 		.ascii	"vt_par\000"
 4313      617200
 4314              	.LASF179:
 4315 0231 6D757465 		.ascii	"mutex\000"
 4315      7800
 4316              	.LASF150:
 4317 0237 31306932 		.ascii	"10i2cstate_t\000"
 4317      63737461 
 4317      74655F74 
 4317      00
 4318              	.LASF120:
 4319 0244 63685F73 		.ascii	"ch_semaphore\000"
 4319      656D6170 
 4319      686F7265 
 4319      00
 4320              	.LASF26:
 4321 0251 74707269 		.ascii	"tprio_t\000"
 4321      6F5F7400 
 4322              	.LASF97:
 4323 0259 3138444D 		.ascii	"18DMA_Stream_TypeDef\000"
 4323      415F5374 
 4323      7265616D 
 4323      5F547970 
 4323      65446566 
 4324              	.LASF74:
 4325 026e 63685F76 		.ascii	"ch_virtual_timer\000"
 4325      69727475 
 4325      616C5F74 
 4325      696D6572 
 4325      00
 4326              	.LASF17:
 4327 027f 696E7431 		.ascii	"int16_t\000"
ARM GAS  /var/folders/m4/4md61f0s1_g0rzfghffqnxvr0000gn/T//cc22WqKP.s 			page 79


 4327      365F7400 
 4328              	.LASF15:
 4329 0287 6C6F6E67 		.ascii	"long long unsigned int\000"
 4329      206C6F6E 
 4329      6720756E 
 4329      7369676E 
 4329      65642069 
 4330              	.LASF134:
 4331 029e 76656374 		.ascii	"vector\000"
 4331      6F7200
 4332              	.LASF178:
 4333 02a5 6572726F 		.ascii	"errors\000"
 4333      727300
 4334              	.LASF157:
 4335 02ac 69326373 		.ascii	"i2cstate_t\000"
 4335      74617465 
 4335      5F7400
 4336              	.LASF9:
 4337 02b7 5F5F7569 		.ascii	"__uint16_t\000"
 4337      6E743136 
 4337      5F7400
 4338              	.LASF29:
 4339 02c2 636E745F 		.ascii	"cnt_t\000"
 4339      7400
 4340              	.LASF174:
 4341 02c8 49324343 		.ascii	"I2CConfig\000"
 4341      6F6E6669 
 4341      6700
 4342              	.LASF140:
 4343 02d2 4D4F4445 		.ascii	"MODER\000"
 4343      5200
 4344              	.LASF147:
 4345 02d8 41465248 		.ascii	"AFRH\000"
 4345      00
 4346              	.LASF148:
 4347 02dd 73746D33 		.ascii	"stm32_gpio_t\000"
 4347      325F6770 
 4347      696F5F74 
 4347      00
 4348              	.LASF146:
 4349 02ea 4146524C 		.ascii	"AFRL\000"
 4349      00
 4350              	.LASF62:
 4351 02ef 74687265 		.ascii	"threads_queue_t\000"
 4351      6164735F 
 4351      71756575 
 4351      655F7400 
 4352              	.LASF43:
 4353 02ff 705F6E65 		.ascii	"p_newer\000"
 4353      77657200 
 4354              	.LASF139:
 4355 0307 636C6561 		.ascii	"clear\000"
 4355      7200
 4356              	.LASF81:
 4357 030d 63685F76 		.ascii	"ch_virtual_timers_list\000"
 4357      69727475 
 4357      616C5F74 
ARM GAS  /var/folders/m4/4md61f0s1_g0rzfghffqnxvr0000gn/T//cc22WqKP.s 			page 80


 4357      696D6572 
 4357      735F6C69 
 4358              	.LASF198:
 4359 0324 73746174 		.ascii	"stat\000"
 4359      00
 4360              	.LASF169:
 4361 0329 69326364 		.ascii	"i2cdutycycle_t\000"
 4361      75747963 
 4361      79636C65 
 4361      5F7400
 4362              	.LASF159:
 4363 0338 69326366 		.ascii	"i2cflags_t\000"
 4363      6C616773 
 4363      5F7400
 4364              	.LASF31:
 4365 0343 74687265 		.ascii	"thread_t\000"
 4365      61645F74 
 4365      00
 4366              	.LASF4:
 4367 034c 73697A65 		.ascii	"size_t\000"
 4367      5F7400
 4368              	.LASF32:
 4369 0353 7264796D 		.ascii	"rdymsg\000"
 4369      736700
 4370              	.LASF118:
 4371 035a 6F666673 		.ascii	"offset\000"
 4371      657400
 4372              	.LASF204:
 4373 0361 5F5A3137 		.ascii	"_Z17bno055_write_addrhh\000"
 4373      626E6F30 
 4373      35355F77 
 4373      72697465 
 4373      5F616464 
 4374              	.LASF195:
 4375 0379 626E6F30 		.ascii	"bno055_get_error\000"
 4375      35355F67 
 4375      65745F65 
 4375      72726F72 
 4375      00
 4376              	.LASF138:
 4377 038a 31327374 		.ascii	"12stm32_gpio_t\000"
 4377      6D33325F 
 4377      6770696F 
 4377      5F7400
 4378              	.LASF143:
 4379 0399 50555044 		.ascii	"PUPDR\000"
 4379      5200
 4380              	.LASF125:
 4381 039f 6D5F6F77 		.ascii	"m_owner\000"
 4381      6E657200 
 4382              	.LASF100:
 4383 03a7 4F415232 		.ascii	"OAR2\000"
 4383      00
 4384              	.LASF123:
 4385 03ac 63685F6D 		.ascii	"ch_mutex\000"
 4385      75746578 
 4385      00
ARM GAS  /var/folders/m4/4md61f0s1_g0rzfghffqnxvr0000gn/T//cc22WqKP.s 			page 81


 4386              	.LASF166:
 4387 03b5 5354445F 		.ascii	"STD_DUTY_CYCLE\000"
 4387      44555459 
 4387      5F435943 
 4387      4C4500
 4388              	.LASF173:
 4389 03c4 64757479 		.ascii	"duty_cycle\000"
 4389      5F637963 
 4389      6C6500
 4390              	.LASF94:
 4391 03cf 4D304152 		.ascii	"M0AR\000"
 4391      00
 4392              	.LASF30:
 4393 03d4 73797374 		.ascii	"systime_t\000"
 4393      696D655F 
 4393      7400
 4394              	.LASF186:
 4395 03de 37766563 		.ascii	"7vector3\000"
 4395      746F7233 
 4395      00
 4396              	.LASF45:
 4397 03e7 705F6E61 		.ascii	"p_name\000"
 4397      6D6500
 4398              	.LASF188:
 4399 03ee 76656374 		.ascii	"vector3\000"
 4399      6F723300 
 4400              	.LASF113:
 4401 03f6 53554343 		.ascii	"SUCCESS\000"
 4401      45535300 
 4402              	.LASF77:
 4403 03fe 76745F64 		.ascii	"vt_delta\000"
 4403      656C7461 
 4403      00
 4404              	.LASF108:
 4405 0407 44495341 		.ascii	"DISABLE\000"
 4405      424C4500 
 4406              	.LASF69:
 4407 040f 725F6E65 		.ascii	"r_newer\000"
 4407      77657200 
 4408              	.LASF183:
 4409 0417 7478646D 		.ascii	"txdmamode\000"
 4409      616D6F64 
 4409      6500
 4410              	.LASF132:
 4411 0421 69736869 		.ascii	"ishift\000"
 4411      667400
 4412              	.LASF23:
 4413 0428 74737461 		.ascii	"tstate_t\000"
 4413      74655F74 
 4413      00
 4414              	.LASF135:
 4415 0431 73746D33 		.ascii	"stm32_dma_stream_t\000"
 4415      325F646D 
 4415      615F7374 
 4415      7265616D 
 4415      5F7400
 4416              	.LASF1:
ARM GAS  /var/folders/m4/4md61f0s1_g0rzfghffqnxvr0000gn/T//cc22WqKP.s 			page 82


 4417 0444 6C6F6E67 		.ascii	"long long int\000"
 4417      206C6F6E 
 4417      6720696E 
 4417      7400
 4418              	.LASF0:
 4419 0452 756E7369 		.ascii	"unsigned int\000"
 4419      676E6564 
 4419      20696E74 
 4419      00
 4420              	.LASF44:
 4421 045f 705F6F6C 		.ascii	"p_older\000"
 4421      64657200 
 4422              	.LASF209:
 4423 0467 49324344 		.ascii	"I2CD1\000"
 4423      3100
 4424              	.LASF168:
 4425 046d 46415354 		.ascii	"FAST_DUTY_CYCLE_16_9\000"
 4425      5F445554 
 4425      595F4359 
 4425      434C455F 
 4425      31365F39 
 4426              	.LASF16:
 4427 0482 75696E74 		.ascii	"uint8_t\000"
 4427      385F7400 
 4428              	.LASF101:
 4429 048a 54524953 		.ascii	"TRISE\000"
 4429      4500
 4430              	.LASF57:
 4431 0490 705F6D70 		.ascii	"p_mpool\000"
 4431      6F6F6C00 
 4432              	.LASF55:
 4433 0498 705F6D74 		.ascii	"p_mtxlist\000"
 4433      786C6973 
 4433      7400
 4434              	.LASF107:
 4435 04a2 31354675 		.ascii	"15FunctionalState\000"
 4435      6E637469 
 4435      6F6E616C 
 4435      53746174 
 4435      6500
 4436              	.LASF46:
 4437 04b4 705F7374 		.ascii	"p_state\000"
 4437      61746500 
 4438              	.LASF60:
 4439 04bc 63685F74 		.ascii	"ch_thread\000"
 4439      68726561 
 4439      6400
 4440              	.LASF83:
 4441 04c6 73797374 		.ascii	"system_debug_t\000"
 4441      656D5F64 
 4441      65627567 
 4441      5F7400
 4442              	.LASF214:
 4443 04d5 69326353 		.ascii	"i2cStart\000"
 4443      74617274 
 4443      00
 4444              	.LASF63:
ARM GAS  /var/folders/m4/4md61f0s1_g0rzfghffqnxvr0000gn/T//cc22WqKP.s 			page 83


 4445 04de 63685F74 		.ascii	"ch_threads_queue\000"
 4445      68726561 
 4445      64735F71 
 4445      75657565 
 4445      00
 4446              	.LASF162:
 4447 04ef 4F504D4F 		.ascii	"OPMODE_SMBUS_HOST\000"
 4447      44455F53 
 4447      4D425553 
 4447      5F484F53 
 4447      5400
 4448              	.LASF66:
 4449 0501 725F7175 		.ascii	"r_queue\000"
 4449      65756500 
 4450              	.LASF151:
 4451 0509 4932435F 		.ascii	"I2C_UNINIT\000"
 4451      554E494E 
 4451      495400
 4452              	.LASF27:
 4453 0514 6D73675F 		.ascii	"msg_t\000"
 4453      7400
 4454              	.LASF116:
 4455 051a 636F6E74 		.ascii	"context\000"
 4455      65787400 
 4456              	.LASF136:
 4457 0522 626F6F6C 		.ascii	"bool\000"
 4457      00
 4458              	.LASF149:
 4459 0527 696F706F 		.ascii	"ioportmask_t\000"
 4459      72746D61 
 4459      736B5F74 
 4459      00
 4460              	.LASF47:
 4461 0534 705F666C 		.ascii	"p_flags\000"
 4461      61677300 
 4462              	.LASF7:
 4463 053c 5F5F696E 		.ascii	"__int16_t\000"
 4463      7431365F 
 4463      7400
 4464              	.LASF73:
 4465 0546 76697274 		.ascii	"virtual_timer_t\000"
 4465      75616C5F 
 4465      74696D65 
 4465      725F7400 
 4466              	.LASF213:
 4467 0556 69326352 		.ascii	"i2cReleaseBus\000"
 4467      656C6561 
 4467      73654275 
 4467      7300
 4468              	.LASF202:
 4469 0564 626E6F30 		.ascii	"bno055_write_addr\000"
 4469      35355F77 
 4469      72697465 
 4469      5F616464 
 4469      7200
 4470              	.LASF96:
 4471 0576 444D415F 		.ascii	"DMA_Stream_TypeDef\000"
ARM GAS  /var/folders/m4/4md61f0s1_g0rzfghffqnxvr0000gn/T//cc22WqKP.s 			page 84


 4471      53747265 
 4471      616D5F54 
 4471      79706544 
 4471      656600
 4472              	.LASF172:
 4473 0589 636C6F63 		.ascii	"clock_speed\000"
 4473      6B5F7370 
 4473      65656400 
 4474              	.LASF25:
 4475 0595 74736C69 		.ascii	"tslices_t\000"
 4475      6365735F 
 4475      7400
 4476              	.LASF70:
 4477 059f 725F6F6C 		.ascii	"r_older\000"
 4477      64657200 
 4478              	.LASF102:
 4479 05a7 464C5452 		.ascii	"FLTR\000"
 4479      00
 4480              	.LASF207:
 4481 05ac 5F5A3131 		.ascii	"_Z11bno055_initv\000"
 4481      626E6F30 
 4481      35355F69 
 4481      6E697476 
 4481      00
 4482              	.LASF167:
 4483 05bd 46415354 		.ascii	"FAST_DUTY_CYCLE_2\000"
 4483      5F445554 
 4483      595F4359 
 4483      434C455F 
 4483      3200
 4484              	.LASF53:
 4485 05cf 705F6D73 		.ascii	"p_msg\000"
 4485      6700
 4486              	.LASF22:
 4487 05d5 746D6F64 		.ascii	"tmode_t\000"
 4487      655F7400 
 4488              	.LASF90:
 4489 05dd 6D61696E 		.ascii	"mainthread\000"
 4489      74687265 
 4489      616400
 4490              	.LASF142:
 4491 05e8 4F535045 		.ascii	"OSPEEDR\000"
 4491      45445200 
 4492              	.LASF2:
 4493 05f0 6C6F6E67 		.ascii	"long double\000"
 4493      20646F75 
 4493      626C6500 
 4494              	.LASF18:
 4495 05fc 75696E74 		.ascii	"uint16_t\000"
 4495      31365F74 
 4495      00
 4496              	.LASF58:
 4497 0605 74687265 		.ascii	"thread_reference_t\000"
 4497      61645F72 
 4497      65666572 
 4497      656E6365 
 4497      5F7400
ARM GAS  /var/folders/m4/4md61f0s1_g0rzfghffqnxvr0000gn/T//cc22WqKP.s 			page 85


 4498              	.LASF21:
 4499 0618 7274636E 		.ascii	"rtcnt_t\000"
 4499      745F7400 
 4500              	.LASF171:
 4501 0620 6F705F6D 		.ascii	"op_mode\000"
 4501      6F646500 
 4502              	.LASF153:
 4503 0628 4932435F 		.ascii	"I2C_READY\000"
 4503      52454144 
 4503      5900
 4504              	.LASF201:
 4505 0632 626E6F30 		.ascii	"bno055_read_len\000"
 4505      35355F72 
 4505      6561645F 
 4505      6C656E00 
 4506              	.LASF177:
 4507 0642 636F6E66 		.ascii	"config\000"
 4507      696700
 4508              	.LASF56:
 4509 0649 705F7265 		.ascii	"p_realprio\000"
 4509      616C7072 
 4509      696F00
 4510              	.LASF217:
 4511 0654 474E5520 		.ascii	"GNU C++11 5.2.1 20151202 (release) [ARM/embedded-5-"
 4511      432B2B31 
 4511      3120352E 
 4511      322E3120 
 4511      32303135 
 4512 0687 6272616E 		.ascii	"branch revision 231848] -mcpu=cortex-m4 -mfloat-abi"
 4512      63682072 
 4512      65766973 
 4512      696F6E20 
 4512      32333138 
 4513 06ba 3D686172 		.ascii	"=hard -mfpu=fpv4-sp-d16 -mno-thumb-interwork -mthum"
 4513      64202D6D 
 4513      6670753D 
 4513      66707634 
 4513      2D73702D 
 4514 06ed 62202D67 		.ascii	"b -ggdb -O2 -std=c++11 -fomit-frame-pointer -falign"
 4514      67646220 
 4514      2D4F3220 
 4514      2D737464 
 4514      3D632B2B 
 4515 0720 2D66756E 		.ascii	"-functions=16 -ffunction-sections -fdata-sections -"
 4515      6374696F 
 4515      6E733D31 
 4515      36202D66 
 4515      66756E63 
 4516 0753 666E6F2D 		.ascii	"fno-common -fno-rtti -fno-exceptions\000"
 4516      636F6D6D 
 4516      6F6E202D 
 4516      666E6F2D 
 4516      72747469 
 4517              	.LASF8:
 4518 0778 73686F72 		.ascii	"short int\000"
 4518      7420696E 
 4518      7400
ARM GAS  /var/folders/m4/4md61f0s1_g0rzfghffqnxvr0000gn/T//cc22WqKP.s 			page 86


 4519              	.LASF71:
 4520 0782 725F6375 		.ascii	"r_current\000"
 4520      7272656E 
 4520      7400
 4521              	.LASF54:
 4522 078c 705F6570 		.ascii	"p_epending\000"
 4522      656E6469 
 4522      6E6700
 4523              	.LASF124:
 4524 0797 6D5F7175 		.ascii	"m_queue\000"
 4524      65756500 
 4525              	.LASF12:
 4526 079f 6C6F6E67 		.ascii	"long int\000"
 4526      20696E74 
 4526      00
 4527              	.LASF117:
 4528 07a8 706F7274 		.ascii	"port_intctx\000"
 4528      5F696E74 
 4528      63747800 
 4529              	.LASF158:
 4530 07b4 69326361 		.ascii	"i2caddr_t\000"
 4530      6464725F 
 4530      7400
 4531              	.LASF208:
 4532 07be 49544D5F 		.ascii	"ITM_RxBuffer\000"
 4532      52784275 
 4532      66666572 
 4532      00
 4533              	.LASF156:
 4534 07cb 4932435F 		.ascii	"I2C_LOCKED\000"
 4534      4C4F434B 
 4534      454400
 4535              	.LASF194:
 4536 07d6 5F5A3137 		.ascii	"_Z17bno055_get_statusv\000"
 4536      626E6F30 
 4536      35355F67 
 4536      65745F73 
 4536      74617475 
 4537              	.LASF87:
 4538 07ed 63685F73 		.ascii	"ch_system\000"
 4538      79737465 
 4538      6D00
 4539              	.LASF141:
 4540 07f7 4F545950 		.ascii	"OTYPER\000"
 4540      455200
 4541              	.LASF199:
 4542 07fe 626E6F30 		.ascii	"bno055_get_vector\000"
 4542      35355F67 
 4542      65745F76 
 4542      6563746F 
 4542      7200
 4543              	.LASF39:
 4544 0810 705F6E65 		.ascii	"p_next\000"
 4544      787400
 4545              	.LASF104:
 4546 0817 52455345 		.ascii	"RESET\000"
 4546      5400
ARM GAS  /var/folders/m4/4md61f0s1_g0rzfghffqnxvr0000gn/T//cc22WqKP.s 			page 87


 4547              	.LASF189:
 4548 081d 74786275 		.ascii	"txbuf\000"
 4548      6600
 4549              	.LASF85:
 4550 0823 70616E69 		.ascii	"panic_msg\000"
 4550      635F6D73 
 4550      6700
 4551              	.LASF42:
 4552 082d 705F6374 		.ascii	"p_ctx\000"
 4552      7800
 4553              	.LASF88:
 4554 0833 726C6973 		.ascii	"rlist\000"
 4554      7400
 4555              	.LASF203:
 4556 0839 5F5A3135 		.ascii	"_Z15bno055_read_lenhhPh\000"
 4556      626E6F30 
 4556      35355F72 
 4556      6561645F 
 4556      6C656E68 
 4557              	.LASF5:
 4558 0851 5F5F7569 		.ascii	"__uint8_t\000"
 4558      6E74385F 
 4558      7400
 4559              	.LASF196:
 4560 085b 5F5A3136 		.ascii	"_Z16bno055_get_errorv\000"
 4560      626E6F30 
 4560      35355F67 
 4560      65745F65 
 4560      72726F72 
 4561              	.LASF112:
 4562 0871 4552524F 		.ascii	"ERROR\000"
 4562      5200
 4563              	.LASF95:
 4564 0877 4D314152 		.ascii	"M1AR\000"
 4564      00
 4565              	.LASF40:
 4566 087c 705F7072 		.ascii	"p_prev\000"
 4566      657600
 4567              	.LASF109:
 4568 0883 454E4142 		.ascii	"ENABLE\000"
 4568      4C4500
 4569              	.LASF92:
 4570 088a 73697A65 		.ascii	"sizetype\000"
 4570      74797065 
 4570      00
 4571              	.LASF24:
 4572 0893 74726566 		.ascii	"trefs_t\000"
 4572      735F7400 
 4573              	.LASF14:
 4574 089b 6C6F6E67 		.ascii	"long unsigned int\000"
 4574      20756E73 
 4574      69676E65 
 4574      6420696E 
 4574      7400
 4575              	.LASF137:
 4576 08ad 3136746D 		.ascii	"16tm_calibration_t\000"
 4576      5F63616C 
ARM GAS  /var/folders/m4/4md61f0s1_g0rzfghffqnxvr0000gn/T//cc22WqKP.s 			page 88


 4576      69627261 
 4576      74696F6E 
 4576      5F7400
 4577              	.LASF64:
 4578 08c0 72656164 		.ascii	"ready_list_t\000"
 4578      795F6C69 
 4578      73745F74 
 4578      00
 4579              	.LASF19:
 4580 08cd 696E7433 		.ascii	"int32_t\000"
 4580      325F7400 
 4581              	.LASF91:
 4582 08d5 69646C65 		.ascii	"idle_thread_wa\000"
 4582      5F746872 
 4582      6561645F 
 4582      776100
 4583              	.LASF161:
 4584 08e4 4F504D4F 		.ascii	"OPMODE_SMBUS_DEVICE\000"
 4584      44455F53 
 4584      4D425553 
 4584      5F444556 
 4584      49434500 
 4585              	.LASF180:
 4586 08f8 74687265 		.ascii	"thread\000"
 4586      616400
 4587              	.LASF36:
 4588 08ff 77747365 		.ascii	"wtsemp\000"
 4588      6D7000
 4589              	.LASF210:
 4590 0906 69326363 		.ascii	"i2ccfg\000"
 4590      666700
 4591              	.LASF152:
 4592 090d 4932435F 		.ascii	"I2C_STOP\000"
 4592      53544F50 
 4592      00
 4593              	.LASF128:
 4594 0916 6D757465 		.ascii	"mutex_t\000"
 4594      785F7400 
 4595              	.LASF6:
 4596 091e 756E7369 		.ascii	"unsigned char\000"
 4596      676E6564 
 4596      20636861 
 4596      7200
 4597              	.LASF13:
 4598 092c 5F5F7569 		.ascii	"__uint32_t\000"
 4598      6E743332 
 4598      5F7400
 4599              	.LASF211:
 4600 0937 69326341 		.ascii	"i2cAcquireBus\000"
 4600      63717569 
 4600      72654275 
 4600      7300
 4601              	.LASF80:
 4602 0945 76697274 		.ascii	"virtual_timers_list_t\000"
 4602      75616C5F 
 4602      74696D65 
 4602      72735F6C 
ARM GAS  /var/folders/m4/4md61f0s1_g0rzfghffqnxvr0000gn/T//cc22WqKP.s 			page 89


 4602      6973745F 
 4603              	.LASF48:
 4604 095b 705F7265 		.ascii	"p_refs\000"
 4604      667300
 4605              	.LASF182:
 4606 0962 7278646D 		.ascii	"rxdmamode\000"
 4606      616D6F64 
 4606      6500
 4607              	.LASF103:
 4608 096c 4932435F 		.ascii	"I2C_TypeDef\000"
 4608      54797065 
 4608      44656600 
 4609              	.LASF216:
 4610 0978 63685468 		.ascii	"chThdSleep\000"
 4610      64536C65 
 4610      657000
 4611              	.LASF220:
 4612 0983 6465636C 		.ascii	"decltype(nullptr)\000"
 4612      74797065 
 4612      286E756C 
 4612      6C707472 
 4612      2900
 4613              	.LASF49:
 4614 0995 705F7072 		.ascii	"p_preempt\000"
 4614      65656D70 
 4614      7400
 4615              	.LASF163:
 4616 099f 6932636F 		.ascii	"i2copmode_t\000"
 4616      706D6F64 
 4616      655F7400 
 4617              	.LASF181:
 4618 09ab 61646472 		.ascii	"addr\000"
 4618      00
 4619              	.LASF176:
 4620 09b0 73746174 		.ascii	"state\000"
 4620      6500
 4621              	.LASF75:
 4622 09b6 76745F6E 		.ascii	"vt_next\000"
 4622      65787400 
 4623              	.LASF215:
 4624 09be 5F70616C 		.ascii	"_pal_lld_setgroupmode\000"
 4624      5F6C6C64 
 4624      5F736574 
 4624      67726F75 
 4624      706D6F64 
 4625              	.LASF86:
 4626 09d4 63685F73 		.ascii	"ch_system_t\000"
 4626      79737465 
 4626      6D5F7400 
 4627              	.LASF35:
 4628 09e0 77747472 		.ascii	"wttrp\000"
 4628      7000
 4629              	.LASF126:
 4630 09e6 6D5F6E65 		.ascii	"m_next\000"
 4630      787400
 4631              	.LASF3:
 4632 09ed 7369676E 		.ascii	"signed char\000"
ARM GAS  /var/folders/m4/4md61f0s1_g0rzfghffqnxvr0000gn/T//cc22WqKP.s 			page 90


 4632      65642063 
 4632      68617200 
 4633              	.LASF192:
 4634 09f9 626E6F30 		.ascii	"bno055_get_status\000"
 4634      35355F67 
 4634      65745F73 
 4634      74617475 
 4634      7300
 4635              	.LASF10:
 4636 0a0b 73686F72 		.ascii	"short unsigned int\000"
 4636      7420756E 
 4636      7369676E 
 4636      65642069 
 4636      6E7400
 4637              	.LASF68:
 4638 0a1e 725F6374 		.ascii	"r_ctx\000"
 4638      7800
 4639              	.LASF52:
 4640 0a24 705F6D73 		.ascii	"p_msgqueue\000"
 4640      67717565 
 4640      756500
 4641              	.LASF98:
 4642 0a2f 31314932 		.ascii	"11I2C_TypeDef\000"
 4642      435F5479 
 4642      70654465 
 4642      6600
 4643              	.LASF78:
 4644 0a3d 76745F66 		.ascii	"vt_func\000"
 4644      756E6300 
 4645              	.LASF187:
 4646 0a45 646F7562 		.ascii	"double\000"
 4646      6C6500
 4647              	.LASF76:
 4648 0a4c 76745F70 		.ascii	"vt_prev\000"
 4648      72657600 
 4649              	.LASF206:
 4650 0a54 626E6F30 		.ascii	"bno055_init\000"
 4650      35355F69 
 4650      6E697400 
 4651              	.LASF106:
 4652 0a60 3130466C 		.ascii	"10FlagStatus\000"
 4652      61675374 
 4652      61747573 
 4652      00
 4653              	.LASF191:
 4654 0a6d 626E6F30 		.ascii	"bno055_read_addr\000"
 4654      35355F72 
 4654      6561645F 
 4654      61646472 
 4654      00
 4655              	.LASF205:
 4656 0a7e 76616C75 		.ascii	"value\000"
 4656      6500
 4657              	.LASF33:
 4658 0a84 65786974 		.ascii	"exitcode\000"
 4658      636F6465 
 4658      00
ARM GAS  /var/folders/m4/4md61f0s1_g0rzfghffqnxvr0000gn/T//cc22WqKP.s 			page 91


 4659              	.LASF133:
 4660 0a8d 73656C66 		.ascii	"selfindex\000"
 4660      696E6465 
 4660      7800
 4661              	.LASF145:
 4662 0a97 4C434B52 		.ascii	"LCKR\000"
 4662      00
 4663              	.LASF190:
 4664 0a9c 72786275 		.ascii	"rxbuf\000"
 4664      6600
 4665              	.LASF130:
 4666 0aa2 73747265 		.ascii	"stream\000"
 4666      616D00
 4667              		.ident	"GCC: (GNU Tools for ARM Embedded Processors) 5.2.1 20151202 (release) [ARM/embedded-5-bran
ARM GAS  /var/folders/m4/4md61f0s1_g0rzfghffqnxvr0000gn/T//cc22WqKP.s 			page 92


DEFINED SYMBOLS
                            *ABS*:0000000000000000 bno055.cpp
/var/folders/m4/4md61f0s1_g0rzfghffqnxvr0000gn/T//cc22WqKP.s:22     .text._Z16bno055_read_addrh:0000000000000000 $t
/var/folders/m4/4md61f0s1_g0rzfghffqnxvr0000gn/T//cc22WqKP.s:28     .text._Z16bno055_read_addrh:0000000000000000 _Z16bno055_read_addrh
/var/folders/m4/4md61f0s1_g0rzfghffqnxvr0000gn/T//cc22WqKP.s:80     .text._Z16bno055_read_addrh:0000000000000034 $d
/var/folders/m4/4md61f0s1_g0rzfghffqnxvr0000gn/T//cc22WqKP.s:85     .text._Z17bno055_get_statusv:0000000000000000 $t
/var/folders/m4/4md61f0s1_g0rzfghffqnxvr0000gn/T//cc22WqKP.s:91     .text._Z17bno055_get_statusv:0000000000000000 _Z17bno055_get_statusv
/var/folders/m4/4md61f0s1_g0rzfghffqnxvr0000gn/T//cc22WqKP.s:106    .text._Z16bno055_get_errorv:0000000000000000 $t
/var/folders/m4/4md61f0s1_g0rzfghffqnxvr0000gn/T//cc22WqKP.s:112    .text._Z16bno055_get_errorv:0000000000000000 _Z16bno055_get_errorv
/var/folders/m4/4md61f0s1_g0rzfghffqnxvr0000gn/T//cc22WqKP.s:127    .text._Z15bno055_read_lenhhPh:0000000000000000 $t
/var/folders/m4/4md61f0s1_g0rzfghffqnxvr0000gn/T//cc22WqKP.s:133    .text._Z15bno055_read_lenhhPh:0000000000000000 _Z15bno055_read_lenhhPh
/var/folders/m4/4md61f0s1_g0rzfghffqnxvr0000gn/T//cc22WqKP.s:188    .text._Z15bno055_read_lenhhPh:0000000000000034 $d
/var/folders/m4/4md61f0s1_g0rzfghffqnxvr0000gn/T//cc22WqKP.s:196    .text._Z17bno055_get_vectorh:0000000000000000 $t
/var/folders/m4/4md61f0s1_g0rzfghffqnxvr0000gn/T//cc22WqKP.s:202    .text._Z17bno055_get_vectorh:0000000000000000 _Z17bno055_get_vectorh
/var/folders/m4/4md61f0s1_g0rzfghffqnxvr0000gn/T//cc22WqKP.s:264    .text._Z17bno055_get_vectorh:000000000000004a $d
/var/folders/m4/4md61f0s1_g0rzfghffqnxvr0000gn/T//cc22WqKP.s:470    .text._Z17bno055_get_vectorh:0000000000000170 $d
/var/folders/m4/4md61f0s1_g0rzfghffqnxvr0000gn/T//cc22WqKP.s:477    .text._Z17bno055_write_addrhh:0000000000000000 $t
/var/folders/m4/4md61f0s1_g0rzfghffqnxvr0000gn/T//cc22WqKP.s:483    .text._Z17bno055_write_addrhh:0000000000000000 _Z17bno055_write_addrhh
/var/folders/m4/4md61f0s1_g0rzfghffqnxvr0000gn/T//cc22WqKP.s:533    .text._Z17bno055_write_addrhh:0000000000000034 $d
/var/folders/m4/4md61f0s1_g0rzfghffqnxvr0000gn/T//cc22WqKP.s:538    .text._Z11bno055_initv:0000000000000000 $t
/var/folders/m4/4md61f0s1_g0rzfghffqnxvr0000gn/T//cc22WqKP.s:544    .text._Z11bno055_initv:0000000000000000 _Z11bno055_initv
/var/folders/m4/4md61f0s1_g0rzfghffqnxvr0000gn/T//cc22WqKP.s:669    .text._Z11bno055_initv:00000000000000b0 $d
/var/folders/m4/4md61f0s1_g0rzfghffqnxvr0000gn/T//cc22WqKP.s:676    .rodata._ZL6i2ccfg:0000000000000000 $d
/var/folders/m4/4md61f0s1_g0rzfghffqnxvr0000gn/T//cc22WqKP.s:680    .rodata._ZL6i2ccfg:0000000000000000 _ZL6i2ccfg
                     .debug_frame:0000000000000010 $d
/var/folders/m4/4md61f0s1_g0rzfghffqnxvr0000gn/T//cc22WqKP.s:303    .text._Z17bno055_get_vectorh:0000000000000071 $d
/var/folders/m4/4md61f0s1_g0rzfghffqnxvr0000gn/T//cc22WqKP.s:303    .text._Z17bno055_get_vectorh:0000000000000072 $t

UNDEFINED SYMBOLS
i2cAcquireBus
i2cMasterTransmitTimeout
i2cReleaseBus
I2CD1
__aeabi_i2d
__aeabi_dmul
__aeabi_ddiv
i2cStart
_pal_lld_setgroupmode
chThdSleep
