ARM GAS  /var/folders/m4/4md61f0s1_g0rzfghffqnxvr0000gn/T//ccv3R7jd.s 			page 1


   1              		.syntax unified
   2              		.cpu cortex-m4
   3              		.eabi_attribute 27, 1
   4              		.eabi_attribute 28, 1
   5              		.fpu fpv4-sp-d16
   6              		.eabi_attribute 20, 1
   7              		.eabi_attribute 21, 1
   8              		.eabi_attribute 23, 3
   9              		.eabi_attribute 24, 1
  10              		.eabi_attribute 25, 1
  11              		.eabi_attribute 26, 1
  12              		.eabi_attribute 30, 2
  13              		.eabi_attribute 34, 1
  14              		.eabi_attribute 18, 4
  15              		.thumb
  16              		.file	"chdynamic.c"
  17              		.text
  18              	.Ltext0:
  19              		.cfi_sections	.debug_frame
  20              		.section	.text.chThdAddRef,"ax",%progbits
  21              		.align	2
  22              		.p2align 4,,15
  23              		.global	chThdAddRef
  24              		.thumb
  25              		.thumb_func
  26              		.type	chThdAddRef, %function
  27              	chThdAddRef:
  28              	.LFB231:
  29              		.file 1 "ChibiOS_16.1.4/os/rt/src/chdynamic.c"
  30              		.loc 1 68 0
  31              		.cfi_startproc
  32              		@ args = 0, pretend = 0, frame = 0
  33              		@ frame_needed = 0, uses_anonymous_args = 0
  34              		@ link register save eliminated.
  35              	.LVL0:
  36              	.LBB64:
  37              	.LBB65:
  38              	.LBB66:
  39              	.LBB67:
  40              		.file 2 "ChibiOS_16.1.4/os/ext/CMSIS/include/core_cmFunc.h"
  41              		.loc 2 548 0
  42 0000 2023     		movs	r3, #32
  43              	@ 548 "ChibiOS_16.1.4/os/ext/CMSIS/include/core_cmFunc.h" 1
  44 0002 83F31188 		MSR basepri, r3
  45              	@ 0 "" 2
  46              		.thumb
  47              	.LBE67:
  48              	.LBE66:
  49              	.LBE65:
  50              	.LBE64:
  51              		.loc 1 72 0
  52 0006 837F     		ldrb	r3, [r0, #30]	@ zero_extendqisi2
  53 0008 0133     		adds	r3, r3, #1
  54 000a 8377     		strb	r3, [r0, #30]
  55              	.LVL1:
  56              	.LBB68:
  57              	.LBB69:
ARM GAS  /var/folders/m4/4md61f0s1_g0rzfghffqnxvr0000gn/T//ccv3R7jd.s 			page 2


  58              	.LBB70:
  59              	.LBB71:
  60              	.LBB72:
  61              		.loc 2 548 0
  62 000c 0023     		movs	r3, #0
  63              	@ 548 "ChibiOS_16.1.4/os/ext/CMSIS/include/core_cmFunc.h" 1
  64 000e 83F31188 		MSR basepri, r3
  65              	@ 0 "" 2
  66              		.thumb
  67              	.LBE72:
  68              	.LBE71:
  69              	.LBE70:
  70              	.LBE69:
  71              	.LBE68:
  72              		.loc 1 76 0
  73 0012 7047     		bx	lr
  74              		.cfi_endproc
  75              	.LFE231:
  76              		.size	chThdAddRef, .-chThdAddRef
  77              		.section	.text.chThdRelease,"ax",%progbits
  78              		.align	2
  79              		.p2align 4,,15
  80              		.global	chThdRelease
  81              		.thumb
  82              		.thumb_func
  83              		.type	chThdRelease, %function
  84              	chThdRelease:
  85              	.LFB232:
  86              		.loc 1 91 0
  87              		.cfi_startproc
  88              		@ args = 0, pretend = 0, frame = 0
  89              		@ frame_needed = 0, uses_anonymous_args = 0
  90              		@ link register save eliminated.
  91              	.LVL2:
  92 0000 0146     		mov	r1, r0
  93              	.LBB73:
  94              	.LBB74:
  95              	.LBB75:
  96              	.LBB76:
  97              		.loc 2 548 0
  98 0002 2023     		movs	r3, #32
  99              	@ 548 "ChibiOS_16.1.4/os/ext/CMSIS/include/core_cmFunc.h" 1
 100 0004 83F31188 		MSR basepri, r3
 101              	@ 0 "" 2
 102              		.thumb
 103              	.LBE76:
 104              	.LBE75:
 105              	.LBE74:
 106              	.LBE73:
 107              		.loc 1 96 0
 108 0008 837F     		ldrb	r3, [r0, #30]	@ zero_extendqisi2
 109 000a 013B     		subs	r3, r3, #1
 110 000c DBB2     		uxtb	r3, r3
 111 000e 8377     		strb	r3, [r0, #30]
 112              	.LVL3:
 113              		.loc 1 102 0
 114 0010 13B9     		cbnz	r3, .L3
ARM GAS  /var/folders/m4/4md61f0s1_g0rzfghffqnxvr0000gn/T//ccv3R7jd.s 			page 3


 115              		.loc 1 102 0 is_stmt 0 discriminator 1
 116 0012 027F     		ldrb	r2, [r0, #28]	@ zero_extendqisi2
 117 0014 0F2A     		cmp	r2, #15
 118 0016 03D0     		beq	.L8
 119              	.L3:
 120              	.LVL4:
 121              	.LBB77:
 122              	.LBB78:
 123              	.LBB79:
 124              	.LBB80:
 125              	.LBB81:
 126              		.loc 2 548 0 is_stmt 1
 127 0018 0023     		movs	r3, #0
 128              	.LVL5:
 129              	@ 548 "ChibiOS_16.1.4/os/ext/CMSIS/include/core_cmFunc.h" 1
 130 001a 83F31188 		MSR basepri, r3
 131              	@ 0 "" 2
 132              		.thumb
 133 001e 7047     		bx	lr
 134              	.LVL6:
 135              	.L8:
 136              	.LBE81:
 137              	.LBE80:
 138              	.LBE79:
 139              	.LBE78:
 140              	.LBE77:
 141              		.loc 1 103 0
 142 0020 427F     		ldrb	r2, [r0, #29]	@ zero_extendqisi2
 143 0022 02F00302 		and	r2, r2, #3
 144 0026 012A     		cmp	r2, #1
 145 0028 0BD0     		beq	.L4
 146 002a 022A     		cmp	r2, #2
 147 002c F4D1     		bne	.L3
 148              		.loc 1 116 0
 149 002e 4269     		ldr	r2, [r0, #20]
 150 0030 0069     		ldr	r0, [r0, #16]
 151              	.LVL7:
 152 0032 1061     		str	r0, [r2, #16]
 153 0034 0869     		ldr	r0, [r1, #16]
 154 0036 4261     		str	r2, [r0, #20]
 155              	.LVL8:
 156              	.LBB82:
 157              	.LBB83:
 158              	.LBB84:
 159              	.LBB85:
 160              	.LBB86:
 161              		.loc 2 548 0
 162              	@ 548 "ChibiOS_16.1.4/os/ext/CMSIS/include/core_cmFunc.h" 1
 163 0038 83F31188 		MSR basepri, r3
 164              	@ 0 "" 2
 165              		.thumb
 166              	.LBE86:
 167              	.LBE85:
 168              	.LBE84:
 169              	.LBE83:
 170              	.LBE82:
 171              		.loc 1 119 0
ARM GAS  /var/folders/m4/4md61f0s1_g0rzfghffqnxvr0000gn/T//ccv3R7jd.s 			page 4


 172 003c 486C     		ldr	r0, [r1, #68]
 173 003e FFF7FEBF 		b	chPoolFree
 174              	.LVL9:
 175              	.L4:
 176              		.loc 1 107 0
 177 0042 4269     		ldr	r2, [r0, #20]
 178              		.loc 1 91 0
 179 0044 10B4     		push	{r4}
 180              		.cfi_def_cfa_offset 4
 181              		.cfi_offset 4, -4
 182              		.loc 1 107 0
 183 0046 0469     		ldr	r4, [r0, #16]
 184 0048 1461     		str	r4, [r2, #16]
 185 004a 0169     		ldr	r1, [r0, #16]
 186 004c 4A61     		str	r2, [r1, #20]
 187              	.LVL10:
 188              	.LBB87:
 189              	.LBB88:
 190              	.LBB89:
 191              	.LBB90:
 192              	.LBB91:
 193              		.loc 2 548 0
 194              	@ 548 "ChibiOS_16.1.4/os/ext/CMSIS/include/core_cmFunc.h" 1
 195 004e 83F31188 		MSR basepri, r3
 196              	@ 0 "" 2
 197              		.thumb
 198              	.LBE91:
 199              	.LBE90:
 200              	.LBE89:
 201              	.LBE88:
 202              	.LBE87:
 203              		.loc 1 129 0
 204 0052 5DF8044B 		ldr	r4, [sp], #4
 205              		.cfi_restore 4
 206              		.cfi_def_cfa_offset 0
 207              		.loc 1 110 0
 208 0056 FFF7FEBF 		b	chHeapFree
 209              	.LVL11:
 210              		.cfi_endproc
 211              	.LFE232:
 212              		.size	chThdRelease, .-chThdRelease
 213 005a 00BF     		.section	.text.chThdCreateFromHeap,"ax",%progbits
 214              		.align	2
 215              		.p2align 4,,15
 216              		.global	chThdCreateFromHeap
 217              		.thumb
 218              		.thumb_func
 219              		.type	chThdCreateFromHeap, %function
 220              	chThdCreateFromHeap:
 221              	.LFB233:
 222              		.loc 1 155 0
 223              		.cfi_startproc
 224              		@ args = 4, pretend = 0, frame = 0
 225              		@ frame_needed = 0, uses_anonymous_args = 0
 226              	.LVL12:
 227 0000 F0B5     		push	{r4, r5, r6, r7, lr}
 228              		.cfi_def_cfa_offset 20
ARM GAS  /var/folders/m4/4md61f0s1_g0rzfghffqnxvr0000gn/T//ccv3R7jd.s 			page 5


 229              		.cfi_offset 4, -20
 230              		.cfi_offset 5, -16
 231              		.cfi_offset 6, -12
 232              		.cfi_offset 7, -8
 233              		.cfi_offset 14, -4
 234 0002 83B0     		sub	sp, sp, #12
 235              		.cfi_def_cfa_offset 32
 236              		.loc 1 155 0
 237 0004 1646     		mov	r6, r2
 238 0006 1D46     		mov	r5, r3
 239 0008 0F46     		mov	r7, r1
 240              		.loc 1 159 0
 241 000a FFF7FEFF 		bl	chHeapAlloc
 242              	.LVL13:
 243              		.loc 1 160 0
 244 000e 98B1     		cbz	r0, .L10
 245              	.LVL14:
 246              	.LBB92:
 247              	.LBB93:
 248              	.LBB94:
 249              	.LBB95:
 250              		.loc 2 548 0
 251 0010 2023     		movs	r3, #32
 252              	@ 548 "ChibiOS_16.1.4/os/ext/CMSIS/include/core_cmFunc.h" 1
 253 0012 83F31188 		MSR basepri, r3
 254              	@ 0 "" 2
 255              		.thumb
 256              	.LBE95:
 257              	.LBE94:
 258              	.LBE93:
 259              	.LBE92:
 260              		.loc 1 174 0
 261 0016 089B     		ldr	r3, [sp, #32]
 262 0018 0093     		str	r3, [sp]
 263 001a 3946     		mov	r1, r7
 264 001c 3246     		mov	r2, r6
 265 001e 2B46     		mov	r3, r5
 266 0020 FFF7FEFF 		bl	chThdCreateI
 267              	.LVL15:
 268              		.loc 1 175 0
 269 0024 0123     		movs	r3, #1
 270 0026 4377     		strb	r3, [r0, #29]
 271              		.loc 1 176 0
 272 0028 0021     		movs	r1, #0
 273              		.loc 1 174 0
 274 002a 0446     		mov	r4, r0
 275              	.LVL16:
 276              		.loc 1 176 0
 277 002c FFF7FEFF 		bl	chSchWakeupS
 278              	.LVL17:
 279              	.LBB96:
 280              	.LBB97:
 281              	.LBB98:
 282              	.LBB99:
 283              	.LBB100:
 284              		.loc 2 548 0
 285 0030 0023     		movs	r3, #0
ARM GAS  /var/folders/m4/4md61f0s1_g0rzfghffqnxvr0000gn/T//ccv3R7jd.s 			page 6


 286              	@ 548 "ChibiOS_16.1.4/os/ext/CMSIS/include/core_cmFunc.h" 1
 287 0032 83F31188 		MSR basepri, r3
 288              	@ 0 "" 2
 289              		.thumb
 290              	.LBE100:
 291              	.LBE99:
 292              	.LBE98:
 293              	.LBE97:
 294              	.LBE96:
 295              		.loc 1 179 0
 296 0036 2046     		mov	r0, r4
 297              	.LVL18:
 298              	.L10:
 299              		.loc 1 180 0
 300 0038 03B0     		add	sp, sp, #12
 301              		.cfi_def_cfa_offset 20
 302              		@ sp needed
 303 003a F0BD     		pop	{r4, r5, r6, r7, pc}
 304              		.cfi_endproc
 305              	.LFE233:
 306              		.size	chThdCreateFromHeap, .-chThdCreateFromHeap
 307              		.section	.text.chThdCreateFromMemoryPool,"ax",%progbits
 308              		.align	2
 309              		.p2align 4,,15
 310              		.global	chThdCreateFromMemoryPool
 311              		.thumb
 312              		.thumb_func
 313              		.type	chThdCreateFromMemoryPool, %function
 314              	chThdCreateFromMemoryPool:
 315              	.LFB234:
 316              		.loc 1 207 0
 317              		.cfi_startproc
 318              		@ args = 0, pretend = 0, frame = 0
 319              		@ frame_needed = 0, uses_anonymous_args = 0
 320              	.LVL19:
 321 0000 2DE9F041 		push	{r4, r5, r6, r7, r8, lr}
 322              		.cfi_def_cfa_offset 24
 323              		.cfi_offset 4, -24
 324              		.cfi_offset 5, -20
 325              		.cfi_offset 6, -16
 326              		.cfi_offset 7, -12
 327              		.cfi_offset 8, -8
 328              		.cfi_offset 14, -4
 329 0004 82B0     		sub	sp, sp, #8
 330              		.cfi_def_cfa_offset 32
 331              		.loc 1 207 0
 332 0006 0F46     		mov	r7, r1
 333 0008 1646     		mov	r6, r2
 334 000a 9846     		mov	r8, r3
 335 000c 0546     		mov	r5, r0
 336              		.loc 1 213 0
 337 000e FFF7FEFF 		bl	chPoolAlloc
 338              	.LVL20:
 339              		.loc 1 214 0
 340 0012 A0B1     		cbz	r0, .L14
 341              	.LVL21:
 342              	.LBB101:
ARM GAS  /var/folders/m4/4md61f0s1_g0rzfghffqnxvr0000gn/T//ccv3R7jd.s 			page 7


 343              	.LBB102:
 344              	.LBB103:
 345              	.LBB104:
 346              		.loc 2 548 0
 347 0014 2023     		movs	r3, #32
 348              	@ 548 "ChibiOS_16.1.4/os/ext/CMSIS/include/core_cmFunc.h" 1
 349 0016 83F31188 		MSR basepri, r3
 350              	@ 0 "" 2
 351              		.thumb
 352              	.LBE104:
 353              	.LBE103:
 354              	.LBE102:
 355              	.LBE101:
 356              		.loc 1 228 0
 357 001a 6968     		ldr	r1, [r5, #4]
 358 001c CDF80080 		str	r8, [sp]
 359 0020 3A46     		mov	r2, r7
 360 0022 3346     		mov	r3, r6
 361 0024 FFF7FEFF 		bl	chThdCreateI
 362              	.LVL22:
 363              		.loc 1 229 0
 364 0028 0223     		movs	r3, #2
 365 002a 4377     		strb	r3, [r0, #29]
 366              		.loc 1 230 0
 367 002c 4564     		str	r5, [r0, #68]
 368              		.loc 1 231 0
 369 002e 0021     		movs	r1, #0
 370              		.loc 1 228 0
 371 0030 0446     		mov	r4, r0
 372              	.LVL23:
 373              		.loc 1 231 0
 374 0032 FFF7FEFF 		bl	chSchWakeupS
 375              	.LVL24:
 376              	.LBB105:
 377              	.LBB106:
 378              	.LBB107:
 379              	.LBB108:
 380              	.LBB109:
 381              		.loc 2 548 0
 382 0036 0023     		movs	r3, #0
 383              	@ 548 "ChibiOS_16.1.4/os/ext/CMSIS/include/core_cmFunc.h" 1
 384 0038 83F31188 		MSR basepri, r3
 385              	@ 0 "" 2
 386              		.thumb
 387              	.LBE109:
 388              	.LBE108:
 389              	.LBE107:
 390              	.LBE106:
 391              	.LBE105:
 392              		.loc 1 234 0
 393 003c 2046     		mov	r0, r4
 394              	.LVL25:
 395              	.L14:
 396              		.loc 1 235 0
 397 003e 02B0     		add	sp, sp, #8
 398              		.cfi_def_cfa_offset 24
 399              		@ sp needed
ARM GAS  /var/folders/m4/4md61f0s1_g0rzfghffqnxvr0000gn/T//ccv3R7jd.s 			page 8


 400 0040 BDE8F081 		pop	{r4, r5, r6, r7, r8, pc}
 401              		.cfi_endproc
 402              	.LFE234:
 403              		.size	chThdCreateFromMemoryPool, .-chThdCreateFromMemoryPool
 404              		.text
 405              	.Letext0:
 406              		.file 3 "/usr/local/Cellar/gcc-arm-none-eabi-49/20150609/lib/gcc/arm-none-eabi/4.9.3/include/stdde
 407              		.file 4 "/usr/local/Cellar/gcc-arm-none-eabi-49/20150609/arm-none-eabi/include/machine/_default_ty
 408              		.file 5 "/usr/local/Cellar/gcc-arm-none-eabi-49/20150609/arm-none-eabi/include/sys/_stdint.h"
 409              		.file 6 "ChibiOS_16.1.4/os/rt/ports/ARMCMx/compilers/GCC/chtypes.h"
 410              		.file 7 "ChibiOS_16.1.4/os/rt/include/chsystypes.h"
 411              		.file 8 "ChibiOS_16.1.4/os/rt/include/chschd.h"
 412              		.file 9 "ChibiOS_16.1.4/os/rt/ports/ARMCMx/chcore.h"
 413              		.file 10 "ChibiOS_16.1.4/os/rt/ports/ARMCMx/chcore_v7m.h"
 414              		.file 11 "ChibiOS_16.1.4/os/rt/include/chtm.h"
 415              		.file 12 "ChibiOS_16.1.4/os/rt/include/chsem.h"
 416              		.file 13 "ChibiOS_16.1.4/os/rt/include/chmtx.h"
 417              		.file 14 "ChibiOS_16.1.4/os/rt/include/chthreads.h"
 418              		.file 15 "ChibiOS_16.1.4/os/rt/include/chmemcore.h"
 419              		.file 16 "ChibiOS_16.1.4/os/rt/include/chheap.h"
 420              		.file 17 "ChibiOS_16.1.4/os/rt/include/chmempools.h"
 421              		.file 18 "ChibiOS_16.1.4/os/rt/include/chsys.h"
 422              		.file 19 "ChibiOS_16.1.4/os/ext/CMSIS/include/core_cm4.h"