ARM GAS  /var/folders/m4/4md61f0s1_g0rzfghffqnxvr0000gn/T//ccv3R7jd.s 			page 1


   1              		.syntax unified
   2              		.cpu cortex-m4
   3              		.eabi_attribute 27, 1
   4              		.eabi_attribute 28, 1
   5              		.fpu fpv4-sp-d16
   6              		.eabi_attribute 20, 1
   7              		.eabi_attribute 21, 1
   8              		.eabi_attribute 23, 3
   9              		.eabi_attribute 24, 1
  10              		.eabi_attribute 25, 1
  11              		.eabi_attribute 26, 1
  12              		.eabi_attribute 30, 2
  13              		.eabi_attribute 34, 1
  14              		.eabi_attribute 18, 4
  15              		.thumb
  16              		.file	"chdynamic.c"
  17              		.text
  18              	.Ltext0:
  19              		.cfi_sections	.debug_frame
  20              		.section	.text.chThdAddRef,"ax",%progbits
  21              		.align	2
  22              		.p2align 4,,15
  23              		.global	chThdAddRef
  24              		.thumb
  25              		.thumb_func
  26              		.type	chThdAddRef, %function
  27              	chThdAddRef:
  28              	.LFB231:
  29              		.file 1 "ChibiOS_16.1.4/os/rt/src/chdynamic.c"
  30              		.loc 1 68 0
  31              		.cfi_startproc
  32              		@ args = 0, pretend = 0, frame = 0
  33              		@ frame_needed = 0, uses_anonymous_args = 0
  34              		@ link register save eliminated.
  35              	.LVL0:
  36              	.LBB64:
  37              	.LBB65:
  38              	.LBB66:
  39              	.LBB67:
  40              		.file 2 "ChibiOS_16.1.4/os/ext/CMSIS/include/core_cmFunc.h"
  41              		.loc 2 548 0
  42 0000 2023     		movs	r3, #32
  43              	@ 548 "ChibiOS_16.1.4/os/ext/CMSIS/include/core_cmFunc.h" 1
  44 0002 83F31188 		MSR basepri, r3
  45              	@ 0 "" 2
  46              		.thumb
  47              	.LBE67:
  48              	.LBE66:
  49              	.LBE65:
  50              	.LBE64:
  51              		.loc 1 72 0
  52 0006 837F     		ldrb	r3, [r0, #30]	@ zero_extendqisi2
  53 0008 0133     		adds	r3, r3, #1
  54 000a 8377     		strb	r3, [r0, #30]
  55              	.LVL1:
  56              	.LBB68:
  57              	.LBB69:
ARM GAS  /var/folders/m4/4md61f0s1_g0rzfghffqnxvr0000gn/T//ccv3R7jd.s 			page 2


  58              	.LBB70:
  59              	.LBB71:
  60              	.LBB72:
  61              		.loc 2 548 0
  62 000c 0023     		movs	r3, #0
  63              	@ 548 "ChibiOS_16.1.4/os/ext/CMSIS/include/core_cmFunc.h" 1
  64 000e 83F31188 		MSR basepri, r3
  65              	@ 0 "" 2
  66              		.thumb
  67              	.LBE72:
  68              	.LBE71:
  69              	.LBE70:
  70              	.LBE69:
  71              	.LBE68:
  72              		.loc 1 76 0
  73 0012 7047     		bx	lr
  74              		.cfi_endproc
  75              	.LFE231:
  76              		.size	chThdAddRef, .-chThdAddRef
  77              		.section	.text.chThdRelease,"ax",%progbits
  78              		.align	2
  79              		.p2align 4,,15
  80              		.global	chThdRelease
  81              		.thumb
  82              		.thumb_func
  83              		.type	chThdRelease, %function
  84              	chThdRelease:
  85              	.LFB232:
  86              		.loc 1 91 0
  87              		.cfi_startproc
  88              		@ args = 0, pretend = 0, frame = 0
  89              		@ frame_needed = 0, uses_anonymous_args = 0
  90              		@ link register save eliminated.
  91              	.LVL2:
  92 0000 0146     		mov	r1, r0
  93              	.LBB73:
  94              	.LBB74:
  95              	.LBB75:
  96              	.LBB76:
  97              		.loc 2 548 0
  98 0002 2023     		movs	r3, #32
  99              	@ 548 "ChibiOS_16.1.4/os/ext/CMSIS/include/core_cmFunc.h" 1
 100 0004 83F31188 		MSR basepri, r3
 101              	@ 0 "" 2
 102              		.thumb
 103              	.LBE76:
 104              	.LBE75:
 105              	.LBE74:
 106              	.LBE73:
 107              		.loc 1 96 0
 108 0008 837F     		ldrb	r3, [r0, #30]	@ zero_extendqisi2
 109 000a 013B     		subs	r3, r3, #1
 110 000c DBB2     		uxtb	r3, r3
 111 000e 8377     		strb	r3, [r0, #30]
 112              	.LVL3:
 113              		.loc 1 102 0
 114 0010 13B9     		cbnz	r3, .L3
ARM GAS  /var/folders/m4/4md61f0s1_g0rzfghffqnxvr0000gn/T//ccv3R7jd.s 			page 3


 115              		.loc 1 102 0 is_stmt 0 discriminator 1
 116 0012 027F     		ldrb	r2, [r0, #28]	@ zero_extendqisi2
 117 0014 0F2A     		cmp	r2, #15
 118 0016 03D0     		beq	.L8
 119              	.L3:
 120              	.LVL4:
 121              	.LBB77:
 122              	.LBB78:
 123              	.LBB79:
 124              	.LBB80:
 125              	.LBB81:
 126              		.loc 2 548 0 is_stmt 1
 127 0018 0023     		movs	r3, #0
 128              	.LVL5:
 129              	@ 548 "ChibiOS_16.1.4/os/ext/CMSIS/include/core_cmFunc.h" 1
 130 001a 83F31188 		MSR basepri, r3
 131              	@ 0 "" 2
 132              		.thumb
 133 001e 7047     		bx	lr
 134              	.LVL6:
 135              	.L8:
 136              	.LBE81:
 137              	.LBE80:
 138              	.LBE79:
 139              	.LBE78:
 140              	.LBE77:
 141              		.loc 1 103 0
 142 0020 427F     		ldrb	r2, [r0, #29]	@ zero_extendqisi2
 143 0022 02F00302 		and	r2, r2, #3
 144 0026 012A     		cmp	r2, #1
 145 0028 0BD0     		beq	.L4
 146 002a 022A     		cmp	r2, #2
 147 002c F4D1     		bne	.L3
 148              		.loc 1 116 0
 149 002e 4269     		ldr	r2, [r0, #20]
 150 0030 0069     		ldr	r0, [r0, #16]
 151              	.LVL7:
 152 0032 1061     		str	r0, [r2, #16]
 153 0034 0869     		ldr	r0, [r1, #16]
 154 0036 4261     		str	r2, [r0, #20]
 155              	.LVL8:
 156              	.LBB82:
 157              	.LBB83:
 158              	.LBB84:
 159              	.LBB85:
 160              	.LBB86:
 161              		.loc 2 548 0
 162              	@ 548 "ChibiOS_16.1.4/os/ext/CMSIS/include/core_cmFunc.h" 1
 163 0038 83F31188 		MSR basepri, r3
 164              	@ 0 "" 2
 165              		.thumb
 166              	.LBE86:
 167              	.LBE85:
 168              	.LBE84:
 169              	.LBE83:
 170              	.LBE82:
 171              		.loc 1 119 0
ARM GAS  /var/folders/m4/4md61f0s1_g0rzfghffqnxvr0000gn/T//ccv3R7jd.s 			page 4


 172 003c 486C     		ldr	r0, [r1, #68]
 173 003e FFF7FEBF 		b	chPoolFree
 174              	.LVL9:
 175              	.L4:
 176              		.loc 1 107 0
 177 0042 4269     		ldr	r2, [r0, #20]
 178              		.loc 1 91 0
 179 0044 10B4     		push	{r4}
 180              		.cfi_def_cfa_offset 4
 181              		.cfi_offset 4, -4
 182              		.loc 1 107 0
 183 0046 0469     		ldr	r4, [r0, #16]
 184 0048 1461     		str	r4, [r2, #16]
 185 004a 0169     		ldr	r1, [r0, #16]
 186 004c 4A61     		str	r2, [r1, #20]
 187              	.LVL10:
 188              	.LBB87:
 189              	.LBB88:
 190              	.LBB89:
 191              	.LBB90:
 192              	.LBB91:
 193              		.loc 2 548 0
 194              	@ 548 "ChibiOS_16.1.4/os/ext/CMSIS/include/core_cmFunc.h" 1
 195 004e 83F31188 		MSR basepri, r3
 196              	@ 0 "" 2
 197              		.thumb
 198              	.LBE91:
 199              	.LBE90:
 200              	.LBE89:
 201              	.LBE88:
 202              	.LBE87:
 203              		.loc 1 129 0
 204 0052 5DF8044B 		ldr	r4, [sp], #4
 205              		.cfi_restore 4
 206              		.cfi_def_cfa_offset 0
 207              		.loc 1 110 0
 208 0056 FFF7FEBF 		b	chHeapFree
 209              	.LVL11:
 210              		.cfi_endproc
 211              	.LFE232:
 212              		.size	chThdRelease, .-chThdRelease
 213 005a 00BF     		.section	.text.chThdCreateFromHeap,"ax",%progbits
 214              		.align	2
 215              		.p2align 4,,15
 216              		.global	chThdCreateFromHeap
 217              		.thumb
 218              		.thumb_func
 219              		.type	chThdCreateFromHeap, %function
 220              	chThdCreateFromHeap:
 221              	.LFB233:
 222              		.loc 1 155 0
 223              		.cfi_startproc
 224              		@ args = 4, pretend = 0, frame = 0
 225              		@ frame_needed = 0, uses_anonymous_args = 0
 226              	.LVL12:
 227 0000 F0B5     		push	{r4, r5, r6, r7, lr}
 228              		.cfi_def_cfa_offset 20
ARM GAS  /var/folders/m4/4md61f0s1_g0rzfghffqnxvr0000gn/T//ccv3R7jd.s 			page 5


 229              		.cfi_offset 4, -20
 230              		.cfi_offset 5, -16
 231              		.cfi_offset 6, -12
 232              		.cfi_offset 7, -8
 233              		.cfi_offset 14, -4
 234 0002 83B0     		sub	sp, sp, #12
 235              		.cfi_def_cfa_offset 32
 236              		.loc 1 155 0
 237 0004 1646     		mov	r6, r2
 238 0006 1D46     		mov	r5, r3
 239 0008 0F46     		mov	r7, r1
 240              		.loc 1 159 0
 241 000a FFF7FEFF 		bl	chHeapAlloc
 242              	.LVL13:
 243              		.loc 1 160 0
 244 000e 98B1     		cbz	r0, .L10
 245              	.LVL14:
 246              	.LBB92:
 247              	.LBB93:
 248              	.LBB94:
 249              	.LBB95:
 250              		.loc 2 548 0
 251 0010 2023     		movs	r3, #32
 252              	@ 548 "ChibiOS_16.1.4/os/ext/CMSIS/include/core_cmFunc.h" 1
 253 0012 83F31188 		MSR basepri, r3
 254              	@ 0 "" 2
 255              		.thumb
 256              	.LBE95:
 257              	.LBE94:
 258              	.LBE93:
 259              	.LBE92:
 260              		.loc 1 174 0
 261 0016 089B     		ldr	r3, [sp, #32]
 262 0018 0093     		str	r3, [sp]
 263 001a 3946     		mov	r1, r7
 264 001c 3246     		mov	r2, r6
 265 001e 2B46     		mov	r3, r5
 266 0020 FFF7FEFF 		bl	chThdCreateI
 267              	.LVL15:
 268              		.loc 1 175 0
 269 0024 0123     		movs	r3, #1
 270 0026 4377     		strb	r3, [r0, #29]
 271              		.loc 1 176 0
 272 0028 0021     		movs	r1, #0
 273              		.loc 1 174 0
 274 002a 0446     		mov	r4, r0
 275              	.LVL16:
 276              		.loc 1 176 0
 277 002c FFF7FEFF 		bl	chSchWakeupS
 278              	.LVL17:
 279              	.LBB96:
 280              	.LBB97:
 281              	.LBB98:
 282              	.LBB99:
 283              	.LBB100:
 284              		.loc 2 548 0
 285 0030 0023     		movs	r3, #0
ARM GAS  /var/folders/m4/4md61f0s1_g0rzfghffqnxvr0000gn/T//ccv3R7jd.s 			page 6


 286              	@ 548 "ChibiOS_16.1.4/os/ext/CMSIS/include/core_cmFunc.h" 1
 287 0032 83F31188 		MSR basepri, r3
 288              	@ 0 "" 2
 289              		.thumb
 290              	.LBE100:
 291              	.LBE99:
 292              	.LBE98:
 293              	.LBE97:
 294              	.LBE96:
 295              		.loc 1 179 0
 296 0036 2046     		mov	r0, r4
 297              	.LVL18:
 298              	.L10:
 299              		.loc 1 180 0
 300 0038 03B0     		add	sp, sp, #12
 301              		.cfi_def_cfa_offset 20
 302              		@ sp needed
 303 003a F0BD     		pop	{r4, r5, r6, r7, pc}
 304              		.cfi_endproc
 305              	.LFE233:
 306              		.size	chThdCreateFromHeap, .-chThdCreateFromHeap
 307              		.section	.text.chThdCreateFromMemoryPool,"ax",%progbits
 308              		.align	2
 309              		.p2align 4,,15
 310              		.global	chThdCreateFromMemoryPool
 311              		.thumb
 312              		.thumb_func
 313              		.type	chThdCreateFromMemoryPool, %function
 314              	chThdCreateFromMemoryPool:
 315              	.LFB234:
 316              		.loc 1 207 0
 317              		.cfi_startproc
 318              		@ args = 0, pretend = 0, frame = 0
 319              		@ frame_needed = 0, uses_anonymous_args = 0
 320              	.LVL19:
 321 0000 2DE9F041 		push	{r4, r5, r6, r7, r8, lr}
 322              		.cfi_def_cfa_offset 24
 323              		.cfi_offset 4, -24
 324              		.cfi_offset 5, -20
 325              		.cfi_offset 6, -16
 326              		.cfi_offset 7, -12
 327              		.cfi_offset 8, -8
 328              		.cfi_offset 14, -4
 329 0004 82B0     		sub	sp, sp, #8
 330              		.cfi_def_cfa_offset 32
 331              		.loc 1 207 0
 332 0006 0F46     		mov	r7, r1
 333 0008 1646     		mov	r6, r2
 334 000a 9846     		mov	r8, r3
 335 000c 0546     		mov	r5, r0
 336              		.loc 1 213 0
 337 000e FFF7FEFF 		bl	chPoolAlloc
 338              	.LVL20:
 339              		.loc 1 214 0
 340 0012 A0B1     		cbz	r0, .L14
 341              	.LVL21:
 342              	.LBB101:
ARM GAS  /var/folders/m4/4md61f0s1_g0rzfghffqnxvr0000gn/T//ccv3R7jd.s 			page 7


 343              	.LBB102:
 344              	.LBB103:
 345              	.LBB104:
 346              		.loc 2 548 0
 347 0014 2023     		movs	r3, #32
 348              	@ 548 "ChibiOS_16.1.4/os/ext/CMSIS/include/core_cmFunc.h" 1
 349 0016 83F31188 		MSR basepri, r3
 350              	@ 0 "" 2
 351              		.thumb
 352              	.LBE104:
 353              	.LBE103:
 354              	.LBE102:
 355              	.LBE101:
 356              		.loc 1 228 0
 357 001a 6968     		ldr	r1, [r5, #4]
 358 001c CDF80080 		str	r8, [sp]
 359 0020 3A46     		mov	r2, r7
 360 0022 3346     		mov	r3, r6
 361 0024 FFF7FEFF 		bl	chThdCreateI
 362              	.LVL22:
 363              		.loc 1 229 0
 364 0028 0223     		movs	r3, #2
 365 002a 4377     		strb	r3, [r0, #29]
 366              		.loc 1 230 0
 367 002c 4564     		str	r5, [r0, #68]
 368              		.loc 1 231 0
 369 002e 0021     		movs	r1, #0
 370              		.loc 1 228 0
 371 0030 0446     		mov	r4, r0
 372              	.LVL23:
 373              		.loc 1 231 0
 374 0032 FFF7FEFF 		bl	chSchWakeupS
 375              	.LVL24:
 376              	.LBB105:
 377              	.LBB106:
 378              	.LBB107:
 379              	.LBB108:
 380              	.LBB109:
 381              		.loc 2 548 0
 382 0036 0023     		movs	r3, #0
 383              	@ 548 "ChibiOS_16.1.4/os/ext/CMSIS/include/core_cmFunc.h" 1
 384 0038 83F31188 		MSR basepri, r3
 385              	@ 0 "" 2
 386              		.thumb
 387              	.LBE109:
 388              	.LBE108:
 389              	.LBE107:
 390              	.LBE106:
 391              	.LBE105:
 392              		.loc 1 234 0
 393 003c 2046     		mov	r0, r4
 394              	.LVL25:
 395              	.L14:
 396              		.loc 1 235 0
 397 003e 02B0     		add	sp, sp, #8
 398              		.cfi_def_cfa_offset 24
 399              		@ sp needed
ARM GAS  /var/folders/m4/4md61f0s1_g0rzfghffqnxvr0000gn/T//ccv3R7jd.s 			page 8


 400 0040 BDE8F081 		pop	{r4, r5, r6, r7, r8, pc}
 401              		.cfi_endproc
 402              	.LFE234:
 403              		.size	chThdCreateFromMemoryPool, .-chThdCreateFromMemoryPool
 404              		.text
 405              	.Letext0:
 406              		.file 3 "/usr/local/Cellar/gcc-arm-none-eabi-49/20150609/lib/gcc/arm-none-eabi/4.9.3/include/stdde
 407              		.file 4 "/usr/local/Cellar/gcc-arm-none-eabi-49/20150609/arm-none-eabi/include/machine/_default_ty
 408              		.file 5 "/usr/local/Cellar/gcc-arm-none-eabi-49/20150609/arm-none-eabi/include/sys/_stdint.h"
 409              		.file 6 "ChibiOS_16.1.4/os/rt/ports/ARMCMx/compilers/GCC/chtypes.h"
 410              		.file 7 "ChibiOS_16.1.4/os/rt/include/chsystypes.h"
 411              		.file 8 "ChibiOS_16.1.4/os/rt/include/chschd.h"
 412              		.file 9 "ChibiOS_16.1.4/os/rt/ports/ARMCMx/chcore.h"
 413              		.file 10 "ChibiOS_16.1.4/os/rt/ports/ARMCMx/chcore_v7m.h"
 414              		.file 11 "ChibiOS_16.1.4/os/rt/include/chtm.h"
 415              		.file 12 "ChibiOS_16.1.4/os/rt/include/chsem.h"
 416              		.file 13 "ChibiOS_16.1.4/os/rt/include/chmtx.h"
 417              		.file 14 "ChibiOS_16.1.4/os/rt/include/chthreads.h"
 418              		.file 15 "ChibiOS_16.1.4/os/rt/include/chmemcore.h"
 419              		.file 16 "ChibiOS_16.1.4/os/rt/include/chheap.h"
 420              		.file 17 "ChibiOS_16.1.4/os/rt/include/chmempools.h"
 421              		.file 18 "ChibiOS_16.1.4/os/rt/include/chsys.h"
 422              		.file 19 "ChibiOS_16.1.4/os/ext/CMSIS/include/core_cm4.h"
 423              		.section	.debug_info,"",%progbits
 424              	.Ldebug_info0:
 425 0000 730E0000 		.4byte	0xe73
 426 0004 0400     		.2byte	0x4
 427 0006 00000000 		.4byte	.Ldebug_abbrev0
 428 000a 04       		.byte	0x4
 429 000b 01       		.uleb128 0x1
 430 000c 1C030000 		.4byte	.LASF141
 431 0010 01       		.byte	0x1
 432 0011 AB000000 		.4byte	.LASF142
 433 0015 00000000 		.4byte	.LASF143
 434 0019 00000000 		.4byte	.Ldebug_ranges0+0
 435 001d 00000000 		.4byte	0
 436 0021 00000000 		.4byte	.Ldebug_line0
 437 0025 02       		.uleb128 0x2
 438 0026 04       		.byte	0x4
 439 0027 05       		.byte	0x5
 440 0028 696E7400 		.ascii	"int\000"
 441 002c 03       		.uleb128 0x3
 442 002d 41000000 		.4byte	.LASF2
 443 0031 03       		.byte	0x3
 444 0032 D4       		.byte	0xd4
 445 0033 37000000 		.4byte	0x37
 446 0037 04       		.uleb128 0x4
 447 0038 04       		.byte	0x4
 448 0039 07       		.byte	0x7
 449 003a 47020000 		.4byte	.LASF0
 450 003e 04       		.uleb128 0x4
 451 003f 01       		.byte	0x1
 452 0040 06       		.byte	0x6
 453 0041 34010000 		.4byte	.LASF1
 454 0045 03       		.uleb128 0x3
 455 0046 58000000 		.4byte	.LASF3
 456 004a 04       		.byte	0x4
ARM GAS  /var/folders/m4/4md61f0s1_g0rzfghffqnxvr0000gn/T//ccv3R7jd.s 			page 9


 457 004b 1D       		.byte	0x1d
 458 004c 50000000 		.4byte	0x50
 459 0050 04       		.uleb128 0x4
 460 0051 01       		.byte	0x1
 461 0052 08       		.byte	0x8
 462 0053 1C050000 		.4byte	.LASF4
 463 0057 04       		.uleb128 0x4
 464 0058 02       		.byte	0x2
 465 0059 05       		.byte	0x5
 466 005a 40050000 		.4byte	.LASF5
 467 005e 04       		.uleb128 0x4
 468 005f 02       		.byte	0x2
 469 0060 07       		.byte	0x7
 470 0061 92020000 		.4byte	.LASF6
 471 0065 03       		.uleb128 0x3
 472 0066 FB020000 		.4byte	.LASF7
 473 006a 04       		.byte	0x4
 474 006b 3F       		.byte	0x3f
 475 006c 70000000 		.4byte	0x70
 476 0070 04       		.uleb128 0x4
 477 0071 04       		.byte	0x4
 478 0072 05       		.byte	0x5
 479 0073 9B010000 		.4byte	.LASF8
 480 0077 03       		.uleb128 0x3
 481 0078 39060000 		.4byte	.LASF9
 482 007c 04       		.byte	0x4
 483 007d 41       		.byte	0x41
 484 007e 82000000 		.4byte	0x82
 485 0082 04       		.uleb128 0x4
 486 0083 04       		.byte	0x4
 487 0084 07       		.byte	0x7
 488 0085 EA050000 		.4byte	.LASF10
 489 0089 04       		.uleb128 0x4
 490 008a 08       		.byte	0x8
 491 008b 05       		.byte	0x5
 492 008c 26010000 		.4byte	.LASF11
 493 0090 03       		.uleb128 0x3
 494 0091 C5040000 		.4byte	.LASF12
 495 0095 04       		.byte	0x4
 496 0096 5B       		.byte	0x5b
 497 0097 9B000000 		.4byte	0x9b
 498 009b 04       		.uleb128 0x4
 499 009c 08       		.byte	0x8
 500 009d 07       		.byte	0x7
 501 009e 94000000 		.4byte	.LASF13
 502 00a2 03       		.uleb128 0x3
 503 00a3 C5060000 		.4byte	.LASF14
 504 00a7 05       		.byte	0x5
 505 00a8 14       		.byte	0x14
 506 00a9 45000000 		.4byte	0x45
 507 00ad 03       		.uleb128 0x3
 508 00ae 14050000 		.4byte	.LASF15
 509 00b2 05       		.byte	0x5
 510 00b3 1F       		.byte	0x1f
 511 00b4 65000000 		.4byte	0x65
 512 00b8 03       		.uleb128 0x3
 513 00b9 BD050000 		.4byte	.LASF16
ARM GAS  /var/folders/m4/4md61f0s1_g0rzfghffqnxvr0000gn/T//ccv3R7jd.s 			page 10


 514 00bd 05       		.byte	0x5
 515 00be 20       		.byte	0x20
 516 00bf 77000000 		.4byte	0x77
 517 00c3 03       		.uleb128 0x3
 518 00c4 4F000000 		.4byte	.LASF17
 519 00c8 05       		.byte	0x5
 520 00c9 26       		.byte	0x26
 521 00ca 90000000 		.4byte	0x90
 522 00ce 03       		.uleb128 0x3
 523 00cf 8D060000 		.4byte	.LASF18
 524 00d3 06       		.byte	0x6
 525 00d4 39       		.byte	0x39
 526 00d5 B8000000 		.4byte	0xb8
 527 00d9 03       		.uleb128 0x3
 528 00da D9020000 		.4byte	.LASF19
 529 00de 06       		.byte	0x6
 530 00df 3C       		.byte	0x3c
 531 00e0 A2000000 		.4byte	0xa2
 532 00e4 03       		.uleb128 0x3
 533 00e5 B8010000 		.4byte	.LASF20
 534 00e9 06       		.byte	0x6
 535 00ea 3D       		.byte	0x3d
 536 00eb A2000000 		.4byte	0xa2
 537 00ef 03       		.uleb128 0x3
 538 00f0 D8040000 		.4byte	.LASF21
 539 00f4 06       		.byte	0x6
 540 00f5 3E       		.byte	0x3e
 541 00f6 A2000000 		.4byte	0xa2
 542 00fa 03       		.uleb128 0x3
 543 00fb 74010000 		.4byte	.LASF22
 544 00ff 06       		.byte	0x6
 545 0100 3F       		.byte	0x3f
 546 0101 A2000000 		.4byte	0xa2
 547 0105 03       		.uleb128 0x3
 548 0106 FC040000 		.4byte	.LASF23
 549 010a 06       		.byte	0x6
 550 010b 40       		.byte	0x40
 551 010c B8000000 		.4byte	0xb8
 552 0110 03       		.uleb128 0x3
 553 0111 C7020000 		.4byte	.LASF24
 554 0115 06       		.byte	0x6
 555 0116 41       		.byte	0x41
 556 0117 AD000000 		.4byte	0xad
 557 011b 03       		.uleb128 0x3
 558 011c EF020000 		.4byte	.LASF25
 559 0120 06       		.byte	0x6
 560 0121 43       		.byte	0x43
 561 0122 B8000000 		.4byte	0xb8
 562 0126 03       		.uleb128 0x3
 563 0127 41020000 		.4byte	.LASF26
 564 012b 06       		.byte	0x6
 565 012c 45       		.byte	0x45
 566 012d AD000000 		.4byte	0xad
 567 0131 03       		.uleb128 0x3
 568 0132 1B060000 		.4byte	.LASF27
 569 0136 07       		.byte	0x7
 570 0137 33       		.byte	0x33
ARM GAS  /var/folders/m4/4md61f0s1_g0rzfghffqnxvr0000gn/T//ccv3R7jd.s 			page 11


 571 0138 B8000000 		.4byte	0xb8
 572 013c 03       		.uleb128 0x3
 573 013d 0B060000 		.4byte	.LASF28
 574 0141 07       		.byte	0x7
 575 0142 3F       		.byte	0x3f
 576 0143 47010000 		.4byte	0x147
 577 0147 05       		.uleb128 0x5
 578 0148 A5020000 		.4byte	.LASF50
 579 014c 48       		.byte	0x48
 580 014d 08       		.byte	0x8
 581 014e C2       		.byte	0xc2
 582 014f 4C020000 		.4byte	0x24c
 583 0153 06       		.uleb128 0x6
 584 0154 6A050000 		.4byte	.LASF29
 585 0158 08       		.byte	0x8
 586 0159 C3       		.byte	0xc3
 587 015a 57020000 		.4byte	0x257
 588 015e 00       		.byte	0
 589 015f 06       		.uleb128 0x6
 590 0160 F5040000 		.4byte	.LASF30
 591 0164 08       		.byte	0x8
 592 0165 C5       		.byte	0xc5
 593 0166 57020000 		.4byte	0x257
 594 016a 04       		.byte	0x4
 595 016b 06       		.uleb128 0x6
 596 016c 1F010000 		.4byte	.LASF31
 597 0170 08       		.byte	0x8
 598 0171 C7       		.byte	0xc7
 599 0172 05010000 		.4byte	0x105
 600 0176 08       		.byte	0x8
 601 0177 06       		.uleb128 0x6
 602 0178 27070000 		.4byte	.LASF32
 603 017c 08       		.byte	0x8
 604 017d C8       		.byte	0xc8
 605 017e 87040000 		.4byte	0x487
 606 0182 0C       		.byte	0xc
 607 0183 06       		.uleb128 0x6
 608 0184 CF010000 		.4byte	.LASF33
 609 0188 08       		.byte	0x8
 610 0189 CA       		.byte	0xca
 611 018a 57020000 		.4byte	0x257
 612 018e 10       		.byte	0x10
 613 018f 06       		.uleb128 0x6
 614 0190 8A040000 		.4byte	.LASF34
 615 0194 08       		.byte	0x8
 616 0195 CB       		.byte	0xcb
 617 0196 57020000 		.4byte	0x257
 618 019a 14       		.byte	0x14
 619 019b 06       		.uleb128 0x6
 620 019c F6060000 		.4byte	.LASF35
 621 01a0 08       		.byte	0x8
 622 01a1 D2       		.byte	0xd2
 623 01a2 D5060000 		.4byte	0x6d5
 624 01a6 18       		.byte	0x18
 625 01a7 06       		.uleb128 0x6
 626 01a8 4A050000 		.4byte	.LASF36
 627 01ac 08       		.byte	0x8
ARM GAS  /var/folders/m4/4md61f0s1_g0rzfghffqnxvr0000gn/T//ccv3R7jd.s 			page 12


 628 01ad DD       		.byte	0xdd
 629 01ae E4000000 		.4byte	0xe4
 630 01b2 1C       		.byte	0x1c
 631 01b3 06       		.uleb128 0x6
 632 01b4 71050000 		.4byte	.LASF37
 633 01b8 08       		.byte	0x8
 634 01b9 E1       		.byte	0xe1
 635 01ba D9000000 		.4byte	0xd9
 636 01be 1D       		.byte	0x1d
 637 01bf 06       		.uleb128 0x6
 638 01c0 B8060000 		.4byte	.LASF38
 639 01c4 08       		.byte	0x8
 640 01c5 E6       		.byte	0xe6
 641 01c6 EF000000 		.4byte	0xef
 642 01ca 1E       		.byte	0x1e
 643 01cb 06       		.uleb128 0x6
 644 01cc 52050000 		.4byte	.LASF39
 645 01d0 08       		.byte	0x8
 646 01d1 EC       		.byte	0xec
 647 01d2 FA000000 		.4byte	0xfa
 648 01d6 1F       		.byte	0x1f
 649 01d7 06       		.uleb128 0x6
 650 01d8 5C020000 		.4byte	.LASF40
 651 01dc 08       		.byte	0x8
 652 01dd F3       		.byte	0xf3
 653 01de E7060000 		.4byte	0x6e7
 654 01e2 20       		.byte	0x20
 655 01e3 07       		.uleb128 0x7
 656 01e4 705F7500 		.ascii	"p_u\000"
 657 01e8 08       		.byte	0x8
 658 01e9 3101     		.2byte	0x131
 659 01eb 10060000 		.4byte	0x610
 660 01ef 24       		.byte	0x24
 661 01f0 08       		.uleb128 0x8
 662 01f1 3E040000 		.4byte	.LASF41
 663 01f5 08       		.byte	0x8
 664 01f6 3601     		.2byte	0x136
 665 01f8 5D020000 		.4byte	0x25d
 666 01fc 28       		.byte	0x28
 667 01fd 08       		.uleb128 0x8
 668 01fe 73020000 		.4byte	.LASF42
 669 0202 08       		.byte	0x8
 670 0203 3C01     		.2byte	0x13c
 671 0205 81020000 		.4byte	0x281
 672 0209 2C       		.byte	0x2c
 673 020a 08       		.uleb128 0x8
 674 020b 19070000 		.4byte	.LASF43
 675 020f 08       		.byte	0x8
 676 0210 4001     		.2byte	0x140
 677 0212 10010000 		.4byte	0x110
 678 0216 34       		.byte	0x34
 679 0217 08       		.uleb128 0x8
 680 0218 B2050000 		.4byte	.LASF44
 681 021c 08       		.byte	0x8
 682 021d 4601     		.2byte	0x146
 683 021f 1B010000 		.4byte	0x11b
 684 0223 38       		.byte	0x38
ARM GAS  /var/folders/m4/4md61f0s1_g0rzfghffqnxvr0000gn/T//ccv3R7jd.s 			page 13


 685 0224 08       		.uleb128 0x8
 686 0225 36050000 		.4byte	.LASF45
 687 0229 08       		.byte	0x8
 688 022a 4D01     		.2byte	0x14d
 689 022c CF060000 		.4byte	0x6cf
 690 0230 3C       		.byte	0x3c
 691 0231 08       		.uleb128 0x8
 692 0232 25060000 		.4byte	.LASF46
 693 0236 08       		.byte	0x8
 694 0237 5101     		.2byte	0x151
 695 0239 05010000 		.4byte	0x105
 696 023d 40       		.byte	0x40
 697 023e 08       		.uleb128 0x8
 698 023f 46010000 		.4byte	.LASF47
 699 0243 08       		.byte	0x8
 700 0244 5801     		.2byte	0x158
 701 0246 34030000 		.4byte	0x334
 702 024a 44       		.byte	0x44
 703 024b 00       		.byte	0
 704 024c 03       		.uleb128 0x3
 705 024d 51040000 		.4byte	.LASF48
 706 0251 07       		.byte	0x7
 707 0252 44       		.byte	0x44
 708 0253 57020000 		.4byte	0x257
 709 0257 09       		.uleb128 0x9
 710 0258 04       		.byte	0x4
 711 0259 3C010000 		.4byte	0x13c
 712 025d 03       		.uleb128 0x3
 713 025e 7B040000 		.4byte	.LASF49
 714 0262 07       		.byte	0x7
 715 0263 49       		.byte	0x49
 716 0264 68020000 		.4byte	0x268
 717 0268 05       		.uleb128 0x5
 718 0269 D5050000 		.4byte	.LASF51
 719 026d 04       		.byte	0x4
 720 026e 08       		.byte	0x8
 721 026f B0       		.byte	0xb0
 722 0270 81020000 		.4byte	0x281
 723 0274 06       		.uleb128 0x6
 724 0275 6A050000 		.4byte	.LASF29
 725 0279 08       		.byte	0x8
 726 027a B1       		.byte	0xb1
 727 027b 57020000 		.4byte	0x257
 728 027f 00       		.byte	0
 729 0280 00       		.byte	0
 730 0281 03       		.uleb128 0x3
 731 0282 9C060000 		.4byte	.LASF52
 732 0286 07       		.byte	0x7
 733 0287 50       		.byte	0x50
 734 0288 8C020000 		.4byte	0x28c
 735 028c 05       		.uleb128 0x5
 736 028d 0E010000 		.4byte	.LASF53
 737 0291 08       		.byte	0x8
 738 0292 08       		.byte	0x8
 739 0293 B7       		.byte	0xb7
 740 0294 B1020000 		.4byte	0x2b1
 741 0298 06       		.uleb128 0x6
ARM GAS  /var/folders/m4/4md61f0s1_g0rzfghffqnxvr0000gn/T//ccv3R7jd.s 			page 14


 742 0299 6A050000 		.4byte	.LASF29
 743 029d 08       		.byte	0x8
 744 029e B8       		.byte	0xb8
 745 029f 57020000 		.4byte	0x257
 746 02a3 00       		.byte	0
 747 02a4 06       		.uleb128 0x6
 748 02a5 F5040000 		.4byte	.LASF30
 749 02a9 08       		.byte	0x8
 750 02aa B9       		.byte	0xb9
 751 02ab 57020000 		.4byte	0x257
 752 02af 04       		.byte	0x4
 753 02b0 00       		.byte	0
 754 02b1 03       		.uleb128 0x3
 755 02b2 34000000 		.4byte	.LASF54
 756 02b6 07       		.byte	0x7
 757 02b7 57       		.byte	0x57
 758 02b8 BC020000 		.4byte	0x2bc
 759 02bc 0A       		.uleb128 0xa
 760 02bd E1020000 		.4byte	.LASF55
 761 02c1 1C       		.byte	0x1c
 762 02c2 08       		.byte	0x8
 763 02c3 9001     		.2byte	0x190
 764 02c5 18030000 		.4byte	0x318
 765 02c9 08       		.uleb128 0x8
 766 02ca CD050000 		.4byte	.LASF56
 767 02ce 08       		.byte	0x8
 768 02cf 9101     		.2byte	0x191
 769 02d1 81020000 		.4byte	0x281
 770 02d5 00       		.byte	0
 771 02d6 08       		.uleb128 0x8
 772 02d7 5C050000 		.4byte	.LASF57
 773 02db 08       		.byte	0x8
 774 02dc 9201     		.2byte	0x192
 775 02de 05010000 		.4byte	0x105
 776 02e2 08       		.byte	0x8
 777 02e3 08       		.uleb128 0x8
 778 02e4 92040000 		.4byte	.LASF58
 779 02e8 08       		.byte	0x8
 780 02e9 9401     		.2byte	0x194
 781 02eb 87040000 		.4byte	0x487
 782 02ef 0C       		.byte	0xc
 783 02f0 08       		.uleb128 0x8
 784 02f1 F9010000 		.4byte	.LASF59
 785 02f5 08       		.byte	0x8
 786 02f6 9701     		.2byte	0x197
 787 02f8 57020000 		.4byte	0x257
 788 02fc 10       		.byte	0x10
 789 02fd 08       		.uleb128 0x8
 790 02fe BD040000 		.4byte	.LASF60
 791 0302 08       		.byte	0x8
 792 0303 9801     		.2byte	0x198
 793 0305 57020000 		.4byte	0x257
 794 0309 14       		.byte	0x14
 795 030a 08       		.uleb128 0x8
 796 030b FC050000 		.4byte	.LASF61
 797 030f 08       		.byte	0x8
 798 0310 9B01     		.2byte	0x19b
ARM GAS  /var/folders/m4/4md61f0s1_g0rzfghffqnxvr0000gn/T//ccv3R7jd.s 			page 15


 799 0312 57020000 		.4byte	0x257
 800 0316 18       		.byte	0x18
 801 0317 00       		.byte	0
 802 0318 03       		.uleb128 0x3
 803 0319 30060000 		.4byte	.LASF62
 804 031d 07       		.byte	0x7
 805 031e 5C       		.byte	0x5c
 806 031f 23030000 		.4byte	0x323
 807 0323 09       		.uleb128 0x9
 808 0324 04       		.byte	0x4
 809 0325 29030000 		.4byte	0x329
 810 0329 0B       		.uleb128 0xb
 811 032a 34030000 		.4byte	0x334
 812 032e 0C       		.uleb128 0xc
 813 032f 34030000 		.4byte	0x334
 814 0333 00       		.byte	0
 815 0334 0D       		.uleb128 0xd
 816 0335 04       		.byte	0x4
 817 0336 03       		.uleb128 0x3
 818 0337 E5040000 		.4byte	.LASF63
 819 033b 07       		.byte	0x7
 820 033c 61       		.byte	0x61
 821 033d 41030000 		.4byte	0x341
 822 0341 0A       		.uleb128 0xa
 823 0342 7C060000 		.4byte	.LASF64
 824 0346 14       		.byte	0x14
 825 0347 08       		.byte	0x8
 826 0348 6B01     		.2byte	0x16b
 827 034a 90030000 		.4byte	0x390
 828 034e 08       		.uleb128 0x8
 829 034f 54020000 		.4byte	.LASF65
 830 0353 08       		.byte	0x8
 831 0354 6C01     		.2byte	0x16c
 832 0356 EC060000 		.4byte	0x6ec
 833 035a 00       		.byte	0
 834 035b 08       		.uleb128 0x8
 835 035c 16020000 		.4byte	.LASF66
 836 0360 08       		.byte	0x8
 837 0361 6D01     		.2byte	0x16d
 838 0363 EC060000 		.4byte	0x6ec
 839 0367 04       		.byte	0x4
 840 0368 08       		.uleb128 0x8
 841 0369 6A020000 		.4byte	.LASF67
 842 036d 08       		.byte	0x8
 843 036e 6E01     		.2byte	0x16e
 844 0370 31010000 		.4byte	0x131
 845 0374 08       		.byte	0x8
 846 0375 08       		.uleb128 0x8
 847 0376 2D070000 		.4byte	.LASF68
 848 037a 08       		.byte	0x8
 849 037b 6F01     		.2byte	0x16f
 850 037d 18030000 		.4byte	0x318
 851 0381 0C       		.byte	0xc
 852 0382 08       		.uleb128 0x8
 853 0383 95060000 		.4byte	.LASF69
 854 0387 08       		.byte	0x8
 855 0388 7101     		.2byte	0x171
ARM GAS  /var/folders/m4/4md61f0s1_g0rzfghffqnxvr0000gn/T//ccv3R7jd.s 			page 16


 856 038a 34030000 		.4byte	0x334
 857 038e 10       		.byte	0x10
 858 038f 00       		.byte	0
 859 0390 03       		.uleb128 0x3
 860 0391 E0000000 		.4byte	.LASF70
 861 0395 07       		.byte	0x7
 862 0396 66       		.byte	0x66
 863 0397 9B030000 		.4byte	0x39b
 864 039b 0A       		.uleb128 0xa
 865 039c 64040000 		.4byte	.LASF71
 866 03a0 10       		.byte	0x10
 867 03a1 08       		.byte	0x8
 868 03a2 7B01     		.2byte	0x17b
 869 03a4 DD030000 		.4byte	0x3dd
 870 03a8 08       		.uleb128 0x8
 871 03a9 54020000 		.4byte	.LASF65
 872 03ad 08       		.byte	0x8
 873 03ae 7C01     		.2byte	0x17c
 874 03b0 EC060000 		.4byte	0x6ec
 875 03b4 00       		.byte	0
 876 03b5 08       		.uleb128 0x8
 877 03b6 16020000 		.4byte	.LASF66
 878 03ba 08       		.byte	0x8
 879 03bb 7E01     		.2byte	0x17e
 880 03bd EC060000 		.4byte	0x6ec
 881 03c1 04       		.byte	0x4
 882 03c2 08       		.uleb128 0x8
 883 03c3 6A020000 		.4byte	.LASF67
 884 03c7 08       		.byte	0x8
 885 03c8 8001     		.2byte	0x180
 886 03ca 31010000 		.4byte	0x131
 887 03ce 08       		.byte	0x8
 888 03cf 08       		.uleb128 0x8
 889 03d0 02070000 		.4byte	.LASF72
 890 03d4 08       		.byte	0x8
 891 03d5 8201     		.2byte	0x182
 892 03d7 E7060000 		.4byte	0x6e7
 893 03db 0C       		.byte	0xc
 894 03dc 00       		.byte	0
 895 03dd 03       		.uleb128 0x3
 896 03de 6E000000 		.4byte	.LASF73
 897 03e2 07       		.byte	0x7
 898 03e3 6B       		.byte	0x6b
 899 03e4 E8030000 		.4byte	0x3e8
 900 03e8 0A       		.uleb128 0xa
 901 03e9 04050000 		.4byte	.LASF74
 902 03ed 04       		.byte	0x4
 903 03ee 08       		.byte	0x8
 904 03ef A201     		.2byte	0x1a2
 905 03f1 03040000 		.4byte	0x403
 906 03f5 08       		.uleb128 0x8
 907 03f6 52060000 		.4byte	.LASF75
 908 03fa 08       		.byte	0x8
 909 03fb AA01     		.2byte	0x1aa
 910 03fd F2060000 		.4byte	0x6f2
 911 0401 00       		.byte	0
 912 0402 00       		.byte	0
ARM GAS  /var/folders/m4/4md61f0s1_g0rzfghffqnxvr0000gn/T//ccv3R7jd.s 			page 17


 913 0403 03       		.uleb128 0x3
 914 0404 CD020000 		.4byte	.LASF76
 915 0408 07       		.byte	0x7
 916 0409 70       		.byte	0x70
 917 040a 0E040000 		.4byte	0x40e
 918 040e 0E       		.uleb128 0xe
 919 040f 91010000 		.4byte	.LASF77
 920 0413 5802     		.2byte	0x258
 921 0415 08       		.byte	0x8
 922 0416 C201     		.2byte	0x1c2
 923 0418 6A040000 		.4byte	0x46a
 924 041c 08       		.uleb128 0x8
 925 041d BF060000 		.4byte	.LASF78
 926 0421 08       		.byte	0x8
 927 0422 C601     		.2byte	0x1c6
 928 0424 B1020000 		.4byte	0x2b1
 929 0428 00       		.byte	0
 930 0429 08       		.uleb128 0x8
 931 042a 61010000 		.4byte	.LASF79
 932 042e 08       		.byte	0x8
 933 042f CA01     		.2byte	0x1ca
 934 0431 90030000 		.4byte	0x390
 935 0435 1C       		.byte	0x1c
 936 0436 07       		.uleb128 0x7
 937 0437 64626700 		.ascii	"dbg\000"
 938 043b 08       		.byte	0x8
 939 043c CE01     		.2byte	0x1ce
 940 043e DD030000 		.4byte	0x3dd
 941 0442 2C       		.byte	0x2c
 942 0443 08       		.uleb128 0x8
 943 0444 BC020000 		.4byte	.LASF80
 944 0448 08       		.byte	0x8
 945 0449 D201     		.2byte	0x1d2
 946 044b 3C010000 		.4byte	0x13c
 947 044f 30       		.byte	0x30
 948 0450 07       		.uleb128 0x7
 949 0451 746D00   		.ascii	"tm\000"
 950 0454 08       		.byte	0x8
 951 0455 D701     		.2byte	0x1d7
 952 0457 05060000 		.4byte	0x605
 953 045b 78       		.byte	0x78
 954 045c 08       		.uleb128 0x8
 955 045d 32020000 		.4byte	.LASF81
 956 0461 08       		.byte	0x8
 957 0462 E301     		.2byte	0x1e3
 958 0464 F7060000 		.4byte	0x6f7
 959 0468 80       		.byte	0x80
 960 0469 00       		.byte	0
 961 046a 04       		.uleb128 0x4
 962 046b 04       		.byte	0x4
 963 046c 07       		.byte	0x7
 964 046d 48040000 		.4byte	.LASF82
 965 0471 03       		.uleb128 0x3
 966 0472 0D020000 		.4byte	.LASF83
 967 0476 09       		.byte	0x9
 968 0477 65       		.byte	0x65
 969 0478 34030000 		.4byte	0x334
ARM GAS  /var/folders/m4/4md61f0s1_g0rzfghffqnxvr0000gn/T//ccv3R7jd.s 			page 18


 970 047c 03       		.uleb128 0x3
 971 047d 11030000 		.4byte	.LASF84
 972 0481 09       		.byte	0x9
 973 0482 6D       		.byte	0x6d
 974 0483 C3000000 		.4byte	0xc3
 975 0487 05       		.uleb128 0x5
 976 0488 74060000 		.4byte	.LASF85
 977 048c 04       		.byte	0x4
 978 048d 09       		.byte	0x9
 979 048e 89       		.byte	0x89
 980 048f A0040000 		.4byte	0x4a0
 981 0493 0F       		.uleb128 0xf
 982 0494 72313300 		.ascii	"r13\000"
 983 0498 09       		.byte	0x9
 984 0499 8A       		.byte	0x8a
 985 049a EA050000 		.4byte	0x5ea
 986 049e 00       		.byte	0
 987 049f 00       		.byte	0
 988 04a0 05       		.uleb128 0x5
 989 04a1 62000000 		.4byte	.LASF86
 990 04a5 64       		.byte	0x64
 991 04a6 0A       		.byte	0xa
 992 04a7 FD       		.byte	0xfd
 993 04a8 EA050000 		.4byte	0x5ea
 994 04ac 0F       		.uleb128 0xf
 995 04ad 73313600 		.ascii	"s16\000"
 996 04b1 0A       		.byte	0xa
 997 04b2 FF       		.byte	0xff
 998 04b3 71040000 		.4byte	0x471
 999 04b7 00       		.byte	0
 1000 04b8 07       		.uleb128 0x7
 1001 04b9 73313700 		.ascii	"s17\000"
 1002 04bd 0A       		.byte	0xa
 1003 04be 0001     		.2byte	0x100
 1004 04c0 71040000 		.4byte	0x471
 1005 04c4 04       		.byte	0x4
 1006 04c5 07       		.uleb128 0x7
 1007 04c6 73313800 		.ascii	"s18\000"
 1008 04ca 0A       		.byte	0xa
 1009 04cb 0101     		.2byte	0x101
 1010 04cd 71040000 		.4byte	0x471
 1011 04d1 08       		.byte	0x8
 1012 04d2 07       		.uleb128 0x7
 1013 04d3 73313900 		.ascii	"s19\000"
 1014 04d7 0A       		.byte	0xa
 1015 04d8 0201     		.2byte	0x102
 1016 04da 71040000 		.4byte	0x471
 1017 04de 0C       		.byte	0xc
 1018 04df 07       		.uleb128 0x7
 1019 04e0 73323000 		.ascii	"s20\000"
 1020 04e4 0A       		.byte	0xa
 1021 04e5 0301     		.2byte	0x103
 1022 04e7 71040000 		.4byte	0x471
 1023 04eb 10       		.byte	0x10
 1024 04ec 07       		.uleb128 0x7
 1025 04ed 73323100 		.ascii	"s21\000"
 1026 04f1 0A       		.byte	0xa
ARM GAS  /var/folders/m4/4md61f0s1_g0rzfghffqnxvr0000gn/T//ccv3R7jd.s 			page 19


 1027 04f2 0401     		.2byte	0x104
 1028 04f4 71040000 		.4byte	0x471
 1029 04f8 14       		.byte	0x14
 1030 04f9 07       		.uleb128 0x7
 1031 04fa 73323200 		.ascii	"s22\000"
 1032 04fe 0A       		.byte	0xa
 1033 04ff 0501     		.2byte	0x105
 1034 0501 71040000 		.4byte	0x471
 1035 0505 18       		.byte	0x18
 1036 0506 07       		.uleb128 0x7
 1037 0507 73323300 		.ascii	"s23\000"
 1038 050b 0A       		.byte	0xa
 1039 050c 0601     		.2byte	0x106
 1040 050e 71040000 		.4byte	0x471
 1041 0512 1C       		.byte	0x1c
 1042 0513 07       		.uleb128 0x7
 1043 0514 73323400 		.ascii	"s24\000"
 1044 0518 0A       		.byte	0xa
 1045 0519 0701     		.2byte	0x107
 1046 051b 71040000 		.4byte	0x471
 1047 051f 20       		.byte	0x20
 1048 0520 07       		.uleb128 0x7
 1049 0521 73323500 		.ascii	"s25\000"
 1050 0525 0A       		.byte	0xa
 1051 0526 0801     		.2byte	0x108
 1052 0528 71040000 		.4byte	0x471
 1053 052c 24       		.byte	0x24
 1054 052d 07       		.uleb128 0x7
 1055 052e 73323600 		.ascii	"s26\000"
 1056 0532 0A       		.byte	0xa
 1057 0533 0901     		.2byte	0x109
 1058 0535 71040000 		.4byte	0x471
 1059 0539 28       		.byte	0x28
 1060 053a 07       		.uleb128 0x7
 1061 053b 73323700 		.ascii	"s27\000"
 1062 053f 0A       		.byte	0xa
 1063 0540 0A01     		.2byte	0x10a
 1064 0542 71040000 		.4byte	0x471
 1065 0546 2C       		.byte	0x2c
 1066 0547 07       		.uleb128 0x7
 1067 0548 73323800 		.ascii	"s28\000"
 1068 054c 0A       		.byte	0xa
 1069 054d 0B01     		.2byte	0x10b
 1070 054f 71040000 		.4byte	0x471
 1071 0553 30       		.byte	0x30
 1072 0554 07       		.uleb128 0x7
 1073 0555 73323900 		.ascii	"s29\000"
 1074 0559 0A       		.byte	0xa
 1075 055a 0C01     		.2byte	0x10c
 1076 055c 71040000 		.4byte	0x471
 1077 0560 34       		.byte	0x34
 1078 0561 07       		.uleb128 0x7
 1079 0562 73333000 		.ascii	"s30\000"
 1080 0566 0A       		.byte	0xa
 1081 0567 0D01     		.2byte	0x10d
 1082 0569 71040000 		.4byte	0x471
 1083 056d 38       		.byte	0x38
ARM GAS  /var/folders/m4/4md61f0s1_g0rzfghffqnxvr0000gn/T//ccv3R7jd.s 			page 20


 1084 056e 07       		.uleb128 0x7
 1085 056f 73333100 		.ascii	"s31\000"
 1086 0573 0A       		.byte	0xa
 1087 0574 0E01     		.2byte	0x10e
 1088 0576 71040000 		.4byte	0x471
 1089 057a 3C       		.byte	0x3c
 1090 057b 07       		.uleb128 0x7
 1091 057c 723400   		.ascii	"r4\000"
 1092 057f 0A       		.byte	0xa
 1093 0580 1001     		.2byte	0x110
 1094 0582 71040000 		.4byte	0x471
 1095 0586 40       		.byte	0x40
 1096 0587 07       		.uleb128 0x7
 1097 0588 723500   		.ascii	"r5\000"
 1098 058b 0A       		.byte	0xa
 1099 058c 1101     		.2byte	0x111
 1100 058e 71040000 		.4byte	0x471
 1101 0592 44       		.byte	0x44
 1102 0593 07       		.uleb128 0x7
 1103 0594 723600   		.ascii	"r6\000"
 1104 0597 0A       		.byte	0xa
 1105 0598 1201     		.2byte	0x112
 1106 059a 71040000 		.4byte	0x471
 1107 059e 48       		.byte	0x48
 1108 059f 07       		.uleb128 0x7
 1109 05a0 723700   		.ascii	"r7\000"
 1110 05a3 0A       		.byte	0xa
 1111 05a4 1301     		.2byte	0x113
 1112 05a6 71040000 		.4byte	0x471
 1113 05aa 4C       		.byte	0x4c
 1114 05ab 07       		.uleb128 0x7
 1115 05ac 723800   		.ascii	"r8\000"
 1116 05af 0A       		.byte	0xa
 1117 05b0 1401     		.2byte	0x114
 1118 05b2 71040000 		.4byte	0x471
 1119 05b6 50       		.byte	0x50
 1120 05b7 07       		.uleb128 0x7
 1121 05b8 723900   		.ascii	"r9\000"
 1122 05bb 0A       		.byte	0xa
 1123 05bc 1501     		.2byte	0x115
 1124 05be 71040000 		.4byte	0x471
 1125 05c2 54       		.byte	0x54
 1126 05c3 07       		.uleb128 0x7
 1127 05c4 72313000 		.ascii	"r10\000"
 1128 05c8 0A       		.byte	0xa
 1129 05c9 1601     		.2byte	0x116
 1130 05cb 71040000 		.4byte	0x471
 1131 05cf 58       		.byte	0x58
 1132 05d0 07       		.uleb128 0x7
 1133 05d1 72313100 		.ascii	"r11\000"
 1134 05d5 0A       		.byte	0xa
 1135 05d6 1701     		.2byte	0x117
 1136 05d8 71040000 		.4byte	0x471
 1137 05dc 5C       		.byte	0x5c
 1138 05dd 07       		.uleb128 0x7
 1139 05de 6C7200   		.ascii	"lr\000"
 1140 05e1 0A       		.byte	0xa
ARM GAS  /var/folders/m4/4md61f0s1_g0rzfghffqnxvr0000gn/T//ccv3R7jd.s 			page 21


 1141 05e2 1801     		.2byte	0x118
 1142 05e4 71040000 		.4byte	0x471
 1143 05e8 60       		.byte	0x60
 1144 05e9 00       		.byte	0
 1145 05ea 09       		.uleb128 0x9
 1146 05eb 04       		.byte	0x4
 1147 05ec A0040000 		.4byte	0x4a0
 1148 05f0 10       		.uleb128 0x10
 1149 05f1 04       		.byte	0x4
 1150 05f2 0B       		.byte	0xb
 1151 05f3 38       		.byte	0x38
 1152 05f4 05060000 		.4byte	0x605
 1153 05f8 06       		.uleb128 0x6
 1154 05f9 5C060000 		.4byte	.LASF87
 1155 05fd 0B       		.byte	0xb
 1156 05fe 3C       		.byte	0x3c
 1157 05ff CE000000 		.4byte	0xce
 1158 0603 00       		.byte	0
 1159 0604 00       		.byte	0
 1160 0605 03       		.uleb128 0x3
 1161 0606 A7040000 		.4byte	.LASF88
 1162 060a 0B       		.byte	0xb
 1163 060b 3D       		.byte	0x3d
 1164 060c F0050000 		.4byte	0x5f0
 1165 0610 11       		.uleb128 0x11
 1166 0611 04       		.byte	0x4
 1167 0612 08       		.byte	0x8
 1168 0613 FA       		.byte	0xfa
 1169 0614 6D060000 		.4byte	0x66d
 1170 0618 12       		.uleb128 0x12
 1171 0619 48000000 		.4byte	.LASF89
 1172 061d 08       		.byte	0x8
 1173 061e 0101     		.2byte	0x101
 1174 0620 10010000 		.4byte	0x110
 1175 0624 12       		.uleb128 0x12
 1176 0625 D0000000 		.4byte	.LASF90
 1177 0629 08       		.byte	0x8
 1178 062a 0801     		.2byte	0x108
 1179 062c 10010000 		.4byte	0x110
 1180 0630 12       		.uleb128 0x12
 1181 0631 EF060000 		.4byte	.LASF91
 1182 0635 08       		.byte	0x8
 1183 0636 0F01     		.2byte	0x10f
 1184 0638 34030000 		.4byte	0x334
 1185 063c 12       		.uleb128 0x12
 1186 063d 8B010000 		.4byte	.LASF92
 1187 0641 08       		.byte	0x8
 1188 0642 1601     		.2byte	0x116
 1189 0644 6D060000 		.4byte	0x66d
 1190 0648 12       		.uleb128 0x12
 1191 0649 63020000 		.4byte	.LASF93
 1192 064d 08       		.byte	0x8
 1193 064e 1E01     		.2byte	0x11e
 1194 0650 98060000 		.4byte	0x698
 1195 0654 12       		.uleb128 0x12
 1196 0655 C6050000 		.4byte	.LASF94
 1197 0659 08       		.byte	0x8
ARM GAS  /var/folders/m4/4md61f0s1_g0rzfghffqnxvr0000gn/T//ccv3R7jd.s 			page 22


 1198 065a 2701     		.2byte	0x127
 1199 065c CF060000 		.4byte	0x6cf
 1200 0660 12       		.uleb128 0x12
 1201 0661 63050000 		.4byte	.LASF95
 1202 0665 08       		.byte	0x8
 1203 0666 2F01     		.2byte	0x12f
 1204 0668 1B010000 		.4byte	0x11b
 1205 066c 00       		.byte	0
 1206 066d 09       		.uleb128 0x9
 1207 066e 04       		.byte	0x4
 1208 066f 4C020000 		.4byte	0x24c
 1209 0673 05       		.uleb128 0x5
 1210 0674 A5050000 		.4byte	.LASF96
 1211 0678 0C       		.byte	0xc
 1212 0679 0C       		.byte	0xc
 1213 067a 34       		.byte	0x34
 1214 067b 98060000 		.4byte	0x698
 1215 067f 06       		.uleb128 0x6
 1216 0680 D7010000 		.4byte	.LASF97
 1217 0684 0C       		.byte	0xc
 1218 0685 35       		.byte	0x35
 1219 0686 81020000 		.4byte	0x281
 1220 068a 00       		.byte	0
 1221 068b 06       		.uleb128 0x6
 1222 068c 8C020000 		.4byte	.LASF98
 1223 0690 0C       		.byte	0xc
 1224 0691 37       		.byte	0x37
 1225 0692 26010000 		.4byte	0x126
 1226 0696 08       		.byte	0x8
 1227 0697 00       		.byte	0
 1228 0698 09       		.uleb128 0x9
 1229 0699 04       		.byte	0x4
 1230 069a 73060000 		.4byte	0x673
 1231 069e 05       		.uleb128 0x5
 1232 069f 63060000 		.4byte	.LASF99
 1233 06a3 10       		.byte	0x10
 1234 06a4 0D       		.byte	0xd
 1235 06a5 39       		.byte	0x39
 1236 06a6 CF060000 		.4byte	0x6cf
 1237 06aa 06       		.uleb128 0x6
 1238 06ab 4E010000 		.4byte	.LASF100
 1239 06af 0D       		.byte	0xd
 1240 06b0 3A       		.byte	0x3a
 1241 06b1 81020000 		.4byte	0x281
 1242 06b5 00       		.byte	0
 1243 06b6 06       		.uleb128 0x6
 1244 06b7 1F070000 		.4byte	.LASF101
 1245 06bb 0D       		.byte	0xd
 1246 06bc 3C       		.byte	0x3c
 1247 06bd 57020000 		.4byte	0x257
 1248 06c1 08       		.byte	0x8
 1249 06c2 06       		.uleb128 0x6
 1250 06c3 14060000 		.4byte	.LASF102
 1251 06c7 0D       		.byte	0xd
 1252 06c8 3E       		.byte	0x3e
 1253 06c9 1D070000 		.4byte	0x71d
 1254 06cd 0C       		.byte	0xc
ARM GAS  /var/folders/m4/4md61f0s1_g0rzfghffqnxvr0000gn/T//ccv3R7jd.s 			page 23


 1255 06ce 00       		.byte	0
 1256 06cf 09       		.uleb128 0x9
 1257 06d0 04       		.byte	0x4
 1258 06d1 9E060000 		.4byte	0x69e
 1259 06d5 09       		.uleb128 0x9
 1260 06d6 04       		.byte	0x4
 1261 06d7 DB060000 		.4byte	0x6db
 1262 06db 13       		.uleb128 0x13
 1263 06dc E0060000 		.4byte	0x6e0
 1264 06e0 04       		.uleb128 0x4
 1265 06e1 01       		.byte	0x1
 1266 06e2 08       		.byte	0x8
 1267 06e3 06060000 		.4byte	.LASF103
 1268 06e7 14       		.uleb128 0x14
 1269 06e8 31010000 		.4byte	0x131
 1270 06ec 09       		.uleb128 0x9
 1271 06ed 04       		.byte	0x4
 1272 06ee 36030000 		.4byte	0x336
 1273 06f2 14       		.uleb128 0x14
 1274 06f3 D5060000 		.4byte	0x6d5
 1275 06f7 15       		.uleb128 0x15
 1276 06f8 7C040000 		.4byte	0x47c
 1277 06fc 07070000 		.4byte	0x707
 1278 0700 16       		.uleb128 0x16
 1279 0701 6A040000 		.4byte	0x46a
 1280 0705 3A       		.byte	0x3a
 1281 0706 00       		.byte	0
 1282 0707 03       		.uleb128 0x3
 1283 0708 2C000000 		.4byte	.LASF104
 1284 070c 0E       		.byte	0xe
 1285 070d 34       		.byte	0x34
 1286 070e 23030000 		.4byte	0x323
 1287 0712 03       		.uleb128 0x3
 1288 0713 1E020000 		.4byte	.LASF105
 1289 0717 0D       		.byte	0xd
 1290 0718 34       		.byte	0x34
 1291 0719 9E060000 		.4byte	0x69e
 1292 071d 09       		.uleb128 0x9
 1293 071e 04       		.byte	0x4
 1294 071f 12070000 		.4byte	0x712
 1295 0723 03       		.uleb128 0x3
 1296 0724 87000000 		.4byte	.LASF106
 1297 0728 0F       		.byte	0xf
 1298 0729 34       		.byte	0x34
 1299 072a 2E070000 		.4byte	0x72e
 1300 072e 09       		.uleb128 0x9
 1301 072f 04       		.byte	0x4
 1302 0730 34070000 		.4byte	0x734
 1303 0734 17       		.uleb128 0x17
 1304 0735 34030000 		.4byte	0x334
 1305 0739 43070000 		.4byte	0x743
 1306 073d 0C       		.uleb128 0xc
 1307 073e 2C000000 		.4byte	0x2c
 1308 0742 00       		.byte	0
 1309 0743 03       		.uleb128 0x3
 1310 0744 C1010000 		.4byte	.LASF107
 1311 0748 10       		.byte	0x10
ARM GAS  /var/folders/m4/4md61f0s1_g0rzfghffqnxvr0000gn/T//ccv3R7jd.s 			page 24


 1312 0749 3C       		.byte	0x3c
 1313 074a 4E070000 		.4byte	0x74e
 1314 074e 05       		.uleb128 0x5
 1315 074f 35070000 		.4byte	.LASF108
 1316 0753 20       		.byte	0x20
 1317 0754 10       		.byte	0x10
 1318 0755 4F       		.byte	0x4f
 1319 0756 7F070000 		.4byte	0x77f
 1320 075a 06       		.uleb128 0x6
 1321 075b E4060000 		.4byte	.LASF109
 1322 075f 10       		.byte	0x10
 1323 0760 50       		.byte	0x50
 1324 0761 23070000 		.4byte	0x723
 1325 0765 00       		.byte	0
 1326 0766 06       		.uleb128 0x6
 1327 0767 D9000000 		.4byte	.LASF110
 1328 076b 10       		.byte	0x10
 1329 076c 52       		.byte	0x52
 1330 076d 9E070000 		.4byte	0x79e
 1331 0771 08       		.byte	0x8
 1332 0772 06       		.uleb128 0x6
 1333 0773 40010000 		.4byte	.LASF111
 1334 0777 10       		.byte	0x10
 1335 0778 54       		.byte	0x54
 1336 0779 12070000 		.4byte	0x712
 1337 077d 10       		.byte	0x10
 1338 077e 00       		.byte	0
 1339 077f 11       		.uleb128 0x11
 1340 0780 04       		.byte	0x4
 1341 0781 10       		.byte	0x10
 1342 0782 44       		.byte	0x44
 1343 0783 9E070000 		.4byte	0x79e
 1344 0787 18       		.uleb128 0x18
 1345 0788 09010000 		.4byte	.LASF112
 1346 078c 10       		.byte	0x10
 1347 078d 45       		.byte	0x45
 1348 078e BF070000 		.4byte	0x7bf
 1349 0792 18       		.uleb128 0x18
 1350 0793 E5050000 		.4byte	.LASF113
 1351 0797 10       		.byte	0x10
 1352 0798 46       		.byte	0x46
 1353 0799 C5070000 		.4byte	0x7c5
 1354 079d 00       		.byte	0
 1355 079e 19       		.uleb128 0x19
 1356 079f 2A050000 		.4byte	.LASF144
 1357 07a3 08       		.byte	0x8
 1358 07a4 10       		.byte	0x10
 1359 07a5 41       		.byte	0x41
 1360 07a6 BF070000 		.4byte	0x7bf
 1361 07aa 18       		.uleb128 0x18
 1362 07ab 2C020000 		.4byte	.LASF114
 1363 07af 10       		.byte	0x10
 1364 07b0 42       		.byte	0x42
 1365 07b1 7C040000 		.4byte	0x47c
 1366 07b5 1A       		.uleb128 0x1a
 1367 07b6 6800     		.ascii	"h\000"
 1368 07b8 10       		.byte	0x10
ARM GAS  /var/folders/m4/4md61f0s1_g0rzfghffqnxvr0000gn/T//ccv3R7jd.s 			page 25


 1369 07b9 49       		.byte	0x49
 1370 07ba CB070000 		.4byte	0x7cb
 1371 07be 00       		.byte	0
 1372 07bf 09       		.uleb128 0x9
 1373 07c0 04       		.byte	0x4
 1374 07c1 9E070000 		.4byte	0x79e
 1375 07c5 09       		.uleb128 0x9
 1376 07c6 04       		.byte	0x4
 1377 07c7 43070000 		.4byte	0x743
 1378 07cb 10       		.uleb128 0x10
 1379 07cc 08       		.byte	0x8
 1380 07cd 10       		.byte	0x10
 1381 07ce 43       		.byte	0x43
 1382 07cf EA070000 		.4byte	0x7ea
 1383 07d3 0F       		.uleb128 0xf
 1384 07d4 7500     		.ascii	"u\000"
 1385 07d6 10       		.byte	0x10
 1386 07d7 47       		.byte	0x47
 1387 07d8 7F070000 		.4byte	0x77f
 1388 07dc 00       		.byte	0
 1389 07dd 06       		.uleb128 0x6
 1390 07de FD060000 		.4byte	.LASF115
 1391 07e2 10       		.byte	0x10
 1392 07e3 48       		.byte	0x48
 1393 07e4 2C000000 		.4byte	0x2c
 1394 07e8 04       		.byte	0x4
 1395 07e9 00       		.byte	0
 1396 07ea 05       		.uleb128 0x5
 1397 07eb AC060000 		.4byte	.LASF116
 1398 07ef 04       		.byte	0x4
 1399 07f0 11       		.byte	0x11
 1400 07f1 38       		.byte	0x38
 1401 07f2 03080000 		.4byte	0x803
 1402 07f6 06       		.uleb128 0x6
 1403 07f7 D0040000 		.4byte	.LASF117
 1404 07fb 11       		.byte	0x11
 1405 07fc 39       		.byte	0x39
 1406 07fd 03080000 		.4byte	0x803
 1407 0801 00       		.byte	0
 1408 0802 00       		.byte	0
 1409 0803 09       		.uleb128 0x9
 1410 0804 04       		.byte	0x4
 1411 0805 EA070000 		.4byte	0x7ea
 1412 0809 10       		.uleb128 0x10
 1413 080a 0C       		.byte	0xc
 1414 080b 11       		.byte	0x11
 1415 080c 40       		.byte	0x40
 1416 080d 36080000 		.4byte	0x836
 1417 0811 06       		.uleb128 0x6
 1418 0812 6C060000 		.4byte	.LASF118
 1419 0816 11       		.byte	0x11
 1420 0817 41       		.byte	0x41
 1421 0818 03080000 		.4byte	0x803
 1422 081c 00       		.byte	0
 1423 081d 06       		.uleb128 0x6
 1424 081e 98040000 		.4byte	.LASF119
 1425 0822 11       		.byte	0x11
ARM GAS  /var/folders/m4/4md61f0s1_g0rzfghffqnxvr0000gn/T//ccv3R7jd.s 			page 26


 1426 0823 42       		.byte	0x42
 1427 0824 2C000000 		.4byte	0x2c
 1428 0828 04       		.byte	0x4
 1429 0829 06       		.uleb128 0x6
 1430 082a 01020000 		.4byte	.LASF120
 1431 082e 11       		.byte	0x11
 1432 082f 44       		.byte	0x44
 1433 0830 23070000 		.4byte	0x723
 1434 0834 08       		.byte	0x8
 1435 0835 00       		.byte	0
 1436 0836 03       		.uleb128 0x3
 1437 0837 7E020000 		.4byte	.LASF121
 1438 083b 11       		.byte	0x11
 1439 083c 46       		.byte	0x46
 1440 083d 09080000 		.4byte	0x809
 1441 0841 1B       		.uleb128 0x1b
 1442 0842 44060000 		.4byte	.LASF125
 1443 0846 02       		.byte	0x2
 1444 0847 2202     		.2byte	0x222
 1445 0849 03       		.byte	0x3
 1446 084a 5B080000 		.4byte	0x85b
 1447 084e 1C       		.uleb128 0x1c
 1448 084f 26020000 		.4byte	.LASF145
 1449 0853 02       		.byte	0x2
 1450 0854 2202     		.2byte	0x222
 1451 0856 B8000000 		.4byte	0xb8
 1452 085a 00       		.byte	0
 1453 085b 1D       		.uleb128 0x1d
 1454 085c 7D000000 		.4byte	.LASF122
 1455 0860 0A       		.byte	0xa
 1456 0861 C801     		.2byte	0x1c8
 1457 0863 03       		.byte	0x3
 1458 0864 1D       		.uleb128 0x1d
 1459 0865 68010000 		.4byte	.LASF123
 1460 0869 0A       		.byte	0xa
 1461 086a E001     		.2byte	0x1e0
 1462 086c 03       		.byte	0x3
 1463 086d 1D       		.uleb128 0x1d
 1464 086e 82050000 		.4byte	.LASF124
 1465 0872 12       		.byte	0x12
 1466 0873 5A01     		.2byte	0x15a
 1467 0875 03       		.byte	0x3
 1468 0876 1B       		.uleb128 0x1b
 1469 0877 0D070000 		.4byte	.LASF126
 1470 087b 12       		.byte	0x12
 1471 087c 6601     		.2byte	0x166
 1472 087e 03       		.byte	0x3
 1473 087f 91080000 		.4byte	0x891
 1474 0883 1E       		.uleb128 0x1e
 1475 0884 79050000 		.4byte	.LASF127
 1476 0888 A1080000 		.4byte	0x8a1
 1477 088c 0D070000 		.4byte	.LASF126
 1478 0890 00       		.byte	0
 1479 0891 15       		.uleb128 0x15
 1480 0892 E0060000 		.4byte	0x6e0
 1481 0896 A1080000 		.4byte	0x8a1
 1482 089a 16       		.uleb128 0x16
ARM GAS  /var/folders/m4/4md61f0s1_g0rzfghffqnxvr0000gn/T//ccv3R7jd.s 			page 27


 1483 089b 6A040000 		.4byte	0x46a
 1484 089f 0B       		.byte	0xb
 1485 08a0 00       		.byte	0
 1486 08a1 13       		.uleb128 0x13
 1487 08a2 91080000 		.4byte	0x891
 1488 08a6 1F       		.uleb128 0x1f
 1489 08a7 05030000 		.4byte	.LASF128
 1490 08ab 01       		.byte	0x1
 1491 08ac 44       		.byte	0x44
 1492 08ad 57020000 		.4byte	0x257
 1493 08b1 00000000 		.4byte	.LFB231
 1494 08b5 14000000 		.4byte	.LFE231-.LFB231
 1495 08b9 01       		.uleb128 0x1
 1496 08ba 9C       		.byte	0x9c
 1497 08bb 58090000 		.4byte	0x958
 1498 08bf 20       		.uleb128 0x20
 1499 08c0 747000   		.ascii	"tp\000"
 1500 08c3 01       		.byte	0x1
 1501 08c4 44       		.byte	0x44
 1502 08c5 57020000 		.4byte	0x257
 1503 08c9 01       		.uleb128 0x1
 1504 08ca 50       		.byte	0x50
 1505 08cb 21       		.uleb128 0x21
 1506 08cc 79050000 		.4byte	.LASF127
 1507 08d0 58090000 		.4byte	0x958
 1508 08d4 22       		.uleb128 0x22
 1509 08d5 6D080000 		.4byte	0x86d
 1510 08d9 00000000 		.4byte	.LBB64
 1511 08dd 06000000 		.4byte	.LBE64-.LBB64
 1512 08e1 01       		.byte	0x1
 1513 08e2 46       		.byte	0x46
 1514 08e3 10090000 		.4byte	0x910
 1515 08e7 23       		.uleb128 0x23
 1516 08e8 5B080000 		.4byte	0x85b
 1517 08ec 00000000 		.4byte	.LBB65
 1518 08f0 06000000 		.4byte	.LBE65-.LBB65
 1519 08f4 12       		.byte	0x12
 1520 08f5 5C01     		.2byte	0x15c
 1521 08f7 23       		.uleb128 0x23
 1522 08f8 41080000 		.4byte	0x841
 1523 08fc 00000000 		.4byte	.LBB66
 1524 0900 06000000 		.4byte	.LBE66-.LBB66
 1525 0904 0A       		.byte	0xa
 1526 0905 D001     		.2byte	0x1d0
 1527 0907 24       		.uleb128 0x24
 1528 0908 4E080000 		.4byte	0x84e
 1529 090c 20       		.byte	0x20
 1530 090d 00       		.byte	0
 1531 090e 00       		.byte	0
 1532 090f 00       		.byte	0
 1533 0910 25       		.uleb128 0x25
 1534 0911 76080000 		.4byte	0x876
 1535 0915 0C000000 		.4byte	.LBB68
 1536 0919 06000000 		.4byte	.LBE68-.LBB68
 1537 091d 01       		.byte	0x1
 1538 091e 49       		.byte	0x49
 1539 091f 26       		.uleb128 0x26
ARM GAS  /var/folders/m4/4md61f0s1_g0rzfghffqnxvr0000gn/T//ccv3R7jd.s 			page 28


 1540 0920 0C000000 		.4byte	.LBB69
 1541 0924 06000000 		.4byte	.LBE69-.LBB69
 1542 0928 27       		.uleb128 0x27
 1543 0929 83080000 		.4byte	0x883
 1544 092d 23       		.uleb128 0x23
 1545 092e 64080000 		.4byte	0x864
 1546 0932 0C000000 		.4byte	.LBB70
 1547 0936 06000000 		.4byte	.LBE70-.LBB70
 1548 093a 12       		.byte	0x12
 1549 093b 7301     		.2byte	0x173
 1550 093d 23       		.uleb128 0x23
 1551 093e 41080000 		.4byte	0x841
 1552 0942 0C000000 		.4byte	.LBB71
 1553 0946 06000000 		.4byte	.LBE71-.LBB71
 1554 094a 0A       		.byte	0xa
 1555 094b E301     		.2byte	0x1e3
 1556 094d 24       		.uleb128 0x24
 1557 094e 4E080000 		.4byte	0x84e
 1558 0952 00       		.byte	0
 1559 0953 00       		.byte	0
 1560 0954 00       		.byte	0
 1561 0955 00       		.byte	0
 1562 0956 00       		.byte	0
 1563 0957 00       		.byte	0
 1564 0958 13       		.uleb128 0x13
 1565 0959 91080000 		.4byte	0x891
 1566 095d 28       		.uleb128 0x28
 1567 095e 8C050000 		.4byte	.LASF146
 1568 0962 01       		.byte	0x1
 1569 0963 5B       		.byte	0x5b
 1570 0964 00000000 		.4byte	.LFB232
 1571 0968 5A000000 		.4byte	.LFE232-.LFB232
 1572 096c 01       		.uleb128 0x1
 1573 096d 9C       		.byte	0x9c
 1574 096e E20A0000 		.4byte	0xae2
 1575 0972 29       		.uleb128 0x29
 1576 0973 747000   		.ascii	"tp\000"
 1577 0976 01       		.byte	0x1
 1578 0977 5B       		.byte	0x5b
 1579 0978 57020000 		.4byte	0x257
 1580 097c 00000000 		.4byte	.LLST0
 1581 0980 2A       		.uleb128 0x2a
 1582 0981 E0040000 		.4byte	.LASF132
 1583 0985 01       		.byte	0x1
 1584 0986 5C       		.byte	0x5c
 1585 0987 EF000000 		.4byte	0xef
 1586 098b 45000000 		.4byte	.LLST1
 1587 098f 21       		.uleb128 0x21
 1588 0990 79050000 		.4byte	.LASF127
 1589 0994 F20A0000 		.4byte	0xaf2
 1590 0998 22       		.uleb128 0x22
 1591 0999 6D080000 		.4byte	0x86d
 1592 099d 02000000 		.4byte	.LBB73
 1593 09a1 06000000 		.4byte	.LBE73-.LBB73
 1594 09a5 01       		.byte	0x1
 1595 09a6 5E       		.byte	0x5e
 1596 09a7 D4090000 		.4byte	0x9d4
ARM GAS  /var/folders/m4/4md61f0s1_g0rzfghffqnxvr0000gn/T//ccv3R7jd.s 			page 29


 1597 09ab 23       		.uleb128 0x23
 1598 09ac 5B080000 		.4byte	0x85b
 1599 09b0 02000000 		.4byte	.LBB74
 1600 09b4 06000000 		.4byte	.LBE74-.LBB74
 1601 09b8 12       		.byte	0x12
 1602 09b9 5C01     		.2byte	0x15c
 1603 09bb 23       		.uleb128 0x23
 1604 09bc 41080000 		.4byte	0x841
 1605 09c0 02000000 		.4byte	.LBB75
 1606 09c4 06000000 		.4byte	.LBE75-.LBB75
 1607 09c8 0A       		.byte	0xa
 1608 09c9 D001     		.2byte	0x1d0
 1609 09cb 24       		.uleb128 0x24
 1610 09cc 4E080000 		.4byte	0x84e
 1611 09d0 20       		.byte	0x20
 1612 09d1 00       		.byte	0
 1613 09d2 00       		.byte	0
 1614 09d3 00       		.byte	0
 1615 09d4 22       		.uleb128 0x22
 1616 09d5 76080000 		.4byte	0x876
 1617 09d9 18000000 		.4byte	.LBB77
 1618 09dd 08000000 		.4byte	.LBE77-.LBB77
 1619 09e1 01       		.byte	0x1
 1620 09e2 80       		.byte	0x80
 1621 09e3 220A0000 		.4byte	0xa22
 1622 09e7 26       		.uleb128 0x26
 1623 09e8 18000000 		.4byte	.LBB78
 1624 09ec 08000000 		.4byte	.LBE78-.LBB78
 1625 09f0 27       		.uleb128 0x27
 1626 09f1 83080000 		.4byte	0x883
 1627 09f5 23       		.uleb128 0x23
 1628 09f6 64080000 		.4byte	0x864
 1629 09fa 18000000 		.4byte	.LBB79
 1630 09fe 08000000 		.4byte	.LBE79-.LBB79
 1631 0a02 12       		.byte	0x12
 1632 0a03 7301     		.2byte	0x173
 1633 0a05 23       		.uleb128 0x23
 1634 0a06 41080000 		.4byte	0x841
 1635 0a0a 18000000 		.4byte	.LBB80
 1636 0a0e 08000000 		.4byte	.LBE80-.LBB80
 1637 0a12 0A       		.byte	0xa
 1638 0a13 E301     		.2byte	0x1e3
 1639 0a15 2B       		.uleb128 0x2b
 1640 0a16 4E080000 		.4byte	0x84e
 1641 0a1a 7A000000 		.4byte	.LLST2
 1642 0a1e 00       		.byte	0
 1643 0a1f 00       		.byte	0
 1644 0a20 00       		.byte	0
 1645 0a21 00       		.byte	0
 1646 0a22 22       		.uleb128 0x22
 1647 0a23 76080000 		.4byte	0x876
 1648 0a27 38000000 		.4byte	.LBB82
 1649 0a2b 04000000 		.4byte	.LBE82-.LBB82
 1650 0a2f 01       		.byte	0x1
 1651 0a30 76       		.byte	0x76
 1652 0a31 700A0000 		.4byte	0xa70
 1653 0a35 26       		.uleb128 0x26
ARM GAS  /var/folders/m4/4md61f0s1_g0rzfghffqnxvr0000gn/T//ccv3R7jd.s 			page 30


 1654 0a36 38000000 		.4byte	.LBB83
 1655 0a3a 04000000 		.4byte	.LBE83-.LBB83
 1656 0a3e 27       		.uleb128 0x27
 1657 0a3f 83080000 		.4byte	0x883
 1658 0a43 23       		.uleb128 0x23
 1659 0a44 64080000 		.4byte	0x864
 1660 0a48 38000000 		.4byte	.LBB84
 1661 0a4c 04000000 		.4byte	.LBE84-.LBB84
 1662 0a50 12       		.byte	0x12
 1663 0a51 7301     		.2byte	0x173
 1664 0a53 23       		.uleb128 0x23
 1665 0a54 41080000 		.4byte	0x841
 1666 0a58 38000000 		.4byte	.LBB85
 1667 0a5c 04000000 		.4byte	.LBE85-.LBB85
 1668 0a60 0A       		.byte	0xa
 1669 0a61 E301     		.2byte	0x1e3
 1670 0a63 2B       		.uleb128 0x2b
 1671 0a64 4E080000 		.4byte	0x84e
 1672 0a68 8E000000 		.4byte	.LLST3
 1673 0a6c 00       		.byte	0
 1674 0a6d 00       		.byte	0
 1675 0a6e 00       		.byte	0
 1676 0a6f 00       		.byte	0
 1677 0a70 22       		.uleb128 0x22
 1678 0a71 76080000 		.4byte	0x876
 1679 0a75 4E000000 		.4byte	.LBB87
 1680 0a79 04000000 		.4byte	.LBE87-.LBB87
 1681 0a7d 01       		.byte	0x1
 1682 0a7e 6D       		.byte	0x6d
 1683 0a7f BB0A0000 		.4byte	0xabb
 1684 0a83 26       		.uleb128 0x26
 1685 0a84 4E000000 		.4byte	.LBB88
 1686 0a88 04000000 		.4byte	.LBE88-.LBB88
 1687 0a8c 27       		.uleb128 0x27
 1688 0a8d 83080000 		.4byte	0x883
 1689 0a91 23       		.uleb128 0x23
 1690 0a92 64080000 		.4byte	0x864
 1691 0a96 4E000000 		.4byte	.LBB89
 1692 0a9a 04000000 		.4byte	.LBE89-.LBB89
 1693 0a9e 12       		.byte	0x12
 1694 0a9f 7301     		.2byte	0x173
 1695 0aa1 23       		.uleb128 0x23
 1696 0aa2 41080000 		.4byte	0x841
 1697 0aa6 4E000000 		.4byte	.LBB90
 1698 0aaa 04000000 		.4byte	.LBE90-.LBB90
 1699 0aae 0A       		.byte	0xa
 1700 0aaf E301     		.2byte	0x1e3
 1701 0ab1 24       		.uleb128 0x24
 1702 0ab2 4E080000 		.4byte	0x84e
 1703 0ab6 00       		.byte	0
 1704 0ab7 00       		.byte	0
 1705 0ab8 00       		.byte	0
 1706 0ab9 00       		.byte	0
 1707 0aba 00       		.byte	0
 1708 0abb 2C       		.uleb128 0x2c
 1709 0abc 42000000 		.4byte	.LVL9
 1710 0ac0 E40D0000 		.4byte	0xde4
ARM GAS  /var/folders/m4/4md61f0s1_g0rzfghffqnxvr0000gn/T//ccv3R7jd.s 			page 31


 1711 0ac4 D00A0000 		.4byte	0xad0
 1712 0ac8 2D       		.uleb128 0x2d
 1713 0ac9 01       		.uleb128 0x1
 1714 0aca 51       		.byte	0x51
 1715 0acb 03       		.uleb128 0x3
 1716 0acc F3       		.byte	0xf3
 1717 0acd 01       		.uleb128 0x1
 1718 0ace 50       		.byte	0x50
 1719 0acf 00       		.byte	0
 1720 0ad0 2E       		.uleb128 0x2e
 1721 0ad1 5A000000 		.4byte	.LVL11
 1722 0ad5 FA0D0000 		.4byte	0xdfa
 1723 0ad9 2D       		.uleb128 0x2d
 1724 0ada 01       		.uleb128 0x1
 1725 0adb 50       		.byte	0x50
 1726 0adc 03       		.uleb128 0x3
 1727 0add F3       		.byte	0xf3
 1728 0ade 01       		.uleb128 0x1
 1729 0adf 50       		.byte	0x50
 1730 0ae0 00       		.byte	0
 1731 0ae1 00       		.byte	0
 1732 0ae2 15       		.uleb128 0x15
 1733 0ae3 E0060000 		.4byte	0x6e0
 1734 0ae7 F20A0000 		.4byte	0xaf2
 1735 0aeb 16       		.uleb128 0x16
 1736 0aec 6A040000 		.4byte	0x46a
 1737 0af0 0C       		.byte	0xc
 1738 0af1 00       		.byte	0
 1739 0af2 13       		.uleb128 0x13
 1740 0af3 E20A0000 		.4byte	0xae2
 1741 0af7 1F       		.uleb128 0x1f
 1742 0af8 A4010000 		.4byte	.LASF129
 1743 0afc 01       		.byte	0x1
 1744 0afd 9A       		.byte	0x9a
 1745 0afe 57020000 		.4byte	0x257
 1746 0b02 00000000 		.4byte	.LFB233
 1747 0b06 3C000000 		.4byte	.LFE233-.LFB233
 1748 0b0a 01       		.uleb128 0x1
 1749 0b0b 9C       		.byte	0x9c
 1750 0b0c 5C0C0000 		.4byte	0xc5c
 1751 0b10 2F       		.uleb128 0x2f
 1752 0b11 03010000 		.4byte	.LASF130
 1753 0b15 01       		.byte	0x1
 1754 0b16 9A       		.byte	0x9a
 1755 0b17 C5070000 		.4byte	0x7c5
 1756 0b1b A2000000 		.4byte	.LLST4
 1757 0b1f 2F       		.uleb128 0x2f
 1758 0b20 FD060000 		.4byte	.LASF115
 1759 0b24 01       		.byte	0x1
 1760 0b25 9A       		.byte	0x9a
 1761 0b26 2C000000 		.4byte	0x2c
 1762 0b2a C3000000 		.4byte	.LLST5
 1763 0b2e 2F       		.uleb128 0x2f
 1764 0b2f B8040000 		.4byte	.LASF131
 1765 0b33 01       		.byte	0x1
 1766 0b34 9B       		.byte	0x9b
 1767 0b35 05010000 		.4byte	0x105
ARM GAS  /var/folders/m4/4md61f0s1_g0rzfghffqnxvr0000gn/T//ccv3R7jd.s 			page 32


 1768 0b39 E1000000 		.4byte	.LLST6
 1769 0b3d 29       		.uleb128 0x29
 1770 0b3e 706600   		.ascii	"pf\000"
 1771 0b41 01       		.byte	0x1
 1772 0b42 9B       		.byte	0x9b
 1773 0b43 07070000 		.4byte	0x707
 1774 0b47 FF000000 		.4byte	.LLST7
 1775 0b4b 20       		.uleb128 0x20
 1776 0b4c 61726700 		.ascii	"arg\000"
 1777 0b50 01       		.byte	0x1
 1778 0b51 9B       		.byte	0x9b
 1779 0b52 34030000 		.4byte	0x334
 1780 0b56 02       		.uleb128 0x2
 1781 0b57 91       		.byte	0x91
 1782 0b58 00       		.sleb128 0
 1783 0b59 30       		.uleb128 0x30
 1784 0b5a 77737000 		.ascii	"wsp\000"
 1785 0b5e 01       		.byte	0x1
 1786 0b5f 9C       		.byte	0x9c
 1787 0b60 34030000 		.4byte	0x334
 1788 0b64 1D010000 		.4byte	.LLST8
 1789 0b68 30       		.uleb128 0x30
 1790 0b69 747000   		.ascii	"tp\000"
 1791 0b6c 01       		.byte	0x1
 1792 0b6d 9D       		.byte	0x9d
 1793 0b6e 57020000 		.4byte	0x257
 1794 0b72 30010000 		.4byte	.LLST9
 1795 0b76 22       		.uleb128 0x22
 1796 0b77 6D080000 		.4byte	0x86d
 1797 0b7b 10000000 		.4byte	.LBB92
 1798 0b7f 06000000 		.4byte	.LBE92-.LBB92
 1799 0b83 01       		.byte	0x1
 1800 0b84 AD       		.byte	0xad
 1801 0b85 B50B0000 		.4byte	0xbb5
 1802 0b89 23       		.uleb128 0x23
 1803 0b8a 5B080000 		.4byte	0x85b
 1804 0b8e 10000000 		.4byte	.LBB93
 1805 0b92 06000000 		.4byte	.LBE93-.LBB93
 1806 0b96 12       		.byte	0x12
 1807 0b97 5C01     		.2byte	0x15c
 1808 0b99 23       		.uleb128 0x23
 1809 0b9a 41080000 		.4byte	0x841
 1810 0b9e 10000000 		.4byte	.LBB94
 1811 0ba2 06000000 		.4byte	.LBE94-.LBB94
 1812 0ba6 0A       		.byte	0xa
 1813 0ba7 D001     		.2byte	0x1d0
 1814 0ba9 2B       		.uleb128 0x2b
 1815 0baa 4E080000 		.4byte	0x84e
 1816 0bae 4E010000 		.4byte	.LLST10
 1817 0bb2 00       		.byte	0
 1818 0bb3 00       		.byte	0
 1819 0bb4 00       		.byte	0
 1820 0bb5 22       		.uleb128 0x22
 1821 0bb6 76080000 		.4byte	0x876
 1822 0bba 30000000 		.4byte	.LBB96
 1823 0bbe 06000000 		.4byte	.LBE96-.LBB96
 1824 0bc2 01       		.byte	0x1
ARM GAS  /var/folders/m4/4md61f0s1_g0rzfghffqnxvr0000gn/T//ccv3R7jd.s 			page 33


 1825 0bc3 B1       		.byte	0xb1
 1826 0bc4 030C0000 		.4byte	0xc03
 1827 0bc8 26       		.uleb128 0x26
 1828 0bc9 30000000 		.4byte	.LBB97
 1829 0bcd 06000000 		.4byte	.LBE97-.LBB97
 1830 0bd1 27       		.uleb128 0x27
 1831 0bd2 83080000 		.4byte	0x883
 1832 0bd6 23       		.uleb128 0x23
 1833 0bd7 64080000 		.4byte	0x864
 1834 0bdb 30000000 		.4byte	.LBB98
 1835 0bdf 06000000 		.4byte	.LBE98-.LBB98
 1836 0be3 12       		.byte	0x12
 1837 0be4 7301     		.2byte	0x173
 1838 0be6 23       		.uleb128 0x23
 1839 0be7 41080000 		.4byte	0x841
 1840 0beb 30000000 		.4byte	.LBB99
 1841 0bef 06000000 		.4byte	.LBE99-.LBB99
 1842 0bf3 0A       		.byte	0xa
 1843 0bf4 E301     		.2byte	0x1e3
 1844 0bf6 2B       		.uleb128 0x2b
 1845 0bf7 4E080000 		.4byte	0x84e
 1846 0bfb 63010000 		.4byte	.LLST11
 1847 0bff 00       		.byte	0
 1848 0c00 00       		.byte	0
 1849 0c01 00       		.byte	0
 1850 0c02 00       		.byte	0
 1851 0c03 31       		.uleb128 0x31
 1852 0c04 0E000000 		.4byte	.LVL13
 1853 0c08 0B0E0000 		.4byte	0xe0b
 1854 0c0c 1E0C0000 		.4byte	0xc1e
 1855 0c10 2D       		.uleb128 0x2d
 1856 0c11 01       		.uleb128 0x1
 1857 0c12 51       		.byte	0x51
 1858 0c13 02       		.uleb128 0x2
 1859 0c14 77       		.byte	0x77
 1860 0c15 00       		.sleb128 0
 1861 0c16 2D       		.uleb128 0x2d
 1862 0c17 01       		.uleb128 0x1
 1863 0c18 50       		.byte	0x50
 1864 0c19 03       		.uleb128 0x3
 1865 0c1a F3       		.byte	0xf3
 1866 0c1b 01       		.uleb128 0x1
 1867 0c1c 50       		.byte	0x50
 1868 0c1d 00       		.byte	0
 1869 0c1e 31       		.uleb128 0x31
 1870 0c1f 24000000 		.4byte	.LVL15
 1871 0c23 250E0000 		.4byte	0xe25
 1872 0c27 460C0000 		.4byte	0xc46
 1873 0c2b 2D       		.uleb128 0x2d
 1874 0c2c 01       		.uleb128 0x1
 1875 0c2d 53       		.byte	0x53
 1876 0c2e 02       		.uleb128 0x2
 1877 0c2f 75       		.byte	0x75
 1878 0c30 00       		.sleb128 0
 1879 0c31 2D       		.uleb128 0x2d
 1880 0c32 01       		.uleb128 0x1
 1881 0c33 52       		.byte	0x52
ARM GAS  /var/folders/m4/4md61f0s1_g0rzfghffqnxvr0000gn/T//ccv3R7jd.s 			page 34


 1882 0c34 02       		.uleb128 0x2
 1883 0c35 76       		.byte	0x76
 1884 0c36 00       		.sleb128 0
 1885 0c37 2D       		.uleb128 0x2d
 1886 0c38 01       		.uleb128 0x1
 1887 0c39 51       		.byte	0x51
 1888 0c3a 02       		.uleb128 0x2
 1889 0c3b 77       		.byte	0x77
 1890 0c3c 00       		.sleb128 0
 1891 0c3d 2D       		.uleb128 0x2d
 1892 0c3e 02       		.uleb128 0x2
 1893 0c3f 7D       		.byte	0x7d
 1894 0c40 00       		.sleb128 0
 1895 0c41 03       		.uleb128 0x3
 1896 0c42 91       		.byte	0x91
 1897 0c43 00       		.sleb128 0
 1898 0c44 06       		.byte	0x6
 1899 0c45 00       		.byte	0
 1900 0c46 32       		.uleb128 0x32
 1901 0c47 30000000 		.4byte	.LVL17
 1902 0c4b 4E0E0000 		.4byte	0xe4e
 1903 0c4f 2D       		.uleb128 0x2d
 1904 0c50 01       		.uleb128 0x1
 1905 0c51 51       		.byte	0x51
 1906 0c52 01       		.uleb128 0x1
 1907 0c53 30       		.byte	0x30
 1908 0c54 2D       		.uleb128 0x2d
 1909 0c55 01       		.uleb128 0x1
 1910 0c56 50       		.byte	0x50
 1911 0c57 02       		.uleb128 0x2
 1912 0c58 74       		.byte	0x74
 1913 0c59 00       		.sleb128 0
 1914 0c5a 00       		.byte	0
 1915 0c5b 00       		.byte	0
 1916 0c5c 1F       		.uleb128 0x1f
 1917 0c5d DF010000 		.4byte	.LASF133
 1918 0c61 01       		.byte	0x1
 1919 0c62 CE       		.byte	0xce
 1920 0c63 57020000 		.4byte	0x257
 1921 0c67 00000000 		.4byte	.LFB234
 1922 0c6b 44000000 		.4byte	.LFE234-.LFB234
 1923 0c6f 01       		.uleb128 0x1
 1924 0c70 9C       		.byte	0x9c
 1925 0c71 AD0D0000 		.4byte	0xdad
 1926 0c75 29       		.uleb128 0x29
 1927 0c76 6D7000   		.ascii	"mp\000"
 1928 0c79 01       		.byte	0x1
 1929 0c7a CE       		.byte	0xce
 1930 0c7b AD0D0000 		.4byte	0xdad
 1931 0c7f 77010000 		.4byte	.LLST12
 1932 0c83 2F       		.uleb128 0x2f
 1933 0c84 B8040000 		.4byte	.LASF131
 1934 0c88 01       		.byte	0x1
 1935 0c89 CE       		.byte	0xce
 1936 0c8a 05010000 		.4byte	0x105
 1937 0c8e 95010000 		.4byte	.LLST13
 1938 0c92 29       		.uleb128 0x29
ARM GAS  /var/folders/m4/4md61f0s1_g0rzfghffqnxvr0000gn/T//ccv3R7jd.s 			page 35


 1939 0c93 706600   		.ascii	"pf\000"
 1940 0c96 01       		.byte	0x1
 1941 0c97 CF       		.byte	0xcf
 1942 0c98 07070000 		.4byte	0x707
 1943 0c9c B3010000 		.4byte	.LLST14
 1944 0ca0 29       		.uleb128 0x29
 1945 0ca1 61726700 		.ascii	"arg\000"
 1946 0ca5 01       		.byte	0x1
 1947 0ca6 CF       		.byte	0xcf
 1948 0ca7 34030000 		.4byte	0x334
 1949 0cab D1010000 		.4byte	.LLST15
 1950 0caf 30       		.uleb128 0x30
 1951 0cb0 77737000 		.ascii	"wsp\000"
 1952 0cb4 01       		.byte	0x1
 1953 0cb5 D0       		.byte	0xd0
 1954 0cb6 34030000 		.4byte	0x334
 1955 0cba EF010000 		.4byte	.LLST16
 1956 0cbe 30       		.uleb128 0x30
 1957 0cbf 747000   		.ascii	"tp\000"
 1958 0cc2 01       		.byte	0x1
 1959 0cc3 D1       		.byte	0xd1
 1960 0cc4 57020000 		.4byte	0x257
 1961 0cc8 02020000 		.4byte	.LLST17
 1962 0ccc 21       		.uleb128 0x21
 1963 0ccd 79050000 		.4byte	.LASF127
 1964 0cd1 C30D0000 		.4byte	0xdc3
 1965 0cd5 22       		.uleb128 0x22
 1966 0cd6 6D080000 		.4byte	0x86d
 1967 0cda 14000000 		.4byte	.LBB101
 1968 0cde 06000000 		.4byte	.LBE101-.LBB101
 1969 0ce2 01       		.byte	0x1
 1970 0ce3 E3       		.byte	0xe3
 1971 0ce4 140D0000 		.4byte	0xd14
 1972 0ce8 23       		.uleb128 0x23
 1973 0ce9 5B080000 		.4byte	0x85b
 1974 0ced 14000000 		.4byte	.LBB102
 1975 0cf1 06000000 		.4byte	.LBE102-.LBB102
 1976 0cf5 12       		.byte	0x12
 1977 0cf6 5C01     		.2byte	0x15c
 1978 0cf8 23       		.uleb128 0x23
 1979 0cf9 41080000 		.4byte	0x841
 1980 0cfd 14000000 		.4byte	.LBB103
 1981 0d01 06000000 		.4byte	.LBE103-.LBB103
 1982 0d05 0A       		.byte	0xa
 1983 0d06 D001     		.2byte	0x1d0
 1984 0d08 2B       		.uleb128 0x2b
 1985 0d09 4E080000 		.4byte	0x84e
 1986 0d0d 20020000 		.4byte	.LLST18
 1987 0d11 00       		.byte	0
 1988 0d12 00       		.byte	0
 1989 0d13 00       		.byte	0
 1990 0d14 22       		.uleb128 0x22
 1991 0d15 76080000 		.4byte	0x876
 1992 0d19 36000000 		.4byte	.LBB105
 1993 0d1d 06000000 		.4byte	.LBE105-.LBB105
 1994 0d21 01       		.byte	0x1
 1995 0d22 E8       		.byte	0xe8
ARM GAS  /var/folders/m4/4md61f0s1_g0rzfghffqnxvr0000gn/T//ccv3R7jd.s 			page 36


 1996 0d23 620D0000 		.4byte	0xd62
 1997 0d27 26       		.uleb128 0x26
 1998 0d28 36000000 		.4byte	.LBB106
 1999 0d2c 06000000 		.4byte	.LBE106-.LBB106
 2000 0d30 27       		.uleb128 0x27
 2001 0d31 83080000 		.4byte	0x883
 2002 0d35 23       		.uleb128 0x23
 2003 0d36 64080000 		.4byte	0x864
 2004 0d3a 36000000 		.4byte	.LBB107
 2005 0d3e 06000000 		.4byte	.LBE107-.LBB107
 2006 0d42 12       		.byte	0x12
 2007 0d43 7301     		.2byte	0x173
 2008 0d45 23       		.uleb128 0x23
 2009 0d46 41080000 		.4byte	0x841
 2010 0d4a 36000000 		.4byte	.LBB108
 2011 0d4e 06000000 		.4byte	.LBE108-.LBB108
 2012 0d52 0A       		.byte	0xa
 2013 0d53 E301     		.2byte	0x1e3
 2014 0d55 2B       		.uleb128 0x2b
 2015 0d56 4E080000 		.4byte	0x84e
 2016 0d5a 35020000 		.4byte	.LLST19
 2017 0d5e 00       		.byte	0
 2018 0d5f 00       		.byte	0
 2019 0d60 00       		.byte	0
 2020 0d61 00       		.byte	0
 2021 0d62 31       		.uleb128 0x31
 2022 0d63 12000000 		.4byte	.LVL20
 2023 0d67 650E0000 		.4byte	0xe65
 2024 0d6b 760D0000 		.4byte	0xd76
 2025 0d6f 2D       		.uleb128 0x2d
 2026 0d70 01       		.uleb128 0x1
 2027 0d71 50       		.byte	0x50
 2028 0d72 02       		.uleb128 0x2
 2029 0d73 75       		.byte	0x75
 2030 0d74 00       		.sleb128 0
 2031 0d75 00       		.byte	0
 2032 0d76 31       		.uleb128 0x31
 2033 0d77 28000000 		.4byte	.LVL22
 2034 0d7b 250E0000 		.4byte	0xe25
 2035 0d7f 970D0000 		.4byte	0xd97
 2036 0d83 2D       		.uleb128 0x2d
 2037 0d84 01       		.uleb128 0x1
 2038 0d85 53       		.byte	0x53
 2039 0d86 02       		.uleb128 0x2
 2040 0d87 76       		.byte	0x76
 2041 0d88 00       		.sleb128 0
 2042 0d89 2D       		.uleb128 0x2d
 2043 0d8a 01       		.uleb128 0x1
 2044 0d8b 52       		.byte	0x52
 2045 0d8c 02       		.uleb128 0x2
 2046 0d8d 77       		.byte	0x77
 2047 0d8e 00       		.sleb128 0
 2048 0d8f 2D       		.uleb128 0x2d
 2049 0d90 02       		.uleb128 0x2
 2050 0d91 7D       		.byte	0x7d
 2051 0d92 00       		.sleb128 0
 2052 0d93 02       		.uleb128 0x2
ARM GAS  /var/folders/m4/4md61f0s1_g0rzfghffqnxvr0000gn/T//ccv3R7jd.s 			page 37


 2053 0d94 78       		.byte	0x78
 2054 0d95 00       		.sleb128 0
 2055 0d96 00       		.byte	0
 2056 0d97 32       		.uleb128 0x32
 2057 0d98 36000000 		.4byte	.LVL24
 2058 0d9c 4E0E0000 		.4byte	0xe4e
 2059 0da0 2D       		.uleb128 0x2d
 2060 0da1 01       		.uleb128 0x1
 2061 0da2 51       		.byte	0x51
 2062 0da3 01       		.uleb128 0x1
 2063 0da4 30       		.byte	0x30
 2064 0da5 2D       		.uleb128 0x2d
 2065 0da6 01       		.uleb128 0x1
 2066 0da7 50       		.byte	0x50
 2067 0da8 02       		.uleb128 0x2
 2068 0da9 74       		.byte	0x74
 2069 0daa 00       		.sleb128 0
 2070 0dab 00       		.byte	0
 2071 0dac 00       		.byte	0
 2072 0dad 09       		.uleb128 0x9
 2073 0dae 04       		.byte	0x4
 2074 0daf 36080000 		.4byte	0x836
 2075 0db3 15       		.uleb128 0x15
 2076 0db4 E0060000 		.4byte	0x6e0
 2077 0db8 C30D0000 		.4byte	0xdc3
 2078 0dbc 16       		.uleb128 0x16
 2079 0dbd 6A040000 		.4byte	0x46a
 2080 0dc1 19       		.byte	0x19
 2081 0dc2 00       		.byte	0
 2082 0dc3 13       		.uleb128 0x13
 2083 0dc4 B30D0000 		.4byte	0xdb3
 2084 0dc8 33       		.uleb128 0x33
 2085 0dc9 F6000000 		.4byte	.LASF134
 2086 0dcd 13       		.byte	0x13
 2087 0dce FA06     		.2byte	0x6fa
 2088 0dd0 D40D0000 		.4byte	0xdd4
 2089 0dd4 14       		.uleb128 0x14
 2090 0dd5 AD000000 		.4byte	0xad
 2091 0dd9 34       		.uleb128 0x34
 2092 0dda 636800   		.ascii	"ch\000"
 2093 0ddd 08       		.byte	0x8
 2094 0dde 0902     		.2byte	0x209
 2095 0de0 03040000 		.4byte	0x403
 2096 0de4 35       		.uleb128 0x35
 2097 0de5 D9060000 		.4byte	.LASF135
 2098 0de9 11       		.byte	0x11
 2099 0dea 71       		.byte	0x71
 2100 0deb FA0D0000 		.4byte	0xdfa
 2101 0def 0C       		.uleb128 0xc
 2102 0df0 AD0D0000 		.4byte	0xdad
 2103 0df4 0C       		.uleb128 0xc
 2104 0df5 34030000 		.4byte	0x334
 2105 0df9 00       		.byte	0
 2106 0dfa 35       		.uleb128 0x35
 2107 0dfb 56010000 		.4byte	.LASF136
 2108 0dff 10       		.byte	0x10
 2109 0e00 68       		.byte	0x68
ARM GAS  /var/folders/m4/4md61f0s1_g0rzfghffqnxvr0000gn/T//ccv3R7jd.s 			page 38


 2110 0e01 0B0E0000 		.4byte	0xe0b
 2111 0e05 0C       		.uleb128 0xc
 2112 0e06 34030000 		.4byte	0x334
 2113 0e0a 00       		.byte	0
 2114 0e0b 36       		.uleb128 0x36
 2115 0e0c 99050000 		.4byte	.LASF137
 2116 0e10 10       		.byte	0x10
 2117 0e11 67       		.byte	0x67
 2118 0e12 34030000 		.4byte	0x334
 2119 0e16 250E0000 		.4byte	0xe25
 2120 0e1a 0C       		.uleb128 0xc
 2121 0e1b C5070000 		.4byte	0x7c5
 2122 0e1f 0C       		.uleb128 0xc
 2123 0e20 2C000000 		.4byte	0x2c
 2124 0e24 00       		.byte	0
 2125 0e25 36       		.uleb128 0x36
 2126 0e26 7E010000 		.4byte	.LASF138
 2127 0e2a 0E       		.byte	0xe
 2128 0e2b 87       		.byte	0x87
 2129 0e2c 57020000 		.4byte	0x257
 2130 0e30 4E0E0000 		.4byte	0xe4e
 2131 0e34 0C       		.uleb128 0xc
 2132 0e35 34030000 		.4byte	0x334
 2133 0e39 0C       		.uleb128 0xc
 2134 0e3a 2C000000 		.4byte	0x2c
 2135 0e3e 0C       		.uleb128 0xc
 2136 0e3f 05010000 		.4byte	0x105
 2137 0e43 0C       		.uleb128 0xc
 2138 0e44 07070000 		.4byte	0x707
 2139 0e48 0C       		.uleb128 0xc
 2140 0e49 34030000 		.4byte	0x334
 2141 0e4d 00       		.byte	0
 2142 0e4e 37       		.uleb128 0x37
 2143 0e4f AF020000 		.4byte	.LASF139
 2144 0e53 08       		.byte	0x8
 2145 0e54 1602     		.2byte	0x216
 2146 0e56 650E0000 		.4byte	0xe65
 2147 0e5a 0C       		.uleb128 0xc
 2148 0e5b 57020000 		.4byte	0x257
 2149 0e5f 0C       		.uleb128 0xc
 2150 0e60 10010000 		.4byte	0x110
 2151 0e64 00       		.byte	0
 2152 0e65 38       		.uleb128 0x38
 2153 0e66 CD060000 		.4byte	.LASF140
 2154 0e6a 11       		.byte	0x11
 2155 0e6b 6F       		.byte	0x6f
 2156 0e6c 34030000 		.4byte	0x334
 2157 0e70 0C       		.uleb128 0xc
 2158 0e71 AD0D0000 		.4byte	0xdad
 2159 0e75 00       		.byte	0
 2160 0e76 00       		.byte	0
 2161              		.section	.debug_abbrev,"",%progbits
 2162              	.Ldebug_abbrev0:
 2163 0000 01       		.uleb128 0x1
 2164 0001 11       		.uleb128 0x11
 2165 0002 01       		.byte	0x1
 2166 0003 25       		.uleb128 0x25
ARM GAS  /var/folders/m4/4md61f0s1_g0rzfghffqnxvr0000gn/T//ccv3R7jd.s 			page 39


 2167 0004 0E       		.uleb128 0xe
 2168 0005 13       		.uleb128 0x13
 2169 0006 0B       		.uleb128 0xb
 2170 0007 03       		.uleb128 0x3
 2171 0008 0E       		.uleb128 0xe
 2172 0009 1B       		.uleb128 0x1b
 2173 000a 0E       		.uleb128 0xe
 2174 000b 55       		.uleb128 0x55
 2175 000c 17       		.uleb128 0x17
 2176 000d 11       		.uleb128 0x11
 2177 000e 01       		.uleb128 0x1
 2178 000f 10       		.uleb128 0x10
 2179 0010 17       		.uleb128 0x17
 2180 0011 00       		.byte	0
 2181 0012 00       		.byte	0
 2182 0013 02       		.uleb128 0x2
 2183 0014 24       		.uleb128 0x24
 2184 0015 00       		.byte	0
 2185 0016 0B       		.uleb128 0xb
 2186 0017 0B       		.uleb128 0xb
 2187 0018 3E       		.uleb128 0x3e
 2188 0019 0B       		.uleb128 0xb
 2189 001a 03       		.uleb128 0x3
 2190 001b 08       		.uleb128 0x8
 2191 001c 00       		.byte	0
 2192 001d 00       		.byte	0
 2193 001e 03       		.uleb128 0x3
 2194 001f 16       		.uleb128 0x16
 2195 0020 00       		.byte	0
 2196 0021 03       		.uleb128 0x3
 2197 0022 0E       		.uleb128 0xe
 2198 0023 3A       		.uleb128 0x3a
 2199 0024 0B       		.uleb128 0xb
 2200 0025 3B       		.uleb128 0x3b
 2201 0026 0B       		.uleb128 0xb
 2202 0027 49       		.uleb128 0x49
 2203 0028 13       		.uleb128 0x13
 2204 0029 00       		.byte	0
 2205 002a 00       		.byte	0
 2206 002b 04       		.uleb128 0x4
 2207 002c 24       		.uleb128 0x24
 2208 002d 00       		.byte	0
 2209 002e 0B       		.uleb128 0xb
 2210 002f 0B       		.uleb128 0xb
 2211 0030 3E       		.uleb128 0x3e
 2212 0031 0B       		.uleb128 0xb
 2213 0032 03       		.uleb128 0x3
 2214 0033 0E       		.uleb128 0xe
 2215 0034 00       		.byte	0
 2216 0035 00       		.byte	0
 2217 0036 05       		.uleb128 0x5
 2218 0037 13       		.uleb128 0x13
 2219 0038 01       		.byte	0x1
 2220 0039 03       		.uleb128 0x3
 2221 003a 0E       		.uleb128 0xe
 2222 003b 0B       		.uleb128 0xb
 2223 003c 0B       		.uleb128 0xb
ARM GAS  /var/folders/m4/4md61f0s1_g0rzfghffqnxvr0000gn/T//ccv3R7jd.s 			page 40


 2224 003d 3A       		.uleb128 0x3a
 2225 003e 0B       		.uleb128 0xb
 2226 003f 3B       		.uleb128 0x3b
 2227 0040 0B       		.uleb128 0xb
 2228 0041 01       		.uleb128 0x1
 2229 0042 13       		.uleb128 0x13
 2230 0043 00       		.byte	0
 2231 0044 00       		.byte	0
 2232 0045 06       		.uleb128 0x6
 2233 0046 0D       		.uleb128 0xd
 2234 0047 00       		.byte	0
 2235 0048 03       		.uleb128 0x3
 2236 0049 0E       		.uleb128 0xe
 2237 004a 3A       		.uleb128 0x3a
 2238 004b 0B       		.uleb128 0xb
 2239 004c 3B       		.uleb128 0x3b
 2240 004d 0B       		.uleb128 0xb
 2241 004e 49       		.uleb128 0x49
 2242 004f 13       		.uleb128 0x13
 2243 0050 38       		.uleb128 0x38
 2244 0051 0B       		.uleb128 0xb
 2245 0052 00       		.byte	0
 2246 0053 00       		.byte	0
 2247 0054 07       		.uleb128 0x7
 2248 0055 0D       		.uleb128 0xd
 2249 0056 00       		.byte	0
 2250 0057 03       		.uleb128 0x3
 2251 0058 08       		.uleb128 0x8
 2252 0059 3A       		.uleb128 0x3a
 2253 005a 0B       		.uleb128 0xb
 2254 005b 3B       		.uleb128 0x3b
 2255 005c 05       		.uleb128 0x5
 2256 005d 49       		.uleb128 0x49
 2257 005e 13       		.uleb128 0x13
 2258 005f 38       		.uleb128 0x38
 2259 0060 0B       		.uleb128 0xb
 2260 0061 00       		.byte	0
 2261 0062 00       		.byte	0
 2262 0063 08       		.uleb128 0x8
 2263 0064 0D       		.uleb128 0xd
 2264 0065 00       		.byte	0
 2265 0066 03       		.uleb128 0x3
 2266 0067 0E       		.uleb128 0xe
 2267 0068 3A       		.uleb128 0x3a
 2268 0069 0B       		.uleb128 0xb
 2269 006a 3B       		.uleb128 0x3b
 2270 006b 05       		.uleb128 0x5
 2271 006c 49       		.uleb128 0x49
 2272 006d 13       		.uleb128 0x13
 2273 006e 38       		.uleb128 0x38
 2274 006f 0B       		.uleb128 0xb
 2275 0070 00       		.byte	0
 2276 0071 00       		.byte	0
 2277 0072 09       		.uleb128 0x9
 2278 0073 0F       		.uleb128 0xf
 2279 0074 00       		.byte	0
 2280 0075 0B       		.uleb128 0xb
ARM GAS  /var/folders/m4/4md61f0s1_g0rzfghffqnxvr0000gn/T//ccv3R7jd.s 			page 41


 2281 0076 0B       		.uleb128 0xb
 2282 0077 49       		.uleb128 0x49
 2283 0078 13       		.uleb128 0x13
 2284 0079 00       		.byte	0
 2285 007a 00       		.byte	0
 2286 007b 0A       		.uleb128 0xa
 2287 007c 13       		.uleb128 0x13
 2288 007d 01       		.byte	0x1
 2289 007e 03       		.uleb128 0x3
 2290 007f 0E       		.uleb128 0xe
 2291 0080 0B       		.uleb128 0xb
 2292 0081 0B       		.uleb128 0xb
 2293 0082 3A       		.uleb128 0x3a
 2294 0083 0B       		.uleb128 0xb
 2295 0084 3B       		.uleb128 0x3b
 2296 0085 05       		.uleb128 0x5
 2297 0086 01       		.uleb128 0x1
 2298 0087 13       		.uleb128 0x13
 2299 0088 00       		.byte	0
 2300 0089 00       		.byte	0
 2301 008a 0B       		.uleb128 0xb
 2302 008b 15       		.uleb128 0x15
 2303 008c 01       		.byte	0x1
 2304 008d 27       		.uleb128 0x27
 2305 008e 19       		.uleb128 0x19
 2306 008f 01       		.uleb128 0x1
 2307 0090 13       		.uleb128 0x13
 2308 0091 00       		.byte	0
 2309 0092 00       		.byte	0
 2310 0093 0C       		.uleb128 0xc
 2311 0094 05       		.uleb128 0x5
 2312 0095 00       		.byte	0
 2313 0096 49       		.uleb128 0x49
 2314 0097 13       		.uleb128 0x13
 2315 0098 00       		.byte	0
 2316 0099 00       		.byte	0
 2317 009a 0D       		.uleb128 0xd
 2318 009b 0F       		.uleb128 0xf
 2319 009c 00       		.byte	0
 2320 009d 0B       		.uleb128 0xb
 2321 009e 0B       		.uleb128 0xb
 2322 009f 00       		.byte	0
 2323 00a0 00       		.byte	0
 2324 00a1 0E       		.uleb128 0xe
 2325 00a2 13       		.uleb128 0x13
 2326 00a3 01       		.byte	0x1
 2327 00a4 03       		.uleb128 0x3
 2328 00a5 0E       		.uleb128 0xe
 2329 00a6 0B       		.uleb128 0xb
 2330 00a7 05       		.uleb128 0x5
 2331 00a8 3A       		.uleb128 0x3a
 2332 00a9 0B       		.uleb128 0xb
 2333 00aa 3B       		.uleb128 0x3b
 2334 00ab 05       		.uleb128 0x5
 2335 00ac 01       		.uleb128 0x1
 2336 00ad 13       		.uleb128 0x13
 2337 00ae 00       		.byte	0
ARM GAS  /var/folders/m4/4md61f0s1_g0rzfghffqnxvr0000gn/T//ccv3R7jd.s 			page 42


 2338 00af 00       		.byte	0
 2339 00b0 0F       		.uleb128 0xf
 2340 00b1 0D       		.uleb128 0xd
 2341 00b2 00       		.byte	0
 2342 00b3 03       		.uleb128 0x3
 2343 00b4 08       		.uleb128 0x8
 2344 00b5 3A       		.uleb128 0x3a
 2345 00b6 0B       		.uleb128 0xb
 2346 00b7 3B       		.uleb128 0x3b
 2347 00b8 0B       		.uleb128 0xb
 2348 00b9 49       		.uleb128 0x49
 2349 00ba 13       		.uleb128 0x13
 2350 00bb 38       		.uleb128 0x38
 2351 00bc 0B       		.uleb128 0xb
 2352 00bd 00       		.byte	0
 2353 00be 00       		.byte	0
 2354 00bf 10       		.uleb128 0x10
 2355 00c0 13       		.uleb128 0x13
 2356 00c1 01       		.byte	0x1
 2357 00c2 0B       		.uleb128 0xb
 2358 00c3 0B       		.uleb128 0xb
 2359 00c4 3A       		.uleb128 0x3a
 2360 00c5 0B       		.uleb128 0xb
 2361 00c6 3B       		.uleb128 0x3b
 2362 00c7 0B       		.uleb128 0xb
 2363 00c8 01       		.uleb128 0x1
 2364 00c9 13       		.uleb128 0x13
 2365 00ca 00       		.byte	0
 2366 00cb 00       		.byte	0
 2367 00cc 11       		.uleb128 0x11
 2368 00cd 17       		.uleb128 0x17
 2369 00ce 01       		.byte	0x1
 2370 00cf 0B       		.uleb128 0xb
 2371 00d0 0B       		.uleb128 0xb
 2372 00d1 3A       		.uleb128 0x3a
 2373 00d2 0B       		.uleb128 0xb
 2374 00d3 3B       		.uleb128 0x3b
 2375 00d4 0B       		.uleb128 0xb
 2376 00d5 01       		.uleb128 0x1
 2377 00d6 13       		.uleb128 0x13
 2378 00d7 00       		.byte	0
 2379 00d8 00       		.byte	0
 2380 00d9 12       		.uleb128 0x12
 2381 00da 0D       		.uleb128 0xd
 2382 00db 00       		.byte	0
 2383 00dc 03       		.uleb128 0x3
 2384 00dd 0E       		.uleb128 0xe
 2385 00de 3A       		.uleb128 0x3a
 2386 00df 0B       		.uleb128 0xb
 2387 00e0 3B       		.uleb128 0x3b
 2388 00e1 05       		.uleb128 0x5
 2389 00e2 49       		.uleb128 0x49
 2390 00e3 13       		.uleb128 0x13
 2391 00e4 00       		.byte	0
 2392 00e5 00       		.byte	0
 2393 00e6 13       		.uleb128 0x13
 2394 00e7 26       		.uleb128 0x26
ARM GAS  /var/folders/m4/4md61f0s1_g0rzfghffqnxvr0000gn/T//ccv3R7jd.s 			page 43


 2395 00e8 00       		.byte	0
 2396 00e9 49       		.uleb128 0x49
 2397 00ea 13       		.uleb128 0x13
 2398 00eb 00       		.byte	0
 2399 00ec 00       		.byte	0
 2400 00ed 14       		.uleb128 0x14
 2401 00ee 35       		.uleb128 0x35
 2402 00ef 00       		.byte	0
 2403 00f0 49       		.uleb128 0x49
 2404 00f1 13       		.uleb128 0x13
 2405 00f2 00       		.byte	0
 2406 00f3 00       		.byte	0
 2407 00f4 15       		.uleb128 0x15
 2408 00f5 01       		.uleb128 0x1
 2409 00f6 01       		.byte	0x1
 2410 00f7 49       		.uleb128 0x49
 2411 00f8 13       		.uleb128 0x13
 2412 00f9 01       		.uleb128 0x1
 2413 00fa 13       		.uleb128 0x13
 2414 00fb 00       		.byte	0
 2415 00fc 00       		.byte	0
 2416 00fd 16       		.uleb128 0x16
 2417 00fe 21       		.uleb128 0x21
 2418 00ff 00       		.byte	0
 2419 0100 49       		.uleb128 0x49
 2420 0101 13       		.uleb128 0x13
 2421 0102 2F       		.uleb128 0x2f
 2422 0103 0B       		.uleb128 0xb
 2423 0104 00       		.byte	0
 2424 0105 00       		.byte	0
 2425 0106 17       		.uleb128 0x17
 2426 0107 15       		.uleb128 0x15
 2427 0108 01       		.byte	0x1
 2428 0109 27       		.uleb128 0x27
 2429 010a 19       		.uleb128 0x19
 2430 010b 49       		.uleb128 0x49
 2431 010c 13       		.uleb128 0x13
 2432 010d 01       		.uleb128 0x1
 2433 010e 13       		.uleb128 0x13
 2434 010f 00       		.byte	0
 2435 0110 00       		.byte	0
 2436 0111 18       		.uleb128 0x18
 2437 0112 0D       		.uleb128 0xd
 2438 0113 00       		.byte	0
 2439 0114 03       		.uleb128 0x3
 2440 0115 0E       		.uleb128 0xe
 2441 0116 3A       		.uleb128 0x3a
 2442 0117 0B       		.uleb128 0xb
 2443 0118 3B       		.uleb128 0x3b
 2444 0119 0B       		.uleb128 0xb
 2445 011a 49       		.uleb128 0x49
 2446 011b 13       		.uleb128 0x13
 2447 011c 00       		.byte	0
 2448 011d 00       		.byte	0
 2449 011e 19       		.uleb128 0x19
 2450 011f 17       		.uleb128 0x17
 2451 0120 01       		.byte	0x1
ARM GAS  /var/folders/m4/4md61f0s1_g0rzfghffqnxvr0000gn/T//ccv3R7jd.s 			page 44


 2452 0121 03       		.uleb128 0x3
 2453 0122 0E       		.uleb128 0xe
 2454 0123 0B       		.uleb128 0xb
 2455 0124 0B       		.uleb128 0xb
 2456 0125 3A       		.uleb128 0x3a
 2457 0126 0B       		.uleb128 0xb
 2458 0127 3B       		.uleb128 0x3b
 2459 0128 0B       		.uleb128 0xb
 2460 0129 01       		.uleb128 0x1
 2461 012a 13       		.uleb128 0x13
 2462 012b 00       		.byte	0
 2463 012c 00       		.byte	0
 2464 012d 1A       		.uleb128 0x1a
 2465 012e 0D       		.uleb128 0xd
 2466 012f 00       		.byte	0
 2467 0130 03       		.uleb128 0x3
 2468 0131 08       		.uleb128 0x8
 2469 0132 3A       		.uleb128 0x3a
 2470 0133 0B       		.uleb128 0xb
 2471 0134 3B       		.uleb128 0x3b
 2472 0135 0B       		.uleb128 0xb
 2473 0136 49       		.uleb128 0x49
 2474 0137 13       		.uleb128 0x13
 2475 0138 00       		.byte	0
 2476 0139 00       		.byte	0
 2477 013a 1B       		.uleb128 0x1b
 2478 013b 2E       		.uleb128 0x2e
 2479 013c 01       		.byte	0x1
 2480 013d 03       		.uleb128 0x3
 2481 013e 0E       		.uleb128 0xe
 2482 013f 3A       		.uleb128 0x3a
 2483 0140 0B       		.uleb128 0xb
 2484 0141 3B       		.uleb128 0x3b
 2485 0142 05       		.uleb128 0x5
 2486 0143 27       		.uleb128 0x27
 2487 0144 19       		.uleb128 0x19
 2488 0145 20       		.uleb128 0x20
 2489 0146 0B       		.uleb128 0xb
 2490 0147 01       		.uleb128 0x1
 2491 0148 13       		.uleb128 0x13
 2492 0149 00       		.byte	0
 2493 014a 00       		.byte	0
 2494 014b 1C       		.uleb128 0x1c
 2495 014c 05       		.uleb128 0x5
 2496 014d 00       		.byte	0
 2497 014e 03       		.uleb128 0x3
 2498 014f 0E       		.uleb128 0xe
 2499 0150 3A       		.uleb128 0x3a
 2500 0151 0B       		.uleb128 0xb
 2501 0152 3B       		.uleb128 0x3b
 2502 0153 05       		.uleb128 0x5
 2503 0154 49       		.uleb128 0x49
 2504 0155 13       		.uleb128 0x13
 2505 0156 00       		.byte	0
 2506 0157 00       		.byte	0
 2507 0158 1D       		.uleb128 0x1d
 2508 0159 2E       		.uleb128 0x2e
ARM GAS  /var/folders/m4/4md61f0s1_g0rzfghffqnxvr0000gn/T//ccv3R7jd.s 			page 45


 2509 015a 00       		.byte	0
 2510 015b 03       		.uleb128 0x3
 2511 015c 0E       		.uleb128 0xe
 2512 015d 3A       		.uleb128 0x3a
 2513 015e 0B       		.uleb128 0xb
 2514 015f 3B       		.uleb128 0x3b
 2515 0160 05       		.uleb128 0x5
 2516 0161 27       		.uleb128 0x27
 2517 0162 19       		.uleb128 0x19
 2518 0163 20       		.uleb128 0x20
 2519 0164 0B       		.uleb128 0xb
 2520 0165 00       		.byte	0
 2521 0166 00       		.byte	0
 2522 0167 1E       		.uleb128 0x1e
 2523 0168 34       		.uleb128 0x34
 2524 0169 00       		.byte	0
 2525 016a 03       		.uleb128 0x3
 2526 016b 0E       		.uleb128 0xe
 2527 016c 49       		.uleb128 0x49
 2528 016d 13       		.uleb128 0x13
 2529 016e 34       		.uleb128 0x34
 2530 016f 19       		.uleb128 0x19
 2531 0170 1C       		.uleb128 0x1c
 2532 0171 0E       		.uleb128 0xe
 2533 0172 00       		.byte	0
 2534 0173 00       		.byte	0
 2535 0174 1F       		.uleb128 0x1f
 2536 0175 2E       		.uleb128 0x2e
 2537 0176 01       		.byte	0x1
 2538 0177 3F       		.uleb128 0x3f
 2539 0178 19       		.uleb128 0x19
 2540 0179 03       		.uleb128 0x3
 2541 017a 0E       		.uleb128 0xe
 2542 017b 3A       		.uleb128 0x3a
 2543 017c 0B       		.uleb128 0xb
 2544 017d 3B       		.uleb128 0x3b
 2545 017e 0B       		.uleb128 0xb
 2546 017f 27       		.uleb128 0x27
 2547 0180 19       		.uleb128 0x19
 2548 0181 49       		.uleb128 0x49
 2549 0182 13       		.uleb128 0x13
 2550 0183 11       		.uleb128 0x11
 2551 0184 01       		.uleb128 0x1
 2552 0185 12       		.uleb128 0x12
 2553 0186 06       		.uleb128 0x6
 2554 0187 40       		.uleb128 0x40
 2555 0188 18       		.uleb128 0x18
 2556 0189 9742     		.uleb128 0x2117
 2557 018b 19       		.uleb128 0x19
 2558 018c 01       		.uleb128 0x1
 2559 018d 13       		.uleb128 0x13
 2560 018e 00       		.byte	0
 2561 018f 00       		.byte	0
 2562 0190 20       		.uleb128 0x20
 2563 0191 05       		.uleb128 0x5
 2564 0192 00       		.byte	0
 2565 0193 03       		.uleb128 0x3
ARM GAS  /var/folders/m4/4md61f0s1_g0rzfghffqnxvr0000gn/T//ccv3R7jd.s 			page 46


 2566 0194 08       		.uleb128 0x8
 2567 0195 3A       		.uleb128 0x3a
 2568 0196 0B       		.uleb128 0xb
 2569 0197 3B       		.uleb128 0x3b
 2570 0198 0B       		.uleb128 0xb
 2571 0199 49       		.uleb128 0x49
 2572 019a 13       		.uleb128 0x13
 2573 019b 02       		.uleb128 0x2
 2574 019c 18       		.uleb128 0x18
 2575 019d 00       		.byte	0
 2576 019e 00       		.byte	0
 2577 019f 21       		.uleb128 0x21
 2578 01a0 34       		.uleb128 0x34
 2579 01a1 00       		.byte	0
 2580 01a2 03       		.uleb128 0x3
 2581 01a3 0E       		.uleb128 0xe
 2582 01a4 49       		.uleb128 0x49
 2583 01a5 13       		.uleb128 0x13
 2584 01a6 34       		.uleb128 0x34
 2585 01a7 19       		.uleb128 0x19
 2586 01a8 00       		.byte	0
 2587 01a9 00       		.byte	0
 2588 01aa 22       		.uleb128 0x22
 2589 01ab 1D       		.uleb128 0x1d
 2590 01ac 01       		.byte	0x1
 2591 01ad 31       		.uleb128 0x31
 2592 01ae 13       		.uleb128 0x13
 2593 01af 11       		.uleb128 0x11
 2594 01b0 01       		.uleb128 0x1
 2595 01b1 12       		.uleb128 0x12
 2596 01b2 06       		.uleb128 0x6
 2597 01b3 58       		.uleb128 0x58
 2598 01b4 0B       		.uleb128 0xb
 2599 01b5 59       		.uleb128 0x59
 2600 01b6 0B       		.uleb128 0xb
 2601 01b7 01       		.uleb128 0x1
 2602 01b8 13       		.uleb128 0x13
 2603 01b9 00       		.byte	0
 2604 01ba 00       		.byte	0
 2605 01bb 23       		.uleb128 0x23
 2606 01bc 1D       		.uleb128 0x1d
 2607 01bd 01       		.byte	0x1
 2608 01be 31       		.uleb128 0x31
 2609 01bf 13       		.uleb128 0x13
 2610 01c0 11       		.uleb128 0x11
 2611 01c1 01       		.uleb128 0x1
 2612 01c2 12       		.uleb128 0x12
 2613 01c3 06       		.uleb128 0x6
 2614 01c4 58       		.uleb128 0x58
 2615 01c5 0B       		.uleb128 0xb
 2616 01c6 59       		.uleb128 0x59
 2617 01c7 05       		.uleb128 0x5
 2618 01c8 00       		.byte	0
 2619 01c9 00       		.byte	0
 2620 01ca 24       		.uleb128 0x24
 2621 01cb 05       		.uleb128 0x5
 2622 01cc 00       		.byte	0
ARM GAS  /var/folders/m4/4md61f0s1_g0rzfghffqnxvr0000gn/T//ccv3R7jd.s 			page 47


 2623 01cd 31       		.uleb128 0x31
 2624 01ce 13       		.uleb128 0x13
 2625 01cf 1C       		.uleb128 0x1c
 2626 01d0 0B       		.uleb128 0xb
 2627 01d1 00       		.byte	0
 2628 01d2 00       		.byte	0
 2629 01d3 25       		.uleb128 0x25
 2630 01d4 1D       		.uleb128 0x1d
 2631 01d5 01       		.byte	0x1
 2632 01d6 31       		.uleb128 0x31
 2633 01d7 13       		.uleb128 0x13
 2634 01d8 11       		.uleb128 0x11
 2635 01d9 01       		.uleb128 0x1
 2636 01da 12       		.uleb128 0x12
 2637 01db 06       		.uleb128 0x6
 2638 01dc 58       		.uleb128 0x58
 2639 01dd 0B       		.uleb128 0xb
 2640 01de 59       		.uleb128 0x59
 2641 01df 0B       		.uleb128 0xb
 2642 01e0 00       		.byte	0
 2643 01e1 00       		.byte	0
 2644 01e2 26       		.uleb128 0x26
 2645 01e3 0B       		.uleb128 0xb
 2646 01e4 01       		.byte	0x1
 2647 01e5 11       		.uleb128 0x11
 2648 01e6 01       		.uleb128 0x1
 2649 01e7 12       		.uleb128 0x12
 2650 01e8 06       		.uleb128 0x6
 2651 01e9 00       		.byte	0
 2652 01ea 00       		.byte	0
 2653 01eb 27       		.uleb128 0x27
 2654 01ec 34       		.uleb128 0x34
 2655 01ed 00       		.byte	0
 2656 01ee 31       		.uleb128 0x31
 2657 01ef 13       		.uleb128 0x13
 2658 01f0 00       		.byte	0
 2659 01f1 00       		.byte	0
 2660 01f2 28       		.uleb128 0x28
 2661 01f3 2E       		.uleb128 0x2e
 2662 01f4 01       		.byte	0x1
 2663 01f5 3F       		.uleb128 0x3f
 2664 01f6 19       		.uleb128 0x19
 2665 01f7 03       		.uleb128 0x3
 2666 01f8 0E       		.uleb128 0xe
 2667 01f9 3A       		.uleb128 0x3a
 2668 01fa 0B       		.uleb128 0xb
 2669 01fb 3B       		.uleb128 0x3b
 2670 01fc 0B       		.uleb128 0xb
 2671 01fd 27       		.uleb128 0x27
 2672 01fe 19       		.uleb128 0x19
 2673 01ff 11       		.uleb128 0x11
 2674 0200 01       		.uleb128 0x1
 2675 0201 12       		.uleb128 0x12
 2676 0202 06       		.uleb128 0x6
 2677 0203 40       		.uleb128 0x40
 2678 0204 18       		.uleb128 0x18
 2679 0205 9742     		.uleb128 0x2117
ARM GAS  /var/folders/m4/4md61f0s1_g0rzfghffqnxvr0000gn/T//ccv3R7jd.s 			page 48


 2680 0207 19       		.uleb128 0x19
 2681 0208 01       		.uleb128 0x1
 2682 0209 13       		.uleb128 0x13
 2683 020a 00       		.byte	0
 2684 020b 00       		.byte	0
 2685 020c 29       		.uleb128 0x29
 2686 020d 05       		.uleb128 0x5
 2687 020e 00       		.byte	0
 2688 020f 03       		.uleb128 0x3
 2689 0210 08       		.uleb128 0x8
 2690 0211 3A       		.uleb128 0x3a
 2691 0212 0B       		.uleb128 0xb
 2692 0213 3B       		.uleb128 0x3b
 2693 0214 0B       		.uleb128 0xb
 2694 0215 49       		.uleb128 0x49
 2695 0216 13       		.uleb128 0x13
 2696 0217 02       		.uleb128 0x2
 2697 0218 17       		.uleb128 0x17
 2698 0219 00       		.byte	0
 2699 021a 00       		.byte	0
 2700 021b 2A       		.uleb128 0x2a
 2701 021c 34       		.uleb128 0x34
 2702 021d 00       		.byte	0
 2703 021e 03       		.uleb128 0x3
 2704 021f 0E       		.uleb128 0xe
 2705 0220 3A       		.uleb128 0x3a
 2706 0221 0B       		.uleb128 0xb
 2707 0222 3B       		.uleb128 0x3b
 2708 0223 0B       		.uleb128 0xb
 2709 0224 49       		.uleb128 0x49
 2710 0225 13       		.uleb128 0x13
 2711 0226 02       		.uleb128 0x2
 2712 0227 17       		.uleb128 0x17
 2713 0228 00       		.byte	0
 2714 0229 00       		.byte	0
 2715 022a 2B       		.uleb128 0x2b
 2716 022b 05       		.uleb128 0x5
 2717 022c 00       		.byte	0
 2718 022d 31       		.uleb128 0x31
 2719 022e 13       		.uleb128 0x13
 2720 022f 02       		.uleb128 0x2
 2721 0230 17       		.uleb128 0x17
 2722 0231 00       		.byte	0
 2723 0232 00       		.byte	0
 2724 0233 2C       		.uleb128 0x2c
 2725 0234 898201   		.uleb128 0x4109
 2726 0237 01       		.byte	0x1
 2727 0238 11       		.uleb128 0x11
 2728 0239 01       		.uleb128 0x1
 2729 023a 9542     		.uleb128 0x2115
 2730 023c 19       		.uleb128 0x19
 2731 023d 31       		.uleb128 0x31
 2732 023e 13       		.uleb128 0x13
 2733 023f 01       		.uleb128 0x1
 2734 0240 13       		.uleb128 0x13
 2735 0241 00       		.byte	0
 2736 0242 00       		.byte	0
ARM GAS  /var/folders/m4/4md61f0s1_g0rzfghffqnxvr0000gn/T//ccv3R7jd.s 			page 49


 2737 0243 2D       		.uleb128 0x2d
 2738 0244 8A8201   		.uleb128 0x410a
 2739 0247 00       		.byte	0
 2740 0248 02       		.uleb128 0x2
 2741 0249 18       		.uleb128 0x18
 2742 024a 9142     		.uleb128 0x2111
 2743 024c 18       		.uleb128 0x18
 2744 024d 00       		.byte	0
 2745 024e 00       		.byte	0
 2746 024f 2E       		.uleb128 0x2e
 2747 0250 898201   		.uleb128 0x4109
 2748 0253 01       		.byte	0x1
 2749 0254 11       		.uleb128 0x11
 2750 0255 01       		.uleb128 0x1
 2751 0256 9542     		.uleb128 0x2115
 2752 0258 19       		.uleb128 0x19
 2753 0259 31       		.uleb128 0x31
 2754 025a 13       		.uleb128 0x13
 2755 025b 00       		.byte	0
 2756 025c 00       		.byte	0
 2757 025d 2F       		.uleb128 0x2f
 2758 025e 05       		.uleb128 0x5
 2759 025f 00       		.byte	0
 2760 0260 03       		.uleb128 0x3
 2761 0261 0E       		.uleb128 0xe
 2762 0262 3A       		.uleb128 0x3a
 2763 0263 0B       		.uleb128 0xb
 2764 0264 3B       		.uleb128 0x3b
 2765 0265 0B       		.uleb128 0xb
 2766 0266 49       		.uleb128 0x49
 2767 0267 13       		.uleb128 0x13
 2768 0268 02       		.uleb128 0x2
 2769 0269 17       		.uleb128 0x17
 2770 026a 00       		.byte	0
 2771 026b 00       		.byte	0
 2772 026c 30       		.uleb128 0x30
 2773 026d 34       		.uleb128 0x34
 2774 026e 00       		.byte	0
 2775 026f 03       		.uleb128 0x3
 2776 0270 08       		.uleb128 0x8
 2777 0271 3A       		.uleb128 0x3a
 2778 0272 0B       		.uleb128 0xb
 2779 0273 3B       		.uleb128 0x3b
 2780 0274 0B       		.uleb128 0xb
 2781 0275 49       		.uleb128 0x49
 2782 0276 13       		.uleb128 0x13
 2783 0277 02       		.uleb128 0x2
 2784 0278 17       		.uleb128 0x17
 2785 0279 00       		.byte	0
 2786 027a 00       		.byte	0
 2787 027b 31       		.uleb128 0x31
 2788 027c 898201   		.uleb128 0x4109
 2789 027f 01       		.byte	0x1
 2790 0280 11       		.uleb128 0x11
 2791 0281 01       		.uleb128 0x1
 2792 0282 31       		.uleb128 0x31
 2793 0283 13       		.uleb128 0x13
ARM GAS  /var/folders/m4/4md61f0s1_g0rzfghffqnxvr0000gn/T//ccv3R7jd.s 			page 50


 2794 0284 01       		.uleb128 0x1
 2795 0285 13       		.uleb128 0x13
 2796 0286 00       		.byte	0
 2797 0287 00       		.byte	0
 2798 0288 32       		.uleb128 0x32
 2799 0289 898201   		.uleb128 0x4109
 2800 028c 01       		.byte	0x1
 2801 028d 11       		.uleb128 0x11
 2802 028e 01       		.uleb128 0x1
 2803 028f 31       		.uleb128 0x31
 2804 0290 13       		.uleb128 0x13
 2805 0291 00       		.byte	0
 2806 0292 00       		.byte	0
 2807 0293 33       		.uleb128 0x33
 2808 0294 34       		.uleb128 0x34
 2809 0295 00       		.byte	0
 2810 0296 03       		.uleb128 0x3
 2811 0297 0E       		.uleb128 0xe
 2812 0298 3A       		.uleb128 0x3a
 2813 0299 0B       		.uleb128 0xb
 2814 029a 3B       		.uleb128 0x3b
 2815 029b 05       		.uleb128 0x5
 2816 029c 49       		.uleb128 0x49
 2817 029d 13       		.uleb128 0x13
 2818 029e 3F       		.uleb128 0x3f
 2819 029f 19       		.uleb128 0x19
 2820 02a0 3C       		.uleb128 0x3c
 2821 02a1 19       		.uleb128 0x19
 2822 02a2 00       		.byte	0
 2823 02a3 00       		.byte	0
 2824 02a4 34       		.uleb128 0x34
 2825 02a5 34       		.uleb128 0x34
 2826 02a6 00       		.byte	0
 2827 02a7 03       		.uleb128 0x3
 2828 02a8 08       		.uleb128 0x8
 2829 02a9 3A       		.uleb128 0x3a
 2830 02aa 0B       		.uleb128 0xb
 2831 02ab 3B       		.uleb128 0x3b
 2832 02ac 05       		.uleb128 0x5
 2833 02ad 49       		.uleb128 0x49
 2834 02ae 13       		.uleb128 0x13
 2835 02af 3F       		.uleb128 0x3f
 2836 02b0 19       		.uleb128 0x19
 2837 02b1 3C       		.uleb128 0x3c
 2838 02b2 19       		.uleb128 0x19
 2839 02b3 00       		.byte	0
 2840 02b4 00       		.byte	0
 2841 02b5 35       		.uleb128 0x35
 2842 02b6 2E       		.uleb128 0x2e
 2843 02b7 01       		.byte	0x1
 2844 02b8 3F       		.uleb128 0x3f
 2845 02b9 19       		.uleb128 0x19
 2846 02ba 03       		.uleb128 0x3
 2847 02bb 0E       		.uleb128 0xe
 2848 02bc 3A       		.uleb128 0x3a
 2849 02bd 0B       		.uleb128 0xb
 2850 02be 3B       		.uleb128 0x3b
ARM GAS  /var/folders/m4/4md61f0s1_g0rzfghffqnxvr0000gn/T//ccv3R7jd.s 			page 51


 2851 02bf 0B       		.uleb128 0xb
 2852 02c0 27       		.uleb128 0x27
 2853 02c1 19       		.uleb128 0x19
 2854 02c2 3C       		.uleb128 0x3c
 2855 02c3 19       		.uleb128 0x19
 2856 02c4 01       		.uleb128 0x1
 2857 02c5 13       		.uleb128 0x13
 2858 02c6 00       		.byte	0
 2859 02c7 00       		.byte	0
 2860 02c8 36       		.uleb128 0x36
 2861 02c9 2E       		.uleb128 0x2e
 2862 02ca 01       		.byte	0x1
 2863 02cb 3F       		.uleb128 0x3f
 2864 02cc 19       		.uleb128 0x19
 2865 02cd 03       		.uleb128 0x3
 2866 02ce 0E       		.uleb128 0xe
 2867 02cf 3A       		.uleb128 0x3a
 2868 02d0 0B       		.uleb128 0xb
 2869 02d1 3B       		.uleb128 0x3b
 2870 02d2 0B       		.uleb128 0xb
 2871 02d3 27       		.uleb128 0x27
 2872 02d4 19       		.uleb128 0x19
 2873 02d5 49       		.uleb128 0x49
 2874 02d6 13       		.uleb128 0x13
 2875 02d7 3C       		.uleb128 0x3c
 2876 02d8 19       		.uleb128 0x19
 2877 02d9 01       		.uleb128 0x1
 2878 02da 13       		.uleb128 0x13
 2879 02db 00       		.byte	0
 2880 02dc 00       		.byte	0
 2881 02dd 37       		.uleb128 0x37
 2882 02de 2E       		.uleb128 0x2e
 2883 02df 01       		.byte	0x1
 2884 02e0 3F       		.uleb128 0x3f
 2885 02e1 19       		.uleb128 0x19
 2886 02e2 03       		.uleb128 0x3
 2887 02e3 0E       		.uleb128 0xe
 2888 02e4 3A       		.uleb128 0x3a
 2889 02e5 0B       		.uleb128 0xb
 2890 02e6 3B       		.uleb128 0x3b
 2891 02e7 05       		.uleb128 0x5
 2892 02e8 27       		.uleb128 0x27
 2893 02e9 19       		.uleb128 0x19
 2894 02ea 3C       		.uleb128 0x3c
 2895 02eb 19       		.uleb128 0x19
 2896 02ec 01       		.uleb128 0x1
 2897 02ed 13       		.uleb128 0x13
 2898 02ee 00       		.byte	0
 2899 02ef 00       		.byte	0
 2900 02f0 38       		.uleb128 0x38
 2901 02f1 2E       		.uleb128 0x2e
 2902 02f2 01       		.byte	0x1
 2903 02f3 3F       		.uleb128 0x3f
 2904 02f4 19       		.uleb128 0x19
 2905 02f5 03       		.uleb128 0x3
 2906 02f6 0E       		.uleb128 0xe
 2907 02f7 3A       		.uleb128 0x3a
ARM GAS  /var/folders/m4/4md61f0s1_g0rzfghffqnxvr0000gn/T//ccv3R7jd.s 			page 52


 2908 02f8 0B       		.uleb128 0xb
 2909 02f9 3B       		.uleb128 0x3b
 2910 02fa 0B       		.uleb128 0xb
 2911 02fb 27       		.uleb128 0x27
 2912 02fc 19       		.uleb128 0x19
 2913 02fd 49       		.uleb128 0x49
 2914 02fe 13       		.uleb128 0x13
 2915 02ff 3C       		.uleb128 0x3c
 2916 0300 19       		.uleb128 0x19
 2917 0301 00       		.byte	0
 2918 0302 00       		.byte	0
 2919 0303 00       		.byte	0
 2920              		.section	.debug_loc,"",%progbits
 2921              	.Ldebug_loc0:
 2922              	.LLST0:
 2923 0000 00000000 		.4byte	.LVL2
 2924 0004 32000000 		.4byte	.LVL7
 2925 0008 0100     		.2byte	0x1
 2926 000a 50       		.byte	0x50
 2927 000b 32000000 		.4byte	.LVL7
 2928 000f 41000000 		.4byte	.LVL9-1
 2929 0013 0100     		.2byte	0x1
 2930 0015 51       		.byte	0x51
 2931 0016 41000000 		.4byte	.LVL9-1
 2932 001a 42000000 		.4byte	.LVL9
 2933 001e 0400     		.2byte	0x4
 2934 0020 F3       		.byte	0xf3
 2935 0021 01       		.uleb128 0x1
 2936 0022 50       		.byte	0x50
 2937 0023 9F       		.byte	0x9f
 2938 0024 42000000 		.4byte	.LVL9
 2939 0028 59000000 		.4byte	.LVL11-1
 2940 002c 0100     		.2byte	0x1
 2941 002e 50       		.byte	0x50
 2942 002f 59000000 		.4byte	.LVL11-1
 2943 0033 5A000000 		.4byte	.LFE232
 2944 0037 0400     		.2byte	0x4
 2945 0039 F3       		.byte	0xf3
 2946 003a 01       		.uleb128 0x1
 2947 003b 50       		.byte	0x50
 2948 003c 9F       		.byte	0x9f
 2949 003d 00000000 		.4byte	0
 2950 0041 00000000 		.4byte	0
 2951              	.LLST1:
 2952 0045 10000000 		.4byte	.LVL3
 2953 0049 1A000000 		.4byte	.LVL5
 2954 004d 0100     		.2byte	0x1
 2955 004f 53       		.byte	0x53
 2956 0050 1A000000 		.4byte	.LVL5
 2957 0054 20000000 		.4byte	.LVL6
 2958 0058 0200     		.2byte	0x2
 2959 005a 70       		.byte	0x70
 2960 005b 1E       		.sleb128 30
 2961 005c 20000000 		.4byte	.LVL6
 2962 0060 41000000 		.4byte	.LVL9-1
 2963 0064 0100     		.2byte	0x1
 2964 0066 53       		.byte	0x53
ARM GAS  /var/folders/m4/4md61f0s1_g0rzfghffqnxvr0000gn/T//ccv3R7jd.s 			page 53


 2965 0067 42000000 		.4byte	.LVL9
 2966 006b 59000000 		.4byte	.LVL11-1
 2967 006f 0100     		.2byte	0x1
 2968 0071 53       		.byte	0x53
 2969 0072 00000000 		.4byte	0
 2970 0076 00000000 		.4byte	0
 2971              	.LLST2:
 2972 007a 18000000 		.4byte	.LVL4
 2973 007e 20000000 		.4byte	.LVL6
 2974 0082 0200     		.2byte	0x2
 2975 0084 30       		.byte	0x30
 2976 0085 9F       		.byte	0x9f
 2977 0086 00000000 		.4byte	0
 2978 008a 00000000 		.4byte	0
 2979              	.LLST3:
 2980 008e 38000000 		.4byte	.LVL8
 2981 0092 42000000 		.4byte	.LVL9
 2982 0096 0200     		.2byte	0x2
 2983 0098 30       		.byte	0x30
 2984 0099 9F       		.byte	0x9f
 2985 009a 00000000 		.4byte	0
 2986 009e 00000000 		.4byte	0
 2987              	.LLST4:
 2988 00a2 00000000 		.4byte	.LVL12
 2989 00a6 0D000000 		.4byte	.LVL13-1
 2990 00aa 0100     		.2byte	0x1
 2991 00ac 50       		.byte	0x50
 2992 00ad 0D000000 		.4byte	.LVL13-1
 2993 00b1 3C000000 		.4byte	.LFE233
 2994 00b5 0400     		.2byte	0x4
 2995 00b7 F3       		.byte	0xf3
 2996 00b8 01       		.uleb128 0x1
 2997 00b9 50       		.byte	0x50
 2998 00ba 9F       		.byte	0x9f
 2999 00bb 00000000 		.4byte	0
 3000 00bf 00000000 		.4byte	0
 3001              	.LLST5:
 3002 00c3 00000000 		.4byte	.LVL12
 3003 00c7 0D000000 		.4byte	.LVL13-1
 3004 00cb 0100     		.2byte	0x1
 3005 00cd 51       		.byte	0x51
 3006 00ce 0D000000 		.4byte	.LVL13-1
 3007 00d2 3C000000 		.4byte	.LFE233
 3008 00d6 0100     		.2byte	0x1
 3009 00d8 57       		.byte	0x57
 3010 00d9 00000000 		.4byte	0
 3011 00dd 00000000 		.4byte	0
 3012              	.LLST6:
 3013 00e1 00000000 		.4byte	.LVL12
 3014 00e5 0D000000 		.4byte	.LVL13-1
 3015 00e9 0100     		.2byte	0x1
 3016 00eb 52       		.byte	0x52
 3017 00ec 0D000000 		.4byte	.LVL13-1
 3018 00f0 3C000000 		.4byte	.LFE233
 3019 00f4 0100     		.2byte	0x1
 3020 00f6 56       		.byte	0x56
 3021 00f7 00000000 		.4byte	0
ARM GAS  /var/folders/m4/4md61f0s1_g0rzfghffqnxvr0000gn/T//ccv3R7jd.s 			page 54


 3022 00fb 00000000 		.4byte	0
 3023              	.LLST7:
 3024 00ff 00000000 		.4byte	.LVL12
 3025 0103 0D000000 		.4byte	.LVL13-1
 3026 0107 0100     		.2byte	0x1
 3027 0109 53       		.byte	0x53
 3028 010a 0D000000 		.4byte	.LVL13-1
 3029 010e 3C000000 		.4byte	.LFE233
 3030 0112 0100     		.2byte	0x1
 3031 0114 55       		.byte	0x55
 3032 0115 00000000 		.4byte	0
 3033 0119 00000000 		.4byte	0
 3034              	.LLST8:
 3035 011d 0E000000 		.4byte	.LVL13
 3036 0121 23000000 		.4byte	.LVL15-1
 3037 0125 0100     		.2byte	0x1
 3038 0127 50       		.byte	0x50
 3039 0128 00000000 		.4byte	0
 3040 012c 00000000 		.4byte	0
 3041              	.LLST9:
 3042 0130 2C000000 		.4byte	.LVL16
 3043 0134 2F000000 		.4byte	.LVL17-1
 3044 0138 0100     		.2byte	0x1
 3045 013a 50       		.byte	0x50
 3046 013b 2F000000 		.4byte	.LVL17-1
 3047 013f 38000000 		.4byte	.LVL18
 3048 0143 0100     		.2byte	0x1
 3049 0145 54       		.byte	0x54
 3050 0146 00000000 		.4byte	0
 3051 014a 00000000 		.4byte	0
 3052              	.LLST10:
 3053 014e 10000000 		.4byte	.LVL14
 3054 0152 38000000 		.4byte	.LVL18
 3055 0156 0300     		.2byte	0x3
 3056 0158 08       		.byte	0x8
 3057 0159 20       		.byte	0x20
 3058 015a 9F       		.byte	0x9f
 3059 015b 00000000 		.4byte	0
 3060 015f 00000000 		.4byte	0
 3061              	.LLST11:
 3062 0163 30000000 		.4byte	.LVL17
 3063 0167 38000000 		.4byte	.LVL18
 3064 016b 0200     		.2byte	0x2
 3065 016d 30       		.byte	0x30
 3066 016e 9F       		.byte	0x9f
 3067 016f 00000000 		.4byte	0
 3068 0173 00000000 		.4byte	0
 3069              	.LLST12:
 3070 0177 00000000 		.4byte	.LVL19
 3071 017b 11000000 		.4byte	.LVL20-1
 3072 017f 0100     		.2byte	0x1
 3073 0181 50       		.byte	0x50
 3074 0182 11000000 		.4byte	.LVL20-1
 3075 0186 44000000 		.4byte	.LFE234
 3076 018a 0100     		.2byte	0x1
 3077 018c 55       		.byte	0x55
 3078 018d 00000000 		.4byte	0
ARM GAS  /var/folders/m4/4md61f0s1_g0rzfghffqnxvr0000gn/T//ccv3R7jd.s 			page 55


 3079 0191 00000000 		.4byte	0
 3080              	.LLST13:
 3081 0195 00000000 		.4byte	.LVL19
 3082 0199 11000000 		.4byte	.LVL20-1
 3083 019d 0100     		.2byte	0x1
 3084 019f 51       		.byte	0x51
 3085 01a0 11000000 		.4byte	.LVL20-1
 3086 01a4 44000000 		.4byte	.LFE234
 3087 01a8 0100     		.2byte	0x1
 3088 01aa 57       		.byte	0x57
 3089 01ab 00000000 		.4byte	0
 3090 01af 00000000 		.4byte	0
 3091              	.LLST14:
 3092 01b3 00000000 		.4byte	.LVL19
 3093 01b7 11000000 		.4byte	.LVL20-1
 3094 01bb 0100     		.2byte	0x1
 3095 01bd 52       		.byte	0x52
 3096 01be 11000000 		.4byte	.LVL20-1
 3097 01c2 44000000 		.4byte	.LFE234
 3098 01c6 0100     		.2byte	0x1
 3099 01c8 56       		.byte	0x56
 3100 01c9 00000000 		.4byte	0
 3101 01cd 00000000 		.4byte	0
 3102              	.LLST15:
 3103 01d1 00000000 		.4byte	.LVL19
 3104 01d5 11000000 		.4byte	.LVL20-1
 3105 01d9 0100     		.2byte	0x1
 3106 01db 53       		.byte	0x53
 3107 01dc 11000000 		.4byte	.LVL20-1
 3108 01e0 44000000 		.4byte	.LFE234
 3109 01e4 0100     		.2byte	0x1
 3110 01e6 58       		.byte	0x58
 3111 01e7 00000000 		.4byte	0
 3112 01eb 00000000 		.4byte	0
 3113              	.LLST16:
 3114 01ef 12000000 		.4byte	.LVL20
 3115 01f3 27000000 		.4byte	.LVL22-1
 3116 01f7 0100     		.2byte	0x1
 3117 01f9 50       		.byte	0x50
 3118 01fa 00000000 		.4byte	0
 3119 01fe 00000000 		.4byte	0
 3120              	.LLST17:
 3121 0202 32000000 		.4byte	.LVL23
 3122 0206 35000000 		.4byte	.LVL24-1
 3123 020a 0100     		.2byte	0x1
 3124 020c 50       		.byte	0x50
 3125 020d 35000000 		.4byte	.LVL24-1
 3126 0211 3E000000 		.4byte	.LVL25
 3127 0215 0100     		.2byte	0x1
 3128 0217 54       		.byte	0x54
 3129 0218 00000000 		.4byte	0
 3130 021c 00000000 		.4byte	0
 3131              	.LLST18:
 3132 0220 14000000 		.4byte	.LVL21
 3133 0224 3E000000 		.4byte	.LVL25
 3134 0228 0300     		.2byte	0x3
 3135 022a 08       		.byte	0x8
ARM GAS  /var/folders/m4/4md61f0s1_g0rzfghffqnxvr0000gn/T//ccv3R7jd.s 			page 56


 3136 022b 20       		.byte	0x20
 3137 022c 9F       		.byte	0x9f
 3138 022d 00000000 		.4byte	0
 3139 0231 00000000 		.4byte	0
 3140              	.LLST19:
 3141 0235 36000000 		.4byte	.LVL24
 3142 0239 3E000000 		.4byte	.LVL25
 3143 023d 0200     		.2byte	0x2
 3144 023f 30       		.byte	0x30
 3145 0240 9F       		.byte	0x9f
 3146 0241 00000000 		.4byte	0
 3147 0245 00000000 		.4byte	0
 3148              		.section	.debug_aranges,"",%progbits
 3149 0000 34000000 		.4byte	0x34
 3150 0004 0200     		.2byte	0x2
 3151 0006 00000000 		.4byte	.Ldebug_info0
 3152 000a 04       		.byte	0x4
 3153 000b 00       		.byte	0
 3154 000c 0000     		.2byte	0
 3155 000e 0000     		.2byte	0
 3156 0010 00000000 		.4byte	.LFB231
 3157 0014 14000000 		.4byte	.LFE231-.LFB231
 3158 0018 00000000 		.4byte	.LFB232
 3159 001c 5A000000 		.4byte	.LFE232-.LFB232
 3160 0020 00000000 		.4byte	.LFB233
 3161 0024 3C000000 		.4byte	.LFE233-.LFB233
 3162 0028 00000000 		.4byte	.LFB234
 3163 002c 44000000 		.4byte	.LFE234-.LFB234
 3164 0030 00000000 		.4byte	0
 3165 0034 00000000 		.4byte	0
 3166              		.section	.debug_ranges,"",%progbits
 3167              	.Ldebug_ranges0:
 3168 0000 00000000 		.4byte	.LFB231
 3169 0004 14000000 		.4byte	.LFE231
 3170 0008 00000000 		.4byte	.LFB232
 3171 000c 5A000000 		.4byte	.LFE232
 3172 0010 00000000 		.4byte	.LFB233
 3173 0014 3C000000 		.4byte	.LFE233
 3174 0018 00000000 		.4byte	.LFB234
 3175 001c 44000000 		.4byte	.LFE234
 3176 0020 00000000 		.4byte	0
 3177 0024 00000000 		.4byte	0
 3178              		.section	.debug_line,"",%progbits
 3179              	.Ldebug_line0:
 3180 0000 96030000 		.section	.debug_str,"MS",%progbits,1
 3180      0200B002 
 3180      00000201 
 3180      FB0E0D00 
 3180      01010101 
 3181              	.LASF143:
 3182 0000 2F557365 		.ascii	"/Users/raphael/Documents/pcb-quadrotor/code\000"
 3182      72732F72 
 3182      61706861 
 3182      656C2F44 
 3182      6F63756D 
 3183              	.LASF104:
 3184 002c 7466756E 		.ascii	"tfunc_t\000"
ARM GAS  /var/folders/m4/4md61f0s1_g0rzfghffqnxvr0000gn/T//ccv3R7jd.s 			page 57


 3184      635F7400 
 3185              	.LASF54:
 3186 0034 72656164 		.ascii	"ready_list_t\000"
 3186      795F6C69 
 3186      73745F74 
 3186      00
 3187              	.LASF2:
 3188 0041 73697A65 		.ascii	"size_t\000"
 3188      5F7400
 3189              	.LASF89:
 3190 0048 7264796D 		.ascii	"rdymsg\000"
 3190      736700
 3191              	.LASF17:
 3192 004f 75696E74 		.ascii	"uint64_t\000"
 3192      36345F74 
 3192      00
 3193              	.LASF3:
 3194 0058 5F5F7569 		.ascii	"__uint8_t\000"
 3194      6E74385F 
 3194      7400
 3195              	.LASF86:
 3196 0062 706F7274 		.ascii	"port_intctx\000"
 3196      5F696E74 
 3196      63747800 
 3197              	.LASF73:
 3198 006e 73797374 		.ascii	"system_debug_t\000"
 3198      656D5F64 
 3198      65627567 
 3198      5F7400
 3199              	.LASF122:
 3200 007d 706F7274 		.ascii	"port_lock\000"
 3200      5F6C6F63 
 3200      6B00
 3201              	.LASF106:
 3202 0087 6D656D67 		.ascii	"memgetfunc_t\000"
 3202      65746675 
 3202      6E635F74 
 3202      00
 3203              	.LASF13:
 3204 0094 6C6F6E67 		.ascii	"long long unsigned int\000"
 3204      206C6F6E 
 3204      6720756E 
 3204      7369676E 
 3204      65642069 
 3205              	.LASF142:
 3206 00ab 43686962 		.ascii	"ChibiOS_16.1.4/os/rt/src/chdynamic.c\000"
 3206      694F535F 
 3206      31362E31 
 3206      2E342F6F 
 3206      732F7274 
 3207              	.LASF90:
 3208 00d0 65786974 		.ascii	"exitcode\000"
 3208      636F6465 
 3208      00
 3209              	.LASF110:
 3210 00d9 685F6672 		.ascii	"h_free\000"
 3210      656500
ARM GAS  /var/folders/m4/4md61f0s1_g0rzfghffqnxvr0000gn/T//ccv3R7jd.s 			page 58


 3211              	.LASF70:
 3212 00e0 76697274 		.ascii	"virtual_timers_list_t\000"
 3212      75616C5F 
 3212      74696D65 
 3212      72735F6C 
 3212      6973745F 
 3213              	.LASF134:
 3214 00f6 49544D5F 		.ascii	"ITM_RxBuffer\000"
 3214      52784275 
 3214      66666572 
 3214      00
 3215              	.LASF130:
 3216 0103 68656170 		.ascii	"heapp\000"
 3216      7000
 3217              	.LASF112:
 3218 0109 6E657874 		.ascii	"next\000"
 3218      00
 3219              	.LASF53:
 3220 010e 63685F74 		.ascii	"ch_threads_queue\000"
 3220      68726561 
 3220      64735F71 
 3220      75657565 
 3220      00
 3221              	.LASF31:
 3222 011f 705F7072 		.ascii	"p_prio\000"
 3222      696F00
 3223              	.LASF11:
 3224 0126 6C6F6E67 		.ascii	"long long int\000"
 3224      206C6F6E 
 3224      6720696E 
 3224      7400
 3225              	.LASF1:
 3226 0134 7369676E 		.ascii	"signed char\000"
 3226      65642063 
 3226      68617200 
 3227              	.LASF111:
 3228 0140 685F6D74 		.ascii	"h_mtx\000"
 3228      7800
 3229              	.LASF47:
 3230 0146 705F6D70 		.ascii	"p_mpool\000"
 3230      6F6F6C00 
 3231              	.LASF100:
 3232 014e 6D5F7175 		.ascii	"m_queue\000"
 3232      65756500 
 3233              	.LASF136:
 3234 0156 63684865 		.ascii	"chHeapFree\000"
 3234      61704672 
 3234      656500
 3235              	.LASF79:
 3236 0161 76746C69 		.ascii	"vtlist\000"
 3236      737400
 3237              	.LASF123:
 3238 0168 706F7274 		.ascii	"port_unlock\000"
 3238      5F756E6C 
 3238      6F636B00 
 3239              	.LASF22:
 3240 0174 74736C69 		.ascii	"tslices_t\000"
ARM GAS  /var/folders/m4/4md61f0s1_g0rzfghffqnxvr0000gn/T//ccv3R7jd.s 			page 59


 3240      6365735F 
 3240      7400
 3241              	.LASF138:
 3242 017e 63685468 		.ascii	"chThdCreateI\000"
 3242      64437265 
 3242      61746549 
 3242      00
 3243              	.LASF92:
 3244 018b 77747472 		.ascii	"wttrp\000"
 3244      7000
 3245              	.LASF77:
 3246 0191 63685F73 		.ascii	"ch_system\000"
 3246      79737465 
 3246      6D00
 3247              	.LASF8:
 3248 019b 6C6F6E67 		.ascii	"long int\000"
 3248      20696E74 
 3248      00
 3249              	.LASF129:
 3250 01a4 63685468 		.ascii	"chThdCreateFromHeap\000"
 3250      64437265 
 3250      61746546 
 3250      726F6D48 
 3250      65617000 
 3251              	.LASF20:
 3252 01b8 74737461 		.ascii	"tstate_t\000"
 3252      74655F74 
 3252      00
 3253              	.LASF107:
 3254 01c1 6D656D6F 		.ascii	"memory_heap_t\000"
 3254      72795F68 
 3254      6561705F 
 3254      7400
 3255              	.LASF33:
 3256 01cf 705F6E65 		.ascii	"p_newer\000"
 3256      77657200 
 3257              	.LASF97:
 3258 01d7 735F7175 		.ascii	"s_queue\000"
 3258      65756500 
 3259              	.LASF133:
 3260 01df 63685468 		.ascii	"chThdCreateFromMemoryPool\000"
 3260      64437265 
 3260      61746546 
 3260      726F6D4D 
 3260      656D6F72 
 3261              	.LASF59:
 3262 01f9 725F6E65 		.ascii	"r_newer\000"
 3262      77657200 
 3263              	.LASF120:
 3264 0201 6D705F70 		.ascii	"mp_provider\000"
 3264      726F7669 
 3264      64657200 
 3265              	.LASF83:
 3266 020d 72656761 		.ascii	"regarm_t\000"
 3266      726D5F74 
 3266      00
 3267              	.LASF66:
ARM GAS  /var/folders/m4/4md61f0s1_g0rzfghffqnxvr0000gn/T//ccv3R7jd.s 			page 60


 3268 0216 76745F70 		.ascii	"vt_prev\000"
 3268      72657600 
 3269              	.LASF105:
 3270 021e 6D757465 		.ascii	"mutex_t\000"
 3270      785F7400 
 3271              	.LASF145:
 3272 0226 76616C75 		.ascii	"value\000"
 3272      6500
 3273              	.LASF114:
 3274 022c 616C6967 		.ascii	"align\000"
 3274      6E00
 3275              	.LASF81:
 3276 0232 69646C65 		.ascii	"idle_thread_wa\000"
 3276      5F746872 
 3276      6561645F 
 3276      776100
 3277              	.LASF26:
 3278 0241 636E745F 		.ascii	"cnt_t\000"
 3278      7400
 3279              	.LASF0:
 3280 0247 756E7369 		.ascii	"unsigned int\000"
 3280      676E6564 
 3280      20696E74 
 3280      00
 3281              	.LASF65:
 3282 0254 76745F6E 		.ascii	"vt_next\000"
 3282      65787400 
 3283              	.LASF40:
 3284 025c 705F7469 		.ascii	"p_time\000"
 3284      6D6500
 3285              	.LASF93:
 3286 0263 77747365 		.ascii	"wtsemp\000"
 3286      6D7000
 3287              	.LASF67:
 3288 026a 76745F64 		.ascii	"vt_delta\000"
 3288      656C7461 
 3288      00
 3289              	.LASF42:
 3290 0273 705F6D73 		.ascii	"p_msgqueue\000"
 3290      67717565 
 3290      756500
 3291              	.LASF121:
 3292 027e 6D656D6F 		.ascii	"memory_pool_t\000"
 3292      72795F70 
 3292      6F6F6C5F 
 3292      7400
 3293              	.LASF98:
 3294 028c 735F636E 		.ascii	"s_cnt\000"
 3294      7400
 3295              	.LASF6:
 3296 0292 73686F72 		.ascii	"short unsigned int\000"
 3296      7420756E 
 3296      7369676E 
 3296      65642069 
 3296      6E7400
 3297              	.LASF50:
 3298 02a5 63685F74 		.ascii	"ch_thread\000"
ARM GAS  /var/folders/m4/4md61f0s1_g0rzfghffqnxvr0000gn/T//ccv3R7jd.s 			page 61


 3298      68726561 
 3298      6400
 3299              	.LASF139:
 3300 02af 63685363 		.ascii	"chSchWakeupS\000"
 3300      6857616B 
 3300      65757053 
 3300      00
 3301              	.LASF80:
 3302 02bc 6D61696E 		.ascii	"mainthread\000"
 3302      74687265 
 3302      616400
 3303              	.LASF24:
 3304 02c7 6D73675F 		.ascii	"msg_t\000"
 3304      7400
 3305              	.LASF76:
 3306 02cd 63685F73 		.ascii	"ch_system_t\000"
 3306      79737465 
 3306      6D5F7400 
 3307              	.LASF19:
 3308 02d9 746D6F64 		.ascii	"tmode_t\000"
 3308      655F7400 
 3309              	.LASF55:
 3310 02e1 63685F72 		.ascii	"ch_ready_list\000"
 3310      65616479 
 3310      5F6C6973 
 3310      7400
 3311              	.LASF25:
 3312 02ef 6576656E 		.ascii	"eventmask_t\000"
 3312      746D6173 
 3312      6B5F7400 
 3313              	.LASF7:
 3314 02fb 5F5F696E 		.ascii	"__int32_t\000"
 3314      7433325F 
 3314      7400
 3315              	.LASF128:
 3316 0305 63685468 		.ascii	"chThdAddRef\000"
 3316      64416464 
 3316      52656600 
 3317              	.LASF84:
 3318 0311 73746B61 		.ascii	"stkalign_t\000"
 3318      6C69676E 
 3318      5F7400
 3319              	.LASF141:
 3320 031c 474E5520 		.ascii	"GNU C 4.9.3 20150529 (release) [ARM/embedded-4_9-br"
 3320      4320342E 
 3320      392E3320 
 3320      32303135 
 3320      30353239 
 3321 034f 616E6368 		.ascii	"anch revision 224288] -mcpu=cortex-m4 -mfloat-abi=h"
 3321      20726576 
 3321      6973696F 
 3321      6E203232 
 3321      34323838 
 3322 0382 61726420 		.ascii	"ard -mfpu=fpv4-sp-d16 -mno-thumb-interwork -mthumb "
 3322      2D6D6670 
 3322      753D6670 
 3322      76342D73 
ARM GAS  /var/folders/m4/4md61f0s1_g0rzfghffqnxvr0000gn/T//ccv3R7jd.s 			page 62


 3322      702D6431 
 3323 03b5 2D676764 		.ascii	"-ggdb -O2 -std=c99 -fomit-frame-pointer -falign-fun"
 3323      62202D4F 
 3323      32202D73 
 3323      74643D63 
 3323      3939202D 
 3324 03e8 6374696F 		.ascii	"ctions=16 -ffunction-sections -fdata-sections -fno-"
 3324      6E733D31 
 3324      36202D66 
 3324      66756E63 
 3324      74696F6E 
 3325 041b 636F6D6D 		.ascii	"common -fsingle-precision-constant\000"
 3325      6F6E202D 
 3325      6673696E 
 3325      676C652D 
 3325      70726563 
 3326              	.LASF41:
 3327 043e 705F7761 		.ascii	"p_waiting\000"
 3327      6974696E 
 3327      6700
 3328              	.LASF82:
 3329 0448 73697A65 		.ascii	"sizetype\000"
 3329      74797065 
 3329      00
 3330              	.LASF48:
 3331 0451 74687265 		.ascii	"thread_reference_t\000"
 3331      61645F72 
 3331      65666572 
 3331      656E6365 
 3331      5F7400
 3332              	.LASF71:
 3333 0464 63685F76 		.ascii	"ch_virtual_timers_list\000"
 3333      69727475 
 3333      616C5F74 
 3333      696D6572 
 3333      735F6C69 
 3334              	.LASF49:
 3335 047b 74687265 		.ascii	"threads_list_t\000"
 3335      6164735F 
 3335      6C697374 
 3335      5F7400
 3336              	.LASF34:
 3337 048a 705F6F6C 		.ascii	"p_older\000"
 3337      64657200 
 3338              	.LASF58:
 3339 0492 725F6374 		.ascii	"r_ctx\000"
 3339      7800
 3340              	.LASF119:
 3341 0498 6D705F6F 		.ascii	"mp_object_size\000"
 3341      626A6563 
 3341      745F7369 
 3341      7A6500
 3342              	.LASF88:
 3343 04a7 746D5F63 		.ascii	"tm_calibration_t\000"
 3343      616C6962 
 3343      72617469 
 3343      6F6E5F74 
ARM GAS  /var/folders/m4/4md61f0s1_g0rzfghffqnxvr0000gn/T//ccv3R7jd.s 			page 63


 3343      00
 3344              	.LASF131:
 3345 04b8 7072696F 		.ascii	"prio\000"
 3345      00
 3346              	.LASF60:
 3347 04bd 725F6F6C 		.ascii	"r_older\000"
 3347      64657200 
 3348              	.LASF12:
 3349 04c5 5F5F7569 		.ascii	"__uint64_t\000"
 3349      6E743634 
 3349      5F7400
 3350              	.LASF117:
 3351 04d0 70685F6E 		.ascii	"ph_next\000"
 3351      65787400 
 3352              	.LASF21:
 3353 04d8 74726566 		.ascii	"trefs_t\000"
 3353      735F7400 
 3354              	.LASF132:
 3355 04e0 72656673 		.ascii	"refs\000"
 3355      00
 3356              	.LASF63:
 3357 04e5 76697274 		.ascii	"virtual_timer_t\000"
 3357      75616C5F 
 3357      74696D65 
 3357      725F7400 
 3358              	.LASF30:
 3359 04f5 705F7072 		.ascii	"p_prev\000"
 3359      657600
 3360              	.LASF23:
 3361 04fc 74707269 		.ascii	"tprio_t\000"
 3361      6F5F7400 
 3362              	.LASF74:
 3363 0504 63685F73 		.ascii	"ch_system_debug\000"
 3363      79737465 
 3363      6D5F6465 
 3363      62756700 
 3364              	.LASF15:
 3365 0514 696E7433 		.ascii	"int32_t\000"
 3365      325F7400 
 3366              	.LASF4:
 3367 051c 756E7369 		.ascii	"unsigned char\000"
 3367      676E6564 
 3367      20636861 
 3367      7200
 3368              	.LASF144:
 3369 052a 68656170 		.ascii	"heap_header\000"
 3369      5F686561 
 3369      64657200 
 3370              	.LASF45:
 3371 0536 705F6D74 		.ascii	"p_mtxlist\000"
 3371      786C6973 
 3371      7400
 3372              	.LASF5:
 3373 0540 73686F72 		.ascii	"short int\000"
 3373      7420696E 
 3373      7400
 3374              	.LASF36:
ARM GAS  /var/folders/m4/4md61f0s1_g0rzfghffqnxvr0000gn/T//ccv3R7jd.s 			page 64


 3375 054a 705F7374 		.ascii	"p_state\000"
 3375      61746500 
 3376              	.LASF39:
 3377 0552 705F7072 		.ascii	"p_preempt\000"
 3377      65656D70 
 3377      7400
 3378              	.LASF57:
 3379 055c 725F7072 		.ascii	"r_prio\000"
 3379      696F00
 3380              	.LASF95:
 3381 0563 65776D61 		.ascii	"ewmask\000"
 3381      736B00
 3382              	.LASF29:
 3383 056a 705F6E65 		.ascii	"p_next\000"
 3383      787400
 3384              	.LASF37:
 3385 0571 705F666C 		.ascii	"p_flags\000"
 3385      61677300 
 3386              	.LASF127:
 3387 0579 5F5F6675 		.ascii	"__func__\000"
 3387      6E635F5F 
 3387      00
 3388              	.LASF124:
 3389 0582 63685379 		.ascii	"chSysLock\000"
 3389      734C6F63 
 3389      6B00
 3390              	.LASF146:
 3391 058c 63685468 		.ascii	"chThdRelease\000"
 3391      6452656C 
 3391      65617365 
 3391      00
 3392              	.LASF137:
 3393 0599 63684865 		.ascii	"chHeapAlloc\000"
 3393      6170416C 
 3393      6C6F6300 
 3394              	.LASF96:
 3395 05a5 63685F73 		.ascii	"ch_semaphore\000"
 3395      656D6170 
 3395      686F7265 
 3395      00
 3396              	.LASF44:
 3397 05b2 705F6570 		.ascii	"p_epending\000"
 3397      656E6469 
 3397      6E6700
 3398              	.LASF16:
 3399 05bd 75696E74 		.ascii	"uint32_t\000"
 3399      33325F74 
 3399      00
 3400              	.LASF94:
 3401 05c6 77746D74 		.ascii	"wtmtxp\000"
 3401      787000
 3402              	.LASF56:
 3403 05cd 725F7175 		.ascii	"r_queue\000"
 3403      65756500 
 3404              	.LASF51:
 3405 05d5 63685F74 		.ascii	"ch_threads_list\000"
 3405      68726561 
ARM GAS  /var/folders/m4/4md61f0s1_g0rzfghffqnxvr0000gn/T//ccv3R7jd.s 			page 65


 3405      64735F6C 
 3405      69737400 
 3406              	.LASF113:
 3407 05e5 68656170 		.ascii	"heap\000"
 3407      00
 3408              	.LASF10:
 3409 05ea 6C6F6E67 		.ascii	"long unsigned int\000"
 3409      20756E73 
 3409      69676E65 
 3409      6420696E 
 3409      7400
 3410              	.LASF61:
 3411 05fc 725F6375 		.ascii	"r_current\000"
 3411      7272656E 
 3411      7400
 3412              	.LASF103:
 3413 0606 63686172 		.ascii	"char\000"
 3413      00
 3414              	.LASF28:
 3415 060b 74687265 		.ascii	"thread_t\000"
 3415      61645F74 
 3415      00
 3416              	.LASF102:
 3417 0614 6D5F6E65 		.ascii	"m_next\000"
 3417      787400
 3418              	.LASF27:
 3419 061b 73797374 		.ascii	"systime_t\000"
 3419      696D655F 
 3419      7400
 3420              	.LASF46:
 3421 0625 705F7265 		.ascii	"p_realprio\000"
 3421      616C7072 
 3421      696F00
 3422              	.LASF62:
 3423 0630 76746675 		.ascii	"vtfunc_t\000"
 3423      6E635F74 
 3423      00
 3424              	.LASF9:
 3425 0639 5F5F7569 		.ascii	"__uint32_t\000"
 3425      6E743332 
 3425      5F7400
 3426              	.LASF125:
 3427 0644 5F5F7365 		.ascii	"__set_BASEPRI\000"
 3427      745F4241 
 3427      53455052 
 3427      4900
 3428              	.LASF75:
 3429 0652 70616E69 		.ascii	"panic_msg\000"
 3429      635F6D73 
 3429      6700
 3430              	.LASF87:
 3431 065c 6F666673 		.ascii	"offset\000"
 3431      657400
 3432              	.LASF99:
 3433 0663 63685F6D 		.ascii	"ch_mutex\000"
 3433      75746578 
 3433      00
ARM GAS  /var/folders/m4/4md61f0s1_g0rzfghffqnxvr0000gn/T//ccv3R7jd.s 			page 66


 3434              	.LASF118:
 3435 066c 6D705F6E 		.ascii	"mp_next\000"
 3435      65787400 
 3436              	.LASF85:
 3437 0674 636F6E74 		.ascii	"context\000"
 3437      65787400 
 3438              	.LASF64:
 3439 067c 63685F76 		.ascii	"ch_virtual_timer\000"
 3439      69727475 
 3439      616C5F74 
 3439      696D6572 
 3439      00
 3440              	.LASF18:
 3441 068d 7274636E 		.ascii	"rtcnt_t\000"
 3441      745F7400 
 3442              	.LASF69:
 3443 0695 76745F70 		.ascii	"vt_par\000"
 3443      617200
 3444              	.LASF52:
 3445 069c 74687265 		.ascii	"threads_queue_t\000"
 3445      6164735F 
 3445      71756575 
 3445      655F7400 
 3446              	.LASF116:
 3447 06ac 706F6F6C 		.ascii	"pool_header\000"
 3447      5F686561 
 3447      64657200 
 3448              	.LASF38:
 3449 06b8 705F7265 		.ascii	"p_refs\000"
 3449      667300
 3450              	.LASF78:
 3451 06bf 726C6973 		.ascii	"rlist\000"
 3451      7400
 3452              	.LASF14:
 3453 06c5 75696E74 		.ascii	"uint8_t\000"
 3453      385F7400 
 3454              	.LASF140:
 3455 06cd 6368506F 		.ascii	"chPoolAlloc\000"
 3455      6F6C416C 
 3455      6C6F6300 
 3456              	.LASF135:
 3457 06d9 6368506F 		.ascii	"chPoolFree\000"
 3457      6F6C4672 
 3457      656500
 3458              	.LASF109:
 3459 06e4 685F7072 		.ascii	"h_provider\000"
 3459      6F766964 
 3459      657200
 3460              	.LASF91:
 3461 06ef 77746F62 		.ascii	"wtobjp\000"
 3461      6A7000
 3462              	.LASF35:
 3463 06f6 705F6E61 		.ascii	"p_name\000"
 3463      6D6500
 3464              	.LASF115:
 3465 06fd 73697A65 		.ascii	"size\000"
 3465      00
ARM GAS  /var/folders/m4/4md61f0s1_g0rzfghffqnxvr0000gn/T//ccv3R7jd.s 			page 67


 3466              	.LASF72:
 3467 0702 76745F73 		.ascii	"vt_systime\000"
 3467      79737469 
 3467      6D6500
 3468              	.LASF126:
 3469 070d 63685379 		.ascii	"chSysUnlock\000"
 3469      73556E6C 
 3469      6F636B00 
 3470              	.LASF43:
 3471 0719 705F6D73 		.ascii	"p_msg\000"
 3471      6700
 3472              	.LASF101:
 3473 071f 6D5F6F77 		.ascii	"m_owner\000"
 3473      6E657200 
 3474              	.LASF32:
 3475 0727 705F6374 		.ascii	"p_ctx\000"
 3475      7800
 3476              	.LASF68:
 3477 072d 76745F66 		.ascii	"vt_func\000"
 3477      756E6300 
 3478              	.LASF108:
 3479 0735 6D656D6F 		.ascii	"memory_heap\000"
 3479      72795F68 
 3479      65617000 
 3480              		.ident	"GCC: (GNU Tools for ARM Embedded Processors) 4.9.3 20150529 (release) [ARM/embedded-4_9-br
ARM GAS  /var/folders/m4/4md61f0s1_g0rzfghffqnxvr0000gn/T//ccv3R7jd.s 			page 68


DEFINED SYMBOLS
                            *ABS*:0000000000000000 chdynamic.c
/var/folders/m4/4md61f0s1_g0rzfghffqnxvr0000gn/T//ccv3R7jd.s:21     .text.chThdAddRef:0000000000000000 $t
/var/folders/m4/4md61f0s1_g0rzfghffqnxvr0000gn/T//ccv3R7jd.s:27     .text.chThdAddRef:0000000000000000 chThdAddRef
/var/folders/m4/4md61f0s1_g0rzfghffqnxvr0000gn/T//ccv3R7jd.s:78     .text.chThdRelease:0000000000000000 $t
/var/folders/m4/4md61f0s1_g0rzfghffqnxvr0000gn/T//ccv3R7jd.s:84     .text.chThdRelease:0000000000000000 chThdRelease
/var/folders/m4/4md61f0s1_g0rzfghffqnxvr0000gn/T//ccv3R7jd.s:214    .text.chThdCreateFromHeap:0000000000000000 $t
/var/folders/m4/4md61f0s1_g0rzfghffqnxvr0000gn/T//ccv3R7jd.s:220    .text.chThdCreateFromHeap:0000000000000000 chThdCreateFromHeap
/var/folders/m4/4md61f0s1_g0rzfghffqnxvr0000gn/T//ccv3R7jd.s:308    .text.chThdCreateFromMemoryPool:0000000000000000 $t
/var/folders/m4/4md61f0s1_g0rzfghffqnxvr0000gn/T//ccv3R7jd.s:314    .text.chThdCreateFromMemoryPool:0000000000000000 chThdCreateFromMemoryPool
                     .debug_frame:0000000000000010 $d

UNDEFINED SYMBOLS
chPoolFree
chHeapFree
chHeapAlloc
chThdCreateI
chSchWakeupS
chPoolAlloc
