ARM GAS  /var/folders/m4/4md61f0s1_g0rzfghffqnxvr0000gn/T//ccvWzJty.s 			page 1


   1              		.syntax unified
   2              		.cpu cortex-m4
   3              		.eabi_attribute 27, 1
   4              		.eabi_attribute 28, 1
   5              		.fpu fpv4-sp-d16
   6              		.eabi_attribute 20, 1
   7              		.eabi_attribute 21, 1
   8              		.eabi_attribute 23, 3
   9              		.eabi_attribute 24, 1
  10              		.eabi_attribute 25, 1
  11              		.eabi_attribute 26, 1
  12              		.eabi_attribute 30, 2
  13              		.eabi_attribute 34, 1
  14              		.eabi_attribute 18, 4
  15              		.thumb
  16              		.file	"chevents.c"
  17              		.text
  18              	.Ltext0:
  19              		.cfi_sections	.debug_frame
  20              		.section	.text.chEvtRegisterMaskWithFlags,"ax",%progbits
  21              		.align	2
  22              		.p2align 4,,15
  23              		.global	chEvtRegisterMaskWithFlags
  24              		.thumb
  25              		.thumb_func
  26              		.type	chEvtRegisterMaskWithFlags, %function
  27              	chEvtRegisterMaskWithFlags:
  28              	.LFB231:
  29              		.file 1 "ChibiOS_16.1.4/os/rt/src/chevents.c"
  30              		.loc 1 106 0
  31              		.cfi_startproc
  32              		@ args = 0, pretend = 0, frame = 0
  33              		@ frame_needed = 0, uses_anonymous_args = 0
  34              		@ link register save eliminated.
  35              	.LVL0:
  36 0000 30B4     		push	{r4, r5}
  37              		.cfi_def_cfa_offset 8
  38              		.cfi_offset 4, -8
  39              		.cfi_offset 5, -4
  40              	.LBB174:
  41              	.LBB175:
  42              	.LBB176:
  43              	.LBB177:
  44              		.file 2 "ChibiOS_16.1.4/os/ext/CMSIS/include/core_cmFunc.h"
  45              		.loc 2 548 0
  46 0002 2024     		movs	r4, #32
  47              	@ 548 "ChibiOS_16.1.4/os/ext/CMSIS/include/core_cmFunc.h" 1
  48 0004 84F31188 		MSR basepri, r4
  49              	@ 0 "" 2
  50              		.thumb
  51              	.LBE177:
  52              	.LBE176:
  53              	.LBE175:
  54              	.LBE174:
  55              		.loc 1 113 0
  56 0008 064D     		ldr	r5, .L3
  57              		.loc 1 111 0
ARM GAS  /var/folders/m4/4md61f0s1_g0rzfghffqnxvr0000gn/T//ccvWzJty.s 			page 2


  58 000a 0468     		ldr	r4, [r0]
  59              		.loc 1 113 0
  60 000c AD69     		ldr	r5, [r5, #24]
  61              		.loc 1 111 0
  62 000e 0C60     		str	r4, [r1]
  63              		.loc 1 115 0
  64 0010 0024     		movs	r4, #0
  65              		.loc 1 112 0
  66 0012 0160     		str	r1, [r0]
  67              		.loc 1 113 0
  68 0014 4D60     		str	r5, [r1, #4]
  69              		.loc 1 114 0
  70 0016 8A60     		str	r2, [r1, #8]
  71              		.loc 1 116 0
  72 0018 0B61     		str	r3, [r1, #16]
  73              	.LVL1:
  74              		.loc 1 115 0
  75 001a CC60     		str	r4, [r1, #12]
  76              	.LBB178:
  77              	.LBB179:
  78              	.LBB180:
  79              	.LBB181:
  80              	.LBB182:
  81              		.loc 2 548 0
  82              	@ 548 "ChibiOS_16.1.4/os/ext/CMSIS/include/core_cmFunc.h" 1
  83 001c 84F31188 		MSR basepri, r4
  84              	@ 0 "" 2
  85              		.thumb
  86              	.LBE182:
  87              	.LBE181:
  88              	.LBE180:
  89              	.LBE179:
  90              	.LBE178:
  91              		.loc 1 118 0
  92 0020 30BC     		pop	{r4, r5}
  93              		.cfi_restore 5
  94              		.cfi_restore 4
  95              		.cfi_def_cfa_offset 0
  96 0022 7047     		bx	lr
  97              	.L4:
  98              		.align	2
  99              	.L3:
 100 0024 00000000 		.word	ch
 101              		.cfi_endproc
 102              	.LFE231:
 103              		.size	chEvtRegisterMaskWithFlags, .-chEvtRegisterMaskWithFlags
 104              		.section	.text.chEvtUnregister,"ax",%progbits
 105              		.align	2
 106              		.p2align 4,,15
 107              		.global	chEvtUnregister
 108              		.thumb
 109              		.thumb_func
 110              		.type	chEvtUnregister, %function
 111              	chEvtUnregister:
 112              	.LFB232:
 113              		.loc 1 133 0
 114              		.cfi_startproc
ARM GAS  /var/folders/m4/4md61f0s1_g0rzfghffqnxvr0000gn/T//ccvWzJty.s 			page 3


 115              		@ args = 0, pretend = 0, frame = 0
 116              		@ frame_needed = 0, uses_anonymous_args = 0
 117              		@ link register save eliminated.
 118              	.LVL2:
 119              	.LBB183:
 120              	.LBB184:
 121              	.LBB185:
 122              	.LBB186:
 123              		.loc 2 548 0
 124 0000 2023     		movs	r3, #32
 125              	@ 548 "ChibiOS_16.1.4/os/ext/CMSIS/include/core_cmFunc.h" 1
 126 0002 83F31188 		MSR basepri, r3
 127              	@ 0 "" 2
 128              		.thumb
 129              	.LBE186:
 130              	.LBE185:
 131              	.LBE184:
 132              	.LBE183:
 133              		.loc 1 139 0
 134 0006 0246     		mov	r2, r0
 135 0008 02E0     		b	.L6
 136              	.LVL3:
 137              	.L8:
 138              		.loc 1 145 0
 139 000a 8B42     		cmp	r3, r1
 140 000c 07D0     		beq	.L11
 141 000e 1A46     		mov	r2, r3
 142              	.LVL4:
 143              	.L6:
 144              		.loc 1 143 0
 145 0010 1368     		ldr	r3, [r2]
 146 0012 8342     		cmp	r3, r0
 147 0014 F9D1     		bne	.L8
 148              	.LVL5:
 149              	.LBB187:
 150              	.LBB188:
 151              	.LBB189:
 152              	.LBB190:
 153              	.LBB191:
 154              		.loc 2 548 0
 155 0016 0023     		movs	r3, #0
 156              	@ 548 "ChibiOS_16.1.4/os/ext/CMSIS/include/core_cmFunc.h" 1
 157 0018 83F31188 		MSR basepri, r3
 158              	@ 0 "" 2
 159              		.thumb
 160 001c 7047     		bx	lr
 161              	.LVL6:
 162              	.L11:
 163              	.LBE191:
 164              	.LBE190:
 165              	.LBE189:
 166              	.LBE188:
 167              	.LBE187:
 168              		.loc 1 146 0
 169 001e 0B68     		ldr	r3, [r1]
 170 0020 1360     		str	r3, [r2]
 171              	.LVL7:
ARM GAS  /var/folders/m4/4md61f0s1_g0rzfghffqnxvr0000gn/T//ccvWzJty.s 			page 4


 172              	.LBB196:
 173              	.LBB195:
 174              	.LBB194:
 175              	.LBB193:
 176              	.LBB192:
 177              		.loc 2 548 0
 178 0022 0023     		movs	r3, #0
 179              	@ 548 "ChibiOS_16.1.4/os/ext/CMSIS/include/core_cmFunc.h" 1
 180 0024 83F31188 		MSR basepri, r3
 181              	@ 0 "" 2
 182              		.thumb
 183 0028 7047     		bx	lr
 184              	.LBE192:
 185              	.LBE193:
 186              	.LBE194:
 187              	.LBE195:
 188              	.LBE196:
 189              		.cfi_endproc
 190              	.LFE232:
 191              		.size	chEvtUnregister, .-chEvtUnregister
 192 002a 00BF     		.section	.text.chEvtGetAndClearEvents,"ax",%progbits
 193              		.align	2
 194              		.p2align 4,,15
 195              		.global	chEvtGetAndClearEvents
 196              		.thumb
 197              		.thumb_func
 198              		.type	chEvtGetAndClearEvents, %function
 199              	chEvtGetAndClearEvents:
 200              	.LFB233:
 201              		.loc 1 162 0
 202              		.cfi_startproc
 203              		@ args = 0, pretend = 0, frame = 0
 204              		@ frame_needed = 0, uses_anonymous_args = 0
 205              		@ link register save eliminated.
 206              	.LVL8:
 207              	.LBB197:
 208              	.LBB198:
 209              	.LBB199:
 210              	.LBB200:
 211              		.loc 2 548 0
 212 0000 2023     		movs	r3, #32
 213              	@ 548 "ChibiOS_16.1.4/os/ext/CMSIS/include/core_cmFunc.h" 1
 214 0002 83F31188 		MSR basepri, r3
 215              	@ 0 "" 2
 216              		.thumb
 217              	.LBE200:
 218              	.LBE199:
 219              	.LBE198:
 220              	.LBE197:
 221              		.loc 1 166 0
 222 0006 054B     		ldr	r3, .L13
 223 0008 9A69     		ldr	r2, [r3, #24]
 224 000a 936B     		ldr	r3, [r2, #56]
 225              	.LVL9:
 226              		.loc 1 167 0
 227 000c 23EA0001 		bic	r1, r3, r0
 228 0010 9163     		str	r1, [r2, #56]
ARM GAS  /var/folders/m4/4md61f0s1_g0rzfghffqnxvr0000gn/T//ccvWzJty.s 			page 5


 229              	.LVL10:
 230              	.LBB201:
 231              	.LBB202:
 232              	.LBB203:
 233              	.LBB204:
 234              	.LBB205:
 235              		.loc 2 548 0
 236 0012 0022     		movs	r2, #0
 237              	@ 548 "ChibiOS_16.1.4/os/ext/CMSIS/include/core_cmFunc.h" 1
 238 0014 82F31188 		MSR basepri, r2
 239              	@ 0 "" 2
 240              		.thumb
 241              	.LBE205:
 242              	.LBE204:
 243              	.LBE203:
 244              	.LBE202:
 245              	.LBE201:
 246              		.loc 1 171 0
 247 0018 1840     		ands	r0, r0, r3
 248              	.LVL11:
 249 001a 7047     		bx	lr
 250              	.L14:
 251              		.align	2
 252              	.L13:
 253 001c 00000000 		.word	ch
 254              		.cfi_endproc
 255              	.LFE233:
 256              		.size	chEvtGetAndClearEvents, .-chEvtGetAndClearEvents
 257              		.section	.text.chEvtAddEvents,"ax",%progbits
 258              		.align	2
 259              		.p2align 4,,15
 260              		.global	chEvtAddEvents
 261              		.thumb
 262              		.thumb_func
 263              		.type	chEvtAddEvents, %function
 264              	chEvtAddEvents:
 265              	.LFB234:
 266              		.loc 1 182 0
 267              		.cfi_startproc
 268              		@ args = 0, pretend = 0, frame = 0
 269              		@ frame_needed = 0, uses_anonymous_args = 0
 270              		@ link register save eliminated.
 271              	.LVL12:
 272              	.LBB206:
 273              	.LBB207:
 274              	.LBB208:
 275              	.LBB209:
 276              		.loc 2 548 0
 277 0000 2023     		movs	r3, #32
 278              	@ 548 "ChibiOS_16.1.4/os/ext/CMSIS/include/core_cmFunc.h" 1
 279 0002 83F31188 		MSR basepri, r3
 280              	@ 0 "" 2
 281              		.thumb
 282              	.LBE209:
 283              	.LBE208:
 284              	.LBE207:
 285              	.LBE206:
ARM GAS  /var/folders/m4/4md61f0s1_g0rzfghffqnxvr0000gn/T//ccvWzJty.s 			page 6


 286              		.loc 1 185 0
 287 0006 044B     		ldr	r3, .L16
 288 0008 9A69     		ldr	r2, [r3, #24]
 289 000a 936B     		ldr	r3, [r2, #56]
 290 000c 1843     		orrs	r0, r0, r3
 291              	.LVL13:
 292 000e 9063     		str	r0, [r2, #56]
 293              	.LVL14:
 294              	.LBB210:
 295              	.LBB211:
 296              	.LBB212:
 297              	.LBB213:
 298              	.LBB214:
 299              		.loc 2 548 0
 300 0010 0023     		movs	r3, #0
 301              	@ 548 "ChibiOS_16.1.4/os/ext/CMSIS/include/core_cmFunc.h" 1
 302 0012 83F31188 		MSR basepri, r3
 303              	@ 0 "" 2
 304              		.thumb
 305              	.LBE214:
 306              	.LBE213:
 307              	.LBE212:
 308              	.LBE211:
 309              	.LBE210:
 310              		.loc 1 190 0
 311 0016 7047     		bx	lr
 312              	.L17:
 313              		.align	2
 314              	.L16:
 315 0018 00000000 		.word	ch
 316              		.cfi_endproc
 317              	.LFE234:
 318              		.size	chEvtAddEvents, .-chEvtAddEvents
 319              		.section	.text.chEvtGetAndClearFlags,"ax",%progbits
 320              		.align	2
 321              		.p2align 4,,15
 322              		.global	chEvtGetAndClearFlags
 323              		.thumb
 324              		.thumb_func
 325              		.type	chEvtGetAndClearFlags, %function
 326              	chEvtGetAndClearFlags:
 327              	.LFB236:
 328              		.loc 1 241 0
 329              		.cfi_startproc
 330              		@ args = 0, pretend = 0, frame = 0
 331              		@ frame_needed = 0, uses_anonymous_args = 0
 332              		@ link register save eliminated.
 333              	.LVL15:
 334              		.loc 1 241 0
 335 0000 0246     		mov	r2, r0
 336              	.LBB215:
 337              	.LBB216:
 338              	.LBB217:
 339              	.LBB218:
 340              		.loc 2 548 0
 341 0002 2023     		movs	r3, #32
 342              	@ 548 "ChibiOS_16.1.4/os/ext/CMSIS/include/core_cmFunc.h" 1
ARM GAS  /var/folders/m4/4md61f0s1_g0rzfghffqnxvr0000gn/T//ccvWzJty.s 			page 7


 343 0004 83F31188 		MSR basepri, r3
 344              	@ 0 "" 2
 345              		.thumb
 346              	.LBE218:
 347              	.LBE217:
 348              	.LBE216:
 349              	.LBE215:
 350              		.loc 1 246 0
 351 0008 0023     		movs	r3, #0
 352              		.loc 1 245 0
 353 000a C068     		ldr	r0, [r0, #12]
 354              	.LVL16:
 355              		.loc 1 246 0
 356 000c D360     		str	r3, [r2, #12]
 357              	.LVL17:
 358              	.LBB219:
 359              	.LBB220:
 360              	.LBB221:
 361              	.LBB222:
 362              	.LBB223:
 363              		.loc 2 548 0
 364              	@ 548 "ChibiOS_16.1.4/os/ext/CMSIS/include/core_cmFunc.h" 1
 365 000e 83F31188 		MSR basepri, r3
 366              	@ 0 "" 2
 367              		.thumb
 368              	.LBE223:
 369              	.LBE222:
 370              	.LBE221:
 371              	.LBE220:
 372              	.LBE219:
 373              		.loc 1 250 0
 374 0012 7047     		bx	lr
 375              		.cfi_endproc
 376              	.LFE236:
 377              		.size	chEvtGetAndClearFlags, .-chEvtGetAndClearFlags
 378              		.section	.text.chEvtSignalI,"ax",%progbits
 379              		.align	2
 380              		.p2align 4,,15
 381              		.global	chEvtSignalI
 382              		.thumb
 383              		.thumb_func
 384              		.type	chEvtSignalI, %function
 385              	chEvtSignalI:
 386              	.LFB238:
 387              		.loc 1 282 0
 388              		.cfi_startproc
 389              		@ args = 0, pretend = 0, frame = 0
 390              		@ frame_needed = 0, uses_anonymous_args = 0
 391              		@ link register save eliminated.
 392              	.LVL18:
 393              		.loc 1 287 0
 394 0000 836B     		ldr	r3, [r0, #56]
 395              		.loc 1 289 0
 396 0002 027F     		ldrb	r2, [r0, #28]	@ zero_extendqisi2
 397              		.loc 1 287 0
 398 0004 1943     		orrs	r1, r1, r3
 399              	.LVL19:
ARM GAS  /var/folders/m4/4md61f0s1_g0rzfghffqnxvr0000gn/T//ccvWzJty.s 			page 8


 400              		.loc 1 289 0
 401 0006 0A2A     		cmp	r2, #10
 402              		.loc 1 287 0
 403 0008 8163     		str	r1, [r0, #56]
 404              		.loc 1 289 0
 405 000a 0AD0     		beq	.L23
 406              		.loc 1 290 0
 407 000c 0B2A     		cmp	r2, #11
 408 000e 00D0     		beq	.L24
 409              	.L19:
 410 0010 7047     		bx	lr
 411              	.L24:
 412              		.loc 1 292 0
 413 0012 436A     		ldr	r3, [r0, #36]
 414 0014 1940     		ands	r1, r1, r3
 415              		.loc 1 291 0
 416 0016 8B42     		cmp	r3, r1
 417 0018 FAD1     		bne	.L19
 418              	.L21:
 419              		.loc 1 293 0
 420 001a 0023     		movs	r3, #0
 421 001c 4362     		str	r3, [r0, #36]
 422              		.loc 1 294 0
 423 001e FFF7FEBF 		b	chSchReadyI
 424              	.LVL20:
 425              	.L23:
 426              		.loc 1 290 0 discriminator 1
 427 0022 436A     		ldr	r3, [r0, #36]
 428              		.loc 1 289 0 discriminator 1
 429 0024 1942     		tst	r1, r3
 430 0026 F8D1     		bne	.L21
 431 0028 7047     		bx	lr
 432              		.cfi_endproc
 433              	.LFE238:
 434              		.size	chEvtSignalI, .-chEvtSignalI
 435 002a 00BF     		.section	.text.chEvtBroadcastFlagsI,"ax",%progbits
 436              		.align	2
 437              		.p2align 4,,15
 438              		.global	chEvtBroadcastFlagsI
 439              		.thumb
 440              		.thumb_func
 441              		.type	chEvtBroadcastFlagsI, %function
 442              	chEvtBroadcastFlagsI:
 443              	.LFB235:
 444              		.loc 1 209 0
 445              		.cfi_startproc
 446              		@ args = 0, pretend = 0, frame = 0
 447              		@ frame_needed = 0, uses_anonymous_args = 0
 448              	.LVL21:
 449 0000 70B5     		push	{r4, r5, r6, lr}
 450              		.cfi_def_cfa_offset 16
 451              		.cfi_offset 4, -16
 452              		.cfi_offset 5, -12
 453              		.cfi_offset 6, -8
 454              		.cfi_offset 14, -4
 455              		.loc 1 215 0
 456 0002 0468     		ldr	r4, [r0]
ARM GAS  /var/folders/m4/4md61f0s1_g0rzfghffqnxvr0000gn/T//ccvWzJty.s 			page 9


 457              	.LVL22:
 458              		.loc 1 217 0
 459 0004 A042     		cmp	r0, r4
 460              		.loc 1 209 0
 461 0006 0646     		mov	r6, r0
 462 0008 0D46     		mov	r5, r1
 463              		.loc 1 217 0
 464 000a 0DD0     		beq	.L25
 465              	.LVL23:
 466              	.L29:
 467              		.loc 1 219 0
 468 000c E368     		ldr	r3, [r4, #12]
 469 000e 2B43     		orrs	r3, r3, r5
 470 0010 E360     		str	r3, [r4, #12]
 471              		.loc 1 222 0
 472 0012 15B1     		cbz	r5, .L27
 473              		.loc 1 223 0 discriminator 1
 474 0014 2269     		ldr	r2, [r4, #16]
 475              		.loc 1 222 0 discriminator 1
 476 0016 1342     		tst	r3, r2
 477 0018 03D0     		beq	.L28
 478              	.L27:
 479              		.loc 1 224 0
 480 001a 6068     		ldr	r0, [r4, #4]
 481 001c A168     		ldr	r1, [r4, #8]
 482 001e FFF7FEFF 		bl	chEvtSignalI
 483              	.LVL24:
 484              	.L28:
 485              		.loc 1 226 0
 486 0022 2468     		ldr	r4, [r4]
 487              	.LVL25:
 488              		.loc 1 217 0
 489 0024 A642     		cmp	r6, r4
 490 0026 F1D1     		bne	.L29
 491              	.L25:
 492 0028 70BD     		pop	{r4, r5, r6, pc}
 493              		.cfi_endproc
 494              	.LFE235:
 495              		.size	chEvtBroadcastFlagsI, .-chEvtBroadcastFlagsI
 496 002a 00BF     		.section	.text.chEvtSignal,"ax",%progbits
 497              		.align	2
 498              		.p2align 4,,15
 499              		.global	chEvtSignal
 500              		.thumb
 501              		.thumb_func
 502              		.type	chEvtSignal, %function
 503              	chEvtSignal:
 504              	.LFB237:
 505              		.loc 1 260 0
 506              		.cfi_startproc
 507              		@ args = 0, pretend = 0, frame = 0
 508              		@ frame_needed = 0, uses_anonymous_args = 0
 509              	.LVL26:
 510 0000 08B5     		push	{r3, lr}
 511              		.cfi_def_cfa_offset 8
 512              		.cfi_offset 3, -8
 513              		.cfi_offset 14, -4
ARM GAS  /var/folders/m4/4md61f0s1_g0rzfghffqnxvr0000gn/T//ccvWzJty.s 			page 10


 514              	.LBB224:
 515              	.LBB225:
 516              	.LBB226:
 517              	.LBB227:
 518              		.loc 2 548 0
 519 0002 2023     		movs	r3, #32
 520              	@ 548 "ChibiOS_16.1.4/os/ext/CMSIS/include/core_cmFunc.h" 1
 521 0004 83F31188 		MSR basepri, r3
 522              	@ 0 "" 2
 523              		.thumb
 524              	.LBE227:
 525              	.LBE226:
 526              	.LBE225:
 527              	.LBE224:
 528              		.loc 1 265 0
 529 0008 FFF7FEFF 		bl	chEvtSignalI
 530              	.LVL27:
 531              		.loc 1 266 0
 532 000c FFF7FEFF 		bl	chSchRescheduleS
 533              	.LVL28:
 534              	.LBB228:
 535              	.LBB229:
 536              	.LBB230:
 537              	.LBB231:
 538              	.LBB232:
 539              		.loc 2 548 0
 540 0010 0023     		movs	r3, #0
 541              	@ 548 "ChibiOS_16.1.4/os/ext/CMSIS/include/core_cmFunc.h" 1
 542 0012 83F31188 		MSR basepri, r3
 543              	@ 0 "" 2
 544              		.thumb
 545 0016 08BD     		pop	{r3, pc}
 546              	.LBE232:
 547              	.LBE231:
 548              	.LBE230:
 549              	.LBE229:
 550              	.LBE228:
 551              		.cfi_endproc
 552              	.LFE237:
 553              		.size	chEvtSignal, .-chEvtSignal
 554              		.section	.text.chEvtBroadcastFlags,"ax",%progbits
 555              		.align	2
 556              		.p2align 4,,15
 557              		.global	chEvtBroadcastFlags
 558              		.thumb
 559              		.thumb_func
 560              		.type	chEvtBroadcastFlags, %function
 561              	chEvtBroadcastFlags:
 562              	.LFB239:
 563              		.loc 1 311 0
 564              		.cfi_startproc
 565              		@ args = 0, pretend = 0, frame = 0
 566              		@ frame_needed = 0, uses_anonymous_args = 0
 567              	.LVL29:
 568 0000 08B5     		push	{r3, lr}
 569              		.cfi_def_cfa_offset 8
 570              		.cfi_offset 3, -8
ARM GAS  /var/folders/m4/4md61f0s1_g0rzfghffqnxvr0000gn/T//ccvWzJty.s 			page 11


 571              		.cfi_offset 14, -4
 572              	.LBB233:
 573              	.LBB234:
 574              	.LBB235:
 575              	.LBB236:
 576              		.loc 2 548 0
 577 0002 2023     		movs	r3, #32
 578              	@ 548 "ChibiOS_16.1.4/os/ext/CMSIS/include/core_cmFunc.h" 1
 579 0004 83F31188 		MSR basepri, r3
 580              	@ 0 "" 2
 581              		.thumb
 582              	.LBE236:
 583              	.LBE235:
 584              	.LBE234:
 585              	.LBE233:
 586              		.loc 1 314 0
 587 0008 FFF7FEFF 		bl	chEvtBroadcastFlagsI
 588              	.LVL30:
 589              		.loc 1 315 0
 590 000c FFF7FEFF 		bl	chSchRescheduleS
 591              	.LVL31:
 592              	.LBB237:
 593              	.LBB238:
 594              	.LBB239:
 595              	.LBB240:
 596              	.LBB241:
 597              		.loc 2 548 0
 598 0010 0023     		movs	r3, #0
 599              	@ 548 "ChibiOS_16.1.4/os/ext/CMSIS/include/core_cmFunc.h" 1
 600 0012 83F31188 		MSR basepri, r3
 601              	@ 0 "" 2
 602              		.thumb
 603 0016 08BD     		pop	{r3, pc}
 604              	.LBE241:
 605              	.LBE240:
 606              	.LBE239:
 607              	.LBE238:
 608              	.LBE237:
 609              		.cfi_endproc
 610              	.LFE239:
 611              		.size	chEvtBroadcastFlags, .-chEvtBroadcastFlags
 612              		.section	.text.chEvtGetAndClearFlagsI,"ax",%progbits
 613              		.align	2
 614              		.p2align 4,,15
 615              		.global	chEvtGetAndClearFlagsI
 616              		.thumb
 617              		.thumb_func
 618              		.type	chEvtGetAndClearFlagsI, %function
 619              	chEvtGetAndClearFlagsI:
 620              	.LFB240:
 621              		.loc 1 330 0
 622              		.cfi_startproc
 623              		@ args = 0, pretend = 0, frame = 0
 624              		@ frame_needed = 0, uses_anonymous_args = 0
 625              		@ link register save eliminated.
 626              	.LVL32:
 627              		.loc 1 330 0
ARM GAS  /var/folders/m4/4md61f0s1_g0rzfghffqnxvr0000gn/T//ccvWzJty.s 			page 12


 628 0000 0346     		mov	r3, r0
 629              		.loc 1 334 0
 630 0002 0022     		movs	r2, #0
 631              		.loc 1 333 0
 632 0004 C068     		ldr	r0, [r0, #12]
 633              	.LVL33:
 634              		.loc 1 334 0
 635 0006 DA60     		str	r2, [r3, #12]
 636              		.loc 1 337 0
 637 0008 7047     		bx	lr
 638              		.cfi_endproc
 639              	.LFE240:
 640              		.size	chEvtGetAndClearFlagsI, .-chEvtGetAndClearFlagsI
 641 000a 00BF     		.section	.text.chEvtDispatch,"ax",%progbits
 642              		.align	2
 643              		.p2align 4,,15
 644              		.global	chEvtDispatch
 645              		.thumb
 646              		.thumb_func
 647              		.type	chEvtDispatch, %function
 648              	chEvtDispatch:
 649              	.LFB241:
 650              		.loc 1 348 0
 651              		.cfi_startproc
 652              		@ args = 0, pretend = 0, frame = 0
 653              		@ frame_needed = 0, uses_anonymous_args = 0
 654              	.LVL34:
 655 0000 F8B5     		push	{r3, r4, r5, r6, r7, lr}
 656              		.cfi_def_cfa_offset 24
 657              		.cfi_offset 3, -24
 658              		.cfi_offset 4, -20
 659              		.cfi_offset 5, -16
 660              		.cfi_offset 6, -12
 661              		.cfi_offset 7, -8
 662              		.cfi_offset 14, -4
 663              		.loc 1 354 0
 664 0002 0D46     		mov	r5, r1
 665 0004 B9B1     		cbz	r1, .L44
 666 0006 0646     		mov	r6, r0
 667 0008 0024     		movs	r4, #0
 668              		.loc 1 357 0
 669 000a 0127     		movs	r7, #1
 670              	.LVL35:
 671              	.L46:
 672              		.loc 1 355 0
 673 000c 25FA04F3 		lsr	r3, r5, r4
 674 0010 DB07     		lsls	r3, r3, #31
 675 0012 04D4     		bmi	.L51
 676              	.L47:
 677              		.loc 1 360 0
 678 0014 0134     		adds	r4, r4, #1
 679              	.LVL36:
 680              		.loc 1 355 0
 681 0016 25FA04F3 		lsr	r3, r5, r4
 682 001a DB07     		lsls	r3, r3, #31
 683 001c FAD5     		bpl	.L47
 684              	.L51:
ARM GAS  /var/folders/m4/4md61f0s1_g0rzfghffqnxvr0000gn/T//ccvWzJty.s 			page 13


 685              		.loc 1 357 0
 686 001e 07FA04F3 		lsl	r3, r7, r4
 687              		.loc 1 358 0
 688 0022 2046     		mov	r0, r4
 689              		.loc 1 357 0
 690 0024 25EA0305 		bic	r5, r5, r3
 691              	.LVL37:
 692              		.loc 1 358 0
 693 0028 56F82430 		ldr	r3, [r6, r4, lsl #2]
 694 002c 9847     		blx	r3
 695              	.LVL38:
 696              		.loc 1 360 0
 697 002e 0134     		adds	r4, r4, #1
 698              	.LVL39:
 699              		.loc 1 354 0
 700 0030 002D     		cmp	r5, #0
 701 0032 EBD1     		bne	.L46
 702 0034 F8BD     		pop	{r3, r4, r5, r6, r7, pc}
 703              	.LVL40:
 704              	.L44:
 705 0036 F8BD     		pop	{r3, r4, r5, r6, r7, pc}
 706              		.cfi_endproc
 707              	.LFE241:
 708              		.size	chEvtDispatch, .-chEvtDispatch
 709              		.section	.text.chEvtWaitOne,"ax",%progbits
 710              		.align	2
 711              		.p2align 4,,15
 712              		.global	chEvtWaitOne
 713              		.thumb
 714              		.thumb_func
 715              		.type	chEvtWaitOne, %function
 716              	chEvtWaitOne:
 717              	.LFB242:
 718              		.loc 1 383 0
 719              		.cfi_startproc
 720              		@ args = 0, pretend = 0, frame = 0
 721              		@ frame_needed = 0, uses_anonymous_args = 0
 722              	.LVL41:
 723 0000 38B5     		push	{r3, r4, r5, lr}
 724              		.cfi_def_cfa_offset 16
 725              		.cfi_offset 3, -16
 726              		.cfi_offset 4, -12
 727              		.cfi_offset 5, -8
 728              		.cfi_offset 14, -4
 729              		.loc 1 384 0
 730 0002 0D4B     		ldr	r3, .L55
 731 0004 9D69     		ldr	r5, [r3, #24]
 732              	.LVL42:
 733              	.LBB242:
 734              	.LBB243:
 735              	.LBB244:
 736              	.LBB245:
 737              		.loc 2 548 0
 738 0006 2023     		movs	r3, #32
 739              	@ 548 "ChibiOS_16.1.4/os/ext/CMSIS/include/core_cmFunc.h" 1
 740 0008 83F31188 		MSR basepri, r3
 741              	@ 0 "" 2
ARM GAS  /var/folders/m4/4md61f0s1_g0rzfghffqnxvr0000gn/T//ccvWzJty.s 			page 14


 742              		.thumb
 743              	.LBE245:
 744              	.LBE244:
 745              	.LBE243:
 746              	.LBE242:
 747              		.loc 1 388 0
 748 000c AB6B     		ldr	r3, [r5, #56]
 749              	.LVL43:
 750              		.loc 1 389 0
 751 000e 10EA0302 		ands	r2, r0, r3
 752              	.LVL44:
 753 0012 07D1     		bne	.L53
 754 0014 0446     		mov	r4, r0
 755              		.loc 1 390 0
 756 0016 6862     		str	r0, [r5, #36]
 757              		.loc 1 391 0
 758 0018 0A20     		movs	r0, #10
 759              	.LVL45:
 760 001a FFF7FEFF 		bl	chSchGoSleepS
 761              	.LVL46:
 762              		.loc 1 392 0
 763 001e AB6B     		ldr	r3, [r5, #56]
 764 0020 04EA0302 		and	r2, r4, r3
 765              	.LVL47:
 766              	.L53:
 767              		.loc 1 394 0
 768 0024 5042     		negs	r0, r2
 769 0026 1040     		ands	r0, r0, r2
 770              	.LVL48:
 771              		.loc 1 395 0
 772 0028 23EA0003 		bic	r3, r3, r0
 773 002c AB63     		str	r3, [r5, #56]
 774              	.LVL49:
 775              	.LBB246:
 776              	.LBB247:
 777              	.LBB248:
 778              	.LBB249:
 779              	.LBB250:
 780              		.loc 2 548 0
 781 002e 0023     		movs	r3, #0
 782              	@ 548 "ChibiOS_16.1.4/os/ext/CMSIS/include/core_cmFunc.h" 1
 783 0030 83F31188 		MSR basepri, r3
 784              	@ 0 "" 2
 785              		.thumb
 786              	.LBE250:
 787              	.LBE249:
 788              	.LBE248:
 789              	.LBE247:
 790              	.LBE246:
 791              		.loc 1 399 0
 792 0034 38BD     		pop	{r3, r4, r5, pc}
 793              	.LVL50:
 794              	.L56:
 795 0036 00BF     		.align	2
 796              	.L55:
 797 0038 00000000 		.word	ch
 798              		.cfi_endproc
ARM GAS  /var/folders/m4/4md61f0s1_g0rzfghffqnxvr0000gn/T//ccvWzJty.s 			page 15


 799              	.LFE242:
 800              		.size	chEvtWaitOne, .-chEvtWaitOne
 801              		.section	.text.chEvtWaitAny,"ax",%progbits
 802              		.align	2
 803              		.p2align 4,,15
 804              		.global	chEvtWaitAny
 805              		.thumb
 806              		.thumb_func
 807              		.type	chEvtWaitAny, %function
 808              	chEvtWaitAny:
 809              	.LFB243:
 810              		.loc 1 413 0
 811              		.cfi_startproc
 812              		@ args = 0, pretend = 0, frame = 0
 813              		@ frame_needed = 0, uses_anonymous_args = 0
 814              	.LVL51:
 815 0000 38B5     		push	{r3, r4, r5, lr}
 816              		.cfi_def_cfa_offset 16
 817              		.cfi_offset 3, -16
 818              		.cfi_offset 4, -12
 819              		.cfi_offset 5, -8
 820              		.cfi_offset 14, -4
 821              		.loc 1 414 0
 822 0002 0C4B     		ldr	r3, .L60
 823 0004 9D69     		ldr	r5, [r3, #24]
 824              	.LVL52:
 825              	.LBB251:
 826              	.LBB252:
 827              	.LBB253:
 828              	.LBB254:
 829              		.loc 2 548 0
 830 0006 2023     		movs	r3, #32
 831              	@ 548 "ChibiOS_16.1.4/os/ext/CMSIS/include/core_cmFunc.h" 1
 832 0008 83F31188 		MSR basepri, r3
 833              	@ 0 "" 2
 834              		.thumb
 835              	.LBE254:
 836              	.LBE253:
 837              	.LBE252:
 838              	.LBE251:
 839              		.loc 1 418 0
 840 000c AB6B     		ldr	r3, [r5, #56]
 841              	.LVL53:
 842              		.loc 1 419 0
 843 000e 10EA0304 		ands	r4, r0, r3
 844              	.LVL54:
 845 0012 06D1     		bne	.L58
 846 0014 0446     		mov	r4, r0
 847              	.LVL55:
 848              		.loc 1 420 0
 849 0016 6862     		str	r0, [r5, #36]
 850              		.loc 1 421 0
 851 0018 0A20     		movs	r0, #10
 852              	.LVL56:
 853 001a FFF7FEFF 		bl	chSchGoSleepS
 854              	.LVL57:
 855              		.loc 1 422 0
ARM GAS  /var/folders/m4/4md61f0s1_g0rzfghffqnxvr0000gn/T//ccvWzJty.s 			page 16


 856 001e AB6B     		ldr	r3, [r5, #56]
 857 0020 1C40     		ands	r4, r4, r3
 858              	.LVL58:
 859              	.L58:
 860              		.loc 1 424 0
 861 0022 23EA0403 		bic	r3, r3, r4
 862 0026 AB63     		str	r3, [r5, #56]
 863              	.LVL59:
 864              	.LBB255:
 865              	.LBB256:
 866              	.LBB257:
 867              	.LBB258:
 868              	.LBB259:
 869              		.loc 2 548 0
 870 0028 0023     		movs	r3, #0
 871              	@ 548 "ChibiOS_16.1.4/os/ext/CMSIS/include/core_cmFunc.h" 1
 872 002a 83F31188 		MSR basepri, r3
 873              	@ 0 "" 2
 874              		.thumb
 875              	.LBE259:
 876              	.LBE258:
 877              	.LBE257:
 878              	.LBE256:
 879              	.LBE255:
 880              		.loc 1 428 0
 881 002e 2046     		mov	r0, r4
 882 0030 38BD     		pop	{r3, r4, r5, pc}
 883              	.LVL60:
 884              	.L61:
 885 0032 00BF     		.align	2
 886              	.L60:
 887 0034 00000000 		.word	ch
 888              		.cfi_endproc
 889              	.LFE243:
 890              		.size	chEvtWaitAny, .-chEvtWaitAny
 891              		.section	.text.chEvtWaitAll,"ax",%progbits
 892              		.align	2
 893              		.p2align 4,,15
 894              		.global	chEvtWaitAll
 895              		.thumb
 896              		.thumb_func
 897              		.type	chEvtWaitAll, %function
 898              	chEvtWaitAll:
 899              	.LFB244:
 900              		.loc 1 441 0
 901              		.cfi_startproc
 902              		@ args = 0, pretend = 0, frame = 0
 903              		@ frame_needed = 0, uses_anonymous_args = 0
 904              	.LVL61:
 905 0000 38B5     		push	{r3, r4, r5, lr}
 906              		.cfi_def_cfa_offset 16
 907              		.cfi_offset 3, -16
 908              		.cfi_offset 4, -12
 909              		.cfi_offset 5, -8
 910              		.cfi_offset 14, -4
 911              		.loc 1 442 0
 912 0002 0C4B     		ldr	r3, .L65
ARM GAS  /var/folders/m4/4md61f0s1_g0rzfghffqnxvr0000gn/T//ccvWzJty.s 			page 17


 913              		.loc 1 441 0
 914 0004 0446     		mov	r4, r0
 915              		.loc 1 442 0
 916 0006 9D69     		ldr	r5, [r3, #24]
 917              	.LVL62:
 918              	.LBB260:
 919              	.LBB261:
 920              	.LBB262:
 921              	.LBB263:
 922              		.loc 2 548 0
 923 0008 2023     		movs	r3, #32
 924              	@ 548 "ChibiOS_16.1.4/os/ext/CMSIS/include/core_cmFunc.h" 1
 925 000a 83F31188 		MSR basepri, r3
 926              	@ 0 "" 2
 927              		.thumb
 928              	.LBE263:
 929              	.LBE262:
 930              	.LBE261:
 931              	.LBE260:
 932              		.loc 1 445 0
 933 000e AB6B     		ldr	r3, [r5, #56]
 934 0010 00EA0302 		and	r2, r0, r3
 935 0014 8242     		cmp	r2, r0
 936 0016 04D0     		beq	.L63
 937              		.loc 1 446 0
 938 0018 6862     		str	r0, [r5, #36]
 939              		.loc 1 447 0
 940 001a 0B20     		movs	r0, #11
 941              	.LVL63:
 942 001c FFF7FEFF 		bl	chSchGoSleepS
 943              	.LVL64:
 944 0020 AB6B     		ldr	r3, [r5, #56]
 945              	.L63:
 946              		.loc 1 449 0
 947 0022 23EA0403 		bic	r3, r3, r4
 948 0026 AB63     		str	r3, [r5, #56]
 949              	.LVL65:
 950              	.LBB264:
 951              	.LBB265:
 952              	.LBB266:
 953              	.LBB267:
 954              	.LBB268:
 955              		.loc 2 548 0
 956 0028 0023     		movs	r3, #0
 957              	@ 548 "ChibiOS_16.1.4/os/ext/CMSIS/include/core_cmFunc.h" 1
 958 002a 83F31188 		MSR basepri, r3
 959              	@ 0 "" 2
 960              		.thumb
 961              	.LBE268:
 962              	.LBE267:
 963              	.LBE266:
 964              	.LBE265:
 965              	.LBE264:
 966              		.loc 1 453 0
 967 002e 2046     		mov	r0, r4
 968 0030 38BD     		pop	{r3, r4, r5, pc}
 969              	.LVL66:
ARM GAS  /var/folders/m4/4md61f0s1_g0rzfghffqnxvr0000gn/T//ccvWzJty.s 			page 18


 970              	.L66:
 971 0032 00BF     		.align	2
 972              	.L65:
 973 0034 00000000 		.word	ch
 974              		.cfi_endproc
 975              	.LFE244:
 976              		.size	chEvtWaitAll, .-chEvtWaitAll
 977              		.section	.text.chEvtWaitOneTimeout,"ax",%progbits
 978              		.align	2
 979              		.p2align 4,,15
 980              		.global	chEvtWaitOneTimeout
 981              		.thumb
 982              		.thumb_func
 983              		.type	chEvtWaitOneTimeout, %function
 984              	chEvtWaitOneTimeout:
 985              	.LFB245:
 986              		.loc 1 479 0
 987              		.cfi_startproc
 988              		@ args = 0, pretend = 0, frame = 0
 989              		@ frame_needed = 0, uses_anonymous_args = 0
 990              	.LVL67:
 991              		.loc 1 480 0
 992 0000 124B     		ldr	r3, .L74
 993              		.loc 1 479 0
 994 0002 70B5     		push	{r4, r5, r6, lr}
 995              		.cfi_def_cfa_offset 16
 996              		.cfi_offset 4, -16
 997              		.cfi_offset 5, -12
 998              		.cfi_offset 6, -8
 999              		.cfi_offset 14, -4
 1000              	.LBB269:
 1001              	.LBB270:
 1002              	.LBB271:
 1003              	.LBB272:
 1004              		.loc 2 548 0
 1005 0004 2022     		movs	r2, #32
 1006              	.LBE272:
 1007              	.LBE271:
 1008              	.LBE270:
 1009              	.LBE269:
 1010              		.loc 1 480 0
 1011 0006 9D69     		ldr	r5, [r3, #24]
 1012              	.LVL68:
 1013              	.LBB276:
 1014              	.LBB275:
 1015              	.LBB274:
 1016              	.LBB273:
 1017              		.loc 2 548 0
 1018              	@ 548 "ChibiOS_16.1.4/os/ext/CMSIS/include/core_cmFunc.h" 1
 1019 0008 82F31188 		MSR basepri, r2
 1020              	@ 0 "" 2
 1021              		.thumb
 1022              	.LBE273:
 1023              	.LBE274:
 1024              	.LBE275:
 1025              	.LBE276:
 1026              		.loc 1 484 0
ARM GAS  /var/folders/m4/4md61f0s1_g0rzfghffqnxvr0000gn/T//ccvWzJty.s 			page 19


 1027 000c AA6B     		ldr	r2, [r5, #56]
 1028              	.LVL69:
 1029              		.loc 1 485 0
 1030 000e 10EA0206 		ands	r6, r0, r2
 1031              	.LVL70:
 1032 0012 0ED1     		bne	.L68
 1033              		.loc 1 486 0
 1034 0014 19B9     		cbnz	r1, .L69
 1035              	.LVL71:
 1036              	.LBB277:
 1037              	.LBB278:
 1038              	.LBB279:
 1039              	.LBB280:
 1040              	.LBB281:
 1041              		.loc 2 548 0
 1042              	@ 548 "ChibiOS_16.1.4/os/ext/CMSIS/include/core_cmFunc.h" 1
 1043 0016 81F31188 		MSR basepri, r1
 1044              	@ 0 "" 2
 1045              		.thumb
 1046              	.LBE281:
 1047              	.LBE280:
 1048              	.LBE279:
 1049              	.LBE278:
 1050              	.LBE277:
 1051              		.loc 1 488 0
 1052 001a 0846     		mov	r0, r1
 1053              	.LVL72:
 1054 001c 70BD     		pop	{r4, r5, r6, pc}
 1055              	.LVL73:
 1056              	.L69:
 1057              		.loc 1 490 0
 1058 001e 6862     		str	r0, [r5, #36]
 1059 0020 0446     		mov	r4, r0
 1060              		.loc 1 491 0
 1061 0022 0A20     		movs	r0, #10
 1062              	.LVL74:
 1063 0024 FFF7FEFF 		bl	chSchGoSleepTimeoutS
 1064              	.LVL75:
 1065 0028 0028     		cmp	r0, #0
 1066 002a 0BDB     		blt	.L73
 1067              		.loc 1 495 0
 1068 002c AA6B     		ldr	r2, [r5, #56]
 1069 002e 04EA0206 		and	r6, r4, r2
 1070              	.LVL76:
 1071              	.L68:
 1072              		.loc 1 497 0
 1073 0032 7042     		negs	r0, r6
 1074 0034 3040     		ands	r0, r0, r6
 1075              	.LVL77:
 1076              		.loc 1 498 0
 1077 0036 22EA0002 		bic	r2, r2, r0
 1078 003a AA63     		str	r2, [r5, #56]
 1079              	.LVL78:
 1080              	.LBB282:
 1081              	.LBB283:
 1082              	.LBB284:
 1083              	.LBB285:
ARM GAS  /var/folders/m4/4md61f0s1_g0rzfghffqnxvr0000gn/T//ccvWzJty.s 			page 20


 1084              	.LBB286:
 1085              		.loc 2 548 0
 1086 003c 0023     		movs	r3, #0
 1087              	@ 548 "ChibiOS_16.1.4/os/ext/CMSIS/include/core_cmFunc.h" 1
 1088 003e 83F31188 		MSR basepri, r3
 1089              	@ 0 "" 2
 1090              		.thumb
 1091              	.LBE286:
 1092              	.LBE285:
 1093              	.LBE284:
 1094              	.LBE283:
 1095              	.LBE282:
 1096              		.loc 1 502 0
 1097 0042 70BD     		pop	{r4, r5, r6, pc}
 1098              	.LVL79:
 1099              	.L73:
 1100              	.LBB287:
 1101              	.LBB288:
 1102              	.LBB289:
 1103              	.LBB290:
 1104              	.LBB291:
 1105              		.loc 2 548 0
 1106              	@ 548 "ChibiOS_16.1.4/os/ext/CMSIS/include/core_cmFunc.h" 1
 1107 0044 86F31188 		MSR basepri, r6
 1108              	@ 0 "" 2
 1109              		.thumb
 1110              	.LBE291:
 1111              	.LBE290:
 1112              	.LBE289:
 1113              	.LBE288:
 1114              	.LBE287:
 1115              		.loc 1 493 0
 1116 0048 3046     		mov	r0, r6
 1117 004a 70BD     		pop	{r4, r5, r6, pc}
 1118              	.LVL80:
 1119              	.L75:
 1120              		.align	2
 1121              	.L74:
 1122 004c 00000000 		.word	ch
 1123              		.cfi_endproc
 1124              	.LFE245:
 1125              		.size	chEvtWaitOneTimeout, .-chEvtWaitOneTimeout
 1126              		.section	.text.chEvtWaitAnyTimeout,"ax",%progbits
 1127              		.align	2
 1128              		.p2align 4,,15
 1129              		.global	chEvtWaitAnyTimeout
 1130              		.thumb
 1131              		.thumb_func
 1132              		.type	chEvtWaitAnyTimeout, %function
 1133              	chEvtWaitAnyTimeout:
 1134              	.LFB246:
 1135              		.loc 1 522 0
 1136              		.cfi_startproc
 1137              		@ args = 0, pretend = 0, frame = 0
 1138              		@ frame_needed = 0, uses_anonymous_args = 0
 1139              	.LVL81:
 1140              		.loc 1 523 0
ARM GAS  /var/folders/m4/4md61f0s1_g0rzfghffqnxvr0000gn/T//ccvWzJty.s 			page 21


 1141 0000 124B     		ldr	r3, .L83
 1142              		.loc 1 522 0
 1143 0002 70B5     		push	{r4, r5, r6, lr}
 1144              		.cfi_def_cfa_offset 16
 1145              		.cfi_offset 4, -16
 1146              		.cfi_offset 5, -12
 1147              		.cfi_offset 6, -8
 1148              		.cfi_offset 14, -4
 1149              		.loc 1 523 0
 1150 0004 9E69     		ldr	r6, [r3, #24]
 1151              	.LVL82:
 1152              	.LBB292:
 1153              	.LBB293:
 1154              	.LBB294:
 1155              	.LBB295:
 1156              		.loc 2 548 0
 1157 0006 2023     		movs	r3, #32
 1158              	@ 548 "ChibiOS_16.1.4/os/ext/CMSIS/include/core_cmFunc.h" 1
 1159 0008 83F31188 		MSR basepri, r3
 1160              	@ 0 "" 2
 1161              		.thumb
 1162              	.LBE295:
 1163              	.LBE294:
 1164              	.LBE293:
 1165              	.LBE292:
 1166              		.loc 1 527 0
 1167 000c B36B     		ldr	r3, [r6, #56]
 1168              	.LVL83:
 1169              		.loc 1 528 0
 1170 000e 10EA0304 		ands	r4, r0, r3
 1171              	.LVL84:
 1172 0012 0ED1     		bne	.L77
 1173              		.loc 1 529 0
 1174 0014 19B9     		cbnz	r1, .L78
 1175              	.LVL85:
 1176              	.LBB296:
 1177              	.LBB297:
 1178              	.LBB298:
 1179              	.LBB299:
 1180              	.LBB300:
 1181              		.loc 2 548 0
 1182              	@ 548 "ChibiOS_16.1.4/os/ext/CMSIS/include/core_cmFunc.h" 1
 1183 0016 81F31188 		MSR basepri, r1
 1184              	@ 0 "" 2
 1185              		.thumb
 1186              	.LBE300:
 1187              	.LBE299:
 1188              	.LBE298:
 1189              	.LBE297:
 1190              	.LBE296:
 1191              		.loc 1 531 0
 1192 001a 0846     		mov	r0, r1
 1193              	.LVL86:
 1194 001c 70BD     		pop	{r4, r5, r6, pc}
 1195              	.LVL87:
 1196              	.L78:
 1197              		.loc 1 533 0
ARM GAS  /var/folders/m4/4md61f0s1_g0rzfghffqnxvr0000gn/T//ccvWzJty.s 			page 22


 1198 001e 7062     		str	r0, [r6, #36]
 1199 0020 0546     		mov	r5, r0
 1200              		.loc 1 534 0
 1201 0022 0A20     		movs	r0, #10
 1202              	.LVL88:
 1203 0024 FFF7FEFF 		bl	chSchGoSleepTimeoutS
 1204              	.LVL89:
 1205 0028 0028     		cmp	r0, #0
 1206 002a 0ADB     		blt	.L82
 1207              		.loc 1 538 0
 1208 002c B36B     		ldr	r3, [r6, #56]
 1209 002e 05EA0304 		and	r4, r5, r3
 1210              	.LVL90:
 1211              	.L77:
 1212              		.loc 1 540 0
 1213 0032 23EA0403 		bic	r3, r3, r4
 1214 0036 B363     		str	r3, [r6, #56]
 1215              	.LVL91:
 1216              	.LBB301:
 1217              	.LBB302:
 1218              	.LBB303:
 1219              	.LBB304:
 1220              	.LBB305:
 1221              		.loc 2 548 0
 1222 0038 0023     		movs	r3, #0
 1223              	@ 548 "ChibiOS_16.1.4/os/ext/CMSIS/include/core_cmFunc.h" 1
 1224 003a 83F31188 		MSR basepri, r3
 1225              	@ 0 "" 2
 1226              		.thumb
 1227              	.LBE305:
 1228              	.LBE304:
 1229              	.LBE303:
 1230              	.LBE302:
 1231              	.LBE301:
 1232              		.loc 1 543 0
 1233 003e 2046     		mov	r0, r4
 1234              		.loc 1 544 0
 1235 0040 70BD     		pop	{r4, r5, r6, pc}
 1236              	.LVL92:
 1237              	.L82:
 1238              	.LBB306:
 1239              	.LBB307:
 1240              	.LBB308:
 1241              	.LBB309:
 1242              	.LBB310:
 1243              		.loc 2 548 0
 1244              	@ 548 "ChibiOS_16.1.4/os/ext/CMSIS/include/core_cmFunc.h" 1
 1245 0042 84F31188 		MSR basepri, r4
 1246              	@ 0 "" 2
 1247              		.thumb
 1248              	.LBE310:
 1249              	.LBE309:
 1250              	.LBE308:
 1251              	.LBE307:
 1252              	.LBE306:
 1253              		.loc 1 536 0
 1254 0046 2046     		mov	r0, r4
ARM GAS  /var/folders/m4/4md61f0s1_g0rzfghffqnxvr0000gn/T//ccvWzJty.s 			page 23


 1255 0048 70BD     		pop	{r4, r5, r6, pc}
 1256              	.LVL93:
 1257              	.L84:
 1258 004a 00BF     		.align	2
 1259              	.L83:
 1260 004c 00000000 		.word	ch
 1261              		.cfi_endproc
 1262              	.LFE246:
 1263              		.size	chEvtWaitAnyTimeout, .-chEvtWaitAnyTimeout
 1264              		.section	.text.chEvtWaitAllTimeout,"ax",%progbits
 1265              		.align	2
 1266              		.p2align 4,,15
 1267              		.global	chEvtWaitAllTimeout
 1268              		.thumb
 1269              		.thumb_func
 1270              		.type	chEvtWaitAllTimeout, %function
 1271              	chEvtWaitAllTimeout:
 1272              	.LFB247:
 1273              		.loc 1 563 0
 1274              		.cfi_startproc
 1275              		@ args = 0, pretend = 0, frame = 0
 1276              		@ frame_needed = 0, uses_anonymous_args = 0
 1277              	.LVL94:
 1278 0000 38B5     		push	{r3, r4, r5, lr}
 1279              		.cfi_def_cfa_offset 16
 1280              		.cfi_offset 3, -16
 1281              		.cfi_offset 4, -12
 1282              		.cfi_offset 5, -8
 1283              		.cfi_offset 14, -4
 1284              		.loc 1 564 0
 1285 0002 104B     		ldr	r3, .L93
 1286              		.loc 1 563 0
 1287 0004 0446     		mov	r4, r0
 1288              		.loc 1 564 0
 1289 0006 9D69     		ldr	r5, [r3, #24]
 1290              	.LVL95:
 1291              	.LBB311:
 1292              	.LBB312:
 1293              	.LBB313:
 1294              	.LBB314:
 1295              		.loc 2 548 0
 1296 0008 2023     		movs	r3, #32
 1297              	@ 548 "ChibiOS_16.1.4/os/ext/CMSIS/include/core_cmFunc.h" 1
 1298 000a 83F31188 		MSR basepri, r3
 1299              	@ 0 "" 2
 1300              		.thumb
 1301              	.LBE314:
 1302              	.LBE313:
 1303              	.LBE312:
 1304              	.LBE311:
 1305              		.loc 1 567 0
 1306 000e AB6B     		ldr	r3, [r5, #56]
 1307 0010 00EA0302 		and	r2, r0, r3
 1308 0014 8242     		cmp	r2, r0
 1309 0016 0BD0     		beq	.L86
 1310 0018 0846     		mov	r0, r1
 1311              	.LVL96:
ARM GAS  /var/folders/m4/4md61f0s1_g0rzfghffqnxvr0000gn/T//ccvWzJty.s 			page 24


 1312              		.loc 1 568 0
 1313 001a 11B9     		cbnz	r1, .L92
 1314              	.LVL97:
 1315              	.L91:
 1316              	.LBB315:
 1317              	.LBB316:
 1318              	.LBB317:
 1319              	.LBB318:
 1320              	.LBB319:
 1321              		.loc 2 548 0
 1322              	@ 548 "ChibiOS_16.1.4/os/ext/CMSIS/include/core_cmFunc.h" 1
 1323 001c 80F31188 		MSR basepri, r0
 1324              	@ 0 "" 2
 1325              		.thumb
 1326              	.LBE319:
 1327              	.LBE318:
 1328              	.LBE317:
 1329              	.LBE316:
 1330              	.LBE315:
 1331              		.loc 1 575 0
 1332 0020 38BD     		pop	{r3, r4, r5, pc}
 1333              	.LVL98:
 1334              	.L92:
 1335              		.loc 1 572 0
 1336 0022 6C62     		str	r4, [r5, #36]
 1337              		.loc 1 573 0
 1338 0024 0B20     		movs	r0, #11
 1339              	.LVL99:
 1340 0026 FFF7FEFF 		bl	chSchGoSleepTimeoutS
 1341              	.LVL100:
 1342 002a 0028     		cmp	r0, #0
 1343 002c 08DB     		blt	.L89
 1344 002e AB6B     		ldr	r3, [r5, #56]
 1345              	.L86:
 1346              		.loc 1 578 0
 1347 0030 23EA0403 		bic	r3, r3, r4
 1348 0034 AB63     		str	r3, [r5, #56]
 1349              	.LVL101:
 1350              	.LBB324:
 1351              	.LBB325:
 1352              	.LBB326:
 1353              	.LBB327:
 1354              	.LBB328:
 1355              		.loc 2 548 0
 1356 0036 0023     		movs	r3, #0
 1357              	@ 548 "ChibiOS_16.1.4/os/ext/CMSIS/include/core_cmFunc.h" 1
 1358 0038 83F31188 		MSR basepri, r3
 1359              	@ 0 "" 2
 1360              		.thumb
 1361              	.LBE328:
 1362              	.LBE327:
 1363              	.LBE326:
 1364              	.LBE325:
 1365              	.LBE324:
 1366              		.loc 1 581 0
 1367 003c 2046     		mov	r0, r4
 1368              		.loc 1 582 0
ARM GAS  /var/folders/m4/4md61f0s1_g0rzfghffqnxvr0000gn/T//ccvWzJty.s 			page 25


 1369 003e 38BD     		pop	{r3, r4, r5, pc}
 1370              	.LVL102:
 1371              	.L89:
 1372              	.LBB329:
 1373              	.LBB323:
 1374              	.LBB322:
 1375              	.LBB321:
 1376              	.LBB320:
 1377              		.loc 2 548 0
 1378 0040 0020     		movs	r0, #0
 1379 0042 EBE7     		b	.L91
 1380              	.L94:
 1381              		.align	2
 1382              	.L93:
 1383 0044 00000000 		.word	ch
 1384              	.LBE320:
 1385              	.LBE321:
 1386              	.LBE322:
 1387              	.LBE323:
 1388              	.LBE329:
 1389              		.cfi_endproc
 1390              	.LFE247:
 1391              		.size	chEvtWaitAllTimeout, .-chEvtWaitAllTimeout
 1392              		.text
 1393              	.Letext0:
 1394              		.file 3 "/usr/local/Cellar/gcc-arm-none-eabi-49/20150609/arm-none-eabi/include/machine/_default_ty
 1395              		.file 4 "/usr/local/Cellar/gcc-arm-none-eabi-49/20150609/arm-none-eabi/include/sys/_stdint.h"
 1396              		.file 5 "ChibiOS_16.1.4/os/rt/ports/ARMCMx/compilers/GCC/chtypes.h"
 1397              		.file 6 "ChibiOS_16.1.4/os/rt/include/chsystypes.h"
 1398              		.file 7 "ChibiOS_16.1.4/os/rt/include/chschd.h"
 1399              		.file 8 "ChibiOS_16.1.4/os/rt/ports/ARMCMx/chcore.h"
 1400              		.file 9 "ChibiOS_16.1.4/os/rt/ports/ARMCMx/chcore_v7m.h"
 1401              		.file 10 "ChibiOS_16.1.4/os/rt/include/chtm.h"
 1402              		.file 11 "ChibiOS_16.1.4/os/rt/include/chsem.h"
 1403              		.file 12 "ChibiOS_16.1.4/os/rt/include/chmtx.h"
 1404              		.file 13 "ChibiOS_16.1.4/os/rt/include/chevents.h"
 1405              		.file 14 "ChibiOS_16.1.4/os/rt/include/chsys.h"
 1406              		.file 15 "ChibiOS_16.1.4/os/ext/CMSIS/include/core_cm4.h"