ARM GAS  /var/folders/m4/4md61f0s1_g0rzfghffqnxvr0000gn/T//ccEcnULI.s 			page 1


   1              		.syntax unified
   2              		.cpu cortex-m4
   3              		.eabi_attribute 27, 1
   4              		.eabi_attribute 28, 1
   5              		.fpu fpv4-sp-d16
   6              		.eabi_attribute 20, 1
   7              		.eabi_attribute 21, 1
   8              		.eabi_attribute 23, 3
   9              		.eabi_attribute 24, 1
  10              		.eabi_attribute 25, 1
  11              		.eabi_attribute 26, 1
  12              		.eabi_attribute 30, 2
  13              		.eabi_attribute 34, 1
  14              		.eabi_attribute 18, 4
  15              		.thumb
  16              		.file	"chmboxes.c"
  17              		.text
  18              	.Ltext0:
  19              		.cfi_sections	.debug_frame
  20              		.section	.text.chMBObjectInit,"ax",%progbits
  21              		.align	2
  22              		.p2align 4,,15
  23              		.global	chMBObjectInit
  24              		.thumb
  25              		.thumb_func
  26              		.type	chMBObjectInit, %function
  27              	chMBObjectInit:
  28              	.LFB231:
  29              		.file 1 "ChibiOS_16.1.4/os/rt/src/chmboxes.c"
  30              		.loc 1 86 0
  31              		.cfi_startproc
  32              		@ args = 0, pretend = 0, frame = 0
  33              		@ frame_needed = 0, uses_anonymous_args = 0
  34              	.LVL0:
  35 0000 10B5     		push	{r4, lr}
  36              		.cfi_def_cfa_offset 8
  37              		.cfi_offset 4, -8
  38              		.cfi_offset 14, -4
  39              		.loc 1 86 0
  40 0002 0B46     		mov	r3, r1
  41              		.loc 1 93 0
  42 0004 01EB8201 		add	r1, r1, r2, lsl #2
  43              	.LVL1:
  44 0008 4160     		str	r1, [r0, #4]
  45              		.loc 1 86 0
  46 000a 0446     		mov	r4, r0
  47              		.loc 1 90 0
  48 000c 0360     		str	r3, [r0]
  49              		.loc 1 91 0
  50 000e C360     		str	r3, [r0, #12]
  51              		.loc 1 92 0
  52 0010 8360     		str	r3, [r0, #8]
  53              		.loc 1 94 0
  54 0012 1146     		mov	r1, r2
  55 0014 1C30     		adds	r0, r0, #28
  56              	.LVL2:
  57 0016 FFF7FEFF 		bl	chSemObjectInit
ARM GAS  /var/folders/m4/4md61f0s1_g0rzfghffqnxvr0000gn/T//ccEcnULI.s 			page 2


  58              	.LVL3:
  59              		.loc 1 95 0
  60 001a 04F11000 		add	r0, r4, #16
  61 001e 0021     		movs	r1, #0
  62              		.loc 1 96 0
  63 0020 BDE81040 		pop	{r4, lr}
  64              		.cfi_restore 14
  65              		.cfi_restore 4
  66              		.cfi_def_cfa_offset 0
  67              	.LVL4:
  68              		.loc 1 95 0
  69 0024 FFF7FEBF 		b	chSemObjectInit
  70              	.LVL5:
  71              		.cfi_endproc
  72              	.LFE231:
  73              		.size	chMBObjectInit, .-chMBObjectInit
  74              		.section	.text.chMBResetI,"ax",%progbits
  75              		.align	2
  76              		.p2align 4,,15
  77              		.global	chMBResetI
  78              		.thumb
  79              		.thumb_func
  80              		.type	chMBResetI, %function
  81              	chMBResetI:
  82              	.LFB233:
  83              		.loc 1 124 0
  84              		.cfi_startproc
  85              		@ args = 0, pretend = 0, frame = 0
  86              		@ frame_needed = 0, uses_anonymous_args = 0
  87              	.LVL6:
  88 0000 10B5     		push	{r4, lr}
  89              		.cfi_def_cfa_offset 8
  90              		.cfi_offset 4, -8
  91              		.cfi_offset 14, -4
  92              		.loc 1 124 0
  93 0002 0446     		mov	r4, r0
  94              		.loc 1 131 0
  95 0004 1C30     		adds	r0, r0, #28
  96              	.LVL7:
  97              		.loc 1 129 0
  98 0006 2368     		ldr	r3, [r4]
  99              		.loc 1 131 0
 100 0008 6168     		ldr	r1, [r4, #4]
 101              		.loc 1 129 0
 102 000a A360     		str	r3, [r4, #8]
 103              		.loc 1 131 0
 104 000c C91A     		subs	r1, r1, r3
 105              		.loc 1 130 0
 106 000e E360     		str	r3, [r4, #12]
 107              		.loc 1 131 0
 108 0010 8910     		asrs	r1, r1, #2
 109 0012 FFF7FEFF 		bl	chSemResetI
 110              	.LVL8:
 111              		.loc 1 132 0
 112 0016 04F11000 		add	r0, r4, #16
 113 001a 0021     		movs	r1, #0
 114              		.loc 1 133 0
ARM GAS  /var/folders/m4/4md61f0s1_g0rzfghffqnxvr0000gn/T//ccEcnULI.s 			page 3


 115 001c BDE81040 		pop	{r4, lr}
 116              		.cfi_restore 14
 117              		.cfi_restore 4
 118              		.cfi_def_cfa_offset 0
 119              	.LVL9:
 120              		.loc 1 132 0
 121 0020 FFF7FEBF 		b	chSemResetI
 122              	.LVL10:
 123              		.cfi_endproc
 124              	.LFE233:
 125              		.size	chMBResetI, .-chMBResetI
 126              		.section	.text.chMBReset,"ax",%progbits
 127              		.align	2
 128              		.p2align 4,,15
 129              		.global	chMBReset
 130              		.thumb
 131              		.thumb_func
 132              		.type	chMBReset, %function
 133              	chMBReset:
 134              	.LFB232:
 135              		.loc 1 107 0
 136              		.cfi_startproc
 137              		@ args = 0, pretend = 0, frame = 0
 138              		@ frame_needed = 0, uses_anonymous_args = 0
 139              	.LVL11:
 140 0000 08B5     		push	{r3, lr}
 141              		.cfi_def_cfa_offset 8
 142              		.cfi_offset 3, -8
 143              		.cfi_offset 14, -4
 144              	.LBB66:
 145              	.LBB67:
 146              	.LBB68:
 147              	.LBB69:
 148              		.file 2 "ChibiOS_16.1.4/os/ext/CMSIS/include/core_cmFunc.h"
 149              		.loc 2 548 0
 150 0002 2023     		movs	r3, #32
 151              	@ 548 "ChibiOS_16.1.4/os/ext/CMSIS/include/core_cmFunc.h" 1
 152 0004 83F31188 		MSR basepri, r3
 153              	@ 0 "" 2
 154              		.thumb
 155              	.LBE69:
 156              	.LBE68:
 157              	.LBE67:
 158              	.LBE66:
 159              		.loc 1 110 0
 160 0008 FFF7FEFF 		bl	chMBResetI
 161              	.LVL12:
 162              		.loc 1 111 0
 163 000c FFF7FEFF 		bl	chSchRescheduleS
 164              	.LVL13:
 165              	.LBB70:
 166              	.LBB71:
 167              	.LBB72:
 168              	.LBB73:
 169              	.LBB74:
 170              		.loc 2 548 0
 171 0010 0023     		movs	r3, #0
ARM GAS  /var/folders/m4/4md61f0s1_g0rzfghffqnxvr0000gn/T//ccEcnULI.s 			page 4


 172              	@ 548 "ChibiOS_16.1.4/os/ext/CMSIS/include/core_cmFunc.h" 1
 173 0012 83F31188 		MSR basepri, r3
 174              	@ 0 "" 2
 175              		.thumb
 176 0016 08BD     		pop	{r3, pc}
 177              	.LBE74:
 178              	.LBE73:
 179              	.LBE72:
 180              	.LBE71:
 181              	.LBE70:
 182              		.cfi_endproc
 183              	.LFE232:
 184              		.size	chMBReset, .-chMBReset
 185              		.section	.text.chMBPostS,"ax",%progbits
 186              		.align	2
 187              		.p2align 4,,15
 188              		.global	chMBPostS
 189              		.thumb
 190              		.thumb_func
 191              		.type	chMBPostS, %function
 192              	chMBPostS:
 193              	.LFB235:
 194              		.loc 1 183 0
 195              		.cfi_startproc
 196              		@ args = 0, pretend = 0, frame = 0
 197              		@ frame_needed = 0, uses_anonymous_args = 0
 198              	.LVL14:
 199 0000 70B5     		push	{r4, r5, r6, lr}
 200              		.cfi_def_cfa_offset 16
 201              		.cfi_offset 4, -16
 202              		.cfi_offset 5, -12
 203              		.cfi_offset 6, -8
 204              		.cfi_offset 14, -4
 205              		.loc 1 183 0
 206 0002 0446     		mov	r4, r0
 207 0004 0E46     		mov	r6, r1
 208              		.loc 1 189 0
 209 0006 1C30     		adds	r0, r0, #28
 210              	.LVL15:
 211 0008 1146     		mov	r1, r2
 212              	.LVL16:
 213 000a FFF7FEFF 		bl	chSemWaitTimeoutS
 214              	.LVL17:
 215              		.loc 1 190 0
 216 000e 0546     		mov	r5, r0
 217 0010 78B9     		cbnz	r0, .L8
 218              	.LVL18:
 219              	.LBB77:
 220              	.LBB78:
 221              		.loc 1 191 0
 222 0012 A268     		ldr	r2, [r4, #8]
 223              		.loc 1 192 0
 224 0014 6168     		ldr	r1, [r4, #4]
 225              		.loc 1 191 0
 226 0016 131D     		adds	r3, r2, #4
 227              		.loc 1 192 0
 228 0018 8B42     		cmp	r3, r1
ARM GAS  /var/folders/m4/4md61f0s1_g0rzfghffqnxvr0000gn/T//ccEcnULI.s 			page 5


 229              		.loc 1 191 0
 230 001a A360     		str	r3, [r4, #8]
 231              		.loc 1 193 0
 232 001c 28BF     		it	cs
 233 001e 2368     		ldrcs	r3, [r4]
 234              		.loc 1 191 0
 235 0020 1660     		str	r6, [r2]
 236              		.loc 1 195 0
 237 0022 04F11000 		add	r0, r4, #16
 238              	.LVL19:
 239              		.loc 1 193 0
 240 0026 28BF     		it	cs
 241 0028 A360     		strcs	r3, [r4, #8]
 242              		.loc 1 195 0
 243 002a FFF7FEFF 		bl	chSemSignalI
 244              	.LVL20:
 245              		.loc 1 196 0
 246 002e FFF7FEFF 		bl	chSchRescheduleS
 247              	.LVL21:
 248              	.L8:
 249              	.LBE78:
 250              	.LBE77:
 251              		.loc 1 200 0
 252 0032 2846     		mov	r0, r5
 253 0034 70BD     		pop	{r4, r5, r6, pc}
 254              		.cfi_endproc
 255              	.LFE235:
 256              		.size	chMBPostS, .-chMBPostS
 257 0036 00BF     		.section	.text.chMBPost,"ax",%progbits
 258              		.align	2
 259              		.p2align 4,,15
 260              		.global	chMBPost
 261              		.thumb
 262              		.thumb_func
 263              		.type	chMBPost, %function
 264              	chMBPost:
 265              	.LFB234:
 266              		.loc 1 154 0
 267              		.cfi_startproc
 268              		@ args = 0, pretend = 0, frame = 0
 269              		@ frame_needed = 0, uses_anonymous_args = 0
 270              	.LVL22:
 271 0000 08B5     		push	{r3, lr}
 272              		.cfi_def_cfa_offset 8
 273              		.cfi_offset 3, -8
 274              		.cfi_offset 14, -4
 275              	.LBB79:
 276              	.LBB80:
 277              	.LBB81:
 278              	.LBB82:
 279              		.loc 2 548 0
 280 0002 2023     		movs	r3, #32
 281              	@ 548 "ChibiOS_16.1.4/os/ext/CMSIS/include/core_cmFunc.h" 1
 282 0004 83F31188 		MSR basepri, r3
 283              	@ 0 "" 2
 284              		.thumb
 285              	.LBE82:
ARM GAS  /var/folders/m4/4md61f0s1_g0rzfghffqnxvr0000gn/T//ccEcnULI.s 			page 6


 286              	.LBE81:
 287              	.LBE80:
 288              	.LBE79:
 289              		.loc 1 158 0
 290 0008 FFF7FEFF 		bl	chMBPostS
 291              	.LVL23:
 292              	.LBB83:
 293              	.LBB84:
 294              	.LBB85:
 295              	.LBB86:
 296              	.LBB87:
 297              		.loc 2 548 0
 298 000c 0023     		movs	r3, #0
 299              	@ 548 "ChibiOS_16.1.4/os/ext/CMSIS/include/core_cmFunc.h" 1
 300 000e 83F31188 		MSR basepri, r3
 301              	@ 0 "" 2
 302              		.thumb
 303              	.LBE87:
 304              	.LBE86:
 305              	.LBE85:
 306              	.LBE84:
 307              	.LBE83:
 308              		.loc 1 162 0
 309 0012 08BD     		pop	{r3, pc}
 310              		.cfi_endproc
 311              	.LFE234:
 312              		.size	chMBPost, .-chMBPost
 313              		.section	.text.chMBPostI,"ax",%progbits
 314              		.align	2
 315              		.p2align 4,,15
 316              		.global	chMBPostI
 317              		.thumb
 318              		.thumb_func
 319              		.type	chMBPostI, %function
 320              	chMBPostI:
 321              	.LFB236:
 322              		.loc 1 216 0
 323              		.cfi_startproc
 324              		@ args = 0, pretend = 0, frame = 0
 325              		@ frame_needed = 0, uses_anonymous_args = 0
 326              	.LVL24:
 327 0000 38B5     		push	{r3, r4, r5, lr}
 328              		.cfi_def_cfa_offset 16
 329              		.cfi_offset 3, -16
 330              		.cfi_offset 4, -12
 331              		.cfi_offset 5, -8
 332              		.cfi_offset 14, -4
 333 0002 436A     		ldr	r3, [r0, #36]
 334              	.LVL25:
 335              		.loc 1 221 0
 336 0004 002B     		cmp	r3, #0
 337 0006 12DD     		ble	.L17
 338              	.LVL26:
 339              		.loc 1 226 0
 340 0008 8468     		ldr	r4, [r0, #8]
 341              		.loc 1 227 0
 342 000a 4568     		ldr	r5, [r0, #4]
ARM GAS  /var/folders/m4/4md61f0s1_g0rzfghffqnxvr0000gn/T//ccEcnULI.s 			page 7


 343              		.loc 1 226 0
 344 000c 221D     		adds	r2, r4, #4
 345              	.LBB88:
 346              	.LBB89:
 347              		.file 3 "ChibiOS_16.1.4/os/rt/include/chsem.h"
 348              		.loc 3 122 0
 349 000e 013B     		subs	r3, r3, #1
 350              	.LBE89:
 351              	.LBE88:
 352              		.loc 1 227 0
 353 0010 AA42     		cmp	r2, r5
 354              	.LBB91:
 355              	.LBB90:
 356              		.loc 3 122 0
 357 0012 4362     		str	r3, [r0, #36]
 358              	.LBE90:
 359              	.LBE91:
 360              		.loc 1 228 0
 361 0014 28BF     		it	cs
 362 0016 0368     		ldrcs	r3, [r0]
 363              		.loc 1 226 0
 364 0018 8260     		str	r2, [r0, #8]
 365 001a 2160     		str	r1, [r4]
 366              		.loc 1 230 0
 367 001c 00F11000 		add	r0, r0, #16
 368              	.LVL27:
 369              		.loc 1 228 0
 370 0020 28BF     		it	cs
 371 0022 40F8083C 		strcs	r3, [r0, #-8]
 372              		.loc 1 230 0
 373 0026 FFF7FEFF 		bl	chSemSignalI
 374              	.LVL28:
 375              		.loc 1 232 0
 376 002a 0020     		movs	r0, #0
 377 002c 38BD     		pop	{r3, r4, r5, pc}
 378              	.LVL29:
 379              	.L17:
 380              		.loc 1 222 0
 381 002e 4FF0FF30 		mov	r0, #-1
 382              	.LVL30:
 383              		.loc 1 233 0
 384 0032 38BD     		pop	{r3, r4, r5, pc}
 385              		.cfi_endproc
 386              	.LFE236:
 387              		.size	chMBPostI, .-chMBPostI
 388              		.section	.text.chMBPostAheadS,"ax",%progbits
 389              		.align	2
 390              		.p2align 4,,15
 391              		.global	chMBPostAheadS
 392              		.thumb
 393              		.thumb_func
 394              		.type	chMBPostAheadS, %function
 395              	chMBPostAheadS:
 396              	.LFB238:
 397              		.loc 1 283 0
 398              		.cfi_startproc
 399              		@ args = 0, pretend = 0, frame = 0
ARM GAS  /var/folders/m4/4md61f0s1_g0rzfghffqnxvr0000gn/T//ccEcnULI.s 			page 8


 400              		@ frame_needed = 0, uses_anonymous_args = 0
 401              	.LVL31:
 402 0000 70B5     		push	{r4, r5, r6, lr}
 403              		.cfi_def_cfa_offset 16
 404              		.cfi_offset 4, -16
 405              		.cfi_offset 5, -12
 406              		.cfi_offset 6, -8
 407              		.cfi_offset 14, -4
 408              		.loc 1 283 0
 409 0002 0446     		mov	r4, r0
 410 0004 0E46     		mov	r6, r1
 411              		.loc 1 289 0
 412 0006 1C30     		adds	r0, r0, #28
 413              	.LVL32:
 414 0008 1146     		mov	r1, r2
 415              	.LVL33:
 416 000a FFF7FEFF 		bl	chSemWaitTimeoutS
 417              	.LVL34:
 418              		.loc 1 290 0
 419 000e 0546     		mov	r5, r0
 420 0010 60B9     		cbnz	r0, .L20
 421              	.LVL35:
 422              	.LBB94:
 423              	.LBB95:
 424              		.loc 1 291 0
 425 0012 E368     		ldr	r3, [r4, #12]
 426 0014 2268     		ldr	r2, [r4]
 427 0016 043B     		subs	r3, r3, #4
 428 0018 9342     		cmp	r3, r2
 429 001a E360     		str	r3, [r4, #12]
 430 001c 08D3     		bcc	.L23
 431              	.L21:
 432              		.loc 1 294 0
 433 001e 1E60     		str	r6, [r3]
 434              		.loc 1 295 0
 435 0020 04F11000 		add	r0, r4, #16
 436              	.LVL36:
 437 0024 FFF7FEFF 		bl	chSemSignalI
 438              	.LVL37:
 439              		.loc 1 296 0
 440 0028 FFF7FEFF 		bl	chSchRescheduleS
 441              	.LVL38:
 442              	.L20:
 443              	.LBE95:
 444              	.LBE94:
 445              		.loc 1 300 0
 446 002c 2846     		mov	r0, r5
 447 002e 70BD     		pop	{r4, r5, r6, pc}
 448              	.LVL39:
 449              	.L23:
 450              	.LBB97:
 451              	.LBB96:
 452              		.loc 1 292 0
 453 0030 6368     		ldr	r3, [r4, #4]
 454 0032 043B     		subs	r3, r3, #4
 455 0034 E360     		str	r3, [r4, #12]
 456 0036 F2E7     		b	.L21
ARM GAS  /var/folders/m4/4md61f0s1_g0rzfghffqnxvr0000gn/T//ccEcnULI.s 			page 9


 457              	.LBE96:
 458              	.LBE97:
 459              		.cfi_endproc
 460              	.LFE238:
 461              		.size	chMBPostAheadS, .-chMBPostAheadS
 462              		.section	.text.chMBPostAhead,"ax",%progbits
 463              		.align	2
 464              		.p2align 4,,15
 465              		.global	chMBPostAhead
 466              		.thumb
 467              		.thumb_func
 468              		.type	chMBPostAhead, %function
 469              	chMBPostAhead:
 470              	.LFB237:
 471              		.loc 1 254 0
 472              		.cfi_startproc
 473              		@ args = 0, pretend = 0, frame = 0
 474              		@ frame_needed = 0, uses_anonymous_args = 0
 475              	.LVL40:
 476 0000 08B5     		push	{r3, lr}
 477              		.cfi_def_cfa_offset 8
 478              		.cfi_offset 3, -8
 479              		.cfi_offset 14, -4
 480              	.LBB98:
 481              	.LBB99:
 482              	.LBB100:
 483              	.LBB101:
 484              		.loc 2 548 0
 485 0002 2023     		movs	r3, #32
 486              	@ 548 "ChibiOS_16.1.4/os/ext/CMSIS/include/core_cmFunc.h" 1
 487 0004 83F31188 		MSR basepri, r3
 488              	@ 0 "" 2
 489              		.thumb
 490              	.LBE101:
 491              	.LBE100:
 492              	.LBE99:
 493              	.LBE98:
 494              		.loc 1 258 0
 495 0008 FFF7FEFF 		bl	chMBPostAheadS
 496              	.LVL41:
 497              	.LBB102:
 498              	.LBB103:
 499              	.LBB104:
 500              	.LBB105:
 501              	.LBB106:
 502              		.loc 2 548 0
 503 000c 0023     		movs	r3, #0
 504              	@ 548 "ChibiOS_16.1.4/os/ext/CMSIS/include/core_cmFunc.h" 1
 505 000e 83F31188 		MSR basepri, r3
 506              	@ 0 "" 2
 507              		.thumb
 508              	.LBE106:
 509              	.LBE105:
 510              	.LBE104:
 511              	.LBE103:
 512              	.LBE102:
 513              		.loc 1 262 0
ARM GAS  /var/folders/m4/4md61f0s1_g0rzfghffqnxvr0000gn/T//ccEcnULI.s 			page 10


 514 0012 08BD     		pop	{r3, pc}
 515              		.cfi_endproc
 516              	.LFE237:
 517              		.size	chMBPostAhead, .-chMBPostAhead
 518              		.section	.text.chMBPostAheadI,"ax",%progbits
 519              		.align	2
 520              		.p2align 4,,15
 521              		.global	chMBPostAheadI
 522              		.thumb
 523              		.thumb_func
 524              		.type	chMBPostAheadI, %function
 525              	chMBPostAheadI:
 526              	.LFB239:
 527              		.loc 1 316 0
 528              		.cfi_startproc
 529              		@ args = 0, pretend = 0, frame = 0
 530              		@ frame_needed = 0, uses_anonymous_args = 0
 531              	.LVL42:
 532 0000 426A     		ldr	r2, [r0, #36]
 533              	.LVL43:
 534              		.loc 1 321 0
 535 0002 002A     		cmp	r2, #0
 536 0004 11DD     		ble	.L29
 537              	.LVL44:
 538              		.loc 1 325 0
 539 0006 C368     		ldr	r3, [r0, #12]
 540              		.loc 1 316 0
 541 0008 10B5     		push	{r4, lr}
 542              		.cfi_def_cfa_offset 8
 543              		.cfi_offset 4, -8
 544              		.cfi_offset 14, -4
 545              		.loc 1 325 0
 546 000a 0468     		ldr	r4, [r0]
 547 000c 043B     		subs	r3, r3, #4
 548              	.LBB107:
 549              	.LBB108:
 550              		.loc 3 122 0
 551 000e 013A     		subs	r2, r2, #1
 552              	.LBE108:
 553              	.LBE107:
 554              		.loc 1 325 0
 555 0010 A342     		cmp	r3, r4
 556              	.LBB110:
 557              	.LBB109:
 558              		.loc 3 122 0
 559 0012 4262     		str	r2, [r0, #36]
 560              	.LBE109:
 561              	.LBE110:
 562              		.loc 1 325 0
 563 0014 C360     		str	r3, [r0, #12]
 564 0016 02D2     		bcs	.L28
 565              		.loc 1 326 0
 566 0018 4368     		ldr	r3, [r0, #4]
 567 001a 043B     		subs	r3, r3, #4
 568 001c C360     		str	r3, [r0, #12]
 569              	.L28:
 570              		.loc 1 328 0
ARM GAS  /var/folders/m4/4md61f0s1_g0rzfghffqnxvr0000gn/T//ccEcnULI.s 			page 11


 571 001e 1960     		str	r1, [r3]
 572              		.loc 1 329 0
 573 0020 1030     		adds	r0, r0, #16
 574              	.LVL45:
 575 0022 FFF7FEFF 		bl	chSemSignalI
 576              	.LVL46:
 577              		.loc 1 331 0
 578 0026 0020     		movs	r0, #0
 579 0028 10BD     		pop	{r4, pc}
 580              	.LVL47:
 581              	.L29:
 582              		.cfi_def_cfa_offset 0
 583              		.cfi_restore 4
 584              		.cfi_restore 14
 585              		.loc 1 322 0
 586 002a 4FF0FF30 		mov	r0, #-1
 587              	.LVL48:
 588 002e 7047     		bx	lr
 589              		.cfi_endproc
 590              	.LFE239:
 591              		.size	chMBPostAheadI, .-chMBPostAheadI
 592              		.section	.text.chMBFetchS,"ax",%progbits
 593              		.align	2
 594              		.p2align 4,,15
 595              		.global	chMBFetchS
 596              		.thumb
 597              		.thumb_func
 598              		.type	chMBFetchS, %function
 599              	chMBFetchS:
 600              	.LFB241:
 601              		.loc 1 382 0
 602              		.cfi_startproc
 603              		@ args = 0, pretend = 0, frame = 0
 604              		@ frame_needed = 0, uses_anonymous_args = 0
 605              	.LVL49:
 606 0000 70B5     		push	{r4, r5, r6, lr}
 607              		.cfi_def_cfa_offset 16
 608              		.cfi_offset 4, -16
 609              		.cfi_offset 5, -12
 610              		.cfi_offset 6, -8
 611              		.cfi_offset 14, -4
 612              		.loc 1 382 0
 613 0002 0446     		mov	r4, r0
 614 0004 0E46     		mov	r6, r1
 615              		.loc 1 388 0
 616 0006 1030     		adds	r0, r0, #16
 617              	.LVL50:
 618 0008 1146     		mov	r1, r2
 619              	.LVL51:
 620 000a FFF7FEFF 		bl	chSemWaitTimeoutS
 621              	.LVL52:
 622              		.loc 1 389 0
 623 000e 0546     		mov	r5, r0
 624 0010 80B9     		cbnz	r0, .L33
 625              	.LVL53:
 626              	.LBB113:
 627              	.LBB114:
ARM GAS  /var/folders/m4/4md61f0s1_g0rzfghffqnxvr0000gn/T//ccEcnULI.s 			page 12


 628              		.loc 1 390 0
 629 0012 E368     		ldr	r3, [r4, #12]
 630              		.loc 1 391 0
 631 0014 6268     		ldr	r2, [r4, #4]
 632              		.loc 1 390 0
 633 0016 1968     		ldr	r1, [r3]
 634 0018 0433     		adds	r3, r3, #4
 635              		.loc 1 391 0
 636 001a 9342     		cmp	r3, r2
 637              		.loc 1 390 0
 638 001c E360     		str	r3, [r4, #12]
 639              		.loc 1 392 0
 640 001e 28BF     		it	cs
 641 0020 2368     		ldrcs	r3, [r4]
 642              		.loc 1 390 0
 643 0022 3160     		str	r1, [r6]
 644              		.loc 1 394 0
 645 0024 04F11C00 		add	r0, r4, #28
 646              	.LVL54:
 647              		.loc 1 392 0
 648 0028 28BF     		it	cs
 649 002a E360     		strcs	r3, [r4, #12]
 650              		.loc 1 394 0
 651 002c FFF7FEFF 		bl	chSemSignalI
 652              	.LVL55:
 653              		.loc 1 395 0
 654 0030 FFF7FEFF 		bl	chSchRescheduleS
 655              	.LVL56:
 656              	.L33:
 657              	.LBE114:
 658              	.LBE113:
 659              		.loc 1 399 0
 660 0034 2846     		mov	r0, r5
 661 0036 70BD     		pop	{r4, r5, r6, pc}
 662              		.cfi_endproc
 663              	.LFE241:
 664              		.size	chMBFetchS, .-chMBFetchS
 665              		.section	.text.chMBFetch,"ax",%progbits
 666              		.align	2
 667              		.p2align 4,,15
 668              		.global	chMBFetch
 669              		.thumb
 670              		.thumb_func
 671              		.type	chMBFetch, %function
 672              	chMBFetch:
 673              	.LFB240:
 674              		.loc 1 353 0
 675              		.cfi_startproc
 676              		@ args = 0, pretend = 0, frame = 0
 677              		@ frame_needed = 0, uses_anonymous_args = 0
 678              	.LVL57:
 679 0000 08B5     		push	{r3, lr}
 680              		.cfi_def_cfa_offset 8
 681              		.cfi_offset 3, -8
 682              		.cfi_offset 14, -4
 683              	.LBB115:
 684              	.LBB116:
ARM GAS  /var/folders/m4/4md61f0s1_g0rzfghffqnxvr0000gn/T//ccEcnULI.s 			page 13


 685              	.LBB117:
 686              	.LBB118:
 687              		.loc 2 548 0
 688 0002 2023     		movs	r3, #32
 689              	@ 548 "ChibiOS_16.1.4/os/ext/CMSIS/include/core_cmFunc.h" 1
 690 0004 83F31188 		MSR basepri, r3
 691              	@ 0 "" 2
 692              		.thumb
 693              	.LBE118:
 694              	.LBE117:
 695              	.LBE116:
 696              	.LBE115:
 697              		.loc 1 357 0
 698 0008 FFF7FEFF 		bl	chMBFetchS
 699              	.LVL58:
 700              	.LBB119:
 701              	.LBB120:
 702              	.LBB121:
 703              	.LBB122:
 704              	.LBB123:
 705              		.loc 2 548 0
 706 000c 0023     		movs	r3, #0
 707              	@ 548 "ChibiOS_16.1.4/os/ext/CMSIS/include/core_cmFunc.h" 1
 708 000e 83F31188 		MSR basepri, r3
 709              	@ 0 "" 2
 710              		.thumb
 711              	.LBE123:
 712              	.LBE122:
 713              	.LBE121:
 714              	.LBE120:
 715              	.LBE119:
 716              		.loc 1 361 0
 717 0012 08BD     		pop	{r3, pc}
 718              		.cfi_endproc
 719              	.LFE240:
 720              		.size	chMBFetch, .-chMBFetch
 721              		.section	.text.chMBFetchI,"ax",%progbits
 722              		.align	2
 723              		.p2align 4,,15
 724              		.global	chMBFetchI
 725              		.thumb
 726              		.thumb_func
 727              		.type	chMBFetchI, %function
 728              	chMBFetchI:
 729              	.LFB242:
 730              		.loc 1 415 0
 731              		.cfi_startproc
 732              		@ args = 0, pretend = 0, frame = 0
 733              		@ frame_needed = 0, uses_anonymous_args = 0
 734              	.LVL59:
 735 0000 8369     		ldr	r3, [r0, #24]
 736              	.LVL60:
 737              		.loc 1 420 0
 738 0002 002B     		cmp	r3, #0
 739 0004 14DD     		ble	.L41
 740              	.LVL61:
 741              	.LBB124:
ARM GAS  /var/folders/m4/4md61f0s1_g0rzfghffqnxvr0000gn/T//ccEcnULI.s 			page 14


 742              	.LBB125:
 743              		.loc 3 122 0
 744 0006 5A1E     		subs	r2, r3, #1
 745              	.LBE125:
 746              	.LBE124:
 747              		.loc 1 424 0
 748 0008 C368     		ldr	r3, [r0, #12]
 749              		.loc 1 415 0
 750 000a 10B5     		push	{r4, lr}
 751              		.cfi_def_cfa_offset 8
 752              		.cfi_offset 4, -8
 753              		.cfi_offset 14, -4
 754              	.LBB127:
 755              	.LBB126:
 756              		.loc 3 122 0
 757 000c 8261     		str	r2, [r0, #24]
 758              	.LBE126:
 759              	.LBE127:
 760              		.loc 1 425 0
 761 000e 4268     		ldr	r2, [r0, #4]
 762              		.loc 1 424 0
 763 0010 1C68     		ldr	r4, [r3]
 764 0012 0433     		adds	r3, r3, #4
 765              		.loc 1 425 0
 766 0014 9342     		cmp	r3, r2
 767              		.loc 1 424 0
 768 0016 C360     		str	r3, [r0, #12]
 769              		.loc 1 426 0
 770 0018 28BF     		it	cs
 771 001a 0368     		ldrcs	r3, [r0]
 772              		.loc 1 424 0
 773 001c 0C60     		str	r4, [r1]
 774              		.loc 1 428 0
 775 001e 00F11C00 		add	r0, r0, #28
 776              	.LVL62:
 777              		.loc 1 426 0
 778 0022 28BF     		it	cs
 779 0024 40F8103C 		strcs	r3, [r0, #-16]
 780              		.loc 1 428 0
 781 0028 FFF7FEFF 		bl	chSemSignalI
 782              	.LVL63:
 783              		.loc 1 430 0
 784 002c 0020     		movs	r0, #0
 785 002e 10BD     		pop	{r4, pc}
 786              	.LVL64:
 787              	.L41:
 788              		.cfi_def_cfa_offset 0
 789              		.cfi_restore 4
 790              		.cfi_restore 14
 791              		.loc 1 421 0
 792 0030 4FF0FF30 		mov	r0, #-1
 793              	.LVL65:
 794 0034 7047     		bx	lr
 795              		.cfi_endproc
 796              	.LFE242:
 797              		.size	chMBFetchI, .-chMBFetchI
 798 0036 00BF     		.text
ARM GAS  /var/folders/m4/4md61f0s1_g0rzfghffqnxvr0000gn/T//ccEcnULI.s 			page 15


 799              	.Letext0:
 800              		.file 4 "/usr/local/Cellar/gcc-arm-none-eabi-49/20150609/arm-none-eabi/include/machine/_default_ty
 801              		.file 5 "/usr/local/Cellar/gcc-arm-none-eabi-49/20150609/arm-none-eabi/include/sys/_stdint.h"
 802              		.file 6 "ChibiOS_16.1.4/os/rt/ports/ARMCMx/compilers/GCC/chtypes.h"
 803              		.file 7 "ChibiOS_16.1.4/os/rt/include/chsystypes.h"
 804              		.file 8 "ChibiOS_16.1.4/os/rt/include/chschd.h"
 805              		.file 9 "ChibiOS_16.1.4/os/rt/ports/ARMCMx/chcore.h"
 806              		.file 10 "ChibiOS_16.1.4/os/rt/ports/ARMCMx/chcore_v7m.h"
 807              		.file 11 "ChibiOS_16.1.4/os/rt/include/chtm.h"
 808              		.file 12 "ChibiOS_16.1.4/os/rt/include/chmtx.h"
 809              		.file 13 "ChibiOS_16.1.4/os/rt/include/chmboxes.h"
 810              		.file 14 "ChibiOS_16.1.4/os/rt/include/chsys.h"
 811              		.file 15 "ChibiOS_16.1.4/os/ext/CMSIS/include/core_cm4.h"
 812              		.section	.debug_info,"",%progbits
 813              	.Ldebug_info0:
 814 0000 C6110000 		.4byte	0x11c6
 815 0004 0400     		.2byte	0x4
 816 0006 00000000 		.4byte	.Ldebug_abbrev0
 817 000a 04       		.byte	0x4
 818 000b 01       		.uleb128 0x1
 819 000c 28050000 		.4byte	.LASF139
 820 0010 01       		.byte	0x1
 821 0011 01070000 		.4byte	.LASF140
 822 0015 00000000 		.4byte	.LASF141
 823 0019 60000000 		.4byte	.Ldebug_ranges0+0x60
 824 001d 00000000 		.4byte	0
 825 0021 00000000 		.4byte	.Ldebug_line0
 826 0025 02       		.uleb128 0x2
 827 0026 04       		.byte	0x4
 828 0027 05       		.byte	0x5
 829 0028 696E7400 		.ascii	"int\000"
 830 002c 03       		.uleb128 0x3
 831 002d 04       		.byte	0x4
 832 002e 07       		.byte	0x7
 833 002f 08020000 		.4byte	.LASF0
 834 0033 03       		.uleb128 0x3
 835 0034 01       		.byte	0x1
 836 0035 06       		.byte	0x6
 837 0036 49010000 		.4byte	.LASF1
 838 003a 04       		.uleb128 0x4
 839 003b 6B000000 		.4byte	.LASF5
 840 003f 04       		.byte	0x4
 841 0040 1D       		.byte	0x1d
 842 0041 45000000 		.4byte	0x45
 843 0045 03       		.uleb128 0x3
 844 0046 01       		.byte	0x1
 845 0047 08       		.byte	0x8
 846 0048 D4030000 		.4byte	.LASF2
 847 004c 03       		.uleb128 0x3
 848 004d 02       		.byte	0x2
 849 004e 05       		.byte	0x5
 850 004f 00040000 		.4byte	.LASF3
 851 0053 03       		.uleb128 0x3
 852 0054 02       		.byte	0x2
 853 0055 07       		.byte	0x7
 854 0056 28010000 		.4byte	.LASF4
 855 005a 04       		.uleb128 0x4
ARM GAS  /var/folders/m4/4md61f0s1_g0rzfghffqnxvr0000gn/T//ccEcnULI.s 			page 16


 856 005b CB020000 		.4byte	.LASF6
 857 005f 04       		.byte	0x4
 858 0060 3F       		.byte	0x3f
 859 0061 65000000 		.4byte	0x65
 860 0065 03       		.uleb128 0x3
 861 0066 04       		.byte	0x4
 862 0067 05       		.byte	0x5
 863 0068 8C010000 		.4byte	.LASF7
 864 006c 04       		.uleb128 0x4
 865 006d E7010000 		.4byte	.LASF8
 866 0071 04       		.byte	0x4
 867 0072 41       		.byte	0x41
 868 0073 77000000 		.4byte	0x77
 869 0077 03       		.uleb128 0x3
 870 0078 04       		.byte	0x4
 871 0079 07       		.byte	0x7
 872 007a B2040000 		.4byte	.LASF9
 873 007e 03       		.uleb128 0x3
 874 007f 08       		.byte	0x8
 875 0080 05       		.byte	0x5
 876 0081 3B010000 		.4byte	.LASF10
 877 0085 04       		.uleb128 0x4
 878 0086 8A030000 		.4byte	.LASF11
 879 008a 04       		.byte	0x4
 880 008b 5B       		.byte	0x5b
 881 008c 90000000 		.4byte	0x90
 882 0090 03       		.uleb128 0x3
 883 0091 08       		.byte	0x8
 884 0092 07       		.byte	0x7
 885 0093 C2000000 		.4byte	.LASF12
 886 0097 04       		.uleb128 0x4
 887 0098 CE060000 		.4byte	.LASF13
 888 009c 05       		.byte	0x5
 889 009d 14       		.byte	0x14
 890 009e 3A000000 		.4byte	0x3a
 891 00a2 04       		.uleb128 0x4
 892 00a3 CC030000 		.4byte	.LASF14
 893 00a7 05       		.byte	0x5
 894 00a8 1F       		.byte	0x1f
 895 00a9 5A000000 		.4byte	0x5a
 896 00ad 04       		.uleb128 0x4
 897 00ae 8A040000 		.4byte	.LASF15
 898 00b2 05       		.byte	0x5
 899 00b3 20       		.byte	0x20
 900 00b4 6C000000 		.4byte	0x6c
 901 00b8 04       		.uleb128 0x4
 902 00b9 62000000 		.4byte	.LASF16
 903 00bd 05       		.byte	0x5
 904 00be 26       		.byte	0x26
 905 00bf 85000000 		.4byte	0x85
 906 00c3 04       		.uleb128 0x4
 907 00c4 73060000 		.4byte	.LASF17
 908 00c8 06       		.byte	0x6
 909 00c9 39       		.byte	0x39
 910 00ca AD000000 		.4byte	0xad
 911 00ce 04       		.uleb128 0x4
 912 00cf A9020000 		.4byte	.LASF18
ARM GAS  /var/folders/m4/4md61f0s1_g0rzfghffqnxvr0000gn/T//ccEcnULI.s 			page 17


 913 00d3 06       		.byte	0x6
 914 00d4 3C       		.byte	0x3c
 915 00d5 97000000 		.4byte	0x97
 916 00d9 04       		.uleb128 0x4
 917 00da 95010000 		.4byte	.LASF19
 918 00de 06       		.byte	0x6
 919 00df 3D       		.byte	0x3d
 920 00e0 97000000 		.4byte	0x97
 921 00e4 04       		.uleb128 0x4
 922 00e5 95030000 		.4byte	.LASF20
 923 00e9 06       		.byte	0x6
 924 00ea 3E       		.byte	0x3e
 925 00eb 97000000 		.4byte	0x97
 926 00ef 04       		.uleb128 0x4
 927 00f0 78010000 		.4byte	.LASF21
 928 00f4 06       		.byte	0x6
 929 00f5 3F       		.byte	0x3f
 930 00f6 97000000 		.4byte	0x97
 931 00fa 04       		.uleb128 0x4
 932 00fb B4030000 		.4byte	.LASF22
 933 00ff 06       		.byte	0x6
 934 0100 40       		.byte	0x40
 935 0101 AD000000 		.4byte	0xad
 936 0105 04       		.uleb128 0x4
 937 0106 84020000 		.4byte	.LASF23
 938 010a 06       		.byte	0x6
 939 010b 41       		.byte	0x41
 940 010c A2000000 		.4byte	0xa2
 941 0110 04       		.uleb128 0x4
 942 0111 BF020000 		.4byte	.LASF24
 943 0115 06       		.byte	0x6
 944 0116 43       		.byte	0x43
 945 0117 AD000000 		.4byte	0xad
 946 011b 04       		.uleb128 0x4
 947 011c 02020000 		.4byte	.LASF25
 948 0120 06       		.byte	0x6
 949 0121 45       		.byte	0x45
 950 0122 A2000000 		.4byte	0xa2
 951 0126 04       		.uleb128 0x4
 952 0127 EB040000 		.4byte	.LASF26
 953 012b 07       		.byte	0x7
 954 012c 33       		.byte	0x33
 955 012d AD000000 		.4byte	0xad
 956 0131 04       		.uleb128 0x4
 957 0132 DB040000 		.4byte	.LASF27
 958 0136 07       		.byte	0x7
 959 0137 3F       		.byte	0x3f
 960 0138 3C010000 		.4byte	0x13c
 961 013c 05       		.uleb128 0x5
 962 013d 64020000 		.4byte	.LASF49
 963 0141 48       		.byte	0x48
 964 0142 08       		.byte	0x8
 965 0143 C2       		.byte	0xc2
 966 0144 41020000 		.4byte	0x241
 967 0148 06       		.uleb128 0x6
 968 0149 2A040000 		.4byte	.LASF28
 969 014d 08       		.byte	0x8
ARM GAS  /var/folders/m4/4md61f0s1_g0rzfghffqnxvr0000gn/T//ccEcnULI.s 			page 18


 970 014e C3       		.byte	0xc3
 971 014f 4C020000 		.4byte	0x24c
 972 0153 00       		.byte	0
 973 0154 06       		.uleb128 0x6
 974 0155 AD030000 		.4byte	.LASF29
 975 0159 08       		.byte	0x8
 976 015a C5       		.byte	0xc5
 977 015b 4C020000 		.4byte	0x24c
 978 015f 04       		.byte	0x4
 979 0160 06       		.uleb128 0x6
 980 0161 21010000 		.4byte	.LASF30
 981 0165 08       		.byte	0x8
 982 0166 C7       		.byte	0xc7
 983 0167 FA000000 		.4byte	0xfa
 984 016b 08       		.byte	0x8
 985 016c 06       		.uleb128 0x6
 986 016d 37070000 		.4byte	.LASF31
 987 0171 08       		.byte	0x8
 988 0172 C8       		.byte	0xc8
 989 0173 7C040000 		.4byte	0x47c
 990 0177 0C       		.byte	0xc
 991 0178 06       		.uleb128 0x6
 992 0179 9E010000 		.4byte	.LASF32
 993 017d 08       		.byte	0x8
 994 017e CA       		.byte	0xca
 995 017f 4C020000 		.4byte	0x24c
 996 0183 10       		.byte	0x10
 997 0184 06       		.uleb128 0x6
 998 0185 45030000 		.4byte	.LASF33
 999 0189 08       		.byte	0x8
 1000 018a CB       		.byte	0xcb
 1001 018b 4C020000 		.4byte	0x24c
 1002 018f 14       		.byte	0x14
 1003 0190 06       		.uleb128 0x6
 1004 0191 DD060000 		.4byte	.LASF34
 1005 0195 08       		.byte	0x8
 1006 0196 D2       		.byte	0xd2
 1007 0197 CA060000 		.4byte	0x6ca
 1008 019b 18       		.byte	0x18
 1009 019c 06       		.uleb128 0x6
 1010 019d 0A040000 		.4byte	.LASF35
 1011 01a1 08       		.byte	0x8
 1012 01a2 DD       		.byte	0xdd
 1013 01a3 D9000000 		.4byte	0xd9
 1014 01a7 1C       		.byte	0x1c
 1015 01a8 06       		.uleb128 0x6
 1016 01a9 31040000 		.4byte	.LASF36
 1017 01ad 08       		.byte	0x8
 1018 01ae E1       		.byte	0xe1
 1019 01af CE000000 		.4byte	0xce
 1020 01b3 1D       		.byte	0x1d
 1021 01b4 06       		.uleb128 0x6
 1022 01b5 B5060000 		.4byte	.LASF37
 1023 01b9 08       		.byte	0x8
 1024 01ba E6       		.byte	0xe6
 1025 01bb E4000000 		.4byte	0xe4
 1026 01bf 1E       		.byte	0x1e
ARM GAS  /var/folders/m4/4md61f0s1_g0rzfghffqnxvr0000gn/T//ccEcnULI.s 			page 19


 1027 01c0 06       		.uleb128 0x6
 1028 01c1 12040000 		.4byte	.LASF38
 1029 01c5 08       		.byte	0x8
 1030 01c6 EC       		.byte	0xec
 1031 01c7 EF000000 		.4byte	0xef
 1032 01cb 1F       		.byte	0x1f
 1033 01cc 06       		.uleb128 0x6
 1034 01cd 1D020000 		.4byte	.LASF39
 1035 01d1 08       		.byte	0x8
 1036 01d2 F3       		.byte	0xf3
 1037 01d3 DC060000 		.4byte	0x6dc
 1038 01d7 20       		.byte	0x20
 1039 01d8 07       		.uleb128 0x7
 1040 01d9 705F7500 		.ascii	"p_u\000"
 1041 01dd 08       		.byte	0x8
 1042 01de 3101     		.2byte	0x131
 1043 01e0 05060000 		.4byte	0x605
 1044 01e4 24       		.byte	0x24
 1045 01e5 08       		.uleb128 0x8
 1046 01e6 F4020000 		.4byte	.LASF40
 1047 01ea 08       		.byte	0x8
 1048 01eb 3601     		.2byte	0x136
 1049 01ed 52020000 		.4byte	0x252
 1050 01f1 28       		.byte	0x28
 1051 01f2 08       		.uleb128 0x8
 1052 01f3 34020000 		.4byte	.LASF41
 1053 01f7 08       		.byte	0x8
 1054 01f8 3C01     		.2byte	0x13c
 1055 01fa 76020000 		.4byte	0x276
 1056 01fe 2C       		.byte	0x2c
 1057 01ff 08       		.uleb128 0x8
 1058 0200 FB060000 		.4byte	.LASF42
 1059 0204 08       		.byte	0x8
 1060 0205 4001     		.2byte	0x140
 1061 0207 05010000 		.4byte	0x105
 1062 020b 34       		.byte	0x34
 1063 020c 08       		.uleb128 0x8
 1064 020d 7F040000 		.4byte	.LASF43
 1065 0211 08       		.byte	0x8
 1066 0212 4601     		.2byte	0x146
 1067 0214 10010000 		.4byte	0x110
 1068 0218 38       		.byte	0x38
 1069 0219 08       		.uleb128 0x8
 1070 021a F6030000 		.4byte	.LASF44
 1071 021e 08       		.byte	0x8
 1072 021f 4D01     		.2byte	0x14d
 1073 0221 C4060000 		.4byte	0x6c4
 1074 0225 3C       		.byte	0x3c
 1075 0226 08       		.uleb128 0x8
 1076 0227 F5040000 		.4byte	.LASF45
 1077 022b 08       		.byte	0x8
 1078 022c 5101     		.2byte	0x151
 1079 022e FA000000 		.4byte	0xfa
 1080 0232 40       		.byte	0x40
 1081 0233 08       		.uleb128 0x8
 1082 0234 55010000 		.4byte	.LASF46
 1083 0238 08       		.byte	0x8
ARM GAS  /var/folders/m4/4md61f0s1_g0rzfghffqnxvr0000gn/T//ccEcnULI.s 			page 20


 1084 0239 5801     		.2byte	0x158
 1085 023b 29030000 		.4byte	0x329
 1086 023f 44       		.byte	0x44
 1087 0240 00       		.byte	0
 1088 0241 04       		.uleb128 0x4
 1089 0242 07030000 		.4byte	.LASF47
 1090 0246 07       		.byte	0x7
 1091 0247 44       		.byte	0x44
 1092 0248 4C020000 		.4byte	0x24c
 1093 024c 09       		.uleb128 0x9
 1094 024d 04       		.byte	0x4
 1095 024e 31010000 		.4byte	0x131
 1096 0252 04       		.uleb128 0x4
 1097 0253 E5020000 		.4byte	.LASF48
 1098 0257 07       		.byte	0x7
 1099 0258 49       		.byte	0x49
 1100 0259 5D020000 		.4byte	0x25d
 1101 025d 05       		.uleb128 0x5
 1102 025e A2040000 		.4byte	.LASF50
 1103 0262 04       		.byte	0x4
 1104 0263 08       		.byte	0x8
 1105 0264 B0       		.byte	0xb0
 1106 0265 76020000 		.4byte	0x276
 1107 0269 06       		.uleb128 0x6
 1108 026a 2A040000 		.4byte	.LASF28
 1109 026e 08       		.byte	0x8
 1110 026f B1       		.byte	0xb1
 1111 0270 4C020000 		.4byte	0x24c
 1112 0274 00       		.byte	0
 1113 0275 00       		.byte	0
 1114 0276 04       		.uleb128 0x4
 1115 0277 9C060000 		.4byte	.LASF51
 1116 027b 07       		.byte	0x7
 1117 027c 50       		.byte	0x50
 1118 027d 81020000 		.4byte	0x281
 1119 0281 05       		.uleb128 0x5
 1120 0282 10010000 		.4byte	.LASF52
 1121 0286 08       		.byte	0x8
 1122 0287 08       		.byte	0x8
 1123 0288 B7       		.byte	0xb7
 1124 0289 A6020000 		.4byte	0x2a6
 1125 028d 06       		.uleb128 0x6
 1126 028e 2A040000 		.4byte	.LASF28
 1127 0292 08       		.byte	0x8
 1128 0293 B8       		.byte	0xb8
 1129 0294 4C020000 		.4byte	0x24c
 1130 0298 00       		.byte	0
 1131 0299 06       		.uleb128 0x6
 1132 029a AD030000 		.4byte	.LASF29
 1133 029e 08       		.byte	0x8
 1134 029f B9       		.byte	0xb9
 1135 02a0 4C020000 		.4byte	0x24c
 1136 02a4 04       		.byte	0x4
 1137 02a5 00       		.byte	0
 1138 02a6 04       		.uleb128 0x4
 1139 02a7 2C000000 		.4byte	.LASF53
 1140 02ab 07       		.byte	0x7
ARM GAS  /var/folders/m4/4md61f0s1_g0rzfghffqnxvr0000gn/T//ccEcnULI.s 			page 21


 1141 02ac 57       		.byte	0x57
 1142 02ad B1020000 		.4byte	0x2b1
 1143 02b1 0A       		.uleb128 0xa
 1144 02b2 B1020000 		.4byte	.LASF54
 1145 02b6 1C       		.byte	0x1c
 1146 02b7 08       		.byte	0x8
 1147 02b8 9001     		.2byte	0x190
 1148 02ba 0D030000 		.4byte	0x30d
 1149 02be 08       		.uleb128 0x8
 1150 02bf 9A040000 		.4byte	.LASF55
 1151 02c3 08       		.byte	0x8
 1152 02c4 9101     		.2byte	0x191
 1153 02c6 76020000 		.4byte	0x276
 1154 02ca 00       		.byte	0
 1155 02cb 08       		.uleb128 0x8
 1156 02cc 1C040000 		.4byte	.LASF56
 1157 02d0 08       		.byte	0x8
 1158 02d1 9201     		.2byte	0x192
 1159 02d3 FA000000 		.4byte	0xfa
 1160 02d7 08       		.byte	0x8
 1161 02d8 08       		.uleb128 0x8
 1162 02d9 4D030000 		.4byte	.LASF57
 1163 02dd 08       		.byte	0x8
 1164 02de 9401     		.2byte	0x194
 1165 02e0 7C040000 		.4byte	0x47c
 1166 02e4 0C       		.byte	0xc
 1167 02e5 08       		.uleb128 0x8
 1168 02e6 8A020000 		.4byte	.LASF58
 1169 02ea 08       		.byte	0x8
 1170 02eb 9701     		.2byte	0x197
 1171 02ed 4C020000 		.4byte	0x24c
 1172 02f1 10       		.byte	0x10
 1173 02f2 08       		.uleb128 0x8
 1174 02f3 82030000 		.4byte	.LASF59
 1175 02f7 08       		.byte	0x8
 1176 02f8 9801     		.2byte	0x198
 1177 02fa 4C020000 		.4byte	0x24c
 1178 02fe 14       		.byte	0x14
 1179 02ff 08       		.uleb128 0x8
 1180 0300 78030000 		.4byte	.LASF60
 1181 0304 08       		.byte	0x8
 1182 0305 9B01     		.2byte	0x19b
 1183 0307 4C020000 		.4byte	0x24c
 1184 030b 18       		.byte	0x18
 1185 030c 00       		.byte	0
 1186 030d 04       		.uleb128 0x4
 1187 030e 00050000 		.4byte	.LASF61
 1188 0312 07       		.byte	0x7
 1189 0313 5C       		.byte	0x5c
 1190 0314 18030000 		.4byte	0x318
 1191 0318 09       		.uleb128 0x9
 1192 0319 04       		.byte	0x4
 1193 031a 1E030000 		.4byte	0x31e
 1194 031e 0B       		.uleb128 0xb
 1195 031f 29030000 		.4byte	0x329
 1196 0323 0C       		.uleb128 0xc
 1197 0324 29030000 		.4byte	0x329
ARM GAS  /var/folders/m4/4md61f0s1_g0rzfghffqnxvr0000gn/T//ccEcnULI.s 			page 22


 1198 0328 00       		.byte	0
 1199 0329 0D       		.uleb128 0xd
 1200 032a 04       		.byte	0x4
 1201 032b 04       		.uleb128 0x4
 1202 032c 9D030000 		.4byte	.LASF62
 1203 0330 07       		.byte	0x7
 1204 0331 61       		.byte	0x61
 1205 0332 36030000 		.4byte	0x336
 1206 0336 0A       		.uleb128 0xa
 1207 0337 61040000 		.4byte	.LASF63
 1208 033b 14       		.byte	0x14
 1209 033c 08       		.byte	0x8
 1210 033d 6B01     		.2byte	0x16b
 1211 033f 85030000 		.4byte	0x385
 1212 0343 08       		.uleb128 0x8
 1213 0344 15020000 		.4byte	.LASF64
 1214 0348 08       		.byte	0x8
 1215 0349 6C01     		.2byte	0x16c
 1216 034b E1060000 		.4byte	0x6e1
 1217 034f 00       		.byte	0
 1218 0350 08       		.uleb128 0x8
 1219 0351 D1010000 		.4byte	.LASF65
 1220 0355 08       		.byte	0x8
 1221 0356 6D01     		.2byte	0x16d
 1222 0358 E1060000 		.4byte	0x6e1
 1223 035c 04       		.byte	0x4
 1224 035d 08       		.uleb128 0x8
 1225 035e 2B020000 		.4byte	.LASF66
 1226 0362 08       		.byte	0x8
 1227 0363 6E01     		.2byte	0x16e
 1228 0365 26010000 		.4byte	0x126
 1229 0369 08       		.byte	0x8
 1230 036a 08       		.uleb128 0x8
 1231 036b 3D070000 		.4byte	.LASF67
 1232 036f 08       		.byte	0x8
 1233 0370 6F01     		.2byte	0x16f
 1234 0372 0D030000 		.4byte	0x30d
 1235 0376 0C       		.byte	0xc
 1236 0377 08       		.uleb128 0x8
 1237 0378 7B060000 		.4byte	.LASF68
 1238 037c 08       		.byte	0x8
 1239 037d 7101     		.2byte	0x171
 1240 037f 29030000 		.4byte	0x329
 1241 0383 10       		.byte	0x10
 1242 0384 00       		.byte	0
 1243 0385 04       		.uleb128 0x4
 1244 0386 F1000000 		.4byte	.LASF69
 1245 038a 07       		.byte	0x7
 1246 038b 66       		.byte	0x66
 1247 038c 90030000 		.4byte	0x390
 1248 0390 0A       		.uleb128 0xa
 1249 0391 1A030000 		.4byte	.LASF70
 1250 0395 10       		.byte	0x10
 1251 0396 08       		.byte	0x8
 1252 0397 7B01     		.2byte	0x17b
 1253 0399 D2030000 		.4byte	0x3d2
 1254 039d 08       		.uleb128 0x8
ARM GAS  /var/folders/m4/4md61f0s1_g0rzfghffqnxvr0000gn/T//ccEcnULI.s 			page 23


 1255 039e 15020000 		.4byte	.LASF64
 1256 03a2 08       		.byte	0x8
 1257 03a3 7C01     		.2byte	0x17c
 1258 03a5 E1060000 		.4byte	0x6e1
 1259 03a9 00       		.byte	0
 1260 03aa 08       		.uleb128 0x8
 1261 03ab D1010000 		.4byte	.LASF65
 1262 03af 08       		.byte	0x8
 1263 03b0 7E01     		.2byte	0x17e
 1264 03b2 E1060000 		.4byte	0x6e1
 1265 03b6 04       		.byte	0x4
 1266 03b7 08       		.uleb128 0x8
 1267 03b8 2B020000 		.4byte	.LASF66
 1268 03bc 08       		.byte	0x8
 1269 03bd 8001     		.2byte	0x180
 1270 03bf 26010000 		.4byte	0x126
 1271 03c3 08       		.byte	0x8
 1272 03c4 08       		.uleb128 0x8
 1273 03c5 E4060000 		.4byte	.LASF71
 1274 03c9 08       		.byte	0x8
 1275 03ca 8201     		.2byte	0x182
 1276 03cc DC060000 		.4byte	0x6dc
 1277 03d0 0C       		.byte	0xc
 1278 03d1 00       		.byte	0
 1279 03d2 04       		.uleb128 0x4
 1280 03d3 8B000000 		.4byte	.LASF72
 1281 03d7 07       		.byte	0x7
 1282 03d8 6B       		.byte	0x6b
 1283 03d9 DD030000 		.4byte	0x3dd
 1284 03dd 0A       		.uleb128 0xa
 1285 03de BC030000 		.4byte	.LASF73
 1286 03e2 04       		.byte	0x4
 1287 03e3 08       		.byte	0x8
 1288 03e4 A201     		.2byte	0x1a2
 1289 03e6 F8030000 		.4byte	0x3f8
 1290 03ea 08       		.uleb128 0x8
 1291 03eb 4C060000 		.4byte	.LASF74
 1292 03ef 08       		.byte	0x8
 1293 03f0 AA01     		.2byte	0x1aa
 1294 03f2 E7060000 		.4byte	0x6e7
 1295 03f6 00       		.byte	0
 1296 03f7 00       		.byte	0
 1297 03f8 04       		.uleb128 0x4
 1298 03f9 92020000 		.4byte	.LASF75
 1299 03fd 07       		.byte	0x7
 1300 03fe 70       		.byte	0x70
 1301 03ff 03040000 		.4byte	0x403
 1302 0403 0E       		.uleb128 0xe
 1303 0404 82010000 		.4byte	.LASF76
 1304 0408 5802     		.2byte	0x258
 1305 040a 08       		.byte	0x8
 1306 040b C201     		.2byte	0x1c2
 1307 040d 5F040000 		.4byte	0x45f
 1308 0411 08       		.uleb128 0x8
 1309 0412 C8060000 		.4byte	.LASF77
 1310 0416 08       		.byte	0x8
 1311 0417 C601     		.2byte	0x1c6
ARM GAS  /var/folders/m4/4md61f0s1_g0rzfghffqnxvr0000gn/T//ccEcnULI.s 			page 24


 1312 0419 A6020000 		.4byte	0x2a6
 1313 041d 00       		.byte	0
 1314 041e 08       		.uleb128 0x8
 1315 041f 65010000 		.4byte	.LASF78
 1316 0423 08       		.byte	0x8
 1317 0424 CA01     		.2byte	0x1ca
 1318 0426 85030000 		.4byte	0x385
 1319 042a 1C       		.byte	0x1c
 1320 042b 07       		.uleb128 0x7
 1321 042c 64626700 		.ascii	"dbg\000"
 1322 0430 08       		.byte	0x8
 1323 0431 CE01     		.2byte	0x1ce
 1324 0433 D2030000 		.4byte	0x3d2
 1325 0437 2C       		.byte	0x2c
 1326 0438 08       		.uleb128 0x8
 1327 0439 6E020000 		.4byte	.LASF79
 1328 043d 08       		.byte	0x8
 1329 043e D201     		.2byte	0x1d2
 1330 0440 31010000 		.4byte	0x131
 1331 0444 30       		.byte	0x30
 1332 0445 07       		.uleb128 0x7
 1333 0446 746D00   		.ascii	"tm\000"
 1334 0449 08       		.byte	0x8
 1335 044a D701     		.2byte	0x1d7
 1336 044c FA050000 		.4byte	0x5fa
 1337 0450 78       		.byte	0x78
 1338 0451 08       		.uleb128 0x8
 1339 0452 9A000000 		.4byte	.LASF80
 1340 0456 08       		.byte	0x8
 1341 0457 E301     		.2byte	0x1e3
 1342 0459 EC060000 		.4byte	0x6ec
 1343 045d 80       		.byte	0x80
 1344 045e 00       		.byte	0
 1345 045f 03       		.uleb128 0x3
 1346 0460 04       		.byte	0x4
 1347 0461 07       		.byte	0x7
 1348 0462 FE020000 		.4byte	.LASF81
 1349 0466 04       		.uleb128 0x4
 1350 0467 C8010000 		.4byte	.LASF82
 1351 046b 09       		.byte	0x9
 1352 046c 65       		.byte	0x65
 1353 046d 29030000 		.4byte	0x329
 1354 0471 04       		.uleb128 0x4
 1355 0472 DA020000 		.4byte	.LASF83
 1356 0476 09       		.byte	0x9
 1357 0477 6D       		.byte	0x6d
 1358 0478 B8000000 		.4byte	0xb8
 1359 047c 05       		.uleb128 0x5
 1360 047d 5D060000 		.4byte	.LASF84
 1361 0481 04       		.byte	0x4
 1362 0482 09       		.byte	0x9
 1363 0483 89       		.byte	0x89
 1364 0484 95040000 		.4byte	0x495
 1365 0488 0F       		.uleb128 0xf
 1366 0489 72313300 		.ascii	"r13\000"
 1367 048d 09       		.byte	0x9
 1368 048e 8A       		.byte	0x8a
ARM GAS  /var/folders/m4/4md61f0s1_g0rzfghffqnxvr0000gn/T//ccEcnULI.s 			page 25


 1369 048f DF050000 		.4byte	0x5df
 1370 0493 00       		.byte	0
 1371 0494 00       		.byte	0
 1372 0495 05       		.uleb128 0x5
 1373 0496 7F000000 		.4byte	.LASF85
 1374 049a 64       		.byte	0x64
 1375 049b 0A       		.byte	0xa
 1376 049c FD       		.byte	0xfd
 1377 049d DF050000 		.4byte	0x5df
 1378 04a1 0F       		.uleb128 0xf
 1379 04a2 73313600 		.ascii	"s16\000"
 1380 04a6 0A       		.byte	0xa
 1381 04a7 FF       		.byte	0xff
 1382 04a8 66040000 		.4byte	0x466
 1383 04ac 00       		.byte	0
 1384 04ad 07       		.uleb128 0x7
 1385 04ae 73313700 		.ascii	"s17\000"
 1386 04b2 0A       		.byte	0xa
 1387 04b3 0001     		.2byte	0x100
 1388 04b5 66040000 		.4byte	0x466
 1389 04b9 04       		.byte	0x4
 1390 04ba 07       		.uleb128 0x7
 1391 04bb 73313800 		.ascii	"s18\000"
 1392 04bf 0A       		.byte	0xa
 1393 04c0 0101     		.2byte	0x101
 1394 04c2 66040000 		.4byte	0x466
 1395 04c6 08       		.byte	0x8
 1396 04c7 07       		.uleb128 0x7
 1397 04c8 73313900 		.ascii	"s19\000"
 1398 04cc 0A       		.byte	0xa
 1399 04cd 0201     		.2byte	0x102
 1400 04cf 66040000 		.4byte	0x466
 1401 04d3 0C       		.byte	0xc
 1402 04d4 07       		.uleb128 0x7
 1403 04d5 73323000 		.ascii	"s20\000"
 1404 04d9 0A       		.byte	0xa
 1405 04da 0301     		.2byte	0x103
 1406 04dc 66040000 		.4byte	0x466
 1407 04e0 10       		.byte	0x10
 1408 04e1 07       		.uleb128 0x7
 1409 04e2 73323100 		.ascii	"s21\000"
 1410 04e6 0A       		.byte	0xa
 1411 04e7 0401     		.2byte	0x104
 1412 04e9 66040000 		.4byte	0x466
 1413 04ed 14       		.byte	0x14
 1414 04ee 07       		.uleb128 0x7
 1415 04ef 73323200 		.ascii	"s22\000"
 1416 04f3 0A       		.byte	0xa
 1417 04f4 0501     		.2byte	0x105
 1418 04f6 66040000 		.4byte	0x466
 1419 04fa 18       		.byte	0x18
 1420 04fb 07       		.uleb128 0x7
 1421 04fc 73323300 		.ascii	"s23\000"
 1422 0500 0A       		.byte	0xa
 1423 0501 0601     		.2byte	0x106
 1424 0503 66040000 		.4byte	0x466
 1425 0507 1C       		.byte	0x1c
ARM GAS  /var/folders/m4/4md61f0s1_g0rzfghffqnxvr0000gn/T//ccEcnULI.s 			page 26


 1426 0508 07       		.uleb128 0x7
 1427 0509 73323400 		.ascii	"s24\000"
 1428 050d 0A       		.byte	0xa
 1429 050e 0701     		.2byte	0x107
 1430 0510 66040000 		.4byte	0x466
 1431 0514 20       		.byte	0x20
 1432 0515 07       		.uleb128 0x7
 1433 0516 73323500 		.ascii	"s25\000"
 1434 051a 0A       		.byte	0xa
 1435 051b 0801     		.2byte	0x108
 1436 051d 66040000 		.4byte	0x466
 1437 0521 24       		.byte	0x24
 1438 0522 07       		.uleb128 0x7
 1439 0523 73323600 		.ascii	"s26\000"
 1440 0527 0A       		.byte	0xa
 1441 0528 0901     		.2byte	0x109
 1442 052a 66040000 		.4byte	0x466
 1443 052e 28       		.byte	0x28
 1444 052f 07       		.uleb128 0x7
 1445 0530 73323700 		.ascii	"s27\000"
 1446 0534 0A       		.byte	0xa
 1447 0535 0A01     		.2byte	0x10a
 1448 0537 66040000 		.4byte	0x466
 1449 053b 2C       		.byte	0x2c
 1450 053c 07       		.uleb128 0x7
 1451 053d 73323800 		.ascii	"s28\000"
 1452 0541 0A       		.byte	0xa
 1453 0542 0B01     		.2byte	0x10b
 1454 0544 66040000 		.4byte	0x466
 1455 0548 30       		.byte	0x30
 1456 0549 07       		.uleb128 0x7
 1457 054a 73323900 		.ascii	"s29\000"
 1458 054e 0A       		.byte	0xa
 1459 054f 0C01     		.2byte	0x10c
 1460 0551 66040000 		.4byte	0x466
 1461 0555 34       		.byte	0x34
 1462 0556 07       		.uleb128 0x7
 1463 0557 73333000 		.ascii	"s30\000"
 1464 055b 0A       		.byte	0xa
 1465 055c 0D01     		.2byte	0x10d
 1466 055e 66040000 		.4byte	0x466
 1467 0562 38       		.byte	0x38
 1468 0563 07       		.uleb128 0x7
 1469 0564 73333100 		.ascii	"s31\000"
 1470 0568 0A       		.byte	0xa
 1471 0569 0E01     		.2byte	0x10e
 1472 056b 66040000 		.4byte	0x466
 1473 056f 3C       		.byte	0x3c
 1474 0570 07       		.uleb128 0x7
 1475 0571 723400   		.ascii	"r4\000"
 1476 0574 0A       		.byte	0xa
 1477 0575 1001     		.2byte	0x110
 1478 0577 66040000 		.4byte	0x466
 1479 057b 40       		.byte	0x40
 1480 057c 07       		.uleb128 0x7
 1481 057d 723500   		.ascii	"r5\000"
 1482 0580 0A       		.byte	0xa
ARM GAS  /var/folders/m4/4md61f0s1_g0rzfghffqnxvr0000gn/T//ccEcnULI.s 			page 27


 1483 0581 1101     		.2byte	0x111
 1484 0583 66040000 		.4byte	0x466
 1485 0587 44       		.byte	0x44
 1486 0588 07       		.uleb128 0x7
 1487 0589 723600   		.ascii	"r6\000"
 1488 058c 0A       		.byte	0xa
 1489 058d 1201     		.2byte	0x112
 1490 058f 66040000 		.4byte	0x466
 1491 0593 48       		.byte	0x48
 1492 0594 07       		.uleb128 0x7
 1493 0595 723700   		.ascii	"r7\000"
 1494 0598 0A       		.byte	0xa
 1495 0599 1301     		.2byte	0x113
 1496 059b 66040000 		.4byte	0x466
 1497 059f 4C       		.byte	0x4c
 1498 05a0 07       		.uleb128 0x7
 1499 05a1 723800   		.ascii	"r8\000"
 1500 05a4 0A       		.byte	0xa
 1501 05a5 1401     		.2byte	0x114
 1502 05a7 66040000 		.4byte	0x466
 1503 05ab 50       		.byte	0x50
 1504 05ac 07       		.uleb128 0x7
 1505 05ad 723900   		.ascii	"r9\000"
 1506 05b0 0A       		.byte	0xa
 1507 05b1 1501     		.2byte	0x115
 1508 05b3 66040000 		.4byte	0x466
 1509 05b7 54       		.byte	0x54
 1510 05b8 07       		.uleb128 0x7
 1511 05b9 72313000 		.ascii	"r10\000"
 1512 05bd 0A       		.byte	0xa
 1513 05be 1601     		.2byte	0x116
 1514 05c0 66040000 		.4byte	0x466
 1515 05c4 58       		.byte	0x58
 1516 05c5 07       		.uleb128 0x7
 1517 05c6 72313100 		.ascii	"r11\000"
 1518 05ca 0A       		.byte	0xa
 1519 05cb 1701     		.2byte	0x117
 1520 05cd 66040000 		.4byte	0x466
 1521 05d1 5C       		.byte	0x5c
 1522 05d2 07       		.uleb128 0x7
 1523 05d3 6C7200   		.ascii	"lr\000"
 1524 05d6 0A       		.byte	0xa
 1525 05d7 1801     		.2byte	0x118
 1526 05d9 66040000 		.4byte	0x466
 1527 05dd 60       		.byte	0x60
 1528 05de 00       		.byte	0
 1529 05df 09       		.uleb128 0x9
 1530 05e0 04       		.byte	0x4
 1531 05e1 95040000 		.4byte	0x495
 1532 05e5 10       		.uleb128 0x10
 1533 05e6 04       		.byte	0x4
 1534 05e7 0B       		.byte	0xb
 1535 05e8 38       		.byte	0x38
 1536 05e9 FA050000 		.4byte	0x5fa
 1537 05ed 06       		.uleb128 0x6
 1538 05ee 56060000 		.4byte	.LASF86
 1539 05f2 0B       		.byte	0xb
ARM GAS  /var/folders/m4/4md61f0s1_g0rzfghffqnxvr0000gn/T//ccEcnULI.s 			page 28


 1540 05f3 3C       		.byte	0x3c
 1541 05f4 C3000000 		.4byte	0xc3
 1542 05f8 00       		.byte	0
 1543 05f9 00       		.byte	0
 1544 05fa 04       		.uleb128 0x4
 1545 05fb 5D030000 		.4byte	.LASF87
 1546 05ff 0B       		.byte	0xb
 1547 0600 3D       		.byte	0x3d
 1548 0601 E5050000 		.4byte	0x5e5
 1549 0605 11       		.uleb128 0x11
 1550 0606 04       		.byte	0x4
 1551 0607 08       		.byte	0x8
 1552 0608 FA       		.byte	0xfa
 1553 0609 62060000 		.4byte	0x662
 1554 060d 12       		.uleb128 0x12
 1555 060e 5B000000 		.4byte	.LASF88
 1556 0612 08       		.byte	0x8
 1557 0613 0101     		.2byte	0x101
 1558 0615 05010000 		.4byte	0x105
 1559 0619 12       		.uleb128 0x12
 1560 061a D9000000 		.4byte	.LASF89
 1561 061e 08       		.byte	0x8
 1562 061f 0801     		.2byte	0x108
 1563 0621 05010000 		.4byte	0x105
 1564 0625 12       		.uleb128 0x12
 1565 0626 D6060000 		.4byte	.LASF90
 1566 062a 08       		.byte	0x8
 1567 062b 0F01     		.2byte	0x10f
 1568 062d 29030000 		.4byte	0x329
 1569 0631 12       		.uleb128 0x12
 1570 0632 55000000 		.4byte	.LASF91
 1571 0636 08       		.byte	0x8
 1572 0637 1601     		.2byte	0x116
 1573 0639 62060000 		.4byte	0x662
 1574 063d 12       		.uleb128 0x12
 1575 063e 24020000 		.4byte	.LASF92
 1576 0642 08       		.byte	0x8
 1577 0643 1E01     		.2byte	0x11e
 1578 0645 8D060000 		.4byte	0x68d
 1579 0649 12       		.uleb128 0x12
 1580 064a 93040000 		.4byte	.LASF93
 1581 064e 08       		.byte	0x8
 1582 064f 2701     		.2byte	0x127
 1583 0651 C4060000 		.4byte	0x6c4
 1584 0655 12       		.uleb128 0x12
 1585 0656 23040000 		.4byte	.LASF94
 1586 065a 08       		.byte	0x8
 1587 065b 2F01     		.2byte	0x12f
 1588 065d 10010000 		.4byte	0x110
 1589 0661 00       		.byte	0
 1590 0662 09       		.uleb128 0x9
 1591 0663 04       		.byte	0x4
 1592 0664 41020000 		.4byte	0x241
 1593 0668 05       		.uleb128 0x5
 1594 0669 72040000 		.4byte	.LASF95
 1595 066d 0C       		.byte	0xc
 1596 066e 03       		.byte	0x3
ARM GAS  /var/folders/m4/4md61f0s1_g0rzfghffqnxvr0000gn/T//ccEcnULI.s 			page 29


 1597 066f 34       		.byte	0x34
 1598 0670 8D060000 		.4byte	0x68d
 1599 0674 06       		.uleb128 0x6
 1600 0675 A6010000 		.4byte	.LASF96
 1601 0679 03       		.byte	0x3
 1602 067a 35       		.byte	0x35
 1603 067b 76020000 		.4byte	0x276
 1604 067f 00       		.byte	0
 1605 0680 06       		.uleb128 0x6
 1606 0681 53020000 		.4byte	.LASF97
 1607 0685 03       		.byte	0x3
 1608 0686 37       		.byte	0x37
 1609 0687 1B010000 		.4byte	0x11b
 1610 068b 08       		.byte	0x8
 1611 068c 00       		.byte	0
 1612 068d 09       		.uleb128 0x9
 1613 068e 04       		.byte	0x4
 1614 068f 68060000 		.4byte	0x668
 1615 0693 05       		.uleb128 0x5
 1616 0694 AC060000 		.4byte	.LASF98
 1617 0698 10       		.byte	0x10
 1618 0699 0C       		.byte	0xc
 1619 069a 39       		.byte	0x39
 1620 069b C4060000 		.4byte	0x6c4
 1621 069f 06       		.uleb128 0x6
 1622 06a0 5D010000 		.4byte	.LASF99
 1623 06a4 0C       		.byte	0xc
 1624 06a5 3A       		.byte	0x3a
 1625 06a6 76020000 		.4byte	0x276
 1626 06aa 00       		.byte	0
 1627 06ab 06       		.uleb128 0x6
 1628 06ac 2F070000 		.4byte	.LASF100
 1629 06b0 0C       		.byte	0xc
 1630 06b1 3C       		.byte	0x3c
 1631 06b2 4C020000 		.4byte	0x24c
 1632 06b6 08       		.byte	0x8
 1633 06b7 06       		.uleb128 0x6
 1634 06b8 E4040000 		.4byte	.LASF101
 1635 06bc 0C       		.byte	0xc
 1636 06bd 3E       		.byte	0x3e
 1637 06be 12070000 		.4byte	0x712
 1638 06c2 0C       		.byte	0xc
 1639 06c3 00       		.byte	0
 1640 06c4 09       		.uleb128 0x9
 1641 06c5 04       		.byte	0x4
 1642 06c6 93060000 		.4byte	0x693
 1643 06ca 09       		.uleb128 0x9
 1644 06cb 04       		.byte	0x4
 1645 06cc D0060000 		.4byte	0x6d0
 1646 06d0 13       		.uleb128 0x13
 1647 06d1 D5060000 		.4byte	0x6d5
 1648 06d5 03       		.uleb128 0x3
 1649 06d6 01       		.byte	0x1
 1650 06d7 08       		.byte	0x8
 1651 06d8 C4040000 		.4byte	.LASF102
 1652 06dc 14       		.uleb128 0x14
 1653 06dd 26010000 		.4byte	0x126
ARM GAS  /var/folders/m4/4md61f0s1_g0rzfghffqnxvr0000gn/T//ccEcnULI.s 			page 30


 1654 06e1 09       		.uleb128 0x9
 1655 06e2 04       		.byte	0x4
 1656 06e3 2B030000 		.4byte	0x32b
 1657 06e7 14       		.uleb128 0x14
 1658 06e8 CA060000 		.4byte	0x6ca
 1659 06ec 15       		.uleb128 0x15
 1660 06ed 71040000 		.4byte	0x471
 1661 06f1 FC060000 		.4byte	0x6fc
 1662 06f5 16       		.uleb128 0x16
 1663 06f6 5F040000 		.4byte	0x45f
 1664 06fa 3A       		.byte	0x3a
 1665 06fb 00       		.byte	0
 1666 06fc 04       		.uleb128 0x4
 1667 06fd 55040000 		.4byte	.LASF103
 1668 0701 03       		.byte	0x3
 1669 0702 38       		.byte	0x38
 1670 0703 68060000 		.4byte	0x668
 1671 0707 04       		.uleb128 0x4
 1672 0708 D9010000 		.4byte	.LASF104
 1673 070c 0C       		.byte	0xc
 1674 070d 34       		.byte	0x34
 1675 070e 93060000 		.4byte	0x693
 1676 0712 09       		.uleb128 0x9
 1677 0713 04       		.byte	0x4
 1678 0714 07070000 		.4byte	0x707
 1679 0718 10       		.uleb128 0x10
 1680 0719 28       		.byte	0x28
 1681 071a 0D       		.byte	0xd
 1682 071b 38       		.byte	0x38
 1683 071c 69070000 		.4byte	0x769
 1684 0720 06       		.uleb128 0x6
 1685 0721 6E030000 		.4byte	.LASF105
 1686 0725 0D       		.byte	0xd
 1687 0726 39       		.byte	0x39
 1688 0727 69070000 		.4byte	0x769
 1689 072b 00       		.byte	0
 1690 072c 06       		.uleb128 0x6
 1691 072d E2030000 		.4byte	.LASF106
 1692 0731 0D       		.byte	0xd
 1693 0732 3B       		.byte	0x3b
 1694 0733 69070000 		.4byte	0x769
 1695 0737 04       		.byte	0x4
 1696 0738 06       		.uleb128 0x6
 1697 0739 07010000 		.4byte	.LASF107
 1698 073d 0D       		.byte	0xd
 1699 073e 3D       		.byte	0x3d
 1700 073f 69070000 		.4byte	0x769
 1701 0743 08       		.byte	0x8
 1702 0744 06       		.uleb128 0x6
 1703 0745 BF010000 		.4byte	.LASF108
 1704 0749 0D       		.byte	0xd
 1705 074a 3E       		.byte	0x3e
 1706 074b 69070000 		.4byte	0x769
 1707 074f 0C       		.byte	0xc
 1708 0750 06       		.uleb128 0x6
 1709 0751 91060000 		.4byte	.LASF109
 1710 0755 0D       		.byte	0xd
ARM GAS  /var/folders/m4/4md61f0s1_g0rzfghffqnxvr0000gn/T//ccEcnULI.s 			page 31


 1711 0756 3F       		.byte	0x3f
 1712 0757 FC060000 		.4byte	0x6fc
 1713 075b 10       		.byte	0x10
 1714 075c 06       		.uleb128 0x6
 1715 075d 47020000 		.4byte	.LASF110
 1716 0761 0D       		.byte	0xd
 1717 0762 41       		.byte	0x41
 1718 0763 FC060000 		.4byte	0x6fc
 1719 0767 1C       		.byte	0x1c
 1720 0768 00       		.byte	0
 1721 0769 09       		.uleb128 0x9
 1722 076a 04       		.byte	0x4
 1723 076b 05010000 		.4byte	0x105
 1724 076f 04       		.uleb128 0x4
 1725 0770 53030000 		.4byte	.LASF111
 1726 0774 0D       		.byte	0xd
 1727 0775 43       		.byte	0x43
 1728 0776 18070000 		.4byte	0x718
 1729 077a 17       		.uleb128 0x17
 1730 077b 1A050000 		.4byte	.LASF114
 1731 077f 02       		.byte	0x2
 1732 0780 2202     		.2byte	0x222
 1733 0782 03       		.byte	0x3
 1734 0783 94070000 		.4byte	0x794
 1735 0787 18       		.uleb128 0x18
 1736 0788 E1010000 		.4byte	.LASF116
 1737 078c 02       		.byte	0x2
 1738 078d 2202     		.2byte	0x222
 1739 078f AD000000 		.4byte	0xad
 1740 0793 00       		.byte	0
 1741 0794 19       		.uleb128 0x19
 1742 0795 A9000000 		.4byte	.LASF112
 1743 0799 0A       		.byte	0xa
 1744 079a C801     		.2byte	0x1c8
 1745 079c 03       		.byte	0x3
 1746 079d 19       		.uleb128 0x19
 1747 079e 6C010000 		.4byte	.LASF113
 1748 07a2 0A       		.byte	0xa
 1749 07a3 E001     		.2byte	0x1e0
 1750 07a5 03       		.byte	0x3
 1751 07a6 1A       		.uleb128 0x1a
 1752 07a7 82060000 		.4byte	.LASF115
 1753 07ab 03       		.byte	0x3
 1754 07ac 76       		.byte	0x76
 1755 07ad 03       		.byte	0x3
 1756 07ae BD070000 		.4byte	0x7bd
 1757 07b2 1B       		.uleb128 0x1b
 1758 07b3 737000   		.ascii	"sp\000"
 1759 07b6 03       		.byte	0x3
 1760 07b7 76       		.byte	0x76
 1761 07b8 BD070000 		.4byte	0x7bd
 1762 07bc 00       		.byte	0
 1763 07bd 09       		.uleb128 0x9
 1764 07be 04       		.byte	0x4
 1765 07bf FC060000 		.4byte	0x6fc
 1766 07c3 1C       		.uleb128 0x1c
 1767 07c4 09050000 		.4byte	.LASF142
ARM GAS  /var/folders/m4/4md61f0s1_g0rzfghffqnxvr0000gn/T//ccEcnULI.s 			page 32


 1768 07c8 03       		.byte	0x3
 1769 07c9 95       		.byte	0x95
 1770 07ca 1B010000 		.4byte	0x11b
 1771 07ce 03       		.byte	0x3
 1772 07cf DE070000 		.4byte	0x7de
 1773 07d3 1B       		.uleb128 0x1b
 1774 07d4 737000   		.ascii	"sp\000"
 1775 07d7 03       		.byte	0x3
 1776 07d8 95       		.byte	0x95
 1777 07d9 BD070000 		.4byte	0x7bd
 1778 07dd 00       		.byte	0
 1779 07de 19       		.uleb128 0x19
 1780 07df 4B040000 		.4byte	.LASF117
 1781 07e3 0E       		.byte	0xe
 1782 07e4 5A01     		.2byte	0x15a
 1783 07e6 03       		.byte	0x3
 1784 07e7 17       		.uleb128 0x17
 1785 07e8 EF060000 		.4byte	.LASF118
 1786 07ec 0E       		.byte	0xe
 1787 07ed 6601     		.2byte	0x166
 1788 07ef 03       		.byte	0x3
 1789 07f0 02080000 		.4byte	0x802
 1790 07f4 1D       		.uleb128 0x1d
 1791 07f5 39040000 		.4byte	.LASF120
 1792 07f9 12080000 		.4byte	0x812
 1793 07fd EF060000 		.4byte	.LASF118
 1794 0801 00       		.byte	0
 1795 0802 15       		.uleb128 0x15
 1796 0803 D5060000 		.4byte	0x6d5
 1797 0807 12080000 		.4byte	0x812
 1798 080b 16       		.uleb128 0x16
 1799 080c 5F040000 		.4byte	0x45f
 1800 0810 0B       		.byte	0xb
 1801 0811 00       		.byte	0
 1802 0812 13       		.uleb128 0x13
 1803 0813 02080000 		.4byte	0x802
 1804 0817 1E       		.uleb128 0x1e
 1805 0818 25070000 		.4byte	.LASF121
 1806 081c 01       		.byte	0x1
 1807 081d B7       		.byte	0xb7
 1808 081e 05010000 		.4byte	0x105
 1809 0822 01       		.byte	0x1
 1810 0823 61080000 		.4byte	0x861
 1811 0827 1B       		.uleb128 0x1b
 1812 0828 6D627000 		.ascii	"mbp\000"
 1813 082c 01       		.byte	0x1
 1814 082d B7       		.byte	0xb7
 1815 082e 61080000 		.4byte	0x861
 1816 0832 1B       		.uleb128 0x1b
 1817 0833 6D736700 		.ascii	"msg\000"
 1818 0837 01       		.byte	0x1
 1819 0838 B7       		.byte	0xb7
 1820 0839 05010000 		.4byte	0x105
 1821 083d 1F       		.uleb128 0x1f
 1822 083e 3F020000 		.4byte	.LASF119
 1823 0842 01       		.byte	0x1
 1824 0843 B7       		.byte	0xb7
ARM GAS  /var/folders/m4/4md61f0s1_g0rzfghffqnxvr0000gn/T//ccEcnULI.s 			page 33


 1825 0844 26010000 		.4byte	0x126
 1826 0848 20       		.uleb128 0x20
 1827 0849 5B000000 		.4byte	.LASF88
 1828 084d 01       		.byte	0x1
 1829 084e B8       		.byte	0xb8
 1830 084f 05010000 		.4byte	0x105
 1831 0853 1D       		.uleb128 0x1d
 1832 0854 39040000 		.4byte	.LASF120
 1833 0858 77080000 		.4byte	0x877
 1834 085c 25070000 		.4byte	.LASF121
 1835 0860 00       		.byte	0
 1836 0861 09       		.uleb128 0x9
 1837 0862 04       		.byte	0x4
 1838 0863 6F070000 		.4byte	0x76f
 1839 0867 15       		.uleb128 0x15
 1840 0868 D5060000 		.4byte	0x6d5
 1841 086c 77080000 		.4byte	0x877
 1842 0870 16       		.uleb128 0x16
 1843 0871 5F040000 		.4byte	0x45f
 1844 0875 09       		.byte	0x9
 1845 0876 00       		.byte	0
 1846 0877 13       		.uleb128 0x13
 1847 0878 67080000 		.4byte	0x867
 1848 087c 21       		.uleb128 0x21
 1849 087d E2000000 		.4byte	.LASF122
 1850 0881 01       		.byte	0x1
 1851 0882 1B01     		.2byte	0x11b
 1852 0884 05010000 		.4byte	0x105
 1853 0888 01       		.byte	0x1
 1854 0889 CB080000 		.4byte	0x8cb
 1855 088d 22       		.uleb128 0x22
 1856 088e 6D627000 		.ascii	"mbp\000"
 1857 0892 01       		.byte	0x1
 1858 0893 1B01     		.2byte	0x11b
 1859 0895 61080000 		.4byte	0x861
 1860 0899 22       		.uleb128 0x22
 1861 089a 6D736700 		.ascii	"msg\000"
 1862 089e 01       		.byte	0x1
 1863 089f 1B01     		.2byte	0x11b
 1864 08a1 05010000 		.4byte	0x105
 1865 08a5 18       		.uleb128 0x18
 1866 08a6 3F020000 		.4byte	.LASF119
 1867 08aa 01       		.byte	0x1
 1868 08ab 1B01     		.2byte	0x11b
 1869 08ad 26010000 		.4byte	0x126
 1870 08b1 23       		.uleb128 0x23
 1871 08b2 5B000000 		.4byte	.LASF88
 1872 08b6 01       		.byte	0x1
 1873 08b7 1C01     		.2byte	0x11c
 1874 08b9 05010000 		.4byte	0x105
 1875 08bd 1D       		.uleb128 0x1d
 1876 08be 39040000 		.4byte	.LASF120
 1877 08c2 DB080000 		.4byte	0x8db
 1878 08c6 E2000000 		.4byte	.LASF122
 1879 08ca 00       		.byte	0
 1880 08cb 15       		.uleb128 0x15
 1881 08cc D5060000 		.4byte	0x6d5
ARM GAS  /var/folders/m4/4md61f0s1_g0rzfghffqnxvr0000gn/T//ccEcnULI.s 			page 34


 1882 08d0 DB080000 		.4byte	0x8db
 1883 08d4 16       		.uleb128 0x16
 1884 08d5 5F040000 		.4byte	0x45f
 1885 08d9 0E       		.byte	0xe
 1886 08da 00       		.byte	0
 1887 08db 13       		.uleb128 0x13
 1888 08dc CB080000 		.4byte	0x8cb
 1889 08e0 21       		.uleb128 0x21
 1890 08e1 9E020000 		.4byte	.LASF123
 1891 08e5 01       		.byte	0x1
 1892 08e6 7E01     		.2byte	0x17e
 1893 08e8 05010000 		.4byte	0x105
 1894 08ec 01       		.byte	0x1
 1895 08ed 2F090000 		.4byte	0x92f
 1896 08f1 22       		.uleb128 0x22
 1897 08f2 6D627000 		.ascii	"mbp\000"
 1898 08f6 01       		.byte	0x1
 1899 08f7 7E01     		.2byte	0x17e
 1900 08f9 61080000 		.4byte	0x861
 1901 08fd 18       		.uleb128 0x18
 1902 08fe D5020000 		.4byte	.LASF124
 1903 0902 01       		.byte	0x1
 1904 0903 7E01     		.2byte	0x17e
 1905 0905 69070000 		.4byte	0x769
 1906 0909 18       		.uleb128 0x18
 1907 090a 3F020000 		.4byte	.LASF119
 1908 090e 01       		.byte	0x1
 1909 090f 7E01     		.2byte	0x17e
 1910 0911 26010000 		.4byte	0x126
 1911 0915 23       		.uleb128 0x23
 1912 0916 5B000000 		.4byte	.LASF88
 1913 091a 01       		.byte	0x1
 1914 091b 7F01     		.2byte	0x17f
 1915 091d 05010000 		.4byte	0x105
 1916 0921 1D       		.uleb128 0x1d
 1917 0922 39040000 		.4byte	.LASF120
 1918 0926 3F090000 		.4byte	0x93f
 1919 092a 9E020000 		.4byte	.LASF123
 1920 092e 00       		.byte	0
 1921 092f 15       		.uleb128 0x15
 1922 0930 D5060000 		.4byte	0x6d5
 1923 0934 3F090000 		.4byte	0x93f
 1924 0938 16       		.uleb128 0x16
 1925 0939 5F040000 		.4byte	0x45f
 1926 093d 0A       		.byte	0xa
 1927 093e 00       		.byte	0
 1928 093f 13       		.uleb128 0x13
 1929 0940 2F090000 		.4byte	0x92f
 1930 0944 24       		.uleb128 0x24
 1931 0945 39000000 		.4byte	.LASF125
 1932 0949 01       		.byte	0x1
 1933 094a 56       		.byte	0x56
 1934 094b 00000000 		.4byte	.LFB231
 1935 094f 28000000 		.4byte	.LFE231-.LFB231
 1936 0953 01       		.uleb128 0x1
 1937 0954 9C       		.byte	0x9c
 1938 0955 C1090000 		.4byte	0x9c1
ARM GAS  /var/folders/m4/4md61f0s1_g0rzfghffqnxvr0000gn/T//ccEcnULI.s 			page 35


 1939 0959 25       		.uleb128 0x25
 1940 095a 6D627000 		.ascii	"mbp\000"
 1941 095e 01       		.byte	0x1
 1942 095f 56       		.byte	0x56
 1943 0960 61080000 		.4byte	0x861
 1944 0964 00000000 		.4byte	.LLST0
 1945 0968 25       		.uleb128 0x25
 1946 0969 62756600 		.ascii	"buf\000"
 1947 096d 01       		.byte	0x1
 1948 096e 56       		.byte	0x56
 1949 096f 69070000 		.4byte	0x769
 1950 0973 39000000 		.4byte	.LLST1
 1951 0977 25       		.uleb128 0x25
 1952 0978 6E00     		.ascii	"n\000"
 1953 097a 01       		.byte	0x1
 1954 097b 56       		.byte	0x56
 1955 097c 1B010000 		.4byte	0x11b
 1956 0980 65000000 		.4byte	.LLST2
 1957 0984 26       		.uleb128 0x26
 1958 0985 39040000 		.4byte	.LASF120
 1959 0989 C1090000 		.4byte	0x9c1
 1960 098d 27       		.uleb128 0x27
 1961 098e 1A000000 		.4byte	.LVL3
 1962 0992 6E110000 		.4byte	0x116e
 1963 0996 A8090000 		.4byte	0x9a8
 1964 099a 28       		.uleb128 0x28
 1965 099b 01       		.uleb128 0x1
 1966 099c 51       		.byte	0x51
 1967 099d 03       		.uleb128 0x3
 1968 099e F3       		.byte	0xf3
 1969 099f 01       		.uleb128 0x1
 1970 09a0 52       		.byte	0x52
 1971 09a1 28       		.uleb128 0x28
 1972 09a2 01       		.uleb128 0x1
 1973 09a3 50       		.byte	0x50
 1974 09a4 02       		.uleb128 0x2
 1975 09a5 74       		.byte	0x74
 1976 09a6 1C       		.sleb128 28
 1977 09a7 00       		.byte	0
 1978 09a8 29       		.uleb128 0x29
 1979 09a9 28000000 		.4byte	.LVL5
 1980 09ad 6E110000 		.4byte	0x116e
 1981 09b1 28       		.uleb128 0x28
 1982 09b2 01       		.uleb128 0x1
 1983 09b3 51       		.byte	0x51
 1984 09b4 01       		.uleb128 0x1
 1985 09b5 30       		.byte	0x30
 1986 09b6 28       		.uleb128 0x28
 1987 09b7 01       		.uleb128 0x1
 1988 09b8 50       		.byte	0x50
 1989 09b9 05       		.uleb128 0x5
 1990 09ba F3       		.byte	0xf3
 1991 09bb 01       		.uleb128 0x1
 1992 09bc 50       		.byte	0x50
 1993 09bd 23       		.byte	0x23
 1994 09be 10       		.uleb128 0x10
 1995 09bf 00       		.byte	0
ARM GAS  /var/folders/m4/4md61f0s1_g0rzfghffqnxvr0000gn/T//ccEcnULI.s 			page 36


 1996 09c0 00       		.byte	0
 1997 09c1 13       		.uleb128 0x13
 1998 09c2 CB080000 		.4byte	0x8cb
 1999 09c6 24       		.uleb128 0x24
 2000 09c7 59020000 		.4byte	.LASF126
 2001 09cb 01       		.byte	0x1
 2002 09cc 7C       		.byte	0x7c
 2003 09cd 00000000 		.4byte	.LFB233
 2004 09d1 24000000 		.4byte	.LFE233-.LFB233
 2005 09d5 01       		.uleb128 0x1
 2006 09d6 9C       		.byte	0x9c
 2007 09d7 200A0000 		.4byte	0xa20
 2008 09db 25       		.uleb128 0x25
 2009 09dc 6D627000 		.ascii	"mbp\000"
 2010 09e0 01       		.byte	0x1
 2011 09e1 7C       		.byte	0x7c
 2012 09e2 61080000 		.4byte	0x861
 2013 09e6 86000000 		.4byte	.LLST3
 2014 09ea 26       		.uleb128 0x26
 2015 09eb 39040000 		.4byte	.LASF120
 2016 09ef 200A0000 		.4byte	0xa20
 2017 09f3 27       		.uleb128 0x27
 2018 09f4 16000000 		.4byte	.LVL8
 2019 09f8 84110000 		.4byte	0x1184
 2020 09fc 070A0000 		.4byte	0xa07
 2021 0a00 28       		.uleb128 0x28
 2022 0a01 01       		.uleb128 0x1
 2023 0a02 50       		.byte	0x50
 2024 0a03 02       		.uleb128 0x2
 2025 0a04 74       		.byte	0x74
 2026 0a05 1C       		.sleb128 28
 2027 0a06 00       		.byte	0
 2028 0a07 29       		.uleb128 0x29
 2029 0a08 24000000 		.4byte	.LVL10
 2030 0a0c 84110000 		.4byte	0x1184
 2031 0a10 28       		.uleb128 0x28
 2032 0a11 01       		.uleb128 0x1
 2033 0a12 51       		.byte	0x51
 2034 0a13 01       		.uleb128 0x1
 2035 0a14 30       		.byte	0x30
 2036 0a15 28       		.uleb128 0x28
 2037 0a16 01       		.uleb128 0x1
 2038 0a17 50       		.byte	0x50
 2039 0a18 05       		.uleb128 0x5
 2040 0a19 F3       		.byte	0xf3
 2041 0a1a 01       		.uleb128 0x1
 2042 0a1b 50       		.byte	0x50
 2043 0a1c 23       		.byte	0x23
 2044 0a1d 10       		.uleb128 0x10
 2045 0a1e 00       		.byte	0
 2046 0a1f 00       		.byte	0
 2047 0a20 13       		.uleb128 0x13
 2048 0a21 2F090000 		.4byte	0x92f
 2049 0a25 24       		.uleb128 0x24
 2050 0a26 3B030000 		.4byte	.LASF127
 2051 0a2a 01       		.byte	0x1
 2052 0a2b 6B       		.byte	0x6b
ARM GAS  /var/folders/m4/4md61f0s1_g0rzfghffqnxvr0000gn/T//ccEcnULI.s 			page 37


 2053 0a2c 00000000 		.4byte	.LFB232
 2054 0a30 18000000 		.4byte	.LFE232-.LFB232
 2055 0a34 01       		.uleb128 0x1
 2056 0a35 9C       		.byte	0x9c
 2057 0a36 EF0A0000 		.4byte	0xaef
 2058 0a3a 25       		.uleb128 0x25
 2059 0a3b 6D627000 		.ascii	"mbp\000"
 2060 0a3f 01       		.byte	0x1
 2061 0a40 6B       		.byte	0x6b
 2062 0a41 61080000 		.4byte	0x861
 2063 0a45 BF000000 		.4byte	.LLST4
 2064 0a49 2A       		.uleb128 0x2a
 2065 0a4a DE070000 		.4byte	0x7de
 2066 0a4e 02000000 		.4byte	.LBB66
 2067 0a52 06000000 		.4byte	.LBE66-.LBB66
 2068 0a56 01       		.byte	0x1
 2069 0a57 6D       		.byte	0x6d
 2070 0a58 850A0000 		.4byte	0xa85
 2071 0a5c 2B       		.uleb128 0x2b
 2072 0a5d 94070000 		.4byte	0x794
 2073 0a61 02000000 		.4byte	.LBB67
 2074 0a65 06000000 		.4byte	.LBE67-.LBB67
 2075 0a69 0E       		.byte	0xe
 2076 0a6a 5C01     		.2byte	0x15c
 2077 0a6c 2B       		.uleb128 0x2b
 2078 0a6d 7A070000 		.4byte	0x77a
 2079 0a71 02000000 		.4byte	.LBB68
 2080 0a75 06000000 		.4byte	.LBE68-.LBB68
 2081 0a79 0A       		.byte	0xa
 2082 0a7a D001     		.2byte	0x1d0
 2083 0a7c 2C       		.uleb128 0x2c
 2084 0a7d 87070000 		.4byte	0x787
 2085 0a81 20       		.byte	0x20
 2086 0a82 00       		.byte	0
 2087 0a83 00       		.byte	0
 2088 0a84 00       		.byte	0
 2089 0a85 2A       		.uleb128 0x2a
 2090 0a86 E7070000 		.4byte	0x7e7
 2091 0a8a 10000000 		.4byte	.LBB70
 2092 0a8e 08000000 		.4byte	.LBE70-.LBB70
 2093 0a92 01       		.byte	0x1
 2094 0a93 70       		.byte	0x70
 2095 0a94 D00A0000 		.4byte	0xad0
 2096 0a98 2D       		.uleb128 0x2d
 2097 0a99 10000000 		.4byte	.LBB71
 2098 0a9d 08000000 		.4byte	.LBE71-.LBB71
 2099 0aa1 2E       		.uleb128 0x2e
 2100 0aa2 F4070000 		.4byte	0x7f4
 2101 0aa6 2B       		.uleb128 0x2b
 2102 0aa7 9D070000 		.4byte	0x79d
 2103 0aab 10000000 		.4byte	.LBB72
 2104 0aaf 08000000 		.4byte	.LBE72-.LBB72
 2105 0ab3 0E       		.byte	0xe
 2106 0ab4 7301     		.2byte	0x173
 2107 0ab6 2B       		.uleb128 0x2b
 2108 0ab7 7A070000 		.4byte	0x77a
 2109 0abb 10000000 		.4byte	.LBB73
ARM GAS  /var/folders/m4/4md61f0s1_g0rzfghffqnxvr0000gn/T//ccEcnULI.s 			page 38


 2110 0abf 08000000 		.4byte	.LBE73-.LBB73
 2111 0ac3 0A       		.byte	0xa
 2112 0ac4 E301     		.2byte	0x1e3
 2113 0ac6 2C       		.uleb128 0x2c
 2114 0ac7 87070000 		.4byte	0x787
 2115 0acb 00       		.byte	0
 2116 0acc 00       		.byte	0
 2117 0acd 00       		.byte	0
 2118 0ace 00       		.byte	0
 2119 0acf 00       		.byte	0
 2120 0ad0 27       		.uleb128 0x27
 2121 0ad1 0C000000 		.4byte	.LVL12
 2122 0ad5 C6090000 		.4byte	0x9c6
 2123 0ad9 E50A0000 		.4byte	0xae5
 2124 0add 28       		.uleb128 0x28
 2125 0ade 01       		.uleb128 0x1
 2126 0adf 50       		.byte	0x50
 2127 0ae0 03       		.uleb128 0x3
 2128 0ae1 F3       		.byte	0xf3
 2129 0ae2 01       		.uleb128 0x1
 2130 0ae3 50       		.byte	0x50
 2131 0ae4 00       		.byte	0
 2132 0ae5 2F       		.uleb128 0x2f
 2133 0ae6 10000000 		.4byte	.LVL13
 2134 0aea 9A110000 		.4byte	0x119a
 2135 0aee 00       		.byte	0
 2136 0aef 30       		.uleb128 0x30
 2137 0af0 17080000 		.4byte	0x817
 2138 0af4 00000000 		.4byte	.LFB235
 2139 0af8 36000000 		.4byte	.LFE235-.LFB235
 2140 0afc 01       		.uleb128 0x1
 2141 0afd 9C       		.byte	0x9c
 2142 0afe 9D0B0000 		.4byte	0xb9d
 2143 0b02 31       		.uleb128 0x31
 2144 0b03 27080000 		.4byte	0x827
 2145 0b07 E0000000 		.4byte	.LLST5
 2146 0b0b 31       		.uleb128 0x31
 2147 0b0c 32080000 		.4byte	0x832
 2148 0b10 FE000000 		.4byte	.LLST6
 2149 0b14 31       		.uleb128 0x31
 2150 0b15 3D080000 		.4byte	0x83d
 2151 0b19 1C010000 		.4byte	.LLST7
 2152 0b1d 32       		.uleb128 0x32
 2153 0b1e 48080000 		.4byte	0x848
 2154 0b22 3D010000 		.4byte	.LLST8
 2155 0b26 2E       		.uleb128 0x2e
 2156 0b27 53080000 		.4byte	0x853
 2157 0b2b 33       		.uleb128 0x33
 2158 0b2c 12000000 		.4byte	.LBB77
 2159 0b30 20000000 		.4byte	.LBE77-.LBB77
 2160 0b34 850B0000 		.4byte	0xb85
 2161 0b38 31       		.uleb128 0x31
 2162 0b39 3D080000 		.4byte	0x83d
 2163 0b3d 5B010000 		.4byte	.LLST9
 2164 0b41 31       		.uleb128 0x31
 2165 0b42 32080000 		.4byte	0x832
 2166 0b46 71010000 		.4byte	.LLST10
ARM GAS  /var/folders/m4/4md61f0s1_g0rzfghffqnxvr0000gn/T//ccEcnULI.s 			page 39


 2167 0b4a 31       		.uleb128 0x31
 2168 0b4b 27080000 		.4byte	0x827
 2169 0b4f 84010000 		.4byte	.LLST11
 2170 0b53 2D       		.uleb128 0x2d
 2171 0b54 12000000 		.4byte	.LBB78
 2172 0b58 20000000 		.4byte	.LBE78-.LBB78
 2173 0b5c 2E       		.uleb128 0x2e
 2174 0b5d 48080000 		.4byte	0x848
 2175 0b61 2E       		.uleb128 0x2e
 2176 0b62 53080000 		.4byte	0x853
 2177 0b66 27       		.uleb128 0x27
 2178 0b67 2E000000 		.4byte	.LVL20
 2179 0b6b A2110000 		.4byte	0x11a2
 2180 0b6f 7A0B0000 		.4byte	0xb7a
 2181 0b73 28       		.uleb128 0x28
 2182 0b74 01       		.uleb128 0x1
 2183 0b75 50       		.byte	0x50
 2184 0b76 02       		.uleb128 0x2
 2185 0b77 74       		.byte	0x74
 2186 0b78 10       		.sleb128 16
 2187 0b79 00       		.byte	0
 2188 0b7a 2F       		.uleb128 0x2f
 2189 0b7b 32000000 		.4byte	.LVL21
 2190 0b7f 9A110000 		.4byte	0x119a
 2191 0b83 00       		.byte	0
 2192 0b84 00       		.byte	0
 2193 0b85 34       		.uleb128 0x34
 2194 0b86 0E000000 		.4byte	.LVL17
 2195 0b8a B3110000 		.4byte	0x11b3
 2196 0b8e 28       		.uleb128 0x28
 2197 0b8f 01       		.uleb128 0x1
 2198 0b90 51       		.byte	0x51
 2199 0b91 03       		.uleb128 0x3
 2200 0b92 F3       		.byte	0xf3
 2201 0b93 01       		.uleb128 0x1
 2202 0b94 52       		.byte	0x52
 2203 0b95 28       		.uleb128 0x28
 2204 0b96 01       		.uleb128 0x1
 2205 0b97 50       		.byte	0x50
 2206 0b98 02       		.uleb128 0x2
 2207 0b99 74       		.byte	0x74
 2208 0b9a 1C       		.sleb128 28
 2209 0b9b 00       		.byte	0
 2210 0b9c 00       		.byte	0
 2211 0b9d 35       		.uleb128 0x35
 2212 0b9e 42040000 		.4byte	.LASF128
 2213 0ba2 01       		.byte	0x1
 2214 0ba3 9A       		.byte	0x9a
 2215 0ba4 05010000 		.4byte	0x105
 2216 0ba8 00000000 		.4byte	.LFB234
 2217 0bac 14000000 		.4byte	.LFE234-.LFB234
 2218 0bb0 01       		.uleb128 0x1
 2219 0bb1 9C       		.byte	0x9c
 2220 0bb2 970C0000 		.4byte	0xc97
 2221 0bb6 25       		.uleb128 0x25
 2222 0bb7 6D627000 		.ascii	"mbp\000"
 2223 0bbb 01       		.byte	0x1
ARM GAS  /var/folders/m4/4md61f0s1_g0rzfghffqnxvr0000gn/T//ccEcnULI.s 			page 40


 2224 0bbc 9A       		.byte	0x9a
 2225 0bbd 61080000 		.4byte	0x861
 2226 0bc1 97010000 		.4byte	.LLST12
 2227 0bc5 25       		.uleb128 0x25
 2228 0bc6 6D736700 		.ascii	"msg\000"
 2229 0bca 01       		.byte	0x1
 2230 0bcb 9A       		.byte	0x9a
 2231 0bcc 05010000 		.4byte	0x105
 2232 0bd0 B8010000 		.4byte	.LLST13
 2233 0bd4 36       		.uleb128 0x36
 2234 0bd5 3F020000 		.4byte	.LASF119
 2235 0bd9 01       		.byte	0x1
 2236 0bda 9A       		.byte	0x9a
 2237 0bdb 26010000 		.4byte	0x126
 2238 0bdf D9010000 		.4byte	.LLST14
 2239 0be3 37       		.uleb128 0x37
 2240 0be4 5B000000 		.4byte	.LASF88
 2241 0be8 01       		.byte	0x1
 2242 0be9 9B       		.byte	0x9b
 2243 0bea 05010000 		.4byte	0x105
 2244 0bee 01       		.uleb128 0x1
 2245 0bef 50       		.byte	0x50
 2246 0bf0 2A       		.uleb128 0x2a
 2247 0bf1 DE070000 		.4byte	0x7de
 2248 0bf5 02000000 		.4byte	.LBB79
 2249 0bf9 06000000 		.4byte	.LBE79-.LBB79
 2250 0bfd 01       		.byte	0x1
 2251 0bfe 9D       		.byte	0x9d
 2252 0bff 2C0C0000 		.4byte	0xc2c
 2253 0c03 2B       		.uleb128 0x2b
 2254 0c04 94070000 		.4byte	0x794
 2255 0c08 02000000 		.4byte	.LBB80
 2256 0c0c 06000000 		.4byte	.LBE80-.LBB80
 2257 0c10 0E       		.byte	0xe
 2258 0c11 5C01     		.2byte	0x15c
 2259 0c13 2B       		.uleb128 0x2b
 2260 0c14 7A070000 		.4byte	0x77a
 2261 0c18 02000000 		.4byte	.LBB81
 2262 0c1c 06000000 		.4byte	.LBE81-.LBB81
 2263 0c20 0A       		.byte	0xa
 2264 0c21 D001     		.2byte	0x1d0
 2265 0c23 2C       		.uleb128 0x2c
 2266 0c24 87070000 		.4byte	0x787
 2267 0c28 20       		.byte	0x20
 2268 0c29 00       		.byte	0
 2269 0c2a 00       		.byte	0
 2270 0c2b 00       		.byte	0
 2271 0c2c 2A       		.uleb128 0x2a
 2272 0c2d E7070000 		.4byte	0x7e7
 2273 0c31 0C000000 		.4byte	.LBB83
 2274 0c35 06000000 		.4byte	.LBE83-.LBB83
 2275 0c39 01       		.byte	0x1
 2276 0c3a 9F       		.byte	0x9f
 2277 0c3b 770C0000 		.4byte	0xc77
 2278 0c3f 2D       		.uleb128 0x2d
 2279 0c40 0C000000 		.4byte	.LBB84
 2280 0c44 06000000 		.4byte	.LBE84-.LBB84
ARM GAS  /var/folders/m4/4md61f0s1_g0rzfghffqnxvr0000gn/T//ccEcnULI.s 			page 41


 2281 0c48 2E       		.uleb128 0x2e
 2282 0c49 F4070000 		.4byte	0x7f4
 2283 0c4d 2B       		.uleb128 0x2b
 2284 0c4e 9D070000 		.4byte	0x79d
 2285 0c52 0C000000 		.4byte	.LBB85
 2286 0c56 06000000 		.4byte	.LBE85-.LBB85
 2287 0c5a 0E       		.byte	0xe
 2288 0c5b 7301     		.2byte	0x173
 2289 0c5d 2B       		.uleb128 0x2b
 2290 0c5e 7A070000 		.4byte	0x77a
 2291 0c62 0C000000 		.4byte	.LBB86
 2292 0c66 06000000 		.4byte	.LBE86-.LBB86
 2293 0c6a 0A       		.byte	0xa
 2294 0c6b E301     		.2byte	0x1e3
 2295 0c6d 2C       		.uleb128 0x2c
 2296 0c6e 87070000 		.4byte	0x787
 2297 0c72 00       		.byte	0
 2298 0c73 00       		.byte	0
 2299 0c74 00       		.byte	0
 2300 0c75 00       		.byte	0
 2301 0c76 00       		.byte	0
 2302 0c77 34       		.uleb128 0x34
 2303 0c78 0C000000 		.4byte	.LVL23
 2304 0c7c 17080000 		.4byte	0x817
 2305 0c80 28       		.uleb128 0x28
 2306 0c81 01       		.uleb128 0x1
 2307 0c82 52       		.byte	0x52
 2308 0c83 03       		.uleb128 0x3
 2309 0c84 F3       		.byte	0xf3
 2310 0c85 01       		.uleb128 0x1
 2311 0c86 52       		.byte	0x52
 2312 0c87 28       		.uleb128 0x28
 2313 0c88 01       		.uleb128 0x1
 2314 0c89 51       		.byte	0x51
 2315 0c8a 03       		.uleb128 0x3
 2316 0c8b F3       		.byte	0xf3
 2317 0c8c 01       		.uleb128 0x1
 2318 0c8d 51       		.byte	0x51
 2319 0c8e 28       		.uleb128 0x28
 2320 0c8f 01       		.uleb128 0x1
 2321 0c90 50       		.byte	0x50
 2322 0c91 03       		.uleb128 0x3
 2323 0c92 F3       		.byte	0xf3
 2324 0c93 01       		.uleb128 0x1
 2325 0c94 50       		.byte	0x50
 2326 0c95 00       		.byte	0
 2327 0c96 00       		.byte	0
 2328 0c97 35       		.uleb128 0x35
 2329 0c98 75000000 		.4byte	.LASF129
 2330 0c9c 01       		.byte	0x1
 2331 0c9d D8       		.byte	0xd8
 2332 0c9e 05010000 		.4byte	0x105
 2333 0ca2 00000000 		.4byte	.LFB236
 2334 0ca6 34000000 		.4byte	.LFE236-.LFB236
 2335 0caa 01       		.uleb128 0x1
 2336 0cab 9C       		.byte	0x9c
 2337 0cac 080D0000 		.4byte	0xd08
ARM GAS  /var/folders/m4/4md61f0s1_g0rzfghffqnxvr0000gn/T//ccEcnULI.s 			page 42


 2338 0cb0 25       		.uleb128 0x25
 2339 0cb1 6D627000 		.ascii	"mbp\000"
 2340 0cb5 01       		.byte	0x1
 2341 0cb6 D8       		.byte	0xd8
 2342 0cb7 61080000 		.4byte	0x861
 2343 0cbb FA010000 		.4byte	.LLST15
 2344 0cbf 25       		.uleb128 0x25
 2345 0cc0 6D736700 		.ascii	"msg\000"
 2346 0cc4 01       		.byte	0x1
 2347 0cc5 D8       		.byte	0xd8
 2348 0cc6 05010000 		.4byte	0x105
 2349 0cca 41020000 		.4byte	.LLST16
 2350 0cce 26       		.uleb128 0x26
 2351 0ccf 39040000 		.4byte	.LASF120
 2352 0cd3 080D0000 		.4byte	0xd08
 2353 0cd7 38       		.uleb128 0x38
 2354 0cd8 A6070000 		.4byte	0x7a6
 2355 0cdc 0E000000 		.4byte	.LBB88
 2356 0ce0 00000000 		.4byte	.Ldebug_ranges0+0
 2357 0ce4 01       		.byte	0x1
 2358 0ce5 E1       		.byte	0xe1
 2359 0ce6 F40C0000 		.4byte	0xcf4
 2360 0cea 31       		.uleb128 0x31
 2361 0ceb B2070000 		.4byte	0x7b2
 2362 0cef 6D020000 		.4byte	.LLST17
 2363 0cf3 00       		.byte	0
 2364 0cf4 34       		.uleb128 0x34
 2365 0cf5 2A000000 		.4byte	.LVL28
 2366 0cf9 A2110000 		.4byte	0x11a2
 2367 0cfd 28       		.uleb128 0x28
 2368 0cfe 01       		.uleb128 0x1
 2369 0cff 50       		.byte	0x50
 2370 0d00 05       		.uleb128 0x5
 2371 0d01 F3       		.byte	0xf3
 2372 0d02 01       		.uleb128 0x1
 2373 0d03 50       		.byte	0x50
 2374 0d04 23       		.byte	0x23
 2375 0d05 10       		.uleb128 0x10
 2376 0d06 00       		.byte	0
 2377 0d07 00       		.byte	0
 2378 0d08 13       		.uleb128 0x13
 2379 0d09 67080000 		.4byte	0x867
 2380 0d0d 30       		.uleb128 0x30
 2381 0d0e 7C080000 		.4byte	0x87c
 2382 0d12 00000000 		.4byte	.LFB238
 2383 0d16 38000000 		.4byte	.LFE238-.LFB238
 2384 0d1a 01       		.uleb128 0x1
 2385 0d1b 9C       		.byte	0x9c
 2386 0d1c B30D0000 		.4byte	0xdb3
 2387 0d20 31       		.uleb128 0x31
 2388 0d21 8D080000 		.4byte	0x88d
 2389 0d25 9F020000 		.4byte	.LLST18
 2390 0d29 31       		.uleb128 0x31
 2391 0d2a 99080000 		.4byte	0x899
 2392 0d2e BD020000 		.4byte	.LLST19
 2393 0d32 31       		.uleb128 0x31
 2394 0d33 A5080000 		.4byte	0x8a5
ARM GAS  /var/folders/m4/4md61f0s1_g0rzfghffqnxvr0000gn/T//ccEcnULI.s 			page 43


 2395 0d37 DB020000 		.4byte	.LLST20
 2396 0d3b 32       		.uleb128 0x32
 2397 0d3c B1080000 		.4byte	0x8b1
 2398 0d40 FC020000 		.4byte	.LLST21
 2399 0d44 2E       		.uleb128 0x2e
 2400 0d45 BD080000 		.4byte	0x8bd
 2401 0d49 39       		.uleb128 0x39
 2402 0d4a 18000000 		.4byte	.Ldebug_ranges0+0x18
 2403 0d4e 9B0D0000 		.4byte	0xd9b
 2404 0d52 31       		.uleb128 0x31
 2405 0d53 A5080000 		.4byte	0x8a5
 2406 0d57 25030000 		.4byte	.LLST22
 2407 0d5b 31       		.uleb128 0x31
 2408 0d5c 99080000 		.4byte	0x899
 2409 0d60 49030000 		.4byte	.LLST23
 2410 0d64 31       		.uleb128 0x31
 2411 0d65 8D080000 		.4byte	0x88d
 2412 0d69 67030000 		.4byte	.LLST24
 2413 0d6d 3A       		.uleb128 0x3a
 2414 0d6e 18000000 		.4byte	.Ldebug_ranges0+0x18
 2415 0d72 2E       		.uleb128 0x2e
 2416 0d73 B1080000 		.4byte	0x8b1
 2417 0d77 2E       		.uleb128 0x2e
 2418 0d78 BD080000 		.4byte	0x8bd
 2419 0d7c 27       		.uleb128 0x27
 2420 0d7d 28000000 		.4byte	.LVL37
 2421 0d81 A2110000 		.4byte	0x11a2
 2422 0d85 900D0000 		.4byte	0xd90
 2423 0d89 28       		.uleb128 0x28
 2424 0d8a 01       		.uleb128 0x1
 2425 0d8b 50       		.byte	0x50
 2426 0d8c 02       		.uleb128 0x2
 2427 0d8d 74       		.byte	0x74
 2428 0d8e 10       		.sleb128 16
 2429 0d8f 00       		.byte	0
 2430 0d90 2F       		.uleb128 0x2f
 2431 0d91 2C000000 		.4byte	.LVL38
 2432 0d95 9A110000 		.4byte	0x119a
 2433 0d99 00       		.byte	0
 2434 0d9a 00       		.byte	0
 2435 0d9b 34       		.uleb128 0x34
 2436 0d9c 0E000000 		.4byte	.LVL34
 2437 0da0 B3110000 		.4byte	0x11b3
 2438 0da4 28       		.uleb128 0x28
 2439 0da5 01       		.uleb128 0x1
 2440 0da6 51       		.byte	0x51
 2441 0da7 03       		.uleb128 0x3
 2442 0da8 F3       		.byte	0xf3
 2443 0da9 01       		.uleb128 0x1
 2444 0daa 52       		.byte	0x52
 2445 0dab 28       		.uleb128 0x28
 2446 0dac 01       		.uleb128 0x1
 2447 0dad 50       		.byte	0x50
 2448 0dae 02       		.uleb128 0x2
 2449 0daf 74       		.byte	0x74
 2450 0db0 1C       		.sleb128 28
 2451 0db1 00       		.byte	0
ARM GAS  /var/folders/m4/4md61f0s1_g0rzfghffqnxvr0000gn/T//ccEcnULI.s 			page 44


 2452 0db2 00       		.byte	0
 2453 0db3 35       		.uleb128 0x35
 2454 0db4 65060000 		.4byte	.LASF130
 2455 0db8 01       		.byte	0x1
 2456 0db9 FE       		.byte	0xfe
 2457 0dba 05010000 		.4byte	0x105
 2458 0dbe 00000000 		.4byte	.LFB237
 2459 0dc2 14000000 		.4byte	.LFE237-.LFB237
 2460 0dc6 01       		.uleb128 0x1
 2461 0dc7 9C       		.byte	0x9c
 2462 0dc8 AF0E0000 		.4byte	0xeaf
 2463 0dcc 25       		.uleb128 0x25
 2464 0dcd 6D627000 		.ascii	"mbp\000"
 2465 0dd1 01       		.byte	0x1
 2466 0dd2 FE       		.byte	0xfe
 2467 0dd3 61080000 		.4byte	0x861
 2468 0dd7 85030000 		.4byte	.LLST25
 2469 0ddb 25       		.uleb128 0x25
 2470 0ddc 6D736700 		.ascii	"msg\000"
 2471 0de0 01       		.byte	0x1
 2472 0de1 FE       		.byte	0xfe
 2473 0de2 05010000 		.4byte	0x105
 2474 0de6 A6030000 		.4byte	.LLST26
 2475 0dea 36       		.uleb128 0x36
 2476 0deb 3F020000 		.4byte	.LASF119
 2477 0def 01       		.byte	0x1
 2478 0df0 FE       		.byte	0xfe
 2479 0df1 26010000 		.4byte	0x126
 2480 0df5 C7030000 		.4byte	.LLST27
 2481 0df9 37       		.uleb128 0x37
 2482 0dfa 5B000000 		.4byte	.LASF88
 2483 0dfe 01       		.byte	0x1
 2484 0dff FF       		.byte	0xff
 2485 0e00 05010000 		.4byte	0x105
 2486 0e04 01       		.uleb128 0x1
 2487 0e05 50       		.byte	0x50
 2488 0e06 3B       		.uleb128 0x3b
 2489 0e07 DE070000 		.4byte	0x7de
 2490 0e0b 02000000 		.4byte	.LBB98
 2491 0e0f 06000000 		.4byte	.LBE98-.LBB98
 2492 0e13 01       		.byte	0x1
 2493 0e14 0101     		.2byte	0x101
 2494 0e16 430E0000 		.4byte	0xe43
 2495 0e1a 2B       		.uleb128 0x2b
 2496 0e1b 94070000 		.4byte	0x794
 2497 0e1f 02000000 		.4byte	.LBB99
 2498 0e23 06000000 		.4byte	.LBE99-.LBB99
 2499 0e27 0E       		.byte	0xe
 2500 0e28 5C01     		.2byte	0x15c
 2501 0e2a 2B       		.uleb128 0x2b
 2502 0e2b 7A070000 		.4byte	0x77a
 2503 0e2f 02000000 		.4byte	.LBB100
 2504 0e33 06000000 		.4byte	.LBE100-.LBB100
 2505 0e37 0A       		.byte	0xa
 2506 0e38 D001     		.2byte	0x1d0
 2507 0e3a 2C       		.uleb128 0x2c
 2508 0e3b 87070000 		.4byte	0x787
ARM GAS  /var/folders/m4/4md61f0s1_g0rzfghffqnxvr0000gn/T//ccEcnULI.s 			page 45


 2509 0e3f 20       		.byte	0x20
 2510 0e40 00       		.byte	0
 2511 0e41 00       		.byte	0
 2512 0e42 00       		.byte	0
 2513 0e43 3B       		.uleb128 0x3b
 2514 0e44 E7070000 		.4byte	0x7e7
 2515 0e48 0C000000 		.4byte	.LBB102
 2516 0e4c 06000000 		.4byte	.LBE102-.LBB102
 2517 0e50 01       		.byte	0x1
 2518 0e51 0301     		.2byte	0x103
 2519 0e53 8F0E0000 		.4byte	0xe8f
 2520 0e57 2D       		.uleb128 0x2d
 2521 0e58 0C000000 		.4byte	.LBB103
 2522 0e5c 06000000 		.4byte	.LBE103-.LBB103
 2523 0e60 2E       		.uleb128 0x2e
 2524 0e61 F4070000 		.4byte	0x7f4
 2525 0e65 2B       		.uleb128 0x2b
 2526 0e66 9D070000 		.4byte	0x79d
 2527 0e6a 0C000000 		.4byte	.LBB104
 2528 0e6e 06000000 		.4byte	.LBE104-.LBB104
 2529 0e72 0E       		.byte	0xe
 2530 0e73 7301     		.2byte	0x173
 2531 0e75 2B       		.uleb128 0x2b
 2532 0e76 7A070000 		.4byte	0x77a
 2533 0e7a 0C000000 		.4byte	.LBB105
 2534 0e7e 06000000 		.4byte	.LBE105-.LBB105
 2535 0e82 0A       		.byte	0xa
 2536 0e83 E301     		.2byte	0x1e3
 2537 0e85 2C       		.uleb128 0x2c
 2538 0e86 87070000 		.4byte	0x787
 2539 0e8a 00       		.byte	0
 2540 0e8b 00       		.byte	0
 2541 0e8c 00       		.byte	0
 2542 0e8d 00       		.byte	0
 2543 0e8e 00       		.byte	0
 2544 0e8f 34       		.uleb128 0x34
 2545 0e90 0C000000 		.4byte	.LVL41
 2546 0e94 7C080000 		.4byte	0x87c
 2547 0e98 28       		.uleb128 0x28
 2548 0e99 01       		.uleb128 0x1
 2549 0e9a 52       		.byte	0x52
 2550 0e9b 03       		.uleb128 0x3
 2551 0e9c F3       		.byte	0xf3
 2552 0e9d 01       		.uleb128 0x1
 2553 0e9e 52       		.byte	0x52
 2554 0e9f 28       		.uleb128 0x28
 2555 0ea0 01       		.uleb128 0x1
 2556 0ea1 51       		.byte	0x51
 2557 0ea2 03       		.uleb128 0x3
 2558 0ea3 F3       		.byte	0xf3
 2559 0ea4 01       		.uleb128 0x1
 2560 0ea5 51       		.byte	0x51
 2561 0ea6 28       		.uleb128 0x28
 2562 0ea7 01       		.uleb128 0x1
 2563 0ea8 50       		.byte	0x50
 2564 0ea9 03       		.uleb128 0x3
 2565 0eaa F3       		.byte	0xf3
ARM GAS  /var/folders/m4/4md61f0s1_g0rzfghffqnxvr0000gn/T//ccEcnULI.s 			page 46


 2566 0eab 01       		.uleb128 0x1
 2567 0eac 50       		.byte	0x50
 2568 0ead 00       		.byte	0
 2569 0eae 00       		.byte	0
 2570 0eaf 3C       		.uleb128 0x3c
 2571 0eb0 B3000000 		.4byte	.LASF131
 2572 0eb4 01       		.byte	0x1
 2573 0eb5 3C01     		.2byte	0x13c
 2574 0eb7 05010000 		.4byte	0x105
 2575 0ebb 00000000 		.4byte	.LFB239
 2576 0ebf 30000000 		.4byte	.LFE239-.LFB239
 2577 0ec3 01       		.uleb128 0x1
 2578 0ec4 9C       		.byte	0x9c
 2579 0ec5 240F0000 		.4byte	0xf24
 2580 0ec9 3D       		.uleb128 0x3d
 2581 0eca 6D627000 		.ascii	"mbp\000"
 2582 0ece 01       		.byte	0x1
 2583 0ecf 3C01     		.2byte	0x13c
 2584 0ed1 61080000 		.4byte	0x861
 2585 0ed5 E8030000 		.4byte	.LLST28
 2586 0ed9 3D       		.uleb128 0x3d
 2587 0eda 6D736700 		.ascii	"msg\000"
 2588 0ede 01       		.byte	0x1
 2589 0edf 3C01     		.2byte	0x13c
 2590 0ee1 05010000 		.4byte	0x105
 2591 0ee5 2F040000 		.4byte	.LLST29
 2592 0ee9 26       		.uleb128 0x26
 2593 0eea 39040000 		.4byte	.LASF120
 2594 0eee 240F0000 		.4byte	0xf24
 2595 0ef2 3E       		.uleb128 0x3e
 2596 0ef3 A6070000 		.4byte	0x7a6
 2597 0ef7 0E000000 		.4byte	.LBB107
 2598 0efb 30000000 		.4byte	.Ldebug_ranges0+0x30
 2599 0eff 01       		.byte	0x1
 2600 0f00 4401     		.2byte	0x144
 2601 0f02 100F0000 		.4byte	0xf10
 2602 0f06 31       		.uleb128 0x31
 2603 0f07 B2070000 		.4byte	0x7b2
 2604 0f0b 5B040000 		.4byte	.LLST30
 2605 0f0f 00       		.byte	0
 2606 0f10 34       		.uleb128 0x34
 2607 0f11 26000000 		.4byte	.LVL46
 2608 0f15 A2110000 		.4byte	0x11a2
 2609 0f19 28       		.uleb128 0x28
 2610 0f1a 01       		.uleb128 0x1
 2611 0f1b 50       		.byte	0x50
 2612 0f1c 05       		.uleb128 0x5
 2613 0f1d F3       		.byte	0xf3
 2614 0f1e 01       		.uleb128 0x1
 2615 0f1f 50       		.byte	0x50
 2616 0f20 23       		.byte	0x23
 2617 0f21 10       		.uleb128 0x10
 2618 0f22 00       		.byte	0
 2619 0f23 00       		.byte	0
 2620 0f24 13       		.uleb128 0x13
 2621 0f25 CB080000 		.4byte	0x8cb
 2622 0f29 30       		.uleb128 0x30
ARM GAS  /var/folders/m4/4md61f0s1_g0rzfghffqnxvr0000gn/T//ccEcnULI.s 			page 47


 2623 0f2a E0080000 		.4byte	0x8e0
 2624 0f2e 00000000 		.4byte	.LFB241
 2625 0f32 38000000 		.4byte	.LFE241-.LFB241
 2626 0f36 01       		.uleb128 0x1
 2627 0f37 9C       		.byte	0x9c
 2628 0f38 D70F0000 		.4byte	0xfd7
 2629 0f3c 31       		.uleb128 0x31
 2630 0f3d F1080000 		.4byte	0x8f1
 2631 0f41 8D040000 		.4byte	.LLST31
 2632 0f45 31       		.uleb128 0x31
 2633 0f46 FD080000 		.4byte	0x8fd
 2634 0f4a AB040000 		.4byte	.LLST32
 2635 0f4e 31       		.uleb128 0x31
 2636 0f4f 09090000 		.4byte	0x909
 2637 0f53 C9040000 		.4byte	.LLST33
 2638 0f57 32       		.uleb128 0x32
 2639 0f58 15090000 		.4byte	0x915
 2640 0f5c EA040000 		.4byte	.LLST34
 2641 0f60 2E       		.uleb128 0x2e
 2642 0f61 21090000 		.4byte	0x921
 2643 0f65 33       		.uleb128 0x33
 2644 0f66 12000000 		.4byte	.LBB113
 2645 0f6a 22000000 		.4byte	.LBE113-.LBB113
 2646 0f6e BF0F0000 		.4byte	0xfbf
 2647 0f72 31       		.uleb128 0x31
 2648 0f73 09090000 		.4byte	0x909
 2649 0f77 08050000 		.4byte	.LLST35
 2650 0f7b 31       		.uleb128 0x31
 2651 0f7c FD080000 		.4byte	0x8fd
 2652 0f80 1E050000 		.4byte	.LLST36
 2653 0f84 31       		.uleb128 0x31
 2654 0f85 F1080000 		.4byte	0x8f1
 2655 0f89 31050000 		.4byte	.LLST37
 2656 0f8d 2D       		.uleb128 0x2d
 2657 0f8e 12000000 		.4byte	.LBB114
 2658 0f92 22000000 		.4byte	.LBE114-.LBB114
 2659 0f96 2E       		.uleb128 0x2e
 2660 0f97 15090000 		.4byte	0x915
 2661 0f9b 2E       		.uleb128 0x2e
 2662 0f9c 21090000 		.4byte	0x921
 2663 0fa0 27       		.uleb128 0x27
 2664 0fa1 30000000 		.4byte	.LVL55
 2665 0fa5 A2110000 		.4byte	0x11a2
 2666 0fa9 B40F0000 		.4byte	0xfb4
 2667 0fad 28       		.uleb128 0x28
 2668 0fae 01       		.uleb128 0x1
 2669 0faf 50       		.byte	0x50
 2670 0fb0 02       		.uleb128 0x2
 2671 0fb1 74       		.byte	0x74
 2672 0fb2 1C       		.sleb128 28
 2673 0fb3 00       		.byte	0
 2674 0fb4 2F       		.uleb128 0x2f
 2675 0fb5 34000000 		.4byte	.LVL56
 2676 0fb9 9A110000 		.4byte	0x119a
 2677 0fbd 00       		.byte	0
 2678 0fbe 00       		.byte	0
 2679 0fbf 34       		.uleb128 0x34
ARM GAS  /var/folders/m4/4md61f0s1_g0rzfghffqnxvr0000gn/T//ccEcnULI.s 			page 48


 2680 0fc0 0E000000 		.4byte	.LVL52
 2681 0fc4 B3110000 		.4byte	0x11b3
 2682 0fc8 28       		.uleb128 0x28
 2683 0fc9 01       		.uleb128 0x1
 2684 0fca 51       		.byte	0x51
 2685 0fcb 03       		.uleb128 0x3
 2686 0fcc F3       		.byte	0xf3
 2687 0fcd 01       		.uleb128 0x1
 2688 0fce 52       		.byte	0x52
 2689 0fcf 28       		.uleb128 0x28
 2690 0fd0 01       		.uleb128 0x1
 2691 0fd1 50       		.byte	0x50
 2692 0fd2 02       		.uleb128 0x2
 2693 0fd3 74       		.byte	0x74
 2694 0fd4 10       		.sleb128 16
 2695 0fd5 00       		.byte	0
 2696 0fd6 00       		.byte	0
 2697 0fd7 3C       		.uleb128 0x3c
 2698 0fd8 31030000 		.4byte	.LASF132
 2699 0fdc 01       		.byte	0x1
 2700 0fdd 6101     		.2byte	0x161
 2701 0fdf 05010000 		.4byte	0x105
 2702 0fe3 00000000 		.4byte	.LFB240
 2703 0fe7 14000000 		.4byte	.LFE240-.LFB240
 2704 0feb 01       		.uleb128 0x1
 2705 0fec 9C       		.byte	0x9c
 2706 0fed D8100000 		.4byte	0x10d8
 2707 0ff1 3D       		.uleb128 0x3d
 2708 0ff2 6D627000 		.ascii	"mbp\000"
 2709 0ff6 01       		.byte	0x1
 2710 0ff7 6101     		.2byte	0x161
 2711 0ff9 61080000 		.4byte	0x861
 2712 0ffd 44050000 		.4byte	.LLST38
 2713 1001 3F       		.uleb128 0x3f
 2714 1002 D5020000 		.4byte	.LASF124
 2715 1006 01       		.byte	0x1
 2716 1007 6101     		.2byte	0x161
 2717 1009 69070000 		.4byte	0x769
 2718 100d 65050000 		.4byte	.LLST39
 2719 1011 3F       		.uleb128 0x3f
 2720 1012 3F020000 		.4byte	.LASF119
 2721 1016 01       		.byte	0x1
 2722 1017 6101     		.2byte	0x161
 2723 1019 26010000 		.4byte	0x126
 2724 101d 86050000 		.4byte	.LLST40
 2725 1021 40       		.uleb128 0x40
 2726 1022 5B000000 		.4byte	.LASF88
 2727 1026 01       		.byte	0x1
 2728 1027 6201     		.2byte	0x162
 2729 1029 05010000 		.4byte	0x105
 2730 102d 01       		.uleb128 0x1
 2731 102e 50       		.byte	0x50
 2732 102f 3B       		.uleb128 0x3b
 2733 1030 DE070000 		.4byte	0x7de
 2734 1034 02000000 		.4byte	.LBB115
 2735 1038 06000000 		.4byte	.LBE115-.LBB115
 2736 103c 01       		.byte	0x1
ARM GAS  /var/folders/m4/4md61f0s1_g0rzfghffqnxvr0000gn/T//ccEcnULI.s 			page 49


 2737 103d 6401     		.2byte	0x164
 2738 103f 6C100000 		.4byte	0x106c
 2739 1043 2B       		.uleb128 0x2b
 2740 1044 94070000 		.4byte	0x794
 2741 1048 02000000 		.4byte	.LBB116
 2742 104c 06000000 		.4byte	.LBE116-.LBB116
 2743 1050 0E       		.byte	0xe
 2744 1051 5C01     		.2byte	0x15c
 2745 1053 2B       		.uleb128 0x2b
 2746 1054 7A070000 		.4byte	0x77a
 2747 1058 02000000 		.4byte	.LBB117
 2748 105c 06000000 		.4byte	.LBE117-.LBB117
 2749 1060 0A       		.byte	0xa
 2750 1061 D001     		.2byte	0x1d0
 2751 1063 2C       		.uleb128 0x2c
 2752 1064 87070000 		.4byte	0x787
 2753 1068 20       		.byte	0x20
 2754 1069 00       		.byte	0
 2755 106a 00       		.byte	0
 2756 106b 00       		.byte	0
 2757 106c 3B       		.uleb128 0x3b
 2758 106d E7070000 		.4byte	0x7e7
 2759 1071 0C000000 		.4byte	.LBB119
 2760 1075 06000000 		.4byte	.LBE119-.LBB119
 2761 1079 01       		.byte	0x1
 2762 107a 6601     		.2byte	0x166
 2763 107c B8100000 		.4byte	0x10b8
 2764 1080 2D       		.uleb128 0x2d
 2765 1081 0C000000 		.4byte	.LBB120
 2766 1085 06000000 		.4byte	.LBE120-.LBB120
 2767 1089 2E       		.uleb128 0x2e
 2768 108a F4070000 		.4byte	0x7f4
 2769 108e 2B       		.uleb128 0x2b
 2770 108f 9D070000 		.4byte	0x79d
 2771 1093 0C000000 		.4byte	.LBB121
 2772 1097 06000000 		.4byte	.LBE121-.LBB121
 2773 109b 0E       		.byte	0xe
 2774 109c 7301     		.2byte	0x173
 2775 109e 2B       		.uleb128 0x2b
 2776 109f 7A070000 		.4byte	0x77a
 2777 10a3 0C000000 		.4byte	.LBB122
 2778 10a7 06000000 		.4byte	.LBE122-.LBB122
 2779 10ab 0A       		.byte	0xa
 2780 10ac E301     		.2byte	0x1e3
 2781 10ae 2C       		.uleb128 0x2c
 2782 10af 87070000 		.4byte	0x787
 2783 10b3 00       		.byte	0
 2784 10b4 00       		.byte	0
 2785 10b5 00       		.byte	0
 2786 10b6 00       		.byte	0
 2787 10b7 00       		.byte	0
 2788 10b8 34       		.uleb128 0x34
 2789 10b9 0C000000 		.4byte	.LVL58
 2790 10bd E0080000 		.4byte	0x8e0
 2791 10c1 28       		.uleb128 0x28
 2792 10c2 01       		.uleb128 0x1
 2793 10c3 52       		.byte	0x52
ARM GAS  /var/folders/m4/4md61f0s1_g0rzfghffqnxvr0000gn/T//ccEcnULI.s 			page 50


 2794 10c4 03       		.uleb128 0x3
 2795 10c5 F3       		.byte	0xf3
 2796 10c6 01       		.uleb128 0x1
 2797 10c7 52       		.byte	0x52
 2798 10c8 28       		.uleb128 0x28
 2799 10c9 01       		.uleb128 0x1
 2800 10ca 51       		.byte	0x51
 2801 10cb 03       		.uleb128 0x3
 2802 10cc F3       		.byte	0xf3
 2803 10cd 01       		.uleb128 0x1
 2804 10ce 51       		.byte	0x51
 2805 10cf 28       		.uleb128 0x28
 2806 10d0 01       		.uleb128 0x1
 2807 10d1 50       		.byte	0x50
 2808 10d2 03       		.uleb128 0x3
 2809 10d3 F3       		.byte	0xf3
 2810 10d4 01       		.uleb128 0x1
 2811 10d5 50       		.byte	0x50
 2812 10d6 00       		.byte	0
 2813 10d7 00       		.byte	0
 2814 10d8 3C       		.uleb128 0x3c
 2815 10d9 79020000 		.4byte	.LASF133
 2816 10dd 01       		.byte	0x1
 2817 10de 9F01     		.2byte	0x19f
 2818 10e0 05010000 		.4byte	0x105
 2819 10e4 00000000 		.4byte	.LFB242
 2820 10e8 36000000 		.4byte	.LFE242-.LFB242
 2821 10ec 01       		.uleb128 0x1
 2822 10ed 9C       		.byte	0x9c
 2823 10ee 4D110000 		.4byte	0x114d
 2824 10f2 3D       		.uleb128 0x3d
 2825 10f3 6D627000 		.ascii	"mbp\000"
 2826 10f7 01       		.byte	0x1
 2827 10f8 9F01     		.2byte	0x19f
 2828 10fa 61080000 		.4byte	0x861
 2829 10fe A7050000 		.4byte	.LLST41
 2830 1102 3F       		.uleb128 0x3f
 2831 1103 D5020000 		.4byte	.LASF124
 2832 1107 01       		.byte	0x1
 2833 1108 9F01     		.2byte	0x19f
 2834 110a 69070000 		.4byte	0x769
 2835 110e EE050000 		.4byte	.LLST42
 2836 1112 26       		.uleb128 0x26
 2837 1113 39040000 		.4byte	.LASF120
 2838 1117 4D110000 		.4byte	0x114d
 2839 111b 3E       		.uleb128 0x3e
 2840 111c A6070000 		.4byte	0x7a6
 2841 1120 06000000 		.4byte	.LBB124
 2842 1124 48000000 		.4byte	.Ldebug_ranges0+0x48
 2843 1128 01       		.byte	0x1
 2844 1129 A701     		.2byte	0x1a7
 2845 112b 39110000 		.4byte	0x1139
 2846 112f 31       		.uleb128 0x31
 2847 1130 B2070000 		.4byte	0x7b2
 2848 1134 1A060000 		.4byte	.LLST43
 2849 1138 00       		.byte	0
 2850 1139 34       		.uleb128 0x34
ARM GAS  /var/folders/m4/4md61f0s1_g0rzfghffqnxvr0000gn/T//ccEcnULI.s 			page 51


 2851 113a 2C000000 		.4byte	.LVL63
 2852 113e A2110000 		.4byte	0x11a2
 2853 1142 28       		.uleb128 0x28
 2854 1143 01       		.uleb128 0x1
 2855 1144 50       		.byte	0x50
 2856 1145 05       		.uleb128 0x5
 2857 1146 F3       		.byte	0xf3
 2858 1147 01       		.uleb128 0x1
 2859 1148 50       		.byte	0x50
 2860 1149 23       		.byte	0x23
 2861 114a 1C       		.uleb128 0x1c
 2862 114b 00       		.byte	0
 2863 114c 00       		.byte	0
 2864 114d 13       		.uleb128 0x13
 2865 114e 2F090000 		.4byte	0x92f
 2866 1152 41       		.uleb128 0x41
 2867 1153 E9030000 		.4byte	.LASF134
 2868 1157 0F       		.byte	0xf
 2869 1158 FA06     		.2byte	0x6fa
 2870 115a 5E110000 		.4byte	0x115e
 2871 115e 14       		.uleb128 0x14
 2872 115f A2000000 		.4byte	0xa2
 2873 1163 42       		.uleb128 0x42
 2874 1164 636800   		.ascii	"ch\000"
 2875 1167 08       		.byte	0x8
 2876 1168 0902     		.2byte	0x209
 2877 116a F8030000 		.4byte	0x3f8
 2878 116e 43       		.uleb128 0x43
 2879 116f F2010000 		.4byte	.LASF135
 2880 1173 03       		.byte	0x3
 2881 1174 5B       		.byte	0x5b
 2882 1175 84110000 		.4byte	0x1184
 2883 1179 0C       		.uleb128 0xc
 2884 117a BD070000 		.4byte	0x7bd
 2885 117e 0C       		.uleb128 0xc
 2886 117f 1B010000 		.4byte	0x11b
 2887 1183 00       		.byte	0
 2888 1184 43       		.uleb128 0x43
 2889 1185 BC060000 		.4byte	.LASF136
 2890 1189 03       		.byte	0x3
 2891 118a 5D       		.byte	0x5d
 2892 118b 9A110000 		.4byte	0x119a
 2893 118f 0C       		.uleb128 0xc
 2894 1190 BD070000 		.4byte	0x7bd
 2895 1194 0C       		.uleb128 0xc
 2896 1195 1B010000 		.4byte	0x11b
 2897 1199 00       		.byte	0
 2898 119a 44       		.uleb128 0x44
 2899 119b AE010000 		.4byte	.LASF143
 2900 119f 08       		.byte	0x8
 2901 11a0 1702     		.2byte	0x217
 2902 11a2 43       		.uleb128 0x43
 2903 11a3 48000000 		.4byte	.LASF137
 2904 11a7 03       		.byte	0x3
 2905 11a8 63       		.byte	0x63
 2906 11a9 B3110000 		.4byte	0x11b3
 2907 11ad 0C       		.uleb128 0xc
ARM GAS  /var/folders/m4/4md61f0s1_g0rzfghffqnxvr0000gn/T//ccEcnULI.s 			page 52


 2908 11ae BD070000 		.4byte	0x7bd
 2909 11b2 00       		.byte	0
 2910 11b3 45       		.uleb128 0x45
 2911 11b4 C9040000 		.4byte	.LASF138
 2912 11b8 03       		.byte	0x3
 2913 11b9 61       		.byte	0x61
 2914 11ba 05010000 		.4byte	0x105
 2915 11be 0C       		.uleb128 0xc
 2916 11bf BD070000 		.4byte	0x7bd
 2917 11c3 0C       		.uleb128 0xc
 2918 11c4 26010000 		.4byte	0x126
 2919 11c8 00       		.byte	0
 2920 11c9 00       		.byte	0
 2921              		.section	.debug_abbrev,"",%progbits
 2922              	.Ldebug_abbrev0:
 2923 0000 01       		.uleb128 0x1
 2924 0001 11       		.uleb128 0x11
 2925 0002 01       		.byte	0x1
 2926 0003 25       		.uleb128 0x25
 2927 0004 0E       		.uleb128 0xe
 2928 0005 13       		.uleb128 0x13
 2929 0006 0B       		.uleb128 0xb
 2930 0007 03       		.uleb128 0x3
 2931 0008 0E       		.uleb128 0xe
 2932 0009 1B       		.uleb128 0x1b
 2933 000a 0E       		.uleb128 0xe
 2934 000b 55       		.uleb128 0x55
 2935 000c 17       		.uleb128 0x17
 2936 000d 11       		.uleb128 0x11
 2937 000e 01       		.uleb128 0x1
 2938 000f 10       		.uleb128 0x10
 2939 0010 17       		.uleb128 0x17
 2940 0011 00       		.byte	0
 2941 0012 00       		.byte	0
 2942 0013 02       		.uleb128 0x2
 2943 0014 24       		.uleb128 0x24
 2944 0015 00       		.byte	0
 2945 0016 0B       		.uleb128 0xb
 2946 0017 0B       		.uleb128 0xb
 2947 0018 3E       		.uleb128 0x3e
 2948 0019 0B       		.uleb128 0xb
 2949 001a 03       		.uleb128 0x3
 2950 001b 08       		.uleb128 0x8
 2951 001c 00       		.byte	0
 2952 001d 00       		.byte	0
 2953 001e 03       		.uleb128 0x3
 2954 001f 24       		.uleb128 0x24
 2955 0020 00       		.byte	0
 2956 0021 0B       		.uleb128 0xb
 2957 0022 0B       		.uleb128 0xb
 2958 0023 3E       		.uleb128 0x3e
 2959 0024 0B       		.uleb128 0xb
 2960 0025 03       		.uleb128 0x3
 2961 0026 0E       		.uleb128 0xe
 2962 0027 00       		.byte	0
 2963 0028 00       		.byte	0
 2964 0029 04       		.uleb128 0x4
ARM GAS  /var/folders/m4/4md61f0s1_g0rzfghffqnxvr0000gn/T//ccEcnULI.s 			page 53


 2965 002a 16       		.uleb128 0x16
 2966 002b 00       		.byte	0
 2967 002c 03       		.uleb128 0x3
 2968 002d 0E       		.uleb128 0xe
 2969 002e 3A       		.uleb128 0x3a
 2970 002f 0B       		.uleb128 0xb
 2971 0030 3B       		.uleb128 0x3b
 2972 0031 0B       		.uleb128 0xb
 2973 0032 49       		.uleb128 0x49
 2974 0033 13       		.uleb128 0x13
 2975 0034 00       		.byte	0
 2976 0035 00       		.byte	0
 2977 0036 05       		.uleb128 0x5
 2978 0037 13       		.uleb128 0x13
 2979 0038 01       		.byte	0x1
 2980 0039 03       		.uleb128 0x3
 2981 003a 0E       		.uleb128 0xe
 2982 003b 0B       		.uleb128 0xb
 2983 003c 0B       		.uleb128 0xb
 2984 003d 3A       		.uleb128 0x3a
 2985 003e 0B       		.uleb128 0xb
 2986 003f 3B       		.uleb128 0x3b
 2987 0040 0B       		.uleb128 0xb
 2988 0041 01       		.uleb128 0x1
 2989 0042 13       		.uleb128 0x13
 2990 0043 00       		.byte	0
 2991 0044 00       		.byte	0
 2992 0045 06       		.uleb128 0x6
 2993 0046 0D       		.uleb128 0xd
 2994 0047 00       		.byte	0
 2995 0048 03       		.uleb128 0x3
 2996 0049 0E       		.uleb128 0xe
 2997 004a 3A       		.uleb128 0x3a
 2998 004b 0B       		.uleb128 0xb
 2999 004c 3B       		.uleb128 0x3b
 3000 004d 0B       		.uleb128 0xb
 3001 004e 49       		.uleb128 0x49
 3002 004f 13       		.uleb128 0x13
 3003 0050 38       		.uleb128 0x38
 3004 0051 0B       		.uleb128 0xb
 3005 0052 00       		.byte	0
 3006 0053 00       		.byte	0
 3007 0054 07       		.uleb128 0x7
 3008 0055 0D       		.uleb128 0xd
 3009 0056 00       		.byte	0
 3010 0057 03       		.uleb128 0x3
 3011 0058 08       		.uleb128 0x8
 3012 0059 3A       		.uleb128 0x3a
 3013 005a 0B       		.uleb128 0xb
 3014 005b 3B       		.uleb128 0x3b
 3015 005c 05       		.uleb128 0x5
 3016 005d 49       		.uleb128 0x49
 3017 005e 13       		.uleb128 0x13
 3018 005f 38       		.uleb128 0x38
 3019 0060 0B       		.uleb128 0xb
 3020 0061 00       		.byte	0
 3021 0062 00       		.byte	0
ARM GAS  /var/folders/m4/4md61f0s1_g0rzfghffqnxvr0000gn/T//ccEcnULI.s 			page 54


 3022 0063 08       		.uleb128 0x8
 3023 0064 0D       		.uleb128 0xd
 3024 0065 00       		.byte	0
 3025 0066 03       		.uleb128 0x3
 3026 0067 0E       		.uleb128 0xe
 3027 0068 3A       		.uleb128 0x3a
 3028 0069 0B       		.uleb128 0xb
 3029 006a 3B       		.uleb128 0x3b
 3030 006b 05       		.uleb128 0x5
 3031 006c 49       		.uleb128 0x49
 3032 006d 13       		.uleb128 0x13
 3033 006e 38       		.uleb128 0x38
 3034 006f 0B       		.uleb128 0xb
 3035 0070 00       		.byte	0
 3036 0071 00       		.byte	0
 3037 0072 09       		.uleb128 0x9
 3038 0073 0F       		.uleb128 0xf
 3039 0074 00       		.byte	0
 3040 0075 0B       		.uleb128 0xb
 3041 0076 0B       		.uleb128 0xb
 3042 0077 49       		.uleb128 0x49
 3043 0078 13       		.uleb128 0x13
 3044 0079 00       		.byte	0
 3045 007a 00       		.byte	0
 3046 007b 0A       		.uleb128 0xa
 3047 007c 13       		.uleb128 0x13
 3048 007d 01       		.byte	0x1
 3049 007e 03       		.uleb128 0x3
 3050 007f 0E       		.uleb128 0xe
 3051 0080 0B       		.uleb128 0xb
 3052 0081 0B       		.uleb128 0xb
 3053 0082 3A       		.uleb128 0x3a
 3054 0083 0B       		.uleb128 0xb
 3055 0084 3B       		.uleb128 0x3b
 3056 0085 05       		.uleb128 0x5
 3057 0086 01       		.uleb128 0x1
 3058 0087 13       		.uleb128 0x13
 3059 0088 00       		.byte	0
 3060 0089 00       		.byte	0
 3061 008a 0B       		.uleb128 0xb
 3062 008b 15       		.uleb128 0x15
 3063 008c 01       		.byte	0x1
 3064 008d 27       		.uleb128 0x27
 3065 008e 19       		.uleb128 0x19
 3066 008f 01       		.uleb128 0x1
 3067 0090 13       		.uleb128 0x13
 3068 0091 00       		.byte	0
 3069 0092 00       		.byte	0
 3070 0093 0C       		.uleb128 0xc
 3071 0094 05       		.uleb128 0x5
 3072 0095 00       		.byte	0
 3073 0096 49       		.uleb128 0x49
 3074 0097 13       		.uleb128 0x13
 3075 0098 00       		.byte	0
 3076 0099 00       		.byte	0
 3077 009a 0D       		.uleb128 0xd
 3078 009b 0F       		.uleb128 0xf
ARM GAS  /var/folders/m4/4md61f0s1_g0rzfghffqnxvr0000gn/T//ccEcnULI.s 			page 55


 3079 009c 00       		.byte	0
 3080 009d 0B       		.uleb128 0xb
 3081 009e 0B       		.uleb128 0xb
 3082 009f 00       		.byte	0
 3083 00a0 00       		.byte	0
 3084 00a1 0E       		.uleb128 0xe
 3085 00a2 13       		.uleb128 0x13
 3086 00a3 01       		.byte	0x1
 3087 00a4 03       		.uleb128 0x3
 3088 00a5 0E       		.uleb128 0xe
 3089 00a6 0B       		.uleb128 0xb
 3090 00a7 05       		.uleb128 0x5
 3091 00a8 3A       		.uleb128 0x3a
 3092 00a9 0B       		.uleb128 0xb
 3093 00aa 3B       		.uleb128 0x3b
 3094 00ab 05       		.uleb128 0x5
 3095 00ac 01       		.uleb128 0x1
 3096 00ad 13       		.uleb128 0x13
 3097 00ae 00       		.byte	0
 3098 00af 00       		.byte	0
 3099 00b0 0F       		.uleb128 0xf
 3100 00b1 0D       		.uleb128 0xd
 3101 00b2 00       		.byte	0
 3102 00b3 03       		.uleb128 0x3
 3103 00b4 08       		.uleb128 0x8
 3104 00b5 3A       		.uleb128 0x3a
 3105 00b6 0B       		.uleb128 0xb
 3106 00b7 3B       		.uleb128 0x3b
 3107 00b8 0B       		.uleb128 0xb
 3108 00b9 49       		.uleb128 0x49
 3109 00ba 13       		.uleb128 0x13
 3110 00bb 38       		.uleb128 0x38
 3111 00bc 0B       		.uleb128 0xb
 3112 00bd 00       		.byte	0
 3113 00be 00       		.byte	0
 3114 00bf 10       		.uleb128 0x10
 3115 00c0 13       		.uleb128 0x13
 3116 00c1 01       		.byte	0x1
 3117 00c2 0B       		.uleb128 0xb
 3118 00c3 0B       		.uleb128 0xb
 3119 00c4 3A       		.uleb128 0x3a
 3120 00c5 0B       		.uleb128 0xb
 3121 00c6 3B       		.uleb128 0x3b
 3122 00c7 0B       		.uleb128 0xb
 3123 00c8 01       		.uleb128 0x1
 3124 00c9 13       		.uleb128 0x13
 3125 00ca 00       		.byte	0
 3126 00cb 00       		.byte	0
 3127 00cc 11       		.uleb128 0x11
 3128 00cd 17       		.uleb128 0x17
 3129 00ce 01       		.byte	0x1
 3130 00cf 0B       		.uleb128 0xb
 3131 00d0 0B       		.uleb128 0xb
 3132 00d1 3A       		.uleb128 0x3a
 3133 00d2 0B       		.uleb128 0xb
 3134 00d3 3B       		.uleb128 0x3b
 3135 00d4 0B       		.uleb128 0xb
ARM GAS  /var/folders/m4/4md61f0s1_g0rzfghffqnxvr0000gn/T//ccEcnULI.s 			page 56


 3136 00d5 01       		.uleb128 0x1
 3137 00d6 13       		.uleb128 0x13
 3138 00d7 00       		.byte	0
 3139 00d8 00       		.byte	0
 3140 00d9 12       		.uleb128 0x12
 3141 00da 0D       		.uleb128 0xd
 3142 00db 00       		.byte	0
 3143 00dc 03       		.uleb128 0x3
 3144 00dd 0E       		.uleb128 0xe
 3145 00de 3A       		.uleb128 0x3a
 3146 00df 0B       		.uleb128 0xb
 3147 00e0 3B       		.uleb128 0x3b
 3148 00e1 05       		.uleb128 0x5
 3149 00e2 49       		.uleb128 0x49
 3150 00e3 13       		.uleb128 0x13
 3151 00e4 00       		.byte	0
 3152 00e5 00       		.byte	0
 3153 00e6 13       		.uleb128 0x13
 3154 00e7 26       		.uleb128 0x26
 3155 00e8 00       		.byte	0
 3156 00e9 49       		.uleb128 0x49
 3157 00ea 13       		.uleb128 0x13
 3158 00eb 00       		.byte	0
 3159 00ec 00       		.byte	0
 3160 00ed 14       		.uleb128 0x14
 3161 00ee 35       		.uleb128 0x35
 3162 00ef 00       		.byte	0
 3163 00f0 49       		.uleb128 0x49
 3164 00f1 13       		.uleb128 0x13
 3165 00f2 00       		.byte	0
 3166 00f3 00       		.byte	0
 3167 00f4 15       		.uleb128 0x15
 3168 00f5 01       		.uleb128 0x1
 3169 00f6 01       		.byte	0x1
 3170 00f7 49       		.uleb128 0x49
 3171 00f8 13       		.uleb128 0x13
 3172 00f9 01       		.uleb128 0x1
 3173 00fa 13       		.uleb128 0x13
 3174 00fb 00       		.byte	0
 3175 00fc 00       		.byte	0
 3176 00fd 16       		.uleb128 0x16
 3177 00fe 21       		.uleb128 0x21
 3178 00ff 00       		.byte	0
 3179 0100 49       		.uleb128 0x49
 3180 0101 13       		.uleb128 0x13
 3181 0102 2F       		.uleb128 0x2f
 3182 0103 0B       		.uleb128 0xb
 3183 0104 00       		.byte	0
 3184 0105 00       		.byte	0
 3185 0106 17       		.uleb128 0x17
 3186 0107 2E       		.uleb128 0x2e
 3187 0108 01       		.byte	0x1
 3188 0109 03       		.uleb128 0x3
 3189 010a 0E       		.uleb128 0xe
 3190 010b 3A       		.uleb128 0x3a
 3191 010c 0B       		.uleb128 0xb
 3192 010d 3B       		.uleb128 0x3b
ARM GAS  /var/folders/m4/4md61f0s1_g0rzfghffqnxvr0000gn/T//ccEcnULI.s 			page 57


 3193 010e 05       		.uleb128 0x5
 3194 010f 27       		.uleb128 0x27
 3195 0110 19       		.uleb128 0x19
 3196 0111 20       		.uleb128 0x20
 3197 0112 0B       		.uleb128 0xb
 3198 0113 01       		.uleb128 0x1
 3199 0114 13       		.uleb128 0x13
 3200 0115 00       		.byte	0
 3201 0116 00       		.byte	0
 3202 0117 18       		.uleb128 0x18
 3203 0118 05       		.uleb128 0x5
 3204 0119 00       		.byte	0
 3205 011a 03       		.uleb128 0x3
 3206 011b 0E       		.uleb128 0xe
 3207 011c 3A       		.uleb128 0x3a
 3208 011d 0B       		.uleb128 0xb
 3209 011e 3B       		.uleb128 0x3b
 3210 011f 05       		.uleb128 0x5
 3211 0120 49       		.uleb128 0x49
 3212 0121 13       		.uleb128 0x13
 3213 0122 00       		.byte	0
 3214 0123 00       		.byte	0
 3215 0124 19       		.uleb128 0x19
 3216 0125 2E       		.uleb128 0x2e
 3217 0126 00       		.byte	0
 3218 0127 03       		.uleb128 0x3
 3219 0128 0E       		.uleb128 0xe
 3220 0129 3A       		.uleb128 0x3a
 3221 012a 0B       		.uleb128 0xb
 3222 012b 3B       		.uleb128 0x3b
 3223 012c 05       		.uleb128 0x5
 3224 012d 27       		.uleb128 0x27
 3225 012e 19       		.uleb128 0x19
 3226 012f 20       		.uleb128 0x20
 3227 0130 0B       		.uleb128 0xb
 3228 0131 00       		.byte	0
 3229 0132 00       		.byte	0
 3230 0133 1A       		.uleb128 0x1a
 3231 0134 2E       		.uleb128 0x2e
 3232 0135 01       		.byte	0x1
 3233 0136 03       		.uleb128 0x3
 3234 0137 0E       		.uleb128 0xe
 3235 0138 3A       		.uleb128 0x3a
 3236 0139 0B       		.uleb128 0xb
 3237 013a 3B       		.uleb128 0x3b
 3238 013b 0B       		.uleb128 0xb
 3239 013c 27       		.uleb128 0x27
 3240 013d 19       		.uleb128 0x19
 3241 013e 20       		.uleb128 0x20
 3242 013f 0B       		.uleb128 0xb
 3243 0140 01       		.uleb128 0x1
 3244 0141 13       		.uleb128 0x13
 3245 0142 00       		.byte	0
 3246 0143 00       		.byte	0
 3247 0144 1B       		.uleb128 0x1b
 3248 0145 05       		.uleb128 0x5
 3249 0146 00       		.byte	0
ARM GAS  /var/folders/m4/4md61f0s1_g0rzfghffqnxvr0000gn/T//ccEcnULI.s 			page 58


 3250 0147 03       		.uleb128 0x3
 3251 0148 08       		.uleb128 0x8
 3252 0149 3A       		.uleb128 0x3a
 3253 014a 0B       		.uleb128 0xb
 3254 014b 3B       		.uleb128 0x3b
 3255 014c 0B       		.uleb128 0xb
 3256 014d 49       		.uleb128 0x49
 3257 014e 13       		.uleb128 0x13
 3258 014f 00       		.byte	0
 3259 0150 00       		.byte	0
 3260 0151 1C       		.uleb128 0x1c
 3261 0152 2E       		.uleb128 0x2e
 3262 0153 01       		.byte	0x1
 3263 0154 03       		.uleb128 0x3
 3264 0155 0E       		.uleb128 0xe
 3265 0156 3A       		.uleb128 0x3a
 3266 0157 0B       		.uleb128 0xb
 3267 0158 3B       		.uleb128 0x3b
 3268 0159 0B       		.uleb128 0xb
 3269 015a 27       		.uleb128 0x27
 3270 015b 19       		.uleb128 0x19
 3271 015c 49       		.uleb128 0x49
 3272 015d 13       		.uleb128 0x13
 3273 015e 20       		.uleb128 0x20
 3274 015f 0B       		.uleb128 0xb
 3275 0160 01       		.uleb128 0x1
 3276 0161 13       		.uleb128 0x13
 3277 0162 00       		.byte	0
 3278 0163 00       		.byte	0
 3279 0164 1D       		.uleb128 0x1d
 3280 0165 34       		.uleb128 0x34
 3281 0166 00       		.byte	0
 3282 0167 03       		.uleb128 0x3
 3283 0168 0E       		.uleb128 0xe
 3284 0169 49       		.uleb128 0x49
 3285 016a 13       		.uleb128 0x13
 3286 016b 34       		.uleb128 0x34
 3287 016c 19       		.uleb128 0x19
 3288 016d 1C       		.uleb128 0x1c
 3289 016e 0E       		.uleb128 0xe
 3290 016f 00       		.byte	0
 3291 0170 00       		.byte	0
 3292 0171 1E       		.uleb128 0x1e
 3293 0172 2E       		.uleb128 0x2e
 3294 0173 01       		.byte	0x1
 3295 0174 3F       		.uleb128 0x3f
 3296 0175 19       		.uleb128 0x19
 3297 0176 03       		.uleb128 0x3
 3298 0177 0E       		.uleb128 0xe
 3299 0178 3A       		.uleb128 0x3a
 3300 0179 0B       		.uleb128 0xb
 3301 017a 3B       		.uleb128 0x3b
 3302 017b 0B       		.uleb128 0xb
 3303 017c 27       		.uleb128 0x27
 3304 017d 19       		.uleb128 0x19
 3305 017e 49       		.uleb128 0x49
 3306 017f 13       		.uleb128 0x13
ARM GAS  /var/folders/m4/4md61f0s1_g0rzfghffqnxvr0000gn/T//ccEcnULI.s 			page 59


 3307 0180 20       		.uleb128 0x20
 3308 0181 0B       		.uleb128 0xb
 3309 0182 01       		.uleb128 0x1
 3310 0183 13       		.uleb128 0x13
 3311 0184 00       		.byte	0
 3312 0185 00       		.byte	0
 3313 0186 1F       		.uleb128 0x1f
 3314 0187 05       		.uleb128 0x5
 3315 0188 00       		.byte	0
 3316 0189 03       		.uleb128 0x3
 3317 018a 0E       		.uleb128 0xe
 3318 018b 3A       		.uleb128 0x3a
 3319 018c 0B       		.uleb128 0xb
 3320 018d 3B       		.uleb128 0x3b
 3321 018e 0B       		.uleb128 0xb
 3322 018f 49       		.uleb128 0x49
 3323 0190 13       		.uleb128 0x13
 3324 0191 00       		.byte	0
 3325 0192 00       		.byte	0
 3326 0193 20       		.uleb128 0x20
 3327 0194 34       		.uleb128 0x34
 3328 0195 00       		.byte	0
 3329 0196 03       		.uleb128 0x3
 3330 0197 0E       		.uleb128 0xe
 3331 0198 3A       		.uleb128 0x3a
 3332 0199 0B       		.uleb128 0xb
 3333 019a 3B       		.uleb128 0x3b
 3334 019b 0B       		.uleb128 0xb
 3335 019c 49       		.uleb128 0x49
 3336 019d 13       		.uleb128 0x13
 3337 019e 00       		.byte	0
 3338 019f 00       		.byte	0
 3339 01a0 21       		.uleb128 0x21
 3340 01a1 2E       		.uleb128 0x2e
 3341 01a2 01       		.byte	0x1
 3342 01a3 3F       		.uleb128 0x3f
 3343 01a4 19       		.uleb128 0x19
 3344 01a5 03       		.uleb128 0x3
 3345 01a6 0E       		.uleb128 0xe
 3346 01a7 3A       		.uleb128 0x3a
 3347 01a8 0B       		.uleb128 0xb
 3348 01a9 3B       		.uleb128 0x3b
 3349 01aa 05       		.uleb128 0x5
 3350 01ab 27       		.uleb128 0x27
 3351 01ac 19       		.uleb128 0x19
 3352 01ad 49       		.uleb128 0x49
 3353 01ae 13       		.uleb128 0x13
 3354 01af 20       		.uleb128 0x20
 3355 01b0 0B       		.uleb128 0xb
 3356 01b1 01       		.uleb128 0x1
 3357 01b2 13       		.uleb128 0x13
 3358 01b3 00       		.byte	0
 3359 01b4 00       		.byte	0
 3360 01b5 22       		.uleb128 0x22
 3361 01b6 05       		.uleb128 0x5
 3362 01b7 00       		.byte	0
 3363 01b8 03       		.uleb128 0x3
ARM GAS  /var/folders/m4/4md61f0s1_g0rzfghffqnxvr0000gn/T//ccEcnULI.s 			page 60


 3364 01b9 08       		.uleb128 0x8
 3365 01ba 3A       		.uleb128 0x3a
 3366 01bb 0B       		.uleb128 0xb
 3367 01bc 3B       		.uleb128 0x3b
 3368 01bd 05       		.uleb128 0x5
 3369 01be 49       		.uleb128 0x49
 3370 01bf 13       		.uleb128 0x13
 3371 01c0 00       		.byte	0
 3372 01c1 00       		.byte	0
 3373 01c2 23       		.uleb128 0x23
 3374 01c3 34       		.uleb128 0x34
 3375 01c4 00       		.byte	0
 3376 01c5 03       		.uleb128 0x3
 3377 01c6 0E       		.uleb128 0xe
 3378 01c7 3A       		.uleb128 0x3a
 3379 01c8 0B       		.uleb128 0xb
 3380 01c9 3B       		.uleb128 0x3b
 3381 01ca 05       		.uleb128 0x5
 3382 01cb 49       		.uleb128 0x49
 3383 01cc 13       		.uleb128 0x13
 3384 01cd 00       		.byte	0
 3385 01ce 00       		.byte	0
 3386 01cf 24       		.uleb128 0x24
 3387 01d0 2E       		.uleb128 0x2e
 3388 01d1 01       		.byte	0x1
 3389 01d2 3F       		.uleb128 0x3f
 3390 01d3 19       		.uleb128 0x19
 3391 01d4 03       		.uleb128 0x3
 3392 01d5 0E       		.uleb128 0xe
 3393 01d6 3A       		.uleb128 0x3a
 3394 01d7 0B       		.uleb128 0xb
 3395 01d8 3B       		.uleb128 0x3b
 3396 01d9 0B       		.uleb128 0xb
 3397 01da 27       		.uleb128 0x27
 3398 01db 19       		.uleb128 0x19
 3399 01dc 11       		.uleb128 0x11
 3400 01dd 01       		.uleb128 0x1
 3401 01de 12       		.uleb128 0x12
 3402 01df 06       		.uleb128 0x6
 3403 01e0 40       		.uleb128 0x40
 3404 01e1 18       		.uleb128 0x18
 3405 01e2 9742     		.uleb128 0x2117
 3406 01e4 19       		.uleb128 0x19
 3407 01e5 01       		.uleb128 0x1
 3408 01e6 13       		.uleb128 0x13
 3409 01e7 00       		.byte	0
 3410 01e8 00       		.byte	0
 3411 01e9 25       		.uleb128 0x25
 3412 01ea 05       		.uleb128 0x5
 3413 01eb 00       		.byte	0
 3414 01ec 03       		.uleb128 0x3
 3415 01ed 08       		.uleb128 0x8
 3416 01ee 3A       		.uleb128 0x3a
 3417 01ef 0B       		.uleb128 0xb
 3418 01f0 3B       		.uleb128 0x3b
 3419 01f1 0B       		.uleb128 0xb
 3420 01f2 49       		.uleb128 0x49
ARM GAS  /var/folders/m4/4md61f0s1_g0rzfghffqnxvr0000gn/T//ccEcnULI.s 			page 61


 3421 01f3 13       		.uleb128 0x13
 3422 01f4 02       		.uleb128 0x2
 3423 01f5 17       		.uleb128 0x17
 3424 01f6 00       		.byte	0
 3425 01f7 00       		.byte	0
 3426 01f8 26       		.uleb128 0x26
 3427 01f9 34       		.uleb128 0x34
 3428 01fa 00       		.byte	0
 3429 01fb 03       		.uleb128 0x3
 3430 01fc 0E       		.uleb128 0xe
 3431 01fd 49       		.uleb128 0x49
 3432 01fe 13       		.uleb128 0x13
 3433 01ff 34       		.uleb128 0x34
 3434 0200 19       		.uleb128 0x19
 3435 0201 00       		.byte	0
 3436 0202 00       		.byte	0
 3437 0203 27       		.uleb128 0x27
 3438 0204 898201   		.uleb128 0x4109
 3439 0207 01       		.byte	0x1
 3440 0208 11       		.uleb128 0x11
 3441 0209 01       		.uleb128 0x1
 3442 020a 31       		.uleb128 0x31
 3443 020b 13       		.uleb128 0x13
 3444 020c 01       		.uleb128 0x1
 3445 020d 13       		.uleb128 0x13
 3446 020e 00       		.byte	0
 3447 020f 00       		.byte	0
 3448 0210 28       		.uleb128 0x28
 3449 0211 8A8201   		.uleb128 0x410a
 3450 0214 00       		.byte	0
 3451 0215 02       		.uleb128 0x2
 3452 0216 18       		.uleb128 0x18
 3453 0217 9142     		.uleb128 0x2111
 3454 0219 18       		.uleb128 0x18
 3455 021a 00       		.byte	0
 3456 021b 00       		.byte	0
 3457 021c 29       		.uleb128 0x29
 3458 021d 898201   		.uleb128 0x4109
 3459 0220 01       		.byte	0x1
 3460 0221 11       		.uleb128 0x11
 3461 0222 01       		.uleb128 0x1
 3462 0223 9542     		.uleb128 0x2115
 3463 0225 19       		.uleb128 0x19
 3464 0226 31       		.uleb128 0x31
 3465 0227 13       		.uleb128 0x13
 3466 0228 00       		.byte	0
 3467 0229 00       		.byte	0
 3468 022a 2A       		.uleb128 0x2a
 3469 022b 1D       		.uleb128 0x1d
 3470 022c 01       		.byte	0x1
 3471 022d 31       		.uleb128 0x31
 3472 022e 13       		.uleb128 0x13
 3473 022f 11       		.uleb128 0x11
 3474 0230 01       		.uleb128 0x1
 3475 0231 12       		.uleb128 0x12
 3476 0232 06       		.uleb128 0x6
 3477 0233 58       		.uleb128 0x58
ARM GAS  /var/folders/m4/4md61f0s1_g0rzfghffqnxvr0000gn/T//ccEcnULI.s 			page 62


 3478 0234 0B       		.uleb128 0xb
 3479 0235 59       		.uleb128 0x59
 3480 0236 0B       		.uleb128 0xb
 3481 0237 01       		.uleb128 0x1
 3482 0238 13       		.uleb128 0x13
 3483 0239 00       		.byte	0
 3484 023a 00       		.byte	0
 3485 023b 2B       		.uleb128 0x2b
 3486 023c 1D       		.uleb128 0x1d
 3487 023d 01       		.byte	0x1
 3488 023e 31       		.uleb128 0x31
 3489 023f 13       		.uleb128 0x13
 3490 0240 11       		.uleb128 0x11
 3491 0241 01       		.uleb128 0x1
 3492 0242 12       		.uleb128 0x12
 3493 0243 06       		.uleb128 0x6
 3494 0244 58       		.uleb128 0x58
 3495 0245 0B       		.uleb128 0xb
 3496 0246 59       		.uleb128 0x59
 3497 0247 05       		.uleb128 0x5
 3498 0248 00       		.byte	0
 3499 0249 00       		.byte	0
 3500 024a 2C       		.uleb128 0x2c
 3501 024b 05       		.uleb128 0x5
 3502 024c 00       		.byte	0
 3503 024d 31       		.uleb128 0x31
 3504 024e 13       		.uleb128 0x13
 3505 024f 1C       		.uleb128 0x1c
 3506 0250 0B       		.uleb128 0xb
 3507 0251 00       		.byte	0
 3508 0252 00       		.byte	0
 3509 0253 2D       		.uleb128 0x2d
 3510 0254 0B       		.uleb128 0xb
 3511 0255 01       		.byte	0x1
 3512 0256 11       		.uleb128 0x11
 3513 0257 01       		.uleb128 0x1
 3514 0258 12       		.uleb128 0x12
 3515 0259 06       		.uleb128 0x6
 3516 025a 00       		.byte	0
 3517 025b 00       		.byte	0
 3518 025c 2E       		.uleb128 0x2e
 3519 025d 34       		.uleb128 0x34
 3520 025e 00       		.byte	0
 3521 025f 31       		.uleb128 0x31
 3522 0260 13       		.uleb128 0x13
 3523 0261 00       		.byte	0
 3524 0262 00       		.byte	0
 3525 0263 2F       		.uleb128 0x2f
 3526 0264 898201   		.uleb128 0x4109
 3527 0267 00       		.byte	0
 3528 0268 11       		.uleb128 0x11
 3529 0269 01       		.uleb128 0x1
 3530 026a 31       		.uleb128 0x31
 3531 026b 13       		.uleb128 0x13
 3532 026c 00       		.byte	0
 3533 026d 00       		.byte	0
 3534 026e 30       		.uleb128 0x30
ARM GAS  /var/folders/m4/4md61f0s1_g0rzfghffqnxvr0000gn/T//ccEcnULI.s 			page 63


 3535 026f 2E       		.uleb128 0x2e
 3536 0270 01       		.byte	0x1
 3537 0271 31       		.uleb128 0x31
 3538 0272 13       		.uleb128 0x13
 3539 0273 11       		.uleb128 0x11
 3540 0274 01       		.uleb128 0x1
 3541 0275 12       		.uleb128 0x12
 3542 0276 06       		.uleb128 0x6
 3543 0277 40       		.uleb128 0x40
 3544 0278 18       		.uleb128 0x18
 3545 0279 9742     		.uleb128 0x2117
 3546 027b 19       		.uleb128 0x19
 3547 027c 01       		.uleb128 0x1
 3548 027d 13       		.uleb128 0x13
 3549 027e 00       		.byte	0
 3550 027f 00       		.byte	0
 3551 0280 31       		.uleb128 0x31
 3552 0281 05       		.uleb128 0x5
 3553 0282 00       		.byte	0
 3554 0283 31       		.uleb128 0x31
 3555 0284 13       		.uleb128 0x13
 3556 0285 02       		.uleb128 0x2
 3557 0286 17       		.uleb128 0x17
 3558 0287 00       		.byte	0
 3559 0288 00       		.byte	0
 3560 0289 32       		.uleb128 0x32
 3561 028a 34       		.uleb128 0x34
 3562 028b 00       		.byte	0
 3563 028c 31       		.uleb128 0x31
 3564 028d 13       		.uleb128 0x13
 3565 028e 02       		.uleb128 0x2
 3566 028f 17       		.uleb128 0x17
 3567 0290 00       		.byte	0
 3568 0291 00       		.byte	0
 3569 0292 33       		.uleb128 0x33
 3570 0293 0B       		.uleb128 0xb
 3571 0294 01       		.byte	0x1
 3572 0295 11       		.uleb128 0x11
 3573 0296 01       		.uleb128 0x1
 3574 0297 12       		.uleb128 0x12
 3575 0298 06       		.uleb128 0x6
 3576 0299 01       		.uleb128 0x1
 3577 029a 13       		.uleb128 0x13
 3578 029b 00       		.byte	0
 3579 029c 00       		.byte	0
 3580 029d 34       		.uleb128 0x34
 3581 029e 898201   		.uleb128 0x4109
 3582 02a1 01       		.byte	0x1
 3583 02a2 11       		.uleb128 0x11
 3584 02a3 01       		.uleb128 0x1
 3585 02a4 31       		.uleb128 0x31
 3586 02a5 13       		.uleb128 0x13
 3587 02a6 00       		.byte	0
 3588 02a7 00       		.byte	0
 3589 02a8 35       		.uleb128 0x35
 3590 02a9 2E       		.uleb128 0x2e
 3591 02aa 01       		.byte	0x1
ARM GAS  /var/folders/m4/4md61f0s1_g0rzfghffqnxvr0000gn/T//ccEcnULI.s 			page 64


 3592 02ab 3F       		.uleb128 0x3f
 3593 02ac 19       		.uleb128 0x19
 3594 02ad 03       		.uleb128 0x3
 3595 02ae 0E       		.uleb128 0xe
 3596 02af 3A       		.uleb128 0x3a
 3597 02b0 0B       		.uleb128 0xb
 3598 02b1 3B       		.uleb128 0x3b
 3599 02b2 0B       		.uleb128 0xb
 3600 02b3 27       		.uleb128 0x27
 3601 02b4 19       		.uleb128 0x19
 3602 02b5 49       		.uleb128 0x49
 3603 02b6 13       		.uleb128 0x13
 3604 02b7 11       		.uleb128 0x11
 3605 02b8 01       		.uleb128 0x1
 3606 02b9 12       		.uleb128 0x12
 3607 02ba 06       		.uleb128 0x6
 3608 02bb 40       		.uleb128 0x40
 3609 02bc 18       		.uleb128 0x18
 3610 02bd 9742     		.uleb128 0x2117
 3611 02bf 19       		.uleb128 0x19
 3612 02c0 01       		.uleb128 0x1
 3613 02c1 13       		.uleb128 0x13
 3614 02c2 00       		.byte	0
 3615 02c3 00       		.byte	0
 3616 02c4 36       		.uleb128 0x36
 3617 02c5 05       		.uleb128 0x5
 3618 02c6 00       		.byte	0
 3619 02c7 03       		.uleb128 0x3
 3620 02c8 0E       		.uleb128 0xe
 3621 02c9 3A       		.uleb128 0x3a
 3622 02ca 0B       		.uleb128 0xb
 3623 02cb 3B       		.uleb128 0x3b
 3624 02cc 0B       		.uleb128 0xb
 3625 02cd 49       		.uleb128 0x49
 3626 02ce 13       		.uleb128 0x13
 3627 02cf 02       		.uleb128 0x2
 3628 02d0 17       		.uleb128 0x17
 3629 02d1 00       		.byte	0
 3630 02d2 00       		.byte	0
 3631 02d3 37       		.uleb128 0x37
 3632 02d4 34       		.uleb128 0x34
 3633 02d5 00       		.byte	0
 3634 02d6 03       		.uleb128 0x3
 3635 02d7 0E       		.uleb128 0xe
 3636 02d8 3A       		.uleb128 0x3a
 3637 02d9 0B       		.uleb128 0xb
 3638 02da 3B       		.uleb128 0x3b
 3639 02db 0B       		.uleb128 0xb
 3640 02dc 49       		.uleb128 0x49
 3641 02dd 13       		.uleb128 0x13
 3642 02de 02       		.uleb128 0x2
 3643 02df 18       		.uleb128 0x18
 3644 02e0 00       		.byte	0
 3645 02e1 00       		.byte	0
 3646 02e2 38       		.uleb128 0x38
 3647 02e3 1D       		.uleb128 0x1d
 3648 02e4 01       		.byte	0x1
ARM GAS  /var/folders/m4/4md61f0s1_g0rzfghffqnxvr0000gn/T//ccEcnULI.s 			page 65


 3649 02e5 31       		.uleb128 0x31
 3650 02e6 13       		.uleb128 0x13
 3651 02e7 52       		.uleb128 0x52
 3652 02e8 01       		.uleb128 0x1
 3653 02e9 55       		.uleb128 0x55
 3654 02ea 17       		.uleb128 0x17
 3655 02eb 58       		.uleb128 0x58
 3656 02ec 0B       		.uleb128 0xb
 3657 02ed 59       		.uleb128 0x59
 3658 02ee 0B       		.uleb128 0xb
 3659 02ef 01       		.uleb128 0x1
 3660 02f0 13       		.uleb128 0x13
 3661 02f1 00       		.byte	0
 3662 02f2 00       		.byte	0
 3663 02f3 39       		.uleb128 0x39
 3664 02f4 0B       		.uleb128 0xb
 3665 02f5 01       		.byte	0x1
 3666 02f6 55       		.uleb128 0x55
 3667 02f7 17       		.uleb128 0x17
 3668 02f8 01       		.uleb128 0x1
 3669 02f9 13       		.uleb128 0x13
 3670 02fa 00       		.byte	0
 3671 02fb 00       		.byte	0
 3672 02fc 3A       		.uleb128 0x3a
 3673 02fd 0B       		.uleb128 0xb
 3674 02fe 01       		.byte	0x1
 3675 02ff 55       		.uleb128 0x55
 3676 0300 17       		.uleb128 0x17
 3677 0301 00       		.byte	0
 3678 0302 00       		.byte	0
 3679 0303 3B       		.uleb128 0x3b
 3680 0304 1D       		.uleb128 0x1d
 3681 0305 01       		.byte	0x1
 3682 0306 31       		.uleb128 0x31
 3683 0307 13       		.uleb128 0x13
 3684 0308 11       		.uleb128 0x11
 3685 0309 01       		.uleb128 0x1
 3686 030a 12       		.uleb128 0x12
 3687 030b 06       		.uleb128 0x6
 3688 030c 58       		.uleb128 0x58
 3689 030d 0B       		.uleb128 0xb
 3690 030e 59       		.uleb128 0x59
 3691 030f 05       		.uleb128 0x5
 3692 0310 01       		.uleb128 0x1
 3693 0311 13       		.uleb128 0x13
 3694 0312 00       		.byte	0
 3695 0313 00       		.byte	0
 3696 0314 3C       		.uleb128 0x3c
 3697 0315 2E       		.uleb128 0x2e
 3698 0316 01       		.byte	0x1
 3699 0317 3F       		.uleb128 0x3f
 3700 0318 19       		.uleb128 0x19
 3701 0319 03       		.uleb128 0x3
 3702 031a 0E       		.uleb128 0xe
 3703 031b 3A       		.uleb128 0x3a
 3704 031c 0B       		.uleb128 0xb
 3705 031d 3B       		.uleb128 0x3b
ARM GAS  /var/folders/m4/4md61f0s1_g0rzfghffqnxvr0000gn/T//ccEcnULI.s 			page 66


 3706 031e 05       		.uleb128 0x5
 3707 031f 27       		.uleb128 0x27
 3708 0320 19       		.uleb128 0x19
 3709 0321 49       		.uleb128 0x49
 3710 0322 13       		.uleb128 0x13
 3711 0323 11       		.uleb128 0x11
 3712 0324 01       		.uleb128 0x1
 3713 0325 12       		.uleb128 0x12
 3714 0326 06       		.uleb128 0x6
 3715 0327 40       		.uleb128 0x40
 3716 0328 18       		.uleb128 0x18
 3717 0329 9742     		.uleb128 0x2117
 3718 032b 19       		.uleb128 0x19
 3719 032c 01       		.uleb128 0x1
 3720 032d 13       		.uleb128 0x13
 3721 032e 00       		.byte	0
 3722 032f 00       		.byte	0
 3723 0330 3D       		.uleb128 0x3d
 3724 0331 05       		.uleb128 0x5
 3725 0332 00       		.byte	0
 3726 0333 03       		.uleb128 0x3
 3727 0334 08       		.uleb128 0x8
 3728 0335 3A       		.uleb128 0x3a
 3729 0336 0B       		.uleb128 0xb
 3730 0337 3B       		.uleb128 0x3b
 3731 0338 05       		.uleb128 0x5
 3732 0339 49       		.uleb128 0x49
 3733 033a 13       		.uleb128 0x13
 3734 033b 02       		.uleb128 0x2
 3735 033c 17       		.uleb128 0x17
 3736 033d 00       		.byte	0
 3737 033e 00       		.byte	0
 3738 033f 3E       		.uleb128 0x3e
 3739 0340 1D       		.uleb128 0x1d
 3740 0341 01       		.byte	0x1
 3741 0342 31       		.uleb128 0x31
 3742 0343 13       		.uleb128 0x13
 3743 0344 52       		.uleb128 0x52
 3744 0345 01       		.uleb128 0x1
 3745 0346 55       		.uleb128 0x55
 3746 0347 17       		.uleb128 0x17
 3747 0348 58       		.uleb128 0x58
 3748 0349 0B       		.uleb128 0xb
 3749 034a 59       		.uleb128 0x59
 3750 034b 05       		.uleb128 0x5
 3751 034c 01       		.uleb128 0x1
 3752 034d 13       		.uleb128 0x13
 3753 034e 00       		.byte	0
 3754 034f 00       		.byte	0
 3755 0350 3F       		.uleb128 0x3f
 3756 0351 05       		.uleb128 0x5
 3757 0352 00       		.byte	0
 3758 0353 03       		.uleb128 0x3
 3759 0354 0E       		.uleb128 0xe
 3760 0355 3A       		.uleb128 0x3a
 3761 0356 0B       		.uleb128 0xb
 3762 0357 3B       		.uleb128 0x3b
ARM GAS  /var/folders/m4/4md61f0s1_g0rzfghffqnxvr0000gn/T//ccEcnULI.s 			page 67


 3763 0358 05       		.uleb128 0x5
 3764 0359 49       		.uleb128 0x49
 3765 035a 13       		.uleb128 0x13
 3766 035b 02       		.uleb128 0x2
 3767 035c 17       		.uleb128 0x17
 3768 035d 00       		.byte	0
 3769 035e 00       		.byte	0
 3770 035f 40       		.uleb128 0x40
 3771 0360 34       		.uleb128 0x34
 3772 0361 00       		.byte	0
 3773 0362 03       		.uleb128 0x3
 3774 0363 0E       		.uleb128 0xe
 3775 0364 3A       		.uleb128 0x3a
 3776 0365 0B       		.uleb128 0xb
 3777 0366 3B       		.uleb128 0x3b
 3778 0367 05       		.uleb128 0x5
 3779 0368 49       		.uleb128 0x49
 3780 0369 13       		.uleb128 0x13
 3781 036a 02       		.uleb128 0x2
 3782 036b 18       		.uleb128 0x18
 3783 036c 00       		.byte	0
 3784 036d 00       		.byte	0
 3785 036e 41       		.uleb128 0x41
 3786 036f 34       		.uleb128 0x34
 3787 0370 00       		.byte	0
 3788 0371 03       		.uleb128 0x3
 3789 0372 0E       		.uleb128 0xe
 3790 0373 3A       		.uleb128 0x3a
 3791 0374 0B       		.uleb128 0xb
 3792 0375 3B       		.uleb128 0x3b
 3793 0376 05       		.uleb128 0x5
 3794 0377 49       		.uleb128 0x49
 3795 0378 13       		.uleb128 0x13
 3796 0379 3F       		.uleb128 0x3f
 3797 037a 19       		.uleb128 0x19
 3798 037b 3C       		.uleb128 0x3c
 3799 037c 19       		.uleb128 0x19
 3800 037d 00       		.byte	0
 3801 037e 00       		.byte	0
 3802 037f 42       		.uleb128 0x42
 3803 0380 34       		.uleb128 0x34
 3804 0381 00       		.byte	0
 3805 0382 03       		.uleb128 0x3
 3806 0383 08       		.uleb128 0x8
 3807 0384 3A       		.uleb128 0x3a
 3808 0385 0B       		.uleb128 0xb
 3809 0386 3B       		.uleb128 0x3b
 3810 0387 05       		.uleb128 0x5
 3811 0388 49       		.uleb128 0x49
 3812 0389 13       		.uleb128 0x13
 3813 038a 3F       		.uleb128 0x3f
 3814 038b 19       		.uleb128 0x19
 3815 038c 3C       		.uleb128 0x3c
 3816 038d 19       		.uleb128 0x19
 3817 038e 00       		.byte	0
 3818 038f 00       		.byte	0
 3819 0390 43       		.uleb128 0x43
ARM GAS  /var/folders/m4/4md61f0s1_g0rzfghffqnxvr0000gn/T//ccEcnULI.s 			page 68


 3820 0391 2E       		.uleb128 0x2e
 3821 0392 01       		.byte	0x1
 3822 0393 3F       		.uleb128 0x3f
 3823 0394 19       		.uleb128 0x19
 3824 0395 03       		.uleb128 0x3
 3825 0396 0E       		.uleb128 0xe
 3826 0397 3A       		.uleb128 0x3a
 3827 0398 0B       		.uleb128 0xb
 3828 0399 3B       		.uleb128 0x3b
 3829 039a 0B       		.uleb128 0xb
 3830 039b 27       		.uleb128 0x27
 3831 039c 19       		.uleb128 0x19
 3832 039d 3C       		.uleb128 0x3c
 3833 039e 19       		.uleb128 0x19
 3834 039f 01       		.uleb128 0x1
 3835 03a0 13       		.uleb128 0x13
 3836 03a1 00       		.byte	0
 3837 03a2 00       		.byte	0
 3838 03a3 44       		.uleb128 0x44
 3839 03a4 2E       		.uleb128 0x2e
 3840 03a5 00       		.byte	0
 3841 03a6 3F       		.uleb128 0x3f
 3842 03a7 19       		.uleb128 0x19
 3843 03a8 03       		.uleb128 0x3
 3844 03a9 0E       		.uleb128 0xe
 3845 03aa 3A       		.uleb128 0x3a
 3846 03ab 0B       		.uleb128 0xb
 3847 03ac 3B       		.uleb128 0x3b
 3848 03ad 05       		.uleb128 0x5
 3849 03ae 27       		.uleb128 0x27
 3850 03af 19       		.uleb128 0x19
 3851 03b0 3C       		.uleb128 0x3c
 3852 03b1 19       		.uleb128 0x19
 3853 03b2 00       		.byte	0
 3854 03b3 00       		.byte	0
 3855 03b4 45       		.uleb128 0x45
 3856 03b5 2E       		.uleb128 0x2e
 3857 03b6 01       		.byte	0x1
 3858 03b7 3F       		.uleb128 0x3f
 3859 03b8 19       		.uleb128 0x19
 3860 03b9 03       		.uleb128 0x3
 3861 03ba 0E       		.uleb128 0xe
 3862 03bb 3A       		.uleb128 0x3a
 3863 03bc 0B       		.uleb128 0xb
 3864 03bd 3B       		.uleb128 0x3b
 3865 03be 0B       		.uleb128 0xb
 3866 03bf 27       		.uleb128 0x27
 3867 03c0 19       		.uleb128 0x19
 3868 03c1 49       		.uleb128 0x49
 3869 03c2 13       		.uleb128 0x13
 3870 03c3 3C       		.uleb128 0x3c
 3871 03c4 19       		.uleb128 0x19
 3872 03c5 00       		.byte	0
 3873 03c6 00       		.byte	0
 3874 03c7 00       		.byte	0
 3875              		.section	.debug_loc,"",%progbits
 3876              	.Ldebug_loc0:
ARM GAS  /var/folders/m4/4md61f0s1_g0rzfghffqnxvr0000gn/T//ccEcnULI.s 			page 69


 3877              	.LLST0:
 3878 0000 00000000 		.4byte	.LVL0
 3879 0004 16000000 		.4byte	.LVL2
 3880 0008 0100     		.2byte	0x1
 3881 000a 50       		.byte	0x50
 3882 000b 16000000 		.4byte	.LVL2
 3883 000f 24000000 		.4byte	.LVL4
 3884 0013 0100     		.2byte	0x1
 3885 0015 54       		.byte	0x54
 3886 0016 24000000 		.4byte	.LVL4
 3887 001a 27000000 		.4byte	.LVL5-1
 3888 001e 0300     		.2byte	0x3
 3889 0020 70       		.byte	0x70
 3890 0021 70       		.sleb128 -16
 3891 0022 9F       		.byte	0x9f
 3892 0023 27000000 		.4byte	.LVL5-1
 3893 0027 28000000 		.4byte	.LFE231
 3894 002b 0400     		.2byte	0x4
 3895 002d F3       		.byte	0xf3
 3896 002e 01       		.uleb128 0x1
 3897 002f 50       		.byte	0x50
 3898 0030 9F       		.byte	0x9f
 3899 0031 00000000 		.4byte	0
 3900 0035 00000000 		.4byte	0
 3901              	.LLST1:
 3902 0039 00000000 		.4byte	.LVL0
 3903 003d 08000000 		.4byte	.LVL1
 3904 0041 0100     		.2byte	0x1
 3905 0043 51       		.byte	0x51
 3906 0044 08000000 		.4byte	.LVL1
 3907 0048 19000000 		.4byte	.LVL3-1
 3908 004c 0100     		.2byte	0x1
 3909 004e 53       		.byte	0x53
 3910 004f 19000000 		.4byte	.LVL3-1
 3911 0053 28000000 		.4byte	.LFE231
 3912 0057 0400     		.2byte	0x4
 3913 0059 F3       		.byte	0xf3
 3914 005a 01       		.uleb128 0x1
 3915 005b 51       		.byte	0x51
 3916 005c 9F       		.byte	0x9f
 3917 005d 00000000 		.4byte	0
 3918 0061 00000000 		.4byte	0
 3919              	.LLST2:
 3920 0065 00000000 		.4byte	.LVL0
 3921 0069 19000000 		.4byte	.LVL3-1
 3922 006d 0100     		.2byte	0x1
 3923 006f 52       		.byte	0x52
 3924 0070 19000000 		.4byte	.LVL3-1
 3925 0074 28000000 		.4byte	.LFE231
 3926 0078 0400     		.2byte	0x4
 3927 007a F3       		.byte	0xf3
 3928 007b 01       		.uleb128 0x1
 3929 007c 52       		.byte	0x52
 3930 007d 9F       		.byte	0x9f
 3931 007e 00000000 		.4byte	0
 3932 0082 00000000 		.4byte	0
 3933              	.LLST3:
ARM GAS  /var/folders/m4/4md61f0s1_g0rzfghffqnxvr0000gn/T//ccEcnULI.s 			page 70


 3934 0086 00000000 		.4byte	.LVL6
 3935 008a 06000000 		.4byte	.LVL7
 3936 008e 0100     		.2byte	0x1
 3937 0090 50       		.byte	0x50
 3938 0091 06000000 		.4byte	.LVL7
 3939 0095 20000000 		.4byte	.LVL9
 3940 0099 0100     		.2byte	0x1
 3941 009b 54       		.byte	0x54
 3942 009c 20000000 		.4byte	.LVL9
 3943 00a0 23000000 		.4byte	.LVL10-1
 3944 00a4 0300     		.2byte	0x3
 3945 00a6 70       		.byte	0x70
 3946 00a7 70       		.sleb128 -16
 3947 00a8 9F       		.byte	0x9f
 3948 00a9 23000000 		.4byte	.LVL10-1
 3949 00ad 24000000 		.4byte	.LFE233
 3950 00b1 0400     		.2byte	0x4
 3951 00b3 F3       		.byte	0xf3
 3952 00b4 01       		.uleb128 0x1
 3953 00b5 50       		.byte	0x50
 3954 00b6 9F       		.byte	0x9f
 3955 00b7 00000000 		.4byte	0
 3956 00bb 00000000 		.4byte	0
 3957              	.LLST4:
 3958 00bf 00000000 		.4byte	.LVL11
 3959 00c3 0B000000 		.4byte	.LVL12-1
 3960 00c7 0100     		.2byte	0x1
 3961 00c9 50       		.byte	0x50
 3962 00ca 0B000000 		.4byte	.LVL12-1
 3963 00ce 18000000 		.4byte	.LFE232
 3964 00d2 0400     		.2byte	0x4
 3965 00d4 F3       		.byte	0xf3
 3966 00d5 01       		.uleb128 0x1
 3967 00d6 50       		.byte	0x50
 3968 00d7 9F       		.byte	0x9f
 3969 00d8 00000000 		.4byte	0
 3970 00dc 00000000 		.4byte	0
 3971              	.LLST5:
 3972 00e0 00000000 		.4byte	.LVL14
 3973 00e4 08000000 		.4byte	.LVL15
 3974 00e8 0100     		.2byte	0x1
 3975 00ea 50       		.byte	0x50
 3976 00eb 08000000 		.4byte	.LVL15
 3977 00ef 36000000 		.4byte	.LFE235
 3978 00f3 0100     		.2byte	0x1
 3979 00f5 54       		.byte	0x54
 3980 00f6 00000000 		.4byte	0
 3981 00fa 00000000 		.4byte	0
 3982              	.LLST6:
 3983 00fe 00000000 		.4byte	.LVL14
 3984 0102 0A000000 		.4byte	.LVL16
 3985 0106 0100     		.2byte	0x1
 3986 0108 51       		.byte	0x51
 3987 0109 0A000000 		.4byte	.LVL16
 3988 010d 36000000 		.4byte	.LFE235
 3989 0111 0100     		.2byte	0x1
 3990 0113 56       		.byte	0x56
ARM GAS  /var/folders/m4/4md61f0s1_g0rzfghffqnxvr0000gn/T//ccEcnULI.s 			page 71


 3991 0114 00000000 		.4byte	0
 3992 0118 00000000 		.4byte	0
 3993              	.LLST7:
 3994 011c 00000000 		.4byte	.LVL14
 3995 0120 0D000000 		.4byte	.LVL17-1
 3996 0124 0100     		.2byte	0x1
 3997 0126 52       		.byte	0x52
 3998 0127 0D000000 		.4byte	.LVL17-1
 3999 012b 36000000 		.4byte	.LFE235
 4000 012f 0400     		.2byte	0x4
 4001 0131 F3       		.byte	0xf3
 4002 0132 01       		.uleb128 0x1
 4003 0133 52       		.byte	0x52
 4004 0134 9F       		.byte	0x9f
 4005 0135 00000000 		.4byte	0
 4006 0139 00000000 		.4byte	0
 4007              	.LLST8:
 4008 013d 0E000000 		.4byte	.LVL17
 4009 0141 26000000 		.4byte	.LVL19
 4010 0145 0100     		.2byte	0x1
 4011 0147 50       		.byte	0x50
 4012 0148 26000000 		.4byte	.LVL19
 4013 014c 36000000 		.4byte	.LFE235
 4014 0150 0100     		.2byte	0x1
 4015 0152 55       		.byte	0x55
 4016 0153 00000000 		.4byte	0
 4017 0157 00000000 		.4byte	0
 4018              	.LLST9:
 4019 015b 12000000 		.4byte	.LVL18
 4020 015f 32000000 		.4byte	.LVL21
 4021 0163 0400     		.2byte	0x4
 4022 0165 F3       		.byte	0xf3
 4023 0166 01       		.uleb128 0x1
 4024 0167 52       		.byte	0x52
 4025 0168 9F       		.byte	0x9f
 4026 0169 00000000 		.4byte	0
 4027 016d 00000000 		.4byte	0
 4028              	.LLST10:
 4029 0171 12000000 		.4byte	.LVL18
 4030 0175 32000000 		.4byte	.LVL21
 4031 0179 0100     		.2byte	0x1
 4032 017b 56       		.byte	0x56
 4033 017c 00000000 		.4byte	0
 4034 0180 00000000 		.4byte	0
 4035              	.LLST11:
 4036 0184 12000000 		.4byte	.LVL18
 4037 0188 32000000 		.4byte	.LVL21
 4038 018c 0100     		.2byte	0x1
 4039 018e 54       		.byte	0x54
 4040 018f 00000000 		.4byte	0
 4041 0193 00000000 		.4byte	0
 4042              	.LLST12:
 4043 0197 00000000 		.4byte	.LVL22
 4044 019b 0B000000 		.4byte	.LVL23-1
 4045 019f 0100     		.2byte	0x1
 4046 01a1 50       		.byte	0x50
 4047 01a2 0B000000 		.4byte	.LVL23-1
ARM GAS  /var/folders/m4/4md61f0s1_g0rzfghffqnxvr0000gn/T//ccEcnULI.s 			page 72


 4048 01a6 14000000 		.4byte	.LFE234
 4049 01aa 0400     		.2byte	0x4
 4050 01ac F3       		.byte	0xf3
 4051 01ad 01       		.uleb128 0x1
 4052 01ae 50       		.byte	0x50
 4053 01af 9F       		.byte	0x9f
 4054 01b0 00000000 		.4byte	0
 4055 01b4 00000000 		.4byte	0
 4056              	.LLST13:
 4057 01b8 00000000 		.4byte	.LVL22
 4058 01bc 0B000000 		.4byte	.LVL23-1
 4059 01c0 0100     		.2byte	0x1
 4060 01c2 51       		.byte	0x51
 4061 01c3 0B000000 		.4byte	.LVL23-1
 4062 01c7 14000000 		.4byte	.LFE234
 4063 01cb 0400     		.2byte	0x4
 4064 01cd F3       		.byte	0xf3
 4065 01ce 01       		.uleb128 0x1
 4066 01cf 51       		.byte	0x51
 4067 01d0 9F       		.byte	0x9f
 4068 01d1 00000000 		.4byte	0
 4069 01d5 00000000 		.4byte	0
 4070              	.LLST14:
 4071 01d9 00000000 		.4byte	.LVL22
 4072 01dd 0B000000 		.4byte	.LVL23-1
 4073 01e1 0100     		.2byte	0x1
 4074 01e3 52       		.byte	0x52
 4075 01e4 0B000000 		.4byte	.LVL23-1
 4076 01e8 14000000 		.4byte	.LFE234
 4077 01ec 0400     		.2byte	0x4
 4078 01ee F3       		.byte	0xf3
 4079 01ef 01       		.uleb128 0x1
 4080 01f0 52       		.byte	0x52
 4081 01f1 9F       		.byte	0x9f
 4082 01f2 00000000 		.4byte	0
 4083 01f6 00000000 		.4byte	0
 4084              	.LLST15:
 4085 01fa 00000000 		.4byte	.LVL24
 4086 01fe 20000000 		.4byte	.LVL27
 4087 0202 0100     		.2byte	0x1
 4088 0204 50       		.byte	0x50
 4089 0205 20000000 		.4byte	.LVL27
 4090 0209 29000000 		.4byte	.LVL28-1
 4091 020d 0300     		.2byte	0x3
 4092 020f 70       		.byte	0x70
 4093 0210 70       		.sleb128 -16
 4094 0211 9F       		.byte	0x9f
 4095 0212 29000000 		.4byte	.LVL28-1
 4096 0216 2E000000 		.4byte	.LVL29
 4097 021a 0400     		.2byte	0x4
 4098 021c F3       		.byte	0xf3
 4099 021d 01       		.uleb128 0x1
 4100 021e 50       		.byte	0x50
 4101 021f 9F       		.byte	0x9f
 4102 0220 2E000000 		.4byte	.LVL29
 4103 0224 32000000 		.4byte	.LVL30
 4104 0228 0100     		.2byte	0x1
ARM GAS  /var/folders/m4/4md61f0s1_g0rzfghffqnxvr0000gn/T//ccEcnULI.s 			page 73


 4105 022a 50       		.byte	0x50
 4106 022b 32000000 		.4byte	.LVL30
 4107 022f 34000000 		.4byte	.LFE236
 4108 0233 0400     		.2byte	0x4
 4109 0235 F3       		.byte	0xf3
 4110 0236 01       		.uleb128 0x1
 4111 0237 50       		.byte	0x50
 4112 0238 9F       		.byte	0x9f
 4113 0239 00000000 		.4byte	0
 4114 023d 00000000 		.4byte	0
 4115              	.LLST16:
 4116 0241 00000000 		.4byte	.LVL24
 4117 0245 29000000 		.4byte	.LVL28-1
 4118 0249 0100     		.2byte	0x1
 4119 024b 51       		.byte	0x51
 4120 024c 29000000 		.4byte	.LVL28-1
 4121 0250 2E000000 		.4byte	.LVL29
 4122 0254 0400     		.2byte	0x4
 4123 0256 F3       		.byte	0xf3
 4124 0257 01       		.uleb128 0x1
 4125 0258 51       		.byte	0x51
 4126 0259 9F       		.byte	0x9f
 4127 025a 2E000000 		.4byte	.LVL29
 4128 025e 34000000 		.4byte	.LFE236
 4129 0262 0100     		.2byte	0x1
 4130 0264 51       		.byte	0x51
 4131 0265 00000000 		.4byte	0
 4132 0269 00000000 		.4byte	0
 4133              	.LLST17:
 4134 026d 08000000 		.4byte	.LVL26
 4135 0271 20000000 		.4byte	.LVL27
 4136 0275 0300     		.2byte	0x3
 4137 0277 70       		.byte	0x70
 4138 0278 1C       		.sleb128 28
 4139 0279 9F       		.byte	0x9f
 4140 027a 20000000 		.4byte	.LVL27
 4141 027e 29000000 		.4byte	.LVL28-1
 4142 0282 0300     		.2byte	0x3
 4143 0284 70       		.byte	0x70
 4144 0285 0C       		.sleb128 12
 4145 0286 9F       		.byte	0x9f
 4146 0287 29000000 		.4byte	.LVL28-1
 4147 028b 2E000000 		.4byte	.LVL29
 4148 028f 0600     		.2byte	0x6
 4149 0291 F3       		.byte	0xf3
 4150 0292 01       		.uleb128 0x1
 4151 0293 50       		.byte	0x50
 4152 0294 23       		.byte	0x23
 4153 0295 1C       		.uleb128 0x1c
 4154 0296 9F       		.byte	0x9f
 4155 0297 00000000 		.4byte	0
 4156 029b 00000000 		.4byte	0
 4157              	.LLST18:
 4158 029f 00000000 		.4byte	.LVL31
 4159 02a3 08000000 		.4byte	.LVL32
 4160 02a7 0100     		.2byte	0x1
 4161 02a9 50       		.byte	0x50
ARM GAS  /var/folders/m4/4md61f0s1_g0rzfghffqnxvr0000gn/T//ccEcnULI.s 			page 74


 4162 02aa 08000000 		.4byte	.LVL32
 4163 02ae 38000000 		.4byte	.LFE238
 4164 02b2 0100     		.2byte	0x1
 4165 02b4 54       		.byte	0x54
 4166 02b5 00000000 		.4byte	0
 4167 02b9 00000000 		.4byte	0
 4168              	.LLST19:
 4169 02bd 00000000 		.4byte	.LVL31
 4170 02c1 0A000000 		.4byte	.LVL33
 4171 02c5 0100     		.2byte	0x1
 4172 02c7 51       		.byte	0x51
 4173 02c8 0A000000 		.4byte	.LVL33
 4174 02cc 38000000 		.4byte	.LFE238
 4175 02d0 0100     		.2byte	0x1
 4176 02d2 56       		.byte	0x56
 4177 02d3 00000000 		.4byte	0
 4178 02d7 00000000 		.4byte	0
 4179              	.LLST20:
 4180 02db 00000000 		.4byte	.LVL31
 4181 02df 0D000000 		.4byte	.LVL34-1
 4182 02e3 0100     		.2byte	0x1
 4183 02e5 52       		.byte	0x52
 4184 02e6 0D000000 		.4byte	.LVL34-1
 4185 02ea 38000000 		.4byte	.LFE238
 4186 02ee 0400     		.2byte	0x4
 4187 02f0 F3       		.byte	0xf3
 4188 02f1 01       		.uleb128 0x1
 4189 02f2 52       		.byte	0x52
 4190 02f3 9F       		.byte	0x9f
 4191 02f4 00000000 		.4byte	0
 4192 02f8 00000000 		.4byte	0
 4193              	.LLST21:
 4194 02fc 0E000000 		.4byte	.LVL34
 4195 0300 24000000 		.4byte	.LVL36
 4196 0304 0100     		.2byte	0x1
 4197 0306 50       		.byte	0x50
 4198 0307 24000000 		.4byte	.LVL36
 4199 030b 30000000 		.4byte	.LVL39
 4200 030f 0100     		.2byte	0x1
 4201 0311 55       		.byte	0x55
 4202 0312 30000000 		.4byte	.LVL39
 4203 0316 38000000 		.4byte	.LFE238
 4204 031a 0100     		.2byte	0x1
 4205 031c 50       		.byte	0x50
 4206 031d 00000000 		.4byte	0
 4207 0321 00000000 		.4byte	0
 4208              	.LLST22:
 4209 0325 12000000 		.4byte	.LVL35
 4210 0329 2C000000 		.4byte	.LVL38
 4211 032d 0400     		.2byte	0x4
 4212 032f F3       		.byte	0xf3
 4213 0330 01       		.uleb128 0x1
 4214 0331 52       		.byte	0x52
 4215 0332 9F       		.byte	0x9f
 4216 0333 30000000 		.4byte	.LVL39
 4217 0337 38000000 		.4byte	.LFE238
 4218 033b 0400     		.2byte	0x4
ARM GAS  /var/folders/m4/4md61f0s1_g0rzfghffqnxvr0000gn/T//ccEcnULI.s 			page 75


 4219 033d F3       		.byte	0xf3
 4220 033e 01       		.uleb128 0x1
 4221 033f 52       		.byte	0x52
 4222 0340 9F       		.byte	0x9f
 4223 0341 00000000 		.4byte	0
 4224 0345 00000000 		.4byte	0
 4225              	.LLST23:
 4226 0349 12000000 		.4byte	.LVL35
 4227 034d 2C000000 		.4byte	.LVL38
 4228 0351 0100     		.2byte	0x1
 4229 0353 56       		.byte	0x56
 4230 0354 30000000 		.4byte	.LVL39
 4231 0358 38000000 		.4byte	.LFE238
 4232 035c 0100     		.2byte	0x1
 4233 035e 56       		.byte	0x56
 4234 035f 00000000 		.4byte	0
 4235 0363 00000000 		.4byte	0
 4236              	.LLST24:
 4237 0367 12000000 		.4byte	.LVL35
 4238 036b 2C000000 		.4byte	.LVL38
 4239 036f 0100     		.2byte	0x1
 4240 0371 54       		.byte	0x54
 4241 0372 30000000 		.4byte	.LVL39
 4242 0376 38000000 		.4byte	.LFE238
 4243 037a 0100     		.2byte	0x1
 4244 037c 54       		.byte	0x54
 4245 037d 00000000 		.4byte	0
 4246 0381 00000000 		.4byte	0
 4247              	.LLST25:
 4248 0385 00000000 		.4byte	.LVL40
 4249 0389 0B000000 		.4byte	.LVL41-1
 4250 038d 0100     		.2byte	0x1
 4251 038f 50       		.byte	0x50
 4252 0390 0B000000 		.4byte	.LVL41-1
 4253 0394 14000000 		.4byte	.LFE237
 4254 0398 0400     		.2byte	0x4
 4255 039a F3       		.byte	0xf3
 4256 039b 01       		.uleb128 0x1
 4257 039c 50       		.byte	0x50
 4258 039d 9F       		.byte	0x9f
 4259 039e 00000000 		.4byte	0
 4260 03a2 00000000 		.4byte	0
 4261              	.LLST26:
 4262 03a6 00000000 		.4byte	.LVL40
 4263 03aa 0B000000 		.4byte	.LVL41-1
 4264 03ae 0100     		.2byte	0x1
 4265 03b0 51       		.byte	0x51
 4266 03b1 0B000000 		.4byte	.LVL41-1
 4267 03b5 14000000 		.4byte	.LFE237
 4268 03b9 0400     		.2byte	0x4
 4269 03bb F3       		.byte	0xf3
 4270 03bc 01       		.uleb128 0x1
 4271 03bd 51       		.byte	0x51
 4272 03be 9F       		.byte	0x9f
 4273 03bf 00000000 		.4byte	0
 4274 03c3 00000000 		.4byte	0
 4275              	.LLST27:
ARM GAS  /var/folders/m4/4md61f0s1_g0rzfghffqnxvr0000gn/T//ccEcnULI.s 			page 76


 4276 03c7 00000000 		.4byte	.LVL40
 4277 03cb 0B000000 		.4byte	.LVL41-1
 4278 03cf 0100     		.2byte	0x1
 4279 03d1 52       		.byte	0x52
 4280 03d2 0B000000 		.4byte	.LVL41-1
 4281 03d6 14000000 		.4byte	.LFE237
 4282 03da 0400     		.2byte	0x4
 4283 03dc F3       		.byte	0xf3
 4284 03dd 01       		.uleb128 0x1
 4285 03de 52       		.byte	0x52
 4286 03df 9F       		.byte	0x9f
 4287 03e0 00000000 		.4byte	0
 4288 03e4 00000000 		.4byte	0
 4289              	.LLST28:
 4290 03e8 00000000 		.4byte	.LVL42
 4291 03ec 22000000 		.4byte	.LVL45
 4292 03f0 0100     		.2byte	0x1
 4293 03f2 50       		.byte	0x50
 4294 03f3 22000000 		.4byte	.LVL45
 4295 03f7 25000000 		.4byte	.LVL46-1
 4296 03fb 0300     		.2byte	0x3
 4297 03fd 70       		.byte	0x70
 4298 03fe 70       		.sleb128 -16
 4299 03ff 9F       		.byte	0x9f
 4300 0400 25000000 		.4byte	.LVL46-1
 4301 0404 2A000000 		.4byte	.LVL47
 4302 0408 0400     		.2byte	0x4
 4303 040a F3       		.byte	0xf3
 4304 040b 01       		.uleb128 0x1
 4305 040c 50       		.byte	0x50
 4306 040d 9F       		.byte	0x9f
 4307 040e 2A000000 		.4byte	.LVL47
 4308 0412 2E000000 		.4byte	.LVL48
 4309 0416 0100     		.2byte	0x1
 4310 0418 50       		.byte	0x50
 4311 0419 2E000000 		.4byte	.LVL48
 4312 041d 30000000 		.4byte	.LFE239
 4313 0421 0400     		.2byte	0x4
 4314 0423 F3       		.byte	0xf3
 4315 0424 01       		.uleb128 0x1
 4316 0425 50       		.byte	0x50
 4317 0426 9F       		.byte	0x9f
 4318 0427 00000000 		.4byte	0
 4319 042b 00000000 		.4byte	0
 4320              	.LLST29:
 4321 042f 00000000 		.4byte	.LVL42
 4322 0433 25000000 		.4byte	.LVL46-1
 4323 0437 0100     		.2byte	0x1
 4324 0439 51       		.byte	0x51
 4325 043a 25000000 		.4byte	.LVL46-1
 4326 043e 2A000000 		.4byte	.LVL47
 4327 0442 0400     		.2byte	0x4
 4328 0444 F3       		.byte	0xf3
 4329 0445 01       		.uleb128 0x1
 4330 0446 51       		.byte	0x51
 4331 0447 9F       		.byte	0x9f
 4332 0448 2A000000 		.4byte	.LVL47
ARM GAS  /var/folders/m4/4md61f0s1_g0rzfghffqnxvr0000gn/T//ccEcnULI.s 			page 77


 4333 044c 30000000 		.4byte	.LFE239
 4334 0450 0100     		.2byte	0x1
 4335 0452 51       		.byte	0x51
 4336 0453 00000000 		.4byte	0
 4337 0457 00000000 		.4byte	0
 4338              	.LLST30:
 4339 045b 06000000 		.4byte	.LVL44
 4340 045f 22000000 		.4byte	.LVL45
 4341 0463 0300     		.2byte	0x3
 4342 0465 70       		.byte	0x70
 4343 0466 1C       		.sleb128 28
 4344 0467 9F       		.byte	0x9f
 4345 0468 22000000 		.4byte	.LVL45
 4346 046c 25000000 		.4byte	.LVL46-1
 4347 0470 0300     		.2byte	0x3
 4348 0472 70       		.byte	0x70
 4349 0473 0C       		.sleb128 12
 4350 0474 9F       		.byte	0x9f
 4351 0475 25000000 		.4byte	.LVL46-1
 4352 0479 2A000000 		.4byte	.LVL47
 4353 047d 0600     		.2byte	0x6
 4354 047f F3       		.byte	0xf3
 4355 0480 01       		.uleb128 0x1
 4356 0481 50       		.byte	0x50
 4357 0482 23       		.byte	0x23
 4358 0483 1C       		.uleb128 0x1c
 4359 0484 9F       		.byte	0x9f
 4360 0485 00000000 		.4byte	0
 4361 0489 00000000 		.4byte	0
 4362              	.LLST31:
 4363 048d 00000000 		.4byte	.LVL49
 4364 0491 08000000 		.4byte	.LVL50
 4365 0495 0100     		.2byte	0x1
 4366 0497 50       		.byte	0x50
 4367 0498 08000000 		.4byte	.LVL50
 4368 049c 38000000 		.4byte	.LFE241
 4369 04a0 0100     		.2byte	0x1
 4370 04a2 54       		.byte	0x54
 4371 04a3 00000000 		.4byte	0
 4372 04a7 00000000 		.4byte	0
 4373              	.LLST32:
 4374 04ab 00000000 		.4byte	.LVL49
 4375 04af 0A000000 		.4byte	.LVL51
 4376 04b3 0100     		.2byte	0x1
 4377 04b5 51       		.byte	0x51
 4378 04b6 0A000000 		.4byte	.LVL51
 4379 04ba 38000000 		.4byte	.LFE241
 4380 04be 0100     		.2byte	0x1
 4381 04c0 56       		.byte	0x56
 4382 04c1 00000000 		.4byte	0
 4383 04c5 00000000 		.4byte	0
 4384              	.LLST33:
 4385 04c9 00000000 		.4byte	.LVL49
 4386 04cd 0D000000 		.4byte	.LVL52-1
 4387 04d1 0100     		.2byte	0x1
 4388 04d3 52       		.byte	0x52
 4389 04d4 0D000000 		.4byte	.LVL52-1
ARM GAS  /var/folders/m4/4md61f0s1_g0rzfghffqnxvr0000gn/T//ccEcnULI.s 			page 78


 4390 04d8 38000000 		.4byte	.LFE241
 4391 04dc 0400     		.2byte	0x4
 4392 04de F3       		.byte	0xf3
 4393 04df 01       		.uleb128 0x1
 4394 04e0 52       		.byte	0x52
 4395 04e1 9F       		.byte	0x9f
 4396 04e2 00000000 		.4byte	0
 4397 04e6 00000000 		.4byte	0
 4398              	.LLST34:
 4399 04ea 0E000000 		.4byte	.LVL52
 4400 04ee 28000000 		.4byte	.LVL54
 4401 04f2 0100     		.2byte	0x1
 4402 04f4 50       		.byte	0x50
 4403 04f5 28000000 		.4byte	.LVL54
 4404 04f9 38000000 		.4byte	.LFE241
 4405 04fd 0100     		.2byte	0x1
 4406 04ff 55       		.byte	0x55
 4407 0500 00000000 		.4byte	0
 4408 0504 00000000 		.4byte	0
 4409              	.LLST35:
 4410 0508 12000000 		.4byte	.LVL53
 4411 050c 34000000 		.4byte	.LVL56
 4412 0510 0400     		.2byte	0x4
 4413 0512 F3       		.byte	0xf3
 4414 0513 01       		.uleb128 0x1
 4415 0514 52       		.byte	0x52
 4416 0515 9F       		.byte	0x9f
 4417 0516 00000000 		.4byte	0
 4418 051a 00000000 		.4byte	0
 4419              	.LLST36:
 4420 051e 12000000 		.4byte	.LVL53
 4421 0522 34000000 		.4byte	.LVL56
 4422 0526 0100     		.2byte	0x1
 4423 0528 56       		.byte	0x56
 4424 0529 00000000 		.4byte	0
 4425 052d 00000000 		.4byte	0
 4426              	.LLST37:
 4427 0531 12000000 		.4byte	.LVL53
 4428 0535 34000000 		.4byte	.LVL56
 4429 0539 0100     		.2byte	0x1
 4430 053b 54       		.byte	0x54
 4431 053c 00000000 		.4byte	0
 4432 0540 00000000 		.4byte	0
 4433              	.LLST38:
 4434 0544 00000000 		.4byte	.LVL57
 4435 0548 0B000000 		.4byte	.LVL58-1
 4436 054c 0100     		.2byte	0x1
 4437 054e 50       		.byte	0x50
 4438 054f 0B000000 		.4byte	.LVL58-1
 4439 0553 14000000 		.4byte	.LFE240
 4440 0557 0400     		.2byte	0x4
 4441 0559 F3       		.byte	0xf3
 4442 055a 01       		.uleb128 0x1
 4443 055b 50       		.byte	0x50
 4444 055c 9F       		.byte	0x9f
 4445 055d 00000000 		.4byte	0
 4446 0561 00000000 		.4byte	0
ARM GAS  /var/folders/m4/4md61f0s1_g0rzfghffqnxvr0000gn/T//ccEcnULI.s 			page 79


 4447              	.LLST39:
 4448 0565 00000000 		.4byte	.LVL57
 4449 0569 0B000000 		.4byte	.LVL58-1
 4450 056d 0100     		.2byte	0x1
 4451 056f 51       		.byte	0x51
 4452 0570 0B000000 		.4byte	.LVL58-1
 4453 0574 14000000 		.4byte	.LFE240
 4454 0578 0400     		.2byte	0x4
 4455 057a F3       		.byte	0xf3
 4456 057b 01       		.uleb128 0x1
 4457 057c 51       		.byte	0x51
 4458 057d 9F       		.byte	0x9f
 4459 057e 00000000 		.4byte	0
 4460 0582 00000000 		.4byte	0
 4461              	.LLST40:
 4462 0586 00000000 		.4byte	.LVL57
 4463 058a 0B000000 		.4byte	.LVL58-1
 4464 058e 0100     		.2byte	0x1
 4465 0590 52       		.byte	0x52
 4466 0591 0B000000 		.4byte	.LVL58-1
 4467 0595 14000000 		.4byte	.LFE240
 4468 0599 0400     		.2byte	0x4
 4469 059b F3       		.byte	0xf3
 4470 059c 01       		.uleb128 0x1
 4471 059d 52       		.byte	0x52
 4472 059e 9F       		.byte	0x9f
 4473 059f 00000000 		.4byte	0
 4474 05a3 00000000 		.4byte	0
 4475              	.LLST41:
 4476 05a7 00000000 		.4byte	.LVL59
 4477 05ab 22000000 		.4byte	.LVL62
 4478 05af 0100     		.2byte	0x1
 4479 05b1 50       		.byte	0x50
 4480 05b2 22000000 		.4byte	.LVL62
 4481 05b6 2B000000 		.4byte	.LVL63-1
 4482 05ba 0300     		.2byte	0x3
 4483 05bc 70       		.byte	0x70
 4484 05bd 64       		.sleb128 -28
 4485 05be 9F       		.byte	0x9f
 4486 05bf 2B000000 		.4byte	.LVL63-1
 4487 05c3 30000000 		.4byte	.LVL64
 4488 05c7 0400     		.2byte	0x4
 4489 05c9 F3       		.byte	0xf3
 4490 05ca 01       		.uleb128 0x1
 4491 05cb 50       		.byte	0x50
 4492 05cc 9F       		.byte	0x9f
 4493 05cd 30000000 		.4byte	.LVL64
 4494 05d1 34000000 		.4byte	.LVL65
 4495 05d5 0100     		.2byte	0x1
 4496 05d7 50       		.byte	0x50
 4497 05d8 34000000 		.4byte	.LVL65
 4498 05dc 36000000 		.4byte	.LFE242
 4499 05e0 0400     		.2byte	0x4
 4500 05e2 F3       		.byte	0xf3
 4501 05e3 01       		.uleb128 0x1
 4502 05e4 50       		.byte	0x50
 4503 05e5 9F       		.byte	0x9f
ARM GAS  /var/folders/m4/4md61f0s1_g0rzfghffqnxvr0000gn/T//ccEcnULI.s 			page 80


 4504 05e6 00000000 		.4byte	0
 4505 05ea 00000000 		.4byte	0
 4506              	.LLST42:
 4507 05ee 00000000 		.4byte	.LVL59
 4508 05f2 2B000000 		.4byte	.LVL63-1
 4509 05f6 0100     		.2byte	0x1
 4510 05f8 51       		.byte	0x51
 4511 05f9 2B000000 		.4byte	.LVL63-1
 4512 05fd 30000000 		.4byte	.LVL64
 4513 0601 0400     		.2byte	0x4
 4514 0603 F3       		.byte	0xf3
 4515 0604 01       		.uleb128 0x1
 4516 0605 51       		.byte	0x51
 4517 0606 9F       		.byte	0x9f
 4518 0607 30000000 		.4byte	.LVL64
 4519 060b 36000000 		.4byte	.LFE242
 4520 060f 0100     		.2byte	0x1
 4521 0611 51       		.byte	0x51
 4522 0612 00000000 		.4byte	0
 4523 0616 00000000 		.4byte	0
 4524              	.LLST43:
 4525 061a 06000000 		.4byte	.LVL61
 4526 061e 22000000 		.4byte	.LVL62
 4527 0622 0300     		.2byte	0x3
 4528 0624 70       		.byte	0x70
 4529 0625 10       		.sleb128 16
 4530 0626 9F       		.byte	0x9f
 4531 0627 22000000 		.4byte	.LVL62
 4532 062b 2B000000 		.4byte	.LVL63-1
 4533 062f 0300     		.2byte	0x3
 4534 0631 70       		.byte	0x70
 4535 0632 74       		.sleb128 -12
 4536 0633 9F       		.byte	0x9f
 4537 0634 2B000000 		.4byte	.LVL63-1
 4538 0638 30000000 		.4byte	.LVL64
 4539 063c 0600     		.2byte	0x6
 4540 063e F3       		.byte	0xf3
 4541 063f 01       		.uleb128 0x1
 4542 0640 50       		.byte	0x50
 4543 0641 23       		.byte	0x23
 4544 0642 10       		.uleb128 0x10
 4545 0643 9F       		.byte	0x9f
 4546 0644 00000000 		.4byte	0
 4547 0648 00000000 		.4byte	0
 4548              		.section	.debug_aranges,"",%progbits
 4549 0000 74000000 		.4byte	0x74
 4550 0004 0200     		.2byte	0x2
 4551 0006 00000000 		.4byte	.Ldebug_info0
 4552 000a 04       		.byte	0x4
 4553 000b 00       		.byte	0
 4554 000c 0000     		.2byte	0
 4555 000e 0000     		.2byte	0
 4556 0010 00000000 		.4byte	.LFB231
 4557 0014 28000000 		.4byte	.LFE231-.LFB231
 4558 0018 00000000 		.4byte	.LFB233
 4559 001c 24000000 		.4byte	.LFE233-.LFB233
 4560 0020 00000000 		.4byte	.LFB232
ARM GAS  /var/folders/m4/4md61f0s1_g0rzfghffqnxvr0000gn/T//ccEcnULI.s 			page 81


 4561 0024 18000000 		.4byte	.LFE232-.LFB232
 4562 0028 00000000 		.4byte	.LFB235
 4563 002c 36000000 		.4byte	.LFE235-.LFB235
 4564 0030 00000000 		.4byte	.LFB234
 4565 0034 14000000 		.4byte	.LFE234-.LFB234
 4566 0038 00000000 		.4byte	.LFB236
 4567 003c 34000000 		.4byte	.LFE236-.LFB236
 4568 0040 00000000 		.4byte	.LFB238
 4569 0044 38000000 		.4byte	.LFE238-.LFB238
 4570 0048 00000000 		.4byte	.LFB237
 4571 004c 14000000 		.4byte	.LFE237-.LFB237
 4572 0050 00000000 		.4byte	.LFB239
 4573 0054 30000000 		.4byte	.LFE239-.LFB239
 4574 0058 00000000 		.4byte	.LFB241
 4575 005c 38000000 		.4byte	.LFE241-.LFB241
 4576 0060 00000000 		.4byte	.LFB240
 4577 0064 14000000 		.4byte	.LFE240-.LFB240
 4578 0068 00000000 		.4byte	.LFB242
 4579 006c 36000000 		.4byte	.LFE242-.LFB242
 4580 0070 00000000 		.4byte	0
 4581 0074 00000000 		.4byte	0
 4582              		.section	.debug_ranges,"",%progbits
 4583              	.Ldebug_ranges0:
 4584 0000 0E000000 		.4byte	.LBB88
 4585 0004 10000000 		.4byte	.LBE88
 4586 0008 12000000 		.4byte	.LBB91
 4587 000c 14000000 		.4byte	.LBE91
 4588 0010 00000000 		.4byte	0
 4589 0014 00000000 		.4byte	0
 4590 0018 12000000 		.4byte	.LBB94
 4591 001c 2C000000 		.4byte	.LBE94
 4592 0020 30000000 		.4byte	.LBB97
 4593 0024 38000000 		.4byte	.LBE97
 4594 0028 00000000 		.4byte	0
 4595 002c 00000000 		.4byte	0
 4596 0030 0E000000 		.4byte	.LBB107
 4597 0034 10000000 		.4byte	.LBE107
 4598 0038 12000000 		.4byte	.LBB110
 4599 003c 14000000 		.4byte	.LBE110
 4600 0040 00000000 		.4byte	0
 4601 0044 00000000 		.4byte	0
 4602 0048 06000000 		.4byte	.LBB124
 4603 004c 08000000 		.4byte	.LBE124
 4604 0050 0C000000 		.4byte	.LBB127
 4605 0054 0E000000 		.4byte	.LBE127
 4606 0058 00000000 		.4byte	0
 4607 005c 00000000 		.4byte	0
 4608 0060 00000000 		.4byte	.LFB231
 4609 0064 28000000 		.4byte	.LFE231
 4610 0068 00000000 		.4byte	.LFB233
 4611 006c 24000000 		.4byte	.LFE233
 4612 0070 00000000 		.4byte	.LFB232
 4613 0074 18000000 		.4byte	.LFE232
 4614 0078 00000000 		.4byte	.LFB235
 4615 007c 36000000 		.4byte	.LFE235
 4616 0080 00000000 		.4byte	.LFB234
 4617 0084 14000000 		.4byte	.LFE234
ARM GAS  /var/folders/m4/4md61f0s1_g0rzfghffqnxvr0000gn/T//ccEcnULI.s 			page 82


 4618 0088 00000000 		.4byte	.LFB236
 4619 008c 34000000 		.4byte	.LFE236
 4620 0090 00000000 		.4byte	.LFB238
 4621 0094 38000000 		.4byte	.LFE238
 4622 0098 00000000 		.4byte	.LFB237
 4623 009c 14000000 		.4byte	.LFE237
 4624 00a0 00000000 		.4byte	.LFB239
 4625 00a4 30000000 		.4byte	.LFE239
 4626 00a8 00000000 		.4byte	.LFB241
 4627 00ac 38000000 		.4byte	.LFE241
 4628 00b0 00000000 		.4byte	.LFB240
 4629 00b4 14000000 		.4byte	.LFE240
 4630 00b8 00000000 		.4byte	.LFB242
 4631 00bc 36000000 		.4byte	.LFE242
 4632 00c0 00000000 		.4byte	0
 4633 00c4 00000000 		.4byte	0
 4634              		.section	.debug_line,"",%progbits
 4635              	.Ldebug_line0:
 4636 0000 FA030000 		.section	.debug_str,"MS",%progbits,1
 4636      02002302 
 4636      00000201 
 4636      FB0E0D00 
 4636      01010101 
 4637              	.LASF141:
 4638 0000 2F557365 		.ascii	"/Users/raphael/Documents/pcb-quadrotor/code\000"
 4638      72732F72 
 4638      61706861 
 4638      656C2F44 
 4638      6F63756D 
 4639              	.LASF53:
 4640 002c 72656164 		.ascii	"ready_list_t\000"
 4640      795F6C69 
 4640      73745F74 
 4640      00
 4641              	.LASF125:
 4642 0039 63684D42 		.ascii	"chMBObjectInit\000"
 4642      4F626A65 
 4642      6374496E 
 4642      697400
 4643              	.LASF137:
 4644 0048 63685365 		.ascii	"chSemSignalI\000"
 4644      6D536967 
 4644      6E616C49 
 4644      00
 4645              	.LASF91:
 4646 0055 77747472 		.ascii	"wttrp\000"
 4646      7000
 4647              	.LASF88:
 4648 005b 7264796D 		.ascii	"rdymsg\000"
 4648      736700
 4649              	.LASF16:
 4650 0062 75696E74 		.ascii	"uint64_t\000"
 4650      36345F74 
 4650      00
 4651              	.LASF5:
 4652 006b 5F5F7569 		.ascii	"__uint8_t\000"
 4652      6E74385F 
ARM GAS  /var/folders/m4/4md61f0s1_g0rzfghffqnxvr0000gn/T//ccEcnULI.s 			page 83


 4652      7400
 4653              	.LASF129:
 4654 0075 63684D42 		.ascii	"chMBPostI\000"
 4654      506F7374 
 4654      4900
 4655              	.LASF85:
 4656 007f 706F7274 		.ascii	"port_intctx\000"
 4656      5F696E74 
 4656      63747800 
 4657              	.LASF72:
 4658 008b 73797374 		.ascii	"system_debug_t\000"
 4658      656D5F64 
 4658      65627567 
 4658      5F7400
 4659              	.LASF80:
 4660 009a 69646C65 		.ascii	"idle_thread_wa\000"
 4660      5F746872 
 4660      6561645F 
 4660      776100
 4661              	.LASF112:
 4662 00a9 706F7274 		.ascii	"port_lock\000"
 4662      5F6C6F63 
 4662      6B00
 4663              	.LASF131:
 4664 00b3 63684D42 		.ascii	"chMBPostAheadI\000"
 4664      506F7374 
 4664      41686561 
 4664      644900
 4665              	.LASF12:
 4666 00c2 6C6F6E67 		.ascii	"long long unsigned int\000"
 4666      206C6F6E 
 4666      6720756E 
 4666      7369676E 
 4666      65642069 
 4667              	.LASF89:
 4668 00d9 65786974 		.ascii	"exitcode\000"
 4668      636F6465 
 4668      00
 4669              	.LASF122:
 4670 00e2 63684D42 		.ascii	"chMBPostAheadS\000"
 4670      506F7374 
 4670      41686561 
 4670      645300
 4671              	.LASF69:
 4672 00f1 76697274 		.ascii	"virtual_timers_list_t\000"
 4672      75616C5F 
 4672      74696D65 
 4672      72735F6C 
 4672      6973745F 
 4673              	.LASF107:
 4674 0107 6D625F77 		.ascii	"mb_wrptr\000"
 4674      72707472 
 4674      00
 4675              	.LASF52:
 4676 0110 63685F74 		.ascii	"ch_threads_queue\000"
 4676      68726561 
 4676      64735F71 
ARM GAS  /var/folders/m4/4md61f0s1_g0rzfghffqnxvr0000gn/T//ccEcnULI.s 			page 84


 4676      75657565 
 4676      00
 4677              	.LASF30:
 4678 0121 705F7072 		.ascii	"p_prio\000"
 4678      696F00
 4679              	.LASF4:
 4680 0128 73686F72 		.ascii	"short unsigned int\000"
 4680      7420756E 
 4680      7369676E 
 4680      65642069 
 4680      6E7400
 4681              	.LASF10:
 4682 013b 6C6F6E67 		.ascii	"long long int\000"
 4682      206C6F6E 
 4682      6720696E 
 4682      7400
 4683              	.LASF1:
 4684 0149 7369676E 		.ascii	"signed char\000"
 4684      65642063 
 4684      68617200 
 4685              	.LASF46:
 4686 0155 705F6D70 		.ascii	"p_mpool\000"
 4686      6F6F6C00 
 4687              	.LASF99:
 4688 015d 6D5F7175 		.ascii	"m_queue\000"
 4688      65756500 
 4689              	.LASF78:
 4690 0165 76746C69 		.ascii	"vtlist\000"
 4690      737400
 4691              	.LASF113:
 4692 016c 706F7274 		.ascii	"port_unlock\000"
 4692      5F756E6C 
 4692      6F636B00 
 4693              	.LASF21:
 4694 0178 74736C69 		.ascii	"tslices_t\000"
 4694      6365735F 
 4694      7400
 4695              	.LASF76:
 4696 0182 63685F73 		.ascii	"ch_system\000"
 4696      79737465 
 4696      6D00
 4697              	.LASF7:
 4698 018c 6C6F6E67 		.ascii	"long int\000"
 4698      20696E74 
 4698      00
 4699              	.LASF19:
 4700 0195 74737461 		.ascii	"tstate_t\000"
 4700      74655F74 
 4700      00
 4701              	.LASF32:
 4702 019e 705F6E65 		.ascii	"p_newer\000"
 4702      77657200 
 4703              	.LASF96:
 4704 01a6 735F7175 		.ascii	"s_queue\000"
 4704      65756500 
 4705              	.LASF143:
 4706 01ae 63685363 		.ascii	"chSchRescheduleS\000"
ARM GAS  /var/folders/m4/4md61f0s1_g0rzfghffqnxvr0000gn/T//ccEcnULI.s 			page 85


 4706      68526573 
 4706      63686564 
 4706      756C6553 
 4706      00
 4707              	.LASF108:
 4708 01bf 6D625F72 		.ascii	"mb_rdptr\000"
 4708      64707472 
 4708      00
 4709              	.LASF82:
 4710 01c8 72656761 		.ascii	"regarm_t\000"
 4710      726D5F74 
 4710      00
 4711              	.LASF65:
 4712 01d1 76745F70 		.ascii	"vt_prev\000"
 4712      72657600 
 4713              	.LASF104:
 4714 01d9 6D757465 		.ascii	"mutex_t\000"
 4714      785F7400 
 4715              	.LASF116:
 4716 01e1 76616C75 		.ascii	"value\000"
 4716      6500
 4717              	.LASF8:
 4718 01e7 5F5F7569 		.ascii	"__uint32_t\000"
 4718      6E743332 
 4718      5F7400
 4719              	.LASF135:
 4720 01f2 63685365 		.ascii	"chSemObjectInit\000"
 4720      6D4F626A 
 4720      65637449 
 4720      6E697400 
 4721              	.LASF25:
 4722 0202 636E745F 		.ascii	"cnt_t\000"
 4722      7400
 4723              	.LASF0:
 4724 0208 756E7369 		.ascii	"unsigned int\000"
 4724      676E6564 
 4724      20696E74 
 4724      00
 4725              	.LASF64:
 4726 0215 76745F6E 		.ascii	"vt_next\000"
 4726      65787400 
 4727              	.LASF39:
 4728 021d 705F7469 		.ascii	"p_time\000"
 4728      6D6500
 4729              	.LASF92:
 4730 0224 77747365 		.ascii	"wtsemp\000"
 4730      6D7000
 4731              	.LASF66:
 4732 022b 76745F64 		.ascii	"vt_delta\000"
 4732      656C7461 
 4732      00
 4733              	.LASF41:
 4734 0234 705F6D73 		.ascii	"p_msgqueue\000"
 4734      67717565 
 4734      756500
 4735              	.LASF119:
 4736 023f 74696D65 		.ascii	"timeout\000"
ARM GAS  /var/folders/m4/4md61f0s1_g0rzfghffqnxvr0000gn/T//ccEcnULI.s 			page 86


 4736      6F757400 
 4737              	.LASF110:
 4738 0247 6D625F65 		.ascii	"mb_emptysem\000"
 4738      6D707479 
 4738      73656D00 
 4739              	.LASF97:
 4740 0253 735F636E 		.ascii	"s_cnt\000"
 4740      7400
 4741              	.LASF126:
 4742 0259 63684D42 		.ascii	"chMBResetI\000"
 4742      52657365 
 4742      744900
 4743              	.LASF49:
 4744 0264 63685F74 		.ascii	"ch_thread\000"
 4744      68726561 
 4744      6400
 4745              	.LASF79:
 4746 026e 6D61696E 		.ascii	"mainthread\000"
 4746      74687265 
 4746      616400
 4747              	.LASF133:
 4748 0279 63684D42 		.ascii	"chMBFetchI\000"
 4748      46657463 
 4748      684900
 4749              	.LASF23:
 4750 0284 6D73675F 		.ascii	"msg_t\000"
 4750      7400
 4751              	.LASF58:
 4752 028a 725F6E65 		.ascii	"r_newer\000"
 4752      77657200 
 4753              	.LASF75:
 4754 0292 63685F73 		.ascii	"ch_system_t\000"
 4754      79737465 
 4754      6D5F7400 
 4755              	.LASF123:
 4756 029e 63684D42 		.ascii	"chMBFetchS\000"
 4756      46657463 
 4756      685300
 4757              	.LASF18:
 4758 02a9 746D6F64 		.ascii	"tmode_t\000"
 4758      655F7400 
 4759              	.LASF54:
 4760 02b1 63685F72 		.ascii	"ch_ready_list\000"
 4760      65616479 
 4760      5F6C6973 
 4760      7400
 4761              	.LASF24:
 4762 02bf 6576656E 		.ascii	"eventmask_t\000"
 4762      746D6173 
 4762      6B5F7400 
 4763              	.LASF6:
 4764 02cb 5F5F696E 		.ascii	"__int32_t\000"
 4764      7433325F 
 4764      7400
 4765              	.LASF124:
 4766 02d5 6D736770 		.ascii	"msgp\000"
 4766      00
ARM GAS  /var/folders/m4/4md61f0s1_g0rzfghffqnxvr0000gn/T//ccEcnULI.s 			page 87


 4767              	.LASF83:
 4768 02da 73746B61 		.ascii	"stkalign_t\000"
 4768      6C69676E 
 4768      5F7400
 4769              	.LASF48:
 4770 02e5 74687265 		.ascii	"threads_list_t\000"
 4770      6164735F 
 4770      6C697374 
 4770      5F7400
 4771              	.LASF40:
 4772 02f4 705F7761 		.ascii	"p_waiting\000"
 4772      6974696E 
 4772      6700
 4773              	.LASF81:
 4774 02fe 73697A65 		.ascii	"sizetype\000"
 4774      74797065 
 4774      00
 4775              	.LASF47:
 4776 0307 74687265 		.ascii	"thread_reference_t\000"
 4776      61645F72 
 4776      65666572 
 4776      656E6365 
 4776      5F7400
 4777              	.LASF70:
 4778 031a 63685F76 		.ascii	"ch_virtual_timers_list\000"
 4778      69727475 
 4778      616C5F74 
 4778      696D6572 
 4778      735F6C69 
 4779              	.LASF132:
 4780 0331 63684D42 		.ascii	"chMBFetch\000"
 4780      46657463 
 4780      6800
 4781              	.LASF127:
 4782 033b 63684D42 		.ascii	"chMBReset\000"
 4782      52657365 
 4782      7400
 4783              	.LASF33:
 4784 0345 705F6F6C 		.ascii	"p_older\000"
 4784      64657200 
 4785              	.LASF57:
 4786 034d 725F6374 		.ascii	"r_ctx\000"
 4786      7800
 4787              	.LASF111:
 4788 0353 6D61696C 		.ascii	"mailbox_t\000"
 4788      626F785F 
 4788      7400
 4789              	.LASF87:
 4790 035d 746D5F63 		.ascii	"tm_calibration_t\000"
 4790      616C6962 
 4790      72617469 
 4790      6F6E5F74 
 4790      00
 4791              	.LASF105:
 4792 036e 6D625F62 		.ascii	"mb_buffer\000"
 4792      75666665 
 4792      7200
ARM GAS  /var/folders/m4/4md61f0s1_g0rzfghffqnxvr0000gn/T//ccEcnULI.s 			page 88


 4793              	.LASF60:
 4794 0378 725F6375 		.ascii	"r_current\000"
 4794      7272656E 
 4794      7400
 4795              	.LASF59:
 4796 0382 725F6F6C 		.ascii	"r_older\000"
 4796      64657200 
 4797              	.LASF11:
 4798 038a 5F5F7569 		.ascii	"__uint64_t\000"
 4798      6E743634 
 4798      5F7400
 4799              	.LASF20:
 4800 0395 74726566 		.ascii	"trefs_t\000"
 4800      735F7400 
 4801              	.LASF62:
 4802 039d 76697274 		.ascii	"virtual_timer_t\000"
 4802      75616C5F 
 4802      74696D65 
 4802      725F7400 
 4803              	.LASF29:
 4804 03ad 705F7072 		.ascii	"p_prev\000"
 4804      657600
 4805              	.LASF22:
 4806 03b4 74707269 		.ascii	"tprio_t\000"
 4806      6F5F7400 
 4807              	.LASF73:
 4808 03bc 63685F73 		.ascii	"ch_system_debug\000"
 4808      79737465 
 4808      6D5F6465 
 4808      62756700 
 4809              	.LASF14:
 4810 03cc 696E7433 		.ascii	"int32_t\000"
 4810      325F7400 
 4811              	.LASF2:
 4812 03d4 756E7369 		.ascii	"unsigned char\000"
 4812      676E6564 
 4812      20636861 
 4812      7200
 4813              	.LASF106:
 4814 03e2 6D625F74 		.ascii	"mb_top\000"
 4814      6F7000
 4815              	.LASF134:
 4816 03e9 49544D5F 		.ascii	"ITM_RxBuffer\000"
 4816      52784275 
 4816      66666572 
 4816      00
 4817              	.LASF44:
 4818 03f6 705F6D74 		.ascii	"p_mtxlist\000"
 4818      786C6973 
 4818      7400
 4819              	.LASF3:
 4820 0400 73686F72 		.ascii	"short int\000"
 4820      7420696E 
 4820      7400
 4821              	.LASF35:
 4822 040a 705F7374 		.ascii	"p_state\000"
 4822      61746500 
ARM GAS  /var/folders/m4/4md61f0s1_g0rzfghffqnxvr0000gn/T//ccEcnULI.s 			page 89


 4823              	.LASF38:
 4824 0412 705F7072 		.ascii	"p_preempt\000"
 4824      65656D70 
 4824      7400
 4825              	.LASF56:
 4826 041c 725F7072 		.ascii	"r_prio\000"
 4826      696F00
 4827              	.LASF94:
 4828 0423 65776D61 		.ascii	"ewmask\000"
 4828      736B00
 4829              	.LASF28:
 4830 042a 705F6E65 		.ascii	"p_next\000"
 4830      787400
 4831              	.LASF36:
 4832 0431 705F666C 		.ascii	"p_flags\000"
 4832      61677300 
 4833              	.LASF120:
 4834 0439 5F5F6675 		.ascii	"__func__\000"
 4834      6E635F5F 
 4834      00
 4835              	.LASF128:
 4836 0442 63684D42 		.ascii	"chMBPost\000"
 4836      506F7374 
 4836      00
 4837              	.LASF117:
 4838 044b 63685379 		.ascii	"chSysLock\000"
 4838      734C6F63 
 4838      6B00
 4839              	.LASF103:
 4840 0455 73656D61 		.ascii	"semaphore_t\000"
 4840      70686F72 
 4840      655F7400 
 4841              	.LASF63:
 4842 0461 63685F76 		.ascii	"ch_virtual_timer\000"
 4842      69727475 
 4842      616C5F74 
 4842      696D6572 
 4842      00
 4843              	.LASF95:
 4844 0472 63685F73 		.ascii	"ch_semaphore\000"
 4844      656D6170 
 4844      686F7265 
 4844      00
 4845              	.LASF43:
 4846 047f 705F6570 		.ascii	"p_epending\000"
 4846      656E6469 
 4846      6E6700
 4847              	.LASF15:
 4848 048a 75696E74 		.ascii	"uint32_t\000"
 4848      33325F74 
 4848      00
 4849              	.LASF93:
 4850 0493 77746D74 		.ascii	"wtmtxp\000"
 4850      787000
 4851              	.LASF55:
 4852 049a 725F7175 		.ascii	"r_queue\000"
 4852      65756500 
ARM GAS  /var/folders/m4/4md61f0s1_g0rzfghffqnxvr0000gn/T//ccEcnULI.s 			page 90


 4853              	.LASF50:
 4854 04a2 63685F74 		.ascii	"ch_threads_list\000"
 4854      68726561 
 4854      64735F6C 
 4854      69737400 
 4855              	.LASF9:
 4856 04b2 6C6F6E67 		.ascii	"long unsigned int\000"
 4856      20756E73 
 4856      69676E65 
 4856      6420696E 
 4856      7400
 4857              	.LASF102:
 4858 04c4 63686172 		.ascii	"char\000"
 4858      00
 4859              	.LASF138:
 4860 04c9 63685365 		.ascii	"chSemWaitTimeoutS\000"
 4860      6D576169 
 4860      7454696D 
 4860      656F7574 
 4860      5300
 4861              	.LASF27:
 4862 04db 74687265 		.ascii	"thread_t\000"
 4862      61645F74 
 4862      00
 4863              	.LASF101:
 4864 04e4 6D5F6E65 		.ascii	"m_next\000"
 4864      787400
 4865              	.LASF26:
 4866 04eb 73797374 		.ascii	"systime_t\000"
 4866      696D655F 
 4866      7400
 4867              	.LASF45:
 4868 04f5 705F7265 		.ascii	"p_realprio\000"
 4868      616C7072 
 4868      696F00
 4869              	.LASF61:
 4870 0500 76746675 		.ascii	"vtfunc_t\000"
 4870      6E635F74 
 4870      00
 4871              	.LASF142:
 4872 0509 63685365 		.ascii	"chSemGetCounterI\000"
 4872      6D476574 
 4872      436F756E 
 4872      74657249 
 4872      00
 4873              	.LASF114:
 4874 051a 5F5F7365 		.ascii	"__set_BASEPRI\000"
 4874      745F4241 
 4874      53455052 
 4874      4900
 4875              	.LASF139:
 4876 0528 474E5520 		.ascii	"GNU C 4.9.3 20150529 (release) [ARM/embedded-4_9-br"
 4876      4320342E 
 4876      392E3320 
 4876      32303135 
 4876      30353239 
 4877 055b 616E6368 		.ascii	"anch revision 224288] -mcpu=cortex-m4 -mfloat-abi=h"
ARM GAS  /var/folders/m4/4md61f0s1_g0rzfghffqnxvr0000gn/T//ccEcnULI.s 			page 91


 4877      20726576 
 4877      6973696F 
 4877      6E203232 
 4877      34323838 
 4878 058e 61726420 		.ascii	"ard -mfpu=fpv4-sp-d16 -mno-thumb-interwork -mthumb "
 4878      2D6D6670 
 4878      753D6670 
 4878      76342D73 
 4878      702D6431 
 4879 05c1 2D676764 		.ascii	"-ggdb -O2 -std=gnu99 -fomit-frame-pointer -falign-f"
 4879      62202D4F 
 4879      32202D73 
 4879      74643D67 
 4879      6E753939 
 4880 05f4 756E6374 		.ascii	"unctions=16 -ffunction-sections -fdata-sections -fn"
 4880      696F6E73 
 4880      3D313620 
 4880      2D666675 
 4880      6E637469 
 4881 0627 6F2D636F 		.ascii	"o-common -fsingle-precision-constant\000"
 4881      6D6D6F6E 
 4881      202D6673 
 4881      696E676C 
 4881      652D7072 
 4882              	.LASF74:
 4883 064c 70616E69 		.ascii	"panic_msg\000"
 4883      635F6D73 
 4883      6700
 4884              	.LASF86:
 4885 0656 6F666673 		.ascii	"offset\000"
 4885      657400
 4886              	.LASF84:
 4887 065d 636F6E74 		.ascii	"context\000"
 4887      65787400 
 4888              	.LASF130:
 4889 0665 63684D42 		.ascii	"chMBPostAhead\000"
 4889      506F7374 
 4889      41686561 
 4889      6400
 4890              	.LASF17:
 4891 0673 7274636E 		.ascii	"rtcnt_t\000"
 4891      745F7400 
 4892              	.LASF68:
 4893 067b 76745F70 		.ascii	"vt_par\000"
 4893      617200
 4894              	.LASF115:
 4895 0682 63685365 		.ascii	"chSemFastWaitI\000"
 4895      6D466173 
 4895      74576169 
 4895      744900
 4896              	.LASF109:
 4897 0691 6D625F66 		.ascii	"mb_fullsem\000"
 4897      756C6C73 
 4897      656D00
 4898              	.LASF51:
 4899 069c 74687265 		.ascii	"threads_queue_t\000"
 4899      6164735F 
ARM GAS  /var/folders/m4/4md61f0s1_g0rzfghffqnxvr0000gn/T//ccEcnULI.s 			page 92


 4899      71756575 
 4899      655F7400 
 4900              	.LASF98:
 4901 06ac 63685F6D 		.ascii	"ch_mutex\000"
 4901      75746578 
 4901      00
 4902              	.LASF37:
 4903 06b5 705F7265 		.ascii	"p_refs\000"
 4903      667300
 4904              	.LASF136:
 4905 06bc 63685365 		.ascii	"chSemResetI\000"
 4905      6D526573 
 4905      65744900 
 4906              	.LASF77:
 4907 06c8 726C6973 		.ascii	"rlist\000"
 4907      7400
 4908              	.LASF13:
 4909 06ce 75696E74 		.ascii	"uint8_t\000"
 4909      385F7400 
 4910              	.LASF90:
 4911 06d6 77746F62 		.ascii	"wtobjp\000"
 4911      6A7000
 4912              	.LASF34:
 4913 06dd 705F6E61 		.ascii	"p_name\000"
 4913      6D6500
 4914              	.LASF71:
 4915 06e4 76745F73 		.ascii	"vt_systime\000"
 4915      79737469 
 4915      6D6500
 4916              	.LASF118:
 4917 06ef 63685379 		.ascii	"chSysUnlock\000"
 4917      73556E6C 
 4917      6F636B00 
 4918              	.LASF42:
 4919 06fb 705F6D73 		.ascii	"p_msg\000"
 4919      6700
 4920              	.LASF140:
 4921 0701 43686962 		.ascii	"ChibiOS_16.1.4/os/rt/src/chmboxes.c\000"
 4921      694F535F 
 4921      31362E31 
 4921      2E342F6F 
 4921      732F7274 
 4922              	.LASF121:
 4923 0725 63684D42 		.ascii	"chMBPostS\000"
 4923      506F7374 
 4923      5300
 4924              	.LASF100:
 4925 072f 6D5F6F77 		.ascii	"m_owner\000"
 4925      6E657200 
 4926              	.LASF31:
 4927 0737 705F6374 		.ascii	"p_ctx\000"
 4927      7800
 4928              	.LASF67:
 4929 073d 76745F66 		.ascii	"vt_func\000"
 4929      756E6300 
 4930              		.ident	"GCC: (GNU Tools for ARM Embedded Processors) 4.9.3 20150529 (release) [ARM/embedded-4_9-br
ARM GAS  /var/folders/m4/4md61f0s1_g0rzfghffqnxvr0000gn/T//ccEcnULI.s 			page 93


DEFINED SYMBOLS
                            *ABS*:0000000000000000 chmboxes.c
/var/folders/m4/4md61f0s1_g0rzfghffqnxvr0000gn/T//ccEcnULI.s:21     .text.chMBObjectInit:0000000000000000 $t
/var/folders/m4/4md61f0s1_g0rzfghffqnxvr0000gn/T//ccEcnULI.s:27     .text.chMBObjectInit:0000000000000000 chMBObjectInit
/var/folders/m4/4md61f0s1_g0rzfghffqnxvr0000gn/T//ccEcnULI.s:75     .text.chMBResetI:0000000000000000 $t
/var/folders/m4/4md61f0s1_g0rzfghffqnxvr0000gn/T//ccEcnULI.s:81     .text.chMBResetI:0000000000000000 chMBResetI
/var/folders/m4/4md61f0s1_g0rzfghffqnxvr0000gn/T//ccEcnULI.s:127    .text.chMBReset:0000000000000000 $t
/var/folders/m4/4md61f0s1_g0rzfghffqnxvr0000gn/T//ccEcnULI.s:133    .text.chMBReset:0000000000000000 chMBReset
/var/folders/m4/4md61f0s1_g0rzfghffqnxvr0000gn/T//ccEcnULI.s:186    .text.chMBPostS:0000000000000000 $t
/var/folders/m4/4md61f0s1_g0rzfghffqnxvr0000gn/T//ccEcnULI.s:192    .text.chMBPostS:0000000000000000 chMBPostS
/var/folders/m4/4md61f0s1_g0rzfghffqnxvr0000gn/T//ccEcnULI.s:258    .text.chMBPost:0000000000000000 $t
/var/folders/m4/4md61f0s1_g0rzfghffqnxvr0000gn/T//ccEcnULI.s:264    .text.chMBPost:0000000000000000 chMBPost
/var/folders/m4/4md61f0s1_g0rzfghffqnxvr0000gn/T//ccEcnULI.s:314    .text.chMBPostI:0000000000000000 $t
/var/folders/m4/4md61f0s1_g0rzfghffqnxvr0000gn/T//ccEcnULI.s:320    .text.chMBPostI:0000000000000000 chMBPostI
/var/folders/m4/4md61f0s1_g0rzfghffqnxvr0000gn/T//ccEcnULI.s:389    .text.chMBPostAheadS:0000000000000000 $t
/var/folders/m4/4md61f0s1_g0rzfghffqnxvr0000gn/T//ccEcnULI.s:395    .text.chMBPostAheadS:0000000000000000 chMBPostAheadS
/var/folders/m4/4md61f0s1_g0rzfghffqnxvr0000gn/T//ccEcnULI.s:463    .text.chMBPostAhead:0000000000000000 $t
/var/folders/m4/4md61f0s1_g0rzfghffqnxvr0000gn/T//ccEcnULI.s:469    .text.chMBPostAhead:0000000000000000 chMBPostAhead
/var/folders/m4/4md61f0s1_g0rzfghffqnxvr0000gn/T//ccEcnULI.s:519    .text.chMBPostAheadI:0000000000000000 $t
/var/folders/m4/4md61f0s1_g0rzfghffqnxvr0000gn/T//ccEcnULI.s:525    .text.chMBPostAheadI:0000000000000000 chMBPostAheadI
/var/folders/m4/4md61f0s1_g0rzfghffqnxvr0000gn/T//ccEcnULI.s:593    .text.chMBFetchS:0000000000000000 $t
/var/folders/m4/4md61f0s1_g0rzfghffqnxvr0000gn/T//ccEcnULI.s:599    .text.chMBFetchS:0000000000000000 chMBFetchS
/var/folders/m4/4md61f0s1_g0rzfghffqnxvr0000gn/T//ccEcnULI.s:666    .text.chMBFetch:0000000000000000 $t
/var/folders/m4/4md61f0s1_g0rzfghffqnxvr0000gn/T//ccEcnULI.s:672    .text.chMBFetch:0000000000000000 chMBFetch
/var/folders/m4/4md61f0s1_g0rzfghffqnxvr0000gn/T//ccEcnULI.s:722    .text.chMBFetchI:0000000000000000 $t
/var/folders/m4/4md61f0s1_g0rzfghffqnxvr0000gn/T//ccEcnULI.s:728    .text.chMBFetchI:0000000000000000 chMBFetchI
                     .debug_frame:0000000000000010 $d

UNDEFINED SYMBOLS
chSemObjectInit
chSemResetI
chSchRescheduleS
chSemWaitTimeoutS
chSemSignalI
