ARM GAS  /var/folders/m4/4md61f0s1_g0rzfghffqnxvr0000gn/T//ccEcnULI.s 			page 1


   1              		.syntax unified
   2              		.cpu cortex-m4
   3              		.eabi_attribute 27, 1
   4              		.eabi_attribute 28, 1
   5              		.fpu fpv4-sp-d16
   6              		.eabi_attribute 20, 1
   7              		.eabi_attribute 21, 1
   8              		.eabi_attribute 23, 3
   9              		.eabi_attribute 24, 1
  10              		.eabi_attribute 25, 1
  11              		.eabi_attribute 26, 1
  12              		.eabi_attribute 30, 2
  13              		.eabi_attribute 34, 1
  14              		.eabi_attribute 18, 4
  15              		.thumb
  16              		.file	"chmboxes.c"
  17              		.text
  18              	.Ltext0:
  19              		.cfi_sections	.debug_frame
  20              		.section	.text.chMBObjectInit,"ax",%progbits
  21              		.align	2
  22              		.p2align 4,,15
  23              		.global	chMBObjectInit
  24              		.thumb
  25              		.thumb_func
  26              		.type	chMBObjectInit, %function
  27              	chMBObjectInit:
  28              	.LFB231:
  29              		.file 1 "ChibiOS_16.1.4/os/rt/src/chmboxes.c"
  30              		.loc 1 86 0
  31              		.cfi_startproc
  32              		@ args = 0, pretend = 0, frame = 0
  33              		@ frame_needed = 0, uses_anonymous_args = 0
  34              	.LVL0:
  35 0000 10B5     		push	{r4, lr}
  36              		.cfi_def_cfa_offset 8
  37              		.cfi_offset 4, -8
  38              		.cfi_offset 14, -4
  39              		.loc 1 86 0
  40 0002 0B46     		mov	r3, r1
  41              		.loc 1 93 0
  42 0004 01EB8201 		add	r1, r1, r2, lsl #2
  43              	.LVL1:
  44 0008 4160     		str	r1, [r0, #4]
  45              		.loc 1 86 0
  46 000a 0446     		mov	r4, r0
  47              		.loc 1 90 0
  48 000c 0360     		str	r3, [r0]
  49              		.loc 1 91 0
  50 000e C360     		str	r3, [r0, #12]
  51              		.loc 1 92 0
  52 0010 8360     		str	r3, [r0, #8]
  53              		.loc 1 94 0
  54 0012 1146     		mov	r1, r2
  55 0014 1C30     		adds	r0, r0, #28
  56              	.LVL2:
  57 0016 FFF7FEFF 		bl	chSemObjectInit
ARM GAS  /var/folders/m4/4md61f0s1_g0rzfghffqnxvr0000gn/T//ccEcnULI.s 			page 2


  58              	.LVL3:
  59              		.loc 1 95 0
  60 001a 04F11000 		add	r0, r4, #16
  61 001e 0021     		movs	r1, #0
  62              		.loc 1 96 0
  63 0020 BDE81040 		pop	{r4, lr}
  64              		.cfi_restore 14
  65              		.cfi_restore 4
  66              		.cfi_def_cfa_offset 0
  67              	.LVL4:
  68              		.loc 1 95 0
  69 0024 FFF7FEBF 		b	chSemObjectInit
  70              	.LVL5:
  71              		.cfi_endproc
  72              	.LFE231:
  73              		.size	chMBObjectInit, .-chMBObjectInit
  74              		.section	.text.chMBResetI,"ax",%progbits
  75              		.align	2
  76              		.p2align 4,,15
  77              		.global	chMBResetI
  78              		.thumb
  79              		.thumb_func
  80              		.type	chMBResetI, %function
  81              	chMBResetI:
  82              	.LFB233:
  83              		.loc 1 124 0
  84              		.cfi_startproc
  85              		@ args = 0, pretend = 0, frame = 0
  86              		@ frame_needed = 0, uses_anonymous_args = 0
  87              	.LVL6:
  88 0000 10B5     		push	{r4, lr}
  89              		.cfi_def_cfa_offset 8
  90              		.cfi_offset 4, -8
  91              		.cfi_offset 14, -4
  92              		.loc 1 124 0
  93 0002 0446     		mov	r4, r0
  94              		.loc 1 131 0
  95 0004 1C30     		adds	r0, r0, #28
  96              	.LVL7:
  97              		.loc 1 129 0
  98 0006 2368     		ldr	r3, [r4]
  99              		.loc 1 131 0
 100 0008 6168     		ldr	r1, [r4, #4]
 101              		.loc 1 129 0
 102 000a A360     		str	r3, [r4, #8]
 103              		.loc 1 131 0
 104 000c C91A     		subs	r1, r1, r3
 105              		.loc 1 130 0
 106 000e E360     		str	r3, [r4, #12]
 107              		.loc 1 131 0
 108 0010 8910     		asrs	r1, r1, #2
 109 0012 FFF7FEFF 		bl	chSemResetI
 110              	.LVL8:
 111              		.loc 1 132 0
 112 0016 04F11000 		add	r0, r4, #16
 113 001a 0021     		movs	r1, #0
 114              		.loc 1 133 0
ARM GAS  /var/folders/m4/4md61f0s1_g0rzfghffqnxvr0000gn/T//ccEcnULI.s 			page 3


 115 001c BDE81040 		pop	{r4, lr}
 116              		.cfi_restore 14
 117              		.cfi_restore 4
 118              		.cfi_def_cfa_offset 0
 119              	.LVL9:
 120              		.loc 1 132 0
 121 0020 FFF7FEBF 		b	chSemResetI
 122              	.LVL10:
 123              		.cfi_endproc
 124              	.LFE233:
 125              		.size	chMBResetI, .-chMBResetI
 126              		.section	.text.chMBReset,"ax",%progbits
 127              		.align	2
 128              		.p2align 4,,15
 129              		.global	chMBReset
 130              		.thumb
 131              		.thumb_func
 132              		.type	chMBReset, %function
 133              	chMBReset:
 134              	.LFB232:
 135              		.loc 1 107 0
 136              		.cfi_startproc
 137              		@ args = 0, pretend = 0, frame = 0
 138              		@ frame_needed = 0, uses_anonymous_args = 0
 139              	.LVL11:
 140 0000 08B5     		push	{r3, lr}
 141              		.cfi_def_cfa_offset 8
 142              		.cfi_offset 3, -8
 143              		.cfi_offset 14, -4
 144              	.LBB66:
 145              	.LBB67:
 146              	.LBB68:
 147              	.LBB69:
 148              		.file 2 "ChibiOS_16.1.4/os/ext/CMSIS/include/core_cmFunc.h"
 149              		.loc 2 548 0
 150 0002 2023     		movs	r3, #32
 151              	@ 548 "ChibiOS_16.1.4/os/ext/CMSIS/include/core_cmFunc.h" 1
 152 0004 83F31188 		MSR basepri, r3
 153              	@ 0 "" 2
 154              		.thumb
 155              	.LBE69:
 156              	.LBE68:
 157              	.LBE67:
 158              	.LBE66:
 159              		.loc 1 110 0
 160 0008 FFF7FEFF 		bl	chMBResetI
 161              	.LVL12:
 162              		.loc 1 111 0
 163 000c FFF7FEFF 		bl	chSchRescheduleS
 164              	.LVL13:
 165              	.LBB70:
 166              	.LBB71:
 167              	.LBB72:
 168              	.LBB73:
 169              	.LBB74:
 170              		.loc 2 548 0
 171 0010 0023     		movs	r3, #0
ARM GAS  /var/folders/m4/4md61f0s1_g0rzfghffqnxvr0000gn/T//ccEcnULI.s 			page 4


 172              	@ 548 "ChibiOS_16.1.4/os/ext/CMSIS/include/core_cmFunc.h" 1
 173 0012 83F31188 		MSR basepri, r3
 174              	@ 0 "" 2
 175              		.thumb
 176 0016 08BD     		pop	{r3, pc}
 177              	.LBE74:
 178              	.LBE73:
 179              	.LBE72:
 180              	.LBE71:
 181              	.LBE70:
 182              		.cfi_endproc
 183              	.LFE232:
 184              		.size	chMBReset, .-chMBReset
 185              		.section	.text.chMBPostS,"ax",%progbits
 186              		.align	2
 187              		.p2align 4,,15
 188              		.global	chMBPostS
 189              		.thumb
 190              		.thumb_func
 191              		.type	chMBPostS, %function
 192              	chMBPostS:
 193              	.LFB235:
 194              		.loc 1 183 0
 195              		.cfi_startproc
 196              		@ args = 0, pretend = 0, frame = 0
 197              		@ frame_needed = 0, uses_anonymous_args = 0
 198              	.LVL14:
 199 0000 70B5     		push	{r4, r5, r6, lr}
 200              		.cfi_def_cfa_offset 16
 201              		.cfi_offset 4, -16
 202              		.cfi_offset 5, -12
 203              		.cfi_offset 6, -8
 204              		.cfi_offset 14, -4
 205              		.loc 1 183 0
 206 0002 0446     		mov	r4, r0
 207 0004 0E46     		mov	r6, r1
 208              		.loc 1 189 0
 209 0006 1C30     		adds	r0, r0, #28
 210              	.LVL15:
 211 0008 1146     		mov	r1, r2
 212              	.LVL16:
 213 000a FFF7FEFF 		bl	chSemWaitTimeoutS
 214              	.LVL17:
 215              		.loc 1 190 0
 216 000e 0546     		mov	r5, r0
 217 0010 78B9     		cbnz	r0, .L8
 218              	.LVL18:
 219              	.LBB77:
 220              	.LBB78:
 221              		.loc 1 191 0
 222 0012 A268     		ldr	r2, [r4, #8]
 223              		.loc 1 192 0
 224 0014 6168     		ldr	r1, [r4, #4]
 225              		.loc 1 191 0
 226 0016 131D     		adds	r3, r2, #4
 227              		.loc 1 192 0
 228 0018 8B42     		cmp	r3, r1
ARM GAS  /var/folders/m4/4md61f0s1_g0rzfghffqnxvr0000gn/T//ccEcnULI.s 			page 5


 229              		.loc 1 191 0
 230 001a A360     		str	r3, [r4, #8]
 231              		.loc 1 193 0
 232 001c 28BF     		it	cs
 233 001e 2368     		ldrcs	r3, [r4]
 234              		.loc 1 191 0
 235 0020 1660     		str	r6, [r2]
 236              		.loc 1 195 0
 237 0022 04F11000 		add	r0, r4, #16
 238              	.LVL19:
 239              		.loc 1 193 0
 240 0026 28BF     		it	cs
 241 0028 A360     		strcs	r3, [r4, #8]
 242              		.loc 1 195 0
 243 002a FFF7FEFF 		bl	chSemSignalI
 244              	.LVL20:
 245              		.loc 1 196 0
 246 002e FFF7FEFF 		bl	chSchRescheduleS
 247              	.LVL21:
 248              	.L8:
 249              	.LBE78:
 250              	.LBE77:
 251              		.loc 1 200 0
 252 0032 2846     		mov	r0, r5
 253 0034 70BD     		pop	{r4, r5, r6, pc}
 254              		.cfi_endproc
 255              	.LFE235:
 256              		.size	chMBPostS, .-chMBPostS
 257 0036 00BF     		.section	.text.chMBPost,"ax",%progbits
 258              		.align	2
 259              		.p2align 4,,15
 260              		.global	chMBPost
 261              		.thumb
 262              		.thumb_func
 263              		.type	chMBPost, %function
 264              	chMBPost:
 265              	.LFB234:
 266              		.loc 1 154 0
 267              		.cfi_startproc
 268              		@ args = 0, pretend = 0, frame = 0
 269              		@ frame_needed = 0, uses_anonymous_args = 0
 270              	.LVL22:
 271 0000 08B5     		push	{r3, lr}
 272              		.cfi_def_cfa_offset 8
 273              		.cfi_offset 3, -8
 274              		.cfi_offset 14, -4
 275              	.LBB79:
 276              	.LBB80:
 277              	.LBB81:
 278              	.LBB82:
 279              		.loc 2 548 0
 280 0002 2023     		movs	r3, #32
 281              	@ 548 "ChibiOS_16.1.4/os/ext/CMSIS/include/core_cmFunc.h" 1
 282 0004 83F31188 		MSR basepri, r3
 283              	@ 0 "" 2
 284              		.thumb
 285              	.LBE82:
ARM GAS  /var/folders/m4/4md61f0s1_g0rzfghffqnxvr0000gn/T//ccEcnULI.s 			page 6


 286              	.LBE81:
 287              	.LBE80:
 288              	.LBE79:
 289              		.loc 1 158 0
 290 0008 FFF7FEFF 		bl	chMBPostS
 291              	.LVL23:
 292              	.LBB83:
 293              	.LBB84:
 294              	.LBB85:
 295              	.LBB86:
 296              	.LBB87:
 297              		.loc 2 548 0
 298 000c 0023     		movs	r3, #0
 299              	@ 548 "ChibiOS_16.1.4/os/ext/CMSIS/include/core_cmFunc.h" 1
 300 000e 83F31188 		MSR basepri, r3
 301              	@ 0 "" 2
 302              		.thumb
 303              	.LBE87:
 304              	.LBE86:
 305              	.LBE85:
 306              	.LBE84:
 307              	.LBE83:
 308              		.loc 1 162 0
 309 0012 08BD     		pop	{r3, pc}
 310              		.cfi_endproc
 311              	.LFE234:
 312              		.size	chMBPost, .-chMBPost
 313              		.section	.text.chMBPostI,"ax",%progbits
 314              		.align	2
 315              		.p2align 4,,15
 316              		.global	chMBPostI
 317              		.thumb
 318              		.thumb_func
 319              		.type	chMBPostI, %function
 320              	chMBPostI:
 321              	.LFB236:
 322              		.loc 1 216 0
 323              		.cfi_startproc
 324              		@ args = 0, pretend = 0, frame = 0
 325              		@ frame_needed = 0, uses_anonymous_args = 0
 326              	.LVL24:
 327 0000 38B5     		push	{r3, r4, r5, lr}
 328              		.cfi_def_cfa_offset 16
 329              		.cfi_offset 3, -16
 330              		.cfi_offset 4, -12
 331              		.cfi_offset 5, -8
 332              		.cfi_offset 14, -4
 333 0002 436A     		ldr	r3, [r0, #36]
 334              	.LVL25:
 335              		.loc 1 221 0
 336 0004 002B     		cmp	r3, #0
 337 0006 12DD     		ble	.L17
 338              	.LVL26:
 339              		.loc 1 226 0
 340 0008 8468     		ldr	r4, [r0, #8]
 341              		.loc 1 227 0
 342 000a 4568     		ldr	r5, [r0, #4]
ARM GAS  /var/folders/m4/4md61f0s1_g0rzfghffqnxvr0000gn/T//ccEcnULI.s 			page 7


 343              		.loc 1 226 0
 344 000c 221D     		adds	r2, r4, #4
 345              	.LBB88:
 346              	.LBB89:
 347              		.file 3 "ChibiOS_16.1.4/os/rt/include/chsem.h"
 348              		.loc 3 122 0
 349 000e 013B     		subs	r3, r3, #1
 350              	.LBE89:
 351              	.LBE88:
 352              		.loc 1 227 0
 353 0010 AA42     		cmp	r2, r5
 354              	.LBB91:
 355              	.LBB90:
 356              		.loc 3 122 0
 357 0012 4362     		str	r3, [r0, #36]
 358              	.LBE90:
 359              	.LBE91:
 360              		.loc 1 228 0
 361 0014 28BF     		it	cs
 362 0016 0368     		ldrcs	r3, [r0]
 363              		.loc 1 226 0
 364 0018 8260     		str	r2, [r0, #8]
 365 001a 2160     		str	r1, [r4]
 366              		.loc 1 230 0
 367 001c 00F11000 		add	r0, r0, #16
 368              	.LVL27:
 369              		.loc 1 228 0
 370 0020 28BF     		it	cs
 371 0022 40F8083C 		strcs	r3, [r0, #-8]
 372              		.loc 1 230 0
 373 0026 FFF7FEFF 		bl	chSemSignalI
 374              	.LVL28:
 375              		.loc 1 232 0
 376 002a 0020     		movs	r0, #0
 377 002c 38BD     		pop	{r3, r4, r5, pc}
 378              	.LVL29:
 379              	.L17:
 380              		.loc 1 222 0
 381 002e 4FF0FF30 		mov	r0, #-1
 382              	.LVL30:
 383              		.loc 1 233 0
 384 0032 38BD     		pop	{r3, r4, r5, pc}
 385              		.cfi_endproc
 386              	.LFE236:
 387              		.size	chMBPostI, .-chMBPostI
 388              		.section	.text.chMBPostAheadS,"ax",%progbits
 389              		.align	2
 390              		.p2align 4,,15
 391              		.global	chMBPostAheadS
 392              		.thumb
 393              		.thumb_func
 394              		.type	chMBPostAheadS, %function
 395              	chMBPostAheadS:
 396              	.LFB238:
 397              		.loc 1 283 0
 398              		.cfi_startproc
 399              		@ args = 0, pretend = 0, frame = 0
ARM GAS  /var/folders/m4/4md61f0s1_g0rzfghffqnxvr0000gn/T//ccEcnULI.s 			page 8


 400              		@ frame_needed = 0, uses_anonymous_args = 0
 401              	.LVL31:
 402 0000 70B5     		push	{r4, r5, r6, lr}
 403              		.cfi_def_cfa_offset 16
 404              		.cfi_offset 4, -16
 405              		.cfi_offset 5, -12
 406              		.cfi_offset 6, -8
 407              		.cfi_offset 14, -4
 408              		.loc 1 283 0
 409 0002 0446     		mov	r4, r0
 410 0004 0E46     		mov	r6, r1
 411              		.loc 1 289 0
 412 0006 1C30     		adds	r0, r0, #28
 413              	.LVL32:
 414 0008 1146     		mov	r1, r2
 415              	.LVL33:
 416 000a FFF7FEFF 		bl	chSemWaitTimeoutS
 417              	.LVL34:
 418              		.loc 1 290 0
 419 000e 0546     		mov	r5, r0
 420 0010 60B9     		cbnz	r0, .L20
 421              	.LVL35:
 422              	.LBB94:
 423              	.LBB95:
 424              		.loc 1 291 0
 425 0012 E368     		ldr	r3, [r4, #12]
 426 0014 2268     		ldr	r2, [r4]
 427 0016 043B     		subs	r3, r3, #4
 428 0018 9342     		cmp	r3, r2
 429 001a E360     		str	r3, [r4, #12]
 430 001c 08D3     		bcc	.L23
 431              	.L21:
 432              		.loc 1 294 0
 433 001e 1E60     		str	r6, [r3]
 434              		.loc 1 295 0
 435 0020 04F11000 		add	r0, r4, #16
 436              	.LVL36:
 437 0024 FFF7FEFF 		bl	chSemSignalI
 438              	.LVL37:
 439              		.loc 1 296 0
 440 0028 FFF7FEFF 		bl	chSchRescheduleS
 441              	.LVL38:
 442              	.L20:
 443              	.LBE95:
 444              	.LBE94:
 445              		.loc 1 300 0
 446 002c 2846     		mov	r0, r5
 447 002e 70BD     		pop	{r4, r5, r6, pc}
 448              	.LVL39:
 449              	.L23:
 450              	.LBB97:
 451              	.LBB96:
 452              		.loc 1 292 0
 453 0030 6368     		ldr	r3, [r4, #4]
 454 0032 043B     		subs	r3, r3, #4
 455 0034 E360     		str	r3, [r4, #12]
 456 0036 F2E7     		b	.L21
ARM GAS  /var/folders/m4/4md61f0s1_g0rzfghffqnxvr0000gn/T//ccEcnULI.s 			page 9


 457              	.LBE96:
 458              	.LBE97:
 459              		.cfi_endproc
 460              	.LFE238:
 461              		.size	chMBPostAheadS, .-chMBPostAheadS
 462              		.section	.text.chMBPostAhead,"ax",%progbits
 463              		.align	2
 464              		.p2align 4,,15
 465              		.global	chMBPostAhead
 466              		.thumb
 467              		.thumb_func
 468              		.type	chMBPostAhead, %function
 469              	chMBPostAhead:
 470              	.LFB237:
 471              		.loc 1 254 0
 472              		.cfi_startproc
 473              		@ args = 0, pretend = 0, frame = 0
 474              		@ frame_needed = 0, uses_anonymous_args = 0
 475              	.LVL40:
 476 0000 08B5     		push	{r3, lr}
 477              		.cfi_def_cfa_offset 8
 478              		.cfi_offset 3, -8
 479              		.cfi_offset 14, -4
 480              	.LBB98:
 481              	.LBB99:
 482              	.LBB100:
 483              	.LBB101:
 484              		.loc 2 548 0
 485 0002 2023     		movs	r3, #32
 486              	@ 548 "ChibiOS_16.1.4/os/ext/CMSIS/include/core_cmFunc.h" 1
 487 0004 83F31188 		MSR basepri, r3
 488              	@ 0 "" 2
 489              		.thumb
 490              	.LBE101:
 491              	.LBE100:
 492              	.LBE99:
 493              	.LBE98:
 494              		.loc 1 258 0
 495 0008 FFF7FEFF 		bl	chMBPostAheadS
 496              	.LVL41:
 497              	.LBB102:
 498              	.LBB103:
 499              	.LBB104:
 500              	.LBB105:
 501              	.LBB106:
 502              		.loc 2 548 0
 503 000c 0023     		movs	r3, #0
 504              	@ 548 "ChibiOS_16.1.4/os/ext/CMSIS/include/core_cmFunc.h" 1
 505 000e 83F31188 		MSR basepri, r3
 506              	@ 0 "" 2
 507              		.thumb
 508              	.LBE106:
 509              	.LBE105:
 510              	.LBE104:
 511              	.LBE103:
 512              	.LBE102:
 513              		.loc 1 262 0
ARM GAS  /var/folders/m4/4md61f0s1_g0rzfghffqnxvr0000gn/T//ccEcnULI.s 			page 10


 514 0012 08BD     		pop	{r3, pc}
 515              		.cfi_endproc
 516              	.LFE237:
 517              		.size	chMBPostAhead, .-chMBPostAhead
 518              		.section	.text.chMBPostAheadI,"ax",%progbits
 519              		.align	2
 520              		.p2align 4,,15
 521              		.global	chMBPostAheadI
 522              		.thumb
 523              		.thumb_func
 524              		.type	chMBPostAheadI, %function
 525              	chMBPostAheadI:
 526              	.LFB239:
 527              		.loc 1 316 0
 528              		.cfi_startproc
 529              		@ args = 0, pretend = 0, frame = 0
 530              		@ frame_needed = 0, uses_anonymous_args = 0
 531              	.LVL42:
 532 0000 426A     		ldr	r2, [r0, #36]
 533              	.LVL43:
 534              		.loc 1 321 0
 535 0002 002A     		cmp	r2, #0
 536 0004 11DD     		ble	.L29
 537              	.LVL44:
 538              		.loc 1 325 0
 539 0006 C368     		ldr	r3, [r0, #12]
 540              		.loc 1 316 0
 541 0008 10B5     		push	{r4, lr}
 542              		.cfi_def_cfa_offset 8
 543              		.cfi_offset 4, -8
 544              		.cfi_offset 14, -4
 545              		.loc 1 325 0
 546 000a 0468     		ldr	r4, [r0]
 547 000c 043B     		subs	r3, r3, #4
 548              	.LBB107:
 549              	.LBB108:
 550              		.loc 3 122 0
 551 000e 013A     		subs	r2, r2, #1
 552              	.LBE108:
 553              	.LBE107:
 554              		.loc 1 325 0
 555 0010 A342     		cmp	r3, r4
 556              	.LBB110:
 557              	.LBB109:
 558              		.loc 3 122 0
 559 0012 4262     		str	r2, [r0, #36]
 560              	.LBE109:
 561              	.LBE110:
 562              		.loc 1 325 0
 563 0014 C360     		str	r3, [r0, #12]
 564 0016 02D2     		bcs	.L28
 565              		.loc 1 326 0
 566 0018 4368     		ldr	r3, [r0, #4]
 567 001a 043B     		subs	r3, r3, #4
 568 001c C360     		str	r3, [r0, #12]
 569              	.L28:
 570              		.loc 1 328 0
ARM GAS  /var/folders/m4/4md61f0s1_g0rzfghffqnxvr0000gn/T//ccEcnULI.s 			page 11


 571 001e 1960     		str	r1, [r3]
 572              		.loc 1 329 0
 573 0020 1030     		adds	r0, r0, #16
 574              	.LVL45:
 575 0022 FFF7FEFF 		bl	chSemSignalI
 576              	.LVL46:
 577              		.loc 1 331 0
 578 0026 0020     		movs	r0, #0
 579 0028 10BD     		pop	{r4, pc}
 580              	.LVL47:
 581              	.L29:
 582              		.cfi_def_cfa_offset 0
 583              		.cfi_restore 4
 584              		.cfi_restore 14
 585              		.loc 1 322 0
 586 002a 4FF0FF30 		mov	r0, #-1
 587              	.LVL48:
 588 002e 7047     		bx	lr
 589              		.cfi_endproc
 590              	.LFE239:
 591              		.size	chMBPostAheadI, .-chMBPostAheadI
 592              		.section	.text.chMBFetchS,"ax",%progbits
 593              		.align	2
 594              		.p2align 4,,15
 595              		.global	chMBFetchS
 596              		.thumb
 597              		.thumb_func
 598              		.type	chMBFetchS, %function
 599              	chMBFetchS:
 600              	.LFB241:
 601              		.loc 1 382 0
 602              		.cfi_startproc
 603              		@ args = 0, pretend = 0, frame = 0
 604              		@ frame_needed = 0, uses_anonymous_args = 0
 605              	.LVL49:
 606 0000 70B5     		push	{r4, r5, r6, lr}
 607              		.cfi_def_cfa_offset 16
 608              		.cfi_offset 4, -16
 609              		.cfi_offset 5, -12
 610              		.cfi_offset 6, -8
 611              		.cfi_offset 14, -4
 612              		.loc 1 382 0
 613 0002 0446     		mov	r4, r0
 614 0004 0E46     		mov	r6, r1
 615              		.loc 1 388 0
 616 0006 1030     		adds	r0, r0, #16
 617              	.LVL50:
 618 0008 1146     		mov	r1, r2
 619              	.LVL51:
 620 000a FFF7FEFF 		bl	chSemWaitTimeoutS
 621              	.LVL52:
 622              		.loc 1 389 0
 623 000e 0546     		mov	r5, r0
 624 0010 80B9     		cbnz	r0, .L33
 625              	.LVL53:
 626              	.LBB113:
 627              	.LBB114:
ARM GAS  /var/folders/m4/4md61f0s1_g0rzfghffqnxvr0000gn/T//ccEcnULI.s 			page 12


 628              		.loc 1 390 0
 629 0012 E368     		ldr	r3, [r4, #12]
 630              		.loc 1 391 0
 631 0014 6268     		ldr	r2, [r4, #4]
 632              		.loc 1 390 0
 633 0016 1968     		ldr	r1, [r3]
 634 0018 0433     		adds	r3, r3, #4
 635              		.loc 1 391 0
 636 001a 9342     		cmp	r3, r2
 637              		.loc 1 390 0
 638 001c E360     		str	r3, [r4, #12]
 639              		.loc 1 392 0
 640 001e 28BF     		it	cs
 641 0020 2368     		ldrcs	r3, [r4]
 642              		.loc 1 390 0
 643 0022 3160     		str	r1, [r6]
 644              		.loc 1 394 0
 645 0024 04F11C00 		add	r0, r4, #28
 646              	.LVL54:
 647              		.loc 1 392 0
 648 0028 28BF     		it	cs
 649 002a E360     		strcs	r3, [r4, #12]
 650              		.loc 1 394 0
 651 002c FFF7FEFF 		bl	chSemSignalI
 652              	.LVL55:
 653              		.loc 1 395 0
 654 0030 FFF7FEFF 		bl	chSchRescheduleS
 655              	.LVL56:
 656              	.L33:
 657              	.LBE114:
 658              	.LBE113:
 659              		.loc 1 399 0
 660 0034 2846     		mov	r0, r5
 661 0036 70BD     		pop	{r4, r5, r6, pc}
 662              		.cfi_endproc
 663              	.LFE241:
 664              		.size	chMBFetchS, .-chMBFetchS
 665              		.section	.text.chMBFetch,"ax",%progbits
 666              		.align	2
 667              		.p2align 4,,15
 668              		.global	chMBFetch
 669              		.thumb
 670              		.thumb_func
 671              		.type	chMBFetch, %function
 672              	chMBFetch:
 673              	.LFB240:
 674              		.loc 1 353 0
 675              		.cfi_startproc
 676              		@ args = 0, pretend = 0, frame = 0
 677              		@ frame_needed = 0, uses_anonymous_args = 0
 678              	.LVL57:
 679 0000 08B5     		push	{r3, lr}
 680              		.cfi_def_cfa_offset 8
 681              		.cfi_offset 3, -8
 682              		.cfi_offset 14, -4
 683              	.LBB115:
 684              	.LBB116:
ARM GAS  /var/folders/m4/4md61f0s1_g0rzfghffqnxvr0000gn/T//ccEcnULI.s 			page 13


 685              	.LBB117:
 686              	.LBB118:
 687              		.loc 2 548 0
 688 0002 2023     		movs	r3, #32
 689              	@ 548 "ChibiOS_16.1.4/os/ext/CMSIS/include/core_cmFunc.h" 1
 690 0004 83F31188 		MSR basepri, r3
 691              	@ 0 "" 2
 692              		.thumb
 693              	.LBE118:
 694              	.LBE117:
 695              	.LBE116:
 696              	.LBE115:
 697              		.loc 1 357 0
 698 0008 FFF7FEFF 		bl	chMBFetchS
 699              	.LVL58:
 700              	.LBB119:
 701              	.LBB120:
 702              	.LBB121:
 703              	.LBB122:
 704              	.LBB123:
 705              		.loc 2 548 0
 706 000c 0023     		movs	r3, #0
 707              	@ 548 "ChibiOS_16.1.4/os/ext/CMSIS/include/core_cmFunc.h" 1
 708 000e 83F31188 		MSR basepri, r3
 709              	@ 0 "" 2
 710              		.thumb
 711              	.LBE123:
 712              	.LBE122:
 713              	.LBE121:
 714              	.LBE120:
 715              	.LBE119:
 716              		.loc 1 361 0
 717 0012 08BD     		pop	{r3, pc}
 718              		.cfi_endproc
 719              	.LFE240:
 720              		.size	chMBFetch, .-chMBFetch
 721              		.section	.text.chMBFetchI,"ax",%progbits
 722              		.align	2
 723              		.p2align 4,,15
 724              		.global	chMBFetchI
 725              		.thumb
 726              		.thumb_func
 727              		.type	chMBFetchI, %function
 728              	chMBFetchI:
 729              	.LFB242:
 730              		.loc 1 415 0
 731              		.cfi_startproc
 732              		@ args = 0, pretend = 0, frame = 0
 733              		@ frame_needed = 0, uses_anonymous_args = 0
 734              	.LVL59:
 735 0000 8369     		ldr	r3, [r0, #24]
 736              	.LVL60:
 737              		.loc 1 420 0
 738 0002 002B     		cmp	r3, #0
 739 0004 14DD     		ble	.L41
 740              	.LVL61:
 741              	.LBB124:
ARM GAS  /var/folders/m4/4md61f0s1_g0rzfghffqnxvr0000gn/T//ccEcnULI.s 			page 14


 742              	.LBB125:
 743              		.loc 3 122 0
 744 0006 5A1E     		subs	r2, r3, #1
 745              	.LBE125:
 746              	.LBE124:
 747              		.loc 1 424 0
 748 0008 C368     		ldr	r3, [r0, #12]
 749              		.loc 1 415 0
 750 000a 10B5     		push	{r4, lr}
 751              		.cfi_def_cfa_offset 8
 752              		.cfi_offset 4, -8
 753              		.cfi_offset 14, -4
 754              	.LBB127:
 755              	.LBB126:
 756              		.loc 3 122 0
 757 000c 8261     		str	r2, [r0, #24]
 758              	.LBE126:
 759              	.LBE127:
 760              		.loc 1 425 0
 761 000e 4268     		ldr	r2, [r0, #4]
 762              		.loc 1 424 0
 763 0010 1C68     		ldr	r4, [r3]
 764 0012 0433     		adds	r3, r3, #4
 765              		.loc 1 425 0
 766 0014 9342     		cmp	r3, r2
 767              		.loc 1 424 0
 768 0016 C360     		str	r3, [r0, #12]
 769              		.loc 1 426 0
 770 0018 28BF     		it	cs
 771 001a 0368     		ldrcs	r3, [r0]
 772              		.loc 1 424 0
 773 001c 0C60     		str	r4, [r1]
 774              		.loc 1 428 0
 775 001e 00F11C00 		add	r0, r0, #28
 776              	.LVL62:
 777              		.loc 1 426 0
 778 0022 28BF     		it	cs
 779 0024 40F8103C 		strcs	r3, [r0, #-16]
 780              		.loc 1 428 0
 781 0028 FFF7FEFF 		bl	chSemSignalI
 782              	.LVL63:
 783              		.loc 1 430 0
 784 002c 0020     		movs	r0, #0
 785 002e 10BD     		pop	{r4, pc}
 786              	.LVL64:
 787              	.L41:
 788              		.cfi_def_cfa_offset 0
 789              		.cfi_restore 4
 790              		.cfi_restore 14
 791              		.loc 1 421 0
 792 0030 4FF0FF30 		mov	r0, #-1
 793              	.LVL65:
 794 0034 7047     		bx	lr
 795              		.cfi_endproc
 796              	.LFE242:
 797              		.size	chMBFetchI, .-chMBFetchI
 798 0036 00BF     		.text
ARM GAS  /var/folders/m4/4md61f0s1_g0rzfghffqnxvr0000gn/T//ccEcnULI.s 			page 15


 799              	.Letext0:
 800              		.file 4 "/usr/local/Cellar/gcc-arm-none-eabi-49/20150609/arm-none-eabi/include/machine/_default_ty
 801              		.file 5 "/usr/local/Cellar/gcc-arm-none-eabi-49/20150609/arm-none-eabi/include/sys/_stdint.h"
 802              		.file 6 "ChibiOS_16.1.4/os/rt/ports/ARMCMx/compilers/GCC/chtypes.h"
 803              		.file 7 "ChibiOS_16.1.4/os/rt/include/chsystypes.h"
 804              		.file 8 "ChibiOS_16.1.4/os/rt/include/chschd.h"
 805              		.file 9 "ChibiOS_16.1.4/os/rt/ports/ARMCMx/chcore.h"
 806              		.file 10 "ChibiOS_16.1.4/os/rt/ports/ARMCMx/chcore_v7m.h"
 807              		.file 11 "ChibiOS_16.1.4/os/rt/include/chtm.h"
 808              		.file 12 "ChibiOS_16.1.4/os/rt/include/chmtx.h"
 809              		.file 13 "ChibiOS_16.1.4/os/rt/include/chmboxes.h"
 810              		.file 14 "ChibiOS_16.1.4/os/rt/include/chsys.h"
 811              		.file 15 "ChibiOS_16.1.4/os/ext/CMSIS/include/core_cm4.h"