ARM GAS  /var/folders/m4/4md61f0s1_g0rzfghffqnxvr0000gn/T//ccmZTAOQ.s 			page 1


   1              		.syntax unified
   2              		.cpu cortex-m4
   3              		.eabi_attribute 27, 1
   4              		.eabi_attribute 28, 1
   5              		.fpu fpv4-sp-d16
   6              		.eabi_attribute 20, 1
   7              		.eabi_attribute 21, 1
   8              		.eabi_attribute 23, 3
   9              		.eabi_attribute 24, 1
  10              		.eabi_attribute 25, 1
  11              		.eabi_attribute 26, 1
  12              		.eabi_attribute 30, 2
  13              		.eabi_attribute 34, 1
  14              		.eabi_attribute 18, 4
  15              		.thumb
  16              		.file	"chmsg.c"
  17              		.text
  18              	.Ltext0:
  19              		.cfi_sections	.debug_frame
  20              		.section	.text.chMsgSend,"ax",%progbits
  21              		.align	2
  22              		.p2align 4,,15
  23              		.global	chMsgSend
  24              		.thumb
  25              		.thumb_func
  26              		.type	chMsgSend, %function
  27              	chMsgSend:
  28              	.LFB231:
  29              		.file 1 "ChibiOS_16.1.4/os/rt/src/chmsg.c"
  30              		.loc 1 87 0
  31              		.cfi_startproc
  32              		@ args = 0, pretend = 0, frame = 0
  33              		@ frame_needed = 0, uses_anonymous_args = 0
  34              	.LVL0:
  35              		.loc 1 88 0
  36 0000 0E4B     		ldr	r3, .L6
  37              		.loc 1 87 0
  38 0002 70B5     		push	{r4, r5, r6, lr}
  39              		.cfi_def_cfa_offset 16
  40              		.cfi_offset 4, -16
  41              		.cfi_offset 5, -12
  42              		.cfi_offset 6, -8
  43              		.cfi_offset 14, -4
  44              	.LBB52:
  45              	.LBB53:
  46              	.LBB54:
  47              	.LBB55:
  48              		.file 2 "ChibiOS_16.1.4/os/ext/CMSIS/include/core_cmFunc.h"
  49              		.loc 2 548 0
  50 0004 2022     		movs	r2, #32
  51              	.LBE55:
  52              	.LBE54:
  53              	.LBE53:
  54              	.LBE52:
  55              		.loc 1 88 0
  56 0006 9C69     		ldr	r4, [r3, #24]
  57              	.LVL1:
ARM GAS  /var/folders/m4/4md61f0s1_g0rzfghffqnxvr0000gn/T//ccmZTAOQ.s 			page 2


  58              	.LBB59:
  59              	.LBB58:
  60              	.LBB57:
  61              	.LBB56:
  62              		.loc 2 548 0
  63              	@ 548 "ChibiOS_16.1.4/os/ext/CMSIS/include/core_cmFunc.h" 1
  64 0008 82F31188 		MSR basepri, r2
  65              	@ 0 "" 2
  66              		.thumb
  67              	.LBE56:
  68              	.LBE57:
  69              	.LBE58:
  70              	.LBE59:
  71              		.loc 1 94 0
  72 000c 00F12C05 		add	r5, r0, #44
  73              		.loc 1 96 0
  74 0010 067F     		ldrb	r6, [r0, #28]	@ zero_extendqisi2
  75              		.loc 1 94 0
  76 0012 6562     		str	r5, [r4, #36]
  77              	.LVL2:
  78              	.LBB60:
  79              	.LBB61:
  80              		.file 3 "ChibiOS_16.1.4/os/rt/include/chschd.h"
  81              		.loc 3 666 0
  82 0014 026B     		ldr	r2, [r0, #48]
  83 0016 6260     		str	r2, [r4, #4]
  84              	.LBE61:
  85              	.LBE60:
  86              		.loc 1 96 0
  87 0018 0E2E     		cmp	r6, #14
  88              		.loc 1 93 0
  89 001a 6163     		str	r1, [r4, #52]
  90              	.LBB63:
  91              	.LBB62:
  92              		.loc 3 665 0
  93 001c 2560     		str	r5, [r4]
  94              		.loc 3 667 0
  95 001e 1460     		str	r4, [r2]
  96              		.loc 3 668 0
  97 0020 0463     		str	r4, [r0, #48]
  98              	.LBE62:
  99              	.LBE63:
 100              		.loc 1 96 0
 101 0022 07D0     		beq	.L5
 102              	.LVL3:
 103              	.L2:
 104              		.loc 1 99 0
 105 0024 0C20     		movs	r0, #12
 106 0026 FFF7FEFF 		bl	chSchGoSleepS
 107              	.LVL4:
 108              		.loc 1 100 0
 109 002a 606A     		ldr	r0, [r4, #36]
 110              	.LVL5:
 111              	.LBB64:
 112              	.LBB65:
 113              	.LBB66:
 114              	.LBB67:
ARM GAS  /var/folders/m4/4md61f0s1_g0rzfghffqnxvr0000gn/T//ccmZTAOQ.s 			page 3


 115              	.LBB68:
 116              		.loc 2 548 0
 117 002c 0023     		movs	r3, #0
 118              	@ 548 "ChibiOS_16.1.4/os/ext/CMSIS/include/core_cmFunc.h" 1
 119 002e 83F31188 		MSR basepri, r3
 120              	@ 0 "" 2
 121              		.thumb
 122              	.LBE68:
 123              	.LBE67:
 124              	.LBE66:
 125              	.LBE65:
 126              	.LBE64:
 127              		.loc 1 104 0
 128 0032 70BD     		pop	{r4, r5, r6, pc}
 129              	.LVL6:
 130              	.L5:
 131              		.loc 1 97 0
 132 0034 FFF7FEFF 		bl	chSchReadyI
 133              	.LVL7:
 134 0038 F4E7     		b	.L2
 135              	.L7:
 136 003a 00BF     		.align	2
 137              	.L6:
 138 003c 00000000 		.word	ch
 139              		.cfi_endproc
 140              	.LFE231:
 141              		.size	chMsgSend, .-chMsgSend
 142              		.section	.text.chMsgWait,"ax",%progbits
 143              		.align	2
 144              		.p2align 4,,15
 145              		.global	chMsgWait
 146              		.thumb
 147              		.thumb_func
 148              		.type	chMsgWait, %function
 149              	chMsgWait:
 150              	.LFB232:
 151              		.loc 1 120 0
 152              		.cfi_startproc
 153              		@ args = 0, pretend = 0, frame = 0
 154              		@ frame_needed = 0, uses_anonymous_args = 0
 155              	.LVL8:
 156 0000 10B5     		push	{r4, lr}
 157              		.cfi_def_cfa_offset 8
 158              		.cfi_offset 4, -8
 159              		.cfi_offset 14, -4
 160              	.LBB69:
 161              	.LBB70:
 162              	.LBB71:
 163              	.LBB72:
 164              		.loc 2 548 0
 165 0002 2023     		movs	r3, #32
 166              	@ 548 "ChibiOS_16.1.4/os/ext/CMSIS/include/core_cmFunc.h" 1
 167 0004 83F31188 		MSR basepri, r3
 168              	@ 0 "" 2
 169              		.thumb
 170              	.LBE72:
 171              	.LBE71:
ARM GAS  /var/folders/m4/4md61f0s1_g0rzfghffqnxvr0000gn/T//ccmZTAOQ.s 			page 4


 172              	.LBE70:
 173              	.LBE69:
 174              		.loc 1 124 0
 175 0008 0B4C     		ldr	r4, .L12
 176 000a A269     		ldr	r2, [r4, #24]
 177              	.LVL9:
 178              	.LBB73:
 179              	.LBB74:
 180              		.file 4 "ChibiOS_16.1.4/os/rt/include/chmsg.h"
 181              		.loc 4 83 0
 182 000c 1346     		mov	r3, r2
 183 000e 53F82C0F 		ldr	r0, [r3, #44]!
 184              	.LBE74:
 185              	.LBE73:
 186              		.loc 1 124 0
 187 0012 9842     		cmp	r0, r3
 188 0014 08D0     		beq	.L11
 189              	.LVL10:
 190              	.L9:
 191              	.LBB75:
 192              	.LBB76:
 193              		.loc 3 674 0
 194 0016 0168     		ldr	r1, [r0]
 195 0018 D162     		str	r1, [r2, #44]
 196              	.LBE76:
 197              	.LBE75:
 198              		.loc 1 128 0
 199 001a 0D22     		movs	r2, #13
 200              	.LBB78:
 201              	.LBB77:
 202              		.loc 3 675 0
 203 001c 4B60     		str	r3, [r1, #4]
 204              	.LBE77:
 205              	.LBE78:
 206              	.LBB79:
 207              	.LBB80:
 208              	.LBB81:
 209              	.LBB82:
 210              	.LBB83:
 211              		.loc 2 548 0
 212 001e 0023     		movs	r3, #0
 213              	.LVL11:
 214              	.LBE83:
 215              	.LBE82:
 216              	.LBE81:
 217              	.LBE80:
 218              	.LBE79:
 219              		.loc 1 128 0
 220 0020 0277     		strb	r2, [r0, #28]
 221              	.LVL12:
 222              	.LBB88:
 223              	.LBB87:
 224              	.LBB86:
 225              	.LBB85:
 226              	.LBB84:
 227              		.loc 2 548 0
 228              	@ 548 "ChibiOS_16.1.4/os/ext/CMSIS/include/core_cmFunc.h" 1
ARM GAS  /var/folders/m4/4md61f0s1_g0rzfghffqnxvr0000gn/T//ccmZTAOQ.s 			page 5


 229 0022 83F31188 		MSR basepri, r3
 230              	@ 0 "" 2
 231              		.thumb
 232              	.LBE84:
 233              	.LBE85:
 234              	.LBE86:
 235              	.LBE87:
 236              	.LBE88:
 237              		.loc 1 132 0
 238 0026 10BD     		pop	{r4, pc}
 239              	.LVL13:
 240              	.L11:
 241              		.loc 1 125 0
 242 0028 0E20     		movs	r0, #14
 243 002a FFF7FEFF 		bl	chSchGoSleepS
 244              	.LVL14:
 245 002e A269     		ldr	r2, [r4, #24]
 246 0030 D06A     		ldr	r0, [r2, #44]
 247 0032 02F12C03 		add	r3, r2, #44
 248 0036 EEE7     		b	.L9
 249              	.L13:
 250              		.align	2
 251              	.L12:
 252 0038 00000000 		.word	ch
 253              		.cfi_endproc
 254              	.LFE232:
 255              		.size	chMsgWait, .-chMsgWait
 256              		.section	.text.chMsgRelease,"ax",%progbits
 257              		.align	2
 258              		.p2align 4,,15
 259              		.global	chMsgRelease
 260              		.thumb
 261              		.thumb_func
 262              		.type	chMsgRelease, %function
 263              	chMsgRelease:
 264              	.LFB233:
 265              		.loc 1 144 0
 266              		.cfi_startproc
 267              		@ args = 0, pretend = 0, frame = 0
 268              		@ frame_needed = 0, uses_anonymous_args = 0
 269              	.LVL15:
 270 0000 08B5     		push	{r3, lr}
 271              		.cfi_def_cfa_offset 8
 272              		.cfi_offset 3, -8
 273              		.cfi_offset 14, -4
 274              	.LBB89:
 275              	.LBB90:
 276              	.LBB91:
 277              	.LBB92:
 278              		.loc 2 548 0
 279 0002 2023     		movs	r3, #32
 280              	@ 548 "ChibiOS_16.1.4/os/ext/CMSIS/include/core_cmFunc.h" 1
 281 0004 83F31188 		MSR basepri, r3
 282              	@ 0 "" 2
 283              	.LVL16:
 284              		.thumb
 285              	.LBE92:
ARM GAS  /var/folders/m4/4md61f0s1_g0rzfghffqnxvr0000gn/T//ccmZTAOQ.s 			page 6


 286              	.LBE91:
 287              	.LBE90:
 288              	.LBE89:
 289              	.LBB93:
 290              	.LBB94:
 291              		.loc 4 115 0
 292 0008 FFF7FEFF 		bl	chSchWakeupS
 293              	.LVL17:
 294              	.LBE94:
 295              	.LBE93:
 296              	.LBB95:
 297              	.LBB96:
 298              	.LBB97:
 299              	.LBB98:
 300              	.LBB99:
 301              		.loc 2 548 0
 302 000c 0023     		movs	r3, #0
 303              	@ 548 "ChibiOS_16.1.4/os/ext/CMSIS/include/core_cmFunc.h" 1
 304 000e 83F31188 		MSR basepri, r3
 305              	@ 0 "" 2
 306              		.thumb
 307 0012 08BD     		pop	{r3, pc}
 308              	.LBE99:
 309              	.LBE98:
 310              	.LBE97:
 311              	.LBE96:
 312              	.LBE95:
 313              		.cfi_endproc
 314              	.LFE233:
 315              		.size	chMsgRelease, .-chMsgRelease
 316              		.text
 317              	.Letext0:
 318              		.file 5 "/usr/local/Cellar/gcc-arm-none-eabi-49/20150609/arm-none-eabi/include/machine/_default_ty
 319              		.file 6 "/usr/local/Cellar/gcc-arm-none-eabi-49/20150609/arm-none-eabi/include/sys/_stdint.h"
 320              		.file 7 "ChibiOS_16.1.4/os/rt/ports/ARMCMx/compilers/GCC/chtypes.h"
 321              		.file 8 "ChibiOS_16.1.4/os/rt/include/chsystypes.h"
 322              		.file 9 "ChibiOS_16.1.4/os/rt/ports/ARMCMx/chcore.h"
 323              		.file 10 "ChibiOS_16.1.4/os/rt/ports/ARMCMx/chcore_v7m.h"
 324              		.file 11 "ChibiOS_16.1.4/os/rt/include/chtm.h"
 325              		.file 12 "ChibiOS_16.1.4/os/rt/include/chsem.h"
 326              		.file 13 "ChibiOS_16.1.4/os/rt/include/chmtx.h"
 327              		.file 14 "ChibiOS_16.1.4/os/rt/include/chsys.h"
 328              		.file 15 "ChibiOS_16.1.4/os/ext/CMSIS/include/core_cm4.h"
 329              		.section	.debug_info,"",%progbits
 330              	.Ldebug_info0:
 331 0000 9C0B0000 		.4byte	0xb9c
 332 0004 0400     		.2byte	0x4
 333 0006 00000000 		.4byte	.Ldebug_abbrev0
 334 000a 04       		.byte	0x4
 335 000b 01       		.uleb128 0x1
 336 000c 79020000 		.4byte	.LASF119
 337 0010 01       		.byte	0x1
 338 0011 08050000 		.4byte	.LASF120
 339 0015 00000000 		.4byte	.LASF121
 340 0019 60000000 		.4byte	.Ldebug_ranges0+0x60
 341 001d 00000000 		.4byte	0
 342 0021 00000000 		.4byte	.Ldebug_line0
ARM GAS  /var/folders/m4/4md61f0s1_g0rzfghffqnxvr0000gn/T//ccmZTAOQ.s 			page 7


 343 0025 02       		.uleb128 0x2
 344 0026 04       		.byte	0x4
 345 0027 05       		.byte	0x5
 346 0028 696E7400 		.ascii	"int\000"
 347 002c 03       		.uleb128 0x3
 348 002d 04       		.byte	0x4
 349 002e 07       		.byte	0x7
 350 002f BA010000 		.4byte	.LASF0
 351 0033 03       		.uleb128 0x3
 352 0034 01       		.byte	0x1
 353 0035 06       		.byte	0x6
 354 0036 FF000000 		.4byte	.LASF1
 355 003a 04       		.uleb128 0x4
 356 003b 5C000000 		.4byte	.LASF5
 357 003f 05       		.byte	0x5
 358 0040 1D       		.byte	0x1d
 359 0041 45000000 		.4byte	0x45
 360 0045 03       		.uleb128 0x3
 361 0046 01       		.byte	0x1
 362 0047 08       		.byte	0x8
 363 0048 60040000 		.4byte	.LASF2
 364 004c 03       		.uleb128 0x3
 365 004d 02       		.byte	0x2
 366 004e 05       		.byte	0x5
 367 004f 78040000 		.4byte	.LASF3
 368 0053 03       		.uleb128 0x3
 369 0054 02       		.byte	0x2
 370 0055 07       		.byte	0x7
 371 0056 F7010000 		.4byte	.LASF4
 372 005a 04       		.uleb128 0x4
 373 005b 55020000 		.4byte	.LASF6
 374 005f 05       		.byte	0x5
 375 0060 3F       		.byte	0x3f
 376 0061 65000000 		.4byte	0x65
 377 0065 03       		.uleb128 0x3
 378 0066 04       		.byte	0x4
 379 0067 05       		.byte	0x5
 380 0068 42010000 		.4byte	.LASF7
 381 006c 04       		.uleb128 0x4
 382 006d AD050000 		.4byte	.LASF8
 383 0071 05       		.byte	0x5
 384 0072 41       		.byte	0x41
 385 0073 77000000 		.4byte	0x77
 386 0077 03       		.uleb128 0x3
 387 0078 04       		.byte	0x4
 388 0079 07       		.byte	0x7
 389 007a 5D050000 		.4byte	.LASF9
 390 007e 03       		.uleb128 0x3
 391 007f 08       		.byte	0x8
 392 0080 05       		.byte	0x5
 393 0081 F1000000 		.4byte	.LASF10
 394 0085 04       		.uleb128 0x4
 395 0086 10040000 		.4byte	.LASF11
 396 008a 05       		.byte	0x5
 397 008b 5B       		.byte	0x5b
 398 008c 90000000 		.4byte	0x90
 399 0090 03       		.uleb128 0x3
ARM GAS  /var/folders/m4/4md61f0s1_g0rzfghffqnxvr0000gn/T//ccmZTAOQ.s 			page 8


 400 0091 08       		.byte	0x8
 401 0092 07       		.byte	0x7
 402 0093 8B000000 		.4byte	.LASF12
 403 0097 04       		.uleb128 0x4
 404 0098 1E060000 		.4byte	.LASF13
 405 009c 06       		.byte	0x6
 406 009d 14       		.byte	0x14
 407 009e 3A000000 		.4byte	0x3a
 408 00a2 04       		.uleb128 0x4
 409 00a3 58040000 		.4byte	.LASF14
 410 00a7 06       		.byte	0x6
 411 00a8 1F       		.byte	0x1f
 412 00a9 5A000000 		.4byte	0x5a
 413 00ad 04       		.uleb128 0x4
 414 00ae 29050000 		.4byte	.LASF15
 415 00b2 06       		.byte	0x6
 416 00b3 20       		.byte	0x20
 417 00b4 6C000000 		.4byte	0x6c
 418 00b8 04       		.uleb128 0x4
 419 00b9 53000000 		.4byte	.LASF16
 420 00bd 06       		.byte	0x6
 421 00be 26       		.byte	0x26
 422 00bf 85000000 		.4byte	0x85
 423 00c3 04       		.uleb128 0x4
 424 00c4 DF050000 		.4byte	.LASF17
 425 00c8 07       		.byte	0x7
 426 00c9 39       		.byte	0x39
 427 00ca AD000000 		.4byte	0xad
 428 00ce 04       		.uleb128 0x4
 429 00cf 33020000 		.4byte	.LASF18
 430 00d3 07       		.byte	0x7
 431 00d4 3C       		.byte	0x3c
 432 00d5 97000000 		.4byte	0x97
 433 00d9 04       		.uleb128 0x4
 434 00da 55010000 		.4byte	.LASF19
 435 00de 07       		.byte	0x7
 436 00df 3D       		.byte	0x3d
 437 00e0 97000000 		.4byte	0x97
 438 00e4 04       		.uleb128 0x4
 439 00e5 1B040000 		.4byte	.LASF20
 440 00e9 07       		.byte	0x7
 441 00ea 3E       		.byte	0x3e
 442 00eb 97000000 		.4byte	0x97
 443 00ef 04       		.uleb128 0x4
 444 00f0 2E010000 		.4byte	.LASF21
 445 00f4 07       		.byte	0x7
 446 00f5 3F       		.byte	0x3f
 447 00f6 97000000 		.4byte	0x97
 448 00fa 04       		.uleb128 0x4
 449 00fb 3A040000 		.4byte	.LASF22
 450 00ff 07       		.byte	0x7
 451 0100 40       		.byte	0x40
 452 0101 AD000000 		.4byte	0xad
 453 0105 04       		.uleb128 0x4
 454 0106 21020000 		.4byte	.LASF23
 455 010a 07       		.byte	0x7
 456 010b 41       		.byte	0x41
ARM GAS  /var/folders/m4/4md61f0s1_g0rzfghffqnxvr0000gn/T//ccmZTAOQ.s 			page 9


 457 010c A2000000 		.4byte	0xa2
 458 0110 04       		.uleb128 0x4
 459 0111 49020000 		.4byte	.LASF24
 460 0115 07       		.byte	0x7
 461 0116 43       		.byte	0x43
 462 0117 AD000000 		.4byte	0xad
 463 011b 04       		.uleb128 0x4
 464 011c B4010000 		.4byte	.LASF25
 465 0120 07       		.byte	0x7
 466 0121 45       		.byte	0x45
 467 0122 A2000000 		.4byte	0xa2
 468 0126 04       		.uleb128 0x4
 469 0127 8F050000 		.4byte	.LASF26
 470 012b 08       		.byte	0x8
 471 012c 33       		.byte	0x33
 472 012d AD000000 		.4byte	0xad
 473 0131 04       		.uleb128 0x4
 474 0132 74050000 		.4byte	.LASF27
 475 0136 08       		.byte	0x8
 476 0137 3F       		.byte	0x3f
 477 0138 3C010000 		.4byte	0x13c
 478 013c 05       		.uleb128 0x5
 479 013d 0A020000 		.4byte	.LASF49
 480 0141 48       		.byte	0x48
 481 0142 03       		.byte	0x3
 482 0143 C2       		.byte	0xc2
 483 0144 41020000 		.4byte	0x241
 484 0148 06       		.uleb128 0x6
 485 0149 A2040000 		.4byte	.LASF28
 486 014d 03       		.byte	0x3
 487 014e C3       		.byte	0xc3
 488 014f 4C020000 		.4byte	0x24c
 489 0153 00       		.byte	0
 490 0154 06       		.uleb128 0x6
 491 0155 33040000 		.4byte	.LASF29
 492 0159 03       		.byte	0x3
 493 015a C5       		.byte	0xc5
 494 015b 4C020000 		.4byte	0x24c
 495 015f 04       		.byte	0x4
 496 0160 06       		.uleb128 0x6
 497 0161 EA000000 		.4byte	.LASF30
 498 0165 03       		.byte	0x3
 499 0166 C7       		.byte	0xc7
 500 0167 FA000000 		.4byte	0xfa
 501 016b 08       		.byte	0x8
 502 016c 06       		.uleb128 0x6
 503 016d 67060000 		.4byte	.LASF31
 504 0171 03       		.byte	0x3
 505 0172 C8       		.byte	0xc8
 506 0173 7C040000 		.4byte	0x47c
 507 0177 0C       		.byte	0xc
 508 0178 06       		.uleb128 0x6
 509 0179 6E010000 		.4byte	.LASF32
 510 017d 03       		.byte	0x3
 511 017e CA       		.byte	0xca
 512 017f 4C020000 		.4byte	0x24c
 513 0183 10       		.byte	0x10
ARM GAS  /var/folders/m4/4md61f0s1_g0rzfghffqnxvr0000gn/T//ccmZTAOQ.s 			page 10


 514 0184 06       		.uleb128 0x6
 515 0185 D8030000 		.4byte	.LASF33
 516 0189 03       		.byte	0x3
 517 018a CB       		.byte	0xcb
 518 018b 4C020000 		.4byte	0x24c
 519 018f 14       		.byte	0x14
 520 0190 06       		.uleb128 0x6
 521 0191 2D060000 		.4byte	.LASF34
 522 0195 03       		.byte	0x3
 523 0196 D2       		.byte	0xd2
 524 0197 CA060000 		.4byte	0x6ca
 525 019b 18       		.byte	0x18
 526 019c 06       		.uleb128 0x6
 527 019d 82040000 		.4byte	.LASF35
 528 01a1 03       		.byte	0x3
 529 01a2 DD       		.byte	0xdd
 530 01a3 D9000000 		.4byte	0xd9
 531 01a7 1C       		.byte	0x1c
 532 01a8 06       		.uleb128 0x6
 533 01a9 A9040000 		.4byte	.LASF36
 534 01ad 03       		.byte	0x3
 535 01ae E1       		.byte	0xe1
 536 01af CE000000 		.4byte	0xce
 537 01b3 1D       		.byte	0x1d
 538 01b4 06       		.uleb128 0x6
 539 01b5 11060000 		.4byte	.LASF37
 540 01b9 03       		.byte	0x3
 541 01ba E6       		.byte	0xe6
 542 01bb E4000000 		.4byte	0xe4
 543 01bf 1E       		.byte	0x1e
 544 01c0 06       		.uleb128 0x6
 545 01c1 8A040000 		.4byte	.LASF38
 546 01c5 03       		.byte	0x3
 547 01c6 EC       		.byte	0xec
 548 01c7 EF000000 		.4byte	0xef
 549 01cb 1F       		.byte	0x1f
 550 01cc 06       		.uleb128 0x6
 551 01cd CF010000 		.4byte	.LASF39
 552 01d1 03       		.byte	0x3
 553 01d2 F3       		.byte	0xf3
 554 01d3 DC060000 		.4byte	0x6dc
 555 01d7 20       		.byte	0x20
 556 01d8 07       		.uleb128 0x7
 557 01d9 705F7500 		.ascii	"p_u\000"
 558 01dd 03       		.byte	0x3
 559 01de 3101     		.2byte	0x131
 560 01e0 05060000 		.4byte	0x605
 561 01e4 24       		.byte	0x24
 562 01e5 08       		.uleb128 0x8
 563 01e6 9B030000 		.4byte	.LASF40
 564 01ea 03       		.byte	0x3
 565 01eb 3601     		.2byte	0x136
 566 01ed 52020000 		.4byte	0x252
 567 01f1 28       		.byte	0x28
 568 01f2 08       		.uleb128 0x8
 569 01f3 E6010000 		.4byte	.LASF41
 570 01f7 03       		.byte	0x3
ARM GAS  /var/folders/m4/4md61f0s1_g0rzfghffqnxvr0000gn/T//ccmZTAOQ.s 			page 11


 571 01f8 3C01     		.2byte	0x13c
 572 01fa 76020000 		.4byte	0x276
 573 01fe 2C       		.byte	0x2c
 574 01ff 08       		.uleb128 0x8
 575 0200 4B060000 		.4byte	.LASF42
 576 0204 03       		.byte	0x3
 577 0205 4001     		.2byte	0x140
 578 0207 05010000 		.4byte	0x105
 579 020b 34       		.byte	0x34
 580 020c 08       		.uleb128 0x8
 581 020d FD040000 		.4byte	.LASF43
 582 0211 03       		.byte	0x3
 583 0212 4601     		.2byte	0x146
 584 0214 10010000 		.4byte	0x110
 585 0218 38       		.byte	0x38
 586 0219 08       		.uleb128 0x8
 587 021a 6E040000 		.4byte	.LASF44
 588 021e 03       		.byte	0x3
 589 021f 4D01     		.2byte	0x14d
 590 0221 C4060000 		.4byte	0x6c4
 591 0225 3C       		.byte	0x3c
 592 0226 08       		.uleb128 0x8
 593 0227 99050000 		.4byte	.LASF45
 594 022b 03       		.byte	0x3
 595 022c 5101     		.2byte	0x151
 596 022e FA000000 		.4byte	0xfa
 597 0232 40       		.byte	0x40
 598 0233 08       		.uleb128 0x8
 599 0234 0B010000 		.4byte	.LASF46
 600 0238 03       		.byte	0x3
 601 0239 5801     		.2byte	0x158
 602 023b 29030000 		.4byte	0x329
 603 023f 44       		.byte	0x44
 604 0240 00       		.byte	0
 605 0241 04       		.uleb128 0x4
 606 0242 AE030000 		.4byte	.LASF47
 607 0246 08       		.byte	0x8
 608 0247 44       		.byte	0x44
 609 0248 4C020000 		.4byte	0x24c
 610 024c 09       		.uleb128 0x9
 611 024d 04       		.byte	0x4
 612 024e 31010000 		.4byte	0x131
 613 0252 04       		.uleb128 0x4
 614 0253 6A020000 		.4byte	.LASF48
 615 0257 08       		.byte	0x8
 616 0258 49       		.byte	0x49
 617 0259 5D020000 		.4byte	0x25d
 618 025d 05       		.uleb128 0x5
 619 025e 4D050000 		.4byte	.LASF50
 620 0262 04       		.byte	0x4
 621 0263 03       		.byte	0x3
 622 0264 B0       		.byte	0xb0
 623 0265 76020000 		.4byte	0x276
 624 0269 06       		.uleb128 0x6
 625 026a A2040000 		.4byte	.LASF28
 626 026e 03       		.byte	0x3
 627 026f B1       		.byte	0xb1
ARM GAS  /var/folders/m4/4md61f0s1_g0rzfghffqnxvr0000gn/T//ccmZTAOQ.s 			page 12


 628 0270 4C020000 		.4byte	0x24c
 629 0274 00       		.byte	0
 630 0275 00       		.byte	0
 631 0276 04       		.uleb128 0x4
 632 0277 F8050000 		.4byte	.LASF51
 633 027b 08       		.byte	0x8
 634 027c 50       		.byte	0x50
 635 027d 81020000 		.4byte	0x281
 636 0281 05       		.uleb128 0x5
 637 0282 D9000000 		.4byte	.LASF52
 638 0286 08       		.byte	0x8
 639 0287 03       		.byte	0x3
 640 0288 B7       		.byte	0xb7
 641 0289 A6020000 		.4byte	0x2a6
 642 028d 06       		.uleb128 0x6
 643 028e A2040000 		.4byte	.LASF28
 644 0292 03       		.byte	0x3
 645 0293 B8       		.byte	0xb8
 646 0294 4C020000 		.4byte	0x24c
 647 0298 00       		.byte	0
 648 0299 06       		.uleb128 0x6
 649 029a 33040000 		.4byte	.LASF29
 650 029e 03       		.byte	0x3
 651 029f B9       		.byte	0xb9
 652 02a0 4C020000 		.4byte	0x24c
 653 02a4 04       		.byte	0x4
 654 02a5 00       		.byte	0
 655 02a6 04       		.uleb128 0x4
 656 02a7 2C000000 		.4byte	.LASF53
 657 02ab 08       		.byte	0x8
 658 02ac 57       		.byte	0x57
 659 02ad B1020000 		.4byte	0x2b1
 660 02b1 0A       		.uleb128 0xa
 661 02b2 3B020000 		.4byte	.LASF54
 662 02b6 1C       		.byte	0x1c
 663 02b7 03       		.byte	0x3
 664 02b8 9001     		.2byte	0x190
 665 02ba 0D030000 		.4byte	0x30d
 666 02be 08       		.uleb128 0x8
 667 02bf 39050000 		.4byte	.LASF55
 668 02c3 03       		.byte	0x3
 669 02c4 9101     		.2byte	0x191
 670 02c6 76020000 		.4byte	0x276
 671 02ca 00       		.byte	0
 672 02cb 08       		.uleb128 0x8
 673 02cc 94040000 		.4byte	.LASF56
 674 02d0 03       		.byte	0x3
 675 02d1 9201     		.2byte	0x192
 676 02d3 FA000000 		.4byte	0xfa
 677 02d7 08       		.byte	0x8
 678 02d8 08       		.uleb128 0x8
 679 02d9 E0030000 		.4byte	.LASF57
 680 02dd 03       		.byte	0x3
 681 02de 9401     		.2byte	0x194
 682 02e0 7C040000 		.4byte	0x47c
 683 02e4 0C       		.byte	0xc
 684 02e5 08       		.uleb128 0x8
ARM GAS  /var/folders/m4/4md61f0s1_g0rzfghffqnxvr0000gn/T//ccmZTAOQ.s 			page 13


 685 02e6 7E010000 		.4byte	.LASF58
 686 02ea 03       		.byte	0x3
 687 02eb 9701     		.2byte	0x197
 688 02ed 4C020000 		.4byte	0x24c
 689 02f1 10       		.byte	0x10
 690 02f2 08       		.uleb128 0x8
 691 02f3 08040000 		.4byte	.LASF59
 692 02f7 03       		.byte	0x3
 693 02f8 9801     		.2byte	0x198
 694 02fa 4C020000 		.4byte	0x24c
 695 02fe 14       		.byte	0x14
 696 02ff 08       		.uleb128 0x8
 697 0300 FE030000 		.4byte	.LASF60
 698 0304 03       		.byte	0x3
 699 0305 9B01     		.2byte	0x19b
 700 0307 4C020000 		.4byte	0x24c
 701 030b 18       		.byte	0x18
 702 030c 00       		.byte	0
 703 030d 04       		.uleb128 0x4
 704 030e A4050000 		.4byte	.LASF61
 705 0312 08       		.byte	0x8
 706 0313 5C       		.byte	0x5c
 707 0314 18030000 		.4byte	0x318
 708 0318 09       		.uleb128 0x9
 709 0319 04       		.byte	0x4
 710 031a 1E030000 		.4byte	0x31e
 711 031e 0B       		.uleb128 0xb
 712 031f 29030000 		.4byte	0x329
 713 0323 0C       		.uleb128 0xc
 714 0324 29030000 		.4byte	0x329
 715 0328 00       		.byte	0
 716 0329 0D       		.uleb128 0xd
 717 032a 04       		.byte	0x4
 718 032b 04       		.uleb128 0x4
 719 032c 23040000 		.4byte	.LASF62
 720 0330 08       		.byte	0x8
 721 0331 61       		.byte	0x61
 722 0332 36030000 		.4byte	0x336
 723 0336 0A       		.uleb128 0xa
 724 0337 C4040000 		.4byte	.LASF63
 725 033b 14       		.byte	0x14
 726 033c 03       		.byte	0x3
 727 033d 6B01     		.2byte	0x16b
 728 033f 85030000 		.4byte	0x385
 729 0343 08       		.uleb128 0x8
 730 0344 C7010000 		.4byte	.LASF64
 731 0348 03       		.byte	0x3
 732 0349 6C01     		.2byte	0x16c
 733 034b E1060000 		.4byte	0x6e1
 734 034f 00       		.byte	0
 735 0350 08       		.uleb128 0x8
 736 0351 8F010000 		.4byte	.LASF65
 737 0355 03       		.byte	0x3
 738 0356 6D01     		.2byte	0x16d
 739 0358 E1060000 		.4byte	0x6e1
 740 035c 04       		.byte	0x4
 741 035d 08       		.uleb128 0x8
ARM GAS  /var/folders/m4/4md61f0s1_g0rzfghffqnxvr0000gn/T//ccmZTAOQ.s 			page 14


 742 035e DD010000 		.4byte	.LASF66
 743 0362 03       		.byte	0x3
 744 0363 6E01     		.2byte	0x16e
 745 0365 26010000 		.4byte	0x126
 746 0369 08       		.byte	0x8
 747 036a 08       		.uleb128 0x8
 748 036b 6D060000 		.4byte	.LASF67
 749 036f 03       		.byte	0x3
 750 0370 6F01     		.2byte	0x16f
 751 0372 0D030000 		.4byte	0x30d
 752 0376 0C       		.byte	0xc
 753 0377 08       		.uleb128 0x8
 754 0378 E7050000 		.4byte	.LASF68
 755 037c 03       		.byte	0x3
 756 037d 7101     		.2byte	0x171
 757 037f 29030000 		.4byte	0x329
 758 0383 10       		.byte	0x10
 759 0384 00       		.byte	0
 760 0385 04       		.uleb128 0x4
 761 0386 B6000000 		.4byte	.LASF69
 762 038a 08       		.byte	0x8
 763 038b 66       		.byte	0x66
 764 038c 90030000 		.4byte	0x390
 765 0390 0A       		.uleb128 0xa
 766 0391 C1030000 		.4byte	.LASF70
 767 0395 10       		.byte	0x10
 768 0396 03       		.byte	0x3
 769 0397 7B01     		.2byte	0x17b
 770 0399 D2030000 		.4byte	0x3d2
 771 039d 08       		.uleb128 0x8
 772 039e C7010000 		.4byte	.LASF64
 773 03a2 03       		.byte	0x3
 774 03a3 7C01     		.2byte	0x17c
 775 03a5 E1060000 		.4byte	0x6e1
 776 03a9 00       		.byte	0
 777 03aa 08       		.uleb128 0x8
 778 03ab 8F010000 		.4byte	.LASF65
 779 03af 03       		.byte	0x3
 780 03b0 7E01     		.2byte	0x17e
 781 03b2 E1060000 		.4byte	0x6e1
 782 03b6 04       		.byte	0x4
 783 03b7 08       		.uleb128 0x8
 784 03b8 DD010000 		.4byte	.LASF66
 785 03bc 03       		.byte	0x3
 786 03bd 8001     		.2byte	0x180
 787 03bf 26010000 		.4byte	0x126
 788 03c3 08       		.byte	0x8
 789 03c4 08       		.uleb128 0x8
 790 03c5 34060000 		.4byte	.LASF71
 791 03c9 03       		.byte	0x3
 792 03ca 8201     		.2byte	0x182
 793 03cc DC060000 		.4byte	0x6dc
 794 03d0 0C       		.byte	0xc
 795 03d1 00       		.byte	0
 796 03d2 04       		.uleb128 0x4
 797 03d3 72000000 		.4byte	.LASF72
 798 03d7 08       		.byte	0x8
ARM GAS  /var/folders/m4/4md61f0s1_g0rzfghffqnxvr0000gn/T//ccmZTAOQ.s 			page 15


 799 03d8 6B       		.byte	0x6b
 800 03d9 DD030000 		.4byte	0x3dd
 801 03dd 0A       		.uleb128 0xa
 802 03de 42040000 		.4byte	.LASF73
 803 03e2 04       		.byte	0x4
 804 03e3 03       		.byte	0x3
 805 03e4 A201     		.2byte	0x1a2
 806 03e6 F8030000 		.4byte	0x3f8
 807 03ea 08       		.uleb128 0x8
 808 03eb C6050000 		.4byte	.LASF74
 809 03ef 03       		.byte	0x3
 810 03f0 AA01     		.2byte	0x1aa
 811 03f2 E7060000 		.4byte	0x6e7
 812 03f6 00       		.byte	0
 813 03f7 00       		.byte	0
 814 03f8 04       		.uleb128 0x4
 815 03f9 27020000 		.4byte	.LASF75
 816 03fd 08       		.byte	0x8
 817 03fe 70       		.byte	0x70
 818 03ff 03040000 		.4byte	0x403
 819 0403 0E       		.uleb128 0xe
 820 0404 38010000 		.4byte	.LASF76
 821 0408 5802     		.2byte	0x258
 822 040a 03       		.byte	0x3
 823 040b C201     		.2byte	0x1c2
 824 040d 5F040000 		.4byte	0x45f
 825 0411 08       		.uleb128 0x8
 826 0412 18060000 		.4byte	.LASF77
 827 0416 03       		.byte	0x3
 828 0417 C601     		.2byte	0x1c6
 829 0419 A6020000 		.4byte	0x2a6
 830 041d 00       		.byte	0
 831 041e 08       		.uleb128 0x8
 832 041f 1B010000 		.4byte	.LASF78
 833 0423 03       		.byte	0x3
 834 0424 CA01     		.2byte	0x1ca
 835 0426 85030000 		.4byte	0x385
 836 042a 1C       		.byte	0x1c
 837 042b 07       		.uleb128 0x7
 838 042c 64626700 		.ascii	"dbg\000"
 839 0430 03       		.byte	0x3
 840 0431 CE01     		.2byte	0x1ce
 841 0433 D2030000 		.4byte	0x3d2
 842 0437 2C       		.byte	0x2c
 843 0438 08       		.uleb128 0x8
 844 0439 AB000000 		.4byte	.LASF79
 845 043d 03       		.byte	0x3
 846 043e D201     		.2byte	0x1d2
 847 0440 31010000 		.4byte	0x131
 848 0444 30       		.byte	0x30
 849 0445 07       		.uleb128 0x7
 850 0446 746D00   		.ascii	"tm\000"
 851 0449 03       		.byte	0x3
 852 044a D701     		.2byte	0x1d7
 853 044c FA050000 		.4byte	0x5fa
 854 0450 78       		.byte	0x78
 855 0451 08       		.uleb128 0x8
ARM GAS  /var/folders/m4/4md61f0s1_g0rzfghffqnxvr0000gn/T//ccmZTAOQ.s 			page 16


 856 0452 A5010000 		.4byte	.LASF80
 857 0456 03       		.byte	0x3
 858 0457 E301     		.2byte	0x1e3
 859 0459 EC060000 		.4byte	0x6ec
 860 045d 80       		.byte	0x80
 861 045e 00       		.byte	0
 862 045f 03       		.uleb128 0x3
 863 0460 04       		.byte	0x4
 864 0461 07       		.byte	0x7
 865 0462 A5030000 		.4byte	.LASF81
 866 0466 04       		.uleb128 0x4
 867 0467 86010000 		.4byte	.LASF82
 868 046b 09       		.byte	0x9
 869 046c 65       		.byte	0x65
 870 046d 29030000 		.4byte	0x329
 871 0471 04       		.uleb128 0x4
 872 0472 5F020000 		.4byte	.LASF83
 873 0476 09       		.byte	0x9
 874 0477 6D       		.byte	0x6d
 875 0478 B8000000 		.4byte	0xb8
 876 047c 05       		.uleb128 0x5
 877 047d D7050000 		.4byte	.LASF84
 878 0481 04       		.byte	0x4
 879 0482 09       		.byte	0x9
 880 0483 89       		.byte	0x89
 881 0484 95040000 		.4byte	0x495
 882 0488 0F       		.uleb128 0xf
 883 0489 72313300 		.ascii	"r13\000"
 884 048d 09       		.byte	0x9
 885 048e 8A       		.byte	0x8a
 886 048f DF050000 		.4byte	0x5df
 887 0493 00       		.byte	0
 888 0494 00       		.byte	0
 889 0495 05       		.uleb128 0x5
 890 0496 66000000 		.4byte	.LASF85
 891 049a 64       		.byte	0x64
 892 049b 0A       		.byte	0xa
 893 049c FD       		.byte	0xfd
 894 049d DF050000 		.4byte	0x5df
 895 04a1 0F       		.uleb128 0xf
 896 04a2 73313600 		.ascii	"s16\000"
 897 04a6 0A       		.byte	0xa
 898 04a7 FF       		.byte	0xff
 899 04a8 66040000 		.4byte	0x466
 900 04ac 00       		.byte	0
 901 04ad 07       		.uleb128 0x7
 902 04ae 73313700 		.ascii	"s17\000"
 903 04b2 0A       		.byte	0xa
 904 04b3 0001     		.2byte	0x100
 905 04b5 66040000 		.4byte	0x466
 906 04b9 04       		.byte	0x4
 907 04ba 07       		.uleb128 0x7
 908 04bb 73313800 		.ascii	"s18\000"
 909 04bf 0A       		.byte	0xa
 910 04c0 0101     		.2byte	0x101
 911 04c2 66040000 		.4byte	0x466
 912 04c6 08       		.byte	0x8
ARM GAS  /var/folders/m4/4md61f0s1_g0rzfghffqnxvr0000gn/T//ccmZTAOQ.s 			page 17


 913 04c7 07       		.uleb128 0x7
 914 04c8 73313900 		.ascii	"s19\000"
 915 04cc 0A       		.byte	0xa
 916 04cd 0201     		.2byte	0x102
 917 04cf 66040000 		.4byte	0x466
 918 04d3 0C       		.byte	0xc
 919 04d4 07       		.uleb128 0x7
 920 04d5 73323000 		.ascii	"s20\000"
 921 04d9 0A       		.byte	0xa
 922 04da 0301     		.2byte	0x103
 923 04dc 66040000 		.4byte	0x466
 924 04e0 10       		.byte	0x10
 925 04e1 07       		.uleb128 0x7
 926 04e2 73323100 		.ascii	"s21\000"
 927 04e6 0A       		.byte	0xa
 928 04e7 0401     		.2byte	0x104
 929 04e9 66040000 		.4byte	0x466
 930 04ed 14       		.byte	0x14
 931 04ee 07       		.uleb128 0x7
 932 04ef 73323200 		.ascii	"s22\000"
 933 04f3 0A       		.byte	0xa
 934 04f4 0501     		.2byte	0x105
 935 04f6 66040000 		.4byte	0x466
 936 04fa 18       		.byte	0x18
 937 04fb 07       		.uleb128 0x7
 938 04fc 73323300 		.ascii	"s23\000"
 939 0500 0A       		.byte	0xa
 940 0501 0601     		.2byte	0x106
 941 0503 66040000 		.4byte	0x466
 942 0507 1C       		.byte	0x1c
 943 0508 07       		.uleb128 0x7
 944 0509 73323400 		.ascii	"s24\000"
 945 050d 0A       		.byte	0xa
 946 050e 0701     		.2byte	0x107
 947 0510 66040000 		.4byte	0x466
 948 0514 20       		.byte	0x20
 949 0515 07       		.uleb128 0x7
 950 0516 73323500 		.ascii	"s25\000"
 951 051a 0A       		.byte	0xa
 952 051b 0801     		.2byte	0x108
 953 051d 66040000 		.4byte	0x466
 954 0521 24       		.byte	0x24
 955 0522 07       		.uleb128 0x7
 956 0523 73323600 		.ascii	"s26\000"
 957 0527 0A       		.byte	0xa
 958 0528 0901     		.2byte	0x109
 959 052a 66040000 		.4byte	0x466
 960 052e 28       		.byte	0x28
 961 052f 07       		.uleb128 0x7
 962 0530 73323700 		.ascii	"s27\000"
 963 0534 0A       		.byte	0xa
 964 0535 0A01     		.2byte	0x10a
 965 0537 66040000 		.4byte	0x466
 966 053b 2C       		.byte	0x2c
 967 053c 07       		.uleb128 0x7
 968 053d 73323800 		.ascii	"s28\000"
 969 0541 0A       		.byte	0xa
ARM GAS  /var/folders/m4/4md61f0s1_g0rzfghffqnxvr0000gn/T//ccmZTAOQ.s 			page 18


 970 0542 0B01     		.2byte	0x10b
 971 0544 66040000 		.4byte	0x466
 972 0548 30       		.byte	0x30
 973 0549 07       		.uleb128 0x7
 974 054a 73323900 		.ascii	"s29\000"
 975 054e 0A       		.byte	0xa
 976 054f 0C01     		.2byte	0x10c
 977 0551 66040000 		.4byte	0x466
 978 0555 34       		.byte	0x34
 979 0556 07       		.uleb128 0x7
 980 0557 73333000 		.ascii	"s30\000"
 981 055b 0A       		.byte	0xa
 982 055c 0D01     		.2byte	0x10d
 983 055e 66040000 		.4byte	0x466
 984 0562 38       		.byte	0x38
 985 0563 07       		.uleb128 0x7
 986 0564 73333100 		.ascii	"s31\000"
 987 0568 0A       		.byte	0xa
 988 0569 0E01     		.2byte	0x10e
 989 056b 66040000 		.4byte	0x466
 990 056f 3C       		.byte	0x3c
 991 0570 07       		.uleb128 0x7
 992 0571 723400   		.ascii	"r4\000"
 993 0574 0A       		.byte	0xa
 994 0575 1001     		.2byte	0x110
 995 0577 66040000 		.4byte	0x466
 996 057b 40       		.byte	0x40
 997 057c 07       		.uleb128 0x7
 998 057d 723500   		.ascii	"r5\000"
 999 0580 0A       		.byte	0xa
 1000 0581 1101     		.2byte	0x111
 1001 0583 66040000 		.4byte	0x466
 1002 0587 44       		.byte	0x44
 1003 0588 07       		.uleb128 0x7
 1004 0589 723600   		.ascii	"r6\000"
 1005 058c 0A       		.byte	0xa
 1006 058d 1201     		.2byte	0x112
 1007 058f 66040000 		.4byte	0x466
 1008 0593 48       		.byte	0x48
 1009 0594 07       		.uleb128 0x7
 1010 0595 723700   		.ascii	"r7\000"
 1011 0598 0A       		.byte	0xa
 1012 0599 1301     		.2byte	0x113
 1013 059b 66040000 		.4byte	0x466
 1014 059f 4C       		.byte	0x4c
 1015 05a0 07       		.uleb128 0x7
 1016 05a1 723800   		.ascii	"r8\000"
 1017 05a4 0A       		.byte	0xa
 1018 05a5 1401     		.2byte	0x114
 1019 05a7 66040000 		.4byte	0x466
 1020 05ab 50       		.byte	0x50
 1021 05ac 07       		.uleb128 0x7
 1022 05ad 723900   		.ascii	"r9\000"
 1023 05b0 0A       		.byte	0xa
 1024 05b1 1501     		.2byte	0x115
 1025 05b3 66040000 		.4byte	0x466
 1026 05b7 54       		.byte	0x54
ARM GAS  /var/folders/m4/4md61f0s1_g0rzfghffqnxvr0000gn/T//ccmZTAOQ.s 			page 19


 1027 05b8 07       		.uleb128 0x7
 1028 05b9 72313000 		.ascii	"r10\000"
 1029 05bd 0A       		.byte	0xa
 1030 05be 1601     		.2byte	0x116
 1031 05c0 66040000 		.4byte	0x466
 1032 05c4 58       		.byte	0x58
 1033 05c5 07       		.uleb128 0x7
 1034 05c6 72313100 		.ascii	"r11\000"
 1035 05ca 0A       		.byte	0xa
 1036 05cb 1701     		.2byte	0x117
 1037 05cd 66040000 		.4byte	0x466
 1038 05d1 5C       		.byte	0x5c
 1039 05d2 07       		.uleb128 0x7
 1040 05d3 6C7200   		.ascii	"lr\000"
 1041 05d6 0A       		.byte	0xa
 1042 05d7 1801     		.2byte	0x118
 1043 05d9 66040000 		.4byte	0x466
 1044 05dd 60       		.byte	0x60
 1045 05de 00       		.byte	0
 1046 05df 09       		.uleb128 0x9
 1047 05e0 04       		.byte	0x4
 1048 05e1 95040000 		.4byte	0x495
 1049 05e5 10       		.uleb128 0x10
 1050 05e6 04       		.byte	0x4
 1051 05e7 0B       		.byte	0xb
 1052 05e8 38       		.byte	0x38
 1053 05e9 FA050000 		.4byte	0x5fa
 1054 05ed 06       		.uleb128 0x6
 1055 05ee D0050000 		.4byte	.LASF86
 1056 05f2 0B       		.byte	0xb
 1057 05f3 3C       		.byte	0x3c
 1058 05f4 C3000000 		.4byte	0xc3
 1059 05f8 00       		.byte	0
 1060 05f9 00       		.byte	0
 1061 05fa 04       		.uleb128 0x4
 1062 05fb E6030000 		.4byte	.LASF87
 1063 05ff 0B       		.byte	0xb
 1064 0600 3D       		.byte	0x3d
 1065 0601 E5050000 		.4byte	0x5e5
 1066 0605 11       		.uleb128 0x11
 1067 0606 04       		.byte	0x4
 1068 0607 03       		.byte	0x3
 1069 0608 FA       		.byte	0xfa
 1070 0609 62060000 		.4byte	0x662
 1071 060d 12       		.uleb128 0x12
 1072 060e 4C000000 		.4byte	.LASF88
 1073 0612 03       		.byte	0x3
 1074 0613 0101     		.2byte	0x101
 1075 0615 05010000 		.4byte	0x105
 1076 0619 12       		.uleb128 0x12
 1077 061a A2000000 		.4byte	.LASF89
 1078 061e 03       		.byte	0x3
 1079 061f 0801     		.2byte	0x108
 1080 0621 05010000 		.4byte	0x105
 1081 0625 12       		.uleb128 0x12
 1082 0626 26060000 		.4byte	.LASF90
 1083 062a 03       		.byte	0x3
ARM GAS  /var/folders/m4/4md61f0s1_g0rzfghffqnxvr0000gn/T//ccmZTAOQ.s 			page 20


 1084 062b 0F01     		.2byte	0x10f
 1085 062d 29030000 		.4byte	0x329
 1086 0631 12       		.uleb128 0x12
 1087 0632 46000000 		.4byte	.LASF91
 1088 0636 03       		.byte	0x3
 1089 0637 1601     		.2byte	0x116
 1090 0639 62060000 		.4byte	0x662
 1091 063d 12       		.uleb128 0x12
 1092 063e D6010000 		.4byte	.LASF92
 1093 0642 03       		.byte	0x3
 1094 0643 1E01     		.2byte	0x11e
 1095 0645 8D060000 		.4byte	0x68d
 1096 0649 12       		.uleb128 0x12
 1097 064a 32050000 		.4byte	.LASF93
 1098 064e 03       		.byte	0x3
 1099 064f 2701     		.2byte	0x127
 1100 0651 C4060000 		.4byte	0x6c4
 1101 0655 12       		.uleb128 0x12
 1102 0656 9B040000 		.4byte	.LASF94
 1103 065a 03       		.byte	0x3
 1104 065b 2F01     		.2byte	0x12f
 1105 065d 10010000 		.4byte	0x110
 1106 0661 00       		.byte	0
 1107 0662 09       		.uleb128 0x9
 1108 0663 04       		.byte	0x4
 1109 0664 41020000 		.4byte	0x241
 1110 0668 05       		.uleb128 0x5
 1111 0669 E2040000 		.4byte	.LASF95
 1112 066d 0C       		.byte	0xc
 1113 066e 0C       		.byte	0xc
 1114 066f 34       		.byte	0x34
 1115 0670 8D060000 		.4byte	0x68d
 1116 0674 06       		.uleb128 0x6
 1117 0675 76010000 		.4byte	.LASF96
 1118 0679 0C       		.byte	0xc
 1119 067a 35       		.byte	0x35
 1120 067b 76020000 		.4byte	0x276
 1121 067f 00       		.byte	0
 1122 0680 06       		.uleb128 0x6
 1123 0681 F1010000 		.4byte	.LASF97
 1124 0685 0C       		.byte	0xc
 1125 0686 37       		.byte	0x37
 1126 0687 1B010000 		.4byte	0x11b
 1127 068b 08       		.byte	0x8
 1128 068c 00       		.byte	0
 1129 068d 09       		.uleb128 0x9
 1130 068e 04       		.byte	0x4
 1131 068f 68060000 		.4byte	0x668
 1132 0693 05       		.uleb128 0x5
 1133 0694 08060000 		.4byte	.LASF98
 1134 0698 10       		.byte	0x10
 1135 0699 0D       		.byte	0xd
 1136 069a 39       		.byte	0x39
 1137 069b C4060000 		.4byte	0x6c4
 1138 069f 06       		.uleb128 0x6
 1139 06a0 13010000 		.4byte	.LASF99
 1140 06a4 0D       		.byte	0xd
ARM GAS  /var/folders/m4/4md61f0s1_g0rzfghffqnxvr0000gn/T//ccmZTAOQ.s 			page 21


 1141 06a5 3A       		.byte	0x3a
 1142 06a6 76020000 		.4byte	0x276
 1143 06aa 00       		.byte	0
 1144 06ab 06       		.uleb128 0x6
 1145 06ac 5F060000 		.4byte	.LASF100
 1146 06b0 0D       		.byte	0xd
 1147 06b1 3C       		.byte	0x3c
 1148 06b2 4C020000 		.4byte	0x24c
 1149 06b6 08       		.byte	0x8
 1150 06b7 06       		.uleb128 0x6
 1151 06b8 F7030000 		.4byte	.LASF101
 1152 06bc 0D       		.byte	0xd
 1153 06bd 3E       		.byte	0x3e
 1154 06be 07070000 		.4byte	0x707
 1155 06c2 0C       		.byte	0xc
 1156 06c3 00       		.byte	0
 1157 06c4 09       		.uleb128 0x9
 1158 06c5 04       		.byte	0x4
 1159 06c6 93060000 		.4byte	0x693
 1160 06ca 09       		.uleb128 0x9
 1161 06cb 04       		.byte	0x4
 1162 06cc D0060000 		.4byte	0x6d0
 1163 06d0 13       		.uleb128 0x13
 1164 06d1 D5060000 		.4byte	0x6d5
 1165 06d5 03       		.uleb128 0x3
 1166 06d6 01       		.byte	0x1
 1167 06d7 08       		.byte	0x8
 1168 06d8 6F050000 		.4byte	.LASF102
 1169 06dc 14       		.uleb128 0x14
 1170 06dd 26010000 		.4byte	0x126
 1171 06e1 09       		.uleb128 0x9
 1172 06e2 04       		.byte	0x4
 1173 06e3 2B030000 		.4byte	0x32b
 1174 06e7 14       		.uleb128 0x14
 1175 06e8 CA060000 		.4byte	0x6ca
 1176 06ec 15       		.uleb128 0x15
 1177 06ed 71040000 		.4byte	0x471
 1178 06f1 FC060000 		.4byte	0x6fc
 1179 06f5 16       		.uleb128 0x16
 1180 06f6 5F040000 		.4byte	0x45f
 1181 06fa 3A       		.byte	0x3a
 1182 06fb 00       		.byte	0
 1183 06fc 04       		.uleb128 0x4
 1184 06fd 97010000 		.4byte	.LASF103
 1185 0701 0D       		.byte	0xd
 1186 0702 34       		.byte	0x34
 1187 0703 93060000 		.4byte	0x693
 1188 0707 09       		.uleb128 0x9
 1189 0708 04       		.byte	0x4
 1190 0709 FC060000 		.4byte	0x6fc
 1191 070d 17       		.uleb128 0x17
 1192 070e B8050000 		.4byte	.LASF107
 1193 0712 02       		.byte	0x2
 1194 0713 2202     		.2byte	0x222
 1195 0715 03       		.byte	0x3
 1196 0716 27070000 		.4byte	0x727
 1197 071a 18       		.uleb128 0x18
ARM GAS  /var/folders/m4/4md61f0s1_g0rzfghffqnxvr0000gn/T//ccmZTAOQ.s 			page 22


 1198 071b 9F010000 		.4byte	.LASF109
 1199 071f 02       		.byte	0x2
 1200 0720 2202     		.2byte	0x222
 1201 0722 AD000000 		.4byte	0xad
 1202 0726 00       		.byte	0
 1203 0727 19       		.uleb128 0x19
 1204 0728 81000000 		.4byte	.LASF104
 1205 072c 0A       		.byte	0xa
 1206 072d C801     		.2byte	0x1c8
 1207 072f 03       		.byte	0x3
 1208 0730 19       		.uleb128 0x19
 1209 0731 22010000 		.4byte	.LASF105
 1210 0735 0A       		.byte	0xa
 1211 0736 E001     		.2byte	0x1e0
 1212 0738 03       		.byte	0x3
 1213 0739 19       		.uleb128 0x19
 1214 073a BA040000 		.4byte	.LASF106
 1215 073e 0E       		.byte	0xe
 1216 073f 5A01     		.2byte	0x15a
 1217 0741 03       		.byte	0x3
 1218 0742 17       		.uleb128 0x17
 1219 0743 39000000 		.4byte	.LASF108
 1220 0747 03       		.byte	0x3
 1221 0748 9702     		.2byte	0x297
 1222 074a 03       		.byte	0x3
 1223 074b 67070000 		.4byte	0x767
 1224 074f 1A       		.uleb128 0x1a
 1225 0750 747000   		.ascii	"tp\000"
 1226 0753 03       		.byte	0x3
 1227 0754 9702     		.2byte	0x297
 1228 0756 4C020000 		.4byte	0x24c
 1229 075a 1A       		.uleb128 0x1a
 1230 075b 74717000 		.ascii	"tqp\000"
 1231 075f 03       		.byte	0x3
 1232 0760 9702     		.2byte	0x297
 1233 0762 67070000 		.4byte	0x767
 1234 0766 00       		.byte	0
 1235 0767 09       		.uleb128 0x9
 1236 0768 04       		.byte	0x4
 1237 0769 76020000 		.4byte	0x276
 1238 076d 17       		.uleb128 0x17
 1239 076e 3F060000 		.4byte	.LASF110
 1240 0772 0E       		.byte	0xe
 1241 0773 6601     		.2byte	0x166
 1242 0775 03       		.byte	0x3
 1243 0776 88070000 		.4byte	0x788
 1244 077a 1B       		.uleb128 0x1b
 1245 077b B1040000 		.4byte	.LASF114
 1246 077f 98070000 		.4byte	0x798
 1247 0783 3F060000 		.4byte	.LASF110
 1248 0787 00       		.byte	0
 1249 0788 15       		.uleb128 0x15
 1250 0789 D5060000 		.4byte	0x6d5
 1251 078d 98070000 		.4byte	0x798
 1252 0791 16       		.uleb128 0x16
 1253 0792 5F040000 		.4byte	0x45f
 1254 0796 0B       		.byte	0xb
ARM GAS  /var/folders/m4/4md61f0s1_g0rzfghffqnxvr0000gn/T//ccmZTAOQ.s 			page 23


 1255 0797 00       		.byte	0
 1256 0798 13       		.uleb128 0x13
 1257 0799 88070000 		.4byte	0x788
 1258 079d 1C       		.uleb128 0x1c
 1259 079e 5E010000 		.4byte	.LASF112
 1260 07a2 04       		.byte	0x4
 1261 07a3 4F       		.byte	0x4f
 1262 07a4 B8070000 		.4byte	0x7b8
 1263 07a8 03       		.byte	0x3
 1264 07a9 B8070000 		.4byte	0x7b8
 1265 07ad 1D       		.uleb128 0x1d
 1266 07ae 747000   		.ascii	"tp\000"
 1267 07b1 04       		.byte	0x4
 1268 07b2 4F       		.byte	0x4f
 1269 07b3 4C020000 		.4byte	0x24c
 1270 07b7 00       		.byte	0
 1271 07b8 03       		.uleb128 0x3
 1272 07b9 01       		.byte	0x1
 1273 07ba 02       		.byte	0x2
 1274 07bb 52040000 		.4byte	.LASF111
 1275 07bf 1E       		.uleb128 0x1e
 1276 07c0 7D050000 		.4byte	.LASF113
 1277 07c4 03       		.byte	0x3
 1278 07c5 9F02     		.2byte	0x29f
 1279 07c7 4C020000 		.4byte	0x24c
 1280 07cb 03       		.byte	0x3
 1281 07cc E8070000 		.4byte	0x7e8
 1282 07d0 1A       		.uleb128 0x1a
 1283 07d1 74717000 		.ascii	"tqp\000"
 1284 07d5 03       		.byte	0x3
 1285 07d6 9F02     		.2byte	0x29f
 1286 07d8 67070000 		.4byte	0x767
 1287 07dc 1F       		.uleb128 0x1f
 1288 07dd 747000   		.ascii	"tp\000"
 1289 07e0 03       		.byte	0x3
 1290 07e1 A002     		.2byte	0x2a0
 1291 07e3 4C020000 		.4byte	0x24c
 1292 07e7 00       		.byte	0
 1293 07e8 20       		.uleb128 0x20
 1294 07e9 51060000 		.4byte	.LASF115
 1295 07ed 04       		.byte	0x4
 1296 07ee 6F       		.byte	0x6f
 1297 07ef 03       		.byte	0x3
 1298 07f0 0A080000 		.4byte	0x80a
 1299 07f4 1D       		.uleb128 0x1d
 1300 07f5 747000   		.ascii	"tp\000"
 1301 07f8 04       		.byte	0x4
 1302 07f9 6F       		.byte	0x6f
 1303 07fa 4C020000 		.4byte	0x24c
 1304 07fe 1D       		.uleb128 0x1d
 1305 07ff 6D736700 		.ascii	"msg\000"
 1306 0803 04       		.byte	0x4
 1307 0804 6F       		.byte	0x6f
 1308 0805 05010000 		.4byte	0x105
 1309 0809 00       		.byte	0
 1310 080a 21       		.uleb128 0x21
 1311 080b 4B010000 		.4byte	.LASF116
ARM GAS  /var/folders/m4/4md61f0s1_g0rzfghffqnxvr0000gn/T//ccmZTAOQ.s 			page 24


 1312 080f 01       		.byte	0x1
 1313 0810 57       		.byte	0x57
 1314 0811 05010000 		.4byte	0x105
 1315 0815 00000000 		.4byte	.LFB231
 1316 0819 40000000 		.4byte	.LFE231-.LFB231
 1317 081d 01       		.uleb128 0x1
 1318 081e 9C       		.byte	0x9c
 1319 081f 1F090000 		.4byte	0x91f
 1320 0823 22       		.uleb128 0x22
 1321 0824 747000   		.ascii	"tp\000"
 1322 0827 01       		.byte	0x1
 1323 0828 57       		.byte	0x57
 1324 0829 4C020000 		.4byte	0x24c
 1325 082d 00000000 		.4byte	.LLST0
 1326 0831 22       		.uleb128 0x22
 1327 0832 6D736700 		.ascii	"msg\000"
 1328 0836 01       		.byte	0x1
 1329 0837 57       		.byte	0x57
 1330 0838 05010000 		.4byte	0x105
 1331 083c 38000000 		.4byte	.LLST1
 1332 0840 23       		.uleb128 0x23
 1333 0841 63747000 		.ascii	"ctp\000"
 1334 0845 01       		.byte	0x1
 1335 0846 58       		.byte	0x58
 1336 0847 4C020000 		.4byte	0x24c
 1337 084b 01       		.uleb128 0x1
 1338 084c 54       		.byte	0x54
 1339 084d 24       		.uleb128 0x24
 1340 084e B1040000 		.4byte	.LASF114
 1341 0852 2F090000 		.4byte	0x92f
 1342 0856 25       		.uleb128 0x25
 1343 0857 39070000 		.4byte	0x739
 1344 085b 04000000 		.4byte	.LBB52
 1345 085f 00000000 		.4byte	.Ldebug_ranges0+0
 1346 0863 01       		.byte	0x1
 1347 0864 5C       		.byte	0x5c
 1348 0865 92080000 		.4byte	0x892
 1349 0869 26       		.uleb128 0x26
 1350 086a 27070000 		.4byte	0x727
 1351 086e 04000000 		.4byte	.LBB53
 1352 0872 00000000 		.4byte	.Ldebug_ranges0+0
 1353 0876 0E       		.byte	0xe
 1354 0877 5C01     		.2byte	0x15c
 1355 0879 26       		.uleb128 0x26
 1356 087a 0D070000 		.4byte	0x70d
 1357 087e 04000000 		.4byte	.LBB54
 1358 0882 00000000 		.4byte	.Ldebug_ranges0+0
 1359 0886 0A       		.byte	0xa
 1360 0887 D001     		.2byte	0x1d0
 1361 0889 27       		.uleb128 0x27
 1362 088a 1A070000 		.4byte	0x71a
 1363 088e 20       		.byte	0x20
 1364 088f 00       		.byte	0
 1365 0890 00       		.byte	0
 1366 0891 00       		.byte	0
 1367 0892 25       		.uleb128 0x25
 1368 0893 42070000 		.4byte	0x742
ARM GAS  /var/folders/m4/4md61f0s1_g0rzfghffqnxvr0000gn/T//ccmZTAOQ.s 			page 25


 1369 0897 14000000 		.4byte	.LBB60
 1370 089b 18000000 		.4byte	.Ldebug_ranges0+0x18
 1371 089f 01       		.byte	0x1
 1372 08a0 5F       		.byte	0x5f
 1373 08a1 B4080000 		.4byte	0x8b4
 1374 08a5 28       		.uleb128 0x28
 1375 08a6 5A070000 		.4byte	0x75a
 1376 08aa 01       		.uleb128 0x1
 1377 08ab 55       		.byte	0x55
 1378 08ac 28       		.uleb128 0x28
 1379 08ad 4F070000 		.4byte	0x74f
 1380 08b1 01       		.uleb128 0x1
 1381 08b2 54       		.byte	0x54
 1382 08b3 00       		.byte	0
 1383 08b4 29       		.uleb128 0x29
 1384 08b5 6D070000 		.4byte	0x76d
 1385 08b9 2C000000 		.4byte	.LBB64
 1386 08bd 06000000 		.4byte	.LBE64-.LBB64
 1387 08c1 01       		.byte	0x1
 1388 08c2 65       		.byte	0x65
 1389 08c3 02090000 		.4byte	0x902
 1390 08c7 2A       		.uleb128 0x2a
 1391 08c8 2C000000 		.4byte	.LBB65
 1392 08cc 06000000 		.4byte	.LBE65-.LBB65
 1393 08d0 2B       		.uleb128 0x2b
 1394 08d1 7A070000 		.4byte	0x77a
 1395 08d5 2C       		.uleb128 0x2c
 1396 08d6 30070000 		.4byte	0x730
 1397 08da 2C000000 		.4byte	.LBB66
 1398 08de 06000000 		.4byte	.LBE66-.LBB66
 1399 08e2 0E       		.byte	0xe
 1400 08e3 7301     		.2byte	0x173
 1401 08e5 2C       		.uleb128 0x2c
 1402 08e6 0D070000 		.4byte	0x70d
 1403 08ea 2C000000 		.4byte	.LBB67
 1404 08ee 06000000 		.4byte	.LBE67-.LBB67
 1405 08f2 0A       		.byte	0xa
 1406 08f3 E301     		.2byte	0x1e3
 1407 08f5 2D       		.uleb128 0x2d
 1408 08f6 1A070000 		.4byte	0x71a
 1409 08fa 7D000000 		.4byte	.LLST2
 1410 08fe 00       		.byte	0
 1411 08ff 00       		.byte	0
 1412 0900 00       		.byte	0
 1413 0901 00       		.byte	0
 1414 0902 2E       		.uleb128 0x2e
 1415 0903 2A000000 		.4byte	.LVL4
 1416 0907 640B0000 		.4byte	0xb64
 1417 090b 15090000 		.4byte	0x915
 1418 090f 2F       		.uleb128 0x2f
 1419 0910 01       		.uleb128 0x1
 1420 0911 50       		.byte	0x50
 1421 0912 01       		.uleb128 0x1
 1422 0913 3C       		.byte	0x3c
 1423 0914 00       		.byte	0
 1424 0915 30       		.uleb128 0x30
 1425 0916 38000000 		.4byte	.LVL7
ARM GAS  /var/folders/m4/4md61f0s1_g0rzfghffqnxvr0000gn/T//ccmZTAOQ.s 			page 26


 1426 091a 760B0000 		.4byte	0xb76
 1427 091e 00       		.byte	0
 1428 091f 15       		.uleb128 0x15
 1429 0920 D5060000 		.4byte	0x6d5
 1430 0924 2F090000 		.4byte	0x92f
 1431 0928 16       		.uleb128 0x16
 1432 0929 5F040000 		.4byte	0x45f
 1433 092d 09       		.byte	0x9
 1434 092e 00       		.byte	0
 1435 092f 13       		.uleb128 0x13
 1436 0930 1F090000 		.4byte	0x91f
 1437 0934 21       		.uleb128 0x21
 1438 0935 EE050000 		.4byte	.LASF117
 1439 0939 01       		.byte	0x1
 1440 093a 78       		.byte	0x78
 1441 093b 4C020000 		.4byte	0x24c
 1442 093f 00000000 		.4byte	.LFB232
 1443 0943 3C000000 		.4byte	.LFE232-.LFB232
 1444 0947 01       		.uleb128 0x1
 1445 0948 9C       		.byte	0x9c
 1446 0949 360A0000 		.4byte	0xa36
 1447 094d 31       		.uleb128 0x31
 1448 094e 747000   		.ascii	"tp\000"
 1449 0951 01       		.byte	0x1
 1450 0952 79       		.byte	0x79
 1451 0953 4C020000 		.4byte	0x24c
 1452 0957 29       		.uleb128 0x29
 1453 0958 39070000 		.4byte	0x739
 1454 095c 02000000 		.4byte	.LBB69
 1455 0960 06000000 		.4byte	.LBE69-.LBB69
 1456 0964 01       		.byte	0x1
 1457 0965 7B       		.byte	0x7b
 1458 0966 93090000 		.4byte	0x993
 1459 096a 2C       		.uleb128 0x2c
 1460 096b 27070000 		.4byte	0x727
 1461 096f 02000000 		.4byte	.LBB70
 1462 0973 06000000 		.4byte	.LBE70-.LBB70
 1463 0977 0E       		.byte	0xe
 1464 0978 5C01     		.2byte	0x15c
 1465 097a 2C       		.uleb128 0x2c
 1466 097b 0D070000 		.4byte	0x70d
 1467 097f 02000000 		.4byte	.LBB71
 1468 0983 06000000 		.4byte	.LBE71-.LBB71
 1469 0987 0A       		.byte	0xa
 1470 0988 D001     		.2byte	0x1d0
 1471 098a 27       		.uleb128 0x27
 1472 098b 1A070000 		.4byte	0x71a
 1473 098f 20       		.byte	0x20
 1474 0990 00       		.byte	0
 1475 0991 00       		.byte	0
 1476 0992 00       		.byte	0
 1477 0993 29       		.uleb128 0x29
 1478 0994 9D070000 		.4byte	0x79d
 1479 0998 0C000000 		.4byte	.LBB73
 1480 099c 06000000 		.4byte	.LBE73-.LBB73
 1481 09a0 01       		.byte	0x1
 1482 09a1 7C       		.byte	0x7c
ARM GAS  /var/folders/m4/4md61f0s1_g0rzfghffqnxvr0000gn/T//ccmZTAOQ.s 			page 27


 1483 09a2 B0090000 		.4byte	0x9b0
 1484 09a6 2D       		.uleb128 0x2d
 1485 09a7 AD070000 		.4byte	0x7ad
 1486 09ab 91000000 		.4byte	.LLST3
 1487 09af 00       		.byte	0
 1488 09b0 25       		.uleb128 0x25
 1489 09b1 BF070000 		.4byte	0x7bf
 1490 09b5 16000000 		.4byte	.LBB75
 1491 09b9 30000000 		.4byte	.Ldebug_ranges0+0x30
 1492 09bd 01       		.byte	0x1
 1493 09be 7F       		.byte	0x7f
 1494 09bf DC090000 		.4byte	0x9dc
 1495 09c3 2D       		.uleb128 0x2d
 1496 09c4 D0070000 		.4byte	0x7d0
 1497 09c8 AF000000 		.4byte	.LLST4
 1498 09cc 32       		.uleb128 0x32
 1499 09cd 30000000 		.4byte	.Ldebug_ranges0+0x30
 1500 09d1 33       		.uleb128 0x33
 1501 09d2 DC070000 		.4byte	0x7dc
 1502 09d6 CE000000 		.4byte	.LLST5
 1503 09da 00       		.byte	0
 1504 09db 00       		.byte	0
 1505 09dc 25       		.uleb128 0x25
 1506 09dd 6D070000 		.4byte	0x76d
 1507 09e1 1E000000 		.4byte	.LBB79
 1508 09e5 48000000 		.4byte	.Ldebug_ranges0+0x48
 1509 09e9 01       		.byte	0x1
 1510 09ea 81       		.byte	0x81
 1511 09eb 260A0000 		.4byte	0xa26
 1512 09ef 32       		.uleb128 0x32
 1513 09f0 48000000 		.4byte	.Ldebug_ranges0+0x48
 1514 09f4 2B       		.uleb128 0x2b
 1515 09f5 7A070000 		.4byte	0x77a
 1516 09f9 26       		.uleb128 0x26
 1517 09fa 30070000 		.4byte	0x730
 1518 09fe 1E000000 		.4byte	.LBB81
 1519 0a02 48000000 		.4byte	.Ldebug_ranges0+0x48
 1520 0a06 0E       		.byte	0xe
 1521 0a07 7301     		.2byte	0x173
 1522 0a09 26       		.uleb128 0x26
 1523 0a0a 0D070000 		.4byte	0x70d
 1524 0a0e 1E000000 		.4byte	.LBB82
 1525 0a12 48000000 		.4byte	.Ldebug_ranges0+0x48
 1526 0a16 0A       		.byte	0xa
 1527 0a17 E301     		.2byte	0x1e3
 1528 0a19 2D       		.uleb128 0x2d
 1529 0a1a 1A070000 		.4byte	0x71a
 1530 0a1e E1000000 		.4byte	.LLST6
 1531 0a22 00       		.byte	0
 1532 0a23 00       		.byte	0
 1533 0a24 00       		.byte	0
 1534 0a25 00       		.byte	0
 1535 0a26 34       		.uleb128 0x34
 1536 0a27 2E000000 		.4byte	.LVL14
 1537 0a2b 640B0000 		.4byte	0xb64
 1538 0a2f 2F       		.uleb128 0x2f
 1539 0a30 01       		.uleb128 0x1
ARM GAS  /var/folders/m4/4md61f0s1_g0rzfghffqnxvr0000gn/T//ccmZTAOQ.s 			page 28


 1540 0a31 50       		.byte	0x50
 1541 0a32 01       		.uleb128 0x1
 1542 0a33 3E       		.byte	0x3e
 1543 0a34 00       		.byte	0
 1544 0a35 00       		.byte	0
 1545 0a36 35       		.uleb128 0x35
 1546 0a37 D5040000 		.4byte	.LASF122
 1547 0a3b 01       		.byte	0x1
 1548 0a3c 90       		.byte	0x90
 1549 0a3d 00000000 		.4byte	.LFB233
 1550 0a41 14000000 		.4byte	.LFE233-.LFB233
 1551 0a45 01       		.uleb128 0x1
 1552 0a46 9C       		.byte	0x9c
 1553 0a47 330B0000 		.4byte	0xb33
 1554 0a4b 22       		.uleb128 0x22
 1555 0a4c 747000   		.ascii	"tp\000"
 1556 0a4f 01       		.byte	0x1
 1557 0a50 90       		.byte	0x90
 1558 0a51 4C020000 		.4byte	0x24c
 1559 0a55 F5000000 		.4byte	.LLST7
 1560 0a59 22       		.uleb128 0x22
 1561 0a5a 6D736700 		.ascii	"msg\000"
 1562 0a5e 01       		.byte	0x1
 1563 0a5f 90       		.byte	0x90
 1564 0a60 05010000 		.4byte	0x105
 1565 0a64 16010000 		.4byte	.LLST8
 1566 0a68 24       		.uleb128 0x24
 1567 0a69 B1040000 		.4byte	.LASF114
 1568 0a6d 430B0000 		.4byte	0xb43
 1569 0a71 29       		.uleb128 0x29
 1570 0a72 39070000 		.4byte	0x739
 1571 0a76 02000000 		.4byte	.LBB89
 1572 0a7a 06000000 		.4byte	.LBE89-.LBB89
 1573 0a7e 01       		.byte	0x1
 1574 0a7f 92       		.byte	0x92
 1575 0a80 AD0A0000 		.4byte	0xaad
 1576 0a84 2C       		.uleb128 0x2c
 1577 0a85 27070000 		.4byte	0x727
 1578 0a89 02000000 		.4byte	.LBB90
 1579 0a8d 06000000 		.4byte	.LBE90-.LBB90
 1580 0a91 0E       		.byte	0xe
 1581 0a92 5C01     		.2byte	0x15c
 1582 0a94 2C       		.uleb128 0x2c
 1583 0a95 0D070000 		.4byte	0x70d
 1584 0a99 02000000 		.4byte	.LBB91
 1585 0a9d 06000000 		.4byte	.LBE91-.LBB91
 1586 0aa1 0A       		.byte	0xa
 1587 0aa2 D001     		.2byte	0x1d0
 1588 0aa4 27       		.uleb128 0x27
 1589 0aa5 1A070000 		.4byte	0x71a
 1590 0aa9 20       		.byte	0x20
 1591 0aaa 00       		.byte	0
 1592 0aab 00       		.byte	0
 1593 0aac 00       		.byte	0
 1594 0aad 29       		.uleb128 0x29
 1595 0aae E8070000 		.4byte	0x7e8
 1596 0ab2 08000000 		.4byte	.LBB93
ARM GAS  /var/folders/m4/4md61f0s1_g0rzfghffqnxvr0000gn/T//ccmZTAOQ.s 			page 29


 1597 0ab6 04000000 		.4byte	.LBE93-.LBB93
 1598 0aba 01       		.byte	0x1
 1599 0abb 94       		.byte	0x94
 1600 0abc EB0A0000 		.4byte	0xaeb
 1601 0ac0 2D       		.uleb128 0x2d
 1602 0ac1 FE070000 		.4byte	0x7fe
 1603 0ac5 37010000 		.4byte	.LLST9
 1604 0ac9 2D       		.uleb128 0x2d
 1605 0aca F4070000 		.4byte	0x7f4
 1606 0ace 58010000 		.4byte	.LLST10
 1607 0ad2 34       		.uleb128 0x34
 1608 0ad3 0C000000 		.4byte	.LVL17
 1609 0ad7 8C0B0000 		.4byte	0xb8c
 1610 0adb 2F       		.uleb128 0x2f
 1611 0adc 01       		.uleb128 0x1
 1612 0add 51       		.byte	0x51
 1613 0ade 03       		.uleb128 0x3
 1614 0adf F3       		.byte	0xf3
 1615 0ae0 01       		.uleb128 0x1
 1616 0ae1 51       		.byte	0x51
 1617 0ae2 2F       		.uleb128 0x2f
 1618 0ae3 01       		.uleb128 0x1
 1619 0ae4 50       		.byte	0x50
 1620 0ae5 03       		.uleb128 0x3
 1621 0ae6 F3       		.byte	0xf3
 1622 0ae7 01       		.uleb128 0x1
 1623 0ae8 50       		.byte	0x50
 1624 0ae9 00       		.byte	0
 1625 0aea 00       		.byte	0
 1626 0aeb 36       		.uleb128 0x36
 1627 0aec 6D070000 		.4byte	0x76d
 1628 0af0 0C000000 		.4byte	.LBB95
 1629 0af4 08000000 		.4byte	.LBE95-.LBB95
 1630 0af8 01       		.byte	0x1
 1631 0af9 95       		.byte	0x95
 1632 0afa 2A       		.uleb128 0x2a
 1633 0afb 0C000000 		.4byte	.LBB96
 1634 0aff 08000000 		.4byte	.LBE96-.LBB96
 1635 0b03 2B       		.uleb128 0x2b
 1636 0b04 7A070000 		.4byte	0x77a
 1637 0b08 2C       		.uleb128 0x2c
 1638 0b09 30070000 		.4byte	0x730
 1639 0b0d 0C000000 		.4byte	.LBB97
 1640 0b11 08000000 		.4byte	.LBE97-.LBB97
 1641 0b15 0E       		.byte	0xe
 1642 0b16 7301     		.2byte	0x173
 1643 0b18 2C       		.uleb128 0x2c
 1644 0b19 0D070000 		.4byte	0x70d
 1645 0b1d 0C000000 		.4byte	.LBB98
 1646 0b21 08000000 		.4byte	.LBE98-.LBB98
 1647 0b25 0A       		.byte	0xa
 1648 0b26 E301     		.2byte	0x1e3
 1649 0b28 27       		.uleb128 0x27
 1650 0b29 1A070000 		.4byte	0x71a
 1651 0b2d 00       		.byte	0
 1652 0b2e 00       		.byte	0
 1653 0b2f 00       		.byte	0
ARM GAS  /var/folders/m4/4md61f0s1_g0rzfghffqnxvr0000gn/T//ccmZTAOQ.s 			page 30


 1654 0b30 00       		.byte	0
 1655 0b31 00       		.byte	0
 1656 0b32 00       		.byte	0
 1657 0b33 15       		.uleb128 0x15
 1658 0b34 D5060000 		.4byte	0x6d5
 1659 0b38 430B0000 		.4byte	0xb43
 1660 0b3c 16       		.uleb128 0x16
 1661 0b3d 5F040000 		.4byte	0x45f
 1662 0b41 0C       		.byte	0xc
 1663 0b42 00       		.byte	0
 1664 0b43 13       		.uleb128 0x13
 1665 0b44 330B0000 		.4byte	0xb33
 1666 0b48 37       		.uleb128 0x37
 1667 0b49 CC000000 		.4byte	.LASF118
 1668 0b4d 0F       		.byte	0xf
 1669 0b4e FA06     		.2byte	0x6fa
 1670 0b50 540B0000 		.4byte	0xb54
 1671 0b54 14       		.uleb128 0x14
 1672 0b55 A2000000 		.4byte	0xa2
 1673 0b59 38       		.uleb128 0x38
 1674 0b5a 636800   		.ascii	"ch\000"
 1675 0b5d 03       		.byte	0x3
 1676 0b5e 0902     		.2byte	0x209
 1677 0b60 F8030000 		.4byte	0x3f8
 1678 0b64 39       		.uleb128 0x39
 1679 0b65 EF040000 		.4byte	.LASF123
 1680 0b69 03       		.byte	0x3
 1681 0b6a 1402     		.2byte	0x214
 1682 0b6c 760B0000 		.4byte	0xb76
 1683 0b70 0C       		.uleb128 0xc
 1684 0b71 D9000000 		.4byte	0xd9
 1685 0b75 00       		.byte	0
 1686 0b76 3A       		.uleb128 0x3a
 1687 0b77 41050000 		.4byte	.LASF124
 1688 0b7b 03       		.byte	0x3
 1689 0b7c 1302     		.2byte	0x213
 1690 0b7e 4C020000 		.4byte	0x24c
 1691 0b82 8C0B0000 		.4byte	0xb8c
 1692 0b86 0C       		.uleb128 0xc
 1693 0b87 4C020000 		.4byte	0x24c
 1694 0b8b 00       		.byte	0
 1695 0b8c 3B       		.uleb128 0x3b
 1696 0b8d 14020000 		.4byte	.LASF125
 1697 0b91 03       		.byte	0x3
 1698 0b92 1602     		.2byte	0x216
 1699 0b94 0C       		.uleb128 0xc
 1700 0b95 4C020000 		.4byte	0x24c
 1701 0b99 0C       		.uleb128 0xc
 1702 0b9a 05010000 		.4byte	0x105
 1703 0b9e 00       		.byte	0
 1704 0b9f 00       		.byte	0
 1705              		.section	.debug_abbrev,"",%progbits
 1706              	.Ldebug_abbrev0:
 1707 0000 01       		.uleb128 0x1
 1708 0001 11       		.uleb128 0x11
 1709 0002 01       		.byte	0x1
 1710 0003 25       		.uleb128 0x25
ARM GAS  /var/folders/m4/4md61f0s1_g0rzfghffqnxvr0000gn/T//ccmZTAOQ.s 			page 31


 1711 0004 0E       		.uleb128 0xe
 1712 0005 13       		.uleb128 0x13
 1713 0006 0B       		.uleb128 0xb
 1714 0007 03       		.uleb128 0x3
 1715 0008 0E       		.uleb128 0xe
 1716 0009 1B       		.uleb128 0x1b
 1717 000a 0E       		.uleb128 0xe
 1718 000b 55       		.uleb128 0x55
 1719 000c 17       		.uleb128 0x17
 1720 000d 11       		.uleb128 0x11
 1721 000e 01       		.uleb128 0x1
 1722 000f 10       		.uleb128 0x10
 1723 0010 17       		.uleb128 0x17
 1724 0011 00       		.byte	0
 1725 0012 00       		.byte	0
 1726 0013 02       		.uleb128 0x2
 1727 0014 24       		.uleb128 0x24
 1728 0015 00       		.byte	0
 1729 0016 0B       		.uleb128 0xb
 1730 0017 0B       		.uleb128 0xb
 1731 0018 3E       		.uleb128 0x3e
 1732 0019 0B       		.uleb128 0xb
 1733 001a 03       		.uleb128 0x3
 1734 001b 08       		.uleb128 0x8
 1735 001c 00       		.byte	0
 1736 001d 00       		.byte	0
 1737 001e 03       		.uleb128 0x3
 1738 001f 24       		.uleb128 0x24
 1739 0020 00       		.byte	0
 1740 0021 0B       		.uleb128 0xb
 1741 0022 0B       		.uleb128 0xb
 1742 0023 3E       		.uleb128 0x3e
 1743 0024 0B       		.uleb128 0xb
 1744 0025 03       		.uleb128 0x3
 1745 0026 0E       		.uleb128 0xe
 1746 0027 00       		.byte	0
 1747 0028 00       		.byte	0
 1748 0029 04       		.uleb128 0x4
 1749 002a 16       		.uleb128 0x16
 1750 002b 00       		.byte	0
 1751 002c 03       		.uleb128 0x3
 1752 002d 0E       		.uleb128 0xe
 1753 002e 3A       		.uleb128 0x3a
 1754 002f 0B       		.uleb128 0xb
 1755 0030 3B       		.uleb128 0x3b
 1756 0031 0B       		.uleb128 0xb
 1757 0032 49       		.uleb128 0x49
 1758 0033 13       		.uleb128 0x13
 1759 0034 00       		.byte	0
 1760 0035 00       		.byte	0
 1761 0036 05       		.uleb128 0x5
 1762 0037 13       		.uleb128 0x13
 1763 0038 01       		.byte	0x1
 1764 0039 03       		.uleb128 0x3
 1765 003a 0E       		.uleb128 0xe
 1766 003b 0B       		.uleb128 0xb
 1767 003c 0B       		.uleb128 0xb
ARM GAS  /var/folders/m4/4md61f0s1_g0rzfghffqnxvr0000gn/T//ccmZTAOQ.s 			page 32


 1768 003d 3A       		.uleb128 0x3a
 1769 003e 0B       		.uleb128 0xb
 1770 003f 3B       		.uleb128 0x3b
 1771 0040 0B       		.uleb128 0xb
 1772 0041 01       		.uleb128 0x1
 1773 0042 13       		.uleb128 0x13
 1774 0043 00       		.byte	0
 1775 0044 00       		.byte	0
 1776 0045 06       		.uleb128 0x6
 1777 0046 0D       		.uleb128 0xd
 1778 0047 00       		.byte	0
 1779 0048 03       		.uleb128 0x3
 1780 0049 0E       		.uleb128 0xe
 1781 004a 3A       		.uleb128 0x3a
 1782 004b 0B       		.uleb128 0xb
 1783 004c 3B       		.uleb128 0x3b
 1784 004d 0B       		.uleb128 0xb
 1785 004e 49       		.uleb128 0x49
 1786 004f 13       		.uleb128 0x13
 1787 0050 38       		.uleb128 0x38
 1788 0051 0B       		.uleb128 0xb
 1789 0052 00       		.byte	0
 1790 0053 00       		.byte	0
 1791 0054 07       		.uleb128 0x7
 1792 0055 0D       		.uleb128 0xd
 1793 0056 00       		.byte	0
 1794 0057 03       		.uleb128 0x3
 1795 0058 08       		.uleb128 0x8
 1796 0059 3A       		.uleb128 0x3a
 1797 005a 0B       		.uleb128 0xb
 1798 005b 3B       		.uleb128 0x3b
 1799 005c 05       		.uleb128 0x5
 1800 005d 49       		.uleb128 0x49
 1801 005e 13       		.uleb128 0x13
 1802 005f 38       		.uleb128 0x38
 1803 0060 0B       		.uleb128 0xb
 1804 0061 00       		.byte	0
 1805 0062 00       		.byte	0
 1806 0063 08       		.uleb128 0x8
 1807 0064 0D       		.uleb128 0xd
 1808 0065 00       		.byte	0
 1809 0066 03       		.uleb128 0x3
 1810 0067 0E       		.uleb128 0xe
 1811 0068 3A       		.uleb128 0x3a
 1812 0069 0B       		.uleb128 0xb
 1813 006a 3B       		.uleb128 0x3b
 1814 006b 05       		.uleb128 0x5
 1815 006c 49       		.uleb128 0x49
 1816 006d 13       		.uleb128 0x13
 1817 006e 38       		.uleb128 0x38
 1818 006f 0B       		.uleb128 0xb
 1819 0070 00       		.byte	0
 1820 0071 00       		.byte	0
 1821 0072 09       		.uleb128 0x9
 1822 0073 0F       		.uleb128 0xf
 1823 0074 00       		.byte	0
 1824 0075 0B       		.uleb128 0xb
ARM GAS  /var/folders/m4/4md61f0s1_g0rzfghffqnxvr0000gn/T//ccmZTAOQ.s 			page 33


 1825 0076 0B       		.uleb128 0xb
 1826 0077 49       		.uleb128 0x49
 1827 0078 13       		.uleb128 0x13
 1828 0079 00       		.byte	0
 1829 007a 00       		.byte	0
 1830 007b 0A       		.uleb128 0xa
 1831 007c 13       		.uleb128 0x13
 1832 007d 01       		.byte	0x1
 1833 007e 03       		.uleb128 0x3
 1834 007f 0E       		.uleb128 0xe
 1835 0080 0B       		.uleb128 0xb
 1836 0081 0B       		.uleb128 0xb
 1837 0082 3A       		.uleb128 0x3a
 1838 0083 0B       		.uleb128 0xb
 1839 0084 3B       		.uleb128 0x3b
 1840 0085 05       		.uleb128 0x5
 1841 0086 01       		.uleb128 0x1
 1842 0087 13       		.uleb128 0x13
 1843 0088 00       		.byte	0
 1844 0089 00       		.byte	0
 1845 008a 0B       		.uleb128 0xb
 1846 008b 15       		.uleb128 0x15
 1847 008c 01       		.byte	0x1
 1848 008d 27       		.uleb128 0x27
 1849 008e 19       		.uleb128 0x19
 1850 008f 01       		.uleb128 0x1
 1851 0090 13       		.uleb128 0x13
 1852 0091 00       		.byte	0
 1853 0092 00       		.byte	0
 1854 0093 0C       		.uleb128 0xc
 1855 0094 05       		.uleb128 0x5
 1856 0095 00       		.byte	0
 1857 0096 49       		.uleb128 0x49
 1858 0097 13       		.uleb128 0x13
 1859 0098 00       		.byte	0
 1860 0099 00       		.byte	0
 1861 009a 0D       		.uleb128 0xd
 1862 009b 0F       		.uleb128 0xf
 1863 009c 00       		.byte	0
 1864 009d 0B       		.uleb128 0xb
 1865 009e 0B       		.uleb128 0xb
 1866 009f 00       		.byte	0
 1867 00a0 00       		.byte	0
 1868 00a1 0E       		.uleb128 0xe
 1869 00a2 13       		.uleb128 0x13
 1870 00a3 01       		.byte	0x1
 1871 00a4 03       		.uleb128 0x3
 1872 00a5 0E       		.uleb128 0xe
 1873 00a6 0B       		.uleb128 0xb
 1874 00a7 05       		.uleb128 0x5
 1875 00a8 3A       		.uleb128 0x3a
 1876 00a9 0B       		.uleb128 0xb
 1877 00aa 3B       		.uleb128 0x3b
 1878 00ab 05       		.uleb128 0x5
 1879 00ac 01       		.uleb128 0x1
 1880 00ad 13       		.uleb128 0x13
 1881 00ae 00       		.byte	0
ARM GAS  /var/folders/m4/4md61f0s1_g0rzfghffqnxvr0000gn/T//ccmZTAOQ.s 			page 34


 1882 00af 00       		.byte	0
 1883 00b0 0F       		.uleb128 0xf
 1884 00b1 0D       		.uleb128 0xd
 1885 00b2 00       		.byte	0
 1886 00b3 03       		.uleb128 0x3
 1887 00b4 08       		.uleb128 0x8
 1888 00b5 3A       		.uleb128 0x3a
 1889 00b6 0B       		.uleb128 0xb
 1890 00b7 3B       		.uleb128 0x3b
 1891 00b8 0B       		.uleb128 0xb
 1892 00b9 49       		.uleb128 0x49
 1893 00ba 13       		.uleb128 0x13
 1894 00bb 38       		.uleb128 0x38
 1895 00bc 0B       		.uleb128 0xb
 1896 00bd 00       		.byte	0
 1897 00be 00       		.byte	0
 1898 00bf 10       		.uleb128 0x10
 1899 00c0 13       		.uleb128 0x13
 1900 00c1 01       		.byte	0x1
 1901 00c2 0B       		.uleb128 0xb
 1902 00c3 0B       		.uleb128 0xb
 1903 00c4 3A       		.uleb128 0x3a
 1904 00c5 0B       		.uleb128 0xb
 1905 00c6 3B       		.uleb128 0x3b
 1906 00c7 0B       		.uleb128 0xb
 1907 00c8 01       		.uleb128 0x1
 1908 00c9 13       		.uleb128 0x13
 1909 00ca 00       		.byte	0
 1910 00cb 00       		.byte	0
 1911 00cc 11       		.uleb128 0x11
 1912 00cd 17       		.uleb128 0x17
 1913 00ce 01       		.byte	0x1
 1914 00cf 0B       		.uleb128 0xb
 1915 00d0 0B       		.uleb128 0xb
 1916 00d1 3A       		.uleb128 0x3a
 1917 00d2 0B       		.uleb128 0xb
 1918 00d3 3B       		.uleb128 0x3b
 1919 00d4 0B       		.uleb128 0xb
 1920 00d5 01       		.uleb128 0x1
 1921 00d6 13       		.uleb128 0x13
 1922 00d7 00       		.byte	0
 1923 00d8 00       		.byte	0
 1924 00d9 12       		.uleb128 0x12
 1925 00da 0D       		.uleb128 0xd
 1926 00db 00       		.byte	0
 1927 00dc 03       		.uleb128 0x3
 1928 00dd 0E       		.uleb128 0xe
 1929 00de 3A       		.uleb128 0x3a
 1930 00df 0B       		.uleb128 0xb
 1931 00e0 3B       		.uleb128 0x3b
 1932 00e1 05       		.uleb128 0x5
 1933 00e2 49       		.uleb128 0x49
 1934 00e3 13       		.uleb128 0x13
 1935 00e4 00       		.byte	0
 1936 00e5 00       		.byte	0
 1937 00e6 13       		.uleb128 0x13
 1938 00e7 26       		.uleb128 0x26
ARM GAS  /var/folders/m4/4md61f0s1_g0rzfghffqnxvr0000gn/T//ccmZTAOQ.s 			page 35


 1939 00e8 00       		.byte	0
 1940 00e9 49       		.uleb128 0x49
 1941 00ea 13       		.uleb128 0x13
 1942 00eb 00       		.byte	0
 1943 00ec 00       		.byte	0
 1944 00ed 14       		.uleb128 0x14
 1945 00ee 35       		.uleb128 0x35
 1946 00ef 00       		.byte	0
 1947 00f0 49       		.uleb128 0x49
 1948 00f1 13       		.uleb128 0x13
 1949 00f2 00       		.byte	0
 1950 00f3 00       		.byte	0
 1951 00f4 15       		.uleb128 0x15
 1952 00f5 01       		.uleb128 0x1
 1953 00f6 01       		.byte	0x1
 1954 00f7 49       		.uleb128 0x49
 1955 00f8 13       		.uleb128 0x13
 1956 00f9 01       		.uleb128 0x1
 1957 00fa 13       		.uleb128 0x13
 1958 00fb 00       		.byte	0
 1959 00fc 00       		.byte	0
 1960 00fd 16       		.uleb128 0x16
 1961 00fe 21       		.uleb128 0x21
 1962 00ff 00       		.byte	0
 1963 0100 49       		.uleb128 0x49
 1964 0101 13       		.uleb128 0x13
 1965 0102 2F       		.uleb128 0x2f
 1966 0103 0B       		.uleb128 0xb
 1967 0104 00       		.byte	0
 1968 0105 00       		.byte	0
 1969 0106 17       		.uleb128 0x17
 1970 0107 2E       		.uleb128 0x2e
 1971 0108 01       		.byte	0x1
 1972 0109 03       		.uleb128 0x3
 1973 010a 0E       		.uleb128 0xe
 1974 010b 3A       		.uleb128 0x3a
 1975 010c 0B       		.uleb128 0xb
 1976 010d 3B       		.uleb128 0x3b
 1977 010e 05       		.uleb128 0x5
 1978 010f 27       		.uleb128 0x27
 1979 0110 19       		.uleb128 0x19
 1980 0111 20       		.uleb128 0x20
 1981 0112 0B       		.uleb128 0xb
 1982 0113 01       		.uleb128 0x1
 1983 0114 13       		.uleb128 0x13
 1984 0115 00       		.byte	0
 1985 0116 00       		.byte	0
 1986 0117 18       		.uleb128 0x18
 1987 0118 05       		.uleb128 0x5
 1988 0119 00       		.byte	0
 1989 011a 03       		.uleb128 0x3
 1990 011b 0E       		.uleb128 0xe
 1991 011c 3A       		.uleb128 0x3a
 1992 011d 0B       		.uleb128 0xb
 1993 011e 3B       		.uleb128 0x3b
 1994 011f 05       		.uleb128 0x5
 1995 0120 49       		.uleb128 0x49
ARM GAS  /var/folders/m4/4md61f0s1_g0rzfghffqnxvr0000gn/T//ccmZTAOQ.s 			page 36


 1996 0121 13       		.uleb128 0x13
 1997 0122 00       		.byte	0
 1998 0123 00       		.byte	0
 1999 0124 19       		.uleb128 0x19
 2000 0125 2E       		.uleb128 0x2e
 2001 0126 00       		.byte	0
 2002 0127 03       		.uleb128 0x3
 2003 0128 0E       		.uleb128 0xe
 2004 0129 3A       		.uleb128 0x3a
 2005 012a 0B       		.uleb128 0xb
 2006 012b 3B       		.uleb128 0x3b
 2007 012c 05       		.uleb128 0x5
 2008 012d 27       		.uleb128 0x27
 2009 012e 19       		.uleb128 0x19
 2010 012f 20       		.uleb128 0x20
 2011 0130 0B       		.uleb128 0xb
 2012 0131 00       		.byte	0
 2013 0132 00       		.byte	0
 2014 0133 1A       		.uleb128 0x1a
 2015 0134 05       		.uleb128 0x5
 2016 0135 00       		.byte	0
 2017 0136 03       		.uleb128 0x3
 2018 0137 08       		.uleb128 0x8
 2019 0138 3A       		.uleb128 0x3a
 2020 0139 0B       		.uleb128 0xb
 2021 013a 3B       		.uleb128 0x3b
 2022 013b 05       		.uleb128 0x5
 2023 013c 49       		.uleb128 0x49
 2024 013d 13       		.uleb128 0x13
 2025 013e 00       		.byte	0
 2026 013f 00       		.byte	0
 2027 0140 1B       		.uleb128 0x1b
 2028 0141 34       		.uleb128 0x34
 2029 0142 00       		.byte	0
 2030 0143 03       		.uleb128 0x3
 2031 0144 0E       		.uleb128 0xe
 2032 0145 49       		.uleb128 0x49
 2033 0146 13       		.uleb128 0x13
 2034 0147 34       		.uleb128 0x34
 2035 0148 19       		.uleb128 0x19
 2036 0149 1C       		.uleb128 0x1c
 2037 014a 0E       		.uleb128 0xe
 2038 014b 00       		.byte	0
 2039 014c 00       		.byte	0
 2040 014d 1C       		.uleb128 0x1c
 2041 014e 2E       		.uleb128 0x2e
 2042 014f 01       		.byte	0x1
 2043 0150 03       		.uleb128 0x3
 2044 0151 0E       		.uleb128 0xe
 2045 0152 3A       		.uleb128 0x3a
 2046 0153 0B       		.uleb128 0xb
 2047 0154 3B       		.uleb128 0x3b
 2048 0155 0B       		.uleb128 0xb
 2049 0156 27       		.uleb128 0x27
 2050 0157 19       		.uleb128 0x19
 2051 0158 49       		.uleb128 0x49
 2052 0159 13       		.uleb128 0x13
ARM GAS  /var/folders/m4/4md61f0s1_g0rzfghffqnxvr0000gn/T//ccmZTAOQ.s 			page 37


 2053 015a 20       		.uleb128 0x20
 2054 015b 0B       		.uleb128 0xb
 2055 015c 01       		.uleb128 0x1
 2056 015d 13       		.uleb128 0x13
 2057 015e 00       		.byte	0
 2058 015f 00       		.byte	0
 2059 0160 1D       		.uleb128 0x1d
 2060 0161 05       		.uleb128 0x5
 2061 0162 00       		.byte	0
 2062 0163 03       		.uleb128 0x3
 2063 0164 08       		.uleb128 0x8
 2064 0165 3A       		.uleb128 0x3a
 2065 0166 0B       		.uleb128 0xb
 2066 0167 3B       		.uleb128 0x3b
 2067 0168 0B       		.uleb128 0xb
 2068 0169 49       		.uleb128 0x49
 2069 016a 13       		.uleb128 0x13
 2070 016b 00       		.byte	0
 2071 016c 00       		.byte	0
 2072 016d 1E       		.uleb128 0x1e
 2073 016e 2E       		.uleb128 0x2e
 2074 016f 01       		.byte	0x1
 2075 0170 03       		.uleb128 0x3
 2076 0171 0E       		.uleb128 0xe
 2077 0172 3A       		.uleb128 0x3a
 2078 0173 0B       		.uleb128 0xb
 2079 0174 3B       		.uleb128 0x3b
 2080 0175 05       		.uleb128 0x5
 2081 0176 27       		.uleb128 0x27
 2082 0177 19       		.uleb128 0x19
 2083 0178 49       		.uleb128 0x49
 2084 0179 13       		.uleb128 0x13
 2085 017a 20       		.uleb128 0x20
 2086 017b 0B       		.uleb128 0xb
 2087 017c 01       		.uleb128 0x1
 2088 017d 13       		.uleb128 0x13
 2089 017e 00       		.byte	0
 2090 017f 00       		.byte	0
 2091 0180 1F       		.uleb128 0x1f
 2092 0181 34       		.uleb128 0x34
 2093 0182 00       		.byte	0
 2094 0183 03       		.uleb128 0x3
 2095 0184 08       		.uleb128 0x8
 2096 0185 3A       		.uleb128 0x3a
 2097 0186 0B       		.uleb128 0xb
 2098 0187 3B       		.uleb128 0x3b
 2099 0188 05       		.uleb128 0x5
 2100 0189 49       		.uleb128 0x49
 2101 018a 13       		.uleb128 0x13
 2102 018b 00       		.byte	0
 2103 018c 00       		.byte	0
 2104 018d 20       		.uleb128 0x20
 2105 018e 2E       		.uleb128 0x2e
 2106 018f 01       		.byte	0x1
 2107 0190 03       		.uleb128 0x3
 2108 0191 0E       		.uleb128 0xe
 2109 0192 3A       		.uleb128 0x3a
ARM GAS  /var/folders/m4/4md61f0s1_g0rzfghffqnxvr0000gn/T//ccmZTAOQ.s 			page 38


 2110 0193 0B       		.uleb128 0xb
 2111 0194 3B       		.uleb128 0x3b
 2112 0195 0B       		.uleb128 0xb
 2113 0196 27       		.uleb128 0x27
 2114 0197 19       		.uleb128 0x19
 2115 0198 20       		.uleb128 0x20
 2116 0199 0B       		.uleb128 0xb
 2117 019a 01       		.uleb128 0x1
 2118 019b 13       		.uleb128 0x13
 2119 019c 00       		.byte	0
 2120 019d 00       		.byte	0
 2121 019e 21       		.uleb128 0x21
 2122 019f 2E       		.uleb128 0x2e
 2123 01a0 01       		.byte	0x1
 2124 01a1 3F       		.uleb128 0x3f
 2125 01a2 19       		.uleb128 0x19
 2126 01a3 03       		.uleb128 0x3
 2127 01a4 0E       		.uleb128 0xe
 2128 01a5 3A       		.uleb128 0x3a
 2129 01a6 0B       		.uleb128 0xb
 2130 01a7 3B       		.uleb128 0x3b
 2131 01a8 0B       		.uleb128 0xb
 2132 01a9 27       		.uleb128 0x27
 2133 01aa 19       		.uleb128 0x19
 2134 01ab 49       		.uleb128 0x49
 2135 01ac 13       		.uleb128 0x13
 2136 01ad 11       		.uleb128 0x11
 2137 01ae 01       		.uleb128 0x1
 2138 01af 12       		.uleb128 0x12
 2139 01b0 06       		.uleb128 0x6
 2140 01b1 40       		.uleb128 0x40
 2141 01b2 18       		.uleb128 0x18
 2142 01b3 9742     		.uleb128 0x2117
 2143 01b5 19       		.uleb128 0x19
 2144 01b6 01       		.uleb128 0x1
 2145 01b7 13       		.uleb128 0x13
 2146 01b8 00       		.byte	0
 2147 01b9 00       		.byte	0
 2148 01ba 22       		.uleb128 0x22
 2149 01bb 05       		.uleb128 0x5
 2150 01bc 00       		.byte	0
 2151 01bd 03       		.uleb128 0x3
 2152 01be 08       		.uleb128 0x8
 2153 01bf 3A       		.uleb128 0x3a
 2154 01c0 0B       		.uleb128 0xb
 2155 01c1 3B       		.uleb128 0x3b
 2156 01c2 0B       		.uleb128 0xb
 2157 01c3 49       		.uleb128 0x49
 2158 01c4 13       		.uleb128 0x13
 2159 01c5 02       		.uleb128 0x2
 2160 01c6 17       		.uleb128 0x17
 2161 01c7 00       		.byte	0
 2162 01c8 00       		.byte	0
 2163 01c9 23       		.uleb128 0x23
 2164 01ca 34       		.uleb128 0x34
 2165 01cb 00       		.byte	0
 2166 01cc 03       		.uleb128 0x3
ARM GAS  /var/folders/m4/4md61f0s1_g0rzfghffqnxvr0000gn/T//ccmZTAOQ.s 			page 39


 2167 01cd 08       		.uleb128 0x8
 2168 01ce 3A       		.uleb128 0x3a
 2169 01cf 0B       		.uleb128 0xb
 2170 01d0 3B       		.uleb128 0x3b
 2171 01d1 0B       		.uleb128 0xb
 2172 01d2 49       		.uleb128 0x49
 2173 01d3 13       		.uleb128 0x13
 2174 01d4 02       		.uleb128 0x2
 2175 01d5 18       		.uleb128 0x18
 2176 01d6 00       		.byte	0
 2177 01d7 00       		.byte	0
 2178 01d8 24       		.uleb128 0x24
 2179 01d9 34       		.uleb128 0x34
 2180 01da 00       		.byte	0
 2181 01db 03       		.uleb128 0x3
 2182 01dc 0E       		.uleb128 0xe
 2183 01dd 49       		.uleb128 0x49
 2184 01de 13       		.uleb128 0x13
 2185 01df 34       		.uleb128 0x34
 2186 01e0 19       		.uleb128 0x19
 2187 01e1 00       		.byte	0
 2188 01e2 00       		.byte	0
 2189 01e3 25       		.uleb128 0x25
 2190 01e4 1D       		.uleb128 0x1d
 2191 01e5 01       		.byte	0x1
 2192 01e6 31       		.uleb128 0x31
 2193 01e7 13       		.uleb128 0x13
 2194 01e8 52       		.uleb128 0x52
 2195 01e9 01       		.uleb128 0x1
 2196 01ea 55       		.uleb128 0x55
 2197 01eb 17       		.uleb128 0x17
 2198 01ec 58       		.uleb128 0x58
 2199 01ed 0B       		.uleb128 0xb
 2200 01ee 59       		.uleb128 0x59
 2201 01ef 0B       		.uleb128 0xb
 2202 01f0 01       		.uleb128 0x1
 2203 01f1 13       		.uleb128 0x13
 2204 01f2 00       		.byte	0
 2205 01f3 00       		.byte	0
 2206 01f4 26       		.uleb128 0x26
 2207 01f5 1D       		.uleb128 0x1d
 2208 01f6 01       		.byte	0x1
 2209 01f7 31       		.uleb128 0x31
 2210 01f8 13       		.uleb128 0x13
 2211 01f9 52       		.uleb128 0x52
 2212 01fa 01       		.uleb128 0x1
 2213 01fb 55       		.uleb128 0x55
 2214 01fc 17       		.uleb128 0x17
 2215 01fd 58       		.uleb128 0x58
 2216 01fe 0B       		.uleb128 0xb
 2217 01ff 59       		.uleb128 0x59
 2218 0200 05       		.uleb128 0x5
 2219 0201 00       		.byte	0
 2220 0202 00       		.byte	0
 2221 0203 27       		.uleb128 0x27
 2222 0204 05       		.uleb128 0x5
 2223 0205 00       		.byte	0
ARM GAS  /var/folders/m4/4md61f0s1_g0rzfghffqnxvr0000gn/T//ccmZTAOQ.s 			page 40


 2224 0206 31       		.uleb128 0x31
 2225 0207 13       		.uleb128 0x13
 2226 0208 1C       		.uleb128 0x1c
 2227 0209 0B       		.uleb128 0xb
 2228 020a 00       		.byte	0
 2229 020b 00       		.byte	0
 2230 020c 28       		.uleb128 0x28
 2231 020d 05       		.uleb128 0x5
 2232 020e 00       		.byte	0
 2233 020f 31       		.uleb128 0x31
 2234 0210 13       		.uleb128 0x13
 2235 0211 02       		.uleb128 0x2
 2236 0212 18       		.uleb128 0x18
 2237 0213 00       		.byte	0
 2238 0214 00       		.byte	0
 2239 0215 29       		.uleb128 0x29
 2240 0216 1D       		.uleb128 0x1d
 2241 0217 01       		.byte	0x1
 2242 0218 31       		.uleb128 0x31
 2243 0219 13       		.uleb128 0x13
 2244 021a 11       		.uleb128 0x11
 2245 021b 01       		.uleb128 0x1
 2246 021c 12       		.uleb128 0x12
 2247 021d 06       		.uleb128 0x6
 2248 021e 58       		.uleb128 0x58
 2249 021f 0B       		.uleb128 0xb
 2250 0220 59       		.uleb128 0x59
 2251 0221 0B       		.uleb128 0xb
 2252 0222 01       		.uleb128 0x1
 2253 0223 13       		.uleb128 0x13
 2254 0224 00       		.byte	0
 2255 0225 00       		.byte	0
 2256 0226 2A       		.uleb128 0x2a
 2257 0227 0B       		.uleb128 0xb
 2258 0228 01       		.byte	0x1
 2259 0229 11       		.uleb128 0x11
 2260 022a 01       		.uleb128 0x1
 2261 022b 12       		.uleb128 0x12
 2262 022c 06       		.uleb128 0x6
 2263 022d 00       		.byte	0
 2264 022e 00       		.byte	0
 2265 022f 2B       		.uleb128 0x2b
 2266 0230 34       		.uleb128 0x34
 2267 0231 00       		.byte	0
 2268 0232 31       		.uleb128 0x31
 2269 0233 13       		.uleb128 0x13
 2270 0234 00       		.byte	0
 2271 0235 00       		.byte	0
 2272 0236 2C       		.uleb128 0x2c
 2273 0237 1D       		.uleb128 0x1d
 2274 0238 01       		.byte	0x1
 2275 0239 31       		.uleb128 0x31
 2276 023a 13       		.uleb128 0x13
 2277 023b 11       		.uleb128 0x11
 2278 023c 01       		.uleb128 0x1
 2279 023d 12       		.uleb128 0x12
 2280 023e 06       		.uleb128 0x6
ARM GAS  /var/folders/m4/4md61f0s1_g0rzfghffqnxvr0000gn/T//ccmZTAOQ.s 			page 41


 2281 023f 58       		.uleb128 0x58
 2282 0240 0B       		.uleb128 0xb
 2283 0241 59       		.uleb128 0x59
 2284 0242 05       		.uleb128 0x5
 2285 0243 00       		.byte	0
 2286 0244 00       		.byte	0
 2287 0245 2D       		.uleb128 0x2d
 2288 0246 05       		.uleb128 0x5
 2289 0247 00       		.byte	0
 2290 0248 31       		.uleb128 0x31
 2291 0249 13       		.uleb128 0x13
 2292 024a 02       		.uleb128 0x2
 2293 024b 17       		.uleb128 0x17
 2294 024c 00       		.byte	0
 2295 024d 00       		.byte	0
 2296 024e 2E       		.uleb128 0x2e
 2297 024f 898201   		.uleb128 0x4109
 2298 0252 01       		.byte	0x1
 2299 0253 11       		.uleb128 0x11
 2300 0254 01       		.uleb128 0x1
 2301 0255 31       		.uleb128 0x31
 2302 0256 13       		.uleb128 0x13
 2303 0257 01       		.uleb128 0x1
 2304 0258 13       		.uleb128 0x13
 2305 0259 00       		.byte	0
 2306 025a 00       		.byte	0
 2307 025b 2F       		.uleb128 0x2f
 2308 025c 8A8201   		.uleb128 0x410a
 2309 025f 00       		.byte	0
 2310 0260 02       		.uleb128 0x2
 2311 0261 18       		.uleb128 0x18
 2312 0262 9142     		.uleb128 0x2111
 2313 0264 18       		.uleb128 0x18
 2314 0265 00       		.byte	0
 2315 0266 00       		.byte	0
 2316 0267 30       		.uleb128 0x30
 2317 0268 898201   		.uleb128 0x4109
 2318 026b 00       		.byte	0
 2319 026c 11       		.uleb128 0x11
 2320 026d 01       		.uleb128 0x1
 2321 026e 31       		.uleb128 0x31
 2322 026f 13       		.uleb128 0x13
 2323 0270 00       		.byte	0
 2324 0271 00       		.byte	0
 2325 0272 31       		.uleb128 0x31
 2326 0273 34       		.uleb128 0x34
 2327 0274 00       		.byte	0
 2328 0275 03       		.uleb128 0x3
 2329 0276 08       		.uleb128 0x8
 2330 0277 3A       		.uleb128 0x3a
 2331 0278 0B       		.uleb128 0xb
 2332 0279 3B       		.uleb128 0x3b
 2333 027a 0B       		.uleb128 0xb
 2334 027b 49       		.uleb128 0x49
 2335 027c 13       		.uleb128 0x13
 2336 027d 00       		.byte	0
 2337 027e 00       		.byte	0
ARM GAS  /var/folders/m4/4md61f0s1_g0rzfghffqnxvr0000gn/T//ccmZTAOQ.s 			page 42


 2338 027f 32       		.uleb128 0x32
 2339 0280 0B       		.uleb128 0xb
 2340 0281 01       		.byte	0x1
 2341 0282 55       		.uleb128 0x55
 2342 0283 17       		.uleb128 0x17
 2343 0284 00       		.byte	0
 2344 0285 00       		.byte	0
 2345 0286 33       		.uleb128 0x33
 2346 0287 34       		.uleb128 0x34
 2347 0288 00       		.byte	0
 2348 0289 31       		.uleb128 0x31
 2349 028a 13       		.uleb128 0x13
 2350 028b 02       		.uleb128 0x2
 2351 028c 17       		.uleb128 0x17
 2352 028d 00       		.byte	0
 2353 028e 00       		.byte	0
 2354 028f 34       		.uleb128 0x34
 2355 0290 898201   		.uleb128 0x4109
 2356 0293 01       		.byte	0x1
 2357 0294 11       		.uleb128 0x11
 2358 0295 01       		.uleb128 0x1
 2359 0296 31       		.uleb128 0x31
 2360 0297 13       		.uleb128 0x13
 2361 0298 00       		.byte	0
 2362 0299 00       		.byte	0
 2363 029a 35       		.uleb128 0x35
 2364 029b 2E       		.uleb128 0x2e
 2365 029c 01       		.byte	0x1
 2366 029d 3F       		.uleb128 0x3f
 2367 029e 19       		.uleb128 0x19
 2368 029f 03       		.uleb128 0x3
 2369 02a0 0E       		.uleb128 0xe
 2370 02a1 3A       		.uleb128 0x3a
 2371 02a2 0B       		.uleb128 0xb
 2372 02a3 3B       		.uleb128 0x3b
 2373 02a4 0B       		.uleb128 0xb
 2374 02a5 27       		.uleb128 0x27
 2375 02a6 19       		.uleb128 0x19
 2376 02a7 11       		.uleb128 0x11
 2377 02a8 01       		.uleb128 0x1
 2378 02a9 12       		.uleb128 0x12
 2379 02aa 06       		.uleb128 0x6
 2380 02ab 40       		.uleb128 0x40
 2381 02ac 18       		.uleb128 0x18
 2382 02ad 9742     		.uleb128 0x2117
 2383 02af 19       		.uleb128 0x19
 2384 02b0 01       		.uleb128 0x1
 2385 02b1 13       		.uleb128 0x13
 2386 02b2 00       		.byte	0
 2387 02b3 00       		.byte	0
 2388 02b4 36       		.uleb128 0x36
 2389 02b5 1D       		.uleb128 0x1d
 2390 02b6 01       		.byte	0x1
 2391 02b7 31       		.uleb128 0x31
 2392 02b8 13       		.uleb128 0x13
 2393 02b9 11       		.uleb128 0x11
 2394 02ba 01       		.uleb128 0x1
ARM GAS  /var/folders/m4/4md61f0s1_g0rzfghffqnxvr0000gn/T//ccmZTAOQ.s 			page 43


 2395 02bb 12       		.uleb128 0x12
 2396 02bc 06       		.uleb128 0x6
 2397 02bd 58       		.uleb128 0x58
 2398 02be 0B       		.uleb128 0xb
 2399 02bf 59       		.uleb128 0x59
 2400 02c0 0B       		.uleb128 0xb
 2401 02c1 00       		.byte	0
 2402 02c2 00       		.byte	0
 2403 02c3 37       		.uleb128 0x37
 2404 02c4 34       		.uleb128 0x34
 2405 02c5 00       		.byte	0
 2406 02c6 03       		.uleb128 0x3
 2407 02c7 0E       		.uleb128 0xe
 2408 02c8 3A       		.uleb128 0x3a
 2409 02c9 0B       		.uleb128 0xb
 2410 02ca 3B       		.uleb128 0x3b
 2411 02cb 05       		.uleb128 0x5
 2412 02cc 49       		.uleb128 0x49
 2413 02cd 13       		.uleb128 0x13
 2414 02ce 3F       		.uleb128 0x3f
 2415 02cf 19       		.uleb128 0x19
 2416 02d0 3C       		.uleb128 0x3c
 2417 02d1 19       		.uleb128 0x19
 2418 02d2 00       		.byte	0
 2419 02d3 00       		.byte	0
 2420 02d4 38       		.uleb128 0x38
 2421 02d5 34       		.uleb128 0x34
 2422 02d6 00       		.byte	0
 2423 02d7 03       		.uleb128 0x3
 2424 02d8 08       		.uleb128 0x8
 2425 02d9 3A       		.uleb128 0x3a
 2426 02da 0B       		.uleb128 0xb
 2427 02db 3B       		.uleb128 0x3b
 2428 02dc 05       		.uleb128 0x5
 2429 02dd 49       		.uleb128 0x49
 2430 02de 13       		.uleb128 0x13
 2431 02df 3F       		.uleb128 0x3f
 2432 02e0 19       		.uleb128 0x19
 2433 02e1 3C       		.uleb128 0x3c
 2434 02e2 19       		.uleb128 0x19
 2435 02e3 00       		.byte	0
 2436 02e4 00       		.byte	0
 2437 02e5 39       		.uleb128 0x39
 2438 02e6 2E       		.uleb128 0x2e
 2439 02e7 01       		.byte	0x1
 2440 02e8 3F       		.uleb128 0x3f
 2441 02e9 19       		.uleb128 0x19
 2442 02ea 03       		.uleb128 0x3
 2443 02eb 0E       		.uleb128 0xe
 2444 02ec 3A       		.uleb128 0x3a
 2445 02ed 0B       		.uleb128 0xb
 2446 02ee 3B       		.uleb128 0x3b
 2447 02ef 05       		.uleb128 0x5
 2448 02f0 27       		.uleb128 0x27
 2449 02f1 19       		.uleb128 0x19
 2450 02f2 3C       		.uleb128 0x3c
 2451 02f3 19       		.uleb128 0x19
ARM GAS  /var/folders/m4/4md61f0s1_g0rzfghffqnxvr0000gn/T//ccmZTAOQ.s 			page 44


 2452 02f4 01       		.uleb128 0x1
 2453 02f5 13       		.uleb128 0x13
 2454 02f6 00       		.byte	0
 2455 02f7 00       		.byte	0
 2456 02f8 3A       		.uleb128 0x3a
 2457 02f9 2E       		.uleb128 0x2e
 2458 02fa 01       		.byte	0x1
 2459 02fb 3F       		.uleb128 0x3f
 2460 02fc 19       		.uleb128 0x19
 2461 02fd 03       		.uleb128 0x3
 2462 02fe 0E       		.uleb128 0xe
 2463 02ff 3A       		.uleb128 0x3a
 2464 0300 0B       		.uleb128 0xb
 2465 0301 3B       		.uleb128 0x3b
 2466 0302 05       		.uleb128 0x5
 2467 0303 27       		.uleb128 0x27
 2468 0304 19       		.uleb128 0x19
 2469 0305 49       		.uleb128 0x49
 2470 0306 13       		.uleb128 0x13
 2471 0307 3C       		.uleb128 0x3c
 2472 0308 19       		.uleb128 0x19
 2473 0309 01       		.uleb128 0x1
 2474 030a 13       		.uleb128 0x13
 2475 030b 00       		.byte	0
 2476 030c 00       		.byte	0
 2477 030d 3B       		.uleb128 0x3b
 2478 030e 2E       		.uleb128 0x2e
 2479 030f 01       		.byte	0x1
 2480 0310 3F       		.uleb128 0x3f
 2481 0311 19       		.uleb128 0x19
 2482 0312 03       		.uleb128 0x3
 2483 0313 0E       		.uleb128 0xe
 2484 0314 3A       		.uleb128 0x3a
 2485 0315 0B       		.uleb128 0xb
 2486 0316 3B       		.uleb128 0x3b
 2487 0317 05       		.uleb128 0x5
 2488 0318 27       		.uleb128 0x27
 2489 0319 19       		.uleb128 0x19
 2490 031a 3C       		.uleb128 0x3c
 2491 031b 19       		.uleb128 0x19
 2492 031c 00       		.byte	0
 2493 031d 00       		.byte	0
 2494 031e 00       		.byte	0
 2495              		.section	.debug_loc,"",%progbits
 2496              	.Ldebug_loc0:
 2497              	.LLST0:
 2498 0000 00000000 		.4byte	.LVL0
 2499 0004 24000000 		.4byte	.LVL3
 2500 0008 0100     		.2byte	0x1
 2501 000a 50       		.byte	0x50
 2502 000b 24000000 		.4byte	.LVL3
 2503 000f 34000000 		.4byte	.LVL6
 2504 0013 0300     		.2byte	0x3
 2505 0015 75       		.byte	0x75
 2506 0016 54       		.sleb128 -44
 2507 0017 9F       		.byte	0x9f
 2508 0018 34000000 		.4byte	.LVL6
ARM GAS  /var/folders/m4/4md61f0s1_g0rzfghffqnxvr0000gn/T//ccmZTAOQ.s 			page 45


 2509 001c 37000000 		.4byte	.LVL7-1
 2510 0020 0100     		.2byte	0x1
 2511 0022 50       		.byte	0x50
 2512 0023 37000000 		.4byte	.LVL7-1
 2513 0027 40000000 		.4byte	.LFE231
 2514 002b 0300     		.2byte	0x3
 2515 002d 75       		.byte	0x75
 2516 002e 54       		.sleb128 -44
 2517 002f 9F       		.byte	0x9f
 2518 0030 00000000 		.4byte	0
 2519 0034 00000000 		.4byte	0
 2520              	.LLST1:
 2521 0038 00000000 		.4byte	.LVL0
 2522 003c 24000000 		.4byte	.LVL3
 2523 0040 0100     		.2byte	0x1
 2524 0042 51       		.byte	0x51
 2525 0043 24000000 		.4byte	.LVL3
 2526 0047 2C000000 		.4byte	.LVL5
 2527 004b 0400     		.2byte	0x4
 2528 004d F3       		.byte	0xf3
 2529 004e 01       		.uleb128 0x1
 2530 004f 51       		.byte	0x51
 2531 0050 9F       		.byte	0x9f
 2532 0051 2C000000 		.4byte	.LVL5
 2533 0055 34000000 		.4byte	.LVL6
 2534 0059 0100     		.2byte	0x1
 2535 005b 50       		.byte	0x50
 2536 005c 34000000 		.4byte	.LVL6
 2537 0060 37000000 		.4byte	.LVL7-1
 2538 0064 0100     		.2byte	0x1
 2539 0066 51       		.byte	0x51
 2540 0067 37000000 		.4byte	.LVL7-1
 2541 006b 40000000 		.4byte	.LFE231
 2542 006f 0400     		.2byte	0x4
 2543 0071 F3       		.byte	0xf3
 2544 0072 01       		.uleb128 0x1
 2545 0073 51       		.byte	0x51
 2546 0074 9F       		.byte	0x9f
 2547 0075 00000000 		.4byte	0
 2548 0079 00000000 		.4byte	0
 2549              	.LLST2:
 2550 007d 2C000000 		.4byte	.LVL5
 2551 0081 34000000 		.4byte	.LVL6
 2552 0085 0200     		.2byte	0x2
 2553 0087 30       		.byte	0x30
 2554 0088 9F       		.byte	0x9f
 2555 0089 00000000 		.4byte	0
 2556 008d 00000000 		.4byte	0
 2557              	.LLST3:
 2558 0091 0C000000 		.4byte	.LVL9
 2559 0095 16000000 		.4byte	.LVL10
 2560 0099 0100     		.2byte	0x1
 2561 009b 52       		.byte	0x52
 2562 009c 28000000 		.4byte	.LVL13
 2563 00a0 2D000000 		.4byte	.LVL14-1
 2564 00a4 0100     		.2byte	0x1
 2565 00a6 52       		.byte	0x52
ARM GAS  /var/folders/m4/4md61f0s1_g0rzfghffqnxvr0000gn/T//ccmZTAOQ.s 			page 46


 2566 00a7 00000000 		.4byte	0
 2567 00ab 00000000 		.4byte	0
 2568              	.LLST4:
 2569 00af 16000000 		.4byte	.LVL10
 2570 00b3 20000000 		.4byte	.LVL11
 2571 00b7 0100     		.2byte	0x1
 2572 00b9 53       		.byte	0x53
 2573 00ba 20000000 		.4byte	.LVL11
 2574 00be 28000000 		.4byte	.LVL13
 2575 00c2 0200     		.2byte	0x2
 2576 00c4 71       		.byte	0x71
 2577 00c5 04       		.sleb128 4
 2578 00c6 00000000 		.4byte	0
 2579 00ca 00000000 		.4byte	0
 2580              	.LLST5:
 2581 00ce 16000000 		.4byte	.LVL10
 2582 00d2 28000000 		.4byte	.LVL13
 2583 00d6 0100     		.2byte	0x1
 2584 00d8 50       		.byte	0x50
 2585 00d9 00000000 		.4byte	0
 2586 00dd 00000000 		.4byte	0
 2587              	.LLST6:
 2588 00e1 22000000 		.4byte	.LVL12
 2589 00e5 28000000 		.4byte	.LVL13
 2590 00e9 0200     		.2byte	0x2
 2591 00eb 30       		.byte	0x30
 2592 00ec 9F       		.byte	0x9f
 2593 00ed 00000000 		.4byte	0
 2594 00f1 00000000 		.4byte	0
 2595              	.LLST7:
 2596 00f5 00000000 		.4byte	.LVL15
 2597 00f9 0B000000 		.4byte	.LVL17-1
 2598 00fd 0100     		.2byte	0x1
 2599 00ff 50       		.byte	0x50
 2600 0100 0B000000 		.4byte	.LVL17-1
 2601 0104 14000000 		.4byte	.LFE233
 2602 0108 0400     		.2byte	0x4
 2603 010a F3       		.byte	0xf3
 2604 010b 01       		.uleb128 0x1
 2605 010c 50       		.byte	0x50
 2606 010d 9F       		.byte	0x9f
 2607 010e 00000000 		.4byte	0
 2608 0112 00000000 		.4byte	0
 2609              	.LLST8:
 2610 0116 00000000 		.4byte	.LVL15
 2611 011a 0B000000 		.4byte	.LVL17-1
 2612 011e 0100     		.2byte	0x1
 2613 0120 51       		.byte	0x51
 2614 0121 0B000000 		.4byte	.LVL17-1
 2615 0125 14000000 		.4byte	.LFE233
 2616 0129 0400     		.2byte	0x4
 2617 012b F3       		.byte	0xf3
 2618 012c 01       		.uleb128 0x1
 2619 012d 51       		.byte	0x51
 2620 012e 9F       		.byte	0x9f
 2621 012f 00000000 		.4byte	0
 2622 0133 00000000 		.4byte	0
ARM GAS  /var/folders/m4/4md61f0s1_g0rzfghffqnxvr0000gn/T//ccmZTAOQ.s 			page 47


 2623              	.LLST9:
 2624 0137 08000000 		.4byte	.LVL16
 2625 013b 0B000000 		.4byte	.LVL17-1
 2626 013f 0100     		.2byte	0x1
 2627 0141 51       		.byte	0x51
 2628 0142 0B000000 		.4byte	.LVL17-1
 2629 0146 14000000 		.4byte	.LFE233
 2630 014a 0400     		.2byte	0x4
 2631 014c F3       		.byte	0xf3
 2632 014d 01       		.uleb128 0x1
 2633 014e 51       		.byte	0x51
 2634 014f 9F       		.byte	0x9f
 2635 0150 00000000 		.4byte	0
 2636 0154 00000000 		.4byte	0
 2637              	.LLST10:
 2638 0158 08000000 		.4byte	.LVL16
 2639 015c 0B000000 		.4byte	.LVL17-1
 2640 0160 0100     		.2byte	0x1
 2641 0162 50       		.byte	0x50
 2642 0163 0B000000 		.4byte	.LVL17-1
 2643 0167 14000000 		.4byte	.LFE233
 2644 016b 0400     		.2byte	0x4
 2645 016d F3       		.byte	0xf3
 2646 016e 01       		.uleb128 0x1
 2647 016f 50       		.byte	0x50
 2648 0170 9F       		.byte	0x9f
 2649 0171 00000000 		.4byte	0
 2650 0175 00000000 		.4byte	0
 2651              		.section	.debug_aranges,"",%progbits
 2652 0000 2C000000 		.4byte	0x2c
 2653 0004 0200     		.2byte	0x2
 2654 0006 00000000 		.4byte	.Ldebug_info0
 2655 000a 04       		.byte	0x4
 2656 000b 00       		.byte	0
 2657 000c 0000     		.2byte	0
 2658 000e 0000     		.2byte	0
 2659 0010 00000000 		.4byte	.LFB231
 2660 0014 40000000 		.4byte	.LFE231-.LFB231
 2661 0018 00000000 		.4byte	.LFB232
 2662 001c 3C000000 		.4byte	.LFE232-.LFB232
 2663 0020 00000000 		.4byte	.LFB233
 2664 0024 14000000 		.4byte	.LFE233-.LFB233
 2665 0028 00000000 		.4byte	0
 2666 002c 00000000 		.4byte	0
 2667              		.section	.debug_ranges,"",%progbits
 2668              	.Ldebug_ranges0:
 2669 0000 04000000 		.4byte	.LBB52
 2670 0004 06000000 		.4byte	.LBE52
 2671 0008 08000000 		.4byte	.LBB59
 2672 000c 0C000000 		.4byte	.LBE59
 2673 0010 00000000 		.4byte	0
 2674 0014 00000000 		.4byte	0
 2675 0018 14000000 		.4byte	.LBB60
 2676 001c 18000000 		.4byte	.LBE60
 2677 0020 1C000000 		.4byte	.LBB63
 2678 0024 22000000 		.4byte	.LBE63
 2679 0028 00000000 		.4byte	0
ARM GAS  /var/folders/m4/4md61f0s1_g0rzfghffqnxvr0000gn/T//ccmZTAOQ.s 			page 48


 2680 002c 00000000 		.4byte	0
 2681 0030 16000000 		.4byte	.LBB75
 2682 0034 1A000000 		.4byte	.LBE75
 2683 0038 1C000000 		.4byte	.LBB78
 2684 003c 1E000000 		.4byte	.LBE78
 2685 0040 00000000 		.4byte	0
 2686 0044 00000000 		.4byte	0
 2687 0048 1E000000 		.4byte	.LBB79
 2688 004c 20000000 		.4byte	.LBE79
 2689 0050 22000000 		.4byte	.LBB88
 2690 0054 26000000 		.4byte	.LBE88
 2691 0058 00000000 		.4byte	0
 2692 005c 00000000 		.4byte	0
 2693 0060 00000000 		.4byte	.LFB231
 2694 0064 40000000 		.4byte	.LFE231
 2695 0068 00000000 		.4byte	.LFB232
 2696 006c 3C000000 		.4byte	.LFE232
 2697 0070 00000000 		.4byte	.LFB233
 2698 0074 14000000 		.4byte	.LFE233
 2699 0078 00000000 		.4byte	0
 2700 007c 00000000 		.4byte	0
 2701              		.section	.debug_line,"",%progbits
 2702              	.Ldebug_line0:
 2703 0000 F0020000 		.section	.debug_str,"MS",%progbits,1
 2703      02001D02 
 2703      00000201 
 2703      FB0E0D00 
 2703      01010101 
 2704              	.LASF121:
 2705 0000 2F557365 		.ascii	"/Users/raphael/Documents/pcb-quadrotor/code\000"
 2705      72732F72 
 2705      61706861 
 2705      656C2F44 
 2705      6F63756D 
 2706              	.LASF53:
 2707 002c 72656164 		.ascii	"ready_list_t\000"
 2707      795F6C69 
 2707      73745F74 
 2707      00
 2708              	.LASF108:
 2709 0039 71756575 		.ascii	"queue_insert\000"
 2709      655F696E 
 2709      73657274 
 2709      00
 2710              	.LASF91:
 2711 0046 77747472 		.ascii	"wttrp\000"
 2711      7000
 2712              	.LASF88:
 2713 004c 7264796D 		.ascii	"rdymsg\000"
 2713      736700
 2714              	.LASF16:
 2715 0053 75696E74 		.ascii	"uint64_t\000"
 2715      36345F74 
 2715      00
 2716              	.LASF5:
 2717 005c 5F5F7569 		.ascii	"__uint8_t\000"
 2717      6E74385F 
ARM GAS  /var/folders/m4/4md61f0s1_g0rzfghffqnxvr0000gn/T//ccmZTAOQ.s 			page 49


 2717      7400
 2718              	.LASF85:
 2719 0066 706F7274 		.ascii	"port_intctx\000"
 2719      5F696E74 
 2719      63747800 
 2720              	.LASF72:
 2721 0072 73797374 		.ascii	"system_debug_t\000"
 2721      656D5F64 
 2721      65627567 
 2721      5F7400
 2722              	.LASF104:
 2723 0081 706F7274 		.ascii	"port_lock\000"
 2723      5F6C6F63 
 2723      6B00
 2724              	.LASF12:
 2725 008b 6C6F6E67 		.ascii	"long long unsigned int\000"
 2725      206C6F6E 
 2725      6720756E 
 2725      7369676E 
 2725      65642069 
 2726              	.LASF89:
 2727 00a2 65786974 		.ascii	"exitcode\000"
 2727      636F6465 
 2727      00
 2728              	.LASF79:
 2729 00ab 6D61696E 		.ascii	"mainthread\000"
 2729      74687265 
 2729      616400
 2730              	.LASF69:
 2731 00b6 76697274 		.ascii	"virtual_timers_list_t\000"
 2731      75616C5F 
 2731      74696D65 
 2731      72735F6C 
 2731      6973745F 
 2732              	.LASF118:
 2733 00cc 49544D5F 		.ascii	"ITM_RxBuffer\000"
 2733      52784275 
 2733      66666572 
 2733      00
 2734              	.LASF52:
 2735 00d9 63685F74 		.ascii	"ch_threads_queue\000"
 2735      68726561 
 2735      64735F71 
 2735      75657565 
 2735      00
 2736              	.LASF30:
 2737 00ea 705F7072 		.ascii	"p_prio\000"
 2737      696F00
 2738              	.LASF10:
 2739 00f1 6C6F6E67 		.ascii	"long long int\000"
 2739      206C6F6E 
 2739      6720696E 
 2739      7400
 2740              	.LASF1:
 2741 00ff 7369676E 		.ascii	"signed char\000"
 2741      65642063 
 2741      68617200 
ARM GAS  /var/folders/m4/4md61f0s1_g0rzfghffqnxvr0000gn/T//ccmZTAOQ.s 			page 50


 2742              	.LASF46:
 2743 010b 705F6D70 		.ascii	"p_mpool\000"
 2743      6F6F6C00 
 2744              	.LASF99:
 2745 0113 6D5F7175 		.ascii	"m_queue\000"
 2745      65756500 
 2746              	.LASF78:
 2747 011b 76746C69 		.ascii	"vtlist\000"
 2747      737400
 2748              	.LASF105:
 2749 0122 706F7274 		.ascii	"port_unlock\000"
 2749      5F756E6C 
 2749      6F636B00 
 2750              	.LASF21:
 2751 012e 74736C69 		.ascii	"tslices_t\000"
 2751      6365735F 
 2751      7400
 2752              	.LASF76:
 2753 0138 63685F73 		.ascii	"ch_system\000"
 2753      79737465 
 2753      6D00
 2754              	.LASF7:
 2755 0142 6C6F6E67 		.ascii	"long int\000"
 2755      20696E74 
 2755      00
 2756              	.LASF116:
 2757 014b 63684D73 		.ascii	"chMsgSend\000"
 2757      6753656E 
 2757      6400
 2758              	.LASF19:
 2759 0155 74737461 		.ascii	"tstate_t\000"
 2759      74655F74 
 2759      00
 2760              	.LASF112:
 2761 015e 63684D73 		.ascii	"chMsgIsPendingI\000"
 2761      67497350 
 2761      656E6469 
 2761      6E674900 
 2762              	.LASF32:
 2763 016e 705F6E65 		.ascii	"p_newer\000"
 2763      77657200 
 2764              	.LASF96:
 2765 0176 735F7175 		.ascii	"s_queue\000"
 2765      65756500 
 2766              	.LASF58:
 2767 017e 725F6E65 		.ascii	"r_newer\000"
 2767      77657200 
 2768              	.LASF82:
 2769 0186 72656761 		.ascii	"regarm_t\000"
 2769      726D5F74 
 2769      00
 2770              	.LASF65:
 2771 018f 76745F70 		.ascii	"vt_prev\000"
 2771      72657600 
 2772              	.LASF103:
 2773 0197 6D757465 		.ascii	"mutex_t\000"
 2773      785F7400 
ARM GAS  /var/folders/m4/4md61f0s1_g0rzfghffqnxvr0000gn/T//ccmZTAOQ.s 			page 51


 2774              	.LASF109:
 2775 019f 76616C75 		.ascii	"value\000"
 2775      6500
 2776              	.LASF80:
 2777 01a5 69646C65 		.ascii	"idle_thread_wa\000"
 2777      5F746872 
 2777      6561645F 
 2777      776100
 2778              	.LASF25:
 2779 01b4 636E745F 		.ascii	"cnt_t\000"
 2779      7400
 2780              	.LASF0:
 2781 01ba 756E7369 		.ascii	"unsigned int\000"
 2781      676E6564 
 2781      20696E74 
 2781      00
 2782              	.LASF64:
 2783 01c7 76745F6E 		.ascii	"vt_next\000"
 2783      65787400 
 2784              	.LASF39:
 2785 01cf 705F7469 		.ascii	"p_time\000"
 2785      6D6500
 2786              	.LASF92:
 2787 01d6 77747365 		.ascii	"wtsemp\000"
 2787      6D7000
 2788              	.LASF66:
 2789 01dd 76745F64 		.ascii	"vt_delta\000"
 2789      656C7461 
 2789      00
 2790              	.LASF41:
 2791 01e6 705F6D73 		.ascii	"p_msgqueue\000"
 2791      67717565 
 2791      756500
 2792              	.LASF97:
 2793 01f1 735F636E 		.ascii	"s_cnt\000"
 2793      7400
 2794              	.LASF4:
 2795 01f7 73686F72 		.ascii	"short unsigned int\000"
 2795      7420756E 
 2795      7369676E 
 2795      65642069 
 2795      6E7400
 2796              	.LASF49:
 2797 020a 63685F74 		.ascii	"ch_thread\000"
 2797      68726561 
 2797      6400
 2798              	.LASF125:
 2799 0214 63685363 		.ascii	"chSchWakeupS\000"
 2799      6857616B 
 2799      65757053 
 2799      00
 2800              	.LASF23:
 2801 0221 6D73675F 		.ascii	"msg_t\000"
 2801      7400
 2802              	.LASF75:
 2803 0227 63685F73 		.ascii	"ch_system_t\000"
 2803      79737465 
ARM GAS  /var/folders/m4/4md61f0s1_g0rzfghffqnxvr0000gn/T//ccmZTAOQ.s 			page 52


 2803      6D5F7400 
 2804              	.LASF18:
 2805 0233 746D6F64 		.ascii	"tmode_t\000"
 2805      655F7400 
 2806              	.LASF54:
 2807 023b 63685F72 		.ascii	"ch_ready_list\000"
 2807      65616479 
 2807      5F6C6973 
 2807      7400
 2808              	.LASF24:
 2809 0249 6576656E 		.ascii	"eventmask_t\000"
 2809      746D6173 
 2809      6B5F7400 
 2810              	.LASF6:
 2811 0255 5F5F696E 		.ascii	"__int32_t\000"
 2811      7433325F 
 2811      7400
 2812              	.LASF83:
 2813 025f 73746B61 		.ascii	"stkalign_t\000"
 2813      6C69676E 
 2813      5F7400
 2814              	.LASF48:
 2815 026a 74687265 		.ascii	"threads_list_t\000"
 2815      6164735F 
 2815      6C697374 
 2815      5F7400
 2816              	.LASF119:
 2817 0279 474E5520 		.ascii	"GNU C 4.9.3 20150529 (release) [ARM/embedded-4_9-br"
 2817      4320342E 
 2817      392E3320 
 2817      32303135 
 2817      30353239 
 2818 02ac 616E6368 		.ascii	"anch revision 224288] -mcpu=cortex-m4 -mfloat-abi=h"
 2818      20726576 
 2818      6973696F 
 2818      6E203232 
 2818      34323838 
 2819 02df 61726420 		.ascii	"ard -mfpu=fpv4-sp-d16 -mno-thumb-interwork -mthumb "
 2819      2D6D6670 
 2819      753D6670 
 2819      76342D73 
 2819      702D6431 
 2820 0312 2D676764 		.ascii	"-ggdb -O2 -std=c99 -fomit-frame-pointer -falign-fun"
 2820      62202D4F 
 2820      32202D73 
 2820      74643D63 
 2820      3939202D 
 2821 0345 6374696F 		.ascii	"ctions=16 -ffunction-sections -fdata-sections -fno-"
 2821      6E733D31 
 2821      36202D66 
 2821      66756E63 
 2821      74696F6E 
 2822 0378 636F6D6D 		.ascii	"common -fsingle-precision-constant\000"
 2822      6F6E202D 
 2822      6673696E 
 2822      676C652D 
 2822      70726563 
ARM GAS  /var/folders/m4/4md61f0s1_g0rzfghffqnxvr0000gn/T//ccmZTAOQ.s 			page 53


 2823              	.LASF40:
 2824 039b 705F7761 		.ascii	"p_waiting\000"
 2824      6974696E 
 2824      6700
 2825              	.LASF81:
 2826 03a5 73697A65 		.ascii	"sizetype\000"
 2826      74797065 
 2826      00
 2827              	.LASF47:
 2828 03ae 74687265 		.ascii	"thread_reference_t\000"
 2828      61645F72 
 2828      65666572 
 2828      656E6365 
 2828      5F7400
 2829              	.LASF70:
 2830 03c1 63685F76 		.ascii	"ch_virtual_timers_list\000"
 2830      69727475 
 2830      616C5F74 
 2830      696D6572 
 2830      735F6C69 
 2831              	.LASF33:
 2832 03d8 705F6F6C 		.ascii	"p_older\000"
 2832      64657200 
 2833              	.LASF57:
 2834 03e0 725F6374 		.ascii	"r_ctx\000"
 2834      7800
 2835              	.LASF87:
 2836 03e6 746D5F63 		.ascii	"tm_calibration_t\000"
 2836      616C6962 
 2836      72617469 
 2836      6F6E5F74 
 2836      00
 2837              	.LASF101:
 2838 03f7 6D5F6E65 		.ascii	"m_next\000"
 2838      787400
 2839              	.LASF60:
 2840 03fe 725F6375 		.ascii	"r_current\000"
 2840      7272656E 
 2840      7400
 2841              	.LASF59:
 2842 0408 725F6F6C 		.ascii	"r_older\000"
 2842      64657200 
 2843              	.LASF11:
 2844 0410 5F5F7569 		.ascii	"__uint64_t\000"
 2844      6E743634 
 2844      5F7400
 2845              	.LASF20:
 2846 041b 74726566 		.ascii	"trefs_t\000"
 2846      735F7400 
 2847              	.LASF62:
 2848 0423 76697274 		.ascii	"virtual_timer_t\000"
 2848      75616C5F 
 2848      74696D65 
 2848      725F7400 
 2849              	.LASF29:
 2850 0433 705F7072 		.ascii	"p_prev\000"
 2850      657600
ARM GAS  /var/folders/m4/4md61f0s1_g0rzfghffqnxvr0000gn/T//ccmZTAOQ.s 			page 54


 2851              	.LASF22:
 2852 043a 74707269 		.ascii	"tprio_t\000"
 2852      6F5F7400 
 2853              	.LASF73:
 2854 0442 63685F73 		.ascii	"ch_system_debug\000"
 2854      79737465 
 2854      6D5F6465 
 2854      62756700 
 2855              	.LASF111:
 2856 0452 5F426F6F 		.ascii	"_Bool\000"
 2856      6C00
 2857              	.LASF14:
 2858 0458 696E7433 		.ascii	"int32_t\000"
 2858      325F7400 
 2859              	.LASF2:
 2860 0460 756E7369 		.ascii	"unsigned char\000"
 2860      676E6564 
 2860      20636861 
 2860      7200
 2861              	.LASF44:
 2862 046e 705F6D74 		.ascii	"p_mtxlist\000"
 2862      786C6973 
 2862      7400
 2863              	.LASF3:
 2864 0478 73686F72 		.ascii	"short int\000"
 2864      7420696E 
 2864      7400
 2865              	.LASF35:
 2866 0482 705F7374 		.ascii	"p_state\000"
 2866      61746500 
 2867              	.LASF38:
 2868 048a 705F7072 		.ascii	"p_preempt\000"
 2868      65656D70 
 2868      7400
 2869              	.LASF56:
 2870 0494 725F7072 		.ascii	"r_prio\000"
 2870      696F00
 2871              	.LASF94:
 2872 049b 65776D61 		.ascii	"ewmask\000"
 2872      736B00
 2873              	.LASF28:
 2874 04a2 705F6E65 		.ascii	"p_next\000"
 2874      787400
 2875              	.LASF36:
 2876 04a9 705F666C 		.ascii	"p_flags\000"
 2876      61677300 
 2877              	.LASF114:
 2878 04b1 5F5F6675 		.ascii	"__func__\000"
 2878      6E635F5F 
 2878      00
 2879              	.LASF106:
 2880 04ba 63685379 		.ascii	"chSysLock\000"
 2880      734C6F63 
 2880      6B00
 2881              	.LASF63:
 2882 04c4 63685F76 		.ascii	"ch_virtual_timer\000"
 2882      69727475 
ARM GAS  /var/folders/m4/4md61f0s1_g0rzfghffqnxvr0000gn/T//ccmZTAOQ.s 			page 55


 2882      616C5F74 
 2882      696D6572 
 2882      00
 2883              	.LASF122:
 2884 04d5 63684D73 		.ascii	"chMsgRelease\000"
 2884      6752656C 
 2884      65617365 
 2884      00
 2885              	.LASF95:
 2886 04e2 63685F73 		.ascii	"ch_semaphore\000"
 2886      656D6170 
 2886      686F7265 
 2886      00
 2887              	.LASF123:
 2888 04ef 63685363 		.ascii	"chSchGoSleepS\000"
 2888      68476F53 
 2888      6C656570 
 2888      5300
 2889              	.LASF43:
 2890 04fd 705F6570 		.ascii	"p_epending\000"
 2890      656E6469 
 2890      6E6700
 2891              	.LASF120:
 2892 0508 43686962 		.ascii	"ChibiOS_16.1.4/os/rt/src/chmsg.c\000"
 2892      694F535F 
 2892      31362E31 
 2892      2E342F6F 
 2892      732F7274 
 2893              	.LASF15:
 2894 0529 75696E74 		.ascii	"uint32_t\000"
 2894      33325F74 
 2894      00
 2895              	.LASF93:
 2896 0532 77746D74 		.ascii	"wtmtxp\000"
 2896      787000
 2897              	.LASF55:
 2898 0539 725F7175 		.ascii	"r_queue\000"
 2898      65756500 
 2899              	.LASF124:
 2900 0541 63685363 		.ascii	"chSchReadyI\000"
 2900      68526561 
 2900      64794900 
 2901              	.LASF50:
 2902 054d 63685F74 		.ascii	"ch_threads_list\000"
 2902      68726561 
 2902      64735F6C 
 2902      69737400 
 2903              	.LASF9:
 2904 055d 6C6F6E67 		.ascii	"long unsigned int\000"
 2904      20756E73 
 2904      69676E65 
 2904      6420696E 
 2904      7400
 2905              	.LASF102:
 2906 056f 63686172 		.ascii	"char\000"
 2906      00
 2907              	.LASF27:
ARM GAS  /var/folders/m4/4md61f0s1_g0rzfghffqnxvr0000gn/T//ccmZTAOQ.s 			page 56


 2908 0574 74687265 		.ascii	"thread_t\000"
 2908      61645F74 
 2908      00
 2909              	.LASF113:
 2910 057d 71756575 		.ascii	"queue_fifo_remove\000"
 2910      655F6669 
 2910      666F5F72 
 2910      656D6F76 
 2910      6500
 2911              	.LASF26:
 2912 058f 73797374 		.ascii	"systime_t\000"
 2912      696D655F 
 2912      7400
 2913              	.LASF45:
 2914 0599 705F7265 		.ascii	"p_realprio\000"
 2914      616C7072 
 2914      696F00
 2915              	.LASF61:
 2916 05a4 76746675 		.ascii	"vtfunc_t\000"
 2916      6E635F74 
 2916      00
 2917              	.LASF8:
 2918 05ad 5F5F7569 		.ascii	"__uint32_t\000"
 2918      6E743332 
 2918      5F7400
 2919              	.LASF107:
 2920 05b8 5F5F7365 		.ascii	"__set_BASEPRI\000"
 2920      745F4241 
 2920      53455052 
 2920      4900
 2921              	.LASF74:
 2922 05c6 70616E69 		.ascii	"panic_msg\000"
 2922      635F6D73 
 2922      6700
 2923              	.LASF86:
 2924 05d0 6F666673 		.ascii	"offset\000"
 2924      657400
 2925              	.LASF84:
 2926 05d7 636F6E74 		.ascii	"context\000"
 2926      65787400 
 2927              	.LASF17:
 2928 05df 7274636E 		.ascii	"rtcnt_t\000"
 2928      745F7400 
 2929              	.LASF68:
 2930 05e7 76745F70 		.ascii	"vt_par\000"
 2930      617200
 2931              	.LASF117:
 2932 05ee 63684D73 		.ascii	"chMsgWait\000"
 2932      67576169 
 2932      7400
 2933              	.LASF51:
 2934 05f8 74687265 		.ascii	"threads_queue_t\000"
 2934      6164735F 
 2934      71756575 
 2934      655F7400 
 2935              	.LASF98:
 2936 0608 63685F6D 		.ascii	"ch_mutex\000"
ARM GAS  /var/folders/m4/4md61f0s1_g0rzfghffqnxvr0000gn/T//ccmZTAOQ.s 			page 57


 2936      75746578 
 2936      00
 2937              	.LASF37:
 2938 0611 705F7265 		.ascii	"p_refs\000"
 2938      667300
 2939              	.LASF77:
 2940 0618 726C6973 		.ascii	"rlist\000"
 2940      7400
 2941              	.LASF13:
 2942 061e 75696E74 		.ascii	"uint8_t\000"
 2942      385F7400 
 2943              	.LASF90:
 2944 0626 77746F62 		.ascii	"wtobjp\000"
 2944      6A7000
 2945              	.LASF34:
 2946 062d 705F6E61 		.ascii	"p_name\000"
 2946      6D6500
 2947              	.LASF71:
 2948 0634 76745F73 		.ascii	"vt_systime\000"
 2948      79737469 
 2948      6D6500
 2949              	.LASF110:
 2950 063f 63685379 		.ascii	"chSysUnlock\000"
 2950      73556E6C 
 2950      6F636B00 
 2951              	.LASF42:
 2952 064b 705F6D73 		.ascii	"p_msg\000"
 2952      6700
 2953              	.LASF115:
 2954 0651 63684D73 		.ascii	"chMsgReleaseS\000"
 2954      6752656C 
 2954      65617365 
 2954      5300
 2955              	.LASF100:
 2956 065f 6D5F6F77 		.ascii	"m_owner\000"
 2956      6E657200 
 2957              	.LASF31:
 2958 0667 705F6374 		.ascii	"p_ctx\000"
 2958      7800
 2959              	.LASF67:
 2960 066d 76745F66 		.ascii	"vt_func\000"
 2960      756E6300 
 2961              		.ident	"GCC: (GNU Tools for ARM Embedded Processors) 4.9.3 20150529 (release) [ARM/embedded-4_9-br
ARM GAS  /var/folders/m4/4md61f0s1_g0rzfghffqnxvr0000gn/T//ccmZTAOQ.s 			page 58


DEFINED SYMBOLS
                            *ABS*:0000000000000000 chmsg.c
/var/folders/m4/4md61f0s1_g0rzfghffqnxvr0000gn/T//ccmZTAOQ.s:21     .text.chMsgSend:0000000000000000 $t
/var/folders/m4/4md61f0s1_g0rzfghffqnxvr0000gn/T//ccmZTAOQ.s:27     .text.chMsgSend:0000000000000000 chMsgSend
/var/folders/m4/4md61f0s1_g0rzfghffqnxvr0000gn/T//ccmZTAOQ.s:138    .text.chMsgSend:000000000000003c $d
/var/folders/m4/4md61f0s1_g0rzfghffqnxvr0000gn/T//ccmZTAOQ.s:143    .text.chMsgWait:0000000000000000 $t
/var/folders/m4/4md61f0s1_g0rzfghffqnxvr0000gn/T//ccmZTAOQ.s:149    .text.chMsgWait:0000000000000000 chMsgWait
/var/folders/m4/4md61f0s1_g0rzfghffqnxvr0000gn/T//ccmZTAOQ.s:252    .text.chMsgWait:0000000000000038 $d
/var/folders/m4/4md61f0s1_g0rzfghffqnxvr0000gn/T//ccmZTAOQ.s:257    .text.chMsgRelease:0000000000000000 $t
/var/folders/m4/4md61f0s1_g0rzfghffqnxvr0000gn/T//ccmZTAOQ.s:263    .text.chMsgRelease:0000000000000000 chMsgRelease
                     .debug_frame:0000000000000010 $d

UNDEFINED SYMBOLS
chSchGoSleepS
chSchReadyI
ch
chSchWakeupS
