ARM GAS  /var/folders/m4/4md61f0s1_g0rzfghffqnxvr0000gn/T//ccS6xPmJ.s 			page 1


   1              		.syntax unified
   2              		.cpu cortex-m4
   3              		.eabi_attribute 27, 1
   4              		.eabi_attribute 28, 1
   5              		.fpu fpv4-sp-d16
   6              		.eabi_attribute 20, 1
   7              		.eabi_attribute 21, 1
   8              		.eabi_attribute 23, 3
   9              		.eabi_attribute 24, 1
  10              		.eabi_attribute 25, 1
  11              		.eabi_attribute 26, 1
  12              		.eabi_attribute 30, 2
  13              		.eabi_attribute 34, 1
  14              		.eabi_attribute 18, 4
  15              		.thumb
  16              		.file	"chprintf.c"
  17              		.text
  18              	.Ltext0:
  19              		.cfi_sections	.debug_frame
  20              		.section	.text.long_to_string_with_divisor,"ax",%progbits
  21              		.align	2
  22              		.p2align 4,,15
  23              		.thumb
  24              		.thumb_func
  25              		.type	long_to_string_with_divisor, %function
  26              	long_to_string_with_divisor:
  27              	.LFB268:
  28              		.file 1 "ChibiOS_16.1.4/os/hal/lib/streams/chprintf.c"
  29              		.loc 1 40 0
  30              		.cfi_startproc
  31              		@ args = 0, pretend = 0, frame = 0
  32              		@ frame_needed = 0, uses_anonymous_args = 0
  33              		@ link register save eliminated.
  34              	.LVL0:
  35 0000 F0B4     		push	{r4, r5, r6, r7}
  36              		.cfi_def_cfa_offset 16
  37              		.cfi_offset 4, -16
  38              		.cfi_offset 5, -12
  39              		.cfi_offset 6, -8
  40              		.cfi_offset 7, -4
  41              		.loc 1 52 0
  42 0002 00F10B07 		add	r7, r0, #11
  43              		.loc 1 46 0
  44 0006 002B     		cmp	r3, #0
  45 0008 08BF     		it	eq
  46 000a 0B46     		moveq	r3, r1
  47              	.LVL1:
  48              		.loc 1 52 0
  49 000c 3D46     		mov	r5, r7
  50              	.LVL2:
  51              	.L4:
  52              		.loc 1 54 0
  53 000e B1FBF2F6 		udiv	r6, r1, r2
  54 0012 02FB1611 		mls	r1, r2, r6, r1
  55              	.LVL3:
  56              		.loc 1 55 0
  57 0016 01F13004 		add	r4, r1, #48
ARM GAS  /var/folders/m4/4md61f0s1_g0rzfghffqnxvr0000gn/T//ccS6xPmJ.s 			page 2


  58              	.LVL4:
  59              		.loc 1 56 0
  60 001a 392C     		cmp	r4, #57
  61              		.loc 1 57 0
  62 001c C8BF     		it	gt
  63 001e 01F13704 		addgt	r4, r1, #55
  64              	.LVL5:
  65              		.loc 1 58 0
  66 0022 E4B2     		uxtb	r4, r4
  67              	.LVL6:
  68 0024 05F8014D 		strb	r4, [r5, #-1]!
  69              	.LVL7:
  70              		.loc 1 60 0
  71 0028 B3FBF2F3 		udiv	r3, r3, r2
  72              	.LVL8:
  73              		.loc 1 59 0
  74 002c 3146     		mov	r1, r6
  75              	.LVL9:
  76              		.loc 1 60 0
  77 002e 002B     		cmp	r3, #0
  78 0030 EDD1     		bne	.L4
  79              	.LVL10:
  80              		.loc 1 62 0
  81 0032 7B1B     		subs	r3, r7, r5
  82              	.LVL11:
  83 0034 0344     		add	r3, r3, r0
  84 0036 01E0     		b	.L6
  85              	.LVL12:
  86              	.L12:
  87 0038 15F8014F 		ldrb	r4, [r5, #1]!	@ zero_extendqisi2
  88              	.LVL13:
  89              	.L6:
  90              		.loc 1 64 0 discriminator 1
  91 003c 00F8014B 		strb	r4, [r0], #1
  92              	.LVL14:
  93              		.loc 1 65 0 discriminator 1
  94 0040 9842     		cmp	r0, r3
  95 0042 F9D1     		bne	.L12
  96              		.loc 1 68 0
  97 0044 F0BC     		pop	{r4, r5, r6, r7}
  98              		.cfi_restore 7
  99              		.cfi_restore 6
 100              		.cfi_restore 5
 101              		.cfi_restore 4
 102              		.cfi_def_cfa_offset 0
 103 0046 7047     		bx	lr
 104              		.cfi_endproc
 105              	.LFE268:
 106              		.size	long_to_string_with_divisor, .-long_to_string_with_divisor
 107              		.global	__aeabi_d2f
 108              		.global	__aeabi_f2d
 109              		.global	__aeabi_i2d
 110              		.global	__aeabi_dsub
 111              		.global	__aeabi_ui2d
 112              		.global	__aeabi_dmul
 113              		.global	__aeabi_d2iz
 114              		.section	.text.chvprintf,"ax",%progbits
ARM GAS  /var/folders/m4/4md61f0s1_g0rzfghffqnxvr0000gn/T//ccS6xPmJ.s 			page 3


 115              		.align	2
 116              		.p2align 4,,15
 117              		.global	chvprintf
 118              		.thumb
 119              		.thumb_func
 120              		.type	chvprintf, %function
 121              	chvprintf:
 122              	.LFB271:
 123              		.loc 1 121 0
 124              		.cfi_startproc
 125              		@ args = 0, pretend = 0, frame = 48
 126              		@ frame_needed = 0, uses_anonymous_args = 0
 127              	.LVL15:
 128 0000 2DE9F04F 		push	{r4, r5, r6, r7, r8, r9, r10, fp, lr}
 129              		.cfi_def_cfa_offset 36
 130              		.cfi_offset 4, -36
 131              		.cfi_offset 5, -32
 132              		.cfi_offset 6, -28
 133              		.cfi_offset 7, -24
 134              		.cfi_offset 8, -20
 135              		.cfi_offset 9, -16
 136              		.cfi_offset 10, -12
 137              		.cfi_offset 11, -8
 138              		.cfi_offset 14, -4
 139 0004 2DED028B 		fstmfdd	sp!, {d8}
 140              		.cfi_def_cfa_offset 44
 141              		.cfi_offset 80, -44
 142              		.cfi_offset 81, -40
 143 0008 8DB0     		sub	sp, sp, #52
 144              		.cfi_def_cfa_offset 96
 145              		.loc 1 121 0
 146 000a 1746     		mov	r7, r2
 147              	.LVL16:
 148 000c 0DF11903 		add	r3, sp, #25
 149 0010 06AA     		add	r2, sp, #24
 150              	.LVL17:
 151 0012 9B1A     		subs	r3, r3, r2
 152 0014 0193     		str	r3, [sp, #4]
 153              		.loc 1 124 0
 154 0016 0023     		movs	r3, #0
 155              		.loc 1 121 0
 156 0018 0646     		mov	r6, r0
 157 001a 0D46     		mov	r5, r1
 158              		.loc 1 124 0
 159 001c 0093     		str	r3, [sp]
 160 001e 8246     		mov	r10, r0
 161              	.LVL18:
 162              	.L14:
 163              		.loc 1 135 0
 164 0020 2978     		ldrb	r1, [r5]	@ zero_extendqisi2
 165 0022 6B1C     		adds	r3, r5, #1
 166              	.LVL19:
 167              		.loc 1 136 0
 168 0024 71B1     		cbz	r1, .L89
 169              	.L102:
 170              		.loc 1 138 0
 171 0026 2529     		cmp	r1, #37
ARM GAS  /var/folders/m4/4md61f0s1_g0rzfghffqnxvr0000gn/T//ccS6xPmJ.s 			page 4


 172 0028 12D0     		beq	.L16
 173              		.loc 1 140 0
 174 002a 009C     		ldr	r4, [sp]
 175              		.loc 1 139 0
 176 002c DAF80020 		ldr	r2, [r10]
 177              		.loc 1 135 0
 178 0030 1D46     		mov	r5, r3
 179              		.loc 1 139 0
 180 0032 9268     		ldr	r2, [r2, #8]
 181 0034 5046     		mov	r0, r10
 182              		.loc 1 140 0
 183 0036 0134     		adds	r4, r4, #1
 184 0038 0094     		str	r4, [sp]
 185              		.loc 1 139 0
 186 003a 9047     		blx	r2
 187              	.LVL20:
 188              		.loc 1 135 0
 189 003c 2978     		ldrb	r1, [r5]	@ zero_extendqisi2
 190 003e 6B1C     		adds	r3, r5, #1
 191              	.LVL21:
 192              		.loc 1 136 0
 193 0040 0029     		cmp	r1, #0
 194 0042 F0D1     		bne	.L102
 195              	.L89:
 196              		.loc 1 277 0
 197 0044 0098     		ldr	r0, [sp]
 198 0046 0DB0     		add	sp, sp, #52
 199              		.cfi_remember_state
 200              		.cfi_def_cfa_offset 44
 201              	.LVL22:
 202              		@ sp needed
 203 0048 BDEC028B 		fldmfdd	sp!, {d8}
 204              		.cfi_restore 80
 205              		.cfi_restore 81
 206              		.cfi_def_cfa_offset 36
 207 004c BDE8F08F 		pop	{r4, r5, r6, r7, r8, r9, r10, fp, pc}
 208              	.LVL23:
 209              	.L16:
 210              		.cfi_restore_state
 211              		.loc 1 146 0
 212 0050 6A78     		ldrb	r2, [r5, #1]	@ zero_extendqisi2
 213 0052 2D2A     		cmp	r2, #45
 214 0054 03BF     		ittte	eq
 215 0056 AA78     		ldrbeq	r2, [r5, #2]	@ zero_extendqisi2
 216              		.loc 1 147 0
 217 0058 AB1C     		addeq	r3, r5, #2
 218              	.LVL24:
 219              		.loc 1 148 0
 220 005a 0126     		moveq	r6, #1
 221              		.loc 1 145 0
 222 005c 0026     		movne	r6, #0
 223              	.LVL25:
 224              		.loc 1 151 0
 225 005e 302A     		cmp	r2, #48
 226 0060 03BF     		ittte	eq
 227 0062 5A78     		ldrbeq	r2, [r3, #1]	@ zero_extendqisi2
 228              		.loc 1 152 0
ARM GAS  /var/folders/m4/4md61f0s1_g0rzfghffqnxvr0000gn/T//ccS6xPmJ.s 			page 5


 229 0064 0133     		addeq	r3, r3, #1
 230              	.LVL26:
 231              		.loc 1 153 0
 232 0066 4FF03009 		moveq	r9, #48
 233              		.loc 1 150 0
 234 006a 4FF02009 		movne	r9, #32
 235              	.LVL27:
 236 006e 591C     		adds	r1, r3, #1
 237              	.LVL28:
 238              		.loc 1 155 0
 239 0070 4FF00008 		mov	r8, #0
 240 0074 05E0     		b	.L22
 241              	.LVL29:
 242              	.L103:
 243              		.loc 1 161 0
 244 0076 3B78     		ldrb	r3, [r7]	@ zero_extendqisi2
 245              	.LVL30:
 246 0078 0437     		adds	r7, r7, #4
 247              	.LVL31:
 248              	.L20:
 249 007a 2A78     		ldrb	r2, [r5]	@ zero_extendqisi2
 250              		.loc 1 164 0
 251 007c 03EB4008 		add	r8, r3, r0, lsl #1
 252              	.LVL32:
 253 0080 0131     		adds	r1, r1, #1
 254              	.LVL33:
 255              	.L22:
 256              		.loc 1 158 0
 257 0082 A2F13003 		sub	r3, r2, #48
 258 0086 DBB2     		uxtb	r3, r3
 259 0088 092B     		cmp	r3, #9
 260              		.loc 1 157 0
 261 008a 0D46     		mov	r5, r1
 262              	.LVL34:
 263              		.loc 1 164 0
 264 008c 08EB8800 		add	r0, r8, r8, lsl #2
 265              		.loc 1 158 0
 266 0090 F3D9     		bls	.L20
 267              		.loc 1 160 0
 268 0092 2A2A     		cmp	r2, #42
 269 0094 EFD0     		beq	.L103
 270              	.LVL35:
 271              		.loc 1 167 0
 272 0096 2E2A     		cmp	r2, #46
 273 0098 4FF0000B 		mov	fp, #0
 274 009c 43D0     		beq	.L25
 275              	.LVL36:
 276              		.loc 1 181 0
 277 009e 02F0DF03 		and	r3, r2, #223
 278 00a2 4C2B     		cmp	r3, #76
 279 00a4 4ED0     		beq	.L104
 280              	.LVL37:
 281              	.L90:
 282              		.loc 1 190 0
 283 00a6 A2F14401 		sub	r1, r2, #68
 284 00aa 3429     		cmp	r1, #52
 285 00ac 00F26A81 		bhi	.L28
ARM GAS  /var/folders/m4/4md61f0s1_g0rzfghffqnxvr0000gn/T//ccS6xPmJ.s 			page 6


 286 00b0 DFE811F0 		tbh	[pc, r1, lsl #1]
 287              	.L38:
 288 00b4 4F01     		.2byte	(.L46-.L38)/2
 289 00b6 6801     		.2byte	(.L28-.L38)/2
 290 00b8 6801     		.2byte	(.L28-.L38)/2
 291 00ba 6801     		.2byte	(.L28-.L38)/2
 292 00bc 6801     		.2byte	(.L28-.L38)/2
 293 00be 4F01     		.2byte	(.L46-.L38)/2
 294 00c0 6801     		.2byte	(.L28-.L38)/2
 295 00c2 6801     		.2byte	(.L28-.L38)/2
 296 00c4 6801     		.2byte	(.L28-.L38)/2
 297 00c6 6801     		.2byte	(.L28-.L38)/2
 298 00c8 6801     		.2byte	(.L28-.L38)/2
 299 00ca 2201     		.2byte	(.L31-.L38)/2
 300 00cc 6801     		.2byte	(.L28-.L38)/2
 301 00ce 6801     		.2byte	(.L28-.L38)/2
 302 00d0 6801     		.2byte	(.L28-.L38)/2
 303 00d2 6801     		.2byte	(.L28-.L38)/2
 304 00d4 6801     		.2byte	(.L28-.L38)/2
 305 00d6 5701     		.2byte	(.L32-.L38)/2
 306 00d8 6801     		.2byte	(.L28-.L38)/2
 307 00da 6801     		.2byte	(.L28-.L38)/2
 308 00dc 6501     		.2byte	(.L73-.L38)/2
 309 00de 6801     		.2byte	(.L28-.L38)/2
 310 00e0 6801     		.2byte	(.L28-.L38)/2
 311 00e2 6801     		.2byte	(.L28-.L38)/2
 312 00e4 6801     		.2byte	(.L28-.L38)/2
 313 00e6 6801     		.2byte	(.L28-.L38)/2
 314 00e8 6801     		.2byte	(.L28-.L38)/2
 315 00ea 6801     		.2byte	(.L28-.L38)/2
 316 00ec 6801     		.2byte	(.L28-.L38)/2
 317 00ee 6801     		.2byte	(.L28-.L38)/2
 318 00f0 6801     		.2byte	(.L28-.L38)/2
 319 00f2 5901     		.2byte	(.L34-.L38)/2
 320 00f4 4F01     		.2byte	(.L46-.L38)/2
 321 00f6 6801     		.2byte	(.L28-.L38)/2
 322 00f8 D400     		.2byte	(.L35-.L38)/2
 323 00fa 6801     		.2byte	(.L28-.L38)/2
 324 00fc 6801     		.2byte	(.L28-.L38)/2
 325 00fe 4F01     		.2byte	(.L46-.L38)/2
 326 0100 6801     		.2byte	(.L28-.L38)/2
 327 0102 6801     		.2byte	(.L28-.L38)/2
 328 0104 6801     		.2byte	(.L28-.L38)/2
 329 0106 6801     		.2byte	(.L28-.L38)/2
 330 0108 6801     		.2byte	(.L28-.L38)/2
 331 010a 2201     		.2byte	(.L31-.L38)/2
 332 010c 6801     		.2byte	(.L28-.L38)/2
 333 010e 6801     		.2byte	(.L28-.L38)/2
 334 0110 6801     		.2byte	(.L28-.L38)/2
 335 0112 8900     		.2byte	(.L36-.L38)/2
 336 0114 6801     		.2byte	(.L28-.L38)/2
 337 0116 5701     		.2byte	(.L32-.L38)/2
 338 0118 6801     		.2byte	(.L28-.L38)/2
 339 011a 6801     		.2byte	(.L28-.L38)/2
 340 011c 6501     		.2byte	(.L73-.L38)/2
 341              	.LVL38:
 342              		.p2align 1
ARM GAS  /var/folders/m4/4md61f0s1_g0rzfghffqnxvr0000gn/T//ccS6xPmJ.s 			page 7


 343              	.L105:
 344              		.loc 1 173 0
 345 011e 3B78     		ldrb	r3, [r7]	@ zero_extendqisi2
 346              	.LVL39:
 347 0120 0437     		adds	r7, r7, #4
 348              	.LVL40:
 349              	.L24:
 350              		.loc 1 177 0
 351 0122 03EB410B 		add	fp, r3, r1, lsl #1
 352              	.LVL41:
 353              	.L25:
 354              		.loc 1 169 0
 355 0126 15F8012B 		ldrb	r2, [r5], #1	@ zero_extendqisi2
 356              	.LVL42:
 357              		.loc 1 170 0
 358 012a A2F13003 		sub	r3, r2, #48
 359 012e DBB2     		uxtb	r3, r3
 360 0130 092B     		cmp	r3, #9
 361              		.loc 1 176 0
 362 0132 0BEB8B01 		add	r1, fp, fp, lsl #2
 363              		.loc 1 170 0
 364 0136 F4D9     		bls	.L24
 365              		.loc 1 172 0
 366 0138 2A2A     		cmp	r2, #42
 367 013a F0D0     		beq	.L105
 368              	.LVL43:
 369              		.loc 1 181 0
 370 013c 02F0DF03 		and	r3, r2, #223
 371 0140 4C2B     		cmp	r3, #76
 372 0142 B0D1     		bne	.L90
 373              	.L104:
 374              	.LVL44:
 375              		.loc 1 183 0
 376 0144 2B78     		ldrb	r3, [r5]	@ zero_extendqisi2
 377 0146 002B     		cmp	r3, #0
 378 0148 00F01C81 		beq	.L28
 379              		.loc 1 190 0
 380 014c A3F14402 		sub	r2, r3, #68
 381              	.LVL45:
 382              		.loc 1 184 0
 383 0150 0135     		adds	r5, r5, #1
 384              	.LVL46:
 385              		.loc 1 190 0
 386 0152 342A     		cmp	r2, #52
 387 0154 00F21581 		bhi	.L70
 388 0158 DFE812F0 		tbh	[pc, r2, lsl #1]
 389              	.L30:
 390 015c FB00     		.2byte	(.L46-.L30)/2
 391 015e 1301     		.2byte	(.L70-.L30)/2
 392 0160 1301     		.2byte	(.L70-.L30)/2
 393 0162 1301     		.2byte	(.L70-.L30)/2
 394 0164 1301     		.2byte	(.L70-.L30)/2
 395 0166 FB00     		.2byte	(.L46-.L30)/2
 396 0168 1301     		.2byte	(.L70-.L30)/2
 397 016a 1301     		.2byte	(.L70-.L30)/2
 398 016c 1301     		.2byte	(.L70-.L30)/2
 399 016e 1301     		.2byte	(.L70-.L30)/2
ARM GAS  /var/folders/m4/4md61f0s1_g0rzfghffqnxvr0000gn/T//ccS6xPmJ.s 			page 8


 400 0170 1301     		.2byte	(.L70-.L30)/2
 401 0172 CE00     		.2byte	(.L31-.L30)/2
 402 0174 1301     		.2byte	(.L70-.L30)/2
 403 0176 1301     		.2byte	(.L70-.L30)/2
 404 0178 1301     		.2byte	(.L70-.L30)/2
 405 017a 1301     		.2byte	(.L70-.L30)/2
 406 017c 1301     		.2byte	(.L70-.L30)/2
 407 017e 0301     		.2byte	(.L32-.L30)/2
 408 0180 1301     		.2byte	(.L70-.L30)/2
 409 0182 1301     		.2byte	(.L70-.L30)/2
 410 0184 1101     		.2byte	(.L73-.L30)/2
 411 0186 1301     		.2byte	(.L70-.L30)/2
 412 0188 1301     		.2byte	(.L70-.L30)/2
 413 018a 1301     		.2byte	(.L70-.L30)/2
 414 018c 1301     		.2byte	(.L70-.L30)/2
 415 018e 1301     		.2byte	(.L70-.L30)/2
 416 0190 1301     		.2byte	(.L70-.L30)/2
 417 0192 1301     		.2byte	(.L70-.L30)/2
 418 0194 1301     		.2byte	(.L70-.L30)/2
 419 0196 1301     		.2byte	(.L70-.L30)/2
 420 0198 1301     		.2byte	(.L70-.L30)/2
 421 019a 0501     		.2byte	(.L34-.L30)/2
 422 019c FB00     		.2byte	(.L46-.L30)/2
 423 019e 1301     		.2byte	(.L70-.L30)/2
 424 01a0 8000     		.2byte	(.L35-.L30)/2
 425 01a2 1301     		.2byte	(.L70-.L30)/2
 426 01a4 1301     		.2byte	(.L70-.L30)/2
 427 01a6 FB00     		.2byte	(.L46-.L30)/2
 428 01a8 1301     		.2byte	(.L70-.L30)/2
 429 01aa 1301     		.2byte	(.L70-.L30)/2
 430 01ac 1301     		.2byte	(.L70-.L30)/2
 431 01ae 1301     		.2byte	(.L70-.L30)/2
 432 01b0 1301     		.2byte	(.L70-.L30)/2
 433 01b2 CE00     		.2byte	(.L31-.L30)/2
 434 01b4 1301     		.2byte	(.L70-.L30)/2
 435 01b6 1301     		.2byte	(.L70-.L30)/2
 436 01b8 1301     		.2byte	(.L70-.L30)/2
 437 01ba 3500     		.2byte	(.L36-.L30)/2
 438 01bc 1301     		.2byte	(.L70-.L30)/2
 439 01be 0301     		.2byte	(.L32-.L30)/2
 440 01c0 1301     		.2byte	(.L70-.L30)/2
 441 01c2 1301     		.2byte	(.L70-.L30)/2
 442 01c4 1101     		.2byte	(.L73-.L30)/2
 443              	.LVL47:
 444              		.p2align 1
 445              	.L36:
 446              		.loc 1 197 0
 447 01c6 3C68     		ldr	r4, [r7]
 448              		.loc 1 198 0
 449 01c8 8C4B     		ldr	r3, .L110
 450 01ca 002C     		cmp	r4, #0
 451 01cc 08BF     		it	eq
 452 01ce 1C46     		moveq	r4, r3
 453              		.loc 1 197 0
 454 01d0 0437     		adds	r7, r7, #4
 455              	.LVL48:
 456              		.loc 1 201 0
ARM GAS  /var/folders/m4/4md61f0s1_g0rzfghffqnxvr0000gn/T//ccS6xPmJ.s 			page 9


 457 01d2 2378     		ldrb	r3, [r4]	@ zero_extendqisi2
 458              		.loc 1 199 0
 459 01d4 BBF1000F 		cmp	fp, #0
 460 01d8 00F0F180 		beq	.L42
 461              	.LVL49:
 462              		.loc 1 201 0 discriminator 1
 463 01dc 002B     		cmp	r3, #0
 464 01de 00F0F380 		beq	.L43
 465              		.loc 1 201 0 is_stmt 0
 466 01e2 0BF1FF3B 		add	fp, fp, #-1
 467              	.LVL50:
 468              	.L62:
 469              		.loc 1 201 0 discriminator 4
 470 01e6 2046     		mov	r0, r4
 471 01e8 02E0     		b	.L45
 472              	.LVL51:
 473              	.L106:
 474              		.loc 1 201 0 discriminator 3
 475 01ea BBF1010B 		subs	fp, fp, #1
 476              	.LVL52:
 477 01ee 03D4     		bmi	.L95
 478              	.LVL53:
 479              	.L45:
 480              		.loc 1 201 0 discriminator 4
 481 01f0 10F8013F 		ldrb	r3, [r0, #1]!	@ zero_extendqisi2
 482              	.LVL54:
 483 01f4 002B     		cmp	r3, #0
 484 01f6 F8D1     		bne	.L106
 485              	.LVL55:
 486              	.L95:
 487 01f8 001B     		subs	r0, r0, r4
 488              	.LVL56:
 489              		.loc 1 251 0 is_stmt 1
 490 01fa C0EB0808 		rsb	r8, r0, r8
 491              	.LVL57:
 492 01fe 00F1FF3B 		add	fp, r0, #-1
 493              		.loc 1 196 0
 494 0202 4FF02009 		mov	r9, #32
 495              	.LVL58:
 496 0206 28EAE878 		bic	r8, r8, r8, asr #31
 497              	.LVL59:
 498              		.loc 1 253 0
 499 020a 002E     		cmp	r6, #0
 500 020c 00F08780 		beq	.L64
 501              	.L53:
 502              	.LVL60:
 503              		.loc 1 266 0
 504 0210 BBF1000F 		cmp	fp, #0
 505 0214 11DB     		blt	.L58
 506              	.LVL61:
 507              	.L63:
 508 0216 5E46     		mov	r6, fp
 509              	.LVL62:
 510              	.L59:
 511              		.loc 1 267 0
 512 0218 DAF80030 		ldr	r3, [r10]
 513 021c 14F8011B 		ldrb	r1, [r4], #1	@ zero_extendqisi2
ARM GAS  /var/folders/m4/4md61f0s1_g0rzfghffqnxvr0000gn/T//ccS6xPmJ.s 			page 10


 514              	.LVL63:
 515 0220 9B68     		ldr	r3, [r3, #8]
 516              		.loc 1 266 0
 517 0222 013E     		subs	r6, r6, #1
 518              	.LVL64:
 519              		.loc 1 267 0
 520 0224 5046     		mov	r0, r10
 521 0226 9847     		blx	r3
 522              	.LVL65:
 523              		.loc 1 266 0
 524 0228 731C     		adds	r3, r6, #1
 525 022a F5D1     		bne	.L59
 526 022c 009B     		ldr	r3, [sp]
 527 022e 0133     		adds	r3, r3, #1
 528 0230 BBF1000F 		cmp	fp, #0
 529 0234 A8BF     		it	ge
 530 0236 5B44     		addge	r3, r3, fp
 531 0238 0093     		str	r3, [sp]
 532              	.LVL66:
 533              	.L58:
 534              		.loc 1 271 0
 535 023a B8F1000F 		cmp	r8, #0
 536 023e 3FF4EFAE 		beq	.L14
 537 0242 4446     		mov	r4, r8
 538              	.LVL67:
 539              	.L60:
 540              		.loc 1 272 0
 541 0244 DAF80030 		ldr	r3, [r10]
 542 0248 5046     		mov	r0, r10
 543 024a 9B68     		ldr	r3, [r3, #8]
 544 024c 4946     		mov	r1, r9
 545 024e 9847     		blx	r3
 546              	.LVL68:
 547              		.loc 1 271 0
 548 0250 013C     		subs	r4, r4, #1
 549              	.LVL69:
 550 0252 F7D1     		bne	.L60
 551 0254 009B     		ldr	r3, [sp]
 552 0256 4344     		add	r3, r3, r8
 553 0258 0093     		str	r3, [sp]
 554 025a E1E6     		b	.L14
 555              	.LVL70:
 556              	.L35:
 557              		.loc 1 220 0
 558 025c 0737     		adds	r7, r7, #7
 559 025e 27F00707 		bic	r7, r7, #7
 560 0262 D7E90001 		ldrd	r0, [r7]
 561 0266 FFF7FEFF 		bl	__aeabi_d2f
 562              	.LVL71:
 563 026a 08EE100A 		fmsr	s16, r0
 564              		.loc 1 221 0
 565 026e B5EEC08A 		fcmpezs	s16
 566 0272 F1EE10FA 		fmstat
 567              		.loc 1 220 0
 568 0276 07F10807 		add	r7, r7, #8
 569              	.LVL72:
 570              		.loc 1 221 0
ARM GAS  /var/folders/m4/4md61f0s1_g0rzfghffqnxvr0000gn/T//ccS6xPmJ.s 			page 11


 571 027a 00F1B480 		bmi	.L107
 572              		.loc 1 143 0
 573 027e 06A8     		add	r0, sp, #24
 574              	.LVL73:
 575              	.L49:
 576              	.LBB12:
 577              	.LBB13:
 578              		.loc 1 83 0
 579 0280 0BF1FF3B 		add	fp, fp, #-1
 580              	.LVL74:
 581              		.loc 1 87 0
 582 0284 FDEEC87A 		ftosizs	s15, s16
 583 0288 BBF1080F 		cmp	fp, #8
 584 028c 28BF     		it	cs
 585 028e 4FF0080B 		movcs	fp, #8
 586              	.LVL75:
 587              		.loc 1 85 0
 588 0292 5B4C     		ldr	r4, .L110+4
 589              		.loc 1 87 0
 590 0294 CDED027A 		fsts	s15, [sp, #8]	@ int
 591              		.loc 1 88 0
 592 0298 17EE901A 		fmrs	r1, s15	@ int
 593 029c 0A22     		movs	r2, #10
 594 029e 0023     		movs	r3, #0
 595              		.loc 1 85 0
 596 02a0 54F82B40 		ldr	r4, [r4, fp, lsl #2]
 597              	.LVL76:
 598              		.loc 1 88 0
 599 02a4 FFF7FEFF 		bl	long_to_string_with_divisor
 600              	.LVL77:
 601              		.loc 1 89 0
 602 02a8 8346     		mov	fp, r0
 603 02aa 2E23     		movs	r3, #46
 604 02ac 0BF8013B 		strb	r3, [fp], #1
 605              	.LVL78:
 606              	.LBE13:
 607              	.LBE12:
 608              		.loc 1 225 0
 609 02b0 18EE100A 		fmrs	r0, s16
 610 02b4 FFF7FEFF 		bl	__aeabi_f2d
 611              	.LVL79:
 612 02b8 CDE90401 		strd	r0, [sp, #16]
 613              	.LBB15:
 614              	.LBB14:
 615              		.loc 1 90 0
 616 02bc 0298     		ldr	r0, [sp, #8]
 617 02be FFF7FEFF 		bl	__aeabi_i2d
 618              	.LVL80:
 619 02c2 0246     		mov	r2, r0
 620 02c4 0B46     		mov	r3, r1
 621 02c6 DDE90401 		ldrd	r0, [sp, #16]
 622 02ca FFF7FEFF 		bl	__aeabi_dsub
 623              	.LVL81:
 624 02ce CDE90201 		strd	r0, [sp, #8]
 625              	.LVL82:
 626 02d2 2046     		mov	r0, r4
 627 02d4 FFF7FEFF 		bl	__aeabi_ui2d
ARM GAS  /var/folders/m4/4md61f0s1_g0rzfghffqnxvr0000gn/T//ccS6xPmJ.s 			page 12


 628              	.LVL83:
 629 02d8 0246     		mov	r2, r0
 630 02da 0B46     		mov	r3, r1
 631 02dc DDE90201 		ldrd	r0, [sp, #8]
 632 02e0 FFF7FEFF 		bl	__aeabi_dmul
 633              	.LVL84:
 634 02e4 FFF7FEFF 		bl	__aeabi_d2iz
 635              	.LVL85:
 636              		.loc 1 91 0
 637 02e8 464B     		ldr	r3, .L110+8
 638 02ea A3FB0423 		umull	r2, r3, r3, r4
 639              		.loc 1 90 0
 640 02ee 0146     		mov	r1, r0
 641              		.loc 1 91 0
 642 02f0 DB08     		lsrs	r3, r3, #3
 643 02f2 5846     		mov	r0, fp
 644 02f4 0A22     		movs	r2, #10
 645 02f6 04E0     		b	.L97
 646              	.LVL86:
 647              	.L31:
 648              	.LBE14:
 649              	.LBE15:
 650 02f8 0822     		movs	r2, #8
 651              	.LVL87:
 652              	.L98:
 653              		.loc 1 243 0
 654 02fa 3968     		ldr	r1, [r7]
 655              	.LVL88:
 656              	.LBB16:
 657              	.LBB17:
 658              		.loc 1 72 0
 659 02fc 06A8     		add	r0, sp, #24
 660              	.LVL89:
 661              	.LBE17:
 662              	.LBE16:
 663              		.loc 1 243 0
 664 02fe 0437     		adds	r7, r7, #4
 665              	.LVL90:
 666              	.L96:
 667              	.LBB19:
 668              	.LBB18:
 669              		.loc 1 72 0
 670 0300 0023     		movs	r3, #0
 671              	.LVL91:
 672              	.L97:
 673 0302 FFF7FEFF 		bl	long_to_string_with_divisor
 674              	.LVL92:
 675 0306 06AB     		add	r3, sp, #24
 676              	.LVL93:
 677 0308 C01A     		subs	r0, r0, r3
 678 030a 00F1FF3B 		add	fp, r0, #-1
 679              	.LBE18:
 680              	.LBE19:
 681              		.loc 1 144 0
 682 030e 1C46     		mov	r4, r3
 683              	.LVL94:
 684              	.L40:
ARM GAS  /var/folders/m4/4md61f0s1_g0rzfghffqnxvr0000gn/T//ccS6xPmJ.s 			page 13


 685              		.loc 1 251 0
 686 0310 C0EB0808 		rsb	r8, r0, r8
 687              	.LVL95:
 688 0314 28EAE878 		bic	r8, r8, r8, asr #31
 689              	.LVL96:
 690              		.loc 1 253 0
 691 0318 002E     		cmp	r6, #0
 692 031a 7FF479AF 		bne	.L53
 693              	.LVL97:
 694              	.L64:
 695              		.loc 1 254 0
 696 031e C8F10006 		rsb	r6, r8, #0
 697              	.LVL98:
 698              		.loc 1 255 0
 699 0322 002E     		cmp	r6, #0
 700 0324 36D0     		beq	.L54
 701              		.loc 1 256 0
 702 0326 2178     		ldrb	r1, [r4]	@ zero_extendqisi2
 703 0328 2D29     		cmp	r1, #45
 704 032a 39D0     		beq	.L108
 705              	.L55:
 706              		.loc 1 258 0 discriminator 1
 707 032c B046     		mov	r8, r6
 708              	.LVL99:
 709              	.L56:
 710              		.loc 1 262 0 discriminator 1
 711 032e DAF80030 		ldr	r3, [r10]
 712 0332 5046     		mov	r0, r10
 713 0334 9B68     		ldr	r3, [r3, #8]
 714 0336 4946     		mov	r1, r9
 715 0338 9847     		blx	r3
 716              	.LVL100:
 717              		.loc 1 264 0 discriminator 1
 718 033a 18F10108 		adds	r8, r8, #1
 719              	.LVL101:
 720 033e F6D1     		bne	.L56
 721 0340 009B     		ldr	r3, [sp]
 722              		.loc 1 266 0
 723 0342 BBF1000F 		cmp	fp, #0
 724 0346 A3EB0603 		sub	r3, r3, r6
 725 034a 0093     		str	r3, [sp]
 726              	.LVL102:
 727 034c BFF663AF 		bge	.L63
 728 0350 66E6     		b	.L14
 729              	.LVL103:
 730              	.L46:
 731              		.loc 1 211 0
 732 0352 3968     		ldr	r1, [r7]
 733              	.LVL104:
 734              		.loc 1 212 0
 735 0354 0029     		cmp	r1, #0
 736              		.loc 1 211 0
 737 0356 07F10407 		add	r7, r7, #4
 738              		.loc 1 212 0
 739 035a 3DDB     		blt	.L109
 740              		.loc 1 143 0
 741 035c 06A8     		add	r0, sp, #24
ARM GAS  /var/folders/m4/4md61f0s1_g0rzfghffqnxvr0000gn/T//ccS6xPmJ.s 			page 14


 742              	.LVL105:
 743              	.L48:
 744              	.LBB20:
 745              	.LBB21:
 746              		.loc 1 72 0
 747 035e 0A22     		movs	r2, #10
 748 0360 CEE7     		b	.L96
 749              	.LVL106:
 750              	.L32:
 751              	.LBE21:
 752              	.LBE20:
 753              		.loc 1 235 0
 754 0362 0A22     		movs	r2, #10
 755 0364 C9E7     		b	.L98
 756              	.LVL107:
 757              	.L34:
 758              		.loc 1 193 0
 759 0366 3B68     		ldr	r3, [r7]
 760 0368 8DF81830 		strb	r3, [sp, #24]
 761 036c 019B     		ldr	r3, [sp, #4]
 762 036e 0437     		adds	r7, r7, #4
 763 0370 1846     		mov	r0, r3
 764 0372 03F1FF3B 		add	fp, r3, #-1
 765              	.LVL108:
 766              		.loc 1 192 0
 767 0376 4FF02009 		mov	r9, #32
 768              		.loc 1 144 0
 769 037a 06AC     		add	r4, sp, #24
 770              	.LVL109:
 771              		.loc 1 194 0
 772 037c C8E7     		b	.L40
 773              	.LVL110:
 774              	.L73:
 775              	.L39:
 776              		.loc 1 190 0
 777 037e 1022     		movs	r2, #16
 778 0380 BBE7     		b	.L98
 779              	.LVL111:
 780              	.L70:
 781 0382 1A46     		mov	r2, r3
 782              	.LVL112:
 783              	.L28:
 784 0384 019B     		ldr	r3, [sp, #4]
 785              		.loc 1 247 0
 786 0386 8DF81820 		strb	r2, [sp, #24]
 787 038a 1846     		mov	r0, r3
 788 038c 03F1FF3B 		add	fp, r3, #-1
 789              	.LVL113:
 790              		.loc 1 144 0
 791 0390 06AC     		add	r4, sp, #24
 792              	.LVL114:
 793              		.loc 1 248 0
 794 0392 BDE7     		b	.L40
 795              	.LVL115:
 796              	.L54:
 797              		.loc 1 266 0
 798 0394 BBF1000F 		cmp	fp, #0
ARM GAS  /var/folders/m4/4md61f0s1_g0rzfghffqnxvr0000gn/T//ccS6xPmJ.s 			page 15


 799 0398 B046     		mov	r8, r6
 800              	.LVL116:
 801 039a BFF63CAF 		bge	.L63
 802 039e 3FE6     		b	.L14
 803              	.LVL117:
 804              	.L108:
 805              		.loc 1 256 0 discriminator 1
 806 03a0 B9F1300F 		cmp	r9, #48
 807 03a4 C2D1     		bne	.L55
 808              		.loc 1 257 0
 809 03a6 DAF80030 		ldr	r3, [r10]
 810 03aa 5046     		mov	r0, r10
 811 03ac 9B68     		ldr	r3, [r3, #8]
 812 03ae 9847     		blx	r3
 813              	.LVL118:
 814              		.loc 1 258 0
 815 03b0 009B     		ldr	r3, [sp]
 816 03b2 0133     		adds	r3, r3, #1
 817              		.loc 1 257 0
 818 03b4 0134     		adds	r4, r4, #1
 819              	.LVL119:
 820              		.loc 1 258 0
 821 03b6 0093     		str	r3, [sp]
 822              	.LVL120:
 823 03b8 0BF1FF3B 		add	fp, fp, #-1
 824              	.LVL121:
 825 03bc B6E7     		b	.L55
 826              	.LVL122:
 827              	.L42:
 828              		.loc 1 201 0
 829 03be 47F6FE7B 		movw	fp, #32766
 830 03c2 002B     		cmp	r3, #0
 831 03c4 7FF40FAF 		bne	.L62
 832              	.LVL123:
 833              	.L43:
 834 03c8 28EAE878 		bic	r8, r8, r8, asr #31
 835              	.LVL124:
 836              		.loc 1 253 0
 837 03cc 9EB9     		cbnz	r6, .L77
 838 03ce 4FF0FF3B 		mov	fp, #-1
 839 03d2 4FF02009 		mov	r9, #32
 840 03d6 A2E7     		b	.L64
 841              	.LVL125:
 842              	.L109:
 843              		.loc 1 213 0
 844 03d8 2D23     		movs	r3, #45
 845              		.loc 1 214 0
 846 03da 4942     		negs	r1, r1
 847              	.LVL126:
 848              		.loc 1 213 0
 849 03dc 8DF81830 		strb	r3, [sp, #24]
 850 03e0 0DF11900 		add	r0, sp, #25
 851              	.LVL127:
 852 03e4 BBE7     		b	.L48
 853              	.LVL128:
 854              	.L107:
 855              		.loc 1 222 0
ARM GAS  /var/folders/m4/4md61f0s1_g0rzfghffqnxvr0000gn/T//ccS6xPmJ.s 			page 16


 856 03e6 2D23     		movs	r3, #45
 857              		.loc 1 223 0
 858 03e8 B1EE488A 		fnegs	s16, s16
 859              	.LVL129:
 860              		.loc 1 222 0
 861 03ec 8DF81830 		strb	r3, [sp, #24]
 862 03f0 0DF11900 		add	r0, sp, #25
 863              	.LVL130:
 864 03f4 44E7     		b	.L49
 865              	.LVL131:
 866              	.L77:
 867              		.loc 1 253 0
 868 03f6 4FF02009 		mov	r9, #32
 869 03fa 1EE7     		b	.L58
 870              	.L111:
 871              		.align	2
 872              	.L110:
 873 03fc 00000000 		.word	.LC0
 874 0400 00000000 		.word	.LANCHOR0
 875 0404 CDCCCCCC 		.word	-858993459
 876              		.cfi_endproc
 877              	.LFE271:
 878              		.size	chvprintf, .-chvprintf
 879              		.section	.text.chprintf,"ax",%progbits
 880              		.align	2
 881              		.p2align 4,,15
 882              		.global	chprintf
 883              		.thumb
 884              		.thumb_func
 885              		.type	chprintf, %function
 886              	chprintf:
 887              	.LFB272:
 888              		.loc 1 302 0
 889              		.cfi_startproc
 890              		@ args = 4, pretend = 12, frame = 8
 891              		@ frame_needed = 0, uses_anonymous_args = 1
 892              	.LVL132:
 893 0000 0EB4     		push	{r1, r2, r3}
 894              		.cfi_def_cfa_offset 12
 895              		.cfi_offset 1, -12
 896              		.cfi_offset 2, -8
 897              		.cfi_offset 3, -4
 898 0002 00B5     		push	{lr}
 899              		.cfi_def_cfa_offset 16
 900              		.cfi_offset 14, -16
 901 0004 82B0     		sub	sp, sp, #8
 902              		.cfi_def_cfa_offset 24
 903              		.loc 1 302 0
 904 0006 03AA     		add	r2, sp, #12
 905 0008 52F8041B 		ldr	r1, [r2], #4
 906              		.loc 1 306 0
 907 000c 0192     		str	r2, [sp, #4]
 908              		.loc 1 307 0
 909 000e FFF7FEFF 		bl	chvprintf
 910              	.LVL133:
 911              		.loc 1 311 0
 912 0012 02B0     		add	sp, sp, #8
ARM GAS  /var/folders/m4/4md61f0s1_g0rzfghffqnxvr0000gn/T//ccS6xPmJ.s 			page 17


 913              		.cfi_def_cfa_offset 16
 914              		@ sp needed
 915 0014 5DF804EB 		ldr	lr, [sp], #4
 916              		.cfi_restore 14
 917              		.cfi_def_cfa_offset 12
 918 0018 03B0     		add	sp, sp, #12
 919              		.cfi_restore 3
 920              		.cfi_restore 2
 921              		.cfi_restore 1
 922              		.cfi_def_cfa_offset 0
 923 001a 7047     		bx	lr
 924              		.cfi_endproc
 925              	.LFE272:
 926              		.size	chprintf, .-chprintf
 927              		.section	.text.chsnprintf,"ax",%progbits
 928              		.align	2
 929              		.p2align 4,,15
 930              		.global	chsnprintf
 931              		.thumb
 932              		.thumb_func
 933              		.type	chsnprintf, %function
 934              	chsnprintf:
 935              	.LFB273:
 936              		.loc 1 341 0
 937              		.cfi_startproc
 938              		@ args = 4, pretend = 8, frame = 24
 939              		@ frame_needed = 0, uses_anonymous_args = 1
 940              	.LVL134:
 941 0000 0CB4     		push	{r2, r3}
 942              		.cfi_def_cfa_offset 8
 943              		.cfi_offset 2, -8
 944              		.cfi_offset 3, -4
 945 0002 30B5     		push	{r4, r5, lr}
 946              		.cfi_def_cfa_offset 20
 947              		.cfi_offset 4, -20
 948              		.cfi_offset 5, -16
 949              		.cfi_offset 14, -12
 950 0004 0546     		mov	r5, r0
 951 0006 87B0     		sub	sp, sp, #28
 952              		.cfi_def_cfa_offset 48
 953              		.loc 1 348 0
 954 0008 0C46     		mov	r4, r1
 955 000a B1B1     		cbz	r1, .L115
 956              	.LVL135:
 957              		.loc 1 355 0
 958 000c 01A8     		add	r0, sp, #4
 959              	.LVL136:
 960 000e 2946     		mov	r1, r5
 961              	.LVL137:
 962 0010 621E     		subs	r2, r4, #1
 963              	.LVL138:
 964 0012 0023     		movs	r3, #0
 965 0014 FFF7FEFF 		bl	msObjectInit
 966              	.LVL139:
 967              		.loc 1 359 0
 968 0018 0BAB     		add	r3, sp, #44
 969              		.loc 1 360 0
ARM GAS  /var/folders/m4/4md61f0s1_g0rzfghffqnxvr0000gn/T//ccS6xPmJ.s 			page 18


 970 001a 1A46     		mov	r2, r3
 971 001c 01A8     		add	r0, sp, #4
 972              	.LVL140:
 973 001e 0A99     		ldr	r1, [sp, #40]
 974              		.loc 1 359 0
 975 0020 0093     		str	r3, [sp]
 976              		.loc 1 360 0
 977 0022 FFF7FEFF 		bl	chvprintf
 978              	.LVL141:
 979              		.loc 1 364 0
 980 0026 049B     		ldr	r3, [sp, #16]
 981 0028 9C42     		cmp	r4, r3
 982 002a 01D9     		bls	.L117
 983              		.loc 1 365 0
 984 002c 0022     		movs	r2, #0
 985 002e EA54     		strb	r2, [r5, r3]
 986              	.L117:
 987              		.loc 1 369 0
 988 0030 07B0     		add	sp, sp, #28
 989              		.cfi_remember_state
 990              		.cfi_def_cfa_offset 20
 991              		@ sp needed
 992 0032 BDE83040 		pop	{r4, r5, lr}
 993              		.cfi_restore 14
 994              		.cfi_restore 5
 995              		.cfi_restore 4
 996              		.cfi_def_cfa_offset 8
 997              	.LVL142:
 998 0036 02B0     		add	sp, sp, #8
 999              		.cfi_restore 3
 1000              		.cfi_restore 2
 1001              		.cfi_def_cfa_offset 0
 1002 0038 7047     		bx	lr
 1003              	.LVL143:
 1004              	.L115:
 1005              		.cfi_restore_state
 1006              		.loc 1 355 0
 1007 003a 0146     		mov	r1, r0
 1008              	.LVL144:
 1009 003c 2246     		mov	r2, r4
 1010 003e 01A8     		add	r0, sp, #4
 1011              	.LVL145:
 1012 0040 2346     		mov	r3, r4
 1013 0042 FFF7FEFF 		bl	msObjectInit
 1014              	.LVL146:
 1015              		.loc 1 359 0
 1016 0046 0BAB     		add	r3, sp, #44
 1017              		.loc 1 360 0
 1018 0048 01A8     		add	r0, sp, #4
 1019              	.LVL147:
 1020 004a 1A46     		mov	r2, r3
 1021 004c 0A99     		ldr	r1, [sp, #40]
 1022              		.loc 1 359 0
 1023 004e 0093     		str	r3, [sp]
 1024              		.loc 1 360 0
 1025 0050 FFF7FEFF 		bl	chvprintf
 1026              	.LVL148:
ARM GAS  /var/folders/m4/4md61f0s1_g0rzfghffqnxvr0000gn/T//ccS6xPmJ.s 			page 19


 1027              		.loc 1 369 0
 1028 0054 07B0     		add	sp, sp, #28
 1029              		.cfi_def_cfa_offset 20
 1030              		@ sp needed
 1031 0056 BDE83040 		pop	{r4, r5, lr}
 1032              		.cfi_restore 4
 1033              		.cfi_restore 5
 1034              		.cfi_restore 14
 1035              		.cfi_def_cfa_offset 8
 1036              	.LVL149:
 1037 005a 02B0     		add	sp, sp, #8
 1038              		.cfi_restore 2
 1039              		.cfi_restore 3
 1040              		.cfi_def_cfa_offset 0
 1041 005c 7047     		bx	lr
 1042              		.cfi_endproc
 1043              	.LFE273:
 1044              		.size	chsnprintf, .-chsnprintf
 1045 005e 00BF     		.section	.rodata.str1.4,"aMS",%progbits,1
 1046              		.align	2
 1047              	.LC0:
 1048 0000 286E756C 		.ascii	"(null)\000"
 1048      6C2900
 1049              		.section	.rodata.pow10,"a",%progbits
 1050              		.align	2
 1051              		.set	.LANCHOR0,. + 0
 1052              		.type	pow10, %object
 1053              		.size	pow10, 36
 1054              	pow10:
 1055 0000 0A000000 		.word	10
 1056 0004 64000000 		.word	100
 1057 0008 E8030000 		.word	1000
 1058 000c 10270000 		.word	10000
 1059 0010 A0860100 		.word	100000
 1060 0014 40420F00 		.word	1000000
 1061 0018 80969800 		.word	10000000
 1062 001c 00E1F505 		.word	100000000
 1063 0020 00CA9A3B 		.word	1000000000
 1064              		.text
 1065              	.Letext0:
 1066              		.file 2 "/usr/local/Cellar/gcc-arm-none-eabi-49/20150609/lib/gcc/arm-none-eabi/4.9.3/include/stdde
 1067              		.file 3 "/usr/local/Cellar/gcc-arm-none-eabi-49/20150609/arm-none-eabi/include/machine/_default_ty
 1068              		.file 4 "/usr/local/Cellar/gcc-arm-none-eabi-49/20150609/arm-none-eabi/include/sys/_stdint.h"
 1069              		.file 5 "ChibiOS_16.1.4/os/rt/ports/ARMCMx/compilers/GCC/chtypes.h"
 1070              		.file 6 "ChibiOS_16.1.4/os/rt/include/chsystypes.h"
 1071              		.file 7 "ChibiOS_16.1.4/os/rt/include/chschd.h"
 1072              		.file 8 "ChibiOS_16.1.4/os/rt/ports/ARMCMx/chcore.h"
 1073              		.file 9 "ChibiOS_16.1.4/os/rt/ports/ARMCMx/chcore_v7m.h"
 1074              		.file 10 "ChibiOS_16.1.4/os/rt/include/chtm.h"
 1075              		.file 11 "ChibiOS_16.1.4/os/rt/include/chsem.h"
 1076              		.file 12 "ChibiOS_16.1.4/os/rt/include/chmtx.h"
 1077              		.file 13 "ChibiOS_16.1.4/os/rt/include/chstreams.h"
 1078              		.file 14 "/usr/local/Cellar/gcc-arm-none-eabi-49/20150609/lib/gcc/arm-none-eabi/4.9.3/include/stda
 1079              		.file 15 "<built-in>"
 1080              		.file 16 "ChibiOS_16.1.4/os/hal/lib/streams/memstreams.h"
 1081              		.file 17 "ChibiOS_16.1.4/os/ext/CMSIS/include/core_cm4.h"
 1082              		.section	.debug_info,"",%progbits
ARM GAS  /var/folders/m4/4md61f0s1_g0rzfghffqnxvr0000gn/T//ccS6xPmJ.s 			page 20


 1083              	.Ldebug_info0:
 1084 0000 F10D0000 		.4byte	0xdf1
 1085 0004 0400     		.2byte	0x4
 1086 0006 00000000 		.4byte	.Ldebug_abbrev0
 1087 000a 04       		.byte	0x4
 1088 000b 01       		.uleb128 0x1
 1089 000c BF020000 		.4byte	.LASF138
 1090 0010 01       		.byte	0x1
 1091 0011 D2010000 		.4byte	.LASF139
 1092 0015 45040000 		.4byte	.LASF140
 1093 0019 30000000 		.4byte	.Ldebug_ranges0+0x30
 1094 001d 00000000 		.4byte	0
 1095 0021 00000000 		.4byte	.Ldebug_line0
 1096 0025 02       		.uleb128 0x2
 1097 0026 08       		.byte	0x8
 1098 0027 04       		.byte	0x4
 1099 0028 F9060000 		.4byte	.LASF0
 1100 002c 03       		.uleb128 0x3
 1101 002d 04       		.byte	0x4
 1102 002e 05       		.byte	0x5
 1103 002f 696E7400 		.ascii	"int\000"
 1104 0033 02       		.uleb128 0x2
 1105 0034 04       		.byte	0x4
 1106 0035 04       		.byte	0x4
 1107 0036 BA040000 		.4byte	.LASF1
 1108 003a 04       		.uleb128 0x4
 1109 003b 24000000 		.4byte	.LASF4
 1110 003f 02       		.byte	0x2
 1111 0040 D4       		.byte	0xd4
 1112 0041 45000000 		.4byte	0x45
 1113 0045 02       		.uleb128 0x2
 1114 0046 04       		.byte	0x4
 1115 0047 07       		.byte	0x7
 1116 0048 05020000 		.4byte	.LASF2
 1117 004c 02       		.uleb128 0x2
 1118 004d 01       		.byte	0x1
 1119 004e 06       		.byte	0x6
 1120 004f 0C010000 		.4byte	.LASF3
 1121 0053 04       		.uleb128 0x4
 1122 0054 34000000 		.4byte	.LASF5
 1123 0058 03       		.byte	0x3
 1124 0059 1D       		.byte	0x1d
 1125 005a 5E000000 		.4byte	0x5e
 1126 005e 02       		.uleb128 0x2
 1127 005f 01       		.byte	0x1
 1128 0060 08       		.byte	0x8
 1129 0061 11050000 		.4byte	.LASF6
 1130 0065 02       		.uleb128 0x2
 1131 0066 02       		.byte	0x2
 1132 0067 05       		.byte	0x5
 1133 0068 3D050000 		.4byte	.LASF7
 1134 006c 02       		.uleb128 0x2
 1135 006d 02       		.byte	0x2
 1136 006e 07       		.byte	0x7
 1137 006f 4D020000 		.4byte	.LASF8
 1138 0073 04       		.uleb128 0x4
 1139 0074 97020000 		.4byte	.LASF9
ARM GAS  /var/folders/m4/4md61f0s1_g0rzfghffqnxvr0000gn/T//ccS6xPmJ.s 			page 21


 1140 0078 03       		.byte	0x3
 1141 0079 3F       		.byte	0x3f
 1142 007a 7E000000 		.4byte	0x7e
 1143 007e 02       		.uleb128 0x2
 1144 007f 04       		.byte	0x4
 1145 0080 05       		.byte	0x5
 1146 0081 53010000 		.4byte	.LASF10
 1147 0085 04       		.uleb128 0x4
 1148 0086 34060000 		.4byte	.LASF11
 1149 008a 03       		.byte	0x3
 1150 008b 41       		.byte	0x41
 1151 008c 90000000 		.4byte	0x90
 1152 0090 02       		.uleb128 0x2
 1153 0091 04       		.byte	0x4
 1154 0092 07       		.byte	0x7
 1155 0093 18010000 		.4byte	.LASF12
 1156 0097 02       		.uleb128 0x2
 1157 0098 08       		.byte	0x8
 1158 0099 05       		.byte	0x5
 1159 009a FE000000 		.4byte	.LASF13
 1160 009e 04       		.uleb128 0x4
 1161 009f AF040000 		.4byte	.LASF14
 1162 00a3 03       		.byte	0x3
 1163 00a4 5B       		.byte	0x5b
 1164 00a5 A9000000 		.4byte	0xa9
 1165 00a9 02       		.uleb128 0x2
 1166 00aa 08       		.byte	0x8
 1167 00ab 07       		.byte	0x7
 1168 00ac 88000000 		.4byte	.LASF15
 1169 00b0 04       		.uleb128 0x4
 1170 00b1 A6060000 		.4byte	.LASF16
 1171 00b5 04       		.byte	0x4
 1172 00b6 14       		.byte	0x14
 1173 00b7 53000000 		.4byte	0x53
 1174 00bb 04       		.uleb128 0x4
 1175 00bc 09050000 		.4byte	.LASF17
 1176 00c0 04       		.byte	0x4
 1177 00c1 1F       		.byte	0x1f
 1178 00c2 73000000 		.4byte	0x73
 1179 00c6 04       		.uleb128 0x4
 1180 00c7 C4050000 		.4byte	.LASF18
 1181 00cb 04       		.byte	0x4
 1182 00cc 20       		.byte	0x20
 1183 00cd 85000000 		.4byte	0x85
 1184 00d1 04       		.uleb128 0x4
 1185 00d2 2B000000 		.4byte	.LASF19
 1186 00d6 04       		.byte	0x4
 1187 00d7 26       		.byte	0x26
 1188 00d8 9E000000 		.4byte	0x9e
 1189 00dc 04       		.uleb128 0x4
 1190 00dd 69060000 		.4byte	.LASF20
 1191 00e1 05       		.byte	0x5
 1192 00e2 39       		.byte	0x39
 1193 00e3 C6000000 		.4byte	0xc6
 1194 00e7 04       		.uleb128 0x4
 1195 00e8 75020000 		.4byte	.LASF21
 1196 00ec 05       		.byte	0x5
ARM GAS  /var/folders/m4/4md61f0s1_g0rzfghffqnxvr0000gn/T//ccS6xPmJ.s 			page 22


 1197 00ed 3C       		.byte	0x3c
 1198 00ee B0000000 		.4byte	0xb0
 1199 00f2 04       		.uleb128 0x4
 1200 00f3 5C010000 		.4byte	.LASF22
 1201 00f7 05       		.byte	0x5
 1202 00f8 3D       		.byte	0x3d
 1203 00f9 B0000000 		.4byte	0xb0
 1204 00fd 04       		.uleb128 0x4
 1205 00fe 0F000000 		.4byte	.LASF23
 1206 0102 05       		.byte	0x5
 1207 0103 3E       		.byte	0x3e
 1208 0104 B0000000 		.4byte	0xb0
 1209 0108 04       		.uleb128 0x4
 1210 0109 39010000 		.4byte	.LASF24
 1211 010d 05       		.byte	0x5
 1212 010e 3F       		.byte	0x3f
 1213 010f B0000000 		.4byte	0xb0
 1214 0113 04       		.uleb128 0x4
 1215 0114 D7040000 		.4byte	.LASF25
 1216 0118 05       		.byte	0x5
 1217 0119 40       		.byte	0x40
 1218 011a C6000000 		.4byte	0xc6
 1219 011e 04       		.uleb128 0x4
 1220 011f 6A020000 		.4byte	.LASF26
 1221 0123 05       		.byte	0x5
 1222 0124 41       		.byte	0x41
 1223 0125 BB000000 		.4byte	0xbb
 1224 0129 04       		.uleb128 0x4
 1225 012a 8B020000 		.4byte	.LASF27
 1226 012e 05       		.byte	0x5
 1227 012f 43       		.byte	0x43
 1228 0130 C6000000 		.4byte	0xc6
 1229 0134 04       		.uleb128 0x4
 1230 0135 FF010000 		.4byte	.LASF28
 1231 0139 05       		.byte	0x5
 1232 013a 45       		.byte	0x45
 1233 013b BB000000 		.4byte	0xbb
 1234 013f 04       		.uleb128 0x4
 1235 0140 16060000 		.4byte	.LASF29
 1236 0144 06       		.byte	0x6
 1237 0145 33       		.byte	0x33
 1238 0146 C6000000 		.4byte	0xc6
 1239 014a 04       		.uleb128 0x4
 1240 014b 06060000 		.4byte	.LASF30
 1241 014f 06       		.byte	0x6
 1242 0150 3F       		.byte	0x3f
 1243 0151 55010000 		.4byte	0x155
 1244 0155 05       		.uleb128 0x5
 1245 0156 60020000 		.4byte	.LASF52
 1246 015a 48       		.byte	0x48
 1247 015b 07       		.byte	0x7
 1248 015c C2       		.byte	0xc2
 1249 015d 5A020000 		.4byte	0x25a
 1250 0161 06       		.uleb128 0x6
 1251 0162 67050000 		.4byte	.LASF31
 1252 0166 07       		.byte	0x7
 1253 0167 C3       		.byte	0xc3
ARM GAS  /var/folders/m4/4md61f0s1_g0rzfghffqnxvr0000gn/T//ccS6xPmJ.s 			page 23


 1254 0168 65020000 		.4byte	0x265
 1255 016c 00       		.byte	0
 1256 016d 06       		.uleb128 0x6
 1257 016e D0040000 		.4byte	.LASF32
 1258 0172 07       		.byte	0x7
 1259 0173 C5       		.byte	0xc5
 1260 0174 65020000 		.4byte	0x265
 1261 0178 04       		.byte	0x4
 1262 0179 06       		.uleb128 0x6
 1263 017a F7000000 		.4byte	.LASF33
 1264 017e 07       		.byte	0x7
 1265 017f C7       		.byte	0xc7
 1266 0180 13010000 		.4byte	0x113
 1267 0184 08       		.byte	0x8
 1268 0185 06       		.uleb128 0x6
 1269 0186 00070000 		.4byte	.LASF34
 1270 018a 07       		.byte	0x7
 1271 018b C8       		.byte	0xc8
 1272 018c 95040000 		.4byte	0x495
 1273 0190 0C       		.byte	0xc
 1274 0191 06       		.uleb128 0x6
 1275 0192 76010000 		.4byte	.LASF35
 1276 0196 07       		.byte	0x7
 1277 0197 CA       		.byte	0xca
 1278 0198 65020000 		.4byte	0x265
 1279 019c 10       		.byte	0x10
 1280 019d 06       		.uleb128 0x6
 1281 019e 71040000 		.4byte	.LASF36
 1282 01a2 07       		.byte	0x7
 1283 01a3 CB       		.byte	0xcb
 1284 01a4 65020000 		.4byte	0x265
 1285 01a8 14       		.byte	0x14
 1286 01a9 06       		.uleb128 0x6
 1287 01aa EC040000 		.4byte	.LASF37
 1288 01ae 07       		.byte	0x7
 1289 01af D2       		.byte	0xd2
 1290 01b0 E3060000 		.4byte	0x6e3
 1291 01b4 18       		.byte	0x18
 1292 01b5 06       		.uleb128 0x6
 1293 01b6 47050000 		.4byte	.LASF38
 1294 01ba 07       		.byte	0x7
 1295 01bb DD       		.byte	0xdd
 1296 01bc F2000000 		.4byte	0xf2
 1297 01c0 1C       		.byte	0x1c
 1298 01c1 06       		.uleb128 0x6
 1299 01c2 86050000 		.4byte	.LASF39
 1300 01c6 07       		.byte	0x7
 1301 01c7 E1       		.byte	0xe1
 1302 01c8 E7000000 		.4byte	0xe7
 1303 01cc 1D       		.byte	0x1d
 1304 01cd 06       		.uleb128 0x6
 1305 01ce 91060000 		.4byte	.LASF40
 1306 01d2 07       		.byte	0x7
 1307 01d3 E6       		.byte	0xe6
 1308 01d4 FD000000 		.4byte	0xfd
 1309 01d8 1E       		.byte	0x1e
 1310 01d9 06       		.uleb128 0x6
ARM GAS  /var/folders/m4/4md61f0s1_g0rzfghffqnxvr0000gn/T//ccS6xPmJ.s 			page 24


 1311 01da 4F050000 		.4byte	.LASF41
 1312 01de 07       		.byte	0x7
 1313 01df EC       		.byte	0xec
 1314 01e0 08010000 		.4byte	0x108
 1315 01e4 1F       		.byte	0x1f
 1316 01e5 06       		.uleb128 0x6
 1317 01e6 1A020000 		.4byte	.LASF42
 1318 01ea 07       		.byte	0x7
 1319 01eb F3       		.byte	0xf3
 1320 01ec F5060000 		.4byte	0x6f5
 1321 01f0 20       		.byte	0x20
 1322 01f1 07       		.uleb128 0x7
 1323 01f2 705F7500 		.ascii	"p_u\000"
 1324 01f6 07       		.byte	0x7
 1325 01f7 3101     		.2byte	0x131
 1326 01f9 1E060000 		.4byte	0x61e
 1327 01fd 24       		.byte	0x24
 1328 01fe 08       		.uleb128 0x8
 1329 01ff E1030000 		.4byte	.LASF43
 1330 0203 07       		.byte	0x7
 1331 0204 3601     		.2byte	0x136
 1332 0206 6B020000 		.4byte	0x26b
 1333 020a 28       		.byte	0x28
 1334 020b 08       		.uleb128 0x8
 1335 020c 31020000 		.4byte	.LASF44
 1336 0210 07       		.byte	0x7
 1337 0211 3C01     		.2byte	0x13c
 1338 0213 8F020000 		.4byte	0x28f
 1339 0217 2C       		.byte	0x2c
 1340 0218 08       		.uleb128 0x8
 1341 0219 EB060000 		.4byte	.LASF45
 1342 021d 07       		.byte	0x7
 1343 021e 4001     		.2byte	0x140
 1344 0220 1E010000 		.4byte	0x11e
 1345 0224 34       		.byte	0x34
 1346 0225 08       		.uleb128 0x8
 1347 0226 B9050000 		.4byte	.LASF46
 1348 022a 07       		.byte	0x7
 1349 022b 4601     		.2byte	0x146
 1350 022d 29010000 		.4byte	0x129
 1351 0231 38       		.byte	0x38
 1352 0232 08       		.uleb128 0x8
 1353 0233 33050000 		.4byte	.LASF47
 1354 0237 07       		.byte	0x7
 1355 0238 4D01     		.2byte	0x14d
 1356 023a DD060000 		.4byte	0x6dd
 1357 023e 3C       		.byte	0x3c
 1358 023f 08       		.uleb128 0x8
 1359 0240 20060000 		.4byte	.LASF48
 1360 0244 07       		.byte	0x7
 1361 0245 5101     		.2byte	0x151
 1362 0247 13010000 		.4byte	0x113
 1363 024b 40       		.byte	0x40
 1364 024c 08       		.uleb128 0x8
 1365 024d 2A010000 		.4byte	.LASF49
 1366 0251 07       		.byte	0x7
 1367 0252 5801     		.2byte	0x158
ARM GAS  /var/folders/m4/4md61f0s1_g0rzfghffqnxvr0000gn/T//ccS6xPmJ.s 			page 25


 1368 0254 42030000 		.4byte	0x342
 1369 0258 44       		.byte	0x44
 1370 0259 00       		.byte	0
 1371 025a 04       		.uleb128 0x4
 1372 025b F4030000 		.4byte	.LASF50
 1373 025f 06       		.byte	0x6
 1374 0260 44       		.byte	0x44
 1375 0261 65020000 		.4byte	0x265
 1376 0265 09       		.uleb128 0x9
 1377 0266 04       		.byte	0x4
 1378 0267 4A010000 		.4byte	0x14a
 1379 026b 04       		.uleb128 0x4
 1380 026c 00000000 		.4byte	.LASF51
 1381 0270 06       		.byte	0x6
 1382 0271 49       		.byte	0x49
 1383 0272 76020000 		.4byte	0x276
 1384 0276 05       		.uleb128 0x5
 1385 0277 DC050000 		.4byte	.LASF53
 1386 027b 04       		.byte	0x4
 1387 027c 07       		.byte	0x7
 1388 027d B0       		.byte	0xb0
 1389 027e 8F020000 		.4byte	0x28f
 1390 0282 06       		.uleb128 0x6
 1391 0283 67050000 		.4byte	.LASF31
 1392 0287 07       		.byte	0x7
 1393 0288 B1       		.byte	0xb1
 1394 0289 65020000 		.4byte	0x265
 1395 028d 00       		.byte	0
 1396 028e 00       		.byte	0
 1397 028f 04       		.uleb128 0x4
 1398 0290 78060000 		.4byte	.LASF54
 1399 0294 06       		.byte	0x6
 1400 0295 50       		.byte	0x50
 1401 0296 9A020000 		.4byte	0x29a
 1402 029a 05       		.uleb128 0x5
 1403 029b E6000000 		.4byte	.LASF55
 1404 029f 08       		.byte	0x8
 1405 02a0 07       		.byte	0x7
 1406 02a1 B7       		.byte	0xb7
 1407 02a2 BF020000 		.4byte	0x2bf
 1408 02a6 06       		.uleb128 0x6
 1409 02a7 67050000 		.4byte	.LASF31
 1410 02ab 07       		.byte	0x7
 1411 02ac B8       		.byte	0xb8
 1412 02ad 65020000 		.4byte	0x265
 1413 02b1 00       		.byte	0
 1414 02b2 06       		.uleb128 0x6
 1415 02b3 D0040000 		.4byte	.LASF32
 1416 02b7 07       		.byte	0x7
 1417 02b8 B9       		.byte	0xb9
 1418 02b9 65020000 		.4byte	0x265
 1419 02bd 04       		.byte	0x4
 1420 02be 00       		.byte	0
 1421 02bf 04       		.uleb128 0x4
 1422 02c0 17000000 		.4byte	.LASF56
 1423 02c4 06       		.byte	0x6
 1424 02c5 57       		.byte	0x57
ARM GAS  /var/folders/m4/4md61f0s1_g0rzfghffqnxvr0000gn/T//ccS6xPmJ.s 			page 26


 1425 02c6 CA020000 		.4byte	0x2ca
 1426 02ca 0A       		.uleb128 0xa
 1427 02cb 7D020000 		.4byte	.LASF57
 1428 02cf 1C       		.byte	0x1c
 1429 02d0 07       		.byte	0x7
 1430 02d1 9001     		.2byte	0x190
 1431 02d3 26030000 		.4byte	0x326
 1432 02d7 08       		.uleb128 0x8
 1433 02d8 D4050000 		.4byte	.LASF58
 1434 02dc 07       		.byte	0x7
 1435 02dd 9101     		.2byte	0x191
 1436 02df 8F020000 		.4byte	0x28f
 1437 02e3 00       		.byte	0
 1438 02e4 08       		.uleb128 0x8
 1439 02e5 59050000 		.4byte	.LASF59
 1440 02e9 07       		.byte	0x7
 1441 02ea 9201     		.2byte	0x192
 1442 02ec 13010000 		.4byte	0x113
 1443 02f0 08       		.byte	0x8
 1444 02f1 08       		.uleb128 0x8
 1445 02f2 79040000 		.4byte	.LASF60
 1446 02f6 07       		.byte	0x7
 1447 02f7 9401     		.2byte	0x194
 1448 02f9 95040000 		.4byte	0x495
 1449 02fd 0C       		.byte	0xc
 1450 02fe 08       		.uleb128 0x8
 1451 02ff 86010000 		.4byte	.LASF61
 1452 0303 07       		.byte	0x7
 1453 0304 9701     		.2byte	0x197
 1454 0306 65020000 		.4byte	0x265
 1455 030a 10       		.byte	0x10
 1456 030b 08       		.uleb128 0x8
 1457 030c 9A040000 		.4byte	.LASF62
 1458 0310 07       		.byte	0x7
 1459 0311 9801     		.2byte	0x198
 1460 0313 65020000 		.4byte	0x265
 1461 0317 14       		.byte	0x14
 1462 0318 08       		.uleb128 0x8
 1463 0319 90040000 		.4byte	.LASF63
 1464 031d 07       		.byte	0x7
 1465 031e 9B01     		.2byte	0x19b
 1466 0320 65020000 		.4byte	0x265
 1467 0324 18       		.byte	0x18
 1468 0325 00       		.byte	0
 1469 0326 04       		.uleb128 0x4
 1470 0327 2B060000 		.4byte	.LASF64
 1471 032b 06       		.byte	0x6
 1472 032c 5C       		.byte	0x5c
 1473 032d 31030000 		.4byte	0x331
 1474 0331 09       		.uleb128 0x9
 1475 0332 04       		.byte	0x4
 1476 0333 37030000 		.4byte	0x337
 1477 0337 0B       		.uleb128 0xb
 1478 0338 42030000 		.4byte	0x342
 1479 033c 0C       		.uleb128 0xc
 1480 033d 42030000 		.4byte	0x342
 1481 0341 00       		.byte	0
ARM GAS  /var/folders/m4/4md61f0s1_g0rzfghffqnxvr0000gn/T//ccS6xPmJ.s 			page 27


 1482 0342 0D       		.uleb128 0xd
 1483 0343 04       		.byte	0x4
 1484 0344 04       		.uleb128 0x4
 1485 0345 C0040000 		.4byte	.LASF65
 1486 0349 06       		.byte	0x6
 1487 034a 61       		.byte	0x61
 1488 034b 4F030000 		.4byte	0x34f
 1489 034f 0A       		.uleb128 0xa
 1490 0350 9B050000 		.4byte	.LASF66
 1491 0354 14       		.byte	0x14
 1492 0355 07       		.byte	0x7
 1493 0356 6B01     		.2byte	0x16b
 1494 0358 9E030000 		.4byte	0x39e
 1495 035c 08       		.uleb128 0x8
 1496 035d 12020000 		.4byte	.LASF67
 1497 0361 07       		.byte	0x7
 1498 0362 6C01     		.2byte	0x16c
 1499 0364 FA060000 		.4byte	0x6fa
 1500 0368 00       		.byte	0
 1501 0369 08       		.uleb128 0x8
 1502 036a 97010000 		.4byte	.LASF68
 1503 036e 07       		.byte	0x7
 1504 036f 6D01     		.2byte	0x16d
 1505 0371 FA060000 		.4byte	0x6fa
 1506 0375 04       		.byte	0x4
 1507 0376 08       		.uleb128 0x8
 1508 0377 28020000 		.4byte	.LASF69
 1509 037b 07       		.byte	0x7
 1510 037c 6E01     		.2byte	0x16e
 1511 037e 3F010000 		.4byte	0x13f
 1512 0382 08       		.byte	0x8
 1513 0383 08       		.uleb128 0x8
 1514 0384 06070000 		.4byte	.LASF70
 1515 0388 07       		.byte	0x7
 1516 0389 6F01     		.2byte	0x16f
 1517 038b 26030000 		.4byte	0x326
 1518 038f 0C       		.byte	0xc
 1519 0390 08       		.uleb128 0x8
 1520 0391 71060000 		.4byte	.LASF71
 1521 0395 07       		.byte	0x7
 1522 0396 7101     		.2byte	0x171
 1523 0398 42030000 		.4byte	0x342
 1524 039c 10       		.byte	0x10
 1525 039d 00       		.byte	0
 1526 039e 04       		.uleb128 0x4
 1527 039f C3000000 		.4byte	.LASF72
 1528 03a3 06       		.byte	0x6
 1529 03a4 66       		.byte	0x66
 1530 03a5 A9030000 		.4byte	0x3a9
 1531 03a9 0A       		.uleb128 0xa
 1532 03aa 07040000 		.4byte	.LASF73
 1533 03ae 10       		.byte	0x10
 1534 03af 07       		.byte	0x7
 1535 03b0 7B01     		.2byte	0x17b
 1536 03b2 EB030000 		.4byte	0x3eb
 1537 03b6 08       		.uleb128 0x8
 1538 03b7 12020000 		.4byte	.LASF67
ARM GAS  /var/folders/m4/4md61f0s1_g0rzfghffqnxvr0000gn/T//ccS6xPmJ.s 			page 28


 1539 03bb 07       		.byte	0x7
 1540 03bc 7C01     		.2byte	0x17c
 1541 03be FA060000 		.4byte	0x6fa
 1542 03c2 00       		.byte	0
 1543 03c3 08       		.uleb128 0x8
 1544 03c4 97010000 		.4byte	.LASF68
 1545 03c8 07       		.byte	0x7
 1546 03c9 7E01     		.2byte	0x17e
 1547 03cb FA060000 		.4byte	0x6fa
 1548 03cf 04       		.byte	0x4
 1549 03d0 08       		.uleb128 0x8
 1550 03d1 28020000 		.4byte	.LASF69
 1551 03d5 07       		.byte	0x7
 1552 03d6 8001     		.2byte	0x180
 1553 03d8 3F010000 		.4byte	0x13f
 1554 03dc 08       		.byte	0x8
 1555 03dd 08       		.uleb128 0x8
 1556 03de E0060000 		.4byte	.LASF74
 1557 03e2 07       		.byte	0x7
 1558 03e3 8201     		.2byte	0x182
 1559 03e5 F5060000 		.4byte	0x6f5
 1560 03e9 0C       		.byte	0xc
 1561 03ea 00       		.byte	0
 1562 03eb 04       		.uleb128 0x4
 1563 03ec 52000000 		.4byte	.LASF75
 1564 03f0 06       		.byte	0x6
 1565 03f1 6B       		.byte	0x6b
 1566 03f2 F6030000 		.4byte	0x3f6
 1567 03f6 0A       		.uleb128 0xa
 1568 03f7 F3040000 		.4byte	.LASF76
 1569 03fb 04       		.byte	0x4
 1570 03fc 07       		.byte	0x7
 1571 03fd A201     		.2byte	0x1a2
 1572 03ff 11040000 		.4byte	0x411
 1573 0403 08       		.uleb128 0x8
 1574 0404 3F060000 		.4byte	.LASF77
 1575 0408 07       		.byte	0x7
 1576 0409 AA01     		.2byte	0x1aa
 1577 040b 00070000 		.4byte	0x700
 1578 040f 00       		.byte	0
 1579 0410 00       		.byte	0
 1580 0411 04       		.uleb128 0x4
 1581 0412 5D060000 		.4byte	.LASF78
 1582 0416 06       		.byte	0x6
 1583 0417 70       		.byte	0x70
 1584 0418 1C040000 		.4byte	0x41c
 1585 041c 0E       		.uleb128 0xe
 1586 041d 49010000 		.4byte	.LASF79
 1587 0421 5802     		.2byte	0x258
 1588 0423 07       		.byte	0x7
 1589 0424 C201     		.2byte	0x1c2
 1590 0426 78040000 		.4byte	0x478
 1591 042a 08       		.uleb128 0x8
 1592 042b A0060000 		.4byte	.LASF80
 1593 042f 07       		.byte	0x7
 1594 0430 C601     		.2byte	0x1c6
 1595 0432 BF020000 		.4byte	0x2bf
ARM GAS  /var/folders/m4/4md61f0s1_g0rzfghffqnxvr0000gn/T//ccS6xPmJ.s 			page 29


 1596 0436 00       		.byte	0
 1597 0437 08       		.uleb128 0x8
 1598 0438 9F010000 		.4byte	.LASF81
 1599 043c 07       		.byte	0x7
 1600 043d CA01     		.2byte	0x1ca
 1601 043f 9E030000 		.4byte	0x39e
 1602 0443 1C       		.byte	0x1c
 1603 0444 07       		.uleb128 0x7
 1604 0445 64626700 		.ascii	"dbg\000"
 1605 0449 07       		.byte	0x7
 1606 044a CE01     		.2byte	0x1ce
 1607 044c EB030000 		.4byte	0x3eb
 1608 0450 2C       		.byte	0x2c
 1609 0451 08       		.uleb128 0x8
 1610 0452 B8000000 		.4byte	.LASF82
 1611 0456 07       		.byte	0x7
 1612 0457 D201     		.2byte	0x1d2
 1613 0459 4A010000 		.4byte	0x14a
 1614 045d 30       		.byte	0x30
 1615 045e 07       		.uleb128 0x7
 1616 045f 746D00   		.ascii	"tm\000"
 1617 0462 07       		.byte	0x7
 1618 0463 D701     		.2byte	0x1d7
 1619 0465 13060000 		.4byte	0x613
 1620 0469 78       		.byte	0x78
 1621 046a 08       		.uleb128 0x8
 1622 046b 66000000 		.4byte	.LASF83
 1623 046f 07       		.byte	0x7
 1624 0470 E301     		.2byte	0x1e3
 1625 0472 05070000 		.4byte	0x705
 1626 0476 80       		.byte	0x80
 1627 0477 00       		.byte	0
 1628 0478 02       		.uleb128 0x2
 1629 0479 04       		.byte	0x4
 1630 047a 07       		.byte	0x7
 1631 047b EB030000 		.4byte	.LASF84
 1632 047f 04       		.uleb128 0x4
 1633 0480 8E010000 		.4byte	.LASF85
 1634 0484 08       		.byte	0x8
 1635 0485 65       		.byte	0x65
 1636 0486 42030000 		.4byte	0x342
 1637 048a 04       		.uleb128 0x4
 1638 048b A1020000 		.4byte	.LASF86
 1639 048f 08       		.byte	0x8
 1640 0490 6D       		.byte	0x6d
 1641 0491 D1000000 		.4byte	0xd1
 1642 0495 05       		.uleb128 0x5
 1643 0496 55060000 		.4byte	.LASF87
 1644 049a 04       		.byte	0x4
 1645 049b 08       		.byte	0x8
 1646 049c 89       		.byte	0x89
 1647 049d AE040000 		.4byte	0x4ae
 1648 04a1 0F       		.uleb128 0xf
 1649 04a2 72313300 		.ascii	"r13\000"
 1650 04a6 08       		.byte	0x8
 1651 04a7 8A       		.byte	0x8a
 1652 04a8 F8050000 		.4byte	0x5f8
ARM GAS  /var/folders/m4/4md61f0s1_g0rzfghffqnxvr0000gn/T//ccS6xPmJ.s 			page 30


 1653 04ac 00       		.byte	0
 1654 04ad 00       		.byte	0
 1655 04ae 05       		.uleb128 0x5
 1656 04af 3E000000 		.4byte	.LASF88
 1657 04b3 64       		.byte	0x64
 1658 04b4 09       		.byte	0x9
 1659 04b5 FD       		.byte	0xfd
 1660 04b6 F8050000 		.4byte	0x5f8
 1661 04ba 0F       		.uleb128 0xf
 1662 04bb 73313600 		.ascii	"s16\000"
 1663 04bf 09       		.byte	0x9
 1664 04c0 FF       		.byte	0xff
 1665 04c1 7F040000 		.4byte	0x47f
 1666 04c5 00       		.byte	0
 1667 04c6 07       		.uleb128 0x7
 1668 04c7 73313700 		.ascii	"s17\000"
 1669 04cb 09       		.byte	0x9
 1670 04cc 0001     		.2byte	0x100
 1671 04ce 7F040000 		.4byte	0x47f
 1672 04d2 04       		.byte	0x4
 1673 04d3 07       		.uleb128 0x7
 1674 04d4 73313800 		.ascii	"s18\000"
 1675 04d8 09       		.byte	0x9
 1676 04d9 0101     		.2byte	0x101
 1677 04db 7F040000 		.4byte	0x47f
 1678 04df 08       		.byte	0x8
 1679 04e0 07       		.uleb128 0x7
 1680 04e1 73313900 		.ascii	"s19\000"
 1681 04e5 09       		.byte	0x9
 1682 04e6 0201     		.2byte	0x102
 1683 04e8 7F040000 		.4byte	0x47f
 1684 04ec 0C       		.byte	0xc
 1685 04ed 07       		.uleb128 0x7
 1686 04ee 73323000 		.ascii	"s20\000"
 1687 04f2 09       		.byte	0x9
 1688 04f3 0301     		.2byte	0x103
 1689 04f5 7F040000 		.4byte	0x47f
 1690 04f9 10       		.byte	0x10
 1691 04fa 07       		.uleb128 0x7
 1692 04fb 73323100 		.ascii	"s21\000"
 1693 04ff 09       		.byte	0x9
 1694 0500 0401     		.2byte	0x104
 1695 0502 7F040000 		.4byte	0x47f
 1696 0506 14       		.byte	0x14
 1697 0507 07       		.uleb128 0x7
 1698 0508 73323200 		.ascii	"s22\000"
 1699 050c 09       		.byte	0x9
 1700 050d 0501     		.2byte	0x105
 1701 050f 7F040000 		.4byte	0x47f
 1702 0513 18       		.byte	0x18
 1703 0514 07       		.uleb128 0x7
 1704 0515 73323300 		.ascii	"s23\000"
 1705 0519 09       		.byte	0x9
 1706 051a 0601     		.2byte	0x106
 1707 051c 7F040000 		.4byte	0x47f
 1708 0520 1C       		.byte	0x1c
 1709 0521 07       		.uleb128 0x7
ARM GAS  /var/folders/m4/4md61f0s1_g0rzfghffqnxvr0000gn/T//ccS6xPmJ.s 			page 31


 1710 0522 73323400 		.ascii	"s24\000"
 1711 0526 09       		.byte	0x9
 1712 0527 0701     		.2byte	0x107
 1713 0529 7F040000 		.4byte	0x47f
 1714 052d 20       		.byte	0x20
 1715 052e 07       		.uleb128 0x7
 1716 052f 73323500 		.ascii	"s25\000"
 1717 0533 09       		.byte	0x9
 1718 0534 0801     		.2byte	0x108
 1719 0536 7F040000 		.4byte	0x47f
 1720 053a 24       		.byte	0x24
 1721 053b 07       		.uleb128 0x7
 1722 053c 73323600 		.ascii	"s26\000"
 1723 0540 09       		.byte	0x9
 1724 0541 0901     		.2byte	0x109
 1725 0543 7F040000 		.4byte	0x47f
 1726 0547 28       		.byte	0x28
 1727 0548 07       		.uleb128 0x7
 1728 0549 73323700 		.ascii	"s27\000"
 1729 054d 09       		.byte	0x9
 1730 054e 0A01     		.2byte	0x10a
 1731 0550 7F040000 		.4byte	0x47f
 1732 0554 2C       		.byte	0x2c
 1733 0555 07       		.uleb128 0x7
 1734 0556 73323800 		.ascii	"s28\000"
 1735 055a 09       		.byte	0x9
 1736 055b 0B01     		.2byte	0x10b
 1737 055d 7F040000 		.4byte	0x47f
 1738 0561 30       		.byte	0x30
 1739 0562 07       		.uleb128 0x7
 1740 0563 73323900 		.ascii	"s29\000"
 1741 0567 09       		.byte	0x9
 1742 0568 0C01     		.2byte	0x10c
 1743 056a 7F040000 		.4byte	0x47f
 1744 056e 34       		.byte	0x34
 1745 056f 07       		.uleb128 0x7
 1746 0570 73333000 		.ascii	"s30\000"
 1747 0574 09       		.byte	0x9
 1748 0575 0D01     		.2byte	0x10d
 1749 0577 7F040000 		.4byte	0x47f
 1750 057b 38       		.byte	0x38
 1751 057c 07       		.uleb128 0x7
 1752 057d 73333100 		.ascii	"s31\000"
 1753 0581 09       		.byte	0x9
 1754 0582 0E01     		.2byte	0x10e
 1755 0584 7F040000 		.4byte	0x47f
 1756 0588 3C       		.byte	0x3c
 1757 0589 07       		.uleb128 0x7
 1758 058a 723400   		.ascii	"r4\000"
 1759 058d 09       		.byte	0x9
 1760 058e 1001     		.2byte	0x110
 1761 0590 7F040000 		.4byte	0x47f
 1762 0594 40       		.byte	0x40
 1763 0595 07       		.uleb128 0x7
 1764 0596 723500   		.ascii	"r5\000"
 1765 0599 09       		.byte	0x9
 1766 059a 1101     		.2byte	0x111
ARM GAS  /var/folders/m4/4md61f0s1_g0rzfghffqnxvr0000gn/T//ccS6xPmJ.s 			page 32


 1767 059c 7F040000 		.4byte	0x47f
 1768 05a0 44       		.byte	0x44
 1769 05a1 07       		.uleb128 0x7
 1770 05a2 723600   		.ascii	"r6\000"
 1771 05a5 09       		.byte	0x9
 1772 05a6 1201     		.2byte	0x112
 1773 05a8 7F040000 		.4byte	0x47f
 1774 05ac 48       		.byte	0x48
 1775 05ad 07       		.uleb128 0x7
 1776 05ae 723700   		.ascii	"r7\000"
 1777 05b1 09       		.byte	0x9
 1778 05b2 1301     		.2byte	0x113
 1779 05b4 7F040000 		.4byte	0x47f
 1780 05b8 4C       		.byte	0x4c
 1781 05b9 07       		.uleb128 0x7
 1782 05ba 723800   		.ascii	"r8\000"
 1783 05bd 09       		.byte	0x9
 1784 05be 1401     		.2byte	0x114
 1785 05c0 7F040000 		.4byte	0x47f
 1786 05c4 50       		.byte	0x50
 1787 05c5 07       		.uleb128 0x7
 1788 05c6 723900   		.ascii	"r9\000"
 1789 05c9 09       		.byte	0x9
 1790 05ca 1501     		.2byte	0x115
 1791 05cc 7F040000 		.4byte	0x47f
 1792 05d0 54       		.byte	0x54
 1793 05d1 07       		.uleb128 0x7
 1794 05d2 72313000 		.ascii	"r10\000"
 1795 05d6 09       		.byte	0x9
 1796 05d7 1601     		.2byte	0x116
 1797 05d9 7F040000 		.4byte	0x47f
 1798 05dd 58       		.byte	0x58
 1799 05de 07       		.uleb128 0x7
 1800 05df 72313100 		.ascii	"r11\000"
 1801 05e3 09       		.byte	0x9
 1802 05e4 1701     		.2byte	0x117
 1803 05e6 7F040000 		.4byte	0x47f
 1804 05ea 5C       		.byte	0x5c
 1805 05eb 07       		.uleb128 0x7
 1806 05ec 6C7200   		.ascii	"lr\000"
 1807 05ef 09       		.byte	0x9
 1808 05f0 1801     		.2byte	0x118
 1809 05f2 7F040000 		.4byte	0x47f
 1810 05f6 60       		.byte	0x60
 1811 05f7 00       		.byte	0
 1812 05f8 09       		.uleb128 0x9
 1813 05f9 04       		.byte	0x4
 1814 05fa AE040000 		.4byte	0x4ae
 1815 05fe 10       		.uleb128 0x10
 1816 05ff 04       		.byte	0x4
 1817 0600 0A       		.byte	0xa
 1818 0601 38       		.byte	0x38
 1819 0602 13060000 		.4byte	0x613
 1820 0606 06       		.uleb128 0x6
 1821 0607 49060000 		.4byte	.LASF89
 1822 060b 0A       		.byte	0xa
 1823 060c 3C       		.byte	0x3c
ARM GAS  /var/folders/m4/4md61f0s1_g0rzfghffqnxvr0000gn/T//ccS6xPmJ.s 			page 33


 1824 060d DC000000 		.4byte	0xdc
 1825 0611 00       		.byte	0
 1826 0612 00       		.byte	0
 1827 0613 04       		.uleb128 0x4
 1828 0614 7F040000 		.4byte	.LASF90
 1829 0618 0A       		.byte	0xa
 1830 0619 3D       		.byte	0x3d
 1831 061a FE050000 		.4byte	0x5fe
 1832 061e 11       		.uleb128 0x11
 1833 061f 04       		.byte	0x4
 1834 0620 07       		.byte	0x7
 1835 0621 FA       		.byte	0xfa
 1836 0622 7B060000 		.4byte	0x67b
 1837 0626 12       		.uleb128 0x12
 1838 0627 94050000 		.4byte	.LASF91
 1839 062b 07       		.byte	0x7
 1840 062c 0101     		.2byte	0x101
 1841 062e 1E010000 		.4byte	0x11e
 1842 0632 12       		.uleb128 0x12
 1843 0633 AF000000 		.4byte	.LASF92
 1844 0637 07       		.byte	0x7
 1845 0638 0801     		.2byte	0x108
 1846 063a 1E010000 		.4byte	0x11e
 1847 063e 12       		.uleb128 0x12
 1848 063f B8060000 		.4byte	.LASF93
 1849 0643 07       		.byte	0x7
 1850 0644 0F01     		.2byte	0x10f
 1851 0646 42030000 		.4byte	0x342
 1852 064a 12       		.uleb128 0x12
 1853 064b 43010000 		.4byte	.LASF94
 1854 064f 07       		.byte	0x7
 1855 0650 1601     		.2byte	0x116
 1856 0652 7B060000 		.4byte	0x67b
 1857 0656 12       		.uleb128 0x12
 1858 0657 21020000 		.4byte	.LASF95
 1859 065b 07       		.byte	0x7
 1860 065c 1E01     		.2byte	0x11e
 1861 065e A6060000 		.4byte	0x6a6
 1862 0662 12       		.uleb128 0x12
 1863 0663 CD050000 		.4byte	.LASF96
 1864 0667 07       		.byte	0x7
 1865 0668 2701     		.2byte	0x127
 1866 066a DD060000 		.4byte	0x6dd
 1867 066e 12       		.uleb128 0x12
 1868 066f 60050000 		.4byte	.LASF97
 1869 0673 07       		.byte	0x7
 1870 0674 2F01     		.2byte	0x12f
 1871 0676 29010000 		.4byte	0x129
 1872 067a 00       		.byte	0
 1873 067b 09       		.uleb128 0x9
 1874 067c 04       		.byte	0x4
 1875 067d 5A020000 		.4byte	0x25a
 1876 0681 05       		.uleb128 0x5
 1877 0682 AC050000 		.4byte	.LASF98
 1878 0686 0C       		.byte	0xc
 1879 0687 0B       		.byte	0xb
 1880 0688 34       		.byte	0x34
ARM GAS  /var/folders/m4/4md61f0s1_g0rzfghffqnxvr0000gn/T//ccS6xPmJ.s 			page 34


 1881 0689 A6060000 		.4byte	0x6a6
 1882 068d 06       		.uleb128 0x6
 1883 068e 7E010000 		.4byte	.LASF99
 1884 0692 0B       		.byte	0xb
 1885 0693 35       		.byte	0x35
 1886 0694 8F020000 		.4byte	0x28f
 1887 0698 00       		.byte	0
 1888 0699 06       		.uleb128 0x6
 1889 069a 2D050000 		.4byte	.LASF100
 1890 069e 0B       		.byte	0xb
 1891 069f 37       		.byte	0x37
 1892 06a0 34010000 		.4byte	0x134
 1893 06a4 08       		.byte	0x8
 1894 06a5 00       		.byte	0
 1895 06a6 09       		.uleb128 0x9
 1896 06a7 04       		.byte	0x4
 1897 06a8 81060000 		.4byte	0x681
 1898 06ac 05       		.uleb128 0x5
 1899 06ad 88060000 		.4byte	.LASF101
 1900 06b1 10       		.byte	0x10
 1901 06b2 0C       		.byte	0xc
 1902 06b3 39       		.byte	0x39
 1903 06b4 DD060000 		.4byte	0x6dd
 1904 06b8 06       		.uleb128 0x6
 1905 06b9 1F050000 		.4byte	.LASF102
 1906 06bd 0C       		.byte	0xc
 1907 06be 3A       		.byte	0x3a
 1908 06bf 8F020000 		.4byte	0x28f
 1909 06c3 00       		.byte	0
 1910 06c4 06       		.uleb128 0x6
 1911 06c5 F1060000 		.4byte	.LASF103
 1912 06c9 0C       		.byte	0xc
 1913 06ca 3C       		.byte	0x3c
 1914 06cb 65020000 		.4byte	0x265
 1915 06cf 08       		.byte	0x8
 1916 06d0 06       		.uleb128 0x6
 1917 06d1 0F060000 		.4byte	.LASF104
 1918 06d5 0C       		.byte	0xc
 1919 06d6 3E       		.byte	0x3e
 1920 06d7 20070000 		.4byte	0x720
 1921 06db 0C       		.byte	0xc
 1922 06dc 00       		.byte	0
 1923 06dd 09       		.uleb128 0x9
 1924 06de 04       		.byte	0x4
 1925 06df AC060000 		.4byte	0x6ac
 1926 06e3 09       		.uleb128 0x9
 1927 06e4 04       		.byte	0x4
 1928 06e5 E9060000 		.4byte	0x6e9
 1929 06e9 13       		.uleb128 0x13
 1930 06ea EE060000 		.4byte	0x6ee
 1931 06ee 02       		.uleb128 0x2
 1932 06ef 01       		.byte	0x1
 1933 06f0 08       		.byte	0x8
 1934 06f1 F7050000 		.4byte	.LASF105
 1935 06f5 14       		.uleb128 0x14
 1936 06f6 3F010000 		.4byte	0x13f
 1937 06fa 09       		.uleb128 0x9
ARM GAS  /var/folders/m4/4md61f0s1_g0rzfghffqnxvr0000gn/T//ccS6xPmJ.s 			page 35


 1938 06fb 04       		.byte	0x4
 1939 06fc 44030000 		.4byte	0x344
 1940 0700 14       		.uleb128 0x14
 1941 0701 E3060000 		.4byte	0x6e3
 1942 0705 15       		.uleb128 0x15
 1943 0706 8A040000 		.4byte	0x48a
 1944 070a 15070000 		.4byte	0x715
 1945 070e 16       		.uleb128 0x16
 1946 070f 78040000 		.4byte	0x478
 1947 0713 3A       		.byte	0x3a
 1948 0714 00       		.byte	0
 1949 0715 04       		.uleb128 0x4
 1950 0716 B5010000 		.4byte	.LASF106
 1951 071a 0C       		.byte	0xc
 1952 071b 34       		.byte	0x34
 1953 071c AC060000 		.4byte	0x6ac
 1954 0720 09       		.uleb128 0x9
 1955 0721 04       		.byte	0x4
 1956 0722 15070000 		.4byte	0x715
 1957 0726 09       		.uleb128 0x9
 1958 0727 04       		.byte	0x4
 1959 0728 B0000000 		.4byte	0xb0
 1960 072c 05       		.uleb128 0x5
 1961 072d 6E050000 		.4byte	.LASF107
 1962 0731 10       		.byte	0x10
 1963 0732 0D       		.byte	0xd
 1964 0733 40       		.byte	0x40
 1965 0734 69070000 		.4byte	0x769
 1966 0738 06       		.uleb128 0x6
 1967 0739 B9020000 		.4byte	.LASF108
 1968 073d 0D       		.byte	0xd
 1969 073e 41       		.byte	0x41
 1970 073f 8D070000 		.4byte	0x78d
 1971 0743 00       		.byte	0
 1972 0744 06       		.uleb128 0x6
 1973 0745 70020000 		.4byte	.LASF109
 1974 0749 0D       		.byte	0xd
 1975 074a 41       		.byte	0x41
 1976 074b AC070000 		.4byte	0x7ac
 1977 074f 04       		.byte	0x4
 1978 0750 0F       		.uleb128 0xf
 1979 0751 70757400 		.ascii	"put\000"
 1980 0755 0D       		.byte	0xd
 1981 0756 41       		.byte	0x41
 1982 0757 C6070000 		.4byte	0x7c6
 1983 075b 08       		.byte	0x8
 1984 075c 0F       		.uleb128 0xf
 1985 075d 67657400 		.ascii	"get\000"
 1986 0761 0D       		.byte	0xd
 1987 0762 41       		.byte	0x41
 1988 0763 DB070000 		.4byte	0x7db
 1989 0767 0C       		.byte	0xc
 1990 0768 00       		.byte	0
 1991 0769 17       		.uleb128 0x17
 1992 076a 3A000000 		.4byte	0x3a
 1993 076e 82070000 		.4byte	0x782
 1994 0772 0C       		.uleb128 0xc
ARM GAS  /var/folders/m4/4md61f0s1_g0rzfghffqnxvr0000gn/T//ccS6xPmJ.s 			page 36


 1995 0773 42030000 		.4byte	0x342
 1996 0777 0C       		.uleb128 0xc
 1997 0778 82070000 		.4byte	0x782
 1998 077c 0C       		.uleb128 0xc
 1999 077d 3A000000 		.4byte	0x3a
 2000 0781 00       		.byte	0
 2001 0782 09       		.uleb128 0x9
 2002 0783 04       		.byte	0x4
 2003 0784 88070000 		.4byte	0x788
 2004 0788 13       		.uleb128 0x13
 2005 0789 B0000000 		.4byte	0xb0
 2006 078d 09       		.uleb128 0x9
 2007 078e 04       		.byte	0x4
 2008 078f 69070000 		.4byte	0x769
 2009 0793 17       		.uleb128 0x17
 2010 0794 3A000000 		.4byte	0x3a
 2011 0798 AC070000 		.4byte	0x7ac
 2012 079c 0C       		.uleb128 0xc
 2013 079d 42030000 		.4byte	0x342
 2014 07a1 0C       		.uleb128 0xc
 2015 07a2 26070000 		.4byte	0x726
 2016 07a6 0C       		.uleb128 0xc
 2017 07a7 3A000000 		.4byte	0x3a
 2018 07ab 00       		.byte	0
 2019 07ac 09       		.uleb128 0x9
 2020 07ad 04       		.byte	0x4
 2021 07ae 93070000 		.4byte	0x793
 2022 07b2 17       		.uleb128 0x17
 2023 07b3 1E010000 		.4byte	0x11e
 2024 07b7 C6070000 		.4byte	0x7c6
 2025 07bb 0C       		.uleb128 0xc
 2026 07bc 42030000 		.4byte	0x342
 2027 07c0 0C       		.uleb128 0xc
 2028 07c1 B0000000 		.4byte	0xb0
 2029 07c5 00       		.byte	0
 2030 07c6 09       		.uleb128 0x9
 2031 07c7 04       		.byte	0x4
 2032 07c8 B2070000 		.4byte	0x7b2
 2033 07cc 17       		.uleb128 0x17
 2034 07cd 1E010000 		.4byte	0x11e
 2035 07d1 DB070000 		.4byte	0x7db
 2036 07d5 0C       		.uleb128 0xc
 2037 07d6 42030000 		.4byte	0x342
 2038 07da 00       		.byte	0
 2039 07db 09       		.uleb128 0x9
 2040 07dc 04       		.byte	0x4
 2041 07dd CC070000 		.4byte	0x7cc
 2042 07e1 10       		.uleb128 0x10
 2043 07e2 04       		.byte	0x4
 2044 07e3 0D       		.byte	0xd
 2045 07e4 49       		.byte	0x49
 2046 07e5 F6070000 		.4byte	0x7f6
 2047 07e9 0F       		.uleb128 0xf
 2048 07ea 766D7400 		.ascii	"vmt\000"
 2049 07ee 0D       		.byte	0xd
 2050 07ef 4B       		.byte	0x4b
 2051 07f0 F6070000 		.4byte	0x7f6
ARM GAS  /var/folders/m4/4md61f0s1_g0rzfghffqnxvr0000gn/T//ccS6xPmJ.s 			page 37


 2052 07f4 00       		.byte	0
 2053 07f5 00       		.byte	0
 2054 07f6 09       		.uleb128 0x9
 2055 07f7 04       		.byte	0x4
 2056 07f8 FC070000 		.4byte	0x7fc
 2057 07fc 13       		.uleb128 0x13
 2058 07fd 2C070000 		.4byte	0x72c
 2059 0801 04       		.uleb128 0x4
 2060 0802 BD010000 		.4byte	.LASF110
 2061 0806 0D       		.byte	0xd
 2062 0807 4D       		.byte	0x4d
 2063 0808 E1070000 		.4byte	0x7e1
 2064 080c 02       		.uleb128 0x2
 2065 080d 01       		.byte	0x1
 2066 080e 02       		.byte	0x2
 2067 080f 03050000 		.4byte	.LASF111
 2068 0813 04       		.uleb128 0x4
 2069 0814 36040000 		.4byte	.LASF112
 2070 0818 0E       		.byte	0xe
 2071 0819 28       		.byte	0x28
 2072 081a 1E080000 		.4byte	0x81e
 2073 081e 05       		.uleb128 0x5
 2074 081f 65010000 		.4byte	.LASF113
 2075 0823 04       		.byte	0x4
 2076 0824 0F       		.byte	0xf
 2077 0825 00       		.byte	0
 2078 0826 35080000 		.4byte	0x835
 2079 082a 18       		.uleb128 0x18
 2080 082b 50060000 		.4byte	.LASF114
 2081 082f 42030000 		.4byte	0x342
 2082 0833 00       		.byte	0
 2083 0834 00       		.byte	0
 2084 0835 04       		.uleb128 0x4
 2085 0836 4A000000 		.4byte	.LASF115
 2086 083a 0E       		.byte	0xe
 2087 083b 62       		.byte	0x62
 2088 083c 13080000 		.4byte	0x813
 2089 0840 05       		.uleb128 0x5
 2090 0841 A2040000 		.4byte	.LASF116
 2091 0845 10       		.byte	0x10
 2092 0846 10       		.byte	0x10
 2093 0847 3D       		.byte	0x3d
 2094 0848 7D080000 		.4byte	0x87d
 2095 084c 06       		.uleb128 0x6
 2096 084d B9020000 		.4byte	.LASF108
 2097 0851 10       		.byte	0x10
 2098 0852 3E       		.byte	0x3e
 2099 0853 8D070000 		.4byte	0x78d
 2100 0857 00       		.byte	0
 2101 0858 06       		.uleb128 0x6
 2102 0859 70020000 		.4byte	.LASF109
 2103 085d 10       		.byte	0x10
 2104 085e 3E       		.byte	0x3e
 2105 085f AC070000 		.4byte	0x7ac
 2106 0863 04       		.byte	0x4
 2107 0864 0F       		.uleb128 0xf
 2108 0865 70757400 		.ascii	"put\000"
ARM GAS  /var/folders/m4/4md61f0s1_g0rzfghffqnxvr0000gn/T//ccS6xPmJ.s 			page 38


 2109 0869 10       		.byte	0x10
 2110 086a 3E       		.byte	0x3e
 2111 086b C6070000 		.4byte	0x7c6
 2112 086f 08       		.byte	0x8
 2113 0870 0F       		.uleb128 0xf
 2114 0871 67657400 		.ascii	"get\000"
 2115 0875 10       		.byte	0x10
 2116 0876 3E       		.byte	0x3e
 2117 0877 DB070000 		.4byte	0x7db
 2118 087b 0C       		.byte	0xc
 2119 087c 00       		.byte	0
 2120 087d 10       		.uleb128 0x10
 2121 087e 14       		.byte	0x14
 2122 087f 10       		.byte	0x10
 2123 0880 46       		.byte	0x46
 2124 0881 C2080000 		.4byte	0x8c2
 2125 0885 0F       		.uleb128 0xf
 2126 0886 766D7400 		.ascii	"vmt\000"
 2127 088a 10       		.byte	0x10
 2128 088b 48       		.byte	0x48
 2129 088c C2080000 		.4byte	0x8c2
 2130 0890 00       		.byte	0
 2131 0891 06       		.uleb128 0x6
 2132 0892 6F010000 		.4byte	.LASF117
 2133 0896 10       		.byte	0x10
 2134 0897 49       		.byte	0x49
 2135 0898 26070000 		.4byte	0x726
 2136 089c 04       		.byte	0x4
 2137 089d 06       		.uleb128 0x6
 2138 089e DB060000 		.4byte	.LASF118
 2139 08a2 10       		.byte	0x10
 2140 08a3 49       		.byte	0x49
 2141 08a4 3A000000 		.4byte	0x3a
 2142 08a8 08       		.byte	0x8
 2143 08a9 0F       		.uleb128 0xf
 2144 08aa 656F7300 		.ascii	"eos\000"
 2145 08ae 10       		.byte	0x10
 2146 08af 49       		.byte	0x49
 2147 08b0 3A000000 		.4byte	0x3a
 2148 08b4 0C       		.byte	0xc
 2149 08b5 06       		.uleb128 0x6
 2150 08b6 49060000 		.4byte	.LASF89
 2151 08ba 10       		.byte	0x10
 2152 08bb 49       		.byte	0x49
 2153 08bc 3A000000 		.4byte	0x3a
 2154 08c0 10       		.byte	0x10
 2155 08c1 00       		.byte	0
 2156 08c2 09       		.uleb128 0x9
 2157 08c3 04       		.byte	0x4
 2158 08c4 C8080000 		.4byte	0x8c8
 2159 08c8 13       		.uleb128 0x13
 2160 08c9 40080000 		.4byte	0x840
 2161 08cd 04       		.uleb128 0x4
 2162 08ce DF040000 		.4byte	.LASF119
 2163 08d2 10       		.byte	0x10
 2164 08d3 4A       		.byte	0x4a
 2165 08d4 7D080000 		.4byte	0x87d
ARM GAS  /var/folders/m4/4md61f0s1_g0rzfghffqnxvr0000gn/T//ccS6xPmJ.s 			page 39


 2166 08d8 19       		.uleb128 0x19
 2167 08d9 98060000 		.4byte	.LASF122
 2168 08dd 01       		.byte	0x1
 2169 08de 46       		.byte	0x46
 2170 08df 08090000 		.4byte	0x908
 2171 08e3 01       		.byte	0x1
 2172 08e4 08090000 		.4byte	0x908
 2173 08e8 1A       		.uleb128 0x1a
 2174 08e9 7000     		.ascii	"p\000"
 2175 08eb 01       		.byte	0x1
 2176 08ec 46       		.byte	0x46
 2177 08ed 08090000 		.4byte	0x908
 2178 08f1 1A       		.uleb128 0x1a
 2179 08f2 6E756D00 		.ascii	"num\000"
 2180 08f6 01       		.byte	0x1
 2181 08f7 46       		.byte	0x46
 2182 08f8 7E000000 		.4byte	0x7e
 2183 08fc 1B       		.uleb128 0x1b
 2184 08fd 8E050000 		.4byte	.LASF120
 2185 0901 01       		.byte	0x1
 2186 0902 46       		.byte	0x46
 2187 0903 45000000 		.4byte	0x45
 2188 0907 00       		.byte	0
 2189 0908 09       		.uleb128 0x9
 2190 0909 04       		.byte	0x4
 2191 090a EE060000 		.4byte	0x6ee
 2192 090e 1C       		.uleb128 0x1c
 2193 090f BF060000 		.4byte	.LASF141
 2194 0913 01       		.byte	0x1
 2195 0914 25       		.byte	0x25
 2196 0915 08090000 		.4byte	0x908
 2197 0919 00000000 		.4byte	.LFB268
 2198 091d 48000000 		.4byte	.LFE268-.LFB268
 2199 0921 01       		.uleb128 0x1
 2200 0922 9C       		.byte	0x9c
 2201 0923 95090000 		.4byte	0x995
 2202 0927 1D       		.uleb128 0x1d
 2203 0928 7000     		.ascii	"p\000"
 2204 092a 01       		.byte	0x1
 2205 092b 25       		.byte	0x25
 2206 092c 08090000 		.4byte	0x908
 2207 0930 00000000 		.4byte	.LLST0
 2208 0934 1D       		.uleb128 0x1d
 2209 0935 6E756D00 		.ascii	"num\000"
 2210 0939 01       		.byte	0x1
 2211 093a 26       		.byte	0x26
 2212 093b 7E000000 		.4byte	0x7e
 2213 093f 38000000 		.4byte	.LLST1
 2214 0943 1E       		.uleb128 0x1e
 2215 0944 8E050000 		.4byte	.LASF120
 2216 0948 01       		.byte	0x1
 2217 0949 27       		.byte	0x27
 2218 094a 45000000 		.4byte	0x45
 2219 094e 01       		.uleb128 0x1
 2220 094f 52       		.byte	0x52
 2221 0950 1F       		.uleb128 0x1f
 2222 0951 2E040000 		.4byte	.LASF121
ARM GAS  /var/folders/m4/4md61f0s1_g0rzfghffqnxvr0000gn/T//ccS6xPmJ.s 			page 40


 2223 0955 01       		.byte	0x1
 2224 0956 28       		.byte	0x28
 2225 0957 7E000000 		.4byte	0x7e
 2226 095b 59000000 		.4byte	.LLST2
 2227 095f 20       		.uleb128 0x20
 2228 0960 6900     		.ascii	"i\000"
 2229 0962 01       		.byte	0x1
 2230 0963 29       		.byte	0x29
 2231 0964 2C000000 		.4byte	0x2c
 2232 0968 7A000000 		.4byte	.LLST3
 2233 096c 20       		.uleb128 0x20
 2234 096d 7100     		.ascii	"q\000"
 2235 096f 01       		.byte	0x1
 2236 0970 2A       		.byte	0x2a
 2237 0971 08090000 		.4byte	0x908
 2238 0975 A8000000 		.4byte	.LLST4
 2239 0979 20       		.uleb128 0x20
 2240 097a 6C00     		.ascii	"l\000"
 2241 097c 01       		.byte	0x1
 2242 097d 2B       		.byte	0x2b
 2243 097e 7E000000 		.4byte	0x7e
 2244 0982 DE000000 		.4byte	.LLST5
 2245 0986 20       		.uleb128 0x20
 2246 0987 6C6C00   		.ascii	"ll\000"
 2247 098a 01       		.byte	0x1
 2248 098b 2B       		.byte	0x2b
 2249 098c 7E000000 		.4byte	0x7e
 2250 0990 FC000000 		.4byte	.LLST6
 2251 0994 00       		.byte	0
 2252 0995 19       		.uleb128 0x19
 2253 0996 61000000 		.4byte	.LASF123
 2254 099a 01       		.byte	0x1
 2255 099b 50       		.byte	0x50
 2256 099c 08090000 		.4byte	0x908
 2257 09a0 01       		.byte	0x1
 2258 09a1 CE090000 		.4byte	0x9ce
 2259 09a5 1A       		.uleb128 0x1a
 2260 09a6 7000     		.ascii	"p\000"
 2261 09a8 01       		.byte	0x1
 2262 09a9 50       		.byte	0x50
 2263 09aa 08090000 		.4byte	0x908
 2264 09ae 1A       		.uleb128 0x1a
 2265 09af 6E756D00 		.ascii	"num\000"
 2266 09b3 01       		.byte	0x1
 2267 09b4 50       		.byte	0x50
 2268 09b5 25000000 		.4byte	0x25
 2269 09b9 1B       		.uleb128 0x1b
 2270 09ba FC050000 		.4byte	.LASF124
 2271 09be 01       		.byte	0x1
 2272 09bf 50       		.byte	0x50
 2273 09c0 90000000 		.4byte	0x90
 2274 09c4 21       		.uleb128 0x21
 2275 09c5 6C00     		.ascii	"l\000"
 2276 09c7 01       		.byte	0x1
 2277 09c8 51       		.byte	0x51
 2278 09c9 7E000000 		.4byte	0x7e
 2279 09cd 00       		.byte	0
ARM GAS  /var/folders/m4/4md61f0s1_g0rzfghffqnxvr0000gn/T//ccS6xPmJ.s 			page 41


 2280 09ce 22       		.uleb128 0x22
 2281 09cf AE060000 		.4byte	.LASF130
 2282 09d3 01       		.byte	0x1
 2283 09d4 79       		.byte	0x79
 2284 09d5 2C000000 		.4byte	0x2c
 2285 09d9 00000000 		.4byte	.LFB271
 2286 09dd 08040000 		.4byte	.LFE271-.LFB271
 2287 09e1 01       		.uleb128 0x1
 2288 09e2 9C       		.byte	0x9c
 2289 09e3 E10B0000 		.4byte	0xbe1
 2290 09e7 1D       		.uleb128 0x1d
 2291 09e8 63687000 		.ascii	"chp\000"
 2292 09ec 01       		.byte	0x1
 2293 09ed 79       		.byte	0x79
 2294 09ee E10B0000 		.4byte	0xbe1
 2295 09f2 1A010000 		.4byte	.LLST7
 2296 09f6 1D       		.uleb128 0x1d
 2297 09f7 666D7400 		.ascii	"fmt\000"
 2298 09fb 01       		.byte	0x1
 2299 09fc 79       		.byte	0x79
 2300 09fd E3060000 		.4byte	0x6e3
 2301 0a01 38010000 		.4byte	.LLST8
 2302 0a05 1D       		.uleb128 0x1d
 2303 0a06 617000   		.ascii	"ap\000"
 2304 0a09 01       		.byte	0x1
 2305 0a0a 79       		.byte	0x79
 2306 0a0b 35080000 		.4byte	0x835
 2307 0a0f ED010000 		.4byte	.LLST9
 2308 0a13 20       		.uleb128 0x20
 2309 0a14 7000     		.ascii	"p\000"
 2310 0a16 01       		.byte	0x1
 2311 0a17 7A       		.byte	0x7a
 2312 0a18 08090000 		.4byte	0x908
 2313 0a1c 00020000 		.4byte	.LLST10
 2314 0a20 20       		.uleb128 0x20
 2315 0a21 7300     		.ascii	"s\000"
 2316 0a23 01       		.byte	0x1
 2317 0a24 7A       		.byte	0x7a
 2318 0a25 08090000 		.4byte	0x908
 2319 0a29 06030000 		.4byte	.LLST11
 2320 0a2d 20       		.uleb128 0x20
 2321 0a2e 6300     		.ascii	"c\000"
 2322 0a30 01       		.byte	0x1
 2323 0a31 7A       		.byte	0x7a
 2324 0a32 EE060000 		.4byte	0x6ee
 2325 0a36 D2030000 		.4byte	.LLST12
 2326 0a3a 23       		.uleb128 0x23
 2327 0a3b A6010000 		.4byte	.LASF125
 2328 0a3f 01       		.byte	0x1
 2329 0a40 7A       		.byte	0x7a
 2330 0a41 EE060000 		.4byte	0x6ee
 2331 0a45 55040000 		.4byte	.LLST13
 2332 0a49 20       		.uleb128 0x20
 2333 0a4a 6900     		.ascii	"i\000"
 2334 0a4c 01       		.byte	0x1
 2335 0a4d 7B       		.byte	0x7b
 2336 0a4e 2C000000 		.4byte	0x2c
ARM GAS  /var/folders/m4/4md61f0s1_g0rzfghffqnxvr0000gn/T//ccS6xPmJ.s 			page 42


 2337 0a52 E0040000 		.4byte	.LLST14
 2338 0a56 23       		.uleb128 0x23
 2339 0a57 FC050000 		.4byte	.LASF124
 2340 0a5b 01       		.byte	0x1
 2341 0a5c 7B       		.byte	0x7b
 2342 0a5d 2C000000 		.4byte	0x2c
 2343 0a61 72050000 		.4byte	.LLST15
 2344 0a65 23       		.uleb128 0x23
 2345 0a66 47020000 		.4byte	.LASF126
 2346 0a6a 01       		.byte	0x1
 2347 0a6b 7B       		.byte	0x7b
 2348 0a6c 2C000000 		.4byte	0x2c
 2349 0a70 22060000 		.4byte	.LLST16
 2350 0a74 20       		.uleb128 0x20
 2351 0a75 6E00     		.ascii	"n\000"
 2352 0a77 01       		.byte	0x1
 2353 0a78 7C       		.byte	0x7c
 2354 0a79 2C000000 		.4byte	0x2c
 2355 0a7d E0060000 		.4byte	.LLST17
 2356 0a81 23       		.uleb128 0x23
 2357 0a82 AD010000 		.4byte	.LASF127
 2358 0a86 01       		.byte	0x1
 2359 0a87 7D       		.byte	0x7d
 2360 0a88 0C080000 		.4byte	0x80c
 2361 0a8c 5F070000 		.4byte	.LLST18
 2362 0a90 23       		.uleb128 0x23
 2363 0a91 3C020000 		.4byte	.LASF128
 2364 0a95 01       		.byte	0x1
 2365 0a96 7D       		.byte	0x7d
 2366 0a97 0C080000 		.4byte	0x80c
 2367 0a9b 7F070000 		.4byte	.LLST19
 2368 0a9f 20       		.uleb128 0x20
 2369 0aa0 6C00     		.ascii	"l\000"
 2370 0aa2 01       		.byte	0x1
 2371 0aa3 7E       		.byte	0x7e
 2372 0aa4 7E000000 		.4byte	0x7e
 2373 0aa8 CB070000 		.4byte	.LLST20
 2374 0aac 20       		.uleb128 0x20
 2375 0aad 6600     		.ascii	"f\000"
 2376 0aaf 01       		.byte	0x1
 2377 0ab0 80       		.byte	0x80
 2378 0ab1 33000000 		.4byte	0x33
 2379 0ab5 F4070000 		.4byte	.LLST21
 2380 0ab9 24       		.uleb128 0x24
 2381 0aba 32010000 		.4byte	.LASF129
 2382 0abe 01       		.byte	0x1
 2383 0abf 81       		.byte	0x81
 2384 0ac0 E70B0000 		.4byte	0xbe7
 2385 0ac4 03       		.uleb128 0x3
 2386 0ac5 91       		.byte	0x91
 2387 0ac6 B87F     		.sleb128 -72
 2388 0ac8 25       		.uleb128 0x25
 2389 0ac9 1E040000 		.4byte	.LASF142
 2390 0acd 01       		.byte	0x1
 2391 0ace EF       		.byte	0xef
 2392 0acf 7E030000 		.4byte	.L39
 2393 0ad3 26       		.uleb128 0x26
ARM GAS  /var/folders/m4/4md61f0s1_g0rzfghffqnxvr0000gn/T//ccS6xPmJ.s 			page 43


 2394 0ad4 95090000 		.4byte	0x995
 2395 0ad8 80020000 		.4byte	.LBB12
 2396 0adc 00000000 		.4byte	.Ldebug_ranges0+0
 2397 0ae0 01       		.byte	0x1
 2398 0ae1 E1       		.byte	0xe1
 2399 0ae2 2D0B0000 		.4byte	0xb2d
 2400 0ae6 27       		.uleb128 0x27
 2401 0ae7 B9090000 		.4byte	0x9b9
 2402 0aeb 2A080000 		.4byte	.LLST22
 2403 0aef 27       		.uleb128 0x27
 2404 0af0 AE090000 		.4byte	0x9ae
 2405 0af4 3D080000 		.4byte	.LLST23
 2406 0af8 27       		.uleb128 0x27
 2407 0af9 A5090000 		.4byte	0x9a5
 2408 0afd 55080000 		.4byte	.LLST24
 2409 0b01 28       		.uleb128 0x28
 2410 0b02 00000000 		.4byte	.Ldebug_ranges0+0
 2411 0b06 29       		.uleb128 0x29
 2412 0b07 C4090000 		.4byte	0x9c4
 2413 0b0b 80080000 		.4byte	.LLST25
 2414 0b0f 2A       		.uleb128 0x2a
 2415 0b10 A8020000 		.4byte	.LVL77
 2416 0b14 0E090000 		.4byte	0x90e
 2417 0b18 2B       		.uleb128 0x2b
 2418 0b19 01       		.uleb128 0x1
 2419 0b1a 53       		.byte	0x53
 2420 0b1b 01       		.uleb128 0x1
 2421 0b1c 30       		.byte	0x30
 2422 0b1d 2B       		.uleb128 0x2b
 2423 0b1e 01       		.uleb128 0x1
 2424 0b1f 52       		.byte	0x52
 2425 0b20 01       		.uleb128 0x1
 2426 0b21 3A       		.byte	0x3a
 2427 0b22 2B       		.uleb128 0x2b
 2428 0b23 01       		.uleb128 0x1
 2429 0b24 51       		.byte	0x51
 2430 0b25 04       		.uleb128 0x4
 2431 0b26 91       		.byte	0x91
 2432 0b27 A87F     		.sleb128 -88
 2433 0b29 06       		.byte	0x6
 2434 0b2a 00       		.byte	0
 2435 0b2b 00       		.byte	0
 2436 0b2c 00       		.byte	0
 2437 0b2d 26       		.uleb128 0x26
 2438 0b2e D8080000 		.4byte	0x8d8
 2439 0b32 FC020000 		.4byte	.LBB16
 2440 0b36 18000000 		.4byte	.Ldebug_ranges0+0x18
 2441 0b3a 01       		.byte	0x1
 2442 0b3b F4       		.byte	0xf4
 2443 0b3c 590B0000 		.4byte	0xb59
 2444 0b40 2C       		.uleb128 0x2c
 2445 0b41 FC080000 		.4byte	0x8fc
 2446 0b45 2C       		.uleb128 0x2c
 2447 0b46 F1080000 		.4byte	0x8f1
 2448 0b4a 2C       		.uleb128 0x2c
 2449 0b4b E8080000 		.4byte	0x8e8
 2450 0b4f 2D       		.uleb128 0x2d
ARM GAS  /var/folders/m4/4md61f0s1_g0rzfghffqnxvr0000gn/T//ccS6xPmJ.s 			page 44


 2451 0b50 06030000 		.4byte	.LVL92
 2452 0b54 0E090000 		.4byte	0x90e
 2453 0b58 00       		.byte	0
 2454 0b59 2E       		.uleb128 0x2e
 2455 0b5a D8080000 		.4byte	0x8d8
 2456 0b5e 5E030000 		.4byte	.LBB20
 2457 0b62 04000000 		.4byte	.LBE20-.LBB20
 2458 0b66 01       		.byte	0x1
 2459 0b67 D8       		.byte	0xd8
 2460 0b68 880B0000 		.4byte	0xb88
 2461 0b6c 27       		.uleb128 0x27
 2462 0b6d FC080000 		.4byte	0x8fc
 2463 0b71 C4080000 		.4byte	.LLST26
 2464 0b75 27       		.uleb128 0x27
 2465 0b76 F1080000 		.4byte	0x8f1
 2466 0b7a D8080000 		.4byte	.LLST27
 2467 0b7e 27       		.uleb128 0x27
 2468 0b7f E8080000 		.4byte	0x8e8
 2469 0b83 EB080000 		.4byte	.LLST28
 2470 0b87 00       		.byte	0
 2471 0b88 2F       		.uleb128 0x2f
 2472 0b89 3C000000 		.4byte	.LVL20
 2473 0b8d 980B0000 		.4byte	0xb98
 2474 0b91 2B       		.uleb128 0x2b
 2475 0b92 01       		.uleb128 0x1
 2476 0b93 50       		.byte	0x50
 2477 0b94 02       		.uleb128 0x2
 2478 0b95 7A       		.byte	0x7a
 2479 0b96 00       		.sleb128 0
 2480 0b97 00       		.byte	0
 2481 0b98 2F       		.uleb128 0x2f
 2482 0b99 28020000 		.4byte	.LVL65
 2483 0b9d A80B0000 		.4byte	0xba8
 2484 0ba1 2B       		.uleb128 0x2b
 2485 0ba2 01       		.uleb128 0x1
 2486 0ba3 50       		.byte	0x50
 2487 0ba4 02       		.uleb128 0x2
 2488 0ba5 7A       		.byte	0x7a
 2489 0ba6 00       		.sleb128 0
 2490 0ba7 00       		.byte	0
 2491 0ba8 2F       		.uleb128 0x2f
 2492 0ba9 50020000 		.4byte	.LVL68
 2493 0bad BE0B0000 		.4byte	0xbbe
 2494 0bb1 2B       		.uleb128 0x2b
 2495 0bb2 01       		.uleb128 0x1
 2496 0bb3 51       		.byte	0x51
 2497 0bb4 02       		.uleb128 0x2
 2498 0bb5 79       		.byte	0x79
 2499 0bb6 00       		.sleb128 0
 2500 0bb7 2B       		.uleb128 0x2b
 2501 0bb8 01       		.uleb128 0x1
 2502 0bb9 50       		.byte	0x50
 2503 0bba 02       		.uleb128 0x2
 2504 0bbb 7A       		.byte	0x7a
 2505 0bbc 00       		.sleb128 0
 2506 0bbd 00       		.byte	0
 2507 0bbe 2F       		.uleb128 0x2f
ARM GAS  /var/folders/m4/4md61f0s1_g0rzfghffqnxvr0000gn/T//ccS6xPmJ.s 			page 45


 2508 0bbf 3A030000 		.4byte	.LVL100
 2509 0bc3 D40B0000 		.4byte	0xbd4
 2510 0bc7 2B       		.uleb128 0x2b
 2511 0bc8 01       		.uleb128 0x1
 2512 0bc9 51       		.byte	0x51
 2513 0bca 02       		.uleb128 0x2
 2514 0bcb 79       		.byte	0x79
 2515 0bcc 00       		.sleb128 0
 2516 0bcd 2B       		.uleb128 0x2b
 2517 0bce 01       		.uleb128 0x1
 2518 0bcf 50       		.byte	0x50
 2519 0bd0 02       		.uleb128 0x2
 2520 0bd1 7A       		.byte	0x7a
 2521 0bd2 00       		.sleb128 0
 2522 0bd3 00       		.byte	0
 2523 0bd4 30       		.uleb128 0x30
 2524 0bd5 B0030000 		.4byte	.LVL118
 2525 0bd9 2B       		.uleb128 0x2b
 2526 0bda 01       		.uleb128 0x1
 2527 0bdb 50       		.byte	0x50
 2528 0bdc 02       		.uleb128 0x2
 2529 0bdd 7A       		.byte	0x7a
 2530 0bde 00       		.sleb128 0
 2531 0bdf 00       		.byte	0
 2532 0be0 00       		.byte	0
 2533 0be1 09       		.uleb128 0x9
 2534 0be2 04       		.byte	0x4
 2535 0be3 01080000 		.4byte	0x801
 2536 0be7 15       		.uleb128 0x15
 2537 0be8 EE060000 		.4byte	0x6ee
 2538 0bec F70B0000 		.4byte	0xbf7
 2539 0bf0 16       		.uleb128 0x16
 2540 0bf1 78040000 		.4byte	0x478
 2541 0bf5 16       		.byte	0x16
 2542 0bf6 00       		.byte	0
 2543 0bf7 31       		.uleb128 0x31
 2544 0bf8 0E070000 		.4byte	.LASF131
 2545 0bfc 01       		.byte	0x1
 2546 0bfd 2E01     		.2byte	0x12e
 2547 0bff 2C000000 		.4byte	0x2c
 2548 0c03 00000000 		.4byte	.LFB272
 2549 0c07 1C000000 		.4byte	.LFE272-.LFB272
 2550 0c0b 01       		.uleb128 0x1
 2551 0c0c 9C       		.byte	0x9c
 2552 0c0d 6C0C0000 		.4byte	0xc6c
 2553 0c11 32       		.uleb128 0x32
 2554 0c12 63687000 		.ascii	"chp\000"
 2555 0c16 01       		.byte	0x1
 2556 0c17 2E01     		.2byte	0x12e
 2557 0c19 E10B0000 		.4byte	0xbe1
 2558 0c1d FE080000 		.4byte	.LLST29
 2559 0c21 33       		.uleb128 0x33
 2560 0c22 666D7400 		.ascii	"fmt\000"
 2561 0c26 01       		.byte	0x1
 2562 0c27 2E01     		.2byte	0x12e
 2563 0c29 E3060000 		.4byte	0x6e3
 2564 0c2d 02       		.uleb128 0x2
ARM GAS  /var/folders/m4/4md61f0s1_g0rzfghffqnxvr0000gn/T//ccS6xPmJ.s 			page 46


 2565 0c2e 91       		.byte	0x91
 2566 0c2f 74       		.sleb128 -12
 2567 0c30 34       		.uleb128 0x34
 2568 0c31 35       		.uleb128 0x35
 2569 0c32 617000   		.ascii	"ap\000"
 2570 0c35 01       		.byte	0x1
 2571 0c36 2F01     		.2byte	0x12f
 2572 0c38 35080000 		.4byte	0x835
 2573 0c3c 02       		.uleb128 0x2
 2574 0c3d 91       		.byte	0x91
 2575 0c3e 6C       		.sleb128 -20
 2576 0c3f 36       		.uleb128 0x36
 2577 0c40 9F000000 		.4byte	.LASF132
 2578 0c44 01       		.byte	0x1
 2579 0c45 3001     		.2byte	0x130
 2580 0c47 2C000000 		.4byte	0x2c
 2581 0c4b 01       		.uleb128 0x1
 2582 0c4c 50       		.byte	0x50
 2583 0c4d 2A       		.uleb128 0x2a
 2584 0c4e 12000000 		.4byte	.LVL133
 2585 0c52 CE090000 		.4byte	0x9ce
 2586 0c56 2B       		.uleb128 0x2b
 2587 0c57 01       		.uleb128 0x1
 2588 0c58 52       		.byte	0x52
 2589 0c59 02       		.uleb128 0x2
 2590 0c5a 91       		.byte	0x91
 2591 0c5b 60       		.sleb128 -32
 2592 0c5c 2B       		.uleb128 0x2b
 2593 0c5d 01       		.uleb128 0x1
 2594 0c5e 51       		.byte	0x51
 2595 0c5f 03       		.uleb128 0x3
 2596 0c60 91       		.byte	0x91
 2597 0c61 5C       		.sleb128 -36
 2598 0c62 06       		.byte	0x6
 2599 0c63 2B       		.uleb128 0x2b
 2600 0c64 01       		.uleb128 0x1
 2601 0c65 50       		.byte	0x50
 2602 0c66 03       		.uleb128 0x3
 2603 0c67 F3       		.byte	0xf3
 2604 0c68 01       		.uleb128 0x1
 2605 0c69 50       		.byte	0x50
 2606 0c6a 00       		.byte	0
 2607 0c6b 00       		.byte	0
 2608 0c6c 31       		.uleb128 0x31
 2609 0c6d EC050000 		.4byte	.LASF133
 2610 0c71 01       		.byte	0x1
 2611 0c72 5501     		.2byte	0x155
 2612 0c74 2C000000 		.4byte	0x2c
 2613 0c78 00000000 		.4byte	.LFB273
 2614 0c7c 5E000000 		.4byte	.LFE273-.LFB273
 2615 0c80 01       		.uleb128 0x1
 2616 0c81 9C       		.byte	0x9c
 2617 0c82 8C0D0000 		.4byte	0xd8c
 2618 0c86 32       		.uleb128 0x32
 2619 0c87 73747200 		.ascii	"str\000"
 2620 0c8b 01       		.byte	0x1
 2621 0c8c 5501     		.2byte	0x155
ARM GAS  /var/folders/m4/4md61f0s1_g0rzfghffqnxvr0000gn/T//ccS6xPmJ.s 			page 47


 2622 0c8e 08090000 		.4byte	0x908
 2623 0c92 1F090000 		.4byte	.LLST30
 2624 0c96 37       		.uleb128 0x37
 2625 0c97 DB060000 		.4byte	.LASF118
 2626 0c9b 01       		.byte	0x1
 2627 0c9c 5501     		.2byte	0x155
 2628 0c9e 3A000000 		.4byte	0x3a
 2629 0ca2 6F090000 		.4byte	.LLST31
 2630 0ca6 33       		.uleb128 0x33
 2631 0ca7 666D7400 		.ascii	"fmt\000"
 2632 0cab 01       		.byte	0x1
 2633 0cac 5501     		.2byte	0x155
 2634 0cae E3060000 		.4byte	0x6e3
 2635 0cb2 02       		.uleb128 0x2
 2636 0cb3 91       		.byte	0x91
 2637 0cb4 78       		.sleb128 -8
 2638 0cb5 34       		.uleb128 0x34
 2639 0cb6 35       		.uleb128 0x35
 2640 0cb7 617000   		.ascii	"ap\000"
 2641 0cba 01       		.byte	0x1
 2642 0cbb 5601     		.2byte	0x156
 2643 0cbd 35080000 		.4byte	0x835
 2644 0cc1 02       		.uleb128 0x2
 2645 0cc2 91       		.byte	0x91
 2646 0cc3 50       		.sleb128 -48
 2647 0cc4 35       		.uleb128 0x35
 2648 0cc5 6D7300   		.ascii	"ms\000"
 2649 0cc8 01       		.byte	0x1
 2650 0cc9 5701     		.2byte	0x157
 2651 0ccb CD080000 		.4byte	0x8cd
 2652 0ccf 02       		.uleb128 0x2
 2653 0cd0 91       		.byte	0x91
 2654 0cd1 54       		.sleb128 -44
 2655 0cd2 38       		.uleb128 0x38
 2656 0cd3 63687000 		.ascii	"chp\000"
 2657 0cd7 01       		.byte	0x1
 2658 0cd8 5801     		.2byte	0x158
 2659 0cda E10B0000 		.4byte	0xbe1
 2660 0cde BF090000 		.4byte	.LLST32
 2661 0ce2 39       		.uleb128 0x39
 2662 0ce3 7C000000 		.4byte	.LASF134
 2663 0ce7 01       		.byte	0x1
 2664 0ce8 5901     		.2byte	0x159
 2665 0cea 3A000000 		.4byte	0x3a
 2666 0cee 110A0000 		.4byte	.LLST33
 2667 0cf2 39       		.uleb128 0x39
 2668 0cf3 75000000 		.4byte	.LASF135
 2669 0cf7 01       		.byte	0x1
 2670 0cf8 5A01     		.2byte	0x15a
 2671 0cfa 2C000000 		.4byte	0x2c
 2672 0cfe 670A0000 		.4byte	.LLST34
 2673 0d02 3A       		.uleb128 0x3a
 2674 0d03 18000000 		.4byte	.LVL139
 2675 0d07 CE0D0000 		.4byte	0xdce
 2676 0d0b 270D0000 		.4byte	0xd27
 2677 0d0f 2B       		.uleb128 0x2b
 2678 0d10 01       		.uleb128 0x1
ARM GAS  /var/folders/m4/4md61f0s1_g0rzfghffqnxvr0000gn/T//ccS6xPmJ.s 			page 48


 2679 0d11 53       		.byte	0x53
 2680 0d12 01       		.uleb128 0x1
 2681 0d13 30       		.byte	0x30
 2682 0d14 2B       		.uleb128 0x2b
 2683 0d15 01       		.uleb128 0x1
 2684 0d16 52       		.byte	0x52
 2685 0d17 02       		.uleb128 0x2
 2686 0d18 74       		.byte	0x74
 2687 0d19 7F       		.sleb128 -1
 2688 0d1a 2B       		.uleb128 0x2b
 2689 0d1b 01       		.uleb128 0x1
 2690 0d1c 51       		.byte	0x51
 2691 0d1d 02       		.uleb128 0x2
 2692 0d1e 75       		.byte	0x75
 2693 0d1f 00       		.sleb128 0
 2694 0d20 2B       		.uleb128 0x2b
 2695 0d21 01       		.uleb128 0x1
 2696 0d22 50       		.byte	0x50
 2697 0d23 02       		.uleb128 0x2
 2698 0d24 91       		.byte	0x91
 2699 0d25 44       		.sleb128 -60
 2700 0d26 00       		.byte	0
 2701 0d27 3A       		.uleb128 0x3a
 2702 0d28 26000000 		.4byte	.LVL141
 2703 0d2c CE090000 		.4byte	0x9ce
 2704 0d30 480D0000 		.4byte	0xd48
 2705 0d34 2B       		.uleb128 0x2b
 2706 0d35 01       		.uleb128 0x1
 2707 0d36 52       		.byte	0x52
 2708 0d37 02       		.uleb128 0x2
 2709 0d38 91       		.byte	0x91
 2710 0d39 6C       		.sleb128 -20
 2711 0d3a 2B       		.uleb128 0x2b
 2712 0d3b 01       		.uleb128 0x1
 2713 0d3c 51       		.byte	0x51
 2714 0d3d 03       		.uleb128 0x3
 2715 0d3e 91       		.byte	0x91
 2716 0d3f 68       		.sleb128 -24
 2717 0d40 06       		.byte	0x6
 2718 0d41 2B       		.uleb128 0x2b
 2719 0d42 01       		.uleb128 0x1
 2720 0d43 50       		.byte	0x50
 2721 0d44 02       		.uleb128 0x2
 2722 0d45 91       		.byte	0x91
 2723 0d46 44       		.sleb128 -60
 2724 0d47 00       		.byte	0
 2725 0d48 3A       		.uleb128 0x3a
 2726 0d49 46000000 		.4byte	.LVL146
 2727 0d4d CE0D0000 		.4byte	0xdce
 2728 0d51 6E0D0000 		.4byte	0xd6e
 2729 0d55 2B       		.uleb128 0x2b
 2730 0d56 01       		.uleb128 0x1
 2731 0d57 53       		.byte	0x53
 2732 0d58 02       		.uleb128 0x2
 2733 0d59 74       		.byte	0x74
 2734 0d5a 00       		.sleb128 0
 2735 0d5b 2B       		.uleb128 0x2b
ARM GAS  /var/folders/m4/4md61f0s1_g0rzfghffqnxvr0000gn/T//ccS6xPmJ.s 			page 49


 2736 0d5c 01       		.uleb128 0x1
 2737 0d5d 52       		.byte	0x52
 2738 0d5e 02       		.uleb128 0x2
 2739 0d5f 74       		.byte	0x74
 2740 0d60 00       		.sleb128 0
 2741 0d61 2B       		.uleb128 0x2b
 2742 0d62 01       		.uleb128 0x1
 2743 0d63 51       		.byte	0x51
 2744 0d64 02       		.uleb128 0x2
 2745 0d65 75       		.byte	0x75
 2746 0d66 00       		.sleb128 0
 2747 0d67 2B       		.uleb128 0x2b
 2748 0d68 01       		.uleb128 0x1
 2749 0d69 50       		.byte	0x50
 2750 0d6a 02       		.uleb128 0x2
 2751 0d6b 91       		.byte	0x91
 2752 0d6c 44       		.sleb128 -60
 2753 0d6d 00       		.byte	0
 2754 0d6e 2A       		.uleb128 0x2a
 2755 0d6f 54000000 		.4byte	.LVL148
 2756 0d73 CE090000 		.4byte	0x9ce
 2757 0d77 2B       		.uleb128 0x2b
 2758 0d78 01       		.uleb128 0x1
 2759 0d79 52       		.byte	0x52
 2760 0d7a 02       		.uleb128 0x2
 2761 0d7b 91       		.byte	0x91
 2762 0d7c 6C       		.sleb128 -20
 2763 0d7d 2B       		.uleb128 0x2b
 2764 0d7e 01       		.uleb128 0x1
 2765 0d7f 51       		.byte	0x51
 2766 0d80 03       		.uleb128 0x3
 2767 0d81 91       		.byte	0x91
 2768 0d82 68       		.sleb128 -24
 2769 0d83 06       		.byte	0x6
 2770 0d84 2B       		.uleb128 0x2b
 2771 0d85 01       		.uleb128 0x1
 2772 0d86 50       		.byte	0x50
 2773 0d87 02       		.uleb128 0x2
 2774 0d88 91       		.byte	0x91
 2775 0d89 44       		.sleb128 -60
 2776 0d8a 00       		.byte	0
 2777 0d8b 00       		.byte	0
 2778 0d8c 15       		.uleb128 0x15
 2779 0d8d 7E000000 		.4byte	0x7e
 2780 0d91 9C0D0000 		.4byte	0xd9c
 2781 0d95 16       		.uleb128 0x16
 2782 0d96 78040000 		.4byte	0x478
 2783 0d9a 08       		.byte	0x8
 2784 0d9b 00       		.byte	0
 2785 0d9c 24       		.uleb128 0x24
 2786 0d9d 27050000 		.4byte	.LASF136
 2787 0da1 01       		.byte	0x1
 2788 0da2 4C       		.byte	0x4c
 2789 0da3 AD0D0000 		.4byte	0xdad
 2790 0da7 05       		.uleb128 0x5
 2791 0da8 03       		.byte	0x3
 2792 0da9 00000000 		.4byte	pow10
ARM GAS  /var/folders/m4/4md61f0s1_g0rzfghffqnxvr0000gn/T//ccS6xPmJ.s 			page 50


 2793 0dad 13       		.uleb128 0x13
 2794 0dae 8C0D0000 		.4byte	0xd8c
 2795 0db2 3B       		.uleb128 0x3b
 2796 0db3 D9000000 		.4byte	.LASF137
 2797 0db7 11       		.byte	0x11
 2798 0db8 FA06     		.2byte	0x6fa
 2799 0dba BE0D0000 		.4byte	0xdbe
 2800 0dbe 14       		.uleb128 0x14
 2801 0dbf BB000000 		.4byte	0xbb
 2802 0dc3 3C       		.uleb128 0x3c
 2803 0dc4 636800   		.ascii	"ch\000"
 2804 0dc7 07       		.byte	0x7
 2805 0dc8 0902     		.2byte	0x209
 2806 0dca 11040000 		.4byte	0x411
 2807 0dce 3D       		.uleb128 0x3d
 2808 0dcf AC020000 		.4byte	.LASF143
 2809 0dd3 10       		.byte	0x10
 2810 0dd4 57       		.byte	0x57
 2811 0dd5 EE0D0000 		.4byte	0xdee
 2812 0dd9 0C       		.uleb128 0xc
 2813 0dda EE0D0000 		.4byte	0xdee
 2814 0dde 0C       		.uleb128 0xc
 2815 0ddf 26070000 		.4byte	0x726
 2816 0de3 0C       		.uleb128 0xc
 2817 0de4 3A000000 		.4byte	0x3a
 2818 0de8 0C       		.uleb128 0xc
 2819 0de9 3A000000 		.4byte	0x3a
 2820 0ded 00       		.byte	0
 2821 0dee 09       		.uleb128 0x9
 2822 0def 04       		.byte	0x4
 2823 0df0 CD080000 		.4byte	0x8cd
 2824 0df4 00       		.byte	0
 2825              		.section	.debug_abbrev,"",%progbits
 2826              	.Ldebug_abbrev0:
 2827 0000 01       		.uleb128 0x1
 2828 0001 11       		.uleb128 0x11
 2829 0002 01       		.byte	0x1
 2830 0003 25       		.uleb128 0x25
 2831 0004 0E       		.uleb128 0xe
 2832 0005 13       		.uleb128 0x13
 2833 0006 0B       		.uleb128 0xb
 2834 0007 03       		.uleb128 0x3
 2835 0008 0E       		.uleb128 0xe
 2836 0009 1B       		.uleb128 0x1b
 2837 000a 0E       		.uleb128 0xe
 2838 000b 55       		.uleb128 0x55
 2839 000c 17       		.uleb128 0x17
 2840 000d 11       		.uleb128 0x11
 2841 000e 01       		.uleb128 0x1
 2842 000f 10       		.uleb128 0x10
 2843 0010 17       		.uleb128 0x17
 2844 0011 00       		.byte	0
 2845 0012 00       		.byte	0
 2846 0013 02       		.uleb128 0x2
 2847 0014 24       		.uleb128 0x24
 2848 0015 00       		.byte	0
 2849 0016 0B       		.uleb128 0xb
ARM GAS  /var/folders/m4/4md61f0s1_g0rzfghffqnxvr0000gn/T//ccS6xPmJ.s 			page 51


 2850 0017 0B       		.uleb128 0xb
 2851 0018 3E       		.uleb128 0x3e
 2852 0019 0B       		.uleb128 0xb
 2853 001a 03       		.uleb128 0x3
 2854 001b 0E       		.uleb128 0xe
 2855 001c 00       		.byte	0
 2856 001d 00       		.byte	0
 2857 001e 03       		.uleb128 0x3
 2858 001f 24       		.uleb128 0x24
 2859 0020 00       		.byte	0
 2860 0021 0B       		.uleb128 0xb
 2861 0022 0B       		.uleb128 0xb
 2862 0023 3E       		.uleb128 0x3e
 2863 0024 0B       		.uleb128 0xb
 2864 0025 03       		.uleb128 0x3
 2865 0026 08       		.uleb128 0x8
 2866 0027 00       		.byte	0
 2867 0028 00       		.byte	0
 2868 0029 04       		.uleb128 0x4
 2869 002a 16       		.uleb128 0x16
 2870 002b 00       		.byte	0
 2871 002c 03       		.uleb128 0x3
 2872 002d 0E       		.uleb128 0xe
 2873 002e 3A       		.uleb128 0x3a
 2874 002f 0B       		.uleb128 0xb
 2875 0030 3B       		.uleb128 0x3b
 2876 0031 0B       		.uleb128 0xb
 2877 0032 49       		.uleb128 0x49
 2878 0033 13       		.uleb128 0x13
 2879 0034 00       		.byte	0
 2880 0035 00       		.byte	0
 2881 0036 05       		.uleb128 0x5
 2882 0037 13       		.uleb128 0x13
 2883 0038 01       		.byte	0x1
 2884 0039 03       		.uleb128 0x3
 2885 003a 0E       		.uleb128 0xe
 2886 003b 0B       		.uleb128 0xb
 2887 003c 0B       		.uleb128 0xb
 2888 003d 3A       		.uleb128 0x3a
 2889 003e 0B       		.uleb128 0xb
 2890 003f 3B       		.uleb128 0x3b
 2891 0040 0B       		.uleb128 0xb
 2892 0041 01       		.uleb128 0x1
 2893 0042 13       		.uleb128 0x13
 2894 0043 00       		.byte	0
 2895 0044 00       		.byte	0
 2896 0045 06       		.uleb128 0x6
 2897 0046 0D       		.uleb128 0xd
 2898 0047 00       		.byte	0
 2899 0048 03       		.uleb128 0x3
 2900 0049 0E       		.uleb128 0xe
 2901 004a 3A       		.uleb128 0x3a
 2902 004b 0B       		.uleb128 0xb
 2903 004c 3B       		.uleb128 0x3b
 2904 004d 0B       		.uleb128 0xb
 2905 004e 49       		.uleb128 0x49
 2906 004f 13       		.uleb128 0x13
ARM GAS  /var/folders/m4/4md61f0s1_g0rzfghffqnxvr0000gn/T//ccS6xPmJ.s 			page 52


 2907 0050 38       		.uleb128 0x38
 2908 0051 0B       		.uleb128 0xb
 2909 0052 00       		.byte	0
 2910 0053 00       		.byte	0
 2911 0054 07       		.uleb128 0x7
 2912 0055 0D       		.uleb128 0xd
 2913 0056 00       		.byte	0
 2914 0057 03       		.uleb128 0x3
 2915 0058 08       		.uleb128 0x8
 2916 0059 3A       		.uleb128 0x3a
 2917 005a 0B       		.uleb128 0xb
 2918 005b 3B       		.uleb128 0x3b
 2919 005c 05       		.uleb128 0x5
 2920 005d 49       		.uleb128 0x49
 2921 005e 13       		.uleb128 0x13
 2922 005f 38       		.uleb128 0x38
 2923 0060 0B       		.uleb128 0xb
 2924 0061 00       		.byte	0
 2925 0062 00       		.byte	0
 2926 0063 08       		.uleb128 0x8
 2927 0064 0D       		.uleb128 0xd
 2928 0065 00       		.byte	0
 2929 0066 03       		.uleb128 0x3
 2930 0067 0E       		.uleb128 0xe
 2931 0068 3A       		.uleb128 0x3a
 2932 0069 0B       		.uleb128 0xb
 2933 006a 3B       		.uleb128 0x3b
 2934 006b 05       		.uleb128 0x5
 2935 006c 49       		.uleb128 0x49
 2936 006d 13       		.uleb128 0x13
 2937 006e 38       		.uleb128 0x38
 2938 006f 0B       		.uleb128 0xb
 2939 0070 00       		.byte	0
 2940 0071 00       		.byte	0
 2941 0072 09       		.uleb128 0x9
 2942 0073 0F       		.uleb128 0xf
 2943 0074 00       		.byte	0
 2944 0075 0B       		.uleb128 0xb
 2945 0076 0B       		.uleb128 0xb
 2946 0077 49       		.uleb128 0x49
 2947 0078 13       		.uleb128 0x13
 2948 0079 00       		.byte	0
 2949 007a 00       		.byte	0
 2950 007b 0A       		.uleb128 0xa
 2951 007c 13       		.uleb128 0x13
 2952 007d 01       		.byte	0x1
 2953 007e 03       		.uleb128 0x3
 2954 007f 0E       		.uleb128 0xe
 2955 0080 0B       		.uleb128 0xb
 2956 0081 0B       		.uleb128 0xb
 2957 0082 3A       		.uleb128 0x3a
 2958 0083 0B       		.uleb128 0xb
 2959 0084 3B       		.uleb128 0x3b
 2960 0085 05       		.uleb128 0x5
 2961 0086 01       		.uleb128 0x1
 2962 0087 13       		.uleb128 0x13
 2963 0088 00       		.byte	0
ARM GAS  /var/folders/m4/4md61f0s1_g0rzfghffqnxvr0000gn/T//ccS6xPmJ.s 			page 53


 2964 0089 00       		.byte	0
 2965 008a 0B       		.uleb128 0xb
 2966 008b 15       		.uleb128 0x15
 2967 008c 01       		.byte	0x1
 2968 008d 27       		.uleb128 0x27
 2969 008e 19       		.uleb128 0x19
 2970 008f 01       		.uleb128 0x1
 2971 0090 13       		.uleb128 0x13
 2972 0091 00       		.byte	0
 2973 0092 00       		.byte	0
 2974 0093 0C       		.uleb128 0xc
 2975 0094 05       		.uleb128 0x5
 2976 0095 00       		.byte	0
 2977 0096 49       		.uleb128 0x49
 2978 0097 13       		.uleb128 0x13
 2979 0098 00       		.byte	0
 2980 0099 00       		.byte	0
 2981 009a 0D       		.uleb128 0xd
 2982 009b 0F       		.uleb128 0xf
 2983 009c 00       		.byte	0
 2984 009d 0B       		.uleb128 0xb
 2985 009e 0B       		.uleb128 0xb
 2986 009f 00       		.byte	0
 2987 00a0 00       		.byte	0
 2988 00a1 0E       		.uleb128 0xe
 2989 00a2 13       		.uleb128 0x13
 2990 00a3 01       		.byte	0x1
 2991 00a4 03       		.uleb128 0x3
 2992 00a5 0E       		.uleb128 0xe
 2993 00a6 0B       		.uleb128 0xb
 2994 00a7 05       		.uleb128 0x5
 2995 00a8 3A       		.uleb128 0x3a
 2996 00a9 0B       		.uleb128 0xb
 2997 00aa 3B       		.uleb128 0x3b
 2998 00ab 05       		.uleb128 0x5
 2999 00ac 01       		.uleb128 0x1
 3000 00ad 13       		.uleb128 0x13
 3001 00ae 00       		.byte	0
 3002 00af 00       		.byte	0
 3003 00b0 0F       		.uleb128 0xf
 3004 00b1 0D       		.uleb128 0xd
 3005 00b2 00       		.byte	0
 3006 00b3 03       		.uleb128 0x3
 3007 00b4 08       		.uleb128 0x8
 3008 00b5 3A       		.uleb128 0x3a
 3009 00b6 0B       		.uleb128 0xb
 3010 00b7 3B       		.uleb128 0x3b
 3011 00b8 0B       		.uleb128 0xb
 3012 00b9 49       		.uleb128 0x49
 3013 00ba 13       		.uleb128 0x13
 3014 00bb 38       		.uleb128 0x38
 3015 00bc 0B       		.uleb128 0xb
 3016 00bd 00       		.byte	0
 3017 00be 00       		.byte	0
 3018 00bf 10       		.uleb128 0x10
 3019 00c0 13       		.uleb128 0x13
 3020 00c1 01       		.byte	0x1
ARM GAS  /var/folders/m4/4md61f0s1_g0rzfghffqnxvr0000gn/T//ccS6xPmJ.s 			page 54


 3021 00c2 0B       		.uleb128 0xb
 3022 00c3 0B       		.uleb128 0xb
 3023 00c4 3A       		.uleb128 0x3a
 3024 00c5 0B       		.uleb128 0xb
 3025 00c6 3B       		.uleb128 0x3b
 3026 00c7 0B       		.uleb128 0xb
 3027 00c8 01       		.uleb128 0x1
 3028 00c9 13       		.uleb128 0x13
 3029 00ca 00       		.byte	0
 3030 00cb 00       		.byte	0
 3031 00cc 11       		.uleb128 0x11
 3032 00cd 17       		.uleb128 0x17
 3033 00ce 01       		.byte	0x1
 3034 00cf 0B       		.uleb128 0xb
 3035 00d0 0B       		.uleb128 0xb
 3036 00d1 3A       		.uleb128 0x3a
 3037 00d2 0B       		.uleb128 0xb
 3038 00d3 3B       		.uleb128 0x3b
 3039 00d4 0B       		.uleb128 0xb
 3040 00d5 01       		.uleb128 0x1
 3041 00d6 13       		.uleb128 0x13
 3042 00d7 00       		.byte	0
 3043 00d8 00       		.byte	0
 3044 00d9 12       		.uleb128 0x12
 3045 00da 0D       		.uleb128 0xd
 3046 00db 00       		.byte	0
 3047 00dc 03       		.uleb128 0x3
 3048 00dd 0E       		.uleb128 0xe
 3049 00de 3A       		.uleb128 0x3a
 3050 00df 0B       		.uleb128 0xb
 3051 00e0 3B       		.uleb128 0x3b
 3052 00e1 05       		.uleb128 0x5
 3053 00e2 49       		.uleb128 0x49
 3054 00e3 13       		.uleb128 0x13
 3055 00e4 00       		.byte	0
 3056 00e5 00       		.byte	0
 3057 00e6 13       		.uleb128 0x13
 3058 00e7 26       		.uleb128 0x26
 3059 00e8 00       		.byte	0
 3060 00e9 49       		.uleb128 0x49
 3061 00ea 13       		.uleb128 0x13
 3062 00eb 00       		.byte	0
 3063 00ec 00       		.byte	0
 3064 00ed 14       		.uleb128 0x14
 3065 00ee 35       		.uleb128 0x35
 3066 00ef 00       		.byte	0
 3067 00f0 49       		.uleb128 0x49
 3068 00f1 13       		.uleb128 0x13
 3069 00f2 00       		.byte	0
 3070 00f3 00       		.byte	0
 3071 00f4 15       		.uleb128 0x15
 3072 00f5 01       		.uleb128 0x1
 3073 00f6 01       		.byte	0x1
 3074 00f7 49       		.uleb128 0x49
 3075 00f8 13       		.uleb128 0x13
 3076 00f9 01       		.uleb128 0x1
 3077 00fa 13       		.uleb128 0x13
ARM GAS  /var/folders/m4/4md61f0s1_g0rzfghffqnxvr0000gn/T//ccS6xPmJ.s 			page 55


 3078 00fb 00       		.byte	0
 3079 00fc 00       		.byte	0
 3080 00fd 16       		.uleb128 0x16
 3081 00fe 21       		.uleb128 0x21
 3082 00ff 00       		.byte	0
 3083 0100 49       		.uleb128 0x49
 3084 0101 13       		.uleb128 0x13
 3085 0102 2F       		.uleb128 0x2f
 3086 0103 0B       		.uleb128 0xb
 3087 0104 00       		.byte	0
 3088 0105 00       		.byte	0
 3089 0106 17       		.uleb128 0x17
 3090 0107 15       		.uleb128 0x15
 3091 0108 01       		.byte	0x1
 3092 0109 27       		.uleb128 0x27
 3093 010a 19       		.uleb128 0x19
 3094 010b 49       		.uleb128 0x49
 3095 010c 13       		.uleb128 0x13
 3096 010d 01       		.uleb128 0x1
 3097 010e 13       		.uleb128 0x13
 3098 010f 00       		.byte	0
 3099 0110 00       		.byte	0
 3100 0111 18       		.uleb128 0x18
 3101 0112 0D       		.uleb128 0xd
 3102 0113 00       		.byte	0
 3103 0114 03       		.uleb128 0x3
 3104 0115 0E       		.uleb128 0xe
 3105 0116 49       		.uleb128 0x49
 3106 0117 13       		.uleb128 0x13
 3107 0118 38       		.uleb128 0x38
 3108 0119 0B       		.uleb128 0xb
 3109 011a 34       		.uleb128 0x34
 3110 011b 19       		.uleb128 0x19
 3111 011c 00       		.byte	0
 3112 011d 00       		.byte	0
 3113 011e 19       		.uleb128 0x19
 3114 011f 2E       		.uleb128 0x2e
 3115 0120 01       		.byte	0x1
 3116 0121 03       		.uleb128 0x3
 3117 0122 0E       		.uleb128 0xe
 3118 0123 3A       		.uleb128 0x3a
 3119 0124 0B       		.uleb128 0xb
 3120 0125 3B       		.uleb128 0x3b
 3121 0126 0B       		.uleb128 0xb
 3122 0127 27       		.uleb128 0x27
 3123 0128 19       		.uleb128 0x19
 3124 0129 49       		.uleb128 0x49
 3125 012a 13       		.uleb128 0x13
 3126 012b 20       		.uleb128 0x20
 3127 012c 0B       		.uleb128 0xb
 3128 012d 01       		.uleb128 0x1
 3129 012e 13       		.uleb128 0x13
 3130 012f 00       		.byte	0
 3131 0130 00       		.byte	0
 3132 0131 1A       		.uleb128 0x1a
 3133 0132 05       		.uleb128 0x5
 3134 0133 00       		.byte	0
ARM GAS  /var/folders/m4/4md61f0s1_g0rzfghffqnxvr0000gn/T//ccS6xPmJ.s 			page 56


 3135 0134 03       		.uleb128 0x3
 3136 0135 08       		.uleb128 0x8
 3137 0136 3A       		.uleb128 0x3a
 3138 0137 0B       		.uleb128 0xb
 3139 0138 3B       		.uleb128 0x3b
 3140 0139 0B       		.uleb128 0xb
 3141 013a 49       		.uleb128 0x49
 3142 013b 13       		.uleb128 0x13
 3143 013c 00       		.byte	0
 3144 013d 00       		.byte	0
 3145 013e 1B       		.uleb128 0x1b
 3146 013f 05       		.uleb128 0x5
 3147 0140 00       		.byte	0
 3148 0141 03       		.uleb128 0x3
 3149 0142 0E       		.uleb128 0xe
 3150 0143 3A       		.uleb128 0x3a
 3151 0144 0B       		.uleb128 0xb
 3152 0145 3B       		.uleb128 0x3b
 3153 0146 0B       		.uleb128 0xb
 3154 0147 49       		.uleb128 0x49
 3155 0148 13       		.uleb128 0x13
 3156 0149 00       		.byte	0
 3157 014a 00       		.byte	0
 3158 014b 1C       		.uleb128 0x1c
 3159 014c 2E       		.uleb128 0x2e
 3160 014d 01       		.byte	0x1
 3161 014e 03       		.uleb128 0x3
 3162 014f 0E       		.uleb128 0xe
 3163 0150 3A       		.uleb128 0x3a
 3164 0151 0B       		.uleb128 0xb
 3165 0152 3B       		.uleb128 0x3b
 3166 0153 0B       		.uleb128 0xb
 3167 0154 27       		.uleb128 0x27
 3168 0155 19       		.uleb128 0x19
 3169 0156 49       		.uleb128 0x49
 3170 0157 13       		.uleb128 0x13
 3171 0158 11       		.uleb128 0x11
 3172 0159 01       		.uleb128 0x1
 3173 015a 12       		.uleb128 0x12
 3174 015b 06       		.uleb128 0x6
 3175 015c 40       		.uleb128 0x40
 3176 015d 18       		.uleb128 0x18
 3177 015e 9742     		.uleb128 0x2117
 3178 0160 19       		.uleb128 0x19
 3179 0161 01       		.uleb128 0x1
 3180 0162 13       		.uleb128 0x13
 3181 0163 00       		.byte	0
 3182 0164 00       		.byte	0
 3183 0165 1D       		.uleb128 0x1d
 3184 0166 05       		.uleb128 0x5
 3185 0167 00       		.byte	0
 3186 0168 03       		.uleb128 0x3
 3187 0169 08       		.uleb128 0x8
 3188 016a 3A       		.uleb128 0x3a
 3189 016b 0B       		.uleb128 0xb
 3190 016c 3B       		.uleb128 0x3b
 3191 016d 0B       		.uleb128 0xb
ARM GAS  /var/folders/m4/4md61f0s1_g0rzfghffqnxvr0000gn/T//ccS6xPmJ.s 			page 57


 3192 016e 49       		.uleb128 0x49
 3193 016f 13       		.uleb128 0x13
 3194 0170 02       		.uleb128 0x2
 3195 0171 17       		.uleb128 0x17
 3196 0172 00       		.byte	0
 3197 0173 00       		.byte	0
 3198 0174 1E       		.uleb128 0x1e
 3199 0175 05       		.uleb128 0x5
 3200 0176 00       		.byte	0
 3201 0177 03       		.uleb128 0x3
 3202 0178 0E       		.uleb128 0xe
 3203 0179 3A       		.uleb128 0x3a
 3204 017a 0B       		.uleb128 0xb
 3205 017b 3B       		.uleb128 0x3b
 3206 017c 0B       		.uleb128 0xb
 3207 017d 49       		.uleb128 0x49
 3208 017e 13       		.uleb128 0x13
 3209 017f 02       		.uleb128 0x2
 3210 0180 18       		.uleb128 0x18
 3211 0181 00       		.byte	0
 3212 0182 00       		.byte	0
 3213 0183 1F       		.uleb128 0x1f
 3214 0184 05       		.uleb128 0x5
 3215 0185 00       		.byte	0
 3216 0186 03       		.uleb128 0x3
 3217 0187 0E       		.uleb128 0xe
 3218 0188 3A       		.uleb128 0x3a
 3219 0189 0B       		.uleb128 0xb
 3220 018a 3B       		.uleb128 0x3b
 3221 018b 0B       		.uleb128 0xb
 3222 018c 49       		.uleb128 0x49
 3223 018d 13       		.uleb128 0x13
 3224 018e 02       		.uleb128 0x2
 3225 018f 17       		.uleb128 0x17
 3226 0190 00       		.byte	0
 3227 0191 00       		.byte	0
 3228 0192 20       		.uleb128 0x20
 3229 0193 34       		.uleb128 0x34
 3230 0194 00       		.byte	0
 3231 0195 03       		.uleb128 0x3
 3232 0196 08       		.uleb128 0x8
 3233 0197 3A       		.uleb128 0x3a
 3234 0198 0B       		.uleb128 0xb
 3235 0199 3B       		.uleb128 0x3b
 3236 019a 0B       		.uleb128 0xb
 3237 019b 49       		.uleb128 0x49
 3238 019c 13       		.uleb128 0x13
 3239 019d 02       		.uleb128 0x2
 3240 019e 17       		.uleb128 0x17
 3241 019f 00       		.byte	0
 3242 01a0 00       		.byte	0
 3243 01a1 21       		.uleb128 0x21
 3244 01a2 34       		.uleb128 0x34
 3245 01a3 00       		.byte	0
 3246 01a4 03       		.uleb128 0x3
 3247 01a5 08       		.uleb128 0x8
 3248 01a6 3A       		.uleb128 0x3a
ARM GAS  /var/folders/m4/4md61f0s1_g0rzfghffqnxvr0000gn/T//ccS6xPmJ.s 			page 58


 3249 01a7 0B       		.uleb128 0xb
 3250 01a8 3B       		.uleb128 0x3b
 3251 01a9 0B       		.uleb128 0xb
 3252 01aa 49       		.uleb128 0x49
 3253 01ab 13       		.uleb128 0x13
 3254 01ac 00       		.byte	0
 3255 01ad 00       		.byte	0
 3256 01ae 22       		.uleb128 0x22
 3257 01af 2E       		.uleb128 0x2e
 3258 01b0 01       		.byte	0x1
 3259 01b1 3F       		.uleb128 0x3f
 3260 01b2 19       		.uleb128 0x19
 3261 01b3 03       		.uleb128 0x3
 3262 01b4 0E       		.uleb128 0xe
 3263 01b5 3A       		.uleb128 0x3a
 3264 01b6 0B       		.uleb128 0xb
 3265 01b7 3B       		.uleb128 0x3b
 3266 01b8 0B       		.uleb128 0xb
 3267 01b9 27       		.uleb128 0x27
 3268 01ba 19       		.uleb128 0x19
 3269 01bb 49       		.uleb128 0x49
 3270 01bc 13       		.uleb128 0x13
 3271 01bd 11       		.uleb128 0x11
 3272 01be 01       		.uleb128 0x1
 3273 01bf 12       		.uleb128 0x12
 3274 01c0 06       		.uleb128 0x6
 3275 01c1 40       		.uleb128 0x40
 3276 01c2 18       		.uleb128 0x18
 3277 01c3 9642     		.uleb128 0x2116
 3278 01c5 19       		.uleb128 0x19
 3279 01c6 01       		.uleb128 0x1
 3280 01c7 13       		.uleb128 0x13
 3281 01c8 00       		.byte	0
 3282 01c9 00       		.byte	0
 3283 01ca 23       		.uleb128 0x23
 3284 01cb 34       		.uleb128 0x34
 3285 01cc 00       		.byte	0
 3286 01cd 03       		.uleb128 0x3
 3287 01ce 0E       		.uleb128 0xe
 3288 01cf 3A       		.uleb128 0x3a
 3289 01d0 0B       		.uleb128 0xb
 3290 01d1 3B       		.uleb128 0x3b
 3291 01d2 0B       		.uleb128 0xb
 3292 01d3 49       		.uleb128 0x49
 3293 01d4 13       		.uleb128 0x13
 3294 01d5 02       		.uleb128 0x2
 3295 01d6 17       		.uleb128 0x17
 3296 01d7 00       		.byte	0
 3297 01d8 00       		.byte	0
 3298 01d9 24       		.uleb128 0x24
 3299 01da 34       		.uleb128 0x34
 3300 01db 00       		.byte	0
 3301 01dc 03       		.uleb128 0x3
 3302 01dd 0E       		.uleb128 0xe
 3303 01de 3A       		.uleb128 0x3a
 3304 01df 0B       		.uleb128 0xb
 3305 01e0 3B       		.uleb128 0x3b
ARM GAS  /var/folders/m4/4md61f0s1_g0rzfghffqnxvr0000gn/T//ccS6xPmJ.s 			page 59


 3306 01e1 0B       		.uleb128 0xb
 3307 01e2 49       		.uleb128 0x49
 3308 01e3 13       		.uleb128 0x13
 3309 01e4 02       		.uleb128 0x2
 3310 01e5 18       		.uleb128 0x18
 3311 01e6 00       		.byte	0
 3312 01e7 00       		.byte	0
 3313 01e8 25       		.uleb128 0x25
 3314 01e9 0A       		.uleb128 0xa
 3315 01ea 00       		.byte	0
 3316 01eb 03       		.uleb128 0x3
 3317 01ec 0E       		.uleb128 0xe
 3318 01ed 3A       		.uleb128 0x3a
 3319 01ee 0B       		.uleb128 0xb
 3320 01ef 3B       		.uleb128 0x3b
 3321 01f0 0B       		.uleb128 0xb
 3322 01f1 11       		.uleb128 0x11
 3323 01f2 01       		.uleb128 0x1
 3324 01f3 00       		.byte	0
 3325 01f4 00       		.byte	0
 3326 01f5 26       		.uleb128 0x26
 3327 01f6 1D       		.uleb128 0x1d
 3328 01f7 01       		.byte	0x1
 3329 01f8 31       		.uleb128 0x31
 3330 01f9 13       		.uleb128 0x13
 3331 01fa 52       		.uleb128 0x52
 3332 01fb 01       		.uleb128 0x1
 3333 01fc 55       		.uleb128 0x55
 3334 01fd 17       		.uleb128 0x17
 3335 01fe 58       		.uleb128 0x58
 3336 01ff 0B       		.uleb128 0xb
 3337 0200 59       		.uleb128 0x59
 3338 0201 0B       		.uleb128 0xb
 3339 0202 01       		.uleb128 0x1
 3340 0203 13       		.uleb128 0x13
 3341 0204 00       		.byte	0
 3342 0205 00       		.byte	0
 3343 0206 27       		.uleb128 0x27
 3344 0207 05       		.uleb128 0x5
 3345 0208 00       		.byte	0
 3346 0209 31       		.uleb128 0x31
 3347 020a 13       		.uleb128 0x13
 3348 020b 02       		.uleb128 0x2
 3349 020c 17       		.uleb128 0x17
 3350 020d 00       		.byte	0
 3351 020e 00       		.byte	0
 3352 020f 28       		.uleb128 0x28
 3353 0210 0B       		.uleb128 0xb
 3354 0211 01       		.byte	0x1
 3355 0212 55       		.uleb128 0x55
 3356 0213 17       		.uleb128 0x17
 3357 0214 00       		.byte	0
 3358 0215 00       		.byte	0
 3359 0216 29       		.uleb128 0x29
 3360 0217 34       		.uleb128 0x34
 3361 0218 00       		.byte	0
 3362 0219 31       		.uleb128 0x31
ARM GAS  /var/folders/m4/4md61f0s1_g0rzfghffqnxvr0000gn/T//ccS6xPmJ.s 			page 60


 3363 021a 13       		.uleb128 0x13
 3364 021b 02       		.uleb128 0x2
 3365 021c 17       		.uleb128 0x17
 3366 021d 00       		.byte	0
 3367 021e 00       		.byte	0
 3368 021f 2A       		.uleb128 0x2a
 3369 0220 898201   		.uleb128 0x4109
 3370 0223 01       		.byte	0x1
 3371 0224 11       		.uleb128 0x11
 3372 0225 01       		.uleb128 0x1
 3373 0226 31       		.uleb128 0x31
 3374 0227 13       		.uleb128 0x13
 3375 0228 00       		.byte	0
 3376 0229 00       		.byte	0
 3377 022a 2B       		.uleb128 0x2b
 3378 022b 8A8201   		.uleb128 0x410a
 3379 022e 00       		.byte	0
 3380 022f 02       		.uleb128 0x2
 3381 0230 18       		.uleb128 0x18
 3382 0231 9142     		.uleb128 0x2111
 3383 0233 18       		.uleb128 0x18
 3384 0234 00       		.byte	0
 3385 0235 00       		.byte	0
 3386 0236 2C       		.uleb128 0x2c
 3387 0237 05       		.uleb128 0x5
 3388 0238 00       		.byte	0
 3389 0239 31       		.uleb128 0x31
 3390 023a 13       		.uleb128 0x13
 3391 023b 00       		.byte	0
 3392 023c 00       		.byte	0
 3393 023d 2D       		.uleb128 0x2d
 3394 023e 898201   		.uleb128 0x4109
 3395 0241 00       		.byte	0
 3396 0242 11       		.uleb128 0x11
 3397 0243 01       		.uleb128 0x1
 3398 0244 31       		.uleb128 0x31
 3399 0245 13       		.uleb128 0x13
 3400 0246 00       		.byte	0
 3401 0247 00       		.byte	0
 3402 0248 2E       		.uleb128 0x2e
 3403 0249 1D       		.uleb128 0x1d
 3404 024a 01       		.byte	0x1
 3405 024b 31       		.uleb128 0x31
 3406 024c 13       		.uleb128 0x13
 3407 024d 11       		.uleb128 0x11
 3408 024e 01       		.uleb128 0x1
 3409 024f 12       		.uleb128 0x12
 3410 0250 06       		.uleb128 0x6
 3411 0251 58       		.uleb128 0x58
 3412 0252 0B       		.uleb128 0xb
 3413 0253 59       		.uleb128 0x59
 3414 0254 0B       		.uleb128 0xb
 3415 0255 01       		.uleb128 0x1
 3416 0256 13       		.uleb128 0x13
 3417 0257 00       		.byte	0
 3418 0258 00       		.byte	0
 3419 0259 2F       		.uleb128 0x2f
ARM GAS  /var/folders/m4/4md61f0s1_g0rzfghffqnxvr0000gn/T//ccS6xPmJ.s 			page 61


 3420 025a 898201   		.uleb128 0x4109
 3421 025d 01       		.byte	0x1
 3422 025e 11       		.uleb128 0x11
 3423 025f 01       		.uleb128 0x1
 3424 0260 01       		.uleb128 0x1
 3425 0261 13       		.uleb128 0x13
 3426 0262 00       		.byte	0
 3427 0263 00       		.byte	0
 3428 0264 30       		.uleb128 0x30
 3429 0265 898201   		.uleb128 0x4109
 3430 0268 01       		.byte	0x1
 3431 0269 11       		.uleb128 0x11
 3432 026a 01       		.uleb128 0x1
 3433 026b 00       		.byte	0
 3434 026c 00       		.byte	0
 3435 026d 31       		.uleb128 0x31
 3436 026e 2E       		.uleb128 0x2e
 3437 026f 01       		.byte	0x1
 3438 0270 3F       		.uleb128 0x3f
 3439 0271 19       		.uleb128 0x19
 3440 0272 03       		.uleb128 0x3
 3441 0273 0E       		.uleb128 0xe
 3442 0274 3A       		.uleb128 0x3a
 3443 0275 0B       		.uleb128 0xb
 3444 0276 3B       		.uleb128 0x3b
 3445 0277 05       		.uleb128 0x5
 3446 0278 27       		.uleb128 0x27
 3447 0279 19       		.uleb128 0x19
 3448 027a 49       		.uleb128 0x49
 3449 027b 13       		.uleb128 0x13
 3450 027c 11       		.uleb128 0x11
 3451 027d 01       		.uleb128 0x1
 3452 027e 12       		.uleb128 0x12
 3453 027f 06       		.uleb128 0x6
 3454 0280 40       		.uleb128 0x40
 3455 0281 18       		.uleb128 0x18
 3456 0282 9742     		.uleb128 0x2117
 3457 0284 19       		.uleb128 0x19
 3458 0285 01       		.uleb128 0x1
 3459 0286 13       		.uleb128 0x13
 3460 0287 00       		.byte	0
 3461 0288 00       		.byte	0
 3462 0289 32       		.uleb128 0x32
 3463 028a 05       		.uleb128 0x5
 3464 028b 00       		.byte	0
 3465 028c 03       		.uleb128 0x3
 3466 028d 08       		.uleb128 0x8
 3467 028e 3A       		.uleb128 0x3a
 3468 028f 0B       		.uleb128 0xb
 3469 0290 3B       		.uleb128 0x3b
 3470 0291 05       		.uleb128 0x5
 3471 0292 49       		.uleb128 0x49
 3472 0293 13       		.uleb128 0x13
 3473 0294 02       		.uleb128 0x2
 3474 0295 17       		.uleb128 0x17
 3475 0296 00       		.byte	0
 3476 0297 00       		.byte	0
ARM GAS  /var/folders/m4/4md61f0s1_g0rzfghffqnxvr0000gn/T//ccS6xPmJ.s 			page 62


 3477 0298 33       		.uleb128 0x33
 3478 0299 05       		.uleb128 0x5
 3479 029a 00       		.byte	0
 3480 029b 03       		.uleb128 0x3
 3481 029c 08       		.uleb128 0x8
 3482 029d 3A       		.uleb128 0x3a
 3483 029e 0B       		.uleb128 0xb
 3484 029f 3B       		.uleb128 0x3b
 3485 02a0 05       		.uleb128 0x5
 3486 02a1 49       		.uleb128 0x49
 3487 02a2 13       		.uleb128 0x13
 3488 02a3 02       		.uleb128 0x2
 3489 02a4 18       		.uleb128 0x18
 3490 02a5 00       		.byte	0
 3491 02a6 00       		.byte	0
 3492 02a7 34       		.uleb128 0x34
 3493 02a8 18       		.uleb128 0x18
 3494 02a9 00       		.byte	0
 3495 02aa 00       		.byte	0
 3496 02ab 00       		.byte	0
 3497 02ac 35       		.uleb128 0x35
 3498 02ad 34       		.uleb128 0x34
 3499 02ae 00       		.byte	0
 3500 02af 03       		.uleb128 0x3
 3501 02b0 08       		.uleb128 0x8
 3502 02b1 3A       		.uleb128 0x3a
 3503 02b2 0B       		.uleb128 0xb
 3504 02b3 3B       		.uleb128 0x3b
 3505 02b4 05       		.uleb128 0x5
 3506 02b5 49       		.uleb128 0x49
 3507 02b6 13       		.uleb128 0x13
 3508 02b7 02       		.uleb128 0x2
 3509 02b8 18       		.uleb128 0x18
 3510 02b9 00       		.byte	0
 3511 02ba 00       		.byte	0
 3512 02bb 36       		.uleb128 0x36
 3513 02bc 34       		.uleb128 0x34
 3514 02bd 00       		.byte	0
 3515 02be 03       		.uleb128 0x3
 3516 02bf 0E       		.uleb128 0xe
 3517 02c0 3A       		.uleb128 0x3a
 3518 02c1 0B       		.uleb128 0xb
 3519 02c2 3B       		.uleb128 0x3b
 3520 02c3 05       		.uleb128 0x5
 3521 02c4 49       		.uleb128 0x49
 3522 02c5 13       		.uleb128 0x13
 3523 02c6 02       		.uleb128 0x2
 3524 02c7 18       		.uleb128 0x18
 3525 02c8 00       		.byte	0
 3526 02c9 00       		.byte	0
 3527 02ca 37       		.uleb128 0x37
 3528 02cb 05       		.uleb128 0x5
 3529 02cc 00       		.byte	0
 3530 02cd 03       		.uleb128 0x3
 3531 02ce 0E       		.uleb128 0xe
 3532 02cf 3A       		.uleb128 0x3a
 3533 02d0 0B       		.uleb128 0xb
ARM GAS  /var/folders/m4/4md61f0s1_g0rzfghffqnxvr0000gn/T//ccS6xPmJ.s 			page 63


 3534 02d1 3B       		.uleb128 0x3b
 3535 02d2 05       		.uleb128 0x5
 3536 02d3 49       		.uleb128 0x49
 3537 02d4 13       		.uleb128 0x13
 3538 02d5 02       		.uleb128 0x2
 3539 02d6 17       		.uleb128 0x17
 3540 02d7 00       		.byte	0
 3541 02d8 00       		.byte	0
 3542 02d9 38       		.uleb128 0x38
 3543 02da 34       		.uleb128 0x34
 3544 02db 00       		.byte	0
 3545 02dc 03       		.uleb128 0x3
 3546 02dd 08       		.uleb128 0x8
 3547 02de 3A       		.uleb128 0x3a
 3548 02df 0B       		.uleb128 0xb
 3549 02e0 3B       		.uleb128 0x3b
 3550 02e1 05       		.uleb128 0x5
 3551 02e2 49       		.uleb128 0x49
 3552 02e3 13       		.uleb128 0x13
 3553 02e4 02       		.uleb128 0x2
 3554 02e5 17       		.uleb128 0x17
 3555 02e6 00       		.byte	0
 3556 02e7 00       		.byte	0
 3557 02e8 39       		.uleb128 0x39
 3558 02e9 34       		.uleb128 0x34
 3559 02ea 00       		.byte	0
 3560 02eb 03       		.uleb128 0x3
 3561 02ec 0E       		.uleb128 0xe
 3562 02ed 3A       		.uleb128 0x3a
 3563 02ee 0B       		.uleb128 0xb
 3564 02ef 3B       		.uleb128 0x3b
 3565 02f0 05       		.uleb128 0x5
 3566 02f1 49       		.uleb128 0x49
 3567 02f2 13       		.uleb128 0x13
 3568 02f3 02       		.uleb128 0x2
 3569 02f4 17       		.uleb128 0x17
 3570 02f5 00       		.byte	0
 3571 02f6 00       		.byte	0
 3572 02f7 3A       		.uleb128 0x3a
 3573 02f8 898201   		.uleb128 0x4109
 3574 02fb 01       		.byte	0x1
 3575 02fc 11       		.uleb128 0x11
 3576 02fd 01       		.uleb128 0x1
 3577 02fe 31       		.uleb128 0x31
 3578 02ff 13       		.uleb128 0x13
 3579 0300 01       		.uleb128 0x1
 3580 0301 13       		.uleb128 0x13
 3581 0302 00       		.byte	0
 3582 0303 00       		.byte	0
 3583 0304 3B       		.uleb128 0x3b
 3584 0305 34       		.uleb128 0x34
 3585 0306 00       		.byte	0
 3586 0307 03       		.uleb128 0x3
 3587 0308 0E       		.uleb128 0xe
 3588 0309 3A       		.uleb128 0x3a
 3589 030a 0B       		.uleb128 0xb
 3590 030b 3B       		.uleb128 0x3b
ARM GAS  /var/folders/m4/4md61f0s1_g0rzfghffqnxvr0000gn/T//ccS6xPmJ.s 			page 64


 3591 030c 05       		.uleb128 0x5
 3592 030d 49       		.uleb128 0x49
 3593 030e 13       		.uleb128 0x13
 3594 030f 3F       		.uleb128 0x3f
 3595 0310 19       		.uleb128 0x19
 3596 0311 3C       		.uleb128 0x3c
 3597 0312 19       		.uleb128 0x19
 3598 0313 00       		.byte	0
 3599 0314 00       		.byte	0
 3600 0315 3C       		.uleb128 0x3c
 3601 0316 34       		.uleb128 0x34
 3602 0317 00       		.byte	0
 3603 0318 03       		.uleb128 0x3
 3604 0319 08       		.uleb128 0x8
 3605 031a 3A       		.uleb128 0x3a
 3606 031b 0B       		.uleb128 0xb
 3607 031c 3B       		.uleb128 0x3b
 3608 031d 05       		.uleb128 0x5
 3609 031e 49       		.uleb128 0x49
 3610 031f 13       		.uleb128 0x13
 3611 0320 3F       		.uleb128 0x3f
 3612 0321 19       		.uleb128 0x19
 3613 0322 3C       		.uleb128 0x3c
 3614 0323 19       		.uleb128 0x19
 3615 0324 00       		.byte	0
 3616 0325 00       		.byte	0
 3617 0326 3D       		.uleb128 0x3d
 3618 0327 2E       		.uleb128 0x2e
 3619 0328 01       		.byte	0x1
 3620 0329 3F       		.uleb128 0x3f
 3621 032a 19       		.uleb128 0x19
 3622 032b 03       		.uleb128 0x3
 3623 032c 0E       		.uleb128 0xe
 3624 032d 3A       		.uleb128 0x3a
 3625 032e 0B       		.uleb128 0xb
 3626 032f 3B       		.uleb128 0x3b
 3627 0330 0B       		.uleb128 0xb
 3628 0331 27       		.uleb128 0x27
 3629 0332 19       		.uleb128 0x19
 3630 0333 3C       		.uleb128 0x3c
 3631 0334 19       		.uleb128 0x19
 3632 0335 01       		.uleb128 0x1
 3633 0336 13       		.uleb128 0x13
 3634 0337 00       		.byte	0
 3635 0338 00       		.byte	0
 3636 0339 00       		.byte	0
 3637              		.section	.debug_loc,"",%progbits
 3638              	.Ldebug_loc0:
 3639              	.LLST0:
 3640 0000 00000000 		.4byte	.LVL0
 3641 0004 38000000 		.4byte	.LVL12
 3642 0008 0100     		.2byte	0x1
 3643 000a 50       		.byte	0x50
 3644 000b 38000000 		.4byte	.LVL12
 3645 000f 3C000000 		.4byte	.LVL13
 3646 0013 0300     		.2byte	0x3
 3647 0015 70       		.byte	0x70
ARM GAS  /var/folders/m4/4md61f0s1_g0rzfghffqnxvr0000gn/T//ccS6xPmJ.s 			page 65


 3648 0016 7F       		.sleb128 -1
 3649 0017 9F       		.byte	0x9f
 3650 0018 3C000000 		.4byte	.LVL13
 3651 001c 40000000 		.4byte	.LVL14
 3652 0020 0100     		.2byte	0x1
 3653 0022 50       		.byte	0x50
 3654 0023 40000000 		.4byte	.LVL14
 3655 0027 48000000 		.4byte	.LFE268
 3656 002b 0300     		.2byte	0x3
 3657 002d 70       		.byte	0x70
 3658 002e 7F       		.sleb128 -1
 3659 002f 9F       		.byte	0x9f
 3660 0030 00000000 		.4byte	0
 3661 0034 00000000 		.4byte	0
 3662              	.LLST1:
 3663 0038 00000000 		.4byte	.LVL0
 3664 003c 0E000000 		.4byte	.LVL2
 3665 0040 0100     		.2byte	0x1
 3666 0042 51       		.byte	0x51
 3667 0043 0E000000 		.4byte	.LVL2
 3668 0047 48000000 		.4byte	.LFE268
 3669 004b 0400     		.2byte	0x4
 3670 004d F3       		.byte	0xf3
 3671 004e 01       		.uleb128 0x1
 3672 004f 51       		.byte	0x51
 3673 0050 9F       		.byte	0x9f
 3674 0051 00000000 		.4byte	0
 3675 0055 00000000 		.4byte	0
 3676              	.LLST2:
 3677 0059 00000000 		.4byte	.LVL0
 3678 005d 0C000000 		.4byte	.LVL1
 3679 0061 0100     		.2byte	0x1
 3680 0063 53       		.byte	0x53
 3681 0064 0C000000 		.4byte	.LVL1
 3682 0068 48000000 		.4byte	.LFE268
 3683 006c 0400     		.2byte	0x4
 3684 006e F3       		.byte	0xf3
 3685 006f 01       		.uleb128 0x1
 3686 0070 53       		.byte	0x53
 3687 0071 9F       		.byte	0x9f
 3688 0072 00000000 		.4byte	0
 3689 0076 00000000 		.4byte	0
 3690              	.LLST3:
 3691 007a 16000000 		.4byte	.LVL3
 3692 007e 1A000000 		.4byte	.LVL4
 3693 0082 0100     		.2byte	0x1
 3694 0084 51       		.byte	0x51
 3695 0085 1A000000 		.4byte	.LVL4
 3696 0089 24000000 		.4byte	.LVL6
 3697 008d 0100     		.2byte	0x1
 3698 008f 54       		.byte	0x54
 3699 0090 32000000 		.4byte	.LVL10
 3700 0094 38000000 		.4byte	.LVL12
 3701 0098 0600     		.2byte	0x6
 3702 009a 77       		.byte	0x77
 3703 009b 00       		.sleb128 0
 3704 009c 75       		.byte	0x75
ARM GAS  /var/folders/m4/4md61f0s1_g0rzfghffqnxvr0000gn/T//ccS6xPmJ.s 			page 66


 3705 009d 00       		.sleb128 0
 3706 009e 1C       		.byte	0x1c
 3707 009f 9F       		.byte	0x9f
 3708 00a0 00000000 		.4byte	0
 3709 00a4 00000000 		.4byte	0
 3710              	.LLST4:
 3711 00a8 0C000000 		.4byte	.LVL1
 3712 00ac 0E000000 		.4byte	.LVL2
 3713 00b0 0100     		.2byte	0x1
 3714 00b2 57       		.byte	0x57
 3715 00b3 0E000000 		.4byte	.LVL2
 3716 00b7 22000000 		.4byte	.LVL5
 3717 00bb 0100     		.2byte	0x1
 3718 00bd 55       		.byte	0x55
 3719 00be 22000000 		.4byte	.LVL5
 3720 00c2 28000000 		.4byte	.LVL7
 3721 00c6 0300     		.2byte	0x3
 3722 00c8 75       		.byte	0x75
 3723 00c9 7F       		.sleb128 -1
 3724 00ca 9F       		.byte	0x9f
 3725 00cb 28000000 		.4byte	.LVL7
 3726 00cf 38000000 		.4byte	.LVL12
 3727 00d3 0100     		.2byte	0x1
 3728 00d5 55       		.byte	0x55
 3729 00d6 00000000 		.4byte	0
 3730 00da 00000000 		.4byte	0
 3731              	.LLST5:
 3732 00de 00000000 		.4byte	.LVL0
 3733 00e2 16000000 		.4byte	.LVL3
 3734 00e6 0100     		.2byte	0x1
 3735 00e8 51       		.byte	0x51
 3736 00e9 2E000000 		.4byte	.LVL9
 3737 00ed 48000000 		.4byte	.LFE268
 3738 00f1 0100     		.2byte	0x1
 3739 00f3 51       		.byte	0x51
 3740 00f4 00000000 		.4byte	0
 3741 00f8 00000000 		.4byte	0
 3742              	.LLST6:
 3743 00fc 0C000000 		.4byte	.LVL1
 3744 0100 2C000000 		.4byte	.LVL8
 3745 0104 0100     		.2byte	0x1
 3746 0106 53       		.byte	0x53
 3747 0107 2E000000 		.4byte	.LVL9
 3748 010b 34000000 		.4byte	.LVL11
 3749 010f 0100     		.2byte	0x1
 3750 0111 53       		.byte	0x53
 3751 0112 00000000 		.4byte	0
 3752 0116 00000000 		.4byte	0
 3753              	.LLST7:
 3754 011a 00000000 		.4byte	.LVL15
 3755 011e 20000000 		.4byte	.LVL18
 3756 0122 0100     		.2byte	0x1
 3757 0124 50       		.byte	0x50
 3758 0125 20000000 		.4byte	.LVL18
 3759 0129 08040000 		.4byte	.LFE271
 3760 012d 0100     		.2byte	0x1
 3761 012f 5A       		.byte	0x5a
ARM GAS  /var/folders/m4/4md61f0s1_g0rzfghffqnxvr0000gn/T//ccS6xPmJ.s 			page 67


 3762 0130 00000000 		.4byte	0
 3763 0134 00000000 		.4byte	0
 3764              	.LLST8:
 3765 0138 00000000 		.4byte	.LVL15
 3766 013c 20000000 		.4byte	.LVL18
 3767 0140 0100     		.2byte	0x1
 3768 0142 51       		.byte	0x51
 3769 0143 20000000 		.4byte	.LVL18
 3770 0147 24000000 		.4byte	.LVL19
 3771 014b 0100     		.2byte	0x1
 3772 014d 55       		.byte	0x55
 3773 014e 24000000 		.4byte	.LVL19
 3774 0152 3B000000 		.4byte	.LVL20-1
 3775 0156 0100     		.2byte	0x1
 3776 0158 53       		.byte	0x53
 3777 0159 3B000000 		.4byte	.LVL20-1
 3778 015d 40000000 		.4byte	.LVL21
 3779 0161 0100     		.2byte	0x1
 3780 0163 55       		.byte	0x55
 3781 0164 40000000 		.4byte	.LVL21
 3782 0168 5E000000 		.4byte	.LVL25
 3783 016c 0100     		.2byte	0x1
 3784 016e 53       		.byte	0x53
 3785 016f 5E000000 		.4byte	.LVL25
 3786 0173 66000000 		.4byte	.LVL26
 3787 0177 0300     		.2byte	0x3
 3788 0179 73       		.byte	0x73
 3789 017a 01       		.sleb128 1
 3790 017b 9F       		.byte	0x9f
 3791 017c 6E000000 		.4byte	.LVL27
 3792 0180 76000000 		.4byte	.LVL29
 3793 0184 0100     		.2byte	0x1
 3794 0186 53       		.byte	0x53
 3795 0187 76000000 		.4byte	.LVL29
 3796 018b 82000000 		.4byte	.LVL33
 3797 018f 0100     		.2byte	0x1
 3798 0191 51       		.byte	0x51
 3799 0192 82000000 		.4byte	.LVL33
 3800 0196 8C000000 		.4byte	.LVL34
 3801 019a 0300     		.2byte	0x3
 3802 019c 71       		.byte	0x71
 3803 019d 7F       		.sleb128 -1
 3804 019e 9F       		.byte	0x9f
 3805 019f 8C000000 		.4byte	.LVL34
 3806 01a3 A6000000 		.4byte	.LVL37
 3807 01a7 0100     		.2byte	0x1
 3808 01a9 51       		.byte	0x51
 3809 01aa A6000000 		.4byte	.LVL37
 3810 01ae 1E010000 		.4byte	.LVL38
 3811 01b2 0100     		.2byte	0x1
 3812 01b4 55       		.byte	0x55
 3813 01b5 1E010000 		.4byte	.LVL38
 3814 01b9 26010000 		.4byte	.LVL41
 3815 01bd 0300     		.2byte	0x3
 3816 01bf 75       		.byte	0x75
 3817 01c0 7F       		.sleb128 -1
 3818 01c1 9F       		.byte	0x9f
ARM GAS  /var/folders/m4/4md61f0s1_g0rzfghffqnxvr0000gn/T//ccS6xPmJ.s 			page 68


 3819 01c2 26010000 		.4byte	.LVL41
 3820 01c6 2A010000 		.4byte	.LVL42
 3821 01ca 0100     		.2byte	0x1
 3822 01cc 55       		.byte	0x55
 3823 01cd 2A010000 		.4byte	.LVL42
 3824 01d1 3C010000 		.4byte	.LVL43
 3825 01d5 0300     		.2byte	0x3
 3826 01d7 75       		.byte	0x75
 3827 01d8 7F       		.sleb128 -1
 3828 01d9 9F       		.byte	0x9f
 3829 01da 3C010000 		.4byte	.LVL43
 3830 01de 08040000 		.4byte	.LFE271
 3831 01e2 0100     		.2byte	0x1
 3832 01e4 55       		.byte	0x55
 3833 01e5 00000000 		.4byte	0
 3834 01e9 00000000 		.4byte	0
 3835              	.LLST9:
 3836 01ed 00000000 		.4byte	.LVL15
 3837 01f1 12000000 		.4byte	.LVL17
 3838 01f5 0100     		.2byte	0x1
 3839 01f7 52       		.byte	0x52
 3840 01f8 00000000 		.4byte	0
 3841 01fc 00000000 		.4byte	0
 3842              	.LLST10:
 3843 0200 50000000 		.4byte	.LVL23
 3844 0204 DC010000 		.4byte	.LVL49
 3845 0208 0400     		.2byte	0x4
 3846 020a 91       		.byte	0x91
 3847 020b B87F     		.sleb128 -72
 3848 020d 9F       		.byte	0x9f
 3849 020e DC010000 		.4byte	.LVL49
 3850 0212 EA010000 		.4byte	.LVL51
 3851 0216 0100     		.2byte	0x1
 3852 0218 54       		.byte	0x54
 3853 0219 EA010000 		.4byte	.LVL51
 3854 021d F0010000 		.4byte	.LVL53
 3855 0221 0300     		.2byte	0x3
 3856 0223 70       		.byte	0x70
 3857 0224 7F       		.sleb128 -1
 3858 0225 9F       		.byte	0x9f
 3859 0226 F0010000 		.4byte	.LVL53
 3860 022a F4010000 		.4byte	.LVL54
 3861 022e 0100     		.2byte	0x1
 3862 0230 50       		.byte	0x50
 3863 0231 F4010000 		.4byte	.LVL54
 3864 0235 FA010000 		.4byte	.LVL56
 3865 0239 0300     		.2byte	0x3
 3866 023b 70       		.byte	0x70
 3867 023c 7F       		.sleb128 -1
 3868 023d 9F       		.byte	0x9f
 3869 023e 5C020000 		.4byte	.LVL70
 3870 0242 80020000 		.4byte	.LVL73
 3871 0246 0400     		.2byte	0x4
 3872 0248 91       		.byte	0x91
 3873 0249 B87F     		.sleb128 -72
 3874 024b 9F       		.byte	0x9f
 3875 024c 80020000 		.4byte	.LVL73
ARM GAS  /var/folders/m4/4md61f0s1_g0rzfghffqnxvr0000gn/T//ccS6xPmJ.s 			page 69


 3876 0250 A7020000 		.4byte	.LVL77-1
 3877 0254 0100     		.2byte	0x1
 3878 0256 50       		.byte	0x50
 3879 0257 F8020000 		.4byte	.LVL86
 3880 025b FE020000 		.4byte	.LVL89
 3881 025f 0400     		.2byte	0x4
 3882 0261 91       		.byte	0x91
 3883 0262 B87F     		.sleb128 -72
 3884 0264 9F       		.byte	0x9f
 3885 0265 FE020000 		.4byte	.LVL89
 3886 0269 02030000 		.4byte	.LVL91
 3887 026d 0100     		.2byte	0x1
 3888 026f 50       		.byte	0x50
 3889 0270 52030000 		.4byte	.LVL103
 3890 0274 5E030000 		.4byte	.LVL105
 3891 0278 0400     		.2byte	0x4
 3892 027a 91       		.byte	0x91
 3893 027b B87F     		.sleb128 -72
 3894 027d 9F       		.byte	0x9f
 3895 027e 5E030000 		.4byte	.LVL105
 3896 0282 62030000 		.4byte	.LVL106
 3897 0286 0100     		.2byte	0x1
 3898 0288 50       		.byte	0x50
 3899 0289 62030000 		.4byte	.LVL106
 3900 028d 66030000 		.4byte	.LVL107
 3901 0291 0400     		.2byte	0x4
 3902 0293 91       		.byte	0x91
 3903 0294 B87F     		.sleb128 -72
 3904 0296 9F       		.byte	0x9f
 3905 0297 66030000 		.4byte	.LVL107
 3906 029b 7E030000 		.4byte	.LVL110
 3907 029f 0400     		.2byte	0x4
 3908 02a1 91       		.byte	0x91
 3909 02a2 B97F     		.sleb128 -71
 3910 02a4 9F       		.byte	0x9f
 3911 02a5 7E030000 		.4byte	.LVL110
 3912 02a9 84030000 		.4byte	.LVL112
 3913 02ad 0400     		.2byte	0x4
 3914 02af 91       		.byte	0x91
 3915 02b0 B87F     		.sleb128 -72
 3916 02b2 9F       		.byte	0x9f
 3917 02b3 84030000 		.4byte	.LVL112
 3918 02b7 94030000 		.4byte	.LVL115
 3919 02bb 0400     		.2byte	0x4
 3920 02bd 91       		.byte	0x91
 3921 02be B97F     		.sleb128 -71
 3922 02c0 9F       		.byte	0x9f
 3923 02c1 BE030000 		.4byte	.LVL122
 3924 02c5 C8030000 		.4byte	.LVL123
 3925 02c9 0100     		.2byte	0x1
 3926 02cb 54       		.byte	0x54
 3927 02cc D8030000 		.4byte	.LVL125
 3928 02d0 E4030000 		.4byte	.LVL127
 3929 02d4 0400     		.2byte	0x4
 3930 02d6 91       		.byte	0x91
 3931 02d7 B97F     		.sleb128 -71
 3932 02d9 9F       		.byte	0x9f
ARM GAS  /var/folders/m4/4md61f0s1_g0rzfghffqnxvr0000gn/T//ccS6xPmJ.s 			page 70


 3933 02da E4030000 		.4byte	.LVL127
 3934 02de E6030000 		.4byte	.LVL128
 3935 02e2 0100     		.2byte	0x1
 3936 02e4 50       		.byte	0x50
 3937 02e5 E6030000 		.4byte	.LVL128
 3938 02e9 F4030000 		.4byte	.LVL130
 3939 02ed 0400     		.2byte	0x4
 3940 02ef 91       		.byte	0x91
 3941 02f0 B97F     		.sleb128 -71
 3942 02f2 9F       		.byte	0x9f
 3943 02f3 F4030000 		.4byte	.LVL130
 3944 02f7 F6030000 		.4byte	.LVL131
 3945 02fb 0100     		.2byte	0x1
 3946 02fd 50       		.byte	0x50
 3947 02fe 00000000 		.4byte	0
 3948 0302 00000000 		.4byte	0
 3949              	.LLST11:
 3950 0306 50000000 		.4byte	.LVL23
 3951 030a D2010000 		.4byte	.LVL48
 3952 030e 0400     		.2byte	0x4
 3953 0310 91       		.byte	0x91
 3954 0311 B87F     		.sleb128 -72
 3955 0313 9F       		.byte	0x9f
 3956 0314 D2010000 		.4byte	.LVL48
 3957 0318 20020000 		.4byte	.LVL63
 3958 031c 0100     		.2byte	0x1
 3959 031e 54       		.byte	0x54
 3960 031f 20020000 		.4byte	.LVL63
 3961 0323 28020000 		.4byte	.LVL65
 3962 0327 0300     		.2byte	0x3
 3963 0329 74       		.byte	0x74
 3964 032a 7F       		.sleb128 -1
 3965 032b 9F       		.byte	0x9f
 3966 032c 28020000 		.4byte	.LVL65
 3967 0330 44020000 		.4byte	.LVL67
 3968 0334 0100     		.2byte	0x1
 3969 0336 54       		.byte	0x54
 3970 0337 5C020000 		.4byte	.LVL70
 3971 033b FE020000 		.4byte	.LVL89
 3972 033f 0400     		.2byte	0x4
 3973 0341 91       		.byte	0x91
 3974 0342 B87F     		.sleb128 -72
 3975 0344 9F       		.byte	0x9f
 3976 0345 FE020000 		.4byte	.LVL89
 3977 0349 00030000 		.4byte	.LVL90
 3978 034d 0100     		.2byte	0x1
 3979 034f 50       		.byte	0x50
 3980 0350 00030000 		.4byte	.LVL90
 3981 0354 08030000 		.4byte	.LVL93
 3982 0358 0400     		.2byte	0x4
 3983 035a 91       		.byte	0x91
 3984 035b B87F     		.sleb128 -72
 3985 035d 9F       		.byte	0x9f
 3986 035e 08030000 		.4byte	.LVL93
 3987 0362 10030000 		.4byte	.LVL94
 3988 0366 0100     		.2byte	0x1
 3989 0368 53       		.byte	0x53
ARM GAS  /var/folders/m4/4md61f0s1_g0rzfghffqnxvr0000gn/T//ccS6xPmJ.s 			page 71


 3990 0369 10030000 		.4byte	.LVL94
 3991 036d 2E030000 		.4byte	.LVL99
 3992 0371 0100     		.2byte	0x1
 3993 0373 54       		.byte	0x54
 3994 0374 4C030000 		.4byte	.LVL102
 3995 0378 52030000 		.4byte	.LVL103
 3996 037c 0100     		.2byte	0x1
 3997 037e 54       		.byte	0x54
 3998 037f 52030000 		.4byte	.LVL103
 3999 0383 7C030000 		.4byte	.LVL109
 4000 0387 0400     		.2byte	0x4
 4001 0389 91       		.byte	0x91
 4002 038a B87F     		.sleb128 -72
 4003 038c 9F       		.byte	0x9f
 4004 038d 7C030000 		.4byte	.LVL109
 4005 0391 7E030000 		.4byte	.LVL110
 4006 0395 0100     		.2byte	0x1
 4007 0397 54       		.byte	0x54
 4008 0398 7E030000 		.4byte	.LVL110
 4009 039c 92030000 		.4byte	.LVL114
 4010 03a0 0400     		.2byte	0x4
 4011 03a2 91       		.byte	0x91
 4012 03a3 B87F     		.sleb128 -72
 4013 03a5 9F       		.byte	0x9f
 4014 03a6 92030000 		.4byte	.LVL114
 4015 03aa D8030000 		.4byte	.LVL125
 4016 03ae 0100     		.2byte	0x1
 4017 03b0 54       		.byte	0x54
 4018 03b1 D8030000 		.4byte	.LVL125
 4019 03b5 F6030000 		.4byte	.LVL131
 4020 03b9 0400     		.2byte	0x4
 4021 03bb 91       		.byte	0x91
 4022 03bc B87F     		.sleb128 -72
 4023 03be 9F       		.byte	0x9f
 4024 03bf F6030000 		.4byte	.LVL131
 4025 03c3 08040000 		.4byte	.LFE271
 4026 03c7 0100     		.2byte	0x1
 4027 03c9 54       		.byte	0x54
 4028 03ca 00000000 		.4byte	0
 4029 03ce 00000000 		.4byte	0
 4030              	.LLST12:
 4031 03d2 24000000 		.4byte	.LVL19
 4032 03d6 3B000000 		.4byte	.LVL20-1
 4033 03da 0100     		.2byte	0x1
 4034 03dc 51       		.byte	0x51
 4035 03dd 40000000 		.4byte	.LVL21
 4036 03e1 70000000 		.4byte	.LVL28
 4037 03e5 0100     		.2byte	0x1
 4038 03e7 51       		.byte	0x51
 4039 03e8 76000000 		.4byte	.LVL29
 4040 03ec 78000000 		.4byte	.LVL30
 4041 03f0 0100     		.2byte	0x1
 4042 03f2 52       		.byte	0x52
 4043 03f3 78000000 		.4byte	.LVL30
 4044 03f7 82000000 		.4byte	.LVL33
 4045 03fb 0100     		.2byte	0x1
 4046 03fd 53       		.byte	0x53
ARM GAS  /var/folders/m4/4md61f0s1_g0rzfghffqnxvr0000gn/T//ccS6xPmJ.s 			page 72


 4047 03fe 8C000000 		.4byte	.LVL34
 4048 0402 20010000 		.4byte	.LVL39
 4049 0406 0100     		.2byte	0x1
 4050 0408 52       		.byte	0x52
 4051 0409 20010000 		.4byte	.LVL39
 4052 040d 26010000 		.4byte	.LVL41
 4053 0411 0100     		.2byte	0x1
 4054 0413 53       		.byte	0x53
 4055 0414 2A010000 		.4byte	.LVL42
 4056 0418 50010000 		.4byte	.LVL45
 4057 041c 0100     		.2byte	0x1
 4058 041e 52       		.byte	0x52
 4059 041f 52010000 		.4byte	.LVL46
 4060 0423 C6010000 		.4byte	.LVL47
 4061 0427 0100     		.2byte	0x1
 4062 0429 53       		.byte	0x53
 4063 042a F8020000 		.4byte	.LVL86
 4064 042e FA020000 		.4byte	.LVL87
 4065 0432 0200     		.2byte	0x2
 4066 0434 38       		.byte	0x38
 4067 0435 9F       		.byte	0x9f
 4068 0436 62030000 		.4byte	.LVL106
 4069 043a 66030000 		.4byte	.LVL107
 4070 043e 0200     		.2byte	0x2
 4071 0440 3A       		.byte	0x3a
 4072 0441 9F       		.byte	0x9f
 4073 0442 82030000 		.4byte	.LVL111
 4074 0446 84030000 		.4byte	.LVL112
 4075 044a 0100     		.2byte	0x1
 4076 044c 53       		.byte	0x53
 4077 044d 00000000 		.4byte	0
 4078 0451 00000000 		.4byte	0
 4079              	.LLST13:
 4080 0455 5E000000 		.4byte	.LVL25
 4081 0459 6E000000 		.4byte	.LVL27
 4082 045d 0300     		.2byte	0x3
 4083 045f 08       		.byte	0x8
 4084 0460 30       		.byte	0x30
 4085 0461 9F       		.byte	0x9f
 4086 0462 6E000000 		.4byte	.LVL27
 4087 0466 C6010000 		.4byte	.LVL47
 4088 046a 0100     		.2byte	0x1
 4089 046c 59       		.byte	0x59
 4090 046d C6010000 		.4byte	.LVL47
 4091 0471 06020000 		.4byte	.LVL58
 4092 0475 0300     		.2byte	0x3
 4093 0477 08       		.byte	0x8
 4094 0478 20       		.byte	0x20
 4095 0479 9F       		.byte	0x9f
 4096 047a 06020000 		.4byte	.LVL58
 4097 047e 16020000 		.4byte	.LVL61
 4098 0482 0100     		.2byte	0x1
 4099 0484 59       		.byte	0x59
 4100 0485 5C020000 		.4byte	.LVL70
 4101 0489 1E030000 		.4byte	.LVL97
 4102 048d 0100     		.2byte	0x1
 4103 048f 59       		.byte	0x59
ARM GAS  /var/folders/m4/4md61f0s1_g0rzfghffqnxvr0000gn/T//ccS6xPmJ.s 			page 73


 4104 0490 52030000 		.4byte	.LVL103
 4105 0494 66030000 		.4byte	.LVL107
 4106 0498 0100     		.2byte	0x1
 4107 049a 59       		.byte	0x59
 4108 049b 66030000 		.4byte	.LVL107
 4109 049f 7E030000 		.4byte	.LVL110
 4110 04a3 0300     		.2byte	0x3
 4111 04a5 08       		.byte	0x8
 4112 04a6 20       		.byte	0x20
 4113 04a7 9F       		.byte	0x9f
 4114 04a8 7E030000 		.4byte	.LVL110
 4115 04ac 94030000 		.4byte	.LVL115
 4116 04b0 0100     		.2byte	0x1
 4117 04b2 59       		.byte	0x59
 4118 04b3 BE030000 		.4byte	.LVL122
 4119 04b7 D8030000 		.4byte	.LVL125
 4120 04bb 0300     		.2byte	0x3
 4121 04bd 08       		.byte	0x8
 4122 04be 20       		.byte	0x20
 4123 04bf 9F       		.byte	0x9f
 4124 04c0 D8030000 		.4byte	.LVL125
 4125 04c4 F6030000 		.4byte	.LVL131
 4126 04c8 0100     		.2byte	0x1
 4127 04ca 59       		.byte	0x59
 4128 04cb F6030000 		.4byte	.LVL131
 4129 04cf 08040000 		.4byte	.LFE271
 4130 04d3 0300     		.2byte	0x3
 4131 04d5 08       		.byte	0x8
 4132 04d6 20       		.byte	0x20
 4133 04d7 9F       		.byte	0x9f
 4134 04d8 00000000 		.4byte	0
 4135 04dc 00000000 		.4byte	0
 4136              	.LLST14:
 4137 04e0 06020000 		.4byte	.LVL58
 4138 04e4 10020000 		.4byte	.LVL60
 4139 04e8 0100     		.2byte	0x1
 4140 04ea 50       		.byte	0x50
 4141 04eb 10020000 		.4byte	.LVL60
 4142 04ef 18020000 		.4byte	.LVL62
 4143 04f3 0100     		.2byte	0x1
 4144 04f5 5B       		.byte	0x5b
 4145 04f6 18020000 		.4byte	.LVL62
 4146 04fa 24020000 		.4byte	.LVL64
 4147 04fe 0100     		.2byte	0x1
 4148 0500 56       		.byte	0x56
 4149 0501 24020000 		.4byte	.LVL64
 4150 0505 28020000 		.4byte	.LVL65
 4151 0509 0300     		.2byte	0x3
 4152 050b 76       		.byte	0x76
 4153 050c 01       		.sleb128 1
 4154 050d 9F       		.byte	0x9f
 4155 050e 28020000 		.4byte	.LVL65
 4156 0512 3A020000 		.4byte	.LVL66
 4157 0516 0100     		.2byte	0x1
 4158 0518 56       		.byte	0x56
 4159 0519 10030000 		.4byte	.LVL94
 4160 051d 1E030000 		.4byte	.LVL97
ARM GAS  /var/folders/m4/4md61f0s1_g0rzfghffqnxvr0000gn/T//ccS6xPmJ.s 			page 74


 4161 0521 0100     		.2byte	0x1
 4162 0523 50       		.byte	0x50
 4163 0524 4C030000 		.4byte	.LVL102
 4164 0528 52030000 		.4byte	.LVL103
 4165 052c 0100     		.2byte	0x1
 4166 052e 5B       		.byte	0x5b
 4167 052f 9A030000 		.4byte	.LVL116
 4168 0533 A0030000 		.4byte	.LVL117
 4169 0537 0100     		.2byte	0x1
 4170 0539 5B       		.byte	0x5b
 4171 053a B8030000 		.4byte	.LVL120
 4172 053e BC030000 		.4byte	.LVL121
 4173 0542 0100     		.2byte	0x1
 4174 0544 5B       		.byte	0x5b
 4175 0545 BC030000 		.4byte	.LVL121
 4176 0549 BE030000 		.4byte	.LVL122
 4177 054d 0300     		.2byte	0x3
 4178 054f 7B       		.byte	0x7b
 4179 0550 01       		.sleb128 1
 4180 0551 9F       		.byte	0x9f
 4181 0552 C8030000 		.4byte	.LVL123
 4182 0556 D8030000 		.4byte	.LVL125
 4183 055a 0200     		.2byte	0x2
 4184 055c 30       		.byte	0x30
 4185 055d 9F       		.byte	0x9f
 4186 055e F6030000 		.4byte	.LVL131
 4187 0562 08040000 		.4byte	.LFE271
 4188 0566 0200     		.2byte	0x2
 4189 0568 30       		.byte	0x30
 4190 0569 9F       		.byte	0x9f
 4191 056a 00000000 		.4byte	0
 4192 056e 00000000 		.4byte	0
 4193              	.LLST15:
 4194 0572 96000000 		.4byte	.LVL35
 4195 0576 9E000000 		.4byte	.LVL36
 4196 057a 0200     		.2byte	0x2
 4197 057c 30       		.byte	0x30
 4198 057d 9F       		.byte	0x9f
 4199 057e 9E000000 		.4byte	.LVL36
 4200 0582 22010000 		.4byte	.LVL40
 4201 0586 0100     		.2byte	0x1
 4202 0588 5B       		.byte	0x5b
 4203 0589 22010000 		.4byte	.LVL40
 4204 058d 26010000 		.4byte	.LVL41
 4205 0591 0500     		.2byte	0x5
 4206 0593 71       		.byte	0x71
 4207 0594 00       		.sleb128 0
 4208 0595 31       		.byte	0x31
 4209 0596 24       		.byte	0x24
 4210 0597 9F       		.byte	0x9f
 4211 0598 26010000 		.4byte	.LVL41
 4212 059c EA010000 		.4byte	.LVL51
 4213 05a0 0100     		.2byte	0x1
 4214 05a2 5B       		.byte	0x5b
 4215 05a3 EA010000 		.4byte	.LVL51
 4216 05a7 EE010000 		.4byte	.LVL52
 4217 05ab 0300     		.2byte	0x3
ARM GAS  /var/folders/m4/4md61f0s1_g0rzfghffqnxvr0000gn/T//ccS6xPmJ.s 			page 75


 4218 05ad 7B       		.byte	0x7b
 4219 05ae 7F       		.sleb128 -1
 4220 05af 9F       		.byte	0x9f
 4221 05b0 EE010000 		.4byte	.LVL52
 4222 05b4 F0010000 		.4byte	.LVL53
 4223 05b8 0100     		.2byte	0x1
 4224 05ba 5B       		.byte	0x5b
 4225 05bb F0010000 		.4byte	.LVL53
 4226 05bf F8010000 		.4byte	.LVL55
 4227 05c3 0300     		.2byte	0x3
 4228 05c5 7B       		.byte	0x7b
 4229 05c6 7F       		.sleb128 -1
 4230 05c7 9F       		.byte	0x9f
 4231 05c8 5C020000 		.4byte	.LVL70
 4232 05cc 84020000 		.4byte	.LVL74
 4233 05d0 0100     		.2byte	0x1
 4234 05d2 5B       		.byte	0x5b
 4235 05d3 84020000 		.4byte	.LVL74
 4236 05d7 92020000 		.4byte	.LVL75
 4237 05db 0300     		.2byte	0x3
 4238 05dd 7B       		.byte	0x7b
 4239 05de 01       		.sleb128 1
 4240 05df 9F       		.byte	0x9f
 4241 05e0 F8020000 		.4byte	.LVL86
 4242 05e4 02030000 		.4byte	.LVL91
 4243 05e8 0100     		.2byte	0x1
 4244 05ea 5B       		.byte	0x5b
 4245 05eb 52030000 		.4byte	.LVL103
 4246 05ef 76030000 		.4byte	.LVL108
 4247 05f3 0100     		.2byte	0x1
 4248 05f5 5B       		.byte	0x5b
 4249 05f6 7E030000 		.4byte	.LVL110
 4250 05fa 90030000 		.4byte	.LVL113
 4251 05fe 0100     		.2byte	0x1
 4252 0600 5B       		.byte	0x5b
 4253 0601 BE030000 		.4byte	.LVL122
 4254 0605 C8030000 		.4byte	.LVL123
 4255 0609 0400     		.2byte	0x4
 4256 060b 0A       		.byte	0xa
 4257 060c FF7F     		.2byte	0x7fff
 4258 060e 9F       		.byte	0x9f
 4259 060f D8030000 		.4byte	.LVL125
 4260 0613 F6030000 		.4byte	.LVL131
 4261 0617 0100     		.2byte	0x1
 4262 0619 5B       		.byte	0x5b
 4263 061a 00000000 		.4byte	0
 4264 061e 00000000 		.4byte	0
 4265              	.LLST16:
 4266 0622 6E000000 		.4byte	.LVL27
 4267 0626 76000000 		.4byte	.LVL29
 4268 062a 0200     		.2byte	0x2
 4269 062c 30       		.byte	0x30
 4270 062d 9F       		.byte	0x9f
 4271 062e 76000000 		.4byte	.LVL29
 4272 0632 FE010000 		.4byte	.LVL57
 4273 0636 0100     		.2byte	0x1
 4274 0638 58       		.byte	0x58
ARM GAS  /var/folders/m4/4md61f0s1_g0rzfghffqnxvr0000gn/T//ccS6xPmJ.s 			page 76


 4275 0639 06020000 		.4byte	.LVL58
 4276 063d 16020000 		.4byte	.LVL61
 4277 0641 0100     		.2byte	0x1
 4278 0643 58       		.byte	0x58
 4279 0644 3A020000 		.4byte	.LVL66
 4280 0648 44020000 		.4byte	.LVL67
 4281 064c 0100     		.2byte	0x1
 4282 064e 58       		.byte	0x58
 4283 064f 44020000 		.4byte	.LVL67
 4284 0653 50020000 		.4byte	.LVL68
 4285 0657 0100     		.2byte	0x1
 4286 0659 54       		.byte	0x54
 4287 065a 50020000 		.4byte	.LVL68
 4288 065e 52020000 		.4byte	.LVL69
 4289 0662 0300     		.2byte	0x3
 4290 0664 74       		.byte	0x74
 4291 0665 7F       		.sleb128 -1
 4292 0666 9F       		.byte	0x9f
 4293 0667 52020000 		.4byte	.LVL69
 4294 066b 5C020000 		.4byte	.LVL70
 4295 066f 0100     		.2byte	0x1
 4296 0671 54       		.byte	0x54
 4297 0672 5C020000 		.4byte	.LVL70
 4298 0676 22030000 		.4byte	.LVL98
 4299 067a 0100     		.2byte	0x1
 4300 067c 58       		.byte	0x58
 4301 067d 22030000 		.4byte	.LVL98
 4302 0681 2E030000 		.4byte	.LVL99
 4303 0685 0100     		.2byte	0x1
 4304 0687 56       		.byte	0x56
 4305 0688 2E030000 		.4byte	.LVL99
 4306 068c 3A030000 		.4byte	.LVL100
 4307 0690 0100     		.2byte	0x1
 4308 0692 58       		.byte	0x58
 4309 0693 3A030000 		.4byte	.LVL100
 4310 0697 3E030000 		.4byte	.LVL101
 4311 069b 0300     		.2byte	0x3
 4312 069d 78       		.byte	0x78
 4313 069e 01       		.sleb128 1
 4314 069f 9F       		.byte	0x9f
 4315 06a0 3E030000 		.4byte	.LVL101
 4316 06a4 4C030000 		.4byte	.LVL102
 4317 06a8 0100     		.2byte	0x1
 4318 06aa 58       		.byte	0x58
 4319 06ab 4C030000 		.4byte	.LVL102
 4320 06af 52030000 		.4byte	.LVL103
 4321 06b3 0200     		.2byte	0x2
 4322 06b5 30       		.byte	0x30
 4323 06b6 9F       		.byte	0x9f
 4324 06b7 52030000 		.4byte	.LVL103
 4325 06bb 94030000 		.4byte	.LVL115
 4326 06bf 0100     		.2byte	0x1
 4327 06c1 58       		.byte	0x58
 4328 06c2 94030000 		.4byte	.LVL115
 4329 06c6 BE030000 		.4byte	.LVL122
 4330 06ca 0100     		.2byte	0x1
 4331 06cc 56       		.byte	0x56
ARM GAS  /var/folders/m4/4md61f0s1_g0rzfghffqnxvr0000gn/T//ccS6xPmJ.s 			page 77


 4332 06cd BE030000 		.4byte	.LVL122
 4333 06d1 08040000 		.4byte	.LFE271
 4334 06d5 0100     		.2byte	0x1
 4335 06d7 58       		.byte	0x58
 4336 06d8 00000000 		.4byte	0
 4337 06dc 00000000 		.4byte	0
 4338              	.LLST17:
 4339 06e0 0C000000 		.4byte	.LVL16
 4340 06e4 20000000 		.4byte	.LVL18
 4341 06e8 0200     		.2byte	0x2
 4342 06ea 30       		.byte	0x30
 4343 06eb 9F       		.byte	0x9f
 4344 06ec 20000000 		.4byte	.LVL18
 4345 06f0 48000000 		.4byte	.LVL22
 4346 06f4 0200     		.2byte	0x2
 4347 06f6 7D       		.byte	0x7d
 4348 06f7 00       		.sleb128 0
 4349 06f8 48000000 		.4byte	.LVL22
 4350 06fc 50000000 		.4byte	.LVL23
 4351 0700 0300     		.2byte	0x3
 4352 0702 91       		.byte	0x91
 4353 0703 A07F     		.sleb128 -96
 4354 0705 50000000 		.4byte	.LVL23
 4355 0709 18020000 		.4byte	.LVL62
 4356 070d 0200     		.2byte	0x2
 4357 070f 7D       		.byte	0x7d
 4358 0710 00       		.sleb128 0
 4359 0711 3A020000 		.4byte	.LVL66
 4360 0715 44020000 		.4byte	.LVL67
 4361 0719 0200     		.2byte	0x2
 4362 071b 7D       		.byte	0x7d
 4363 071c 00       		.sleb128 0
 4364 071d 5C020000 		.4byte	.LVL70
 4365 0721 2E030000 		.4byte	.LVL99
 4366 0725 0200     		.2byte	0x2
 4367 0727 7D       		.byte	0x7d
 4368 0728 00       		.sleb128 0
 4369 0729 4C030000 		.4byte	.LVL102
 4370 072d 52030000 		.4byte	.LVL103
 4371 0731 0100     		.2byte	0x1
 4372 0733 53       		.byte	0x53
 4373 0734 52030000 		.4byte	.LVL103
 4374 0738 B8030000 		.4byte	.LVL120
 4375 073c 0200     		.2byte	0x2
 4376 073e 7D       		.byte	0x7d
 4377 073f 00       		.sleb128 0
 4378 0740 B8030000 		.4byte	.LVL120
 4379 0744 BE030000 		.4byte	.LVL122
 4380 0748 0100     		.2byte	0x1
 4381 074a 53       		.byte	0x53
 4382 074b BE030000 		.4byte	.LVL122
 4383 074f 08040000 		.4byte	.LFE271
 4384 0753 0200     		.2byte	0x2
 4385 0755 7D       		.byte	0x7d
 4386 0756 00       		.sleb128 0
 4387 0757 00000000 		.4byte	0
 4388 075b 00000000 		.4byte	0
ARM GAS  /var/folders/m4/4md61f0s1_g0rzfghffqnxvr0000gn/T//ccS6xPmJ.s 			page 78


 4389              	.LLST18:
 4390 075f 44010000 		.4byte	.LVL44
 4391 0763 C6010000 		.4byte	.LVL47
 4392 0767 0200     		.2byte	0x2
 4393 0769 31       		.byte	0x31
 4394 076a 9F       		.byte	0x9f
 4395 076b 82030000 		.4byte	.LVL111
 4396 076f 84030000 		.4byte	.LVL112
 4397 0773 0200     		.2byte	0x2
 4398 0775 31       		.byte	0x31
 4399 0776 9F       		.byte	0x9f
 4400 0777 00000000 		.4byte	0
 4401 077b 00000000 		.4byte	0
 4402              	.LLST19:
 4403 077f 50000000 		.4byte	.LVL23
 4404 0783 5A000000 		.4byte	.LVL24
 4405 0787 0200     		.2byte	0x2
 4406 0789 30       		.byte	0x30
 4407 078a 9F       		.byte	0x9f
 4408 078b 5A000000 		.4byte	.LVL24
 4409 078f 5E000000 		.4byte	.LVL25
 4410 0793 0200     		.2byte	0x2
 4411 0795 31       		.byte	0x31
 4412 0796 9F       		.byte	0x9f
 4413 0797 5E000000 		.4byte	.LVL25
 4414 079b 16020000 		.4byte	.LVL61
 4415 079f 0100     		.2byte	0x1
 4416 07a1 56       		.byte	0x56
 4417 07a2 5C020000 		.4byte	.LVL70
 4418 07a6 22030000 		.4byte	.LVL98
 4419 07aa 0100     		.2byte	0x1
 4420 07ac 56       		.byte	0x56
 4421 07ad 52030000 		.4byte	.LVL103
 4422 07b1 94030000 		.4byte	.LVL115
 4423 07b5 0100     		.2byte	0x1
 4424 07b7 56       		.byte	0x56
 4425 07b8 BE030000 		.4byte	.LVL122
 4426 07bc 08040000 		.4byte	.LFE271
 4427 07c0 0100     		.2byte	0x1
 4428 07c2 56       		.byte	0x56
 4429 07c3 00000000 		.4byte	0
 4430 07c7 00000000 		.4byte	0
 4431              	.LLST20:
 4432 07cb FC020000 		.4byte	.LVL88
 4433 07cf 02030000 		.4byte	.LVL91
 4434 07d3 0100     		.2byte	0x1
 4435 07d5 51       		.byte	0x51
 4436 07d6 54030000 		.4byte	.LVL104
 4437 07da 62030000 		.4byte	.LVL106
 4438 07de 0100     		.2byte	0x1
 4439 07e0 51       		.byte	0x51
 4440 07e1 D8030000 		.4byte	.LVL125
 4441 07e5 E6030000 		.4byte	.LVL128
 4442 07e9 0100     		.2byte	0x1
 4443 07eb 51       		.byte	0x51
 4444 07ec 00000000 		.4byte	0
 4445 07f0 00000000 		.4byte	0
ARM GAS  /var/folders/m4/4md61f0s1_g0rzfghffqnxvr0000gn/T//ccS6xPmJ.s 			page 79


 4446              	.LLST21:
 4447 07f4 7A020000 		.4byte	.LVL72
 4448 07f8 80020000 		.4byte	.LVL73
 4449 07fc 0100     		.2byte	0x1
 4450 07fe 50       		.byte	0x50
 4451 07ff 80020000 		.4byte	.LVL73
 4452 0803 F8020000 		.4byte	.LVL86
 4453 0807 0200     		.2byte	0x2
 4454 0809 90       		.byte	0x90
 4455 080a 50       		.uleb128 0x50
 4456 080b E6030000 		.4byte	.LVL128
 4457 080f EC030000 		.4byte	.LVL129
 4458 0813 0100     		.2byte	0x1
 4459 0815 50       		.byte	0x50
 4460 0816 EC030000 		.4byte	.LVL129
 4461 081a F6030000 		.4byte	.LVL131
 4462 081e 0200     		.2byte	0x2
 4463 0820 90       		.byte	0x90
 4464 0821 50       		.uleb128 0x50
 4465 0822 00000000 		.4byte	0
 4466 0826 00000000 		.4byte	0
 4467              	.LLST22:
 4468 082a A4020000 		.4byte	.LVL76
 4469 082e F8020000 		.4byte	.LVL86
 4470 0832 0100     		.2byte	0x1
 4471 0834 54       		.byte	0x54
 4472 0835 00000000 		.4byte	0
 4473 0839 00000000 		.4byte	0
 4474              	.LLST23:
 4475 083d 80020000 		.4byte	.LVL73
 4476 0841 F8020000 		.4byte	.LVL86
 4477 0845 0600     		.2byte	0x6
 4478 0847 F5       		.byte	0xf5
 4479 0848 50       		.uleb128 0x50
 4480 0849 33       		.uleb128 0x33
 4481 084a F7       		.byte	0xf7
 4482 084b 25       		.uleb128 0x25
 4483 084c 9F       		.byte	0x9f
 4484 084d 00000000 		.4byte	0
 4485 0851 00000000 		.4byte	0
 4486              	.LLST24:
 4487 0855 80020000 		.4byte	.LVL73
 4488 0859 A7020000 		.4byte	.LVL77-1
 4489 085d 0100     		.2byte	0x1
 4490 085f 50       		.byte	0x50
 4491 0860 A8020000 		.4byte	.LVL77
 4492 0864 B0020000 		.4byte	.LVL78
 4493 0868 0300     		.2byte	0x3
 4494 086a 70       		.byte	0x70
 4495 086b 01       		.sleb128 1
 4496 086c 9F       		.byte	0x9f
 4497 086d B0020000 		.4byte	.LVL78
 4498 0871 F8020000 		.4byte	.LVL86
 4499 0875 0100     		.2byte	0x1
 4500 0877 5B       		.byte	0x5b
 4501 0878 00000000 		.4byte	0
 4502 087c 00000000 		.4byte	0
ARM GAS  /var/folders/m4/4md61f0s1_g0rzfghffqnxvr0000gn/T//ccS6xPmJ.s 			page 80


 4503              	.LLST25:
 4504 0880 A4020000 		.4byte	.LVL76
 4505 0884 A7020000 		.4byte	.LVL77-1
 4506 0888 0100     		.2byte	0x1
 4507 088a 51       		.byte	0x51
 4508 088b A7020000 		.4byte	.LVL77-1
 4509 088f D2020000 		.4byte	.LVL82
 4510 0893 0300     		.2byte	0x3
 4511 0895 91       		.byte	0x91
 4512 0896 A87F     		.sleb128 -88
 4513 0898 D2020000 		.4byte	.LVL82
 4514 089c E4020000 		.4byte	.LVL84
 4515 08a0 0800     		.2byte	0x8
 4516 08a2 F5       		.byte	0xf5
 4517 08a3 50       		.uleb128 0x50
 4518 08a4 33       		.uleb128 0x33
 4519 08a5 F7       		.byte	0xf7
 4520 08a6 2C       		.uleb128 0x2c
 4521 08a7 F7       		.byte	0xf7
 4522 08a8 00       		.uleb128 0
 4523 08a9 9F       		.byte	0x9f
 4524 08aa E4020000 		.4byte	.LVL84
 4525 08ae E7020000 		.4byte	.LVL85-1
 4526 08b2 0800     		.2byte	0x8
 4527 08b4 F5       		.byte	0xf5
 4528 08b5 00       		.uleb128 0
 4529 08b6 25       		.uleb128 0x25
 4530 08b7 F7       		.byte	0xf7
 4531 08b8 2C       		.uleb128 0x2c
 4532 08b9 F7       		.byte	0xf7
 4533 08ba 00       		.uleb128 0
 4534 08bb 9F       		.byte	0x9f
 4535 08bc 00000000 		.4byte	0
 4536 08c0 00000000 		.4byte	0
 4537              	.LLST26:
 4538 08c4 5E030000 		.4byte	.LVL105
 4539 08c8 62030000 		.4byte	.LVL106
 4540 08cc 0200     		.2byte	0x2
 4541 08ce 3A       		.byte	0x3a
 4542 08cf 9F       		.byte	0x9f
 4543 08d0 00000000 		.4byte	0
 4544 08d4 00000000 		.4byte	0
 4545              	.LLST27:
 4546 08d8 5E030000 		.4byte	.LVL105
 4547 08dc 62030000 		.4byte	.LVL106
 4548 08e0 0100     		.2byte	0x1
 4549 08e2 51       		.byte	0x51
 4550 08e3 00000000 		.4byte	0
 4551 08e7 00000000 		.4byte	0
 4552              	.LLST28:
 4553 08eb 5E030000 		.4byte	.LVL105
 4554 08ef 62030000 		.4byte	.LVL106
 4555 08f3 0100     		.2byte	0x1
 4556 08f5 50       		.byte	0x50
 4557 08f6 00000000 		.4byte	0
 4558 08fa 00000000 		.4byte	0
 4559              	.LLST29:
ARM GAS  /var/folders/m4/4md61f0s1_g0rzfghffqnxvr0000gn/T//ccS6xPmJ.s 			page 81


 4560 08fe 00000000 		.4byte	.LVL132
 4561 0902 11000000 		.4byte	.LVL133-1
 4562 0906 0100     		.2byte	0x1
 4563 0908 50       		.byte	0x50
 4564 0909 11000000 		.4byte	.LVL133-1
 4565 090d 1C000000 		.4byte	.LFE272
 4566 0911 0400     		.2byte	0x4
 4567 0913 F3       		.byte	0xf3
 4568 0914 01       		.uleb128 0x1
 4569 0915 50       		.byte	0x50
 4570 0916 9F       		.byte	0x9f
 4571 0917 00000000 		.4byte	0
 4572 091b 00000000 		.4byte	0
 4573              	.LLST30:
 4574 091f 00000000 		.4byte	.LVL134
 4575 0923 0E000000 		.4byte	.LVL136
 4576 0927 0100     		.2byte	0x1
 4577 0929 50       		.byte	0x50
 4578 092a 0E000000 		.4byte	.LVL136
 4579 092e 36000000 		.4byte	.LVL142
 4580 0932 0100     		.2byte	0x1
 4581 0934 55       		.byte	0x55
 4582 0935 36000000 		.4byte	.LVL142
 4583 0939 3A000000 		.4byte	.LVL143
 4584 093d 0400     		.2byte	0x4
 4585 093f F3       		.byte	0xf3
 4586 0940 01       		.uleb128 0x1
 4587 0941 50       		.byte	0x50
 4588 0942 9F       		.byte	0x9f
 4589 0943 3A000000 		.4byte	.LVL143
 4590 0947 40000000 		.4byte	.LVL145
 4591 094b 0100     		.2byte	0x1
 4592 094d 50       		.byte	0x50
 4593 094e 40000000 		.4byte	.LVL145
 4594 0952 5A000000 		.4byte	.LVL149
 4595 0956 0100     		.2byte	0x1
 4596 0958 55       		.byte	0x55
 4597 0959 5A000000 		.4byte	.LVL149
 4598 095d 5E000000 		.4byte	.LFE273
 4599 0961 0400     		.2byte	0x4
 4600 0963 F3       		.byte	0xf3
 4601 0964 01       		.uleb128 0x1
 4602 0965 50       		.byte	0x50
 4603 0966 9F       		.byte	0x9f
 4604 0967 00000000 		.4byte	0
 4605 096b 00000000 		.4byte	0
 4606              	.LLST31:
 4607 096f 00000000 		.4byte	.LVL134
 4608 0973 10000000 		.4byte	.LVL137
 4609 0977 0100     		.2byte	0x1
 4610 0979 51       		.byte	0x51
 4611 097a 10000000 		.4byte	.LVL137
 4612 097e 36000000 		.4byte	.LVL142
 4613 0982 0100     		.2byte	0x1
 4614 0984 54       		.byte	0x54
 4615 0985 36000000 		.4byte	.LVL142
 4616 0989 3A000000 		.4byte	.LVL143
ARM GAS  /var/folders/m4/4md61f0s1_g0rzfghffqnxvr0000gn/T//ccS6xPmJ.s 			page 82


 4617 098d 0400     		.2byte	0x4
 4618 098f F3       		.byte	0xf3
 4619 0990 01       		.uleb128 0x1
 4620 0991 51       		.byte	0x51
 4621 0992 9F       		.byte	0x9f
 4622 0993 3A000000 		.4byte	.LVL143
 4623 0997 3C000000 		.4byte	.LVL144
 4624 099b 0100     		.2byte	0x1
 4625 099d 51       		.byte	0x51
 4626 099e 3C000000 		.4byte	.LVL144
 4627 09a2 5A000000 		.4byte	.LVL149
 4628 09a6 0100     		.2byte	0x1
 4629 09a8 54       		.byte	0x54
 4630 09a9 5A000000 		.4byte	.LVL149
 4631 09ad 5E000000 		.4byte	.LFE273
 4632 09b1 0400     		.2byte	0x4
 4633 09b3 F3       		.byte	0xf3
 4634 09b4 01       		.uleb128 0x1
 4635 09b5 51       		.byte	0x51
 4636 09b6 9F       		.byte	0x9f
 4637 09b7 00000000 		.4byte	0
 4638 09bb 00000000 		.4byte	0
 4639              	.LLST32:
 4640 09bf 18000000 		.4byte	.LVL139
 4641 09c3 1E000000 		.4byte	.LVL140
 4642 09c7 0300     		.2byte	0x3
 4643 09c9 91       		.byte	0x91
 4644 09ca 44       		.sleb128 -60
 4645 09cb 9F       		.byte	0x9f
 4646 09cc 1E000000 		.4byte	.LVL140
 4647 09d0 25000000 		.4byte	.LVL141-1
 4648 09d4 0100     		.2byte	0x1
 4649 09d6 50       		.byte	0x50
 4650 09d7 25000000 		.4byte	.LVL141-1
 4651 09db 3A000000 		.4byte	.LVL143
 4652 09df 0300     		.2byte	0x3
 4653 09e1 91       		.byte	0x91
 4654 09e2 44       		.sleb128 -60
 4655 09e3 9F       		.byte	0x9f
 4656 09e4 46000000 		.4byte	.LVL146
 4657 09e8 4A000000 		.4byte	.LVL147
 4658 09ec 0300     		.2byte	0x3
 4659 09ee 91       		.byte	0x91
 4660 09ef 44       		.sleb128 -60
 4661 09f0 9F       		.byte	0x9f
 4662 09f1 4A000000 		.4byte	.LVL147
 4663 09f5 53000000 		.4byte	.LVL148-1
 4664 09f9 0100     		.2byte	0x1
 4665 09fb 50       		.byte	0x50
 4666 09fc 53000000 		.4byte	.LVL148-1
 4667 0a00 5E000000 		.4byte	.LFE273
 4668 0a04 0300     		.2byte	0x3
 4669 0a06 91       		.byte	0x91
 4670 0a07 44       		.sleb128 -60
 4671 0a08 9F       		.byte	0x9f
 4672 0a09 00000000 		.4byte	0
 4673 0a0d 00000000 		.4byte	0
ARM GAS  /var/folders/m4/4md61f0s1_g0rzfghffqnxvr0000gn/T//ccS6xPmJ.s 			page 83


 4674              	.LLST33:
 4675 0a11 0C000000 		.4byte	.LVL135
 4676 0a15 10000000 		.4byte	.LVL137
 4677 0a19 0300     		.2byte	0x3
 4678 0a1b 71       		.byte	0x71
 4679 0a1c 7F       		.sleb128 -1
 4680 0a1d 9F       		.byte	0x9f
 4681 0a1e 10000000 		.4byte	.LVL137
 4682 0a22 12000000 		.4byte	.LVL138
 4683 0a26 0300     		.2byte	0x3
 4684 0a28 74       		.byte	0x74
 4685 0a29 7F       		.sleb128 -1
 4686 0a2a 9F       		.byte	0x9f
 4687 0a2b 12000000 		.4byte	.LVL138
 4688 0a2f 17000000 		.4byte	.LVL139-1
 4689 0a33 0100     		.2byte	0x1
 4690 0a35 52       		.byte	0x52
 4691 0a36 17000000 		.4byte	.LVL139-1
 4692 0a3a 36000000 		.4byte	.LVL142
 4693 0a3e 0300     		.2byte	0x3
 4694 0a40 74       		.byte	0x74
 4695 0a41 7F       		.sleb128 -1
 4696 0a42 9F       		.byte	0x9f
 4697 0a43 36000000 		.4byte	.LVL142
 4698 0a47 3A000000 		.4byte	.LVL143
 4699 0a4b 0600     		.2byte	0x6
 4700 0a4d F3       		.byte	0xf3
 4701 0a4e 01       		.uleb128 0x1
 4702 0a4f 51       		.byte	0x51
 4703 0a50 31       		.byte	0x31
 4704 0a51 1C       		.byte	0x1c
 4705 0a52 9F       		.byte	0x9f
 4706 0a53 3A000000 		.4byte	.LVL143
 4707 0a57 5E000000 		.4byte	.LFE273
 4708 0a5b 0200     		.2byte	0x2
 4709 0a5d 30       		.byte	0x30
 4710 0a5e 9F       		.byte	0x9f
 4711 0a5f 00000000 		.4byte	0
 4712 0a63 00000000 		.4byte	0
 4713              	.LLST34:
 4714 0a67 26000000 		.4byte	.LVL141
 4715 0a6b 3A000000 		.4byte	.LVL143
 4716 0a6f 0100     		.2byte	0x1
 4717 0a71 50       		.byte	0x50
 4718 0a72 54000000 		.4byte	.LVL148
 4719 0a76 5E000000 		.4byte	.LFE273
 4720 0a7a 0100     		.2byte	0x1
 4721 0a7c 50       		.byte	0x50
 4722 0a7d 00000000 		.4byte	0
 4723 0a81 00000000 		.4byte	0
 4724              		.section	.debug_aranges,"",%progbits
 4725 0000 34000000 		.4byte	0x34
 4726 0004 0200     		.2byte	0x2
 4727 0006 00000000 		.4byte	.Ldebug_info0
 4728 000a 04       		.byte	0x4
 4729 000b 00       		.byte	0
 4730 000c 0000     		.2byte	0
ARM GAS  /var/folders/m4/4md61f0s1_g0rzfghffqnxvr0000gn/T//ccS6xPmJ.s 			page 84


 4731 000e 0000     		.2byte	0
 4732 0010 00000000 		.4byte	.LFB268
 4733 0014 48000000 		.4byte	.LFE268-.LFB268
 4734 0018 00000000 		.4byte	.LFB271
 4735 001c 08040000 		.4byte	.LFE271-.LFB271
 4736 0020 00000000 		.4byte	.LFB272
 4737 0024 1C000000 		.4byte	.LFE272-.LFB272
 4738 0028 00000000 		.4byte	.LFB273
 4739 002c 5E000000 		.4byte	.LFE273-.LFB273
 4740 0030 00000000 		.4byte	0
 4741 0034 00000000 		.4byte	0
 4742              		.section	.debug_ranges,"",%progbits
 4743              	.Ldebug_ranges0:
 4744 0000 80020000 		.4byte	.LBB12
 4745 0004 B0020000 		.4byte	.LBE12
 4746 0008 BC020000 		.4byte	.LBB15
 4747 000c F8020000 		.4byte	.LBE15
 4748 0010 00000000 		.4byte	0
 4749 0014 00000000 		.4byte	0
 4750 0018 FC020000 		.4byte	.LBB16
 4751 001c FE020000 		.4byte	.LBE16
 4752 0020 00030000 		.4byte	.LBB19
 4753 0024 0E030000 		.4byte	.LBE19
 4754 0028 00000000 		.4byte	0
 4755 002c 00000000 		.4byte	0
 4756 0030 00000000 		.4byte	.LFB268
 4757 0034 48000000 		.4byte	.LFE268
 4758 0038 00000000 		.4byte	.LFB271
 4759 003c 08040000 		.4byte	.LFE271
 4760 0040 00000000 		.4byte	.LFB272
 4761 0044 1C000000 		.4byte	.LFE272
 4762 0048 00000000 		.4byte	.LFB273
 4763 004c 5E000000 		.4byte	.LFE273
 4764 0050 00000000 		.4byte	0
 4765 0054 00000000 		.4byte	0
 4766              		.section	.debug_line,"",%progbits
 4767              	.Ldebug_line0:
 4768 0000 23040000 		.section	.debug_str,"MS",%progbits,1
 4768      02009B02 
 4768      00000201 
 4768      FB0E0D00 
 4768      01010101 
 4769              	.LASF51:
 4770 0000 74687265 		.ascii	"threads_list_t\000"
 4770      6164735F 
 4770      6C697374 
 4770      5F7400
 4771              	.LASF23:
 4772 000f 74726566 		.ascii	"trefs_t\000"
 4772      735F7400 
 4773              	.LASF56:
 4774 0017 72656164 		.ascii	"ready_list_t\000"
 4774      795F6C69 
 4774      73745F74 
 4774      00
 4775              	.LASF4:
 4776 0024 73697A65 		.ascii	"size_t\000"
ARM GAS  /var/folders/m4/4md61f0s1_g0rzfghffqnxvr0000gn/T//ccS6xPmJ.s 			page 85


 4776      5F7400
 4777              	.LASF19:
 4778 002b 75696E74 		.ascii	"uint64_t\000"
 4778      36345F74 
 4778      00
 4779              	.LASF5:
 4780 0034 5F5F7569 		.ascii	"__uint8_t\000"
 4780      6E74385F 
 4780      7400
 4781              	.LASF88:
 4782 003e 706F7274 		.ascii	"port_intctx\000"
 4782      5F696E74 
 4782      63747800 
 4783              	.LASF115:
 4784 004a 76615F6C 		.ascii	"va_list\000"
 4784      69737400 
 4785              	.LASF75:
 4786 0052 73797374 		.ascii	"system_debug_t\000"
 4786      656D5F64 
 4786      65627567 
 4786      5F7400
 4787              	.LASF123:
 4788 0061 66746F61 		.ascii	"ftoa\000"
 4788      00
 4789              	.LASF83:
 4790 0066 69646C65 		.ascii	"idle_thread_wa\000"
 4790      5F746872 
 4790      6561645F 
 4790      776100
 4791              	.LASF135:
 4792 0075 72657476 		.ascii	"retval\000"
 4792      616C00
 4793              	.LASF134:
 4794 007c 73697A65 		.ascii	"size_wo_nul\000"
 4794      5F776F5F 
 4794      6E756C00 
 4795              	.LASF15:
 4796 0088 6C6F6E67 		.ascii	"long long unsigned int\000"
 4796      206C6F6E 
 4796      6720756E 
 4796      7369676E 
 4796      65642069 
 4797              	.LASF132:
 4798 009f 666F726D 		.ascii	"formatted_bytes\000"
 4798      61747465 
 4798      645F6279 
 4798      74657300 
 4799              	.LASF92:
 4800 00af 65786974 		.ascii	"exitcode\000"
 4800      636F6465 
 4800      00
 4801              	.LASF82:
 4802 00b8 6D61696E 		.ascii	"mainthread\000"
 4802      74687265 
 4802      616400
 4803              	.LASF72:
 4804 00c3 76697274 		.ascii	"virtual_timers_list_t\000"
ARM GAS  /var/folders/m4/4md61f0s1_g0rzfghffqnxvr0000gn/T//ccS6xPmJ.s 			page 86


 4804      75616C5F 
 4804      74696D65 
 4804      72735F6C 
 4804      6973745F 
 4805              	.LASF137:
 4806 00d9 49544D5F 		.ascii	"ITM_RxBuffer\000"
 4806      52784275 
 4806      66666572 
 4806      00
 4807              	.LASF55:
 4808 00e6 63685F74 		.ascii	"ch_threads_queue\000"
 4808      68726561 
 4808      64735F71 
 4808      75657565 
 4808      00
 4809              	.LASF33:
 4810 00f7 705F7072 		.ascii	"p_prio\000"
 4810      696F00
 4811              	.LASF13:
 4812 00fe 6C6F6E67 		.ascii	"long long int\000"
 4812      206C6F6E 
 4812      6720696E 
 4812      7400
 4813              	.LASF3:
 4814 010c 7369676E 		.ascii	"signed char\000"
 4814      65642063 
 4814      68617200 
 4815              	.LASF12:
 4816 0118 6C6F6E67 		.ascii	"long unsigned int\000"
 4816      20756E73 
 4816      69676E65 
 4816      6420696E 
 4816      7400
 4817              	.LASF49:
 4818 012a 705F6D70 		.ascii	"p_mpool\000"
 4818      6F6F6C00 
 4819              	.LASF129:
 4820 0132 746D7062 		.ascii	"tmpbuf\000"
 4820      756600
 4821              	.LASF24:
 4822 0139 74736C69 		.ascii	"tslices_t\000"
 4822      6365735F 
 4822      7400
 4823              	.LASF94:
 4824 0143 77747472 		.ascii	"wttrp\000"
 4824      7000
 4825              	.LASF79:
 4826 0149 63685F73 		.ascii	"ch_system\000"
 4826      79737465 
 4826      6D00
 4827              	.LASF10:
 4828 0153 6C6F6E67 		.ascii	"long int\000"
 4828      20696E74 
 4828      00
 4829              	.LASF22:
 4830 015c 74737461 		.ascii	"tstate_t\000"
 4830      74655F74 
ARM GAS  /var/folders/m4/4md61f0s1_g0rzfghffqnxvr0000gn/T//ccS6xPmJ.s 			page 87


 4830      00
 4831              	.LASF113:
 4832 0165 5F5F7661 		.ascii	"__va_list\000"
 4832      5F6C6973 
 4832      7400
 4833              	.LASF117:
 4834 016f 62756666 		.ascii	"buffer\000"
 4834      657200
 4835              	.LASF35:
 4836 0176 705F6E65 		.ascii	"p_newer\000"
 4836      77657200 
 4837              	.LASF99:
 4838 017e 735F7175 		.ascii	"s_queue\000"
 4838      65756500 
 4839              	.LASF61:
 4840 0186 725F6E65 		.ascii	"r_newer\000"
 4840      77657200 
 4841              	.LASF85:
 4842 018e 72656761 		.ascii	"regarm_t\000"
 4842      726D5F74 
 4842      00
 4843              	.LASF68:
 4844 0197 76745F70 		.ascii	"vt_prev\000"
 4844      72657600 
 4845              	.LASF81:
 4846 019f 76746C69 		.ascii	"vtlist\000"
 4846      737400
 4847              	.LASF125:
 4848 01a6 66696C6C 		.ascii	"filler\000"
 4848      657200
 4849              	.LASF127:
 4850 01ad 69735F6C 		.ascii	"is_long\000"
 4850      6F6E6700 
 4851              	.LASF106:
 4852 01b5 6D757465 		.ascii	"mutex_t\000"
 4852      785F7400 
 4853              	.LASF110:
 4854 01bd 42617365 		.ascii	"BaseSequentialStream\000"
 4854      53657175 
 4854      656E7469 
 4854      616C5374 
 4854      7265616D 
 4855              	.LASF139:
 4856 01d2 43686962 		.ascii	"ChibiOS_16.1.4/os/hal/lib/streams/chprintf.c\000"
 4856      694F535F 
 4856      31362E31 
 4856      2E342F6F 
 4856      732F6861 
 4857              	.LASF28:
 4858 01ff 636E745F 		.ascii	"cnt_t\000"
 4858      7400
 4859              	.LASF2:
 4860 0205 756E7369 		.ascii	"unsigned int\000"
 4860      676E6564 
 4860      20696E74 
 4860      00
 4861              	.LASF67:
ARM GAS  /var/folders/m4/4md61f0s1_g0rzfghffqnxvr0000gn/T//ccS6xPmJ.s 			page 88


 4862 0212 76745F6E 		.ascii	"vt_next\000"
 4862      65787400 
 4863              	.LASF42:
 4864 021a 705F7469 		.ascii	"p_time\000"
 4864      6D6500
 4865              	.LASF95:
 4866 0221 77747365 		.ascii	"wtsemp\000"
 4866      6D7000
 4867              	.LASF69:
 4868 0228 76745F64 		.ascii	"vt_delta\000"
 4868      656C7461 
 4868      00
 4869              	.LASF44:
 4870 0231 705F6D73 		.ascii	"p_msgqueue\000"
 4870      67717565 
 4870      756500
 4871              	.LASF128:
 4872 023c 6C656674 		.ascii	"left_align\000"
 4872      5F616C69 
 4872      676E00
 4873              	.LASF126:
 4874 0247 77696474 		.ascii	"width\000"
 4874      6800
 4875              	.LASF8:
 4876 024d 73686F72 		.ascii	"short unsigned int\000"
 4876      7420756E 
 4876      7369676E 
 4876      65642069 
 4876      6E7400
 4877              	.LASF52:
 4878 0260 63685F74 		.ascii	"ch_thread\000"
 4878      68726561 
 4878      6400
 4879              	.LASF26:
 4880 026a 6D73675F 		.ascii	"msg_t\000"
 4880      7400
 4881              	.LASF109:
 4882 0270 72656164 		.ascii	"read\000"
 4882      00
 4883              	.LASF21:
 4884 0275 746D6F64 		.ascii	"tmode_t\000"
 4884      655F7400 
 4885              	.LASF57:
 4886 027d 63685F72 		.ascii	"ch_ready_list\000"
 4886      65616479 
 4886      5F6C6973 
 4886      7400
 4887              	.LASF27:
 4888 028b 6576656E 		.ascii	"eventmask_t\000"
 4888      746D6173 
 4888      6B5F7400 
 4889              	.LASF9:
 4890 0297 5F5F696E 		.ascii	"__int32_t\000"
 4890      7433325F 
 4890      7400
 4891              	.LASF86:
 4892 02a1 73746B61 		.ascii	"stkalign_t\000"
ARM GAS  /var/folders/m4/4md61f0s1_g0rzfghffqnxvr0000gn/T//ccS6xPmJ.s 			page 89


 4892      6C69676E 
 4892      5F7400
 4893              	.LASF143:
 4894 02ac 6D734F62 		.ascii	"msObjectInit\000"
 4894      6A656374 
 4894      496E6974 
 4894      00
 4895              	.LASF108:
 4896 02b9 77726974 		.ascii	"write\000"
 4896      6500
 4897              	.LASF138:
 4898 02bf 474E5520 		.ascii	"GNU C 4.9.3 20150529 (release) [ARM/embedded-4_9-br"
 4898      4320342E 
 4898      392E3320 
 4898      32303135 
 4898      30353239 
 4899 02f2 616E6368 		.ascii	"anch revision 224288] -mcpu=cortex-m4 -mfloat-abi=h"
 4899      20726576 
 4899      6973696F 
 4899      6E203232 
 4899      34323838 
 4900 0325 61726420 		.ascii	"ard -mfpu=fpv4-sp-d16 -mno-thumb-interwork -mthumb "
 4900      2D6D6670 
 4900      753D6670 
 4900      76342D73 
 4900      702D6431 
 4901 0358 2D676764 		.ascii	"-ggdb -O2 -std=c99 -fomit-frame-pointer -falign-fun"
 4901      62202D4F 
 4901      32202D73 
 4901      74643D63 
 4901      3939202D 
 4902 038b 6374696F 		.ascii	"ctions=16 -ffunction-sections -fdata-sections -fno-"
 4902      6E733D31 
 4902      36202D66 
 4902      66756E63 
 4902      74696F6E 
 4903 03be 636F6D6D 		.ascii	"common -fsingle-precision-constant\000"
 4903      6F6E202D 
 4903      6673696E 
 4903      676C652D 
 4903      70726563 
 4904              	.LASF43:
 4905 03e1 705F7761 		.ascii	"p_waiting\000"
 4905      6974696E 
 4905      6700
 4906              	.LASF84:
 4907 03eb 73697A65 		.ascii	"sizetype\000"
 4907      74797065 
 4907      00
 4908              	.LASF50:
 4909 03f4 74687265 		.ascii	"thread_reference_t\000"
 4909      61645F72 
 4909      65666572 
 4909      656E6365 
 4909      5F7400
 4910              	.LASF73:
 4911 0407 63685F76 		.ascii	"ch_virtual_timers_list\000"
ARM GAS  /var/folders/m4/4md61f0s1_g0rzfghffqnxvr0000gn/T//ccS6xPmJ.s 			page 90


 4911      69727475 
 4911      616C5F74 
 4911      696D6572 
 4911      735F6C69 
 4912              	.LASF142:
 4913 041e 756E7369 		.ascii	"unsigned_common\000"
 4913      676E6564 
 4913      5F636F6D 
 4913      6D6F6E00 
 4914              	.LASF121:
 4915 042e 64697669 		.ascii	"divisor\000"
 4915      736F7200 
 4916              	.LASF112:
 4917 0436 5F5F676E 		.ascii	"__gnuc_va_list\000"
 4917      75635F76 
 4917      615F6C69 
 4917      737400
 4918              	.LASF140:
 4919 0445 2F557365 		.ascii	"/Users/raphael/Documents/pcb-quadrotor/code\000"
 4919      72732F72 
 4919      61706861 
 4919      656C2F44 
 4919      6F63756D 
 4920              	.LASF36:
 4921 0471 705F6F6C 		.ascii	"p_older\000"
 4921      64657200 
 4922              	.LASF60:
 4923 0479 725F6374 		.ascii	"r_ctx\000"
 4923      7800
 4924              	.LASF90:
 4925 047f 746D5F63 		.ascii	"tm_calibration_t\000"
 4925      616C6962 
 4925      72617469 
 4925      6F6E5F74 
 4925      00
 4926              	.LASF63:
 4927 0490 725F6375 		.ascii	"r_current\000"
 4927      7272656E 
 4927      7400
 4928              	.LASF62:
 4929 049a 725F6F6C 		.ascii	"r_older\000"
 4929      64657200 
 4930              	.LASF116:
 4931 04a2 4D656D53 		.ascii	"MemStreamVMT\000"
 4931      74726561 
 4931      6D564D54 
 4931      00
 4932              	.LASF14:
 4933 04af 5F5F7569 		.ascii	"__uint64_t\000"
 4933      6E743634 
 4933      5F7400
 4934              	.LASF1:
 4935 04ba 666C6F61 		.ascii	"float\000"
 4935      7400
 4936              	.LASF65:
 4937 04c0 76697274 		.ascii	"virtual_timer_t\000"
 4937      75616C5F 
ARM GAS  /var/folders/m4/4md61f0s1_g0rzfghffqnxvr0000gn/T//ccS6xPmJ.s 			page 91


 4937      74696D65 
 4937      725F7400 
 4938              	.LASF32:
 4939 04d0 705F7072 		.ascii	"p_prev\000"
 4939      657600
 4940              	.LASF25:
 4941 04d7 74707269 		.ascii	"tprio_t\000"
 4941      6F5F7400 
 4942              	.LASF119:
 4943 04df 4D656D6F 		.ascii	"MemoryStream\000"
 4943      72795374 
 4943      7265616D 
 4943      00
 4944              	.LASF37:
 4945 04ec 705F6E61 		.ascii	"p_name\000"
 4945      6D6500
 4946              	.LASF76:
 4947 04f3 63685F73 		.ascii	"ch_system_debug\000"
 4947      79737465 
 4947      6D5F6465 
 4947      62756700 
 4948              	.LASF111:
 4949 0503 5F426F6F 		.ascii	"_Bool\000"
 4949      6C00
 4950              	.LASF17:
 4951 0509 696E7433 		.ascii	"int32_t\000"
 4951      325F7400 
 4952              	.LASF6:
 4953 0511 756E7369 		.ascii	"unsigned char\000"
 4953      676E6564 
 4953      20636861 
 4953      7200
 4954              	.LASF102:
 4955 051f 6D5F7175 		.ascii	"m_queue\000"
 4955      65756500 
 4956              	.LASF136:
 4957 0527 706F7731 		.ascii	"pow10\000"
 4957      3000
 4958              	.LASF100:
 4959 052d 735F636E 		.ascii	"s_cnt\000"
 4959      7400
 4960              	.LASF47:
 4961 0533 705F6D74 		.ascii	"p_mtxlist\000"
 4961      786C6973 
 4961      7400
 4962              	.LASF7:
 4963 053d 73686F72 		.ascii	"short int\000"
 4963      7420696E 
 4963      7400
 4964              	.LASF38:
 4965 0547 705F7374 		.ascii	"p_state\000"
 4965      61746500 
 4966              	.LASF41:
 4967 054f 705F7072 		.ascii	"p_preempt\000"
 4967      65656D70 
 4967      7400
 4968              	.LASF59:
ARM GAS  /var/folders/m4/4md61f0s1_g0rzfghffqnxvr0000gn/T//ccS6xPmJ.s 			page 92


 4969 0559 725F7072 		.ascii	"r_prio\000"
 4969      696F00
 4970              	.LASF97:
 4971 0560 65776D61 		.ascii	"ewmask\000"
 4971      736B00
 4972              	.LASF31:
 4973 0567 705F6E65 		.ascii	"p_next\000"
 4973      787400
 4974              	.LASF107:
 4975 056e 42617365 		.ascii	"BaseSequentialStreamVMT\000"
 4975      53657175 
 4975      656E7469 
 4975      616C5374 
 4975      7265616D 
 4976              	.LASF39:
 4977 0586 705F666C 		.ascii	"p_flags\000"
 4977      61677300 
 4978              	.LASF120:
 4979 058e 72616469 		.ascii	"radix\000"
 4979      7800
 4980              	.LASF91:
 4981 0594 7264796D 		.ascii	"rdymsg\000"
 4981      736700
 4982              	.LASF66:
 4983 059b 63685F76 		.ascii	"ch_virtual_timer\000"
 4983      69727475 
 4983      616C5F74 
 4983      696D6572 
 4983      00
 4984              	.LASF98:
 4985 05ac 63685F73 		.ascii	"ch_semaphore\000"
 4985      656D6170 
 4985      686F7265 
 4985      00
 4986              	.LASF46:
 4987 05b9 705F6570 		.ascii	"p_epending\000"
 4987      656E6469 
 4987      6E6700
 4988              	.LASF18:
 4989 05c4 75696E74 		.ascii	"uint32_t\000"
 4989      33325F74 
 4989      00
 4990              	.LASF96:
 4991 05cd 77746D74 		.ascii	"wtmtxp\000"
 4991      787000
 4992              	.LASF58:
 4993 05d4 725F7175 		.ascii	"r_queue\000"
 4993      65756500 
 4994              	.LASF53:
 4995 05dc 63685F74 		.ascii	"ch_threads_list\000"
 4995      68726561 
 4995      64735F6C 
 4995      69737400 
 4996              	.LASF133:
 4997 05ec 6368736E 		.ascii	"chsnprintf\000"
 4997      7072696E 
 4997      746600
ARM GAS  /var/folders/m4/4md61f0s1_g0rzfghffqnxvr0000gn/T//ccS6xPmJ.s 			page 93


 4998              	.LASF105:
 4999 05f7 63686172 		.ascii	"char\000"
 4999      00
 5000              	.LASF124:
 5001 05fc 70726563 		.ascii	"precision\000"
 5001      6973696F 
 5001      6E00
 5002              	.LASF30:
 5003 0606 74687265 		.ascii	"thread_t\000"
 5003      61645F74 
 5003      00
 5004              	.LASF104:
 5005 060f 6D5F6E65 		.ascii	"m_next\000"
 5005      787400
 5006              	.LASF29:
 5007 0616 73797374 		.ascii	"systime_t\000"
 5007      696D655F 
 5007      7400
 5008              	.LASF48:
 5009 0620 705F7265 		.ascii	"p_realprio\000"
 5009      616C7072 
 5009      696F00
 5010              	.LASF64:
 5011 062b 76746675 		.ascii	"vtfunc_t\000"
 5011      6E635F74 
 5011      00
 5012              	.LASF11:
 5013 0634 5F5F7569 		.ascii	"__uint32_t\000"
 5013      6E743332 
 5013      5F7400
 5014              	.LASF77:
 5015 063f 70616E69 		.ascii	"panic_msg\000"
 5015      635F6D73 
 5015      6700
 5016              	.LASF89:
 5017 0649 6F666673 		.ascii	"offset\000"
 5017      657400
 5018              	.LASF114:
 5019 0650 5F5F6170 		.ascii	"__ap\000"
 5019      00
 5020              	.LASF87:
 5021 0655 636F6E74 		.ascii	"context\000"
 5021      65787400 
 5022              	.LASF78:
 5023 065d 63685F73 		.ascii	"ch_system_t\000"
 5023      79737465 
 5023      6D5F7400 
 5024              	.LASF20:
 5025 0669 7274636E 		.ascii	"rtcnt_t\000"
 5025      745F7400 
 5026              	.LASF71:
 5027 0671 76745F70 		.ascii	"vt_par\000"
 5027      617200
 5028              	.LASF54:
 5029 0678 74687265 		.ascii	"threads_queue_t\000"
 5029      6164735F 
 5029      71756575 
ARM GAS  /var/folders/m4/4md61f0s1_g0rzfghffqnxvr0000gn/T//ccS6xPmJ.s 			page 94


 5029      655F7400 
 5030              	.LASF101:
 5031 0688 63685F6D 		.ascii	"ch_mutex\000"
 5031      75746578 
 5031      00
 5032              	.LASF40:
 5033 0691 705F7265 		.ascii	"p_refs\000"
 5033      667300
 5034              	.LASF122:
 5035 0698 63685F6C 		.ascii	"ch_ltoa\000"
 5035      746F6100 
 5036              	.LASF80:
 5037 06a0 726C6973 		.ascii	"rlist\000"
 5037      7400
 5038              	.LASF16:
 5039 06a6 75696E74 		.ascii	"uint8_t\000"
 5039      385F7400 
 5040              	.LASF130:
 5041 06ae 63687670 		.ascii	"chvprintf\000"
 5041      72696E74 
 5041      6600
 5042              	.LASF93:
 5043 06b8 77746F62 		.ascii	"wtobjp\000"
 5043      6A7000
 5044              	.LASF141:
 5045 06bf 6C6F6E67 		.ascii	"long_to_string_with_divisor\000"
 5045      5F746F5F 
 5045      73747269 
 5045      6E675F77 
 5045      6974685F 
 5046              	.LASF118:
 5047 06db 73697A65 		.ascii	"size\000"
 5047      00
 5048              	.LASF74:
 5049 06e0 76745F73 		.ascii	"vt_systime\000"
 5049      79737469 
 5049      6D6500
 5050              	.LASF45:
 5051 06eb 705F6D73 		.ascii	"p_msg\000"
 5051      6700
 5052              	.LASF103:
 5053 06f1 6D5F6F77 		.ascii	"m_owner\000"
 5053      6E657200 
 5054              	.LASF0:
 5055 06f9 646F7562 		.ascii	"double\000"
 5055      6C6500
 5056              	.LASF34:
 5057 0700 705F6374 		.ascii	"p_ctx\000"
 5057      7800
 5058              	.LASF70:
 5059 0706 76745F66 		.ascii	"vt_func\000"
 5059      756E6300 
 5060              	.LASF131:
 5061 070e 63687072 		.ascii	"chprintf\000"
 5061      696E7466 
 5061      00
 5062              		.ident	"GCC: (GNU Tools for ARM Embedded Processors) 4.9.3 20150529 (release) [ARM/embedded-4_9-br
ARM GAS  /var/folders/m4/4md61f0s1_g0rzfghffqnxvr0000gn/T//ccS6xPmJ.s 			page 95


ARM GAS  /var/folders/m4/4md61f0s1_g0rzfghffqnxvr0000gn/T//ccS6xPmJ.s 			page 96


DEFINED SYMBOLS
                            *ABS*:0000000000000000 chprintf.c
/var/folders/m4/4md61f0s1_g0rzfghffqnxvr0000gn/T//ccS6xPmJ.s:21     .text.long_to_string_with_divisor:0000000000000000 $t
/var/folders/m4/4md61f0s1_g0rzfghffqnxvr0000gn/T//ccS6xPmJ.s:26     .text.long_to_string_with_divisor:0000000000000000 long_to_string_with_divisor
/var/folders/m4/4md61f0s1_g0rzfghffqnxvr0000gn/T//ccS6xPmJ.s:115    .text.chvprintf:0000000000000000 $t
/var/folders/m4/4md61f0s1_g0rzfghffqnxvr0000gn/T//ccS6xPmJ.s:121    .text.chvprintf:0000000000000000 chvprintf
/var/folders/m4/4md61f0s1_g0rzfghffqnxvr0000gn/T//ccS6xPmJ.s:288    .text.chvprintf:00000000000000b4 $d
/var/folders/m4/4md61f0s1_g0rzfghffqnxvr0000gn/T//ccS6xPmJ.s:342    .text.chvprintf:000000000000011e $t
/var/folders/m4/4md61f0s1_g0rzfghffqnxvr0000gn/T//ccS6xPmJ.s:390    .text.chvprintf:000000000000015c $d
/var/folders/m4/4md61f0s1_g0rzfghffqnxvr0000gn/T//ccS6xPmJ.s:444    .text.chvprintf:00000000000001c6 $t
/var/folders/m4/4md61f0s1_g0rzfghffqnxvr0000gn/T//ccS6xPmJ.s:873    .text.chvprintf:00000000000003fc $d
/var/folders/m4/4md61f0s1_g0rzfghffqnxvr0000gn/T//ccS6xPmJ.s:880    .text.chprintf:0000000000000000 $t
/var/folders/m4/4md61f0s1_g0rzfghffqnxvr0000gn/T//ccS6xPmJ.s:886    .text.chprintf:0000000000000000 chprintf
/var/folders/m4/4md61f0s1_g0rzfghffqnxvr0000gn/T//ccS6xPmJ.s:928    .text.chsnprintf:0000000000000000 $t
/var/folders/m4/4md61f0s1_g0rzfghffqnxvr0000gn/T//ccS6xPmJ.s:934    .text.chsnprintf:0000000000000000 chsnprintf
/var/folders/m4/4md61f0s1_g0rzfghffqnxvr0000gn/T//ccS6xPmJ.s:1046   .rodata.str1.4:0000000000000000 $d
/var/folders/m4/4md61f0s1_g0rzfghffqnxvr0000gn/T//ccS6xPmJ.s:1050   .rodata.pow10:0000000000000000 $d
/var/folders/m4/4md61f0s1_g0rzfghffqnxvr0000gn/T//ccS6xPmJ.s:1054   .rodata.pow10:0000000000000000 pow10
                     .debug_frame:0000000000000010 $d

UNDEFINED SYMBOLS
__aeabi_d2f
__aeabi_f2d
__aeabi_i2d
__aeabi_dsub
__aeabi_ui2d
__aeabi_dmul
__aeabi_d2iz
msObjectInit
