ARM GAS  /var/folders/m4/4md61f0s1_g0rzfghffqnxvr0000gn/T//ccS6xPmJ.s 			page 1


   1              		.syntax unified
   2              		.cpu cortex-m4
   3              		.eabi_attribute 27, 1
   4              		.eabi_attribute 28, 1
   5              		.fpu fpv4-sp-d16
   6              		.eabi_attribute 20, 1
   7              		.eabi_attribute 21, 1
   8              		.eabi_attribute 23, 3
   9              		.eabi_attribute 24, 1
  10              		.eabi_attribute 25, 1
  11              		.eabi_attribute 26, 1
  12              		.eabi_attribute 30, 2
  13              		.eabi_attribute 34, 1
  14              		.eabi_attribute 18, 4
  15              		.thumb
  16              		.file	"chprintf.c"
  17              		.text
  18              	.Ltext0:
  19              		.cfi_sections	.debug_frame
  20              		.section	.text.long_to_string_with_divisor,"ax",%progbits
  21              		.align	2
  22              		.p2align 4,,15
  23              		.thumb
  24              		.thumb_func
  25              		.type	long_to_string_with_divisor, %function
  26              	long_to_string_with_divisor:
  27              	.LFB268:
  28              		.file 1 "ChibiOS_16.1.4/os/hal/lib/streams/chprintf.c"
  29              		.loc 1 40 0
  30              		.cfi_startproc
  31              		@ args = 0, pretend = 0, frame = 0
  32              		@ frame_needed = 0, uses_anonymous_args = 0
  33              		@ link register save eliminated.
  34              	.LVL0:
  35 0000 F0B4     		push	{r4, r5, r6, r7}
  36              		.cfi_def_cfa_offset 16
  37              		.cfi_offset 4, -16
  38              		.cfi_offset 5, -12
  39              		.cfi_offset 6, -8
  40              		.cfi_offset 7, -4
  41              		.loc 1 52 0
  42 0002 00F10B07 		add	r7, r0, #11
  43              		.loc 1 46 0
  44 0006 002B     		cmp	r3, #0
  45 0008 08BF     		it	eq
  46 000a 0B46     		moveq	r3, r1
  47              	.LVL1:
  48              		.loc 1 52 0
  49 000c 3D46     		mov	r5, r7
  50              	.LVL2:
  51              	.L4:
  52              		.loc 1 54 0
  53 000e B1FBF2F6 		udiv	r6, r1, r2
  54 0012 02FB1611 		mls	r1, r2, r6, r1
  55              	.LVL3:
  56              		.loc 1 55 0
  57 0016 01F13004 		add	r4, r1, #48
ARM GAS  /var/folders/m4/4md61f0s1_g0rzfghffqnxvr0000gn/T//ccS6xPmJ.s 			page 2


  58              	.LVL4:
  59              		.loc 1 56 0
  60 001a 392C     		cmp	r4, #57
  61              		.loc 1 57 0
  62 001c C8BF     		it	gt
  63 001e 01F13704 		addgt	r4, r1, #55
  64              	.LVL5:
  65              		.loc 1 58 0
  66 0022 E4B2     		uxtb	r4, r4
  67              	.LVL6:
  68 0024 05F8014D 		strb	r4, [r5, #-1]!
  69              	.LVL7:
  70              		.loc 1 60 0
  71 0028 B3FBF2F3 		udiv	r3, r3, r2
  72              	.LVL8:
  73              		.loc 1 59 0
  74 002c 3146     		mov	r1, r6
  75              	.LVL9:
  76              		.loc 1 60 0
  77 002e 002B     		cmp	r3, #0
  78 0030 EDD1     		bne	.L4
  79              	.LVL10:
  80              		.loc 1 62 0
  81 0032 7B1B     		subs	r3, r7, r5
  82              	.LVL11:
  83 0034 0344     		add	r3, r3, r0
  84 0036 01E0     		b	.L6
  85              	.LVL12:
  86              	.L12:
  87 0038 15F8014F 		ldrb	r4, [r5, #1]!	@ zero_extendqisi2
  88              	.LVL13:
  89              	.L6:
  90              		.loc 1 64 0 discriminator 1
  91 003c 00F8014B 		strb	r4, [r0], #1
  92              	.LVL14:
  93              		.loc 1 65 0 discriminator 1
  94 0040 9842     		cmp	r0, r3
  95 0042 F9D1     		bne	.L12
  96              		.loc 1 68 0
  97 0044 F0BC     		pop	{r4, r5, r6, r7}
  98              		.cfi_restore 7
  99              		.cfi_restore 6
 100              		.cfi_restore 5
 101              		.cfi_restore 4
 102              		.cfi_def_cfa_offset 0
 103 0046 7047     		bx	lr
 104              		.cfi_endproc
 105              	.LFE268:
 106              		.size	long_to_string_with_divisor, .-long_to_string_with_divisor
 107              		.global	__aeabi_d2f
 108              		.global	__aeabi_f2d
 109              		.global	__aeabi_i2d
 110              		.global	__aeabi_dsub
 111              		.global	__aeabi_ui2d
 112              		.global	__aeabi_dmul
 113              		.global	__aeabi_d2iz
 114              		.section	.text.chvprintf,"ax",%progbits
ARM GAS  /var/folders/m4/4md61f0s1_g0rzfghffqnxvr0000gn/T//ccS6xPmJ.s 			page 3


 115              		.align	2
 116              		.p2align 4,,15
 117              		.global	chvprintf
 118              		.thumb
 119              		.thumb_func
 120              		.type	chvprintf, %function
 121              	chvprintf:
 122              	.LFB271:
 123              		.loc 1 121 0
 124              		.cfi_startproc
 125              		@ args = 0, pretend = 0, frame = 48
 126              		@ frame_needed = 0, uses_anonymous_args = 0
 127              	.LVL15:
 128 0000 2DE9F04F 		push	{r4, r5, r6, r7, r8, r9, r10, fp, lr}
 129              		.cfi_def_cfa_offset 36
 130              		.cfi_offset 4, -36
 131              		.cfi_offset 5, -32
 132              		.cfi_offset 6, -28
 133              		.cfi_offset 7, -24
 134              		.cfi_offset 8, -20
 135              		.cfi_offset 9, -16
 136              		.cfi_offset 10, -12
 137              		.cfi_offset 11, -8
 138              		.cfi_offset 14, -4
 139 0004 2DED028B 		fstmfdd	sp!, {d8}
 140              		.cfi_def_cfa_offset 44
 141              		.cfi_offset 80, -44
 142              		.cfi_offset 81, -40
 143 0008 8DB0     		sub	sp, sp, #52
 144              		.cfi_def_cfa_offset 96
 145              		.loc 1 121 0
 146 000a 1746     		mov	r7, r2
 147              	.LVL16:
 148 000c 0DF11903 		add	r3, sp, #25
 149 0010 06AA     		add	r2, sp, #24
 150              	.LVL17:
 151 0012 9B1A     		subs	r3, r3, r2
 152 0014 0193     		str	r3, [sp, #4]
 153              		.loc 1 124 0
 154 0016 0023     		movs	r3, #0
 155              		.loc 1 121 0
 156 0018 0646     		mov	r6, r0
 157 001a 0D46     		mov	r5, r1
 158              		.loc 1 124 0
 159 001c 0093     		str	r3, [sp]
 160 001e 8246     		mov	r10, r0
 161              	.LVL18:
 162              	.L14:
 163              		.loc 1 135 0
 164 0020 2978     		ldrb	r1, [r5]	@ zero_extendqisi2
 165 0022 6B1C     		adds	r3, r5, #1
 166              	.LVL19:
 167              		.loc 1 136 0
 168 0024 71B1     		cbz	r1, .L89
 169              	.L102:
 170              		.loc 1 138 0
 171 0026 2529     		cmp	r1, #37
ARM GAS  /var/folders/m4/4md61f0s1_g0rzfghffqnxvr0000gn/T//ccS6xPmJ.s 			page 4


 172 0028 12D0     		beq	.L16
 173              		.loc 1 140 0
 174 002a 009C     		ldr	r4, [sp]
 175              		.loc 1 139 0
 176 002c DAF80020 		ldr	r2, [r10]
 177              		.loc 1 135 0
 178 0030 1D46     		mov	r5, r3
 179              		.loc 1 139 0
 180 0032 9268     		ldr	r2, [r2, #8]
 181 0034 5046     		mov	r0, r10
 182              		.loc 1 140 0
 183 0036 0134     		adds	r4, r4, #1
 184 0038 0094     		str	r4, [sp]
 185              		.loc 1 139 0
 186 003a 9047     		blx	r2
 187              	.LVL20:
 188              		.loc 1 135 0
 189 003c 2978     		ldrb	r1, [r5]	@ zero_extendqisi2
 190 003e 6B1C     		adds	r3, r5, #1
 191              	.LVL21:
 192              		.loc 1 136 0
 193 0040 0029     		cmp	r1, #0
 194 0042 F0D1     		bne	.L102
 195              	.L89:
 196              		.loc 1 277 0
 197 0044 0098     		ldr	r0, [sp]
 198 0046 0DB0     		add	sp, sp, #52
 199              		.cfi_remember_state
 200              		.cfi_def_cfa_offset 44
 201              	.LVL22:
 202              		@ sp needed
 203 0048 BDEC028B 		fldmfdd	sp!, {d8}
 204              		.cfi_restore 80
 205              		.cfi_restore 81
 206              		.cfi_def_cfa_offset 36
 207 004c BDE8F08F 		pop	{r4, r5, r6, r7, r8, r9, r10, fp, pc}
 208              	.LVL23:
 209              	.L16:
 210              		.cfi_restore_state
 211              		.loc 1 146 0
 212 0050 6A78     		ldrb	r2, [r5, #1]	@ zero_extendqisi2
 213 0052 2D2A     		cmp	r2, #45
 214 0054 03BF     		ittte	eq
 215 0056 AA78     		ldrbeq	r2, [r5, #2]	@ zero_extendqisi2
 216              		.loc 1 147 0
 217 0058 AB1C     		addeq	r3, r5, #2
 218              	.LVL24:
 219              		.loc 1 148 0
 220 005a 0126     		moveq	r6, #1
 221              		.loc 1 145 0
 222 005c 0026     		movne	r6, #0
 223              	.LVL25:
 224              		.loc 1 151 0
 225 005e 302A     		cmp	r2, #48
 226 0060 03BF     		ittte	eq
 227 0062 5A78     		ldrbeq	r2, [r3, #1]	@ zero_extendqisi2
 228              		.loc 1 152 0
ARM GAS  /var/folders/m4/4md61f0s1_g0rzfghffqnxvr0000gn/T//ccS6xPmJ.s 			page 5


 229 0064 0133     		addeq	r3, r3, #1
 230              	.LVL26:
 231              		.loc 1 153 0
 232 0066 4FF03009 		moveq	r9, #48
 233              		.loc 1 150 0
 234 006a 4FF02009 		movne	r9, #32
 235              	.LVL27:
 236 006e 591C     		adds	r1, r3, #1
 237              	.LVL28:
 238              		.loc 1 155 0
 239 0070 4FF00008 		mov	r8, #0
 240 0074 05E0     		b	.L22
 241              	.LVL29:
 242              	.L103:
 243              		.loc 1 161 0
 244 0076 3B78     		ldrb	r3, [r7]	@ zero_extendqisi2
 245              	.LVL30:
 246 0078 0437     		adds	r7, r7, #4
 247              	.LVL31:
 248              	.L20:
 249 007a 2A78     		ldrb	r2, [r5]	@ zero_extendqisi2
 250              		.loc 1 164 0
 251 007c 03EB4008 		add	r8, r3, r0, lsl #1
 252              	.LVL32:
 253 0080 0131     		adds	r1, r1, #1
 254              	.LVL33:
 255              	.L22:
 256              		.loc 1 158 0
 257 0082 A2F13003 		sub	r3, r2, #48
 258 0086 DBB2     		uxtb	r3, r3
 259 0088 092B     		cmp	r3, #9
 260              		.loc 1 157 0
 261 008a 0D46     		mov	r5, r1
 262              	.LVL34:
 263              		.loc 1 164 0
 264 008c 08EB8800 		add	r0, r8, r8, lsl #2
 265              		.loc 1 158 0
 266 0090 F3D9     		bls	.L20
 267              		.loc 1 160 0
 268 0092 2A2A     		cmp	r2, #42
 269 0094 EFD0     		beq	.L103
 270              	.LVL35:
 271              		.loc 1 167 0
 272 0096 2E2A     		cmp	r2, #46
 273 0098 4FF0000B 		mov	fp, #0
 274 009c 43D0     		beq	.L25
 275              	.LVL36:
 276              		.loc 1 181 0
 277 009e 02F0DF03 		and	r3, r2, #223
 278 00a2 4C2B     		cmp	r3, #76
 279 00a4 4ED0     		beq	.L104
 280              	.LVL37:
 281              	.L90:
 282              		.loc 1 190 0
 283 00a6 A2F14401 		sub	r1, r2, #68
 284 00aa 3429     		cmp	r1, #52
 285 00ac 00F26A81 		bhi	.L28
ARM GAS  /var/folders/m4/4md61f0s1_g0rzfghffqnxvr0000gn/T//ccS6xPmJ.s 			page 6


 286 00b0 DFE811F0 		tbh	[pc, r1, lsl #1]
 287              	.L38:
 288 00b4 4F01     		.2byte	(.L46-.L38)/2
 289 00b6 6801     		.2byte	(.L28-.L38)/2
 290 00b8 6801     		.2byte	(.L28-.L38)/2
 291 00ba 6801     		.2byte	(.L28-.L38)/2
 292 00bc 6801     		.2byte	(.L28-.L38)/2
 293 00be 4F01     		.2byte	(.L46-.L38)/2
 294 00c0 6801     		.2byte	(.L28-.L38)/2
 295 00c2 6801     		.2byte	(.L28-.L38)/2
 296 00c4 6801     		.2byte	(.L28-.L38)/2
 297 00c6 6801     		.2byte	(.L28-.L38)/2
 298 00c8 6801     		.2byte	(.L28-.L38)/2
 299 00ca 2201     		.2byte	(.L31-.L38)/2
 300 00cc 6801     		.2byte	(.L28-.L38)/2
 301 00ce 6801     		.2byte	(.L28-.L38)/2
 302 00d0 6801     		.2byte	(.L28-.L38)/2
 303 00d2 6801     		.2byte	(.L28-.L38)/2
 304 00d4 6801     		.2byte	(.L28-.L38)/2
 305 00d6 5701     		.2byte	(.L32-.L38)/2
 306 00d8 6801     		.2byte	(.L28-.L38)/2
 307 00da 6801     		.2byte	(.L28-.L38)/2
 308 00dc 6501     		.2byte	(.L73-.L38)/2
 309 00de 6801     		.2byte	(.L28-.L38)/2
 310 00e0 6801     		.2byte	(.L28-.L38)/2
 311 00e2 6801     		.2byte	(.L28-.L38)/2
 312 00e4 6801     		.2byte	(.L28-.L38)/2
 313 00e6 6801     		.2byte	(.L28-.L38)/2
 314 00e8 6801     		.2byte	(.L28-.L38)/2
 315 00ea 6801     		.2byte	(.L28-.L38)/2
 316 00ec 6801     		.2byte	(.L28-.L38)/2
 317 00ee 6801     		.2byte	(.L28-.L38)/2
 318 00f0 6801     		.2byte	(.L28-.L38)/2
 319 00f2 5901     		.2byte	(.L34-.L38)/2
 320 00f4 4F01     		.2byte	(.L46-.L38)/2
 321 00f6 6801     		.2byte	(.L28-.L38)/2
 322 00f8 D400     		.2byte	(.L35-.L38)/2
 323 00fa 6801     		.2byte	(.L28-.L38)/2
 324 00fc 6801     		.2byte	(.L28-.L38)/2
 325 00fe 4F01     		.2byte	(.L46-.L38)/2
 326 0100 6801     		.2byte	(.L28-.L38)/2
 327 0102 6801     		.2byte	(.L28-.L38)/2
 328 0104 6801     		.2byte	(.L28-.L38)/2
 329 0106 6801     		.2byte	(.L28-.L38)/2
 330 0108 6801     		.2byte	(.L28-.L38)/2
 331 010a 2201     		.2byte	(.L31-.L38)/2
 332 010c 6801     		.2byte	(.L28-.L38)/2
 333 010e 6801     		.2byte	(.L28-.L38)/2
 334 0110 6801     		.2byte	(.L28-.L38)/2
 335 0112 8900     		.2byte	(.L36-.L38)/2
 336 0114 6801     		.2byte	(.L28-.L38)/2
 337 0116 5701     		.2byte	(.L32-.L38)/2
 338 0118 6801     		.2byte	(.L28-.L38)/2
 339 011a 6801     		.2byte	(.L28-.L38)/2
 340 011c 6501     		.2byte	(.L73-.L38)/2
 341              	.LVL38:
 342              		.p2align 1
ARM GAS  /var/folders/m4/4md61f0s1_g0rzfghffqnxvr0000gn/T//ccS6xPmJ.s 			page 7


 343              	.L105:
 344              		.loc 1 173 0
 345 011e 3B78     		ldrb	r3, [r7]	@ zero_extendqisi2
 346              	.LVL39:
 347 0120 0437     		adds	r7, r7, #4
 348              	.LVL40:
 349              	.L24:
 350              		.loc 1 177 0
 351 0122 03EB410B 		add	fp, r3, r1, lsl #1
 352              	.LVL41:
 353              	.L25:
 354              		.loc 1 169 0
 355 0126 15F8012B 		ldrb	r2, [r5], #1	@ zero_extendqisi2
 356              	.LVL42:
 357              		.loc 1 170 0
 358 012a A2F13003 		sub	r3, r2, #48
 359 012e DBB2     		uxtb	r3, r3
 360 0130 092B     		cmp	r3, #9
 361              		.loc 1 176 0
 362 0132 0BEB8B01 		add	r1, fp, fp, lsl #2
 363              		.loc 1 170 0
 364 0136 F4D9     		bls	.L24
 365              		.loc 1 172 0
 366 0138 2A2A     		cmp	r2, #42
 367 013a F0D0     		beq	.L105
 368              	.LVL43:
 369              		.loc 1 181 0
 370 013c 02F0DF03 		and	r3, r2, #223
 371 0140 4C2B     		cmp	r3, #76
 372 0142 B0D1     		bne	.L90
 373              	.L104:
 374              	.LVL44:
 375              		.loc 1 183 0
 376 0144 2B78     		ldrb	r3, [r5]	@ zero_extendqisi2
 377 0146 002B     		cmp	r3, #0
 378 0148 00F01C81 		beq	.L28
 379              		.loc 1 190 0
 380 014c A3F14402 		sub	r2, r3, #68
 381              	.LVL45:
 382              		.loc 1 184 0
 383 0150 0135     		adds	r5, r5, #1
 384              	.LVL46:
 385              		.loc 1 190 0
 386 0152 342A     		cmp	r2, #52
 387 0154 00F21581 		bhi	.L70
 388 0158 DFE812F0 		tbh	[pc, r2, lsl #1]
 389              	.L30:
 390 015c FB00     		.2byte	(.L46-.L30)/2
 391 015e 1301     		.2byte	(.L70-.L30)/2
 392 0160 1301     		.2byte	(.L70-.L30)/2
 393 0162 1301     		.2byte	(.L70-.L30)/2
 394 0164 1301     		.2byte	(.L70-.L30)/2
 395 0166 FB00     		.2byte	(.L46-.L30)/2
 396 0168 1301     		.2byte	(.L70-.L30)/2
 397 016a 1301     		.2byte	(.L70-.L30)/2
 398 016c 1301     		.2byte	(.L70-.L30)/2
 399 016e 1301     		.2byte	(.L70-.L30)/2
ARM GAS  /var/folders/m4/4md61f0s1_g0rzfghffqnxvr0000gn/T//ccS6xPmJ.s 			page 8


 400 0170 1301     		.2byte	(.L70-.L30)/2
 401 0172 CE00     		.2byte	(.L31-.L30)/2
 402 0174 1301     		.2byte	(.L70-.L30)/2
 403 0176 1301     		.2byte	(.L70-.L30)/2
 404 0178 1301     		.2byte	(.L70-.L30)/2
 405 017a 1301     		.2byte	(.L70-.L30)/2
 406 017c 1301     		.2byte	(.L70-.L30)/2
 407 017e 0301     		.2byte	(.L32-.L30)/2
 408 0180 1301     		.2byte	(.L70-.L30)/2
 409 0182 1301     		.2byte	(.L70-.L30)/2
 410 0184 1101     		.2byte	(.L73-.L30)/2
 411 0186 1301     		.2byte	(.L70-.L30)/2
 412 0188 1301     		.2byte	(.L70-.L30)/2
 413 018a 1301     		.2byte	(.L70-.L30)/2
 414 018c 1301     		.2byte	(.L70-.L30)/2
 415 018e 1301     		.2byte	(.L70-.L30)/2
 416 0190 1301     		.2byte	(.L70-.L30)/2
 417 0192 1301     		.2byte	(.L70-.L30)/2
 418 0194 1301     		.2byte	(.L70-.L30)/2
 419 0196 1301     		.2byte	(.L70-.L30)/2
 420 0198 1301     		.2byte	(.L70-.L30)/2
 421 019a 0501     		.2byte	(.L34-.L30)/2
 422 019c FB00     		.2byte	(.L46-.L30)/2
 423 019e 1301     		.2byte	(.L70-.L30)/2
 424 01a0 8000     		.2byte	(.L35-.L30)/2
 425 01a2 1301     		.2byte	(.L70-.L30)/2
 426 01a4 1301     		.2byte	(.L70-.L30)/2
 427 01a6 FB00     		.2byte	(.L46-.L30)/2
 428 01a8 1301     		.2byte	(.L70-.L30)/2
 429 01aa 1301     		.2byte	(.L70-.L30)/2
 430 01ac 1301     		.2byte	(.L70-.L30)/2
 431 01ae 1301     		.2byte	(.L70-.L30)/2
 432 01b0 1301     		.2byte	(.L70-.L30)/2
 433 01b2 CE00     		.2byte	(.L31-.L30)/2
 434 01b4 1301     		.2byte	(.L70-.L30)/2
 435 01b6 1301     		.2byte	(.L70-.L30)/2
 436 01b8 1301     		.2byte	(.L70-.L30)/2
 437 01ba 3500     		.2byte	(.L36-.L30)/2
 438 01bc 1301     		.2byte	(.L70-.L30)/2
 439 01be 0301     		.2byte	(.L32-.L30)/2
 440 01c0 1301     		.2byte	(.L70-.L30)/2
 441 01c2 1301     		.2byte	(.L70-.L30)/2
 442 01c4 1101     		.2byte	(.L73-.L30)/2
 443              	.LVL47:
 444              		.p2align 1
 445              	.L36:
 446              		.loc 1 197 0
 447 01c6 3C68     		ldr	r4, [r7]
 448              		.loc 1 198 0
 449 01c8 8C4B     		ldr	r3, .L110
 450 01ca 002C     		cmp	r4, #0
 451 01cc 08BF     		it	eq
 452 01ce 1C46     		moveq	r4, r3
 453              		.loc 1 197 0
 454 01d0 0437     		adds	r7, r7, #4
 455              	.LVL48:
 456              		.loc 1 201 0
ARM GAS  /var/folders/m4/4md61f0s1_g0rzfghffqnxvr0000gn/T//ccS6xPmJ.s 			page 9


 457 01d2 2378     		ldrb	r3, [r4]	@ zero_extendqisi2
 458              		.loc 1 199 0
 459 01d4 BBF1000F 		cmp	fp, #0
 460 01d8 00F0F180 		beq	.L42
 461              	.LVL49:
 462              		.loc 1 201 0 discriminator 1
 463 01dc 002B     		cmp	r3, #0
 464 01de 00F0F380 		beq	.L43
 465              		.loc 1 201 0 is_stmt 0
 466 01e2 0BF1FF3B 		add	fp, fp, #-1
 467              	.LVL50:
 468              	.L62:
 469              		.loc 1 201 0 discriminator 4
 470 01e6 2046     		mov	r0, r4
 471 01e8 02E0     		b	.L45
 472              	.LVL51:
 473              	.L106:
 474              		.loc 1 201 0 discriminator 3
 475 01ea BBF1010B 		subs	fp, fp, #1
 476              	.LVL52:
 477 01ee 03D4     		bmi	.L95
 478              	.LVL53:
 479              	.L45:
 480              		.loc 1 201 0 discriminator 4
 481 01f0 10F8013F 		ldrb	r3, [r0, #1]!	@ zero_extendqisi2
 482              	.LVL54:
 483 01f4 002B     		cmp	r3, #0
 484 01f6 F8D1     		bne	.L106
 485              	.LVL55:
 486              	.L95:
 487 01f8 001B     		subs	r0, r0, r4
 488              	.LVL56:
 489              		.loc 1 251 0 is_stmt 1
 490 01fa C0EB0808 		rsb	r8, r0, r8
 491              	.LVL57:
 492 01fe 00F1FF3B 		add	fp, r0, #-1
 493              		.loc 1 196 0
 494 0202 4FF02009 		mov	r9, #32
 495              	.LVL58:
 496 0206 28EAE878 		bic	r8, r8, r8, asr #31
 497              	.LVL59:
 498              		.loc 1 253 0
 499 020a 002E     		cmp	r6, #0
 500 020c 00F08780 		beq	.L64
 501              	.L53:
 502              	.LVL60:
 503              		.loc 1 266 0
 504 0210 BBF1000F 		cmp	fp, #0
 505 0214 11DB     		blt	.L58
 506              	.LVL61:
 507              	.L63:
 508 0216 5E46     		mov	r6, fp
 509              	.LVL62:
 510              	.L59:
 511              		.loc 1 267 0
 512 0218 DAF80030 		ldr	r3, [r10]
 513 021c 14F8011B 		ldrb	r1, [r4], #1	@ zero_extendqisi2
ARM GAS  /var/folders/m4/4md61f0s1_g0rzfghffqnxvr0000gn/T//ccS6xPmJ.s 			page 10


 514              	.LVL63:
 515 0220 9B68     		ldr	r3, [r3, #8]
 516              		.loc 1 266 0
 517 0222 013E     		subs	r6, r6, #1
 518              	.LVL64:
 519              		.loc 1 267 0
 520 0224 5046     		mov	r0, r10
 521 0226 9847     		blx	r3
 522              	.LVL65:
 523              		.loc 1 266 0
 524 0228 731C     		adds	r3, r6, #1
 525 022a F5D1     		bne	.L59
 526 022c 009B     		ldr	r3, [sp]
 527 022e 0133     		adds	r3, r3, #1
 528 0230 BBF1000F 		cmp	fp, #0
 529 0234 A8BF     		it	ge
 530 0236 5B44     		addge	r3, r3, fp
 531 0238 0093     		str	r3, [sp]
 532              	.LVL66:
 533              	.L58:
 534              		.loc 1 271 0
 535 023a B8F1000F 		cmp	r8, #0
 536 023e 3FF4EFAE 		beq	.L14
 537 0242 4446     		mov	r4, r8
 538              	.LVL67:
 539              	.L60:
 540              		.loc 1 272 0
 541 0244 DAF80030 		ldr	r3, [r10]
 542 0248 5046     		mov	r0, r10
 543 024a 9B68     		ldr	r3, [r3, #8]
 544 024c 4946     		mov	r1, r9
 545 024e 9847     		blx	r3
 546              	.LVL68:
 547              		.loc 1 271 0
 548 0250 013C     		subs	r4, r4, #1
 549              	.LVL69:
 550 0252 F7D1     		bne	.L60
 551 0254 009B     		ldr	r3, [sp]
 552 0256 4344     		add	r3, r3, r8
 553 0258 0093     		str	r3, [sp]
 554 025a E1E6     		b	.L14
 555              	.LVL70:
 556              	.L35:
 557              		.loc 1 220 0
 558 025c 0737     		adds	r7, r7, #7
 559 025e 27F00707 		bic	r7, r7, #7
 560 0262 D7E90001 		ldrd	r0, [r7]
 561 0266 FFF7FEFF 		bl	__aeabi_d2f
 562              	.LVL71:
 563 026a 08EE100A 		fmsr	s16, r0
 564              		.loc 1 221 0
 565 026e B5EEC08A 		fcmpezs	s16
 566 0272 F1EE10FA 		fmstat
 567              		.loc 1 220 0
 568 0276 07F10807 		add	r7, r7, #8
 569              	.LVL72:
 570              		.loc 1 221 0
ARM GAS  /var/folders/m4/4md61f0s1_g0rzfghffqnxvr0000gn/T//ccS6xPmJ.s 			page 11


 571 027a 00F1B480 		bmi	.L107
 572              		.loc 1 143 0
 573 027e 06A8     		add	r0, sp, #24
 574              	.LVL73:
 575              	.L49:
 576              	.LBB12:
 577              	.LBB13:
 578              		.loc 1 83 0
 579 0280 0BF1FF3B 		add	fp, fp, #-1
 580              	.LVL74:
 581              		.loc 1 87 0
 582 0284 FDEEC87A 		ftosizs	s15, s16
 583 0288 BBF1080F 		cmp	fp, #8
 584 028c 28BF     		it	cs
 585 028e 4FF0080B 		movcs	fp, #8
 586              	.LVL75:
 587              		.loc 1 85 0
 588 0292 5B4C     		ldr	r4, .L110+4
 589              		.loc 1 87 0
 590 0294 CDED027A 		fsts	s15, [sp, #8]	@ int
 591              		.loc 1 88 0
 592 0298 17EE901A 		fmrs	r1, s15	@ int
 593 029c 0A22     		movs	r2, #10
 594 029e 0023     		movs	r3, #0
 595              		.loc 1 85 0
 596 02a0 54F82B40 		ldr	r4, [r4, fp, lsl #2]
 597              	.LVL76:
 598              		.loc 1 88 0
 599 02a4 FFF7FEFF 		bl	long_to_string_with_divisor
 600              	.LVL77:
 601              		.loc 1 89 0
 602 02a8 8346     		mov	fp, r0
 603 02aa 2E23     		movs	r3, #46
 604 02ac 0BF8013B 		strb	r3, [fp], #1
 605              	.LVL78:
 606              	.LBE13:
 607              	.LBE12:
 608              		.loc 1 225 0
 609 02b0 18EE100A 		fmrs	r0, s16
 610 02b4 FFF7FEFF 		bl	__aeabi_f2d
 611              	.LVL79:
 612 02b8 CDE90401 		strd	r0, [sp, #16]
 613              	.LBB15:
 614              	.LBB14:
 615              		.loc 1 90 0
 616 02bc 0298     		ldr	r0, [sp, #8]
 617 02be FFF7FEFF 		bl	__aeabi_i2d
 618              	.LVL80:
 619 02c2 0246     		mov	r2, r0
 620 02c4 0B46     		mov	r3, r1
 621 02c6 DDE90401 		ldrd	r0, [sp, #16]
 622 02ca FFF7FEFF 		bl	__aeabi_dsub
 623              	.LVL81:
 624 02ce CDE90201 		strd	r0, [sp, #8]
 625              	.LVL82:
 626 02d2 2046     		mov	r0, r4
 627 02d4 FFF7FEFF 		bl	__aeabi_ui2d
ARM GAS  /var/folders/m4/4md61f0s1_g0rzfghffqnxvr0000gn/T//ccS6xPmJ.s 			page 12


 628              	.LVL83:
 629 02d8 0246     		mov	r2, r0
 630 02da 0B46     		mov	r3, r1
 631 02dc DDE90201 		ldrd	r0, [sp, #8]
 632 02e0 FFF7FEFF 		bl	__aeabi_dmul
 633              	.LVL84:
 634 02e4 FFF7FEFF 		bl	__aeabi_d2iz
 635              	.LVL85:
 636              		.loc 1 91 0
 637 02e8 464B     		ldr	r3, .L110+8
 638 02ea A3FB0423 		umull	r2, r3, r3, r4
 639              		.loc 1 90 0
 640 02ee 0146     		mov	r1, r0
 641              		.loc 1 91 0
 642 02f0 DB08     		lsrs	r3, r3, #3
 643 02f2 5846     		mov	r0, fp
 644 02f4 0A22     		movs	r2, #10
 645 02f6 04E0     		b	.L97
 646              	.LVL86:
 647              	.L31:
 648              	.LBE14:
 649              	.LBE15:
 650 02f8 0822     		movs	r2, #8
 651              	.LVL87:
 652              	.L98:
 653              		.loc 1 243 0
 654 02fa 3968     		ldr	r1, [r7]
 655              	.LVL88:
 656              	.LBB16:
 657              	.LBB17:
 658              		.loc 1 72 0
 659 02fc 06A8     		add	r0, sp, #24
 660              	.LVL89:
 661              	.LBE17:
 662              	.LBE16:
 663              		.loc 1 243 0
 664 02fe 0437     		adds	r7, r7, #4
 665              	.LVL90:
 666              	.L96:
 667              	.LBB19:
 668              	.LBB18:
 669              		.loc 1 72 0
 670 0300 0023     		movs	r3, #0
 671              	.LVL91:
 672              	.L97:
 673 0302 FFF7FEFF 		bl	long_to_string_with_divisor
 674              	.LVL92:
 675 0306 06AB     		add	r3, sp, #24
 676              	.LVL93:
 677 0308 C01A     		subs	r0, r0, r3
 678 030a 00F1FF3B 		add	fp, r0, #-1
 679              	.LBE18:
 680              	.LBE19:
 681              		.loc 1 144 0
 682 030e 1C46     		mov	r4, r3
 683              	.LVL94:
 684              	.L40:
ARM GAS  /var/folders/m4/4md61f0s1_g0rzfghffqnxvr0000gn/T//ccS6xPmJ.s 			page 13


 685              		.loc 1 251 0
 686 0310 C0EB0808 		rsb	r8, r0, r8
 687              	.LVL95:
 688 0314 28EAE878 		bic	r8, r8, r8, asr #31
 689              	.LVL96:
 690              		.loc 1 253 0
 691 0318 002E     		cmp	r6, #0
 692 031a 7FF479AF 		bne	.L53
 693              	.LVL97:
 694              	.L64:
 695              		.loc 1 254 0
 696 031e C8F10006 		rsb	r6, r8, #0
 697              	.LVL98:
 698              		.loc 1 255 0
 699 0322 002E     		cmp	r6, #0
 700 0324 36D0     		beq	.L54
 701              		.loc 1 256 0
 702 0326 2178     		ldrb	r1, [r4]	@ zero_extendqisi2
 703 0328 2D29     		cmp	r1, #45
 704 032a 39D0     		beq	.L108
 705              	.L55:
 706              		.loc 1 258 0 discriminator 1
 707 032c B046     		mov	r8, r6
 708              	.LVL99:
 709              	.L56:
 710              		.loc 1 262 0 discriminator 1
 711 032e DAF80030 		ldr	r3, [r10]
 712 0332 5046     		mov	r0, r10
 713 0334 9B68     		ldr	r3, [r3, #8]
 714 0336 4946     		mov	r1, r9
 715 0338 9847     		blx	r3
 716              	.LVL100:
 717              		.loc 1 264 0 discriminator 1
 718 033a 18F10108 		adds	r8, r8, #1
 719              	.LVL101:
 720 033e F6D1     		bne	.L56
 721 0340 009B     		ldr	r3, [sp]
 722              		.loc 1 266 0
 723 0342 BBF1000F 		cmp	fp, #0
 724 0346 A3EB0603 		sub	r3, r3, r6
 725 034a 0093     		str	r3, [sp]
 726              	.LVL102:
 727 034c BFF663AF 		bge	.L63
 728 0350 66E6     		b	.L14
 729              	.LVL103:
 730              	.L46:
 731              		.loc 1 211 0
 732 0352 3968     		ldr	r1, [r7]
 733              	.LVL104:
 734              		.loc 1 212 0
 735 0354 0029     		cmp	r1, #0
 736              		.loc 1 211 0
 737 0356 07F10407 		add	r7, r7, #4
 738              		.loc 1 212 0
 739 035a 3DDB     		blt	.L109
 740              		.loc 1 143 0
 741 035c 06A8     		add	r0, sp, #24
ARM GAS  /var/folders/m4/4md61f0s1_g0rzfghffqnxvr0000gn/T//ccS6xPmJ.s 			page 14


 742              	.LVL105:
 743              	.L48:
 744              	.LBB20:
 745              	.LBB21:
 746              		.loc 1 72 0
 747 035e 0A22     		movs	r2, #10
 748 0360 CEE7     		b	.L96
 749              	.LVL106:
 750              	.L32:
 751              	.LBE21:
 752              	.LBE20:
 753              		.loc 1 235 0
 754 0362 0A22     		movs	r2, #10
 755 0364 C9E7     		b	.L98
 756              	.LVL107:
 757              	.L34:
 758              		.loc 1 193 0
 759 0366 3B68     		ldr	r3, [r7]
 760 0368 8DF81830 		strb	r3, [sp, #24]
 761 036c 019B     		ldr	r3, [sp, #4]
 762 036e 0437     		adds	r7, r7, #4
 763 0370 1846     		mov	r0, r3
 764 0372 03F1FF3B 		add	fp, r3, #-1
 765              	.LVL108:
 766              		.loc 1 192 0
 767 0376 4FF02009 		mov	r9, #32
 768              		.loc 1 144 0
 769 037a 06AC     		add	r4, sp, #24
 770              	.LVL109:
 771              		.loc 1 194 0
 772 037c C8E7     		b	.L40
 773              	.LVL110:
 774              	.L73:
 775              	.L39:
 776              		.loc 1 190 0
 777 037e 1022     		movs	r2, #16
 778 0380 BBE7     		b	.L98
 779              	.LVL111:
 780              	.L70:
 781 0382 1A46     		mov	r2, r3
 782              	.LVL112:
 783              	.L28:
 784 0384 019B     		ldr	r3, [sp, #4]
 785              		.loc 1 247 0
 786 0386 8DF81820 		strb	r2, [sp, #24]
 787 038a 1846     		mov	r0, r3
 788 038c 03F1FF3B 		add	fp, r3, #-1
 789              	.LVL113:
 790              		.loc 1 144 0
 791 0390 06AC     		add	r4, sp, #24
 792              	.LVL114:
 793              		.loc 1 248 0
 794 0392 BDE7     		b	.L40
 795              	.LVL115:
 796              	.L54:
 797              		.loc 1 266 0
 798 0394 BBF1000F 		cmp	fp, #0
ARM GAS  /var/folders/m4/4md61f0s1_g0rzfghffqnxvr0000gn/T//ccS6xPmJ.s 			page 15


 799 0398 B046     		mov	r8, r6
 800              	.LVL116:
 801 039a BFF63CAF 		bge	.L63
 802 039e 3FE6     		b	.L14
 803              	.LVL117:
 804              	.L108:
 805              		.loc 1 256 0 discriminator 1
 806 03a0 B9F1300F 		cmp	r9, #48
 807 03a4 C2D1     		bne	.L55
 808              		.loc 1 257 0
 809 03a6 DAF80030 		ldr	r3, [r10]
 810 03aa 5046     		mov	r0, r10
 811 03ac 9B68     		ldr	r3, [r3, #8]
 812 03ae 9847     		blx	r3
 813              	.LVL118:
 814              		.loc 1 258 0
 815 03b0 009B     		ldr	r3, [sp]
 816 03b2 0133     		adds	r3, r3, #1
 817              		.loc 1 257 0
 818 03b4 0134     		adds	r4, r4, #1
 819              	.LVL119:
 820              		.loc 1 258 0
 821 03b6 0093     		str	r3, [sp]
 822              	.LVL120:
 823 03b8 0BF1FF3B 		add	fp, fp, #-1
 824              	.LVL121:
 825 03bc B6E7     		b	.L55
 826              	.LVL122:
 827              	.L42:
 828              		.loc 1 201 0
 829 03be 47F6FE7B 		movw	fp, #32766
 830 03c2 002B     		cmp	r3, #0
 831 03c4 7FF40FAF 		bne	.L62
 832              	.LVL123:
 833              	.L43:
 834 03c8 28EAE878 		bic	r8, r8, r8, asr #31
 835              	.LVL124:
 836              		.loc 1 253 0
 837 03cc 9EB9     		cbnz	r6, .L77
 838 03ce 4FF0FF3B 		mov	fp, #-1
 839 03d2 4FF02009 		mov	r9, #32
 840 03d6 A2E7     		b	.L64
 841              	.LVL125:
 842              	.L109:
 843              		.loc 1 213 0
 844 03d8 2D23     		movs	r3, #45
 845              		.loc 1 214 0
 846 03da 4942     		negs	r1, r1
 847              	.LVL126:
 848              		.loc 1 213 0
 849 03dc 8DF81830 		strb	r3, [sp, #24]
 850 03e0 0DF11900 		add	r0, sp, #25
 851              	.LVL127:
 852 03e4 BBE7     		b	.L48
 853              	.LVL128:
 854              	.L107:
 855              		.loc 1 222 0
ARM GAS  /var/folders/m4/4md61f0s1_g0rzfghffqnxvr0000gn/T//ccS6xPmJ.s 			page 16


 856 03e6 2D23     		movs	r3, #45
 857              		.loc 1 223 0
 858 03e8 B1EE488A 		fnegs	s16, s16
 859              	.LVL129:
 860              		.loc 1 222 0
 861 03ec 8DF81830 		strb	r3, [sp, #24]
 862 03f0 0DF11900 		add	r0, sp, #25
 863              	.LVL130:
 864 03f4 44E7     		b	.L49
 865              	.LVL131:
 866              	.L77:
 867              		.loc 1 253 0
 868 03f6 4FF02009 		mov	r9, #32
 869 03fa 1EE7     		b	.L58
 870              	.L111:
 871              		.align	2
 872              	.L110:
 873 03fc 00000000 		.word	.LC0
 874 0400 00000000 		.word	.LANCHOR0
 875 0404 CDCCCCCC 		.word	-858993459
 876              		.cfi_endproc
 877              	.LFE271:
 878              		.size	chvprintf, .-chvprintf
 879              		.section	.text.chprintf,"ax",%progbits
 880              		.align	2
 881              		.p2align 4,,15
 882              		.global	chprintf
 883              		.thumb
 884              		.thumb_func
 885              		.type	chprintf, %function
 886              	chprintf:
 887              	.LFB272:
 888              		.loc 1 302 0
 889              		.cfi_startproc
 890              		@ args = 4, pretend = 12, frame = 8
 891              		@ frame_needed = 0, uses_anonymous_args = 1
 892              	.LVL132:
 893 0000 0EB4     		push	{r1, r2, r3}
 894              		.cfi_def_cfa_offset 12
 895              		.cfi_offset 1, -12
 896              		.cfi_offset 2, -8
 897              		.cfi_offset 3, -4
 898 0002 00B5     		push	{lr}
 899              		.cfi_def_cfa_offset 16
 900              		.cfi_offset 14, -16
 901 0004 82B0     		sub	sp, sp, #8
 902              		.cfi_def_cfa_offset 24
 903              		.loc 1 302 0
 904 0006 03AA     		add	r2, sp, #12
 905 0008 52F8041B 		ldr	r1, [r2], #4
 906              		.loc 1 306 0
 907 000c 0192     		str	r2, [sp, #4]
 908              		.loc 1 307 0
 909 000e FFF7FEFF 		bl	chvprintf
 910              	.LVL133:
 911              		.loc 1 311 0
 912 0012 02B0     		add	sp, sp, #8
ARM GAS  /var/folders/m4/4md61f0s1_g0rzfghffqnxvr0000gn/T//ccS6xPmJ.s 			page 17


 913              		.cfi_def_cfa_offset 16
 914              		@ sp needed
 915 0014 5DF804EB 		ldr	lr, [sp], #4
 916              		.cfi_restore 14
 917              		.cfi_def_cfa_offset 12
 918 0018 03B0     		add	sp, sp, #12
 919              		.cfi_restore 3
 920              		.cfi_restore 2
 921              		.cfi_restore 1
 922              		.cfi_def_cfa_offset 0
 923 001a 7047     		bx	lr
 924              		.cfi_endproc
 925              	.LFE272:
 926              		.size	chprintf, .-chprintf
 927              		.section	.text.chsnprintf,"ax",%progbits
 928              		.align	2
 929              		.p2align 4,,15
 930              		.global	chsnprintf
 931              		.thumb
 932              		.thumb_func
 933              		.type	chsnprintf, %function
 934              	chsnprintf:
 935              	.LFB273:
 936              		.loc 1 341 0
 937              		.cfi_startproc
 938              		@ args = 4, pretend = 8, frame = 24
 939              		@ frame_needed = 0, uses_anonymous_args = 1
 940              	.LVL134:
 941 0000 0CB4     		push	{r2, r3}
 942              		.cfi_def_cfa_offset 8
 943              		.cfi_offset 2, -8
 944              		.cfi_offset 3, -4
 945 0002 30B5     		push	{r4, r5, lr}
 946              		.cfi_def_cfa_offset 20
 947              		.cfi_offset 4, -20
 948              		.cfi_offset 5, -16
 949              		.cfi_offset 14, -12
 950 0004 0546     		mov	r5, r0
 951 0006 87B0     		sub	sp, sp, #28
 952              		.cfi_def_cfa_offset 48
 953              		.loc 1 348 0
 954 0008 0C46     		mov	r4, r1
 955 000a B1B1     		cbz	r1, .L115
 956              	.LVL135:
 957              		.loc 1 355 0
 958 000c 01A8     		add	r0, sp, #4
 959              	.LVL136:
 960 000e 2946     		mov	r1, r5
 961              	.LVL137:
 962 0010 621E     		subs	r2, r4, #1
 963              	.LVL138:
 964 0012 0023     		movs	r3, #0
 965 0014 FFF7FEFF 		bl	msObjectInit
 966              	.LVL139:
 967              		.loc 1 359 0
 968 0018 0BAB     		add	r3, sp, #44
 969              		.loc 1 360 0
ARM GAS  /var/folders/m4/4md61f0s1_g0rzfghffqnxvr0000gn/T//ccS6xPmJ.s 			page 18


 970 001a 1A46     		mov	r2, r3
 971 001c 01A8     		add	r0, sp, #4
 972              	.LVL140:
 973 001e 0A99     		ldr	r1, [sp, #40]
 974              		.loc 1 359 0
 975 0020 0093     		str	r3, [sp]
 976              		.loc 1 360 0
 977 0022 FFF7FEFF 		bl	chvprintf
 978              	.LVL141:
 979              		.loc 1 364 0
 980 0026 049B     		ldr	r3, [sp, #16]
 981 0028 9C42     		cmp	r4, r3
 982 002a 01D9     		bls	.L117
 983              		.loc 1 365 0
 984 002c 0022     		movs	r2, #0
 985 002e EA54     		strb	r2, [r5, r3]
 986              	.L117:
 987              		.loc 1 369 0
 988 0030 07B0     		add	sp, sp, #28
 989              		.cfi_remember_state
 990              		.cfi_def_cfa_offset 20
 991              		@ sp needed
 992 0032 BDE83040 		pop	{r4, r5, lr}
 993              		.cfi_restore 14
 994              		.cfi_restore 5
 995              		.cfi_restore 4
 996              		.cfi_def_cfa_offset 8
 997              	.LVL142:
 998 0036 02B0     		add	sp, sp, #8
 999              		.cfi_restore 3
 1000              		.cfi_restore 2
 1001              		.cfi_def_cfa_offset 0
 1002 0038 7047     		bx	lr
 1003              	.LVL143:
 1004              	.L115:
 1005              		.cfi_restore_state
 1006              		.loc 1 355 0
 1007 003a 0146     		mov	r1, r0
 1008              	.LVL144:
 1009 003c 2246     		mov	r2, r4
 1010 003e 01A8     		add	r0, sp, #4
 1011              	.LVL145:
 1012 0040 2346     		mov	r3, r4
 1013 0042 FFF7FEFF 		bl	msObjectInit
 1014              	.LVL146:
 1015              		.loc 1 359 0
 1016 0046 0BAB     		add	r3, sp, #44
 1017              		.loc 1 360 0
 1018 0048 01A8     		add	r0, sp, #4
 1019              	.LVL147:
 1020 004a 1A46     		mov	r2, r3
 1021 004c 0A99     		ldr	r1, [sp, #40]
 1022              		.loc 1 359 0
 1023 004e 0093     		str	r3, [sp]
 1024              		.loc 1 360 0
 1025 0050 FFF7FEFF 		bl	chvprintf
 1026              	.LVL148:
ARM GAS  /var/folders/m4/4md61f0s1_g0rzfghffqnxvr0000gn/T//ccS6xPmJ.s 			page 19


 1027              		.loc 1 369 0
 1028 0054 07B0     		add	sp, sp, #28
 1029              		.cfi_def_cfa_offset 20
 1030              		@ sp needed
 1031 0056 BDE83040 		pop	{r4, r5, lr}
 1032              		.cfi_restore 4
 1033              		.cfi_restore 5
 1034              		.cfi_restore 14
 1035              		.cfi_def_cfa_offset 8
 1036              	.LVL149:
 1037 005a 02B0     		add	sp, sp, #8
 1038              		.cfi_restore 2
 1039              		.cfi_restore 3
 1040              		.cfi_def_cfa_offset 0
 1041 005c 7047     		bx	lr
 1042              		.cfi_endproc
 1043              	.LFE273:
 1044              		.size	chsnprintf, .-chsnprintf
 1045 005e 00BF     		.section	.rodata.str1.4,"aMS",%progbits,1
 1046              		.align	2
 1047              	.LC0:
 1048 0000 286E756C 		.ascii	"(null)\000"
 1048      6C2900
 1049              		.section	.rodata.pow10,"a",%progbits
 1050              		.align	2
 1051              		.set	.LANCHOR0,. + 0
 1052              		.type	pow10, %object
 1053              		.size	pow10, 36
 1054              	pow10:
 1055 0000 0A000000 		.word	10
 1056 0004 64000000 		.word	100
 1057 0008 E8030000 		.word	1000
 1058 000c 10270000 		.word	10000
 1059 0010 A0860100 		.word	100000
 1060 0014 40420F00 		.word	1000000
 1061 0018 80969800 		.word	10000000
 1062 001c 00E1F505 		.word	100000000
 1063 0020 00CA9A3B 		.word	1000000000
 1064              		.text
 1065              	.Letext0:
 1066              		.file 2 "/usr/local/Cellar/gcc-arm-none-eabi-49/20150609/lib/gcc/arm-none-eabi/4.9.3/include/stdde
 1067              		.file 3 "/usr/local/Cellar/gcc-arm-none-eabi-49/20150609/arm-none-eabi/include/machine/_default_ty
 1068              		.file 4 "/usr/local/Cellar/gcc-arm-none-eabi-49/20150609/arm-none-eabi/include/sys/_stdint.h"
 1069              		.file 5 "ChibiOS_16.1.4/os/rt/ports/ARMCMx/compilers/GCC/chtypes.h"
 1070              		.file 6 "ChibiOS_16.1.4/os/rt/include/chsystypes.h"
 1071              		.file 7 "ChibiOS_16.1.4/os/rt/include/chschd.h"
 1072              		.file 8 "ChibiOS_16.1.4/os/rt/ports/ARMCMx/chcore.h"
 1073              		.file 9 "ChibiOS_16.1.4/os/rt/ports/ARMCMx/chcore_v7m.h"
 1074              		.file 10 "ChibiOS_16.1.4/os/rt/include/chtm.h"
 1075              		.file 11 "ChibiOS_16.1.4/os/rt/include/chsem.h"
 1076              		.file 12 "ChibiOS_16.1.4/os/rt/include/chmtx.h"
 1077              		.file 13 "ChibiOS_16.1.4/os/rt/include/chstreams.h"
 1078              		.file 14 "/usr/local/Cellar/gcc-arm-none-eabi-49/20150609/lib/gcc/arm-none-eabi/4.9.3/include/stda
 1079              		.file 15 "<built-in>"
 1080              		.file 16 "ChibiOS_16.1.4/os/hal/lib/streams/memstreams.h"
 1081              		.file 17 "ChibiOS_16.1.4/os/ext/CMSIS/include/core_cm4.h"