ARM GAS  /var/folders/m4/4md61f0s1_g0rzfghffqnxvr0000gn/T//ccL3lI7x.s 			page 1


   1              		.syntax unified
   2              		.cpu cortex-m4
   3              		.eabi_attribute 27, 1
   4              		.eabi_attribute 28, 1
   5              		.fpu fpv4-sp-d16
   6              		.eabi_attribute 20, 1
   7              		.eabi_attribute 21, 1
   8              		.eabi_attribute 23, 3
   9              		.eabi_attribute 24, 1
  10              		.eabi_attribute 25, 1
  11              		.eabi_attribute 26, 1
  12              		.eabi_attribute 30, 2
  13              		.eabi_attribute 34, 1
  14              		.eabi_attribute 18, 4
  15              		.thumb
  16              		.file	"chqueues.c"
  17              		.text
  18              	.Ltext0:
  19              		.cfi_sections	.debug_frame
  20              		.section	.text.chIQObjectInit,"ax",%progbits
  21              		.align	2
  22              		.p2align 4,,15
  23              		.global	chIQObjectInit
  24              		.thumb
  25              		.thumb_func
  26              		.type	chIQObjectInit, %function
  27              	chIQObjectInit:
  28              	.LFB231:
  29              		.file 1 "ChibiOS_16.1.4/os/rt/src/chqueues.c"
  30              		.loc 1 88 0
  31              		.cfi_startproc
  32              		@ args = 4, pretend = 0, frame = 0
  33              		@ frame_needed = 0, uses_anonymous_args = 0
  34              		@ link register save eliminated.
  35              	.LVL0:
  36 0000 30B4     		push	{r4, r5}
  37              		.cfi_def_cfa_offset 8
  38              		.cfi_offset 4, -8
  39              		.cfi_offset 5, -4
  40              		.loc 1 88 0
  41 0002 029C     		ldr	r4, [sp, #8]
  42              		.loc 1 97 0
  43 0004 0462     		str	r4, [r0, #32]
  44              		.loc 1 91 0
  45 0006 0025     		movs	r5, #0
  46              		.loc 1 95 0
  47 0008 0A44     		add	r2, r2, r1
  48              	.LVL1:
  49              		.loc 1 91 0
  50 000a 8560     		str	r5, [r0, #8]
  51              		.loc 1 95 0
  52 000c 0261     		str	r2, [r0, #16]
  53              	.LBB108:
  54              	.LBB109:
  55              	.LBB110:
  56              		.file 2 "ChibiOS_16.1.4/os/rt/include/chschd.h"
  57              		.loc 2 604 0
ARM GAS  /var/folders/m4/4md61f0s1_g0rzfghffqnxvr0000gn/T//ccL3lI7x.s 			page 2


  58 000e 0060     		str	r0, [r0]
  59              		.loc 2 605 0
  60 0010 4060     		str	r0, [r0, #4]
  61              	.LBE110:
  62              	.LBE109:
  63              	.LBE108:
  64              		.loc 1 92 0
  65 0012 C160     		str	r1, [r0, #12]
  66              		.loc 1 93 0
  67 0014 8161     		str	r1, [r0, #24]
  68              		.loc 1 94 0
  69 0016 4161     		str	r1, [r0, #20]
  70              		.loc 1 96 0
  71 0018 C361     		str	r3, [r0, #28]
  72              		.loc 1 98 0
  73 001a 30BC     		pop	{r4, r5}
  74              		.cfi_restore 5
  75              		.cfi_restore 4
  76              		.cfi_def_cfa_offset 0
  77              	.LVL2:
  78 001c 7047     		bx	lr
  79              		.cfi_endproc
  80              	.LFE231:
  81              		.size	chIQObjectInit, .-chIQObjectInit
  82 001e 00BF     		.section	.text.chIQResetI,"ax",%progbits
  83              		.align	2
  84              		.p2align 4,,15
  85              		.global	chIQResetI
  86              		.thumb
  87              		.thumb_func
  88              		.type	chIQResetI, %function
  89              	chIQResetI:
  90              	.LFB232:
  91              		.loc 1 111 0
  92              		.cfi_startproc
  93              		@ args = 0, pretend = 0, frame = 0
  94              		@ frame_needed = 0, uses_anonymous_args = 0
  95              		@ link register save eliminated.
  96              	.LVL3:
  97              		.loc 1 117 0
  98 0000 0021     		movs	r1, #0
  99              		.loc 1 115 0
 100 0002 C268     		ldr	r2, [r0, #12]
 101              		.loc 1 117 0
 102 0004 8160     		str	r1, [r0, #8]
 103              		.loc 1 115 0
 104 0006 8261     		str	r2, [r0, #24]
 105              		.loc 1 116 0
 106 0008 4261     		str	r2, [r0, #20]
 107              		.loc 1 118 0
 108 000a 6FF00101 		mvn	r1, #1
 109 000e FFF7FEBF 		b	chThdDequeueAllI
 110              	.LVL4:
 111              		.cfi_endproc
 112              	.LFE232:
 113              		.size	chIQResetI, .-chIQResetI
 114 0012 00BF     		.section	.text.chIQPutI,"ax",%progbits
ARM GAS  /var/folders/m4/4md61f0s1_g0rzfghffqnxvr0000gn/T//ccL3lI7x.s 			page 3


 115              		.align	2
 116              		.p2align 4,,15
 117              		.global	chIQPutI
 118              		.thumb
 119              		.thumb_func
 120              		.type	chIQPutI, %function
 121              	chIQPutI:
 122              	.LFB233:
 123              		.loc 1 134 0
 124              		.cfi_startproc
 125              		@ args = 0, pretend = 0, frame = 0
 126              		@ frame_needed = 0, uses_anonymous_args = 0
 127              	.LVL5:
 128              	.LBB111:
 129              	.LBB112:
 130              		.file 3 "ChibiOS_16.1.4/os/rt/include/chqueues.h"
 131              		.loc 3 325 0
 132 0000 4369     		ldr	r3, [r0, #20]
 133 0002 8269     		ldr	r2, [r0, #24]
 134 0004 9342     		cmp	r3, r2
 135              	.LBE112:
 136              	.LBE111:
 137              		.loc 1 134 0
 138 0006 10B5     		push	{r4, lr}
 139              		.cfi_def_cfa_offset 8
 140              		.cfi_offset 4, -8
 141              		.cfi_offset 14, -4
 142              	.LBB115:
 143              	.LBB113:
 144              		.loc 3 325 0
 145 0008 10D0     		beq	.L13
 146              	.L5:
 147              	.LBE113:
 148              	.LBE115:
 149              		.loc 1 142 0
 150 000a 8268     		ldr	r2, [r0, #8]
 151              		.loc 1 143 0
 152 000c 5C1C     		adds	r4, r3, #1
 153              		.loc 1 142 0
 154 000e 0132     		adds	r2, r2, #1
 155 0010 8260     		str	r2, [r0, #8]
 156              		.loc 1 143 0
 157 0012 4461     		str	r4, [r0, #20]
 158 0014 1970     		strb	r1, [r3]
 159              		.loc 1 144 0
 160 0016 4269     		ldr	r2, [r0, #20]
 161 0018 0369     		ldr	r3, [r0, #16]
 162 001a 9A42     		cmp	r2, r3
 163 001c 01D3     		bcc	.L8
 164              		.loc 1 145 0
 165 001e C368     		ldr	r3, [r0, #12]
 166 0020 4361     		str	r3, [r0, #20]
 167              	.L8:
 168              		.loc 1 148 0
 169 0022 0021     		movs	r1, #0
 170              	.LVL6:
 171 0024 FFF7FEFF 		bl	chThdDequeueNextI
ARM GAS  /var/folders/m4/4md61f0s1_g0rzfghffqnxvr0000gn/T//ccL3lI7x.s 			page 4


 172              	.LVL7:
 173              		.loc 1 150 0
 174 0028 0020     		movs	r0, #0
 175 002a 10BD     		pop	{r4, pc}
 176              	.LVL8:
 177              	.L13:
 178              	.LBB116:
 179              	.LBB114:
 180              		.loc 3 325 0
 181 002c 8268     		ldr	r2, [r0, #8]
 182 002e 002A     		cmp	r2, #0
 183 0030 EBD0     		beq	.L5
 184              	.LBE114:
 185              	.LBE116:
 186              		.loc 1 139 0
 187 0032 6FF00300 		mvn	r0, #3
 188              	.LVL9:
 189 0036 10BD     		pop	{r4, pc}
 190              		.cfi_endproc
 191              	.LFE233:
 192              		.size	chIQPutI, .-chIQPutI
 193              		.section	.text.chIQGetTimeout,"ax",%progbits
 194              		.align	2
 195              		.p2align 4,,15
 196              		.global	chIQGetTimeout
 197              		.thumb
 198              		.thumb_func
 199              		.type	chIQGetTimeout, %function
 200              	chIQGetTimeout:
 201              	.LFB234:
 202              		.loc 1 173 0
 203              		.cfi_startproc
 204              		@ args = 0, pretend = 0, frame = 0
 205              		@ frame_needed = 0, uses_anonymous_args = 0
 206              	.LVL10:
 207 0000 70B5     		push	{r4, r5, r6, lr}
 208              		.cfi_def_cfa_offset 16
 209              		.cfi_offset 4, -16
 210              		.cfi_offset 5, -12
 211              		.cfi_offset 6, -8
 212              		.cfi_offset 14, -4
 213              	.LBB117:
 214              	.LBB118:
 215              	.LBB119:
 216              	.LBB120:
 217              		.file 4 "ChibiOS_16.1.4/os/ext/CMSIS/include/core_cmFunc.h"
 218              		.loc 4 548 0
 219 0002 2023     		movs	r3, #32
 220              	.LBE120:
 221              	.LBE119:
 222              	.LBE118:
 223              	.LBE117:
 224              		.loc 1 173 0
 225 0004 0E46     		mov	r6, r1
 226 0006 0446     		mov	r4, r0
 227              	.LBB124:
 228              	.LBB123:
ARM GAS  /var/folders/m4/4md61f0s1_g0rzfghffqnxvr0000gn/T//ccL3lI7x.s 			page 5


 229              	.LBB122:
 230              	.LBB121:
 231              		.loc 4 548 0
 232              	@ 548 "ChibiOS_16.1.4/os/ext/CMSIS/include/core_cmFunc.h" 1
 233 0008 83F31188 		MSR basepri, r3
 234              	@ 0 "" 2
 235              		.thumb
 236              	.LBE121:
 237              	.LBE122:
 238              	.LBE123:
 239              	.LBE124:
 240              		.loc 1 177 0
 241 000c C369     		ldr	r3, [r0, #28]
 242 000e 2BB1     		cbz	r3, .L16
 243              		.loc 1 178 0
 244 0010 9847     		blx	r3
 245              	.LVL11:
 246 0012 03E0     		b	.L16
 247              	.LVL12:
 248              	.L18:
 249              	.LBB125:
 250              		.loc 1 182 0
 251 0014 FFF7FEFF 		bl	chThdEnqueueTimeoutS
 252              	.LVL13:
 253              		.loc 1 183 0
 254 0018 0028     		cmp	r0, #0
 255 001a 15DB     		blt	.L25
 256              	.LVL14:
 257              	.L16:
 258              	.LBE125:
 259              	.LBB131:
 260              	.LBB132:
 261              		.loc 3 307 0
 262 001c A568     		ldr	r5, [r4, #8]
 263              	.LBE132:
 264              	.LBE131:
 265              	.LBB133:
 266              		.loc 1 182 0
 267 001e 2046     		mov	r0, r4
 268 0020 3146     		mov	r1, r6
 269              	.LBE133:
 270              		.loc 1 181 0
 271 0022 002D     		cmp	r5, #0
 272 0024 F6D0     		beq	.L18
 273              	.LVL15:
 274              		.loc 1 190 0
 275 0026 A169     		ldr	r1, [r4, #24]
 276              	.LVL16:
 277              		.loc 1 189 0
 278 0028 A368     		ldr	r3, [r4, #8]
 279              		.loc 1 191 0
 280 002a 2569     		ldr	r5, [r4, #16]
 281              		.loc 1 190 0
 282 002c 4A1C     		adds	r2, r1, #1
 283              		.loc 1 189 0
 284 002e 013B     		subs	r3, r3, #1
 285              		.loc 1 191 0
ARM GAS  /var/folders/m4/4md61f0s1_g0rzfghffqnxvr0000gn/T//ccL3lI7x.s 			page 6


 286 0030 AA42     		cmp	r2, r5
 287              		.loc 1 189 0
 288 0032 A360     		str	r3, [r4, #8]
 289              		.loc 1 190 0
 290 0034 A261     		str	r2, [r4, #24]
 291              		.loc 1 192 0
 292 0036 28BF     		it	cs
 293 0038 E368     		ldrcs	r3, [r4, #12]
 294              		.loc 1 190 0
 295 003a 0878     		ldrb	r0, [r1]	@ zero_extendqisi2
 296              	.LVL17:
 297              		.loc 1 192 0
 298 003c 28BF     		it	cs
 299 003e A361     		strcs	r3, [r4, #24]
 300              	.LVL18:
 301              	.LBB134:
 302              	.LBB135:
 303              	.LBB136:
 304              	.LBB137:
 305              	.LBB138:
 306              		.loc 4 548 0
 307 0040 0023     		movs	r3, #0
 308              	@ 548 "ChibiOS_16.1.4/os/ext/CMSIS/include/core_cmFunc.h" 1
 309 0042 83F31188 		MSR basepri, r3
 310              	@ 0 "" 2
 311              		.thumb
 312              	.LBE138:
 313              	.LBE137:
 314              	.LBE136:
 315              	.LBE135:
 316              	.LBE134:
 317              		.loc 1 197 0
 318 0046 70BD     		pop	{r4, r5, r6, pc}
 319              	.LVL19:
 320              	.L25:
 321              	.LBB139:
 322              	.LBB126:
 323              	.LBB127:
 324              	.LBB128:
 325              	.LBB129:
 326              	.LBB130:
 327              		.loc 4 548 0
 328              	@ 548 "ChibiOS_16.1.4/os/ext/CMSIS/include/core_cmFunc.h" 1
 329 0048 85F31188 		MSR basepri, r5
 330              	@ 0 "" 2
 331              		.thumb
 332              	.LBE130:
 333              	.LBE129:
 334              	.LBE128:
 335              	.LBE127:
 336              	.LBE126:
 337              		.loc 1 185 0
 338 004c 70BD     		pop	{r4, r5, r6, pc}
 339              	.LBE139:
 340              		.cfi_endproc
 341              	.LFE234:
 342              		.size	chIQGetTimeout, .-chIQGetTimeout
ARM GAS  /var/folders/m4/4md61f0s1_g0rzfghffqnxvr0000gn/T//ccL3lI7x.s 			page 7


 343 004e 00BF     		.section	.text.chIQReadTimeout,"ax",%progbits
 344              		.align	2
 345              		.p2align 4,,15
 346              		.global	chIQReadTimeout
 347              		.thumb
 348              		.thumb_func
 349              		.type	chIQReadTimeout, %function
 350              	chIQReadTimeout:
 351              	.LFB235:
 352              		.loc 1 224 0
 353              		.cfi_startproc
 354              		@ args = 0, pretend = 0, frame = 8
 355              		@ frame_needed = 0, uses_anonymous_args = 0
 356              	.LVL20:
 357 0000 2DE9F04F 		push	{r4, r5, r6, r7, r8, r9, r10, fp, lr}
 358              		.cfi_def_cfa_offset 36
 359              		.cfi_offset 4, -36
 360              		.cfi_offset 5, -32
 361              		.cfi_offset 6, -28
 362              		.cfi_offset 7, -24
 363              		.cfi_offset 8, -20
 364              		.cfi_offset 9, -16
 365              		.cfi_offset 10, -12
 366              		.cfi_offset 11, -8
 367              		.cfi_offset 14, -4
 368 0004 0446     		mov	r4, r0
 369 0006 83B0     		sub	sp, sp, #12
 370              		.cfi_def_cfa_offset 48
 371              		.loc 1 224 0
 372 0008 8946     		mov	r9, r1
 373 000a 9346     		mov	fp, r2
 374 000c 1D46     		mov	r5, r3
 375              		.loc 1 225 0
 376 000e D0F81C80 		ldr	r8, [r0, #28]
 377              	.LVL21:
 378              	.LBB140:
 379              	.LBB141:
 380              	.LBB142:
 381              	.LBB143:
 382              		.loc 4 548 0
 383 0012 2027     		movs	r7, #32
 384              	@ 548 "ChibiOS_16.1.4/os/ext/CMSIS/include/core_cmFunc.h" 1
 385 0014 87F31188 		MSR basepri, r7
 386              	@ 0 "" 2
 387              		.thumb
 388              	.LBE143:
 389              	.LBE142:
 390              	.LBE141:
 391              	.LBE140:
 392              		.loc 1 226 0
 393 0018 0026     		movs	r6, #0
 394              	.LBB144:
 395              	.LBB145:
 396              	.LBB146:
 397              	.LBB147:
 398              		.loc 4 548 0
 399 001a 0197     		str	r7, [sp, #4]
ARM GAS  /var/folders/m4/4md61f0s1_g0rzfghffqnxvr0000gn/T//ccL3lI7x.s 			page 8


 400              	.LBE147:
 401              	.LBE146:
 402              	.LBE145:
 403              	.LBE144:
 404              	.LBB151:
 405              	.LBB152:
 406              	.LBB153:
 407              	.LBB154:
 408              	.LBB155:
 409 001c B246     		mov	r10, r6
 410              	.LVL22:
 411              	.L32:
 412              	.LBE155:
 413              	.LBE154:
 414              	.LBE153:
 415              	.LBE152:
 416              	.LBE151:
 417              		.loc 1 232 0
 418 001e B8F1000F 		cmp	r8, #0
 419 0022 05D0     		beq	.L28
 420              		.loc 1 233 0
 421 0024 2046     		mov	r0, r4
 422              	.LVL23:
 423 0026 C047     		blx	r8
 424              	.LVL24:
 425 0028 02E0     		b	.L28
 426              	.LVL25:
 427              	.L30:
 428              		.loc 1 237 0
 429 002a FFF7FEFF 		bl	chThdEnqueueTimeoutS
 430              	.LVL26:
 431 002e E0B9     		cbnz	r0, .L39
 432              	.LVL27:
 433              	.L28:
 434              	.LBB160:
 435              	.LBB161:
 436              		.loc 3 307 0
 437 0030 A768     		ldr	r7, [r4, #8]
 438              	.LBE161:
 439              	.LBE160:
 440              		.loc 1 237 0
 441 0032 2046     		mov	r0, r4
 442 0034 2946     		mov	r1, r5
 443              		.loc 1 236 0
 444 0036 002F     		cmp	r7, #0
 445 0038 F7D0     		beq	.L30
 446              	.LVL28:
 447              		.loc 1 244 0
 448 003a A269     		ldr	r2, [r4, #24]
 449              		.loc 1 243 0
 450 003c A368     		ldr	r3, [r4, #8]
 451              		.loc 1 244 0
 452 003e 511C     		adds	r1, r2, #1
 453              	.LVL29:
 454              		.loc 1 243 0
 455 0040 013B     		subs	r3, r3, #1
 456              		.loc 1 244 0
ARM GAS  /var/folders/m4/4md61f0s1_g0rzfghffqnxvr0000gn/T//ccL3lI7x.s 			page 9


 457 0042 A161     		str	r1, [r4, #24]
 458              		.loc 1 243 0
 459 0044 A360     		str	r3, [r4, #8]
 460              		.loc 1 244 0
 461 0046 1378     		ldrb	r3, [r2]	@ zero_extendqisi2
 462 0048 09F8013B 		strb	r3, [r9], #1
 463              	.LVL30:
 464              		.loc 1 245 0
 465 004c 2369     		ldr	r3, [r4, #16]
 466 004e A269     		ldr	r2, [r4, #24]
 467 0050 9A42     		cmp	r2, r3
 468              		.loc 1 246 0
 469 0052 24BF     		itt	cs
 470 0054 E368     		ldrcs	r3, [r4, #12]
 471 0056 A361     		strcs	r3, [r4, #24]
 472              	.LVL31:
 473              	.LBB162:
 474              	.LBB159:
 475              	.LBB158:
 476              	.LBB157:
 477              	.LBB156:
 478              		.loc 4 548 0
 479              	@ 548 "ChibiOS_16.1.4/os/ext/CMSIS/include/core_cmFunc.h" 1
 480 0058 8AF31188 		MSR basepri, r10
 481              	@ 0 "" 2
 482              		.thumb
 483              	.LBE156:
 484              	.LBE157:
 485              	.LBE158:
 486              	.LBE159:
 487              	.LBE162:
 488              		.loc 1 250 0
 489 005c 0136     		adds	r6, r6, #1
 490              	.LVL32:
 491              		.loc 1 251 0
 492 005e B345     		cmp	fp, r6
 493 0060 05D0     		beq	.L29
 494              	.LVL33:
 495              	.LBB163:
 496              	.LBB150:
 497              	.LBB149:
 498              	.LBB148:
 499              		.loc 4 548 0
 500 0062 019B     		ldr	r3, [sp, #4]
 501              	@ 548 "ChibiOS_16.1.4/os/ext/CMSIS/include/core_cmFunc.h" 1
 502 0064 83F31188 		MSR basepri, r3
 503              	@ 0 "" 2
 504              		.thumb
 505 0068 D9E7     		b	.L32
 506              	.LVL34:
 507              	.L39:
 508              	.LBE148:
 509              	.LBE149:
 510              	.LBE150:
 511              	.LBE163:
 512              	.LBB164:
 513              	.LBB165:
ARM GAS  /var/folders/m4/4md61f0s1_g0rzfghffqnxvr0000gn/T//ccL3lI7x.s 			page 10


 514              	.LBB166:
 515              	.LBB167:
 516              	.LBB168:
 517              	@ 548 "ChibiOS_16.1.4/os/ext/CMSIS/include/core_cmFunc.h" 1
 518 006a 87F31188 		MSR basepri, r7
 519              	@ 0 "" 2
 520              	.LVL35:
 521              		.thumb
 522              	.L29:
 523              	.LBE168:
 524              	.LBE167:
 525              	.LBE166:
 526              	.LBE165:
 527              	.LBE164:
 528              		.loc 1 257 0
 529 006e 3046     		mov	r0, r6
 530 0070 03B0     		add	sp, sp, #12
 531              		.cfi_def_cfa_offset 36
 532              		@ sp needed
 533 0072 BDE8F08F 		pop	{r4, r5, r6, r7, r8, r9, r10, fp, pc}
 534              		.cfi_endproc
 535              	.LFE235:
 536              		.size	chIQReadTimeout, .-chIQReadTimeout
 537 0076 00BF     		.section	.text.chOQObjectInit,"ax",%progbits
 538              		.align	2
 539              		.p2align 4,,15
 540              		.global	chOQObjectInit
 541              		.thumb
 542              		.thumb_func
 543              		.type	chOQObjectInit, %function
 544              	chOQObjectInit:
 545              	.LFB236:
 546              		.loc 1 276 0
 547              		.cfi_startproc
 548              		@ args = 4, pretend = 0, frame = 0
 549              		@ frame_needed = 0, uses_anonymous_args = 0
 550              		@ link register save eliminated.
 551              	.LVL36:
 552 0000 30B4     		push	{r4, r5}
 553              		.cfi_def_cfa_offset 8
 554              		.cfi_offset 4, -8
 555              		.cfi_offset 5, -4
 556              		.loc 1 276 0
 557 0002 029C     		ldr	r4, [sp, #8]
 558              		.loc 1 285 0
 559 0004 0462     		str	r4, [r0, #32]
 560              		.loc 1 283 0
 561 0006 8D18     		adds	r5, r1, r2
 562 0008 0561     		str	r5, [r0, #16]
 563              	.LBB169:
 564              	.LBB170:
 565              	.LBB171:
 566              		.loc 2 604 0
 567 000a 0060     		str	r0, [r0]
 568              		.loc 2 605 0
 569 000c 4060     		str	r0, [r0, #4]
 570              	.LBE171:
ARM GAS  /var/folders/m4/4md61f0s1_g0rzfghffqnxvr0000gn/T//ccL3lI7x.s 			page 11


 571              	.LBE170:
 572              	.LBE169:
 573              		.loc 1 279 0
 574 000e 8260     		str	r2, [r0, #8]
 575              		.loc 1 280 0
 576 0010 C160     		str	r1, [r0, #12]
 577              		.loc 1 281 0
 578 0012 8161     		str	r1, [r0, #24]
 579              		.loc 1 282 0
 580 0014 4161     		str	r1, [r0, #20]
 581              		.loc 1 284 0
 582 0016 C361     		str	r3, [r0, #28]
 583              		.loc 1 286 0
 584 0018 30BC     		pop	{r4, r5}
 585              		.cfi_restore 5
 586              		.cfi_restore 4
 587              		.cfi_def_cfa_offset 0
 588              	.LVL37:
 589 001a 7047     		bx	lr
 590              		.cfi_endproc
 591              	.LFE236:
 592              		.size	chOQObjectInit, .-chOQObjectInit
 593              		.section	.text.chOQResetI,"ax",%progbits
 594              		.align	2
 595              		.p2align 4,,15
 596              		.global	chOQResetI
 597              		.thumb
 598              		.thumb_func
 599              		.type	chOQResetI, %function
 600              	chOQResetI:
 601              	.LFB237:
 602              		.loc 1 299 0
 603              		.cfi_startproc
 604              		@ args = 0, pretend = 0, frame = 0
 605              		@ frame_needed = 0, uses_anonymous_args = 0
 606              		@ link register save eliminated.
 607              	.LVL38:
 608 0000 10B4     		push	{r4}
 609              		.cfi_def_cfa_offset 4
 610              		.cfi_offset 4, -4
 611              		.loc 1 305 0
 612 0002 0269     		ldr	r2, [r0, #16]
 613              		.loc 1 303 0
 614 0004 C468     		ldr	r4, [r0, #12]
 615 0006 8461     		str	r4, [r0, #24]
 616              		.loc 1 305 0
 617 0008 121B     		subs	r2, r2, r4
 618              		.loc 1 304 0
 619 000a 4461     		str	r4, [r0, #20]
 620              		.loc 1 306 0
 621 000c 6FF00101 		mvn	r1, #1
 622              		.loc 1 305 0
 623 0010 8260     		str	r2, [r0, #8]
 624              		.loc 1 307 0
 625 0012 5DF8044B 		ldr	r4, [sp], #4
 626              		.cfi_restore 4
 627              		.cfi_def_cfa_offset 0
ARM GAS  /var/folders/m4/4md61f0s1_g0rzfghffqnxvr0000gn/T//ccL3lI7x.s 			page 12


 628              		.loc 1 306 0
 629 0016 FFF7FEBF 		b	chThdDequeueAllI
 630              	.LVL39:
 631              		.cfi_endproc
 632              	.LFE237:
 633              		.size	chOQResetI, .-chOQResetI
 634 001a 00BF     		.section	.text.chOQPutTimeout,"ax",%progbits
 635              		.align	2
 636              		.p2align 4,,15
 637              		.global	chOQPutTimeout
 638              		.thumb
 639              		.thumb_func
 640              		.type	chOQPutTimeout, %function
 641              	chOQPutTimeout:
 642              	.LFB238:
 643              		.loc 1 331 0
 644              		.cfi_startproc
 645              		@ args = 0, pretend = 0, frame = 0
 646              		@ frame_needed = 0, uses_anonymous_args = 0
 647              	.LVL40:
 648 0000 F8B5     		push	{r3, r4, r5, r6, r7, lr}
 649              		.cfi_def_cfa_offset 24
 650              		.cfi_offset 3, -24
 651              		.cfi_offset 4, -20
 652              		.cfi_offset 5, -16
 653              		.cfi_offset 6, -12
 654              		.cfi_offset 7, -8
 655              		.cfi_offset 14, -4
 656              		.loc 1 331 0
 657 0002 0446     		mov	r4, r0
 658 0004 0F46     		mov	r7, r1
 659 0006 1646     		mov	r6, r2
 660              	.LBB172:
 661              	.LBB173:
 662              	.LBB174:
 663              	.LBB175:
 664              		.loc 4 548 0
 665 0008 2023     		movs	r3, #32
 666              	@ 548 "ChibiOS_16.1.4/os/ext/CMSIS/include/core_cmFunc.h" 1
 667 000a 83F31188 		MSR basepri, r3
 668              	@ 0 "" 2
 669              		.thumb
 670 000e 03E0     		b	.L45
 671              	.LVL41:
 672              	.L47:
 673              	.LBE175:
 674              	.LBE174:
 675              	.LBE173:
 676              	.LBE172:
 677              	.LBB176:
 678              		.loc 1 335 0
 679 0010 FFF7FEFF 		bl	chThdEnqueueTimeoutS
 680              	.LVL42:
 681              		.loc 1 336 0
 682 0014 0028     		cmp	r0, #0
 683 0016 19DB     		blt	.L55
 684              	.LVL43:
ARM GAS  /var/folders/m4/4md61f0s1_g0rzfghffqnxvr0000gn/T//ccL3lI7x.s 			page 13


 685              	.L45:
 686              	.LBE176:
 687              	.LBB182:
 688              	.LBB183:
 689              		.loc 3 411 0
 690 0018 A568     		ldr	r5, [r4, #8]
 691              	.LBE183:
 692              	.LBE182:
 693              	.LBB184:
 694              		.loc 1 335 0
 695 001a 2046     		mov	r0, r4
 696 001c 3146     		mov	r1, r6
 697              	.LBE184:
 698              		.loc 1 334 0
 699 001e 002D     		cmp	r5, #0
 700 0020 F6D0     		beq	.L47
 701              	.LVL44:
 702              		.loc 1 343 0
 703 0022 6269     		ldr	r2, [r4, #20]
 704              		.loc 1 342 0
 705 0024 A368     		ldr	r3, [r4, #8]
 706              		.loc 1 343 0
 707 0026 511C     		adds	r1, r2, #1
 708              	.LVL45:
 709              		.loc 1 342 0
 710 0028 013B     		subs	r3, r3, #1
 711              		.loc 1 343 0
 712 002a 6161     		str	r1, [r4, #20]
 713              		.loc 1 342 0
 714 002c A360     		str	r3, [r4, #8]
 715              		.loc 1 343 0
 716 002e 1770     		strb	r7, [r2]
 717              		.loc 1 344 0
 718 0030 2369     		ldr	r3, [r4, #16]
 719 0032 6269     		ldr	r2, [r4, #20]
 720 0034 9A42     		cmp	r2, r3
 721              		.loc 1 345 0
 722 0036 24BF     		itt	cs
 723 0038 E368     		ldrcs	r3, [r4, #12]
 724 003a 6361     		strcs	r3, [r4, #20]
 725              		.loc 1 348 0
 726 003c E369     		ldr	r3, [r4, #28]
 727 003e 0BB1     		cbz	r3, .L49
 728              		.loc 1 349 0
 729 0040 2046     		mov	r0, r4
 730              	.LVL46:
 731 0042 9847     		blx	r3
 732              	.LVL47:
 733              	.L49:
 734              	.LBB185:
 735              	.LBB186:
 736              	.LBB187:
 737              	.LBB188:
 738              	.LBB189:
 739              		.loc 4 548 0
 740 0044 0020     		movs	r0, #0
 741              	@ 548 "ChibiOS_16.1.4/os/ext/CMSIS/include/core_cmFunc.h" 1
ARM GAS  /var/folders/m4/4md61f0s1_g0rzfghffqnxvr0000gn/T//ccL3lI7x.s 			page 14


 742 0046 80F31188 		MSR basepri, r0
 743              	@ 0 "" 2
 744              		.thumb
 745              	.LBE189:
 746              	.LBE188:
 747              	.LBE187:
 748              	.LBE186:
 749              	.LBE185:
 750              		.loc 1 354 0
 751 004a F8BD     		pop	{r3, r4, r5, r6, r7, pc}
 752              	.LVL48:
 753              	.L55:
 754              	.LBB190:
 755              	.LBB177:
 756              	.LBB178:
 757              	.LBB179:
 758              	.LBB180:
 759              	.LBB181:
 760              		.loc 4 548 0
 761              	@ 548 "ChibiOS_16.1.4/os/ext/CMSIS/include/core_cmFunc.h" 1
 762 004c 85F31188 		MSR basepri, r5
 763              	@ 0 "" 2
 764              		.thumb
 765              	.LBE181:
 766              	.LBE180:
 767              	.LBE179:
 768              	.LBE178:
 769              	.LBE177:
 770              		.loc 1 338 0
 771 0050 F8BD     		pop	{r3, r4, r5, r6, r7, pc}
 772              	.LBE190:
 773              		.cfi_endproc
 774              	.LFE238:
 775              		.size	chOQPutTimeout, .-chOQPutTimeout
 776 0052 00BF     		.section	.text.chOQGetI,"ax",%progbits
 777              		.align	2
 778              		.p2align 4,,15
 779              		.global	chOQGetI
 780              		.thumb
 781              		.thumb_func
 782              		.type	chOQGetI, %function
 783              	chOQGetI:
 784              	.LFB239:
 785              		.loc 1 366 0
 786              		.cfi_startproc
 787              		@ args = 0, pretend = 0, frame = 0
 788              		@ frame_needed = 0, uses_anonymous_args = 0
 789              	.LVL49:
 790 0000 38B5     		push	{r3, r4, r5, lr}
 791              		.cfi_def_cfa_offset 16
 792              		.cfi_offset 3, -16
 793              		.cfi_offset 4, -12
 794              		.cfi_offset 5, -8
 795              		.cfi_offset 14, -4
 796              	.LBB191:
 797              	.LBB192:
 798              		.loc 3 393 0
ARM GAS  /var/folders/m4/4md61f0s1_g0rzfghffqnxvr0000gn/T//ccL3lI7x.s 			page 15


 799 0002 4269     		ldr	r2, [r0, #20]
 800 0004 8369     		ldr	r3, [r0, #24]
 801 0006 9A42     		cmp	r2, r3
 802 0008 0FD0     		beq	.L64
 803              	.L57:
 804              	.LBE192:
 805              	.LBE191:
 806              		.loc 1 375 0
 807 000a 8268     		ldr	r2, [r0, #8]
 808              		.loc 1 377 0
 809 000c 0569     		ldr	r5, [r0, #16]
 810              		.loc 1 376 0
 811 000e 591C     		adds	r1, r3, #1
 812              		.loc 1 375 0
 813 0010 0132     		adds	r2, r2, #1
 814 0012 8260     		str	r2, [r0, #8]
 815              		.loc 1 376 0
 816 0014 8161     		str	r1, [r0, #24]
 817              		.loc 1 377 0
 818 0016 A942     		cmp	r1, r5
 819              		.loc 1 376 0
 820 0018 1C78     		ldrb	r4, [r3]	@ zero_extendqisi2
 821              	.LVL50:
 822              		.loc 1 377 0
 823 001a 01D3     		bcc	.L60
 824              		.loc 1 378 0
 825 001c C368     		ldr	r3, [r0, #12]
 826 001e 8361     		str	r3, [r0, #24]
 827              	.L60:
 828              		.loc 1 381 0
 829 0020 0021     		movs	r1, #0
 830 0022 FFF7FEFF 		bl	chThdDequeueNextI
 831              	.LVL51:
 832              		.loc 1 383 0
 833 0026 2046     		mov	r0, r4
 834 0028 38BD     		pop	{r3, r4, r5, pc}
 835              	.LVL52:
 836              	.L64:
 837              	.LBB194:
 838              	.LBB193:
 839              		.loc 3 393 0
 840 002a 8268     		ldr	r2, [r0, #8]
 841 002c 002A     		cmp	r2, #0
 842 002e ECD0     		beq	.L57
 843              	.LBE193:
 844              	.LBE194:
 845              		.loc 1 372 0
 846 0030 6FF00200 		mvn	r0, #2
 847              	.LVL53:
 848 0034 38BD     		pop	{r3, r4, r5, pc}
 849              		.cfi_endproc
 850              	.LFE239:
 851              		.size	chOQGetI, .-chOQGetI
 852 0036 00BF     		.section	.text.chOQWriteTimeout,"ax",%progbits
 853              		.align	2
 854              		.p2align 4,,15
 855              		.global	chOQWriteTimeout
ARM GAS  /var/folders/m4/4md61f0s1_g0rzfghffqnxvr0000gn/T//ccL3lI7x.s 			page 16


 856              		.thumb
 857              		.thumb_func
 858              		.type	chOQWriteTimeout, %function
 859              	chOQWriteTimeout:
 860              	.LFB240:
 861              		.loc 1 411 0
 862              		.cfi_startproc
 863              		@ args = 0, pretend = 0, frame = 8
 864              		@ frame_needed = 0, uses_anonymous_args = 0
 865              	.LVL54:
 866 0000 2DE9F04F 		push	{r4, r5, r6, r7, r8, r9, r10, fp, lr}
 867              		.cfi_def_cfa_offset 36
 868              		.cfi_offset 4, -36
 869              		.cfi_offset 5, -32
 870              		.cfi_offset 6, -28
 871              		.cfi_offset 7, -24
 872              		.cfi_offset 8, -20
 873              		.cfi_offset 9, -16
 874              		.cfi_offset 10, -12
 875              		.cfi_offset 11, -8
 876              		.cfi_offset 14, -4
 877 0004 83B0     		sub	sp, sp, #12
 878              		.cfi_def_cfa_offset 48
 879              		.loc 1 411 0
 880 0006 0446     		mov	r4, r0
 881 0008 8B46     		mov	fp, r1
 882 000a 1546     		mov	r5, r2
 883 000c 0193     		str	r3, [sp, #4]
 884              		.loc 1 412 0
 885 000e C769     		ldr	r7, [r0, #28]
 886              	.LVL55:
 887              	.LBB195:
 888              	.LBB196:
 889              	.LBB197:
 890              	.LBB198:
 891              		.loc 4 548 0
 892 0010 4FF02008 		mov	r8, #32
 893              	@ 548 "ChibiOS_16.1.4/os/ext/CMSIS/include/core_cmFunc.h" 1
 894 0014 88F31188 		MSR basepri, r8
 895              	@ 0 "" 2
 896              		.thumb
 897              	.LBE198:
 898              	.LBE197:
 899              	.LBE196:
 900              	.LBE195:
 901              		.loc 1 413 0
 902 0018 0026     		movs	r6, #0
 903              	.LBB199:
 904              	.LBB200:
 905              	.LBB201:
 906              	.LBB202:
 907              	.LBB203:
 908              		.loc 4 548 0
 909 001a B146     		mov	r9, r6
 910              	.LVL56:
 911              	.L66:
 912              	.LBE203:
ARM GAS  /var/folders/m4/4md61f0s1_g0rzfghffqnxvr0000gn/T//ccL3lI7x.s 			page 17


 913              	.LBE202:
 914              	.LBE201:
 915              	.LBE200:
 916              	.LBE199:
 917              	.LBB208:
 918              	.LBB209:
 919              		.loc 3 411 0
 920 001c A368     		ldr	r3, [r4, #8]
 921              	.LBE209:
 922              	.LBE208:
 923              		.loc 1 427 0
 924 001e 0BF1010A 		add	r10, fp, #1
 925              	.LVL57:
 926              		.loc 1 433 0
 927 0022 2046     		mov	r0, r4
 928              		.loc 1 419 0
 929 0024 FBB1     		cbz	r3, .L69
 930              	.LVL58:
 931              	.L82:
 932              		.loc 1 427 0
 933 0026 6269     		ldr	r2, [r4, #20]
 934              		.loc 1 426 0
 935 0028 A368     		ldr	r3, [r4, #8]
 936              		.loc 1 427 0
 937 002a 511C     		adds	r1, r2, #1
 938              		.loc 1 426 0
 939 002c 013B     		subs	r3, r3, #1
 940              		.loc 1 427 0
 941 002e 6161     		str	r1, [r4, #20]
 942              		.loc 1 426 0
 943 0030 A360     		str	r3, [r4, #8]
 944              		.loc 1 427 0
 945 0032 9BF80030 		ldrb	r3, [fp]	@ zero_extendqisi2
 946 0036 1370     		strb	r3, [r2]
 947              		.loc 1 428 0
 948 0038 2369     		ldr	r3, [r4, #16]
 949 003a 6269     		ldr	r2, [r4, #20]
 950 003c 9A42     		cmp	r2, r3
 951              		.loc 1 429 0
 952 003e 24BF     		itt	cs
 953 0040 E368     		ldrcs	r3, [r4, #12]
 954 0042 6361     		strcs	r3, [r4, #20]
 955              		.loc 1 432 0
 956 0044 07B1     		cbz	r7, .L71
 957              		.loc 1 433 0
 958 0046 B847     		blx	r7
 959              	.LVL59:
 960              	.L71:
 961              	.LBB211:
 962              	.LBB207:
 963              	.LBB206:
 964              	.LBB205:
 965              	.LBB204:
 966              		.loc 4 548 0
 967              	@ 548 "ChibiOS_16.1.4/os/ext/CMSIS/include/core_cmFunc.h" 1
 968 0048 89F31188 		MSR basepri, r9
 969              	@ 0 "" 2
ARM GAS  /var/folders/m4/4md61f0s1_g0rzfghffqnxvr0000gn/T//ccL3lI7x.s 			page 18


 970              	.LVL60:
 971              		.thumb
 972              	.LBE204:
 973              	.LBE205:
 974              	.LBE206:
 975              	.LBE207:
 976              	.LBE211:
 977              		.loc 1 438 0
 978 004c 013D     		subs	r5, r5, #1
 979              	.LVL61:
 980              		.loc 1 437 0
 981 004e 06F10106 		add	r6, r6, #1
 982              	.LVL62:
 983              		.loc 1 438 0
 984 0052 12D0     		beq	.L68
 985              	.LBB212:
 986              	.LBB213:
 987              	.LBB214:
 988              	.LBB215:
 989              		.loc 4 548 0
 990              	@ 548 "ChibiOS_16.1.4/os/ext/CMSIS/include/core_cmFunc.h" 1
 991 0054 88F31188 		MSR basepri, r8
 992              	@ 0 "" 2
 993              		.thumb
 994              	.LBE215:
 995              	.LBE214:
 996              	.LBE213:
 997              	.LBE212:
 998              	.LBB216:
 999              	.LBB210:
 1000              		.loc 3 411 0
 1001 0058 A368     		ldr	r3, [r4, #8]
 1002              	.LBE210:
 1003              	.LBE216:
 1004              		.loc 1 427 0
 1005 005a D346     		mov	fp, r10
 1006              	.LVL63:
 1007 005c 0BF1010A 		add	r10, fp, #1
 1008              	.LVL64:
 1009              		.loc 1 433 0
 1010 0060 2046     		mov	r0, r4
 1011              		.loc 1 419 0
 1012 0062 002B     		cmp	r3, #0
 1013 0064 DFD1     		bne	.L82
 1014              	.LVL65:
 1015              	.L69:
 1016              		.loc 1 420 0
 1017 0066 2046     		mov	r0, r4
 1018              	.LVL66:
 1019 0068 0199     		ldr	r1, [sp, #4]
 1020 006a 0093     		str	r3, [sp]
 1021 006c FFF7FEFF 		bl	chThdEnqueueTimeoutS
 1022              	.LVL67:
 1023 0070 009B     		ldr	r3, [sp]
 1024 0072 0028     		cmp	r0, #0
 1025 0074 D2D0     		beq	.L66
 1026              	.LVL68:
ARM GAS  /var/folders/m4/4md61f0s1_g0rzfghffqnxvr0000gn/T//ccL3lI7x.s 			page 19


 1027              	.LBB217:
 1028              	.LBB218:
 1029              	.LBB219:
 1030              	.LBB220:
 1031              	.LBB221:
 1032              		.loc 4 548 0
 1033              	@ 548 "ChibiOS_16.1.4/os/ext/CMSIS/include/core_cmFunc.h" 1
 1034 0076 83F31188 		MSR basepri, r3
 1035              	@ 0 "" 2
 1036              	.LVL69:
 1037              		.thumb
 1038              	.L68:
 1039              	.LBE221:
 1040              	.LBE220:
 1041              	.LBE219:
 1042              	.LBE218:
 1043              	.LBE217:
 1044              		.loc 1 443 0
 1045 007a 3046     		mov	r0, r6
 1046 007c 03B0     		add	sp, sp, #12
 1047              		.cfi_def_cfa_offset 36
 1048              		@ sp needed
 1049 007e BDE8F08F 		pop	{r4, r5, r6, r7, r8, r9, r10, fp, pc}
 1050              		.cfi_endproc
 1051              	.LFE240:
 1052              		.size	chOQWriteTimeout, .-chOQWriteTimeout
 1053 0082 00BF     		.text
 1054              	.Letext0:
 1055              		.file 5 "/usr/local/Cellar/gcc-arm-none-eabi-49/20150609/lib/gcc/arm-none-eabi/4.9.3/include/stdde
 1056              		.file 6 "/usr/local/Cellar/gcc-arm-none-eabi-49/20150609/arm-none-eabi/include/machine/_default_ty
 1057              		.file 7 "/usr/local/Cellar/gcc-arm-none-eabi-49/20150609/arm-none-eabi/include/sys/_stdint.h"
 1058              		.file 8 "ChibiOS_16.1.4/os/rt/ports/ARMCMx/compilers/GCC/chtypes.h"
 1059              		.file 9 "ChibiOS_16.1.4/os/rt/include/chsystypes.h"
 1060              		.file 10 "ChibiOS_16.1.4/os/rt/ports/ARMCMx/chcore.h"
 1061              		.file 11 "ChibiOS_16.1.4/os/rt/ports/ARMCMx/chcore_v7m.h"
 1062              		.file 12 "ChibiOS_16.1.4/os/rt/include/chtm.h"
 1063              		.file 13 "ChibiOS_16.1.4/os/rt/include/chsem.h"
 1064              		.file 14 "ChibiOS_16.1.4/os/rt/include/chmtx.h"
 1065              		.file 15 "ChibiOS_16.1.4/os/rt/include/chthreads.h"
 1066              		.file 16 "ChibiOS_16.1.4/os/rt/include/chsys.h"
 1067              		.file 17 "ChibiOS_16.1.4/os/ext/CMSIS/include/core_cm4.h"