ARM GAS  /var/folders/m4/4md61f0s1_g0rzfghffqnxvr0000gn/T//ccZlSDJ0.s 			page 1


   1              		.syntax unified
   2              		.cpu cortex-m4
   3              		.eabi_attribute 27, 1
   4              		.eabi_attribute 28, 1
   5              		.fpu fpv4-sp-d16
   6              		.eabi_attribute 20, 1
   7              		.eabi_attribute 21, 1
   8              		.eabi_attribute 23, 3
   9              		.eabi_attribute 24, 1
  10              		.eabi_attribute 25, 1
  11              		.eabi_attribute 26, 1
  12              		.eabi_attribute 30, 2
  13              		.eabi_attribute 34, 1
  14              		.eabi_attribute 18, 4
  15              		.thumb
  16              		.file	"chschd.c"
  17              		.text
  18              	.Ltext0:
  19              		.cfi_sections	.debug_frame
  20              		.section	.text.wakeup,"ax",%progbits
  21              		.align	2
  22              		.p2align 4,,15
  23              		.thumb
  24              		.thumb_func
  25              		.type	wakeup, %function
  26              	wakeup:
  27              	.LFB234:
  28              		.file 1 "ChibiOS_16.1.4/os/rt/src/chschd.c"
  29              		.loc 1 275 0
  30              		.cfi_startproc
  31              		@ args = 0, pretend = 0, frame = 0
  32              		@ frame_needed = 0, uses_anonymous_args = 0
  33              		@ link register save eliminated.
  34              	.LVL0:
  35 0000 10B4     		push	{r4}
  36              		.cfi_def_cfa_offset 4
  37              		.cfi_offset 4, -4
  38              	.LBB128:
  39              	.LBB129:
  40              	.LBB130:
  41              	.LBB131:
  42              	.LBB132:
  43              		.file 2 "ChibiOS_16.1.4/os/ext/CMSIS/include/core_cmFunc.h"
  44              		.loc 2 548 0
  45 0002 2023     		movs	r3, #32
  46              	@ 548 "ChibiOS_16.1.4/os/ext/CMSIS/include/core_cmFunc.h" 1
  47 0004 83F31188 		MSR basepri, r3
  48              	@ 0 "" 2
  49              		.thumb
  50              	.LBE132:
  51              	.LBE131:
  52              	.LBE130:
  53              	.LBE129:
  54              	.LBE128:
  55              		.loc 1 279 0
  56 0008 037F     		ldrb	r3, [r0, #28]	@ zero_extendqisi2
  57 000a 072B     		cmp	r3, #7
ARM GAS  /var/folders/m4/4md61f0s1_g0rzfghffqnxvr0000gn/T//ccZlSDJ0.s 			page 2


  58 000c 0ED8     		bhi	.L2
  59 000e DFE803F0 		tbb	[pc, r3]
  60              	.L4:
  61 0012 27       		.byte	(.L3-.L4)/2
  62 0013 0D       		.byte	(.L2-.L4)/2
  63 0014 0D       		.byte	(.L2-.L4)/2
  64 0015 23       		.byte	(.L5-.L4)/2
  65 0016 08       		.byte	(.L6-.L4)/2
  66 0017 04       		.byte	(.L7-.L4)/2
  67 0018 0D       		.byte	(.L2-.L4)/2
  68 0019 08       		.byte	(.L6-.L4)/2
  69              		.p2align 1
  70              	.L7:
  71              		.loc 1 290 0
  72 001a 426A     		ldr	r2, [r0, #36]
  73              	.LVL1:
  74              	.LBB133:
  75              	.LBB134:
  76              		.file 3 "ChibiOS_16.1.4/os/rt/include/chsem.h"
  77              		.loc 3 138 0
  78 001c 9368     		ldr	r3, [r2, #8]
  79 001e 0133     		adds	r3, r3, #1
  80 0020 9360     		str	r3, [r2, #8]
  81              	.LVL2:
  82              	.L6:
  83              	.LBE134:
  84              	.LBE133:
  85              	.LBB135:
  86              	.LBB136:
  87              		.file 4 "ChibiOS_16.1.4/os/rt/include/chschd.h"
  88              		.loc 4 691 0
  89 0022 90E80C00 		ldmia	r0, {r2, r3}
  90 0026 1A60     		str	r2, [r3]
  91              		.loc 4 692 0
  92 0028 0268     		ldr	r2, [r0]
  93 002a 5360     		str	r3, [r2, #4]
  94              	.LVL3:
  95              	.L2:
  96              	.LBE136:
  97              	.LBE135:
  98              		.loc 1 304 0
  99 002c 4FF0FF34 		mov	r4, #-1
 100              	.LBB137:
 101              	.LBB138:
 102              		.loc 1 227 0
 103 0030 0022     		movs	r2, #0
 104 0032 8168     		ldr	r1, [r0, #8]
 105              	.LBE138:
 106              	.LBE137:
 107              	.LBB140:
 108              	.LBB141:
 109              	.LBB142:
 110              	.LBB143:
 111              		.loc 1 228 0
 112 0034 0D4B     		ldr	r3, .L13
 113              	.LBE143:
 114              	.LBE142:
ARM GAS  /var/folders/m4/4md61f0s1_g0rzfghffqnxvr0000gn/T//ccZlSDJ0.s 			page 3


 115              	.LBE141:
 116              	.LBE140:
 117              		.loc 1 304 0
 118 0036 4462     		str	r4, [r0, #36]
 119              	.LVL4:
 120              	.LBB159:
 121              	.LBB139:
 122              		.loc 1 227 0
 123 0038 0277     		strb	r2, [r0, #28]
 124              	.LVL5:
 125              	.L9:
 126              	.LBE139:
 127              	.LBE159:
 128              	.LBB160:
 129              	.LBB158:
 130              	.LBB146:
 131              	.LBB144:
 132              		.loc 1 230 0
 133 003a 1B68     		ldr	r3, [r3]
 134              	.LVL6:
 135              		.loc 1 231 0
 136 003c 9A68     		ldr	r2, [r3, #8]
 137 003e 8A42     		cmp	r2, r1
 138 0040 FBD2     		bcs	.L9
 139              		.loc 1 234 0
 140 0042 5A68     		ldr	r2, [r3, #4]
 141 0044 4260     		str	r2, [r0, #4]
 142              		.loc 1 233 0
 143 0046 0360     		str	r3, [r0]
 144              	.LBE144:
 145              	.LBE146:
 146              	.LBB147:
 147              	.LBB148:
 148              	.LBB149:
 149              	.LBB150:
 150              	.LBB151:
 151              		.loc 2 548 0
 152 0048 0021     		movs	r1, #0
 153              	.LBE151:
 154              	.LBE150:
 155              	.LBE149:
 156              	.LBE148:
 157              	.LBE147:
 158              	.LBB156:
 159              	.LBB145:
 160              		.loc 1 235 0
 161 004a 1060     		str	r0, [r2]
 162              		.loc 1 236 0
 163 004c 5860     		str	r0, [r3, #4]
 164              	.LVL7:
 165              	.LBE145:
 166              	.LBE156:
 167              	.LBB157:
 168              	.LBB155:
 169              	.LBB154:
 170              	.LBB153:
 171              	.LBB152:
ARM GAS  /var/folders/m4/4md61f0s1_g0rzfghffqnxvr0000gn/T//ccZlSDJ0.s 			page 4


 172              		.loc 2 548 0
 173              	@ 548 "ChibiOS_16.1.4/os/ext/CMSIS/include/core_cmFunc.h" 1
 174 004e 81F31188 		MSR basepri, r1
 175              	@ 0 "" 2
 176              		.thumb
 177              	.LBE152:
 178              	.LBE153:
 179              	.LBE154:
 180              	.LBE155:
 181              	.LBE157:
 182              	.LBE158:
 183              	.LBE160:
 184              		.loc 1 307 0
 185 0052 5DF8044B 		ldr	r4, [sp], #4
 186              		.cfi_remember_state
 187              		.cfi_restore 4
 188              		.cfi_def_cfa_offset 0
 189 0056 7047     		bx	lr
 190              	.LVL8:
 191              	.L5:
 192              		.cfi_restore_state
 193              		.loc 1 286 0
 194 0058 436A     		ldr	r3, [r0, #36]
 195 005a 0022     		movs	r2, #0
 196 005c 1A60     		str	r2, [r3]
 197              		.loc 1 287 0
 198 005e E5E7     		b	.L2
 199              	.L3:
 200              	.LVL9:
 201              	.LBB161:
 202              	.LBB162:
 203              	.LBB163:
 204              	.LBB164:
 205              	.LBB165:
 206              		.loc 2 548 0
 207 0060 0023     		movs	r3, #0
 208              	@ 548 "ChibiOS_16.1.4/os/ext/CMSIS/include/core_cmFunc.h" 1
 209 0062 83F31188 		MSR basepri, r3
 210              	@ 0 "" 2
 211              		.thumb
 212              	.LBE165:
 213              	.LBE164:
 214              	.LBE163:
 215              	.LBE162:
 216              	.LBE161:
 217              		.loc 1 307 0
 218 0066 5DF8044B 		ldr	r4, [sp], #4
 219              		.cfi_restore 4
 220              		.cfi_def_cfa_offset 0
 221 006a 7047     		bx	lr
 222              	.L14:
 223              		.align	2
 224              	.L13:
 225 006c 00000000 		.word	.LANCHOR0
 226              		.cfi_endproc
 227              	.LFE234:
 228              		.size	wakeup, .-wakeup
ARM GAS  /var/folders/m4/4md61f0s1_g0rzfghffqnxvr0000gn/T//ccZlSDJ0.s 			page 5


 229              		.section	.text._scheduler_init,"ax",%progbits
 230              		.align	2
 231              		.p2align 4,,15
 232              		.global	_scheduler_init
 233              		.thumb
 234              		.thumb_func
 235              		.type	_scheduler_init, %function
 236              	_scheduler_init:
 237              	.LFB231:
 238              		.loc 1 65 0
 239              		.cfi_startproc
 240              		@ args = 0, pretend = 0, frame = 0
 241              		@ frame_needed = 0, uses_anonymous_args = 0
 242              		@ link register save eliminated.
 243              	.LVL10:
 244              	.LBB166:
 245              	.LBB167:
 246              		.loc 4 604 0
 247 0000 034B     		ldr	r3, .L16
 248              	.LBE167:
 249              	.LBE166:
 250              		.loc 1 68 0
 251 0002 0022     		movs	r2, #0
 252              	.LBB169:
 253              	.LBB168:
 254              		.loc 4 604 0
 255 0004 1B60     		str	r3, [r3]
 256              		.loc 4 605 0
 257 0006 5B60     		str	r3, [r3, #4]
 258              	.LBE168:
 259              	.LBE169:
 260              		.loc 1 70 0
 261 0008 1B61     		str	r3, [r3, #16]
 262              		.loc 1 71 0
 263 000a 5B61     		str	r3, [r3, #20]
 264              		.loc 1 68 0
 265 000c 9A60     		str	r2, [r3, #8]
 266 000e 7047     		bx	lr
 267              	.L17:
 268              		.align	2
 269              	.L16:
 270 0010 00000000 		.word	.LANCHOR0
 271              		.cfi_endproc
 272              	.LFE231:
 273              		.size	_scheduler_init, .-_scheduler_init
 274              		.section	.text.chSchReadyI,"ax",%progbits
 275              		.align	2
 276              		.p2align 4,,15
 277              		.global	chSchReadyI
 278              		.thumb
 279              		.thumb_func
 280              		.type	chSchReadyI, %function
 281              	chSchReadyI:
 282              	.LFB232:
 283              		.loc 1 218 0
 284              		.cfi_startproc
 285              		@ args = 0, pretend = 0, frame = 0
ARM GAS  /var/folders/m4/4md61f0s1_g0rzfghffqnxvr0000gn/T//ccZlSDJ0.s 			page 6


 286              		@ frame_needed = 0, uses_anonymous_args = 0
 287              		@ link register save eliminated.
 288              	.LVL11:
 289              		.loc 1 227 0
 290 0000 0022     		movs	r2, #0
 291 0002 8168     		ldr	r1, [r0, #8]
 292              		.loc 1 228 0
 293 0004 084B     		ldr	r3, .L22
 294              		.loc 1 218 0
 295 0006 10B4     		push	{r4}
 296              		.cfi_def_cfa_offset 4
 297              		.cfi_offset 4, -4
 298              		.loc 1 218 0
 299 0008 0446     		mov	r4, r0
 300              		.loc 1 227 0
 301 000a 0277     		strb	r2, [r0, #28]
 302              	.LVL12:
 303              	.L19:
 304              		.loc 1 230 0 discriminator 1
 305 000c 1B68     		ldr	r3, [r3]
 306              	.LVL13:
 307              		.loc 1 231 0 discriminator 1
 308 000e 9A68     		ldr	r2, [r3, #8]
 309 0010 8A42     		cmp	r2, r1
 310 0012 FBD2     		bcs	.L19
 311              		.loc 1 234 0
 312 0014 5A68     		ldr	r2, [r3, #4]
 313 0016 6260     		str	r2, [r4, #4]
 314              		.loc 1 233 0
 315 0018 2360     		str	r3, [r4]
 316              		.loc 1 239 0
 317 001a 2046     		mov	r0, r4
 318              	.LVL14:
 319              		.loc 1 235 0
 320 001c 1460     		str	r4, [r2]
 321              		.loc 1 236 0
 322 001e 5C60     		str	r4, [r3, #4]
 323              		.loc 1 239 0
 324 0020 5DF8044B 		ldr	r4, [sp], #4
 325              		.cfi_restore 4
 326              		.cfi_def_cfa_offset 0
 327              	.LVL15:
 328 0024 7047     		bx	lr
 329              	.L23:
 330 0026 00BF     		.align	2
 331              	.L22:
 332 0028 00000000 		.word	.LANCHOR0
 333              		.cfi_endproc
 334              	.LFE232:
 335              		.size	chSchReadyI, .-chSchReadyI
 336              		.section	.text.chSchGoSleepS,"ax",%progbits
 337              		.align	2
 338              		.p2align 4,,15
 339              		.global	chSchGoSleepS
 340              		.thumb
 341              		.thumb_func
 342              		.type	chSchGoSleepS, %function
ARM GAS  /var/folders/m4/4md61f0s1_g0rzfghffqnxvr0000gn/T//ccZlSDJ0.s 			page 7


 343              	chSchGoSleepS:
 344              	.LFB233:
 345              		.loc 1 250 0
 346              		.cfi_startproc
 347              		@ args = 0, pretend = 0, frame = 0
 348              		@ frame_needed = 0, uses_anonymous_args = 0
 349              		@ link register save eliminated.
 350              	.LVL16:
 351              		.loc 1 255 0
 352 0000 084B     		ldr	r3, .L26
 353              		.loc 1 250 0
 354 0002 30B4     		push	{r4, r5}
 355              		.cfi_def_cfa_offset 8
 356              		.cfi_offset 4, -8
 357              		.cfi_offset 5, -4
 358              	.LBB170:
 359              	.LBB171:
 360              		.loc 4 672 0
 361 0004 1A68     		ldr	r2, [r3]
 362              	.LBE171:
 363              	.LBE170:
 364              		.loc 1 255 0
 365 0006 9969     		ldr	r1, [r3, #24]
 366              	.LVL17:
 367              	.LBB175:
 368              	.LBB172:
 369              		.loc 4 674 0
 370 0008 1468     		ldr	r4, [r2]
 371              	.LBE172:
 372              	.LBE175:
 373              		.loc 1 256 0
 374 000a 0877     		strb	r0, [r1, #28]
 375              		.loc 1 268 0
 376 000c 0125     		movs	r5, #1
 377              		.loc 1 260 0
 378 000e 0420     		movs	r0, #4
 379              	.LVL18:
 380 0010 C877     		strb	r0, [r1, #31]
 381              	.LVL19:
 382              	.LBB176:
 383              	.LBB173:
 384              		.loc 4 675 0
 385 0012 6360     		str	r3, [r4, #4]
 386              	.LBE173:
 387              	.LBE176:
 388              		.loc 1 268 0
 389 0014 1577     		strb	r5, [r2, #28]
 390              	.LVL20:
 391              	.LBB177:
 392              	.LBB174:
 393              		.loc 4 674 0
 394 0016 1C60     		str	r4, [r3]
 395              	.LBE174:
 396              	.LBE177:
 397              		.loc 1 269 0
 398 0018 1046     		mov	r0, r2
 399              		.loc 1 270 0
ARM GAS  /var/folders/m4/4md61f0s1_g0rzfghffqnxvr0000gn/T//ccZlSDJ0.s 			page 8


 400 001a 30BC     		pop	{r4, r5}
 401              		.cfi_restore 5
 402              		.cfi_restore 4
 403              		.cfi_def_cfa_offset 0
 404              		.loc 1 262 0
 405 001c 9A61     		str	r2, [r3, #24]
 406              		.loc 1 269 0
 407 001e FFF7FEBF 		b	_port_switch
 408              	.LVL21:
 409              	.L27:
 410 0022 00BF     		.align	2
 411              	.L26:
 412 0024 00000000 		.word	.LANCHOR0
 413              		.cfi_endproc
 414              	.LFE233:
 415              		.size	chSchGoSleepS, .-chSchGoSleepS
 416              		.section	.text.chSchGoSleepTimeoutS,"ax",%progbits
 417              		.align	2
 418              		.p2align 4,,15
 419              		.global	chSchGoSleepTimeoutS
 420              		.thumb
 421              		.thumb_func
 422              		.type	chSchGoSleepTimeoutS, %function
 423              	chSchGoSleepTimeoutS:
 424              	.LFB235:
 425              		.loc 1 330 0
 426              		.cfi_startproc
 427              		@ args = 0, pretend = 0, frame = 24
 428              		@ frame_needed = 0, uses_anonymous_args = 0
 429              	.LVL22:
 430 0000 30B5     		push	{r4, r5, lr}
 431              		.cfi_def_cfa_offset 12
 432              		.cfi_offset 4, -12
 433              		.cfi_offset 5, -8
 434              		.cfi_offset 14, -4
 435              		.loc 1 334 0
 436 0002 4B1C     		adds	r3, r1, #1
 437              		.loc 1 330 0
 438 0004 87B0     		sub	sp, sp, #28
 439              		.cfi_def_cfa_offset 40
 440              		.loc 1 334 0
 441 0006 12D0     		beq	.L29
 442              	.LBB178:
 443              		.loc 1 337 0
 444 0008 0C4C     		ldr	r4, .L36
 445 000a 0D4A     		ldr	r2, .L36+4
 446 000c A369     		ldr	r3, [r4, #24]
 447 000e 0546     		mov	r5, r0
 448 0010 01A8     		add	r0, sp, #4
 449              	.LVL23:
 450 0012 FFF7FEFF 		bl	chVTDoSetI
 451              	.LVL24:
 452              		.loc 1 338 0
 453 0016 2846     		mov	r0, r5
 454 0018 FFF7FEFF 		bl	chSchGoSleepS
 455              	.LVL25:
 456              		.loc 1 339 0
ARM GAS  /var/folders/m4/4md61f0s1_g0rzfghffqnxvr0000gn/T//ccZlSDJ0.s 			page 9


 457 001c 049B     		ldr	r3, [sp, #16]
 458 001e 13B1     		cbz	r3, .L31
 459              		.loc 1 340 0
 460 0020 01A8     		add	r0, sp, #4
 461              	.LVL26:
 462 0022 FFF7FEFF 		bl	chVTDoResetI
 463              	.LVL27:
 464              	.L31:
 465              	.LBE178:
 466              		.loc 1 347 0
 467 0026 A369     		ldr	r3, [r4, #24]
 468              		.loc 1 348 0
 469 0028 586A     		ldr	r0, [r3, #36]
 470 002a 07B0     		add	sp, sp, #28
 471              		.cfi_remember_state
 472              		.cfi_def_cfa_offset 12
 473              		@ sp needed
 474 002c 30BD     		pop	{r4, r5, pc}
 475              	.LVL28:
 476              	.L29:
 477              		.cfi_restore_state
 478 002e 034C     		ldr	r4, .L36
 479              		.loc 1 344 0
 480 0030 FFF7FEFF 		bl	chSchGoSleepS
 481              	.LVL29:
 482              		.loc 1 347 0
 483 0034 A369     		ldr	r3, [r4, #24]
 484              		.loc 1 348 0
 485 0036 586A     		ldr	r0, [r3, #36]
 486 0038 07B0     		add	sp, sp, #28
 487              		.cfi_def_cfa_offset 12
 488              		@ sp needed
 489 003a 30BD     		pop	{r4, r5, pc}
 490              	.L37:
 491              		.align	2
 492              	.L36:
 493 003c 00000000 		.word	.LANCHOR0
 494 0040 00000000 		.word	wakeup
 495              		.cfi_endproc
 496              	.LFE235:
 497              		.size	chSchGoSleepTimeoutS, .-chSchGoSleepTimeoutS
 498              		.section	.text.chSchWakeupS,"ax",%progbits
 499              		.align	2
 500              		.p2align 4,,15
 501              		.global	chSchWakeupS
 502              		.thumb
 503              		.thumb_func
 504              		.type	chSchWakeupS, %function
 505              	chSchWakeupS:
 506              	.LFB236:
 507              		.loc 1 367 0
 508              		.cfi_startproc
 509              		@ args = 0, pretend = 0, frame = 0
 510              		@ frame_needed = 0, uses_anonymous_args = 0
 511              		@ link register save eliminated.
 512              	.LVL30:
 513              		.loc 1 383 0
ARM GAS  /var/folders/m4/4md61f0s1_g0rzfghffqnxvr0000gn/T//ccZlSDJ0.s 			page 10


 514 0000 144B     		ldr	r3, .L47
 515              		.loc 1 367 0
 516 0002 70B4     		push	{r4, r5, r6}
 517              		.cfi_def_cfa_offset 12
 518              		.cfi_offset 4, -12
 519              		.cfi_offset 5, -8
 520              		.cfi_offset 6, -4
 521              		.loc 1 383 0
 522 0004 9E69     		ldr	r6, [r3, #24]
 523 0006 8468     		ldr	r4, [r0, #8]
 524              		.loc 1 367 0
 525 0008 0546     		mov	r5, r0
 526              		.loc 1 383 0
 527 000a B068     		ldr	r0, [r6, #8]
 528              	.LVL31:
 529              		.loc 1 377 0
 530 000c 6962     		str	r1, [r5, #36]
 531              		.loc 1 383 0
 532 000e 8442     		cmp	r4, r0
 533              	.LBB179:
 534              	.LBB180:
 535              		.loc 1 227 0
 536 0010 4FF00002 		mov	r2, #0
 537              	.LBE180:
 538              	.LBE179:
 539              		.loc 1 383 0
 540 0014 0BD8     		bhi	.L39
 541              	.LVL32:
 542              	.LBB182:
 543              	.LBB181:
 544              		.loc 1 227 0
 545 0016 2A77     		strb	r2, [r5, #28]
 546              	.LVL33:
 547              	.L40:
 548              		.loc 1 230 0
 549 0018 1B68     		ldr	r3, [r3]
 550              	.LVL34:
 551              		.loc 1 231 0
 552 001a 9A68     		ldr	r2, [r3, #8]
 553 001c 9442     		cmp	r4, r2
 554 001e FBD9     		bls	.L40
 555              		.loc 1 234 0
 556 0020 5A68     		ldr	r2, [r3, #4]
 557 0022 6A60     		str	r2, [r5, #4]
 558              		.loc 1 233 0
 559 0024 2B60     		str	r3, [r5]
 560              		.loc 1 235 0
 561 0026 1560     		str	r5, [r2]
 562              		.loc 1 236 0
 563 0028 5D60     		str	r5, [r3, #4]
 564              	.LBE181:
 565              	.LBE182:
 566              		.loc 1 397 0
 567 002a 70BC     		pop	{r4, r5, r6}
 568              		.cfi_remember_state
 569              		.cfi_restore 6
 570              		.cfi_restore 5
ARM GAS  /var/folders/m4/4md61f0s1_g0rzfghffqnxvr0000gn/T//ccZlSDJ0.s 			page 11


 571              		.cfi_restore 4
 572              		.cfi_def_cfa_offset 0
 573              	.LVL35:
 574 002c 7047     		bx	lr
 575              	.LVL36:
 576              	.L39:
 577              		.cfi_restore_state
 578              	.LBB183:
 579              	.LBB184:
 580              	.LBB185:
 581              		.loc 1 227 0
 582 002e 3277     		strb	r2, [r6, #28]
 583              	.LVL37:
 584              		.loc 1 228 0
 585 0030 1A46     		mov	r2, r3
 586              	.LVL38:
 587              	.L42:
 588              		.loc 1 230 0
 589 0032 1268     		ldr	r2, [r2]
 590              	.LVL39:
 591              		.loc 1 231 0
 592 0034 9168     		ldr	r1, [r2, #8]
 593 0036 8842     		cmp	r0, r1
 594 0038 FBD9     		bls	.L42
 595              		.loc 1 234 0
 596 003a 5068     		ldr	r0, [r2, #4]
 597 003c 7060     		str	r0, [r6, #4]
 598              	.LBE185:
 599              	.LBE184:
 600              		.loc 1 394 0
 601 003e 0124     		movs	r4, #1
 602              	.LBB187:
 603              	.LBB186:
 604              		.loc 1 233 0
 605 0040 3260     		str	r2, [r6]
 606              		.loc 1 235 0
 607 0042 0660     		str	r6, [r0]
 608              		.loc 1 236 0
 609 0044 5660     		str	r6, [r2, #4]
 610              	.LBE186:
 611              	.LBE187:
 612              		.loc 1 394 0
 613 0046 2C77     		strb	r4, [r5, #28]
 614              		.loc 1 395 0
 615 0048 3146     		mov	r1, r6
 616 004a 2846     		mov	r0, r5
 617              		.loc 1 388 0
 618 004c 9D61     		str	r5, [r3, #24]
 619              	.LBE183:
 620              		.loc 1 397 0
 621 004e 70BC     		pop	{r4, r5, r6}
 622              		.cfi_restore 6
 623              		.cfi_restore 5
 624              		.cfi_restore 4
 625              		.cfi_def_cfa_offset 0
 626              	.LVL40:
 627              	.LBB188:
ARM GAS  /var/folders/m4/4md61f0s1_g0rzfghffqnxvr0000gn/T//ccZlSDJ0.s 			page 12


 628              		.loc 1 395 0
 629 0050 FFF7FEBF 		b	_port_switch
 630              	.LVL41:
 631              	.L48:
 632              		.align	2
 633              	.L47:
 634 0054 00000000 		.word	.LANCHOR0
 635              	.LBE188:
 636              		.cfi_endproc
 637              	.LFE236:
 638              		.size	chSchWakeupS, .-chSchWakeupS
 639              		.section	.text.chSchIsPreemptionRequired,"ax",%progbits
 640              		.align	2
 641              		.p2align 4,,15
 642              		.global	chSchIsPreemptionRequired
 643              		.thumb
 644              		.thumb_func
 645              		.type	chSchIsPreemptionRequired, %function
 646              	chSchIsPreemptionRequired:
 647              	.LFB238:
 648              		.loc 1 428 0
 649              		.cfi_startproc
 650              		@ args = 0, pretend = 0, frame = 0
 651              		@ frame_needed = 0, uses_anonymous_args = 0
 652              		@ link register save eliminated.
 653              		.loc 1 429 0
 654 0000 084B     		ldr	r3, .L53
 655              		.loc 1 430 0
 656 0002 9A69     		ldr	r2, [r3, #24]
 657              		.loc 1 429 0
 658 0004 1B68     		ldr	r3, [r3]
 659              		.loc 1 437 0
 660 0006 D17F     		ldrb	r1, [r2, #31]	@ zero_extendqisi2
 661              		.loc 1 429 0
 662 0008 9B68     		ldr	r3, [r3, #8]
 663              	.LVL42:
 664              		.loc 1 430 0
 665 000a 9068     		ldr	r0, [r2, #8]
 666              	.LVL43:
 667              		.loc 1 437 0
 668 000c 21B9     		cbnz	r1, .L52
 669              		.loc 1 437 0 is_stmt 0 discriminator 2
 670 000e 8342     		cmp	r3, r0
 671 0010 34BF     		ite	cc
 672 0012 0020     		movcc	r0, #0
 673              	.LVL44:
 674 0014 0120     		movcs	r0, #1
 675              		.loc 1 443 0 is_stmt 1 discriminator 2
 676 0016 7047     		bx	lr
 677              	.LVL45:
 678              	.L52:
 679              		.loc 1 437 0 discriminator 1
 680 0018 8342     		cmp	r3, r0
 681 001a 94BF     		ite	ls
 682 001c 0020     		movls	r0, #0
 683              	.LVL46:
 684 001e 0120     		movhi	r0, #1
ARM GAS  /var/folders/m4/4md61f0s1_g0rzfghffqnxvr0000gn/T//ccZlSDJ0.s 			page 13


 685 0020 7047     		bx	lr
 686              	.L54:
 687 0022 00BF     		.align	2
 688              	.L53:
 689 0024 00000000 		.word	.LANCHOR0
 690              		.cfi_endproc
 691              	.LFE238:
 692              		.size	chSchIsPreemptionRequired, .-chSchIsPreemptionRequired
 693              		.section	.text.chSchDoRescheduleBehind,"ax",%progbits
 694              		.align	2
 695              		.p2align 4,,15
 696              		.global	chSchDoRescheduleBehind
 697              		.thumb
 698              		.thumb_func
 699              		.type	chSchDoRescheduleBehind, %function
 700              	chSchDoRescheduleBehind:
 701              	.LFB239:
 702              		.loc 1 455 0
 703              		.cfi_startproc
 704              		@ args = 0, pretend = 0, frame = 0
 705              		@ frame_needed = 0, uses_anonymous_args = 0
 706              		@ link register save eliminated.
 707              		.loc 1 458 0
 708 0000 0E4A     		ldr	r2, .L60
 709              	.LBB189:
 710              	.LBB190:
 711              		.loc 4 672 0
 712 0002 1068     		ldr	r0, [r2]
 713              	.LBE190:
 714              	.LBE189:
 715              		.loc 1 455 0
 716 0004 F0B4     		push	{r4, r5, r6, r7}
 717              		.cfi_def_cfa_offset 16
 718              		.cfi_offset 4, -16
 719              		.cfi_offset 5, -12
 720              		.cfi_offset 6, -8
 721              		.cfi_offset 7, -4
 722              	.LBB194:
 723              	.LBB191:
 724              		.loc 4 674 0
 725 0006 0368     		ldr	r3, [r0]
 726              	.LBE191:
 727              	.LBE194:
 728              		.loc 1 458 0
 729 0008 9469     		ldr	r4, [r2, #24]
 730              	.LVL47:
 731              	.LBB195:
 732              	.LBB192:
 733              		.loc 4 674 0
 734 000a 1360     		str	r3, [r2]
 735              	.LBE192:
 736              	.LBE195:
 737              		.loc 1 466 0
 738 000c 0127     		movs	r7, #1
 739              		.loc 1 468 0
 740 000e 0426     		movs	r6, #4
 741              	.LBB196:
ARM GAS  /var/folders/m4/4md61f0s1_g0rzfghffqnxvr0000gn/T//ccZlSDJ0.s 			page 14


 742              	.LBB197:
 743              		.loc 1 227 0
 744 0010 0025     		movs	r5, #0
 745 0012 A168     		ldr	r1, [r4, #8]
 746              	.LBE197:
 747              	.LBE196:
 748              	.LBB200:
 749              	.LBB193:
 750              		.loc 4 675 0
 751 0014 5A60     		str	r2, [r3, #4]
 752              	.LBE193:
 753              	.LBE200:
 754              		.loc 1 466 0
 755 0016 0777     		strb	r7, [r0, #28]
 756              		.loc 1 460 0
 757 0018 9061     		str	r0, [r2, #24]
 758              		.loc 1 468 0
 759 001a E677     		strb	r6, [r4, #31]
 760              	.LVL48:
 761              	.LBB201:
 762              	.LBB198:
 763              		.loc 1 227 0
 764 001c 2577     		strb	r5, [r4, #28]
 765              	.LVL49:
 766 001e 00E0     		b	.L57
 767              	.LVL50:
 768              	.L59:
 769 0020 1B68     		ldr	r3, [r3]
 770              	.LVL51:
 771              	.L57:
 772              		.loc 1 231 0
 773 0022 9A68     		ldr	r2, [r3, #8]
 774 0024 8A42     		cmp	r2, r1
 775 0026 FBD2     		bcs	.L59
 776              		.loc 1 234 0
 777 0028 5A68     		ldr	r2, [r3, #4]
 778 002a 6260     		str	r2, [r4, #4]
 779              		.loc 1 233 0
 780 002c 2360     		str	r3, [r4]
 781              	.LBE198:
 782              	.LBE201:
 783              		.loc 1 471 0
 784 002e 2146     		mov	r1, r4
 785              	.LBB202:
 786              	.LBB199:
 787              		.loc 1 235 0
 788 0030 1460     		str	r4, [r2]
 789              		.loc 1 236 0
 790 0032 5C60     		str	r4, [r3, #4]
 791              	.LBE199:
 792              	.LBE202:
 793              		.loc 1 472 0
 794 0034 F0BC     		pop	{r4, r5, r6, r7}
 795              		.cfi_restore 7
 796              		.cfi_restore 6
 797              		.cfi_restore 5
 798              		.cfi_restore 4
ARM GAS  /var/folders/m4/4md61f0s1_g0rzfghffqnxvr0000gn/T//ccZlSDJ0.s 			page 15


 799              		.cfi_def_cfa_offset 0
 800              	.LVL52:
 801              		.loc 1 471 0
 802 0036 FFF7FEBF 		b	_port_switch
 803              	.LVL53:
 804              	.L61:
 805 003a 00BF     		.align	2
 806              	.L60:
 807 003c 00000000 		.word	.LANCHOR0
 808              		.cfi_endproc
 809              	.LFE239:
 810              		.size	chSchDoRescheduleBehind, .-chSchDoRescheduleBehind
 811              		.section	.text.chSchDoRescheduleAhead,"ax",%progbits
 812              		.align	2
 813              		.p2align 4,,15
 814              		.global	chSchDoRescheduleAhead
 815              		.thumb
 816              		.thumb_func
 817              		.type	chSchDoRescheduleAhead, %function
 818              	chSchDoRescheduleAhead:
 819              	.LFB240:
 820              		.loc 1 483 0
 821              		.cfi_startproc
 822              		@ args = 0, pretend = 0, frame = 0
 823              		@ frame_needed = 0, uses_anonymous_args = 0
 824              		@ link register save eliminated.
 825              		.loc 1 486 0
 826 0000 0D4A     		ldr	r2, .L67
 827              	.LBB203:
 828              	.LBB204:
 829              		.loc 4 672 0
 830 0002 1068     		ldr	r0, [r2]
 831              	.LBE204:
 832              	.LBE203:
 833              		.loc 1 483 0
 834 0004 70B4     		push	{r4, r5, r6}
 835              		.cfi_def_cfa_offset 12
 836              		.cfi_offset 4, -12
 837              		.cfi_offset 5, -8
 838              		.cfi_offset 6, -4
 839              	.LBB208:
 840              	.LBB205:
 841              		.loc 4 674 0
 842 0006 0368     		ldr	r3, [r0]
 843              	.LBE205:
 844              	.LBE208:
 845              		.loc 1 486 0
 846 0008 9469     		ldr	r4, [r2, #24]
 847              	.LVL54:
 848              	.LBB209:
 849              	.LBB206:
 850              		.loc 4 674 0
 851 000a 1360     		str	r3, [r2]
 852              	.LBE206:
 853              	.LBE209:
 854              		.loc 1 494 0
 855 000c 0126     		movs	r6, #1
ARM GAS  /var/folders/m4/4md61f0s1_g0rzfghffqnxvr0000gn/T//ccZlSDJ0.s 			page 16


 856              		.loc 1 496 0
 857 000e 0025     		movs	r5, #0
 858 0010 A168     		ldr	r1, [r4, #8]
 859              	.LBB210:
 860              	.LBB207:
 861              		.loc 4 675 0
 862 0012 5A60     		str	r2, [r3, #4]
 863              	.LBE207:
 864              	.LBE210:
 865              		.loc 1 494 0
 866 0014 0677     		strb	r6, [r0, #28]
 867              		.loc 1 488 0
 868 0016 9061     		str	r0, [r2, #24]
 869              		.loc 1 496 0
 870 0018 2577     		strb	r5, [r4, #28]
 871              	.LVL55:
 872 001a 00E0     		b	.L64
 873              	.LVL56:
 874              	.L66:
 875 001c 1B68     		ldr	r3, [r3]
 876              	.LVL57:
 877              	.L64:
 878              		.loc 1 500 0 discriminator 1
 879 001e 9A68     		ldr	r2, [r3, #8]
 880 0020 8A42     		cmp	r2, r1
 881 0022 FBD8     		bhi	.L66
 882              		.loc 1 503 0
 883 0024 5A68     		ldr	r2, [r3, #4]
 884 0026 6260     		str	r2, [r4, #4]
 885              		.loc 1 502 0
 886 0028 2360     		str	r3, [r4]
 887              		.loc 1 507 0
 888 002a 2146     		mov	r1, r4
 889              		.loc 1 504 0
 890 002c 1460     		str	r4, [r2]
 891              		.loc 1 505 0
 892 002e 5C60     		str	r4, [r3, #4]
 893              		.loc 1 508 0
 894 0030 70BC     		pop	{r4, r5, r6}
 895              		.cfi_restore 6
 896              		.cfi_restore 5
 897              		.cfi_restore 4
 898              		.cfi_def_cfa_offset 0
 899              	.LVL58:
 900              		.loc 1 507 0
 901 0032 FFF7FEBF 		b	_port_switch
 902              	.LVL59:
 903              	.L68:
 904 0036 00BF     		.align	2
 905              	.L67:
 906 0038 00000000 		.word	.LANCHOR0
 907              		.cfi_endproc
 908              	.LFE240:
 909              		.size	chSchDoRescheduleAhead, .-chSchDoRescheduleAhead
 910              		.section	.text.chSchRescheduleS,"ax",%progbits
 911              		.align	2
 912              		.p2align 4,,15
ARM GAS  /var/folders/m4/4md61f0s1_g0rzfghffqnxvr0000gn/T//ccZlSDJ0.s 			page 17


 913              		.global	chSchRescheduleS
 914              		.thumb
 915              		.thumb_func
 916              		.type	chSchRescheduleS, %function
 917              	chSchRescheduleS:
 918              	.LFB237:
 919              		.loc 1 406 0
 920              		.cfi_startproc
 921              		@ args = 0, pretend = 0, frame = 0
 922              		@ frame_needed = 0, uses_anonymous_args = 0
 923              		@ link register save eliminated.
 924              	.LBB211:
 925              	.LBB212:
 926              		.loc 4 713 0
 927 0000 044B     		ldr	r3, .L72
 928 0002 1A68     		ldr	r2, [r3]
 929 0004 9B69     		ldr	r3, [r3, #24]
 930              	.LBE212:
 931              	.LBE211:
 932              		.loc 1 410 0
 933 0006 9268     		ldr	r2, [r2, #8]
 934 0008 9B68     		ldr	r3, [r3, #8]
 935 000a 9A42     		cmp	r2, r3
 936 000c 00D8     		bhi	.L71
 937 000e 7047     		bx	lr
 938              	.L71:
 939              		.loc 1 411 0
 940 0010 FFF7FEBF 		b	chSchDoRescheduleAhead
 941              	.LVL60:
 942              	.L73:
 943              		.align	2
 944              	.L72:
 945 0014 00000000 		.word	.LANCHOR0
 946              		.cfi_endproc
 947              	.LFE237:
 948              		.size	chSchRescheduleS, .-chSchRescheduleS
 949              		.section	.text.chSchDoReschedule,"ax",%progbits
 950              		.align	2
 951              		.p2align 4,,15
 952              		.global	chSchDoReschedule
 953              		.thumb
 954              		.thumb_func
 955              		.type	chSchDoReschedule, %function
 956              	chSchDoReschedule:
 957              	.LFB241:
 958              		.loc 1 520 0
 959              		.cfi_startproc
 960              		@ args = 0, pretend = 0, frame = 0
 961              		@ frame_needed = 0, uses_anonymous_args = 0
 962              		@ link register save eliminated.
 963              		.loc 1 525 0
 964 0000 034B     		ldr	r3, .L77
 965 0002 9B69     		ldr	r3, [r3, #24]
 966 0004 DB7F     		ldrb	r3, [r3, #31]	@ zero_extendqisi2
 967 0006 0BB1     		cbz	r3, .L76
 968              		.loc 1 533 0
 969 0008 FFF7FEBF 		b	chSchDoRescheduleAhead
ARM GAS  /var/folders/m4/4md61f0s1_g0rzfghffqnxvr0000gn/T//ccZlSDJ0.s 			page 18


 970              	.LVL61:
 971              	.L76:
 972              		.loc 1 528 0
 973 000c FFF7FEBF 		b	chSchDoRescheduleBehind
 974              	.LVL62:
 975              	.L78:
 976              		.align	2
 977              	.L77:
 978 0010 00000000 		.word	.LANCHOR0
 979              		.cfi_endproc
 980              	.LFE241:
 981              		.size	chSchDoReschedule, .-chSchDoReschedule
 982              		.global	ch
 983              		.section	.bss.ch,"aw",%nobits
 984              		.align	3
 985              		.set	.LANCHOR0,. + 0
 986              		.type	ch, %object
 987              		.size	ch, 600
 988              	ch:
 989 0000 00000000 		.space	600
 989      00000000 
 989      00000000 
 989      00000000 
 989      00000000 
 990              		.text
 991              	.Letext0:
 992              		.file 5 "/usr/local/Cellar/gcc-arm-none-eabi-49/20150609/lib/gcc/arm-none-eabi/4.9.3/include/stdde
 993              		.file 6 "/usr/local/Cellar/gcc-arm-none-eabi-49/20150609/arm-none-eabi/include/machine/_default_ty
 994              		.file 7 "/usr/local/Cellar/gcc-arm-none-eabi-49/20150609/arm-none-eabi/include/sys/_stdint.h"
 995              		.file 8 "ChibiOS_16.1.4/os/rt/ports/ARMCMx/compilers/GCC/chtypes.h"
 996              		.file 9 "ChibiOS_16.1.4/os/rt/include/chsystypes.h"
 997              		.file 10 "ChibiOS_16.1.4/os/rt/ports/ARMCMx/chcore.h"
 998              		.file 11 "ChibiOS_16.1.4/os/rt/ports/ARMCMx/chcore_v7m.h"
 999              		.file 12 "ChibiOS_16.1.4/os/rt/include/chtm.h"
 1000              		.file 13 "ChibiOS_16.1.4/os/rt/include/chmtx.h"
 1001              		.file 14 "ChibiOS_16.1.4/os/rt/include/chvt.h"
 1002              		.file 15 "ChibiOS_16.1.4/os/rt/include/chsys.h"
 1003              		.file 16 "ChibiOS_16.1.4/os/ext/CMSIS/include/core_cm4.h"