ARM GAS  /var/folders/m4/4md61f0s1_g0rzfghffqnxvr0000gn/T//ccXSh2M4.s 			page 1


   1              		.syntax unified
   2              		.cpu cortex-m4
   3              		.eabi_attribute 27, 1
   4              		.eabi_attribute 28, 1
   5              		.fpu fpv4-sp-d16
   6              		.eabi_attribute 20, 1
   7              		.eabi_attribute 21, 1
   8              		.eabi_attribute 23, 3
   9              		.eabi_attribute 24, 1
  10              		.eabi_attribute 25, 1
  11              		.eabi_attribute 26, 1
  12              		.eabi_attribute 30, 2
  13              		.eabi_attribute 34, 1
  14              		.eabi_attribute 18, 4
  15              		.thumb
  16              		.file	"chsem.c"
  17              		.text
  18              	.Ltext0:
  19              		.cfi_sections	.debug_frame
  20              		.section	.text.chSemObjectInit,"ax",%progbits
  21              		.align	2
  22              		.p2align 4,,15
  23              		.global	chSemObjectInit
  24              		.thumb
  25              		.thumb_func
  26              		.type	chSemObjectInit, %function
  27              	chSemObjectInit:
  28              	.LFB231:
  29              		.file 1 "ChibiOS_16.1.4/os/rt/src/chsem.c"
  30              		.loc 1 97 0
  31              		.cfi_startproc
  32              		@ args = 0, pretend = 0, frame = 0
  33              		@ frame_needed = 0, uses_anonymous_args = 0
  34              		@ link register save eliminated.
  35              	.LVL0:
  36              	.LBB90:
  37              	.LBB91:
  38              		.file 2 "ChibiOS_16.1.4/os/rt/include/chschd.h"
  39              		.loc 2 604 0
  40 0000 0060     		str	r0, [r0]
  41              		.loc 2 605 0
  42 0002 4060     		str	r0, [r0, #4]
  43              	.LBE91:
  44              	.LBE90:
  45              		.loc 1 102 0
  46 0004 8160     		str	r1, [r0, #8]
  47 0006 7047     		bx	lr
  48              		.cfi_endproc
  49              	.LFE231:
  50              		.size	chSemObjectInit, .-chSemObjectInit
  51              		.section	.text.chSemResetI,"ax",%progbits
  52              		.align	2
  53              		.p2align 4,,15
  54              		.global	chSemResetI
  55              		.thumb
  56              		.thumb_func
  57              		.type	chSemResetI, %function
ARM GAS  /var/folders/m4/4md61f0s1_g0rzfghffqnxvr0000gn/T//ccXSh2M4.s 			page 2


  58              	chSemResetI:
  59              	.LFB233:
  60              		.loc 1 147 0
  61              		.cfi_startproc
  62              		@ args = 0, pretend = 0, frame = 0
  63              		@ frame_needed = 0, uses_anonymous_args = 0
  64              	.LVL1:
  65 0000 70B5     		push	{r4, r5, r6, lr}
  66              		.cfi_def_cfa_offset 16
  67              		.cfi_offset 4, -16
  68              		.cfi_offset 5, -12
  69              		.cfi_offset 6, -8
  70              		.cfi_offset 14, -4
  71              		.loc 1 156 0
  72 0002 8568     		ldr	r5, [r0, #8]
  73              	.LVL2:
  74              		.loc 1 157 0
  75 0004 8160     		str	r1, [r0, #8]
  76              		.loc 1 158 0
  77 0006 0135     		adds	r5, r5, #1
  78              	.LVL3:
  79 0008 002D     		cmp	r5, #0
  80 000a 0CDC     		bgt	.L2
  81 000c 0446     		mov	r4, r0
  82              		.loc 1 159 0
  83 000e 6FF00106 		mvn	r6, #1
  84              	.LVL4:
  85              	.L4:
  86              	.LBB92:
  87              	.LBB93:
  88              		.loc 2 681 0
  89 0012 6068     		ldr	r0, [r4, #4]
  90              	.LVL5:
  91              		.loc 2 683 0
  92 0014 4368     		ldr	r3, [r0, #4]
  93 0016 6360     		str	r3, [r4, #4]
  94              		.loc 2 684 0
  95 0018 1C60     		str	r4, [r3]
  96              	.LBE93:
  97              	.LBE92:
  98              		.loc 1 159 0
  99 001a FFF7FEFF 		bl	chSchReadyI
 100              	.LVL6:
 101              		.loc 1 158 0
 102 001e 0135     		adds	r5, r5, #1
 103              	.LVL7:
 104 0020 012D     		cmp	r5, #1
 105              		.loc 1 159 0
 106 0022 4662     		str	r6, [r0, #36]
 107              	.LVL8:
 108              		.loc 1 158 0
 109 0024 F5D1     		bne	.L4
 110              	.LVL9:
 111              	.L2:
 112 0026 70BD     		pop	{r4, r5, r6, pc}
 113              		.cfi_endproc
 114              	.LFE233:
ARM GAS  /var/folders/m4/4md61f0s1_g0rzfghffqnxvr0000gn/T//ccXSh2M4.s 			page 3


 115              		.size	chSemResetI, .-chSemResetI
 116              		.section	.text.chSemReset,"ax",%progbits
 117              		.align	2
 118              		.p2align 4,,15
 119              		.global	chSemReset
 120              		.thumb
 121              		.thumb_func
 122              		.type	chSemReset, %function
 123              	chSemReset:
 124              	.LFB232:
 125              		.loc 1 120 0
 126              		.cfi_startproc
 127              		@ args = 0, pretend = 0, frame = 0
 128              		@ frame_needed = 0, uses_anonymous_args = 0
 129              	.LVL10:
 130 0000 08B5     		push	{r3, lr}
 131              		.cfi_def_cfa_offset 8
 132              		.cfi_offset 3, -8
 133              		.cfi_offset 14, -4
 134              	.LBB94:
 135              	.LBB95:
 136              	.LBB96:
 137              	.LBB97:
 138              		.file 3 "ChibiOS_16.1.4/os/ext/CMSIS/include/core_cmFunc.h"
 139              		.loc 3 548 0
 140 0002 2023     		movs	r3, #32
 141              	@ 548 "ChibiOS_16.1.4/os/ext/CMSIS/include/core_cmFunc.h" 1
 142 0004 83F31188 		MSR basepri, r3
 143              	@ 0 "" 2
 144              		.thumb
 145              	.LBE97:
 146              	.LBE96:
 147              	.LBE95:
 148              	.LBE94:
 149              		.loc 1 123 0
 150 0008 FFF7FEFF 		bl	chSemResetI
 151              	.LVL11:
 152              		.loc 1 124 0
 153 000c FFF7FEFF 		bl	chSchRescheduleS
 154              	.LVL12:
 155              	.LBB98:
 156              	.LBB99:
 157              	.LBB100:
 158              	.LBB101:
 159              	.LBB102:
 160              		.loc 3 548 0
 161 0010 0023     		movs	r3, #0
 162              	@ 548 "ChibiOS_16.1.4/os/ext/CMSIS/include/core_cmFunc.h" 1
 163 0012 83F31188 		MSR basepri, r3
 164              	@ 0 "" 2
 165              		.thumb
 166 0016 08BD     		pop	{r3, pc}
 167              	.LBE102:
 168              	.LBE101:
 169              	.LBE100:
 170              	.LBE99:
 171              	.LBE98:
ARM GAS  /var/folders/m4/4md61f0s1_g0rzfghffqnxvr0000gn/T//ccXSh2M4.s 			page 4


 172              		.cfi_endproc
 173              	.LFE232:
 174              		.size	chSemReset, .-chSemReset
 175              		.section	.text.chSemWait,"ax",%progbits
 176              		.align	2
 177              		.p2align 4,,15
 178              		.global	chSemWait
 179              		.thumb
 180              		.thumb_func
 181              		.type	chSemWait, %function
 182              	chSemWait:
 183              	.LFB234:
 184              		.loc 1 175 0
 185              		.cfi_startproc
 186              		@ args = 0, pretend = 0, frame = 0
 187              		@ frame_needed = 0, uses_anonymous_args = 0
 188              	.LVL13:
 189              	.LBB118:
 190              	.LBB119:
 191              	.LBB120:
 192              	.LBB121:
 193              		.loc 3 548 0
 194 0000 2023     		movs	r3, #32
 195              	@ 548 "ChibiOS_16.1.4/os/ext/CMSIS/include/core_cmFunc.h" 1
 196 0002 83F31188 		MSR basepri, r3
 197              	@ 0 "" 2
 198              	.LVL14:
 199              		.thumb
 200              	.LBE121:
 201              	.LBE120:
 202              	.LBE119:
 203              	.LBE118:
 204              	.LBB122:
 205              	.LBB123:
 206              		.loc 1 205 0
 207 0006 8368     		ldr	r3, [r0, #8]
 208 0008 013B     		subs	r3, r3, #1
 209 000a 002B     		cmp	r3, #0
 210 000c 8360     		str	r3, [r0, #8]
 211 000e 04DB     		blt	.L16
 212              		.loc 1 213 0
 213 0010 0020     		movs	r0, #0
 214              	.LVL15:
 215              	.LBE123:
 216              	.LBE122:
 217              	.LBB131:
 218              	.LBB132:
 219              	.LBB133:
 220              	.LBB134:
 221              	.LBB135:
 222              		.loc 3 548 0
 223 0012 0023     		movs	r3, #0
 224              	@ 548 "ChibiOS_16.1.4/os/ext/CMSIS/include/core_cmFunc.h" 1
 225 0014 83F31188 		MSR basepri, r3
 226              	@ 0 "" 2
 227              		.thumb
 228              	.LBE135:
ARM GAS  /var/folders/m4/4md61f0s1_g0rzfghffqnxvr0000gn/T//ccXSh2M4.s 			page 5


 229              	.LBE134:
 230              	.LBE133:
 231              	.LBE132:
 232              	.LBE131:
 233              		.loc 1 183 0
 234 0018 7047     		bx	lr
 235              	.LVL16:
 236              	.L16:
 237              		.loc 1 175 0
 238 001a 10B5     		push	{r4, lr}
 239              		.cfi_def_cfa_offset 8
 240              		.cfi_offset 4, -8
 241              		.cfi_offset 14, -4
 242              	.LBB140:
 243              	.LBB130:
 244              	.LBB124:
 245              	.LBB125:
 246              		.loc 1 206 0
 247 001c 084C     		ldr	r4, .L17
 248 001e A269     		ldr	r2, [r4, #24]
 249 0020 5062     		str	r0, [r2, #36]
 250              	.LBB126:
 251              	.LBB127:
 252              		.loc 2 666 0
 253 0022 4168     		ldr	r1, [r0, #4]
 254 0024 5160     		str	r1, [r2, #4]
 255 0026 0346     		mov	r3, r0
 256              	.LVL17:
 257              		.loc 2 665 0
 258 0028 1060     		str	r0, [r2]
 259              		.loc 2 667 0
 260 002a 0A60     		str	r2, [r1]
 261              	.LBE127:
 262              	.LBE126:
 263              		.loc 1 208 0
 264 002c 0520     		movs	r0, #5
 265              	.LVL18:
 266              	.LBB129:
 267              	.LBB128:
 268              		.loc 2 668 0
 269 002e 5A60     		str	r2, [r3, #4]
 270              	.LBE128:
 271              	.LBE129:
 272              		.loc 1 208 0
 273 0030 FFF7FEFF 		bl	chSchGoSleepS
 274              	.LVL19:
 275              		.loc 1 210 0
 276 0034 A369     		ldr	r3, [r4, #24]
 277 0036 586A     		ldr	r0, [r3, #36]
 278              	.LVL20:
 279              	.LBE125:
 280              	.LBE124:
 281              	.LBE130:
 282              	.LBE140:
 283              	.LBB141:
 284              	.LBB139:
 285              	.LBB138:
ARM GAS  /var/folders/m4/4md61f0s1_g0rzfghffqnxvr0000gn/T//ccXSh2M4.s 			page 6


 286              	.LBB137:
 287              	.LBB136:
 288              		.loc 3 548 0
 289 0038 0023     		movs	r3, #0
 290              	@ 548 "ChibiOS_16.1.4/os/ext/CMSIS/include/core_cmFunc.h" 1
 291 003a 83F31188 		MSR basepri, r3
 292              	@ 0 "" 2
 293              		.thumb
 294              	.LBE136:
 295              	.LBE137:
 296              	.LBE138:
 297              	.LBE139:
 298              	.LBE141:
 299              		.loc 1 183 0
 300 003e 10BD     		pop	{r4, pc}
 301              	.L18:
 302              		.align	2
 303              	.L17:
 304 0040 00000000 		.word	ch
 305              		.cfi_endproc
 306              	.LFE234:
 307              		.size	chSemWait, .-chSemWait
 308              		.section	.text.chSemWaitS,"ax",%progbits
 309              		.align	2
 310              		.p2align 4,,15
 311              		.global	chSemWaitS
 312              		.thumb
 313              		.thumb_func
 314              		.type	chSemWaitS, %function
 315              	chSemWaitS:
 316              	.LFB235:
 317              		.loc 1 197 0
 318              		.cfi_startproc
 319              		@ args = 0, pretend = 0, frame = 0
 320              		@ frame_needed = 0, uses_anonymous_args = 0
 321              	.LVL21:
 322              		.loc 1 205 0
 323 0000 8368     		ldr	r3, [r0, #8]
 324 0002 013B     		subs	r3, r3, #1
 325 0004 002B     		cmp	r3, #0
 326 0006 8360     		str	r3, [r0, #8]
 327 0008 01DB     		blt	.L24
 328              		.loc 1 213 0
 329 000a 0020     		movs	r0, #0
 330              	.LVL22:
 331 000c 7047     		bx	lr
 332              	.LVL23:
 333              	.L24:
 334              		.loc 1 197 0
 335 000e 10B5     		push	{r4, lr}
 336              		.cfi_def_cfa_offset 8
 337              		.cfi_offset 4, -8
 338              		.cfi_offset 14, -4
 339              	.LBB146:
 340              	.LBB147:
 341              		.loc 1 206 0
 342 0010 074C     		ldr	r4, .L25
ARM GAS  /var/folders/m4/4md61f0s1_g0rzfghffqnxvr0000gn/T//ccXSh2M4.s 			page 7


 343 0012 A269     		ldr	r2, [r4, #24]
 344 0014 5062     		str	r0, [r2, #36]
 345              	.LBB148:
 346              	.LBB149:
 347              		.loc 2 666 0
 348 0016 4168     		ldr	r1, [r0, #4]
 349 0018 5160     		str	r1, [r2, #4]
 350 001a 0346     		mov	r3, r0
 351              	.LVL24:
 352              		.loc 2 665 0
 353 001c 1060     		str	r0, [r2]
 354              		.loc 2 667 0
 355 001e 0A60     		str	r2, [r1]
 356              	.LBE149:
 357              	.LBE148:
 358              		.loc 1 208 0
 359 0020 0520     		movs	r0, #5
 360              	.LVL25:
 361              	.LBB151:
 362              	.LBB150:
 363              		.loc 2 668 0
 364 0022 5A60     		str	r2, [r3, #4]
 365              	.LBE150:
 366              	.LBE151:
 367              		.loc 1 208 0
 368 0024 FFF7FEFF 		bl	chSchGoSleepS
 369              	.LVL26:
 370              		.loc 1 210 0
 371 0028 A369     		ldr	r3, [r4, #24]
 372 002a 586A     		ldr	r0, [r3, #36]
 373 002c 10BD     		pop	{r4, pc}
 374              	.L26:
 375 002e 00BF     		.align	2
 376              	.L25:
 377 0030 00000000 		.word	ch
 378              	.LBE147:
 379              	.LBE146:
 380              		.cfi_endproc
 381              	.LFE235:
 382              		.size	chSemWaitS, .-chSemWaitS
 383              		.section	.text.chSemWaitTimeoutS,"ax",%progbits
 384              		.align	2
 385              		.p2align 4,,15
 386              		.global	chSemWaitTimeoutS
 387              		.thumb
 388              		.thumb_func
 389              		.type	chSemWaitTimeoutS, %function
 390              	chSemWaitTimeoutS:
 391              	.LFB237:
 392              		.loc 1 264 0
 393              		.cfi_startproc
 394              		@ args = 0, pretend = 0, frame = 0
 395              		@ frame_needed = 0, uses_anonymous_args = 0
 396              		@ link register save eliminated.
 397              	.LVL27:
 398 0000 0346     		mov	r3, r0
 399              		.loc 1 272 0
ARM GAS  /var/folders/m4/4md61f0s1_g0rzfghffqnxvr0000gn/T//ccXSh2M4.s 			page 8


 400 0002 8068     		ldr	r0, [r0, #8]
 401              	.LVL28:
 402 0004 421E     		subs	r2, r0, #1
 403 0006 002A     		cmp	r2, #0
 404 0008 9A60     		str	r2, [r3, #8]
 405 000a 01DB     		blt	.L33
 406              		.loc 1 284 0
 407 000c 0020     		movs	r0, #0
 408 000e 7047     		bx	lr
 409              	.L33:
 410              		.loc 1 264 0
 411 0010 10B4     		push	{r4}
 412              		.cfi_def_cfa_offset 4
 413              		.cfi_offset 4, -4
 414              		.loc 1 273 0
 415 0012 61B1     		cbz	r1, .L34
 416              	.LVL29:
 417              	.LBB156:
 418              	.LBB157:
 419              		.loc 1 278 0
 420 0014 094A     		ldr	r2, .L35
 421 0016 9269     		ldr	r2, [r2, #24]
 422 0018 5362     		str	r3, [r2, #36]
 423              	.LVL30:
 424              	.LBB158:
 425              	.LBB159:
 426              		.loc 2 666 0
 427 001a 5C68     		ldr	r4, [r3, #4]
 428              	.LBE159:
 429              	.LBE158:
 430              		.loc 1 281 0
 431 001c 0520     		movs	r0, #5
 432              	.LBB161:
 433              	.LBB160:
 434              		.loc 2 666 0
 435 001e 82E81800 		stmia	r2, {r3, r4}
 436              		.loc 2 667 0
 437 0022 2260     		str	r2, [r4]
 438              		.loc 2 668 0
 439 0024 5A60     		str	r2, [r3, #4]
 440              	.LBE160:
 441              	.LBE161:
 442              	.LBE157:
 443              	.LBE156:
 444              		.loc 1 285 0
 445 0026 5DF8044B 		ldr	r4, [sp], #4
 446              		.cfi_remember_state
 447              		.cfi_restore 4
 448              		.cfi_def_cfa_offset 0
 449              	.LBB163:
 450              	.LBB162:
 451              		.loc 1 281 0
 452 002a FFF7FEBF 		b	chSchGoSleepTimeoutS
 453              	.LVL31:
 454              	.L34:
 455              		.cfi_restore_state
 456              	.LBE162:
ARM GAS  /var/folders/m4/4md61f0s1_g0rzfghffqnxvr0000gn/T//ccXSh2M4.s 			page 9


 457              	.LBE163:
 458              		.loc 1 274 0
 459 002e 9860     		str	r0, [r3, #8]
 460              		.loc 1 285 0
 461 0030 5DF8044B 		ldr	r4, [sp], #4
 462              		.cfi_restore 4
 463              		.cfi_def_cfa_offset 0
 464              		.loc 1 276 0
 465 0034 4FF0FF30 		mov	r0, #-1
 466              		.loc 1 285 0
 467 0038 7047     		bx	lr
 468              	.L36:
 469 003a 00BF     		.align	2
 470              	.L35:
 471 003c 00000000 		.word	ch
 472              		.cfi_endproc
 473              	.LFE237:
 474              		.size	chSemWaitTimeoutS, .-chSemWaitTimeoutS
 475              		.section	.text.chSemWaitTimeout,"ax",%progbits
 476              		.align	2
 477              		.p2align 4,,15
 478              		.global	chSemWaitTimeout
 479              		.thumb
 480              		.thumb_func
 481              		.type	chSemWaitTimeout, %function
 482              	chSemWaitTimeout:
 483              	.LFB236:
 484              		.loc 1 235 0
 485              		.cfi_startproc
 486              		@ args = 0, pretend = 0, frame = 0
 487              		@ frame_needed = 0, uses_anonymous_args = 0
 488              	.LVL32:
 489 0000 08B5     		push	{r3, lr}
 490              		.cfi_def_cfa_offset 8
 491              		.cfi_offset 3, -8
 492              		.cfi_offset 14, -4
 493              	.LBB164:
 494              	.LBB165:
 495              	.LBB166:
 496              	.LBB167:
 497              		.loc 3 548 0
 498 0002 2023     		movs	r3, #32
 499              	@ 548 "ChibiOS_16.1.4/os/ext/CMSIS/include/core_cmFunc.h" 1
 500 0004 83F31188 		MSR basepri, r3
 501              	@ 0 "" 2
 502              		.thumb
 503              	.LBE167:
 504              	.LBE166:
 505              	.LBE165:
 506              	.LBE164:
 507              		.loc 1 239 0
 508 0008 FFF7FEFF 		bl	chSemWaitTimeoutS
 509              	.LVL33:
 510              	.LBB168:
 511              	.LBB169:
 512              	.LBB170:
 513              	.LBB171:
ARM GAS  /var/folders/m4/4md61f0s1_g0rzfghffqnxvr0000gn/T//ccXSh2M4.s 			page 10


 514              	.LBB172:
 515              		.loc 3 548 0
 516 000c 0023     		movs	r3, #0
 517              	@ 548 "ChibiOS_16.1.4/os/ext/CMSIS/include/core_cmFunc.h" 1
 518 000e 83F31188 		MSR basepri, r3
 519              	@ 0 "" 2
 520              		.thumb
 521              	.LBE172:
 522              	.LBE171:
 523              	.LBE170:
 524              	.LBE169:
 525              	.LBE168:
 526              		.loc 1 243 0
 527 0012 08BD     		pop	{r3, pc}
 528              		.cfi_endproc
 529              	.LFE236:
 530              		.size	chSemWaitTimeout, .-chSemWaitTimeout
 531              		.section	.text.chSemSignal,"ax",%progbits
 532              		.align	2
 533              		.p2align 4,,15
 534              		.global	chSemSignal
 535              		.thumb
 536              		.thumb_func
 537              		.type	chSemSignal, %function
 538              	chSemSignal:
 539              	.LFB238:
 540              		.loc 1 294 0
 541              		.cfi_startproc
 542              		@ args = 0, pretend = 0, frame = 0
 543              		@ frame_needed = 0, uses_anonymous_args = 0
 544              	.LVL34:
 545 0000 08B5     		push	{r3, lr}
 546              		.cfi_def_cfa_offset 8
 547              		.cfi_offset 3, -8
 548              		.cfi_offset 14, -4
 549              	.LBB173:
 550              	.LBB174:
 551              	.LBB175:
 552              	.LBB176:
 553              		.loc 3 548 0
 554 0002 2023     		movs	r3, #32
 555              	@ 548 "ChibiOS_16.1.4/os/ext/CMSIS/include/core_cmFunc.h" 1
 556 0004 83F31188 		MSR basepri, r3
 557              	@ 0 "" 2
 558              		.thumb
 559              	.LBE176:
 560              	.LBE175:
 561              	.LBE174:
 562              	.LBE173:
 563              		.loc 1 302 0
 564 0008 8368     		ldr	r3, [r0, #8]
 565 000a 0133     		adds	r3, r3, #1
 566 000c 002B     		cmp	r3, #0
 567 000e 8360     		str	r3, [r0, #8]
 568 0010 03DD     		ble	.L42
 569              	.LVL35:
 570              	.LBB177:
ARM GAS  /var/folders/m4/4md61f0s1_g0rzfghffqnxvr0000gn/T//ccXSh2M4.s 			page 11


 571              	.LBB178:
 572              	.LBB179:
 573              	.LBB180:
 574              	.LBB181:
 575              		.loc 3 548 0
 576 0012 0023     		movs	r3, #0
 577              	@ 548 "ChibiOS_16.1.4/os/ext/CMSIS/include/core_cmFunc.h" 1
 578 0014 83F31188 		MSR basepri, r3
 579              	@ 0 "" 2
 580              		.thumb
 581 0018 08BD     		pop	{r3, pc}
 582              	.LVL36:
 583              	.L42:
 584 001a 0346     		mov	r3, r0
 585              	.LVL37:
 586              	.LBE181:
 587              	.LBE180:
 588              	.LBE179:
 589              	.LBE178:
 590              	.LBE177:
 591              	.LBB186:
 592              	.LBB187:
 593              		.loc 2 672 0
 594 001c 0068     		ldr	r0, [r0]
 595              	.LVL38:
 596              		.loc 2 674 0
 597 001e 0268     		ldr	r2, [r0]
 598 0020 1A60     		str	r2, [r3]
 599              	.LBE187:
 600              	.LBE186:
 601              		.loc 1 303 0
 602 0022 0021     		movs	r1, #0
 603              	.LBB189:
 604              	.LBB188:
 605              		.loc 2 675 0
 606 0024 5360     		str	r3, [r2, #4]
 607              	.LBE188:
 608              	.LBE189:
 609              		.loc 1 303 0
 610 0026 FFF7FEFF 		bl	chSchWakeupS
 611              	.LVL39:
 612              	.LBB190:
 613              	.LBB185:
 614              	.LBB184:
 615              	.LBB183:
 616              	.LBB182:
 617              		.loc 3 548 0
 618 002a 0023     		movs	r3, #0
 619              	@ 548 "ChibiOS_16.1.4/os/ext/CMSIS/include/core_cmFunc.h" 1
 620 002c 83F31188 		MSR basepri, r3
 621              	@ 0 "" 2
 622              		.thumb
 623 0030 08BD     		pop	{r3, pc}
 624              	.LBE182:
 625              	.LBE183:
 626              	.LBE184:
 627              	.LBE185:
ARM GAS  /var/folders/m4/4md61f0s1_g0rzfghffqnxvr0000gn/T//ccXSh2M4.s 			page 12


 628              	.LBE190:
 629              		.cfi_endproc
 630              	.LFE238:
 631              		.size	chSemSignal, .-chSemSignal
 632 0032 00BF     		.section	.text.chSemSignalI,"ax",%progbits
 633              		.align	2
 634              		.p2align 4,,15
 635              		.global	chSemSignalI
 636              		.thumb
 637              		.thumb_func
 638              		.type	chSemSignalI, %function
 639              	chSemSignalI:
 640              	.LFB239:
 641              		.loc 1 319 0
 642              		.cfi_startproc
 643              		@ args = 0, pretend = 0, frame = 0
 644              		@ frame_needed = 0, uses_anonymous_args = 0
 645              		@ link register save eliminated.
 646              	.LVL40:
 647              		.loc 1 327 0
 648 0000 8368     		ldr	r3, [r0, #8]
 649 0002 0133     		adds	r3, r3, #1
 650 0004 002B     		cmp	r3, #0
 651 0006 8360     		str	r3, [r0, #8]
 652 0008 00DD     		ble	.L45
 653 000a 7047     		bx	lr
 654              	.L45:
 655              	.LVL41:
 656              	.LBB191:
 657              	.LBB192:
 658              	.LBB193:
 659              		.loc 2 672 0
 660 000c 0368     		ldr	r3, [r0]
 661              	.LVL42:
 662              		.loc 2 674 0
 663 000e 1A68     		ldr	r2, [r3]
 664 0010 0260     		str	r2, [r0]
 665              	.LBE193:
 666              	.LBE192:
 667              		.loc 1 331 0
 668 0012 0021     		movs	r1, #0
 669              	.LBB195:
 670              	.LBB194:
 671              		.loc 2 675 0
 672 0014 5060     		str	r0, [r2, #4]
 673              	.LBE194:
 674              	.LBE195:
 675              		.loc 1 332 0
 676 0016 1846     		mov	r0, r3
 677              	.LVL43:
 678              		.loc 1 331 0
 679 0018 5962     		str	r1, [r3, #36]
 680              		.loc 1 332 0
 681 001a FFF7FEBF 		b	chSchReadyI
 682              	.LVL44:
 683              	.LBE191:
 684              		.cfi_endproc
ARM GAS  /var/folders/m4/4md61f0s1_g0rzfghffqnxvr0000gn/T//ccXSh2M4.s 			page 13


 685              	.LFE239:
 686              		.size	chSemSignalI, .-chSemSignalI
 687 001e 00BF     		.section	.text.chSemAddCounterI,"ax",%progbits
 688              		.align	2
 689              		.p2align 4,,15
 690              		.global	chSemAddCounterI
 691              		.thumb
 692              		.thumb_func
 693              		.type	chSemAddCounterI, %function
 694              	chSemAddCounterI:
 695              	.LFB240:
 696              		.loc 1 349 0
 697              		.cfi_startproc
 698              		@ args = 0, pretend = 0, frame = 0
 699              		@ frame_needed = 0, uses_anonymous_args = 0
 700              	.LVL45:
 701 0000 70B5     		push	{r4, r5, r6, lr}
 702              		.cfi_def_cfa_offset 16
 703              		.cfi_offset 4, -16
 704              		.cfi_offset 5, -12
 705              		.cfi_offset 6, -8
 706              		.cfi_offset 14, -4
 707              		.loc 1 357 0
 708 0002 0C1E     		subs	r4, r1, #0
 709 0004 12DD     		ble	.L46
 710 0006 0546     		mov	r5, r0
 711              		.loc 1 359 0
 712 0008 0026     		movs	r6, #0
 713 000a 01E0     		b	.L49
 714              	.LVL46:
 715              	.L48:
 716              		.loc 1 357 0
 717 000c 013C     		subs	r4, r4, #1
 718              	.LVL47:
 719 000e 0DD0     		beq	.L46
 720              	.LVL48:
 721              	.L49:
 722              		.loc 1 358 0
 723 0010 AB68     		ldr	r3, [r5, #8]
 724 0012 0133     		adds	r3, r3, #1
 725 0014 002B     		cmp	r3, #0
 726 0016 AB60     		str	r3, [r5, #8]
 727 0018 F8DC     		bgt	.L48
 728              	.LVL49:
 729              	.LBB196:
 730              	.LBB197:
 731              		.loc 2 672 0
 732 001a 2868     		ldr	r0, [r5]
 733              	.LVL50:
 734              		.loc 2 674 0
 735 001c 0368     		ldr	r3, [r0]
 736 001e 2B60     		str	r3, [r5]
 737              		.loc 2 675 0
 738 0020 5D60     		str	r5, [r3, #4]
 739              	.LBE197:
 740              	.LBE196:
 741              		.loc 1 359 0
ARM GAS  /var/folders/m4/4md61f0s1_g0rzfghffqnxvr0000gn/T//ccXSh2M4.s 			page 14


 742 0022 FFF7FEFF 		bl	chSchReadyI
 743              	.LVL51:
 744              		.loc 1 357 0
 745 0026 013C     		subs	r4, r4, #1
 746              	.LVL52:
 747              		.loc 1 359 0
 748 0028 4662     		str	r6, [r0, #36]
 749              	.LVL53:
 750              		.loc 1 357 0
 751 002a F1D1     		bne	.L49
 752              	.LVL54:
 753              	.L46:
 754 002c 70BD     		pop	{r4, r5, r6, pc}
 755              		.cfi_endproc
 756              	.LFE240:
 757              		.size	chSemAddCounterI, .-chSemAddCounterI
 758 002e 00BF     		.section	.text.chSemSignalWait,"ax",%progbits
 759              		.align	2
 760              		.p2align 4,,15
 761              		.global	chSemSignalWait
 762              		.thumb
 763              		.thumb_func
 764              		.type	chSemSignalWait, %function
 765              	chSemSignalWait:
 766              	.LFB241:
 767              		.loc 1 378 0
 768              		.cfi_startproc
 769              		@ args = 0, pretend = 0, frame = 8
 770              		@ frame_needed = 0, uses_anonymous_args = 0
 771              	.LVL55:
 772 0000 10B5     		push	{r4, lr}
 773              		.cfi_def_cfa_offset 8
 774              		.cfi_offset 4, -8
 775              		.cfi_offset 14, -4
 776 0002 0246     		mov	r2, r0
 777 0004 82B0     		sub	sp, sp, #8
 778              		.cfi_def_cfa_offset 16
 779              	.LBB198:
 780              	.LBB199:
 781              	.LBB200:
 782              	.LBB201:
 783              		.loc 3 548 0
 784 0006 2023     		movs	r3, #32
 785              	@ 548 "ChibiOS_16.1.4/os/ext/CMSIS/include/core_cmFunc.h" 1
 786 0008 83F31188 		MSR basepri, r3
 787              	@ 0 "" 2
 788              		.thumb
 789              	.LBE201:
 790              	.LBE200:
 791              	.LBE199:
 792              	.LBE198:
 793              		.loc 1 390 0
 794 000c 8368     		ldr	r3, [r0, #8]
 795 000e 0133     		adds	r3, r3, #1
 796 0010 002B     		cmp	r3, #0
 797 0012 8360     		str	r3, [r0, #8]
 798 0014 1DDD     		ble	.L58
ARM GAS  /var/folders/m4/4md61f0s1_g0rzfghffqnxvr0000gn/T//ccXSh2M4.s 			page 15


 799              	.LVL56:
 800              	.L54:
 801              		.loc 1 393 0
 802 0016 8B68     		ldr	r3, [r1, #8]
 803 0018 013B     		subs	r3, r3, #1
 804 001a 002B     		cmp	r3, #0
 805 001c 8B60     		str	r3, [r1, #8]
 806 001e 07DB     		blt	.L59
 807              		.loc 1 401 0
 808 0020 FFF7FEFF 		bl	chSchRescheduleS
 809              	.LVL57:
 810              		.loc 1 402 0
 811 0024 0020     		movs	r0, #0
 812              	.LVL58:
 813              	.LBB202:
 814              	.LBB203:
 815              	.LBB204:
 816              	.LBB205:
 817              	.LBB206:
 818              		.loc 3 548 0
 819 0026 0023     		movs	r3, #0
 820              	@ 548 "ChibiOS_16.1.4/os/ext/CMSIS/include/core_cmFunc.h" 1
 821 0028 83F31188 		MSR basepri, r3
 822              	@ 0 "" 2
 823              		.thumb
 824              	.LBE206:
 825              	.LBE205:
 826              	.LBE204:
 827              	.LBE203:
 828              	.LBE202:
 829              		.loc 1 407 0
 830 002c 02B0     		add	sp, sp, #8
 831              		.cfi_remember_state
 832              		.cfi_def_cfa_offset 8
 833              		@ sp needed
 834 002e 10BD     		pop	{r4, pc}
 835              	.LVL59:
 836              	.L59:
 837              		.cfi_restore_state
 838              	.LBB211:
 839              		.loc 1 394 0
 840 0030 0D4A     		ldr	r2, .L60
 841              	.LBB212:
 842              	.LBB213:
 843              		.loc 2 666 0
 844 0032 4B68     		ldr	r3, [r1, #4]
 845              	.LBE213:
 846              	.LBE212:
 847              		.loc 1 394 0
 848 0034 9469     		ldr	r4, [r2, #24]
 849              	.LVL60:
 850              		.loc 1 397 0
 851 0036 0520     		movs	r0, #5
 852              	.LBB215:
 853              	.LBB214:
 854              		.loc 2 666 0
 855 0038 84E80A00 		stmia	r4, {r1, r3}
ARM GAS  /var/folders/m4/4md61f0s1_g0rzfghffqnxvr0000gn/T//ccXSh2M4.s 			page 16


 856              		.loc 2 667 0
 857 003c 1C60     		str	r4, [r3]
 858              		.loc 2 668 0
 859 003e 4C60     		str	r4, [r1, #4]
 860              	.LBE214:
 861              	.LBE215:
 862              		.loc 1 396 0
 863 0040 6162     		str	r1, [r4, #36]
 864              		.loc 1 397 0
 865 0042 FFF7FEFF 		bl	chSchGoSleepS
 866              	.LVL61:
 867              		.loc 1 398 0
 868 0046 606A     		ldr	r0, [r4, #36]
 869              	.LVL62:
 870              	.LBE211:
 871              	.LBB216:
 872              	.LBB210:
 873              	.LBB209:
 874              	.LBB208:
 875              	.LBB207:
 876              		.loc 3 548 0
 877 0048 0023     		movs	r3, #0
 878              	@ 548 "ChibiOS_16.1.4/os/ext/CMSIS/include/core_cmFunc.h" 1
 879 004a 83F31188 		MSR basepri, r3
 880              	@ 0 "" 2
 881              		.thumb
 882              	.LBE207:
 883              	.LBE208:
 884              	.LBE209:
 885              	.LBE210:
 886              	.LBE216:
 887              		.loc 1 407 0
 888 004e 02B0     		add	sp, sp, #8
 889              		.cfi_remember_state
 890              		.cfi_def_cfa_offset 8
 891              		@ sp needed
 892 0050 10BD     		pop	{r4, pc}
 893              	.LVL63:
 894              	.L58:
 895              		.cfi_restore_state
 896              	.LBB217:
 897              	.LBB218:
 898              		.loc 2 672 0
 899 0052 0068     		ldr	r0, [r0]
 900              	.LVL64:
 901 0054 0191     		str	r1, [sp, #4]
 902              	.LVL65:
 903              		.loc 2 674 0
 904 0056 0368     		ldr	r3, [r0]
 905 0058 1360     		str	r3, [r2]
 906              		.loc 2 675 0
 907 005a 5A60     		str	r2, [r3, #4]
 908              	.LBE218:
 909              	.LBE217:
 910              		.loc 1 391 0
 911 005c FFF7FEFF 		bl	chSchReadyI
 912              	.LVL66:
ARM GAS  /var/folders/m4/4md61f0s1_g0rzfghffqnxvr0000gn/T//ccXSh2M4.s 			page 17


 913 0060 0023     		movs	r3, #0
 914 0062 4362     		str	r3, [r0, #36]
 915 0064 0199     		ldr	r1, [sp, #4]
 916 0066 D6E7     		b	.L54
 917              	.L61:
 918              		.align	2
 919              	.L60:
 920 0068 00000000 		.word	ch
 921              		.cfi_endproc
 922              	.LFE241:
 923              		.size	chSemSignalWait, .-chSemSignalWait
 924              		.text
 925              	.Letext0:
 926              		.file 4 "/usr/local/Cellar/gcc-arm-none-eabi-49/20150609/arm-none-eabi/include/machine/_default_ty
 927              		.file 5 "/usr/local/Cellar/gcc-arm-none-eabi-49/20150609/arm-none-eabi/include/sys/_stdint.h"
 928              		.file 6 "ChibiOS_16.1.4/os/rt/ports/ARMCMx/compilers/GCC/chtypes.h"
 929              		.file 7 "ChibiOS_16.1.4/os/rt/include/chsystypes.h"
 930              		.file 8 "ChibiOS_16.1.4/os/rt/ports/ARMCMx/chcore.h"
 931              		.file 9 "ChibiOS_16.1.4/os/rt/ports/ARMCMx/chcore_v7m.h"
 932              		.file 10 "ChibiOS_16.1.4/os/rt/include/chtm.h"
 933              		.file 11 "ChibiOS_16.1.4/os/rt/include/chsem.h"
 934              		.file 12 "ChibiOS_16.1.4/os/rt/include/chmtx.h"
 935              		.file 13 "ChibiOS_16.1.4/os/rt/include/chsys.h"
 936              		.file 14 "ChibiOS_16.1.4/os/ext/CMSIS/include/core_cm4.h"
 937              		.section	.debug_info,"",%progbits
 938              	.Ldebug_info0:
 939 0000 78110000 		.4byte	0x1178
 940 0004 0400     		.2byte	0x4
 941 0006 00000000 		.4byte	.Ldebug_abbrev0
 942 000a 04       		.byte	0x4
 943 000b 01       		.uleb128 0x1
 944 000c 22050000 		.4byte	.LASF131
 945 0010 01       		.byte	0x1
 946 0011 E8060000 		.4byte	.LASF132
 947 0015 00000000 		.4byte	.LASF133
 948 0019 08010000 		.4byte	.Ldebug_ranges0+0x108
 949 001d 00000000 		.4byte	0
 950 0021 00000000 		.4byte	.Ldebug_line0
 951 0025 02       		.uleb128 0x2
 952 0026 04       		.byte	0x4
 953 0027 05       		.byte	0x5
 954 0028 696E7400 		.ascii	"int\000"
 955 002c 03       		.uleb128 0x3
 956 002d 04       		.byte	0x4
 957 002e 07       		.byte	0x7
 958 002f 02020000 		.4byte	.LASF0
 959 0033 03       		.uleb128 0x3
 960 0034 01       		.byte	0x1
 961 0035 06       		.byte	0x6
 962 0036 19010000 		.4byte	.LASF1
 963 003a 04       		.uleb128 0x4
 964 003b 69000000 		.4byte	.LASF5
 965 003f 04       		.byte	0x4
 966 0040 1D       		.byte	0x1d
 967 0041 45000000 		.4byte	0x45
 968 0045 03       		.uleb128 0x3
 969 0046 01       		.byte	0x1
ARM GAS  /var/folders/m4/4md61f0s1_g0rzfghffqnxvr0000gn/T//ccXSh2M4.s 			page 18


 970 0047 08       		.byte	0x8
 971 0048 C1030000 		.4byte	.LASF2
 972 004c 03       		.uleb128 0x3
 973 004d 02       		.byte	0x2
 974 004e 05       		.byte	0x5
 975 004f D9030000 		.4byte	.LASF3
 976 0053 03       		.uleb128 0x3
 977 0054 02       		.byte	0x2
 978 0055 07       		.byte	0x7
 979 0056 5B020000 		.4byte	.LASF4
 980 005a 04       		.uleb128 0x4
 981 005b B9020000 		.4byte	.LASF6
 982 005f 04       		.byte	0x4
 983 0060 3F       		.byte	0x3f
 984 0061 65000000 		.4byte	0x65
 985 0065 03       		.uleb128 0x3
 986 0066 04       		.byte	0x4
 987 0067 05       		.byte	0x5
 988 0068 83010000 		.4byte	.LASF7
 989 006c 04       		.uleb128 0x4
 990 006d FF040000 		.4byte	.LASF8
 991 0071 04       		.byte	0x4
 992 0072 41       		.byte	0x41
 993 0073 77000000 		.4byte	0x77
 994 0077 03       		.uleb128 0x3
 995 0078 04       		.byte	0x4
 996 0079 07       		.byte	0x7
 997 007a 9D040000 		.4byte	.LASF9
 998 007e 03       		.uleb128 0x3
 999 007f 08       		.byte	0x8
 1000 0080 05       		.byte	0x5
 1001 0081 0B010000 		.4byte	.LASF10
 1002 0085 04       		.uleb128 0x4
 1003 0086 77030000 		.4byte	.LASF11
 1004 008a 04       		.byte	0x4
 1005 008b 5B       		.byte	0x5b
 1006 008c 90000000 		.4byte	0x90
 1007 0090 03       		.uleb128 0x3
 1008 0091 08       		.byte	0x8
 1009 0092 07       		.byte	0x7
 1010 0093 3D010000 		.4byte	.LASF12
 1011 0097 04       		.uleb128 0x4
 1012 0098 A0060000 		.4byte	.LASF13
 1013 009c 05       		.byte	0x5
 1014 009d 14       		.byte	0x14
 1015 009e 3A000000 		.4byte	0x3a
 1016 00a2 04       		.uleb128 0x4
 1017 00a3 B9030000 		.4byte	.LASF14
 1018 00a7 05       		.byte	0x5
 1019 00a8 1F       		.byte	0x1f
 1020 00a9 5A000000 		.4byte	0x5a
 1021 00ad 04       		.uleb128 0x4
 1022 00ae 69040000 		.4byte	.LASF15
 1023 00b2 05       		.byte	0x5
 1024 00b3 20       		.byte	0x20
 1025 00b4 6C000000 		.4byte	0x6c
 1026 00b8 04       		.uleb128 0x4
ARM GAS  /var/folders/m4/4md61f0s1_g0rzfghffqnxvr0000gn/T//ccXSh2M4.s 			page 19


 1027 00b9 60000000 		.4byte	.LASF16
 1028 00bd 05       		.byte	0x5
 1029 00be 26       		.byte	0x26
 1030 00bf 85000000 		.4byte	0x85
 1031 00c3 04       		.uleb128 0x4
 1032 00c4 5F060000 		.4byte	.LASF17
 1033 00c8 06       		.byte	0x6
 1034 00c9 39       		.byte	0x39
 1035 00ca AD000000 		.4byte	0xad
 1036 00ce 04       		.uleb128 0x4
 1037 00cf 97020000 		.4byte	.LASF18
 1038 00d3 06       		.byte	0x6
 1039 00d4 3C       		.byte	0x3c
 1040 00d5 97000000 		.4byte	0x97
 1041 00d9 04       		.uleb128 0x4
 1042 00da 8C010000 		.4byte	.LASF19
 1043 00de 06       		.byte	0x6
 1044 00df 3D       		.byte	0x3d
 1045 00e0 97000000 		.4byte	0x97
 1046 00e4 04       		.uleb128 0x4
 1047 00e5 82030000 		.4byte	.LASF20
 1048 00e9 06       		.byte	0x6
 1049 00ea 3E       		.byte	0x3e
 1050 00eb 97000000 		.4byte	0x97
 1051 00ef 04       		.uleb128 0x4
 1052 00f0 6F010000 		.4byte	.LASF21
 1053 00f4 06       		.byte	0x6
 1054 00f5 3F       		.byte	0x3f
 1055 00f6 97000000 		.4byte	0x97
 1056 00fa 04       		.uleb128 0x4
 1057 00fb A1030000 		.4byte	.LASF22
 1058 00ff 06       		.byte	0x6
 1059 0100 40       		.byte	0x40
 1060 0101 AD000000 		.4byte	0xad
 1061 0105 04       		.uleb128 0x4
 1062 0106 85020000 		.4byte	.LASF23
 1063 010a 06       		.byte	0x6
 1064 010b 41       		.byte	0x41
 1065 010c A2000000 		.4byte	0xa2
 1066 0110 04       		.uleb128 0x4
 1067 0111 AD020000 		.4byte	.LASF24
 1068 0115 06       		.byte	0x6
 1069 0116 43       		.byte	0x43
 1070 0117 AD000000 		.4byte	0xad
 1071 011b 04       		.uleb128 0x4
 1072 011c FC010000 		.4byte	.LASF25
 1073 0120 06       		.byte	0x6
 1074 0121 45       		.byte	0x45
 1075 0122 A2000000 		.4byte	0xa2
 1076 0126 04       		.uleb128 0x4
 1077 0127 E1040000 		.4byte	.LASF26
 1078 012b 07       		.byte	0x7
 1079 012c 33       		.byte	0x33
 1080 012d AD000000 		.4byte	0xad
 1081 0131 04       		.uleb128 0x4
 1082 0132 C6040000 		.4byte	.LASF27
 1083 0136 07       		.byte	0x7
ARM GAS  /var/folders/m4/4md61f0s1_g0rzfghffqnxvr0000gn/T//ccXSh2M4.s 			page 20


 1084 0137 3F       		.byte	0x3f
 1085 0138 3C010000 		.4byte	0x13c
 1086 013c 05       		.uleb128 0x5
 1087 013d 6E020000 		.4byte	.LASF49
 1088 0141 48       		.byte	0x48
 1089 0142 02       		.byte	0x2
 1090 0143 C2       		.byte	0xc2
 1091 0144 41020000 		.4byte	0x241
 1092 0148 06       		.uleb128 0x6
 1093 0149 03040000 		.4byte	.LASF28
 1094 014d 02       		.byte	0x2
 1095 014e C3       		.byte	0xc3
 1096 014f 4C020000 		.4byte	0x24c
 1097 0153 00       		.byte	0
 1098 0154 06       		.uleb128 0x6
 1099 0155 9A030000 		.4byte	.LASF29
 1100 0159 02       		.byte	0x2
 1101 015a C5       		.byte	0xc5
 1102 015b 4C020000 		.4byte	0x24c
 1103 015f 04       		.byte	0x4
 1104 0160 06       		.uleb128 0x6
 1105 0161 04010000 		.4byte	.LASF30
 1106 0165 02       		.byte	0x2
 1107 0166 C7       		.byte	0xc7
 1108 0167 FA000000 		.4byte	0xfa
 1109 016b 08       		.byte	0x8
 1110 016c 06       		.uleb128 0x6
 1111 016d 11070000 		.4byte	.LASF31
 1112 0171 02       		.byte	0x2
 1113 0172 C8       		.byte	0xc8
 1114 0173 7C040000 		.4byte	0x47c
 1115 0177 0C       		.byte	0xc
 1116 0178 06       		.uleb128 0x6
 1117 0179 95010000 		.4byte	.LASF32
 1118 017d 02       		.byte	0x2
 1119 017e CA       		.byte	0xca
 1120 017f 4C020000 		.4byte	0x24c
 1121 0183 10       		.byte	0x10
 1122 0184 06       		.uleb128 0x6
 1123 0185 3A030000 		.4byte	.LASF33
 1124 0189 02       		.byte	0x2
 1125 018a CB       		.byte	0xcb
 1126 018b 4C020000 		.4byte	0x24c
 1127 018f 14       		.byte	0x14
 1128 0190 06       		.uleb128 0x6
 1129 0191 AF060000 		.4byte	.LASF34
 1130 0195 02       		.byte	0x2
 1131 0196 D2       		.byte	0xd2
 1132 0197 CA060000 		.4byte	0x6ca
 1133 019b 18       		.byte	0x18
 1134 019c 06       		.uleb128 0x6
 1135 019d E3030000 		.4byte	.LASF35
 1136 01a1 02       		.byte	0x2
 1137 01a2 DD       		.byte	0xdd
 1138 01a3 D9000000 		.4byte	0xd9
 1139 01a7 1C       		.byte	0x1c
 1140 01a8 06       		.uleb128 0x6
ARM GAS  /var/folders/m4/4md61f0s1_g0rzfghffqnxvr0000gn/T//ccXSh2M4.s 			page 21


 1141 01a9 0A040000 		.4byte	.LASF36
 1142 01ad 02       		.byte	0x2
 1143 01ae E1       		.byte	0xe1
 1144 01af CE000000 		.4byte	0xce
 1145 01b3 1D       		.byte	0x1d
 1146 01b4 06       		.uleb128 0x6
 1147 01b5 87060000 		.4byte	.LASF37
 1148 01b9 02       		.byte	0x2
 1149 01ba E6       		.byte	0xe6
 1150 01bb E4000000 		.4byte	0xe4
 1151 01bf 1E       		.byte	0x1e
 1152 01c0 06       		.uleb128 0x6
 1153 01c1 EB030000 		.4byte	.LASF38
 1154 01c5 02       		.byte	0x2
 1155 01c6 EC       		.byte	0xec
 1156 01c7 EF000000 		.4byte	0xef
 1157 01cb 1F       		.byte	0x1f
 1158 01cc 06       		.uleb128 0x6
 1159 01cd 28020000 		.4byte	.LASF39
 1160 01d1 02       		.byte	0x2
 1161 01d2 F3       		.byte	0xf3
 1162 01d3 DC060000 		.4byte	0x6dc
 1163 01d7 20       		.byte	0x20
 1164 01d8 07       		.uleb128 0x7
 1165 01d9 705F7500 		.ascii	"p_u\000"
 1166 01dd 02       		.byte	0x2
 1167 01de 3101     		.2byte	0x131
 1168 01e0 05060000 		.4byte	0x605
 1169 01e4 24       		.byte	0x24
 1170 01e5 08       		.uleb128 0x8
 1171 01e6 F3020000 		.4byte	.LASF40
 1172 01ea 02       		.byte	0x2
 1173 01eb 3601     		.2byte	0x136
 1174 01ed 52020000 		.4byte	0x252
 1175 01f1 28       		.byte	0x28
 1176 01f2 08       		.uleb128 0x8
 1177 01f3 3F020000 		.4byte	.LASF41
 1178 01f7 02       		.byte	0x2
 1179 01f8 3C01     		.2byte	0x13c
 1180 01fa 76020000 		.4byte	0x276
 1181 01fe 2C       		.byte	0x2c
 1182 01ff 08       		.uleb128 0x8
 1183 0200 E2060000 		.4byte	.LASF42
 1184 0204 02       		.byte	0x2
 1185 0205 4001     		.2byte	0x140
 1186 0207 05010000 		.4byte	0x105
 1187 020b 34       		.byte	0x34
 1188 020c 08       		.uleb128 0x8
 1189 020d 5E040000 		.4byte	.LASF43
 1190 0211 02       		.byte	0x2
 1191 0212 4601     		.2byte	0x146
 1192 0214 10010000 		.4byte	0x110
 1193 0218 38       		.byte	0x38
 1194 0219 08       		.uleb128 0x8
 1195 021a CF030000 		.4byte	.LASF44
 1196 021e 02       		.byte	0x2
 1197 021f 4D01     		.2byte	0x14d
ARM GAS  /var/folders/m4/4md61f0s1_g0rzfghffqnxvr0000gn/T//ccXSh2M4.s 			page 22


 1198 0221 C4060000 		.4byte	0x6c4
 1199 0225 3C       		.byte	0x3c
 1200 0226 08       		.uleb128 0x8
 1201 0227 EB040000 		.4byte	.LASF45
 1202 022b 02       		.byte	0x2
 1203 022c 5101     		.2byte	0x151
 1204 022e FA000000 		.4byte	0xfa
 1205 0232 40       		.byte	0x40
 1206 0233 08       		.uleb128 0x8
 1207 0234 35010000 		.4byte	.LASF46
 1208 0238 02       		.byte	0x2
 1209 0239 5801     		.2byte	0x158
 1210 023b 29030000 		.4byte	0x329
 1211 023f 44       		.byte	0x44
 1212 0240 00       		.byte	0
 1213 0241 04       		.uleb128 0x4
 1214 0242 06030000 		.4byte	.LASF47
 1215 0246 07       		.byte	0x7
 1216 0247 44       		.byte	0x44
 1217 0248 4C020000 		.4byte	0x24c
 1218 024c 09       		.uleb128 0x9
 1219 024d 04       		.byte	0x4
 1220 024e 31010000 		.4byte	0x131
 1221 0252 04       		.uleb128 0x4
 1222 0253 E4020000 		.4byte	.LASF48
 1223 0257 07       		.byte	0x7
 1224 0258 49       		.byte	0x49
 1225 0259 5D020000 		.4byte	0x25d
 1226 025d 05       		.uleb128 0x5
 1227 025e 8D040000 		.4byte	.LASF50
 1228 0262 04       		.byte	0x4
 1229 0263 02       		.byte	0x2
 1230 0264 B0       		.byte	0xb0
 1231 0265 76020000 		.4byte	0x276
 1232 0269 06       		.uleb128 0x6
 1233 026a 03040000 		.4byte	.LASF28
 1234 026e 02       		.byte	0x2
 1235 026f B1       		.byte	0xb1
 1236 0270 4C020000 		.4byte	0x24c
 1237 0274 00       		.byte	0
 1238 0275 00       		.byte	0
 1239 0276 04       		.uleb128 0x4
 1240 0277 6E060000 		.4byte	.LASF51
 1241 027b 07       		.byte	0x7
 1242 027c 50       		.byte	0x50
 1243 027d 81020000 		.4byte	0x281
 1244 0281 05       		.uleb128 0x5
 1245 0282 F3000000 		.4byte	.LASF52
 1246 0286 08       		.byte	0x8
 1247 0287 02       		.byte	0x2
 1248 0288 B7       		.byte	0xb7
 1249 0289 A6020000 		.4byte	0x2a6
 1250 028d 06       		.uleb128 0x6
 1251 028e 03040000 		.4byte	.LASF28
 1252 0292 02       		.byte	0x2
 1253 0293 B8       		.byte	0xb8
 1254 0294 4C020000 		.4byte	0x24c
ARM GAS  /var/folders/m4/4md61f0s1_g0rzfghffqnxvr0000gn/T//ccXSh2M4.s 			page 23


 1255 0298 00       		.byte	0
 1256 0299 06       		.uleb128 0x6
 1257 029a 9A030000 		.4byte	.LASF29
 1258 029e 02       		.byte	0x2
 1259 029f B9       		.byte	0xb9
 1260 02a0 4C020000 		.4byte	0x24c
 1261 02a4 04       		.byte	0x4
 1262 02a5 00       		.byte	0
 1263 02a6 04       		.uleb128 0x4
 1264 02a7 2C000000 		.4byte	.LASF53
 1265 02ab 07       		.byte	0x7
 1266 02ac 57       		.byte	0x57
 1267 02ad B1020000 		.4byte	0x2b1
 1268 02b1 0A       		.uleb128 0xa
 1269 02b2 9F020000 		.4byte	.LASF54
 1270 02b6 1C       		.byte	0x1c
 1271 02b7 02       		.byte	0x2
 1272 02b8 9001     		.2byte	0x190
 1273 02ba 0D030000 		.4byte	0x30d
 1274 02be 08       		.uleb128 0x8
 1275 02bf 79040000 		.4byte	.LASF55
 1276 02c3 02       		.byte	0x2
 1277 02c4 9101     		.2byte	0x191
 1278 02c6 76020000 		.4byte	0x276
 1279 02ca 00       		.byte	0
 1280 02cb 08       		.uleb128 0x8
 1281 02cc F5030000 		.4byte	.LASF56
 1282 02d0 02       		.byte	0x2
 1283 02d1 9201     		.2byte	0x192
 1284 02d3 FA000000 		.4byte	0xfa
 1285 02d7 08       		.byte	0x8
 1286 02d8 08       		.uleb128 0x8
 1287 02d9 42030000 		.4byte	.LASF57
 1288 02dd 02       		.byte	0x2
 1289 02de 9401     		.2byte	0x194
 1290 02e0 7C040000 		.4byte	0x47c
 1291 02e4 0C       		.byte	0xc
 1292 02e5 08       		.uleb128 0x8
 1293 02e6 B6010000 		.4byte	.LASF58
 1294 02ea 02       		.byte	0x2
 1295 02eb 9701     		.2byte	0x197
 1296 02ed 4C020000 		.4byte	0x24c
 1297 02f1 10       		.byte	0x10
 1298 02f2 08       		.uleb128 0x8
 1299 02f3 6F030000 		.4byte	.LASF59
 1300 02f7 02       		.byte	0x2
 1301 02f8 9801     		.2byte	0x198
 1302 02fa 4C020000 		.4byte	0x24c
 1303 02fe 14       		.byte	0x14
 1304 02ff 08       		.uleb128 0x8
 1305 0300 65030000 		.4byte	.LASF60
 1306 0304 02       		.byte	0x2
 1307 0305 9B01     		.2byte	0x19b
 1308 0307 4C020000 		.4byte	0x24c
 1309 030b 18       		.byte	0x18
 1310 030c 00       		.byte	0
 1311 030d 04       		.uleb128 0x4
ARM GAS  /var/folders/m4/4md61f0s1_g0rzfghffqnxvr0000gn/T//ccXSh2M4.s 			page 24


 1312 030e F6040000 		.4byte	.LASF61
 1313 0312 07       		.byte	0x7
 1314 0313 5C       		.byte	0x5c
 1315 0314 18030000 		.4byte	0x318
 1316 0318 09       		.uleb128 0x9
 1317 0319 04       		.byte	0x4
 1318 031a 1E030000 		.4byte	0x31e
 1319 031e 0B       		.uleb128 0xb
 1320 031f 29030000 		.4byte	0x329
 1321 0323 0C       		.uleb128 0xc
 1322 0324 29030000 		.4byte	0x329
 1323 0328 00       		.byte	0
 1324 0329 0D       		.uleb128 0xd
 1325 032a 04       		.byte	0x4
 1326 032b 04       		.uleb128 0x4
 1327 032c 8A030000 		.4byte	.LASF62
 1328 0330 07       		.byte	0x7
 1329 0331 61       		.byte	0x61
 1330 0332 36030000 		.4byte	0x336
 1331 0336 0A       		.uleb128 0xa
 1332 0337 32040000 		.4byte	.LASF63
 1333 033b 14       		.byte	0x14
 1334 033c 02       		.byte	0x2
 1335 033d 6B01     		.2byte	0x16b
 1336 033f 85030000 		.4byte	0x385
 1337 0343 08       		.uleb128 0x8
 1338 0344 20020000 		.4byte	.LASF64
 1339 0348 02       		.byte	0x2
 1340 0349 6C01     		.2byte	0x16c
 1341 034b E1060000 		.4byte	0x6e1
 1342 034f 00       		.byte	0
 1343 0350 08       		.uleb128 0x8
 1344 0351 C7010000 		.4byte	.LASF65
 1345 0355 02       		.byte	0x2
 1346 0356 6D01     		.2byte	0x16d
 1347 0358 E1060000 		.4byte	0x6e1
 1348 035c 04       		.byte	0x4
 1349 035d 08       		.uleb128 0x8
 1350 035e 36020000 		.4byte	.LASF66
 1351 0362 02       		.byte	0x2
 1352 0363 6E01     		.2byte	0x16e
 1353 0365 26010000 		.4byte	0x126
 1354 0369 08       		.byte	0x8
 1355 036a 08       		.uleb128 0x8
 1356 036b 17070000 		.4byte	.LASF67
 1357 036f 02       		.byte	0x2
 1358 0370 6F01     		.2byte	0x16f
 1359 0372 0D030000 		.4byte	0x30d
 1360 0376 0C       		.byte	0xc
 1361 0377 08       		.uleb128 0x8
 1362 0378 67060000 		.4byte	.LASF68
 1363 037c 02       		.byte	0x2
 1364 037d 7101     		.2byte	0x171
 1365 037f 29030000 		.4byte	0x329
 1366 0383 10       		.byte	0x10
 1367 0384 00       		.byte	0
 1368 0385 04       		.uleb128 0x4
ARM GAS  /var/folders/m4/4md61f0s1_g0rzfghffqnxvr0000gn/T//ccXSh2M4.s 			page 25


 1369 0386 C3020000 		.4byte	.LASF69
 1370 038a 07       		.byte	0x7
 1371 038b 66       		.byte	0x66
 1372 038c 90030000 		.4byte	0x390
 1373 0390 0A       		.uleb128 0xa
 1374 0391 19030000 		.4byte	.LASF70
 1375 0395 10       		.byte	0x10
 1376 0396 02       		.byte	0x2
 1377 0397 7B01     		.2byte	0x17b
 1378 0399 D2030000 		.4byte	0x3d2
 1379 039d 08       		.uleb128 0x8
 1380 039e 20020000 		.4byte	.LASF64
 1381 03a2 02       		.byte	0x2
 1382 03a3 7C01     		.2byte	0x17c
 1383 03a5 E1060000 		.4byte	0x6e1
 1384 03a9 00       		.byte	0
 1385 03aa 08       		.uleb128 0x8
 1386 03ab C7010000 		.4byte	.LASF65
 1387 03af 02       		.byte	0x2
 1388 03b0 7E01     		.2byte	0x17e
 1389 03b2 E1060000 		.4byte	0x6e1
 1390 03b6 04       		.byte	0x4
 1391 03b7 08       		.uleb128 0x8
 1392 03b8 36020000 		.4byte	.LASF66
 1393 03bc 02       		.byte	0x2
 1394 03bd 8001     		.2byte	0x180
 1395 03bf 26010000 		.4byte	0x126
 1396 03c3 08       		.byte	0x8
 1397 03c4 08       		.uleb128 0x8
 1398 03c5 B6060000 		.4byte	.LASF71
 1399 03c9 02       		.byte	0x2
 1400 03ca 8201     		.2byte	0x182
 1401 03cc DC060000 		.4byte	0x6dc
 1402 03d0 0C       		.byte	0xc
 1403 03d1 00       		.byte	0
 1404 03d2 04       		.uleb128 0x4
 1405 03d3 7F000000 		.4byte	.LASF72
 1406 03d7 07       		.byte	0x7
 1407 03d8 6B       		.byte	0x6b
 1408 03d9 DD030000 		.4byte	0x3dd
 1409 03dd 0A       		.uleb128 0xa
 1410 03de A9030000 		.4byte	.LASF73
 1411 03e2 04       		.byte	0x4
 1412 03e3 02       		.byte	0x2
 1413 03e4 A201     		.2byte	0x1a2
 1414 03e6 F8030000 		.4byte	0x3f8
 1415 03ea 08       		.uleb128 0x8
 1416 03eb 46060000 		.4byte	.LASF74
 1417 03ef 02       		.byte	0x2
 1418 03f0 AA01     		.2byte	0x1aa
 1419 03f2 E7060000 		.4byte	0x6e7
 1420 03f6 00       		.byte	0
 1421 03f7 00       		.byte	0
 1422 03f8 04       		.uleb128 0x4
 1423 03f9 8B020000 		.4byte	.LASF75
 1424 03fd 07       		.byte	0x7
 1425 03fe 70       		.byte	0x70
ARM GAS  /var/folders/m4/4md61f0s1_g0rzfghffqnxvr0000gn/T//ccXSh2M4.s 			page 26


 1426 03ff 03040000 		.4byte	0x403
 1427 0403 0E       		.uleb128 0xe
 1428 0404 79010000 		.4byte	.LASF76
 1429 0408 5802     		.2byte	0x258
 1430 040a 02       		.byte	0x2
 1431 040b C201     		.2byte	0x1c2
 1432 040d 5F040000 		.4byte	0x45f
 1433 0411 08       		.uleb128 0x8
 1434 0412 9A060000 		.4byte	.LASF77
 1435 0416 02       		.byte	0x2
 1436 0417 C601     		.2byte	0x1c6
 1437 0419 A6020000 		.4byte	0x2a6
 1438 041d 00       		.byte	0
 1439 041e 08       		.uleb128 0x8
 1440 041f 5C010000 		.4byte	.LASF78
 1441 0423 02       		.byte	0x2
 1442 0424 CA01     		.2byte	0x1ca
 1443 0426 85030000 		.4byte	0x385
 1444 042a 1C       		.byte	0x1c
 1445 042b 07       		.uleb128 0x7
 1446 042c 64626700 		.ascii	"dbg\000"
 1447 0430 02       		.byte	0x2
 1448 0431 CE01     		.2byte	0x1ce
 1449 0433 D2030000 		.4byte	0x3d2
 1450 0437 2C       		.byte	0x2c
 1451 0438 08       		.uleb128 0x8
 1452 0439 CA000000 		.4byte	.LASF79
 1453 043d 02       		.byte	0x2
 1454 043e D201     		.2byte	0x1d2
 1455 0440 31010000 		.4byte	0x131
 1456 0444 30       		.byte	0x30
 1457 0445 07       		.uleb128 0x7
 1458 0446 746D00   		.ascii	"tm\000"
 1459 0449 02       		.byte	0x2
 1460 044a D701     		.2byte	0x1d7
 1461 044c FA050000 		.4byte	0x5fa
 1462 0450 78       		.byte	0x78
 1463 0451 08       		.uleb128 0x8
 1464 0452 DD010000 		.4byte	.LASF80
 1465 0456 02       		.byte	0x2
 1466 0457 E301     		.2byte	0x1e3
 1467 0459 EC060000 		.4byte	0x6ec
 1468 045d 80       		.byte	0x80
 1469 045e 00       		.byte	0
 1470 045f 03       		.uleb128 0x3
 1471 0460 04       		.byte	0x4
 1472 0461 07       		.byte	0x7
 1473 0462 FD020000 		.4byte	.LASF81
 1474 0466 04       		.uleb128 0x4
 1475 0467 BE010000 		.4byte	.LASF82
 1476 046b 08       		.byte	0x8
 1477 046c 65       		.byte	0x65
 1478 046d 29030000 		.4byte	0x329
 1479 0471 04       		.uleb128 0x4
 1480 0472 D9020000 		.4byte	.LASF83
 1481 0476 08       		.byte	0x8
 1482 0477 6D       		.byte	0x6d
ARM GAS  /var/folders/m4/4md61f0s1_g0rzfghffqnxvr0000gn/T//ccXSh2M4.s 			page 27


 1483 0478 B8000000 		.4byte	0xb8
 1484 047c 05       		.uleb128 0x5
 1485 047d 57060000 		.4byte	.LASF84
 1486 0481 04       		.byte	0x4
 1487 0482 08       		.byte	0x8
 1488 0483 89       		.byte	0x89
 1489 0484 95040000 		.4byte	0x495
 1490 0488 0F       		.uleb128 0xf
 1491 0489 72313300 		.ascii	"r13\000"
 1492 048d 08       		.byte	0x8
 1493 048e 8A       		.byte	0x8a
 1494 048f DF050000 		.4byte	0x5df
 1495 0493 00       		.byte	0
 1496 0494 00       		.byte	0
 1497 0495 05       		.uleb128 0x5
 1498 0496 73000000 		.4byte	.LASF85
 1499 049a 64       		.byte	0x64
 1500 049b 09       		.byte	0x9
 1501 049c FD       		.byte	0xfd
 1502 049d DF050000 		.4byte	0x5df
 1503 04a1 0F       		.uleb128 0xf
 1504 04a2 73313600 		.ascii	"s16\000"
 1505 04a6 09       		.byte	0x9
 1506 04a7 FF       		.byte	0xff
 1507 04a8 66040000 		.4byte	0x466
 1508 04ac 00       		.byte	0
 1509 04ad 07       		.uleb128 0x7
 1510 04ae 73313700 		.ascii	"s17\000"
 1511 04b2 09       		.byte	0x9
 1512 04b3 0001     		.2byte	0x100
 1513 04b5 66040000 		.4byte	0x466
 1514 04b9 04       		.byte	0x4
 1515 04ba 07       		.uleb128 0x7
 1516 04bb 73313800 		.ascii	"s18\000"
 1517 04bf 09       		.byte	0x9
 1518 04c0 0101     		.2byte	0x101
 1519 04c2 66040000 		.4byte	0x466
 1520 04c6 08       		.byte	0x8
 1521 04c7 07       		.uleb128 0x7
 1522 04c8 73313900 		.ascii	"s19\000"
 1523 04cc 09       		.byte	0x9
 1524 04cd 0201     		.2byte	0x102
 1525 04cf 66040000 		.4byte	0x466
 1526 04d3 0C       		.byte	0xc
 1527 04d4 07       		.uleb128 0x7
 1528 04d5 73323000 		.ascii	"s20\000"
 1529 04d9 09       		.byte	0x9
 1530 04da 0301     		.2byte	0x103
 1531 04dc 66040000 		.4byte	0x466
 1532 04e0 10       		.byte	0x10
 1533 04e1 07       		.uleb128 0x7
 1534 04e2 73323100 		.ascii	"s21\000"
 1535 04e6 09       		.byte	0x9
 1536 04e7 0401     		.2byte	0x104
 1537 04e9 66040000 		.4byte	0x466
 1538 04ed 14       		.byte	0x14
 1539 04ee 07       		.uleb128 0x7
ARM GAS  /var/folders/m4/4md61f0s1_g0rzfghffqnxvr0000gn/T//ccXSh2M4.s 			page 28


 1540 04ef 73323200 		.ascii	"s22\000"
 1541 04f3 09       		.byte	0x9
 1542 04f4 0501     		.2byte	0x105
 1543 04f6 66040000 		.4byte	0x466
 1544 04fa 18       		.byte	0x18
 1545 04fb 07       		.uleb128 0x7
 1546 04fc 73323300 		.ascii	"s23\000"
 1547 0500 09       		.byte	0x9
 1548 0501 0601     		.2byte	0x106
 1549 0503 66040000 		.4byte	0x466
 1550 0507 1C       		.byte	0x1c
 1551 0508 07       		.uleb128 0x7
 1552 0509 73323400 		.ascii	"s24\000"
 1553 050d 09       		.byte	0x9
 1554 050e 0701     		.2byte	0x107
 1555 0510 66040000 		.4byte	0x466
 1556 0514 20       		.byte	0x20
 1557 0515 07       		.uleb128 0x7
 1558 0516 73323500 		.ascii	"s25\000"
 1559 051a 09       		.byte	0x9
 1560 051b 0801     		.2byte	0x108
 1561 051d 66040000 		.4byte	0x466
 1562 0521 24       		.byte	0x24
 1563 0522 07       		.uleb128 0x7
 1564 0523 73323600 		.ascii	"s26\000"
 1565 0527 09       		.byte	0x9
 1566 0528 0901     		.2byte	0x109
 1567 052a 66040000 		.4byte	0x466
 1568 052e 28       		.byte	0x28
 1569 052f 07       		.uleb128 0x7
 1570 0530 73323700 		.ascii	"s27\000"
 1571 0534 09       		.byte	0x9
 1572 0535 0A01     		.2byte	0x10a
 1573 0537 66040000 		.4byte	0x466
 1574 053b 2C       		.byte	0x2c
 1575 053c 07       		.uleb128 0x7
 1576 053d 73323800 		.ascii	"s28\000"
 1577 0541 09       		.byte	0x9
 1578 0542 0B01     		.2byte	0x10b
 1579 0544 66040000 		.4byte	0x466
 1580 0548 30       		.byte	0x30
 1581 0549 07       		.uleb128 0x7
 1582 054a 73323900 		.ascii	"s29\000"
 1583 054e 09       		.byte	0x9
 1584 054f 0C01     		.2byte	0x10c
 1585 0551 66040000 		.4byte	0x466
 1586 0555 34       		.byte	0x34
 1587 0556 07       		.uleb128 0x7
 1588 0557 73333000 		.ascii	"s30\000"
 1589 055b 09       		.byte	0x9
 1590 055c 0D01     		.2byte	0x10d
 1591 055e 66040000 		.4byte	0x466
 1592 0562 38       		.byte	0x38
 1593 0563 07       		.uleb128 0x7
 1594 0564 73333100 		.ascii	"s31\000"
 1595 0568 09       		.byte	0x9
 1596 0569 0E01     		.2byte	0x10e
ARM GAS  /var/folders/m4/4md61f0s1_g0rzfghffqnxvr0000gn/T//ccXSh2M4.s 			page 29


 1597 056b 66040000 		.4byte	0x466
 1598 056f 3C       		.byte	0x3c
 1599 0570 07       		.uleb128 0x7
 1600 0571 723400   		.ascii	"r4\000"
 1601 0574 09       		.byte	0x9
 1602 0575 1001     		.2byte	0x110
 1603 0577 66040000 		.4byte	0x466
 1604 057b 40       		.byte	0x40
 1605 057c 07       		.uleb128 0x7
 1606 057d 723500   		.ascii	"r5\000"
 1607 0580 09       		.byte	0x9
 1608 0581 1101     		.2byte	0x111
 1609 0583 66040000 		.4byte	0x466
 1610 0587 44       		.byte	0x44
 1611 0588 07       		.uleb128 0x7
 1612 0589 723600   		.ascii	"r6\000"
 1613 058c 09       		.byte	0x9
 1614 058d 1201     		.2byte	0x112
 1615 058f 66040000 		.4byte	0x466
 1616 0593 48       		.byte	0x48
 1617 0594 07       		.uleb128 0x7
 1618 0595 723700   		.ascii	"r7\000"
 1619 0598 09       		.byte	0x9
 1620 0599 1301     		.2byte	0x113
 1621 059b 66040000 		.4byte	0x466
 1622 059f 4C       		.byte	0x4c
 1623 05a0 07       		.uleb128 0x7
 1624 05a1 723800   		.ascii	"r8\000"
 1625 05a4 09       		.byte	0x9
 1626 05a5 1401     		.2byte	0x114
 1627 05a7 66040000 		.4byte	0x466
 1628 05ab 50       		.byte	0x50
 1629 05ac 07       		.uleb128 0x7
 1630 05ad 723900   		.ascii	"r9\000"
 1631 05b0 09       		.byte	0x9
 1632 05b1 1501     		.2byte	0x115
 1633 05b3 66040000 		.4byte	0x466
 1634 05b7 54       		.byte	0x54
 1635 05b8 07       		.uleb128 0x7
 1636 05b9 72313000 		.ascii	"r10\000"
 1637 05bd 09       		.byte	0x9
 1638 05be 1601     		.2byte	0x116
 1639 05c0 66040000 		.4byte	0x466
 1640 05c4 58       		.byte	0x58
 1641 05c5 07       		.uleb128 0x7
 1642 05c6 72313100 		.ascii	"r11\000"
 1643 05ca 09       		.byte	0x9
 1644 05cb 1701     		.2byte	0x117
 1645 05cd 66040000 		.4byte	0x466
 1646 05d1 5C       		.byte	0x5c
 1647 05d2 07       		.uleb128 0x7
 1648 05d3 6C7200   		.ascii	"lr\000"
 1649 05d6 09       		.byte	0x9
 1650 05d7 1801     		.2byte	0x118
 1651 05d9 66040000 		.4byte	0x466
 1652 05dd 60       		.byte	0x60
 1653 05de 00       		.byte	0
ARM GAS  /var/folders/m4/4md61f0s1_g0rzfghffqnxvr0000gn/T//ccXSh2M4.s 			page 30


 1654 05df 09       		.uleb128 0x9
 1655 05e0 04       		.byte	0x4
 1656 05e1 95040000 		.4byte	0x495
 1657 05e5 10       		.uleb128 0x10
 1658 05e6 04       		.byte	0x4
 1659 05e7 0A       		.byte	0xa
 1660 05e8 38       		.byte	0x38
 1661 05e9 FA050000 		.4byte	0x5fa
 1662 05ed 06       		.uleb128 0x6
 1663 05ee 50060000 		.4byte	.LASF86
 1664 05f2 0A       		.byte	0xa
 1665 05f3 3C       		.byte	0x3c
 1666 05f4 C3000000 		.4byte	0xc3
 1667 05f8 00       		.byte	0
 1668 05f9 00       		.byte	0
 1669 05fa 04       		.uleb128 0x4
 1670 05fb 48030000 		.4byte	.LASF87
 1671 05ff 0A       		.byte	0xa
 1672 0600 3D       		.byte	0x3d
 1673 0601 E5050000 		.4byte	0x5e5
 1674 0605 11       		.uleb128 0x11
 1675 0606 04       		.byte	0x4
 1676 0607 02       		.byte	0x2
 1677 0608 FA       		.byte	0xfa
 1678 0609 62060000 		.4byte	0x662
 1679 060d 12       		.uleb128 0x12
 1680 060e 59000000 		.4byte	.LASF88
 1681 0612 02       		.byte	0x2
 1682 0613 0101     		.2byte	0x101
 1683 0615 05010000 		.4byte	0x105
 1684 0619 12       		.uleb128 0x12
 1685 061a C1000000 		.4byte	.LASF89
 1686 061e 02       		.byte	0x2
 1687 061f 0801     		.2byte	0x108
 1688 0621 05010000 		.4byte	0x105
 1689 0625 12       		.uleb128 0x12
 1690 0626 A8060000 		.4byte	.LASF90
 1691 062a 02       		.byte	0x2
 1692 062b 0F01     		.2byte	0x10f
 1693 062d 29030000 		.4byte	0x329
 1694 0631 12       		.uleb128 0x12
 1695 0632 53000000 		.4byte	.LASF91
 1696 0636 02       		.byte	0x2
 1697 0637 1601     		.2byte	0x116
 1698 0639 62060000 		.4byte	0x662
 1699 063d 12       		.uleb128 0x12
 1700 063e 2F020000 		.4byte	.LASF92
 1701 0642 02       		.byte	0x2
 1702 0643 1E01     		.2byte	0x11e
 1703 0645 8D060000 		.4byte	0x68d
 1704 0649 12       		.uleb128 0x12
 1705 064a 72040000 		.4byte	.LASF93
 1706 064e 02       		.byte	0x2
 1707 064f 2701     		.2byte	0x127
 1708 0651 C4060000 		.4byte	0x6c4
 1709 0655 12       		.uleb128 0x12
 1710 0656 FC030000 		.4byte	.LASF94
ARM GAS  /var/folders/m4/4md61f0s1_g0rzfghffqnxvr0000gn/T//ccXSh2M4.s 			page 31


 1711 065a 02       		.byte	0x2
 1712 065b 2F01     		.2byte	0x12f
 1713 065d 10010000 		.4byte	0x110
 1714 0661 00       		.byte	0
 1715 0662 09       		.uleb128 0x9
 1716 0663 04       		.byte	0x4
 1717 0664 41020000 		.4byte	0x241
 1718 0668 05       		.uleb128 0x5
 1719 0669 43040000 		.4byte	.LASF95
 1720 066d 0C       		.byte	0xc
 1721 066e 0B       		.byte	0xb
 1722 066f 34       		.byte	0x34
 1723 0670 8D060000 		.4byte	0x68d
 1724 0674 06       		.uleb128 0x6
 1725 0675 9D010000 		.4byte	.LASF96
 1726 0679 0B       		.byte	0xb
 1727 067a 35       		.byte	0x35
 1728 067b 76020000 		.4byte	0x276
 1729 067f 00       		.byte	0
 1730 0680 06       		.uleb128 0x6
 1731 0681 55020000 		.4byte	.LASF97
 1732 0685 0B       		.byte	0xb
 1733 0686 37       		.byte	0x37
 1734 0687 1B010000 		.4byte	0x11b
 1735 068b 08       		.byte	0x8
 1736 068c 00       		.byte	0
 1737 068d 09       		.uleb128 0x9
 1738 068e 04       		.byte	0x4
 1739 068f 68060000 		.4byte	0x668
 1740 0693 05       		.uleb128 0x5
 1741 0694 7E060000 		.4byte	.LASF98
 1742 0698 10       		.byte	0x10
 1743 0699 0C       		.byte	0xc
 1744 069a 39       		.byte	0x39
 1745 069b C4060000 		.4byte	0x6c4
 1746 069f 06       		.uleb128 0x6
 1747 06a0 54010000 		.4byte	.LASF99
 1748 06a4 0C       		.byte	0xc
 1749 06a5 3A       		.byte	0x3a
 1750 06a6 76020000 		.4byte	0x276
 1751 06aa 00       		.byte	0
 1752 06ab 06       		.uleb128 0x6
 1753 06ac 09070000 		.4byte	.LASF100
 1754 06b0 0C       		.byte	0xc
 1755 06b1 3C       		.byte	0x3c
 1756 06b2 4C020000 		.4byte	0x24c
 1757 06b6 08       		.byte	0x8
 1758 06b7 06       		.uleb128 0x6
 1759 06b8 59030000 		.4byte	.LASF101
 1760 06bc 0C       		.byte	0xc
 1761 06bd 3E       		.byte	0x3e
 1762 06be 12070000 		.4byte	0x712
 1763 06c2 0C       		.byte	0xc
 1764 06c3 00       		.byte	0
 1765 06c4 09       		.uleb128 0x9
 1766 06c5 04       		.byte	0x4
 1767 06c6 93060000 		.4byte	0x693
ARM GAS  /var/folders/m4/4md61f0s1_g0rzfghffqnxvr0000gn/T//ccXSh2M4.s 			page 32


 1768 06ca 09       		.uleb128 0x9
 1769 06cb 04       		.byte	0x4
 1770 06cc D0060000 		.4byte	0x6d0
 1771 06d0 13       		.uleb128 0x13
 1772 06d1 D5060000 		.4byte	0x6d5
 1773 06d5 03       		.uleb128 0x3
 1774 06d6 01       		.byte	0x1
 1775 06d7 08       		.byte	0x8
 1776 06d8 AF040000 		.4byte	.LASF102
 1777 06dc 14       		.uleb128 0x14
 1778 06dd 26010000 		.4byte	0x126
 1779 06e1 09       		.uleb128 0x9
 1780 06e2 04       		.byte	0x4
 1781 06e3 2B030000 		.4byte	0x32b
 1782 06e7 14       		.uleb128 0x14
 1783 06e8 CA060000 		.4byte	0x6ca
 1784 06ec 15       		.uleb128 0x15
 1785 06ed 71040000 		.4byte	0x471
 1786 06f1 FC060000 		.4byte	0x6fc
 1787 06f5 16       		.uleb128 0x16
 1788 06f6 5F040000 		.4byte	0x45f
 1789 06fa 3A       		.byte	0x3a
 1790 06fb 00       		.byte	0
 1791 06fc 04       		.uleb128 0x4
 1792 06fd 26040000 		.4byte	.LASF103
 1793 0701 0B       		.byte	0xb
 1794 0702 38       		.byte	0x38
 1795 0703 68060000 		.4byte	0x668
 1796 0707 04       		.uleb128 0x4
 1797 0708 CF010000 		.4byte	.LASF104
 1798 070c 0C       		.byte	0xc
 1799 070d 34       		.byte	0x34
 1800 070e 93060000 		.4byte	0x693
 1801 0712 09       		.uleb128 0x9
 1802 0713 04       		.byte	0x4
 1803 0714 07070000 		.4byte	0x707
 1804 0718 17       		.uleb128 0x17
 1805 0719 0A050000 		.4byte	.LASF107
 1806 071d 03       		.byte	0x3
 1807 071e 2202     		.2byte	0x222
 1808 0720 03       		.byte	0x3
 1809 0721 32070000 		.4byte	0x732
 1810 0725 18       		.uleb128 0x18
 1811 0726 D7010000 		.4byte	.LASF109
 1812 072a 03       		.byte	0x3
 1813 072b 2202     		.2byte	0x222
 1814 072d AD000000 		.4byte	0xad
 1815 0731 00       		.byte	0
 1816 0732 19       		.uleb128 0x19
 1817 0733 99000000 		.4byte	.LASF105
 1818 0737 09       		.byte	0x9
 1819 0738 C801     		.2byte	0x1c8
 1820 073a 03       		.byte	0x3
 1821 073b 19       		.uleb128 0x19
 1822 073c 63010000 		.4byte	.LASF106
 1823 0740 09       		.byte	0x9
 1824 0741 E001     		.2byte	0x1e0
ARM GAS  /var/folders/m4/4md61f0s1_g0rzfghffqnxvr0000gn/T//ccXSh2M4.s 			page 33


 1825 0743 03       		.byte	0x3
 1826 0744 17       		.uleb128 0x17
 1827 0745 8E000000 		.4byte	.LASF108
 1828 0749 02       		.byte	0x2
 1829 074a 5A02     		.2byte	0x25a
 1830 074c 03       		.byte	0x3
 1831 074d 5E070000 		.4byte	0x75e
 1832 0751 1A       		.uleb128 0x1a
 1833 0752 74717000 		.ascii	"tqp\000"
 1834 0756 02       		.byte	0x2
 1835 0757 5A02     		.2byte	0x25a
 1836 0759 5E070000 		.4byte	0x75e
 1837 075d 00       		.byte	0
 1838 075e 09       		.uleb128 0x9
 1839 075f 04       		.byte	0x4
 1840 0760 76020000 		.4byte	0x276
 1841 0764 1B       		.uleb128 0x1b
 1842 0765 A3000000 		.4byte	.LASF117
 1843 0769 02       		.byte	0x2
 1844 076a A802     		.2byte	0x2a8
 1845 076c 4C020000 		.4byte	0x24c
 1846 0770 03       		.byte	0x3
 1847 0771 8D070000 		.4byte	0x78d
 1848 0775 1A       		.uleb128 0x1a
 1849 0776 74717000 		.ascii	"tqp\000"
 1850 077a 02       		.byte	0x2
 1851 077b A802     		.2byte	0x2a8
 1852 077d 5E070000 		.4byte	0x75e
 1853 0781 1C       		.uleb128 0x1c
 1854 0782 747000   		.ascii	"tp\000"
 1855 0785 02       		.byte	0x2
 1856 0786 A902     		.2byte	0x2a9
 1857 0788 4C020000 		.4byte	0x24c
 1858 078c 00       		.byte	0
 1859 078d 19       		.uleb128 0x19
 1860 078e 30030000 		.4byte	.LASF110
 1861 0792 0D       		.byte	0xd
 1862 0793 5A01     		.2byte	0x15a
 1863 0795 03       		.byte	0x3
 1864 0796 17       		.uleb128 0x17
 1865 0797 D6060000 		.4byte	.LASF111
 1866 079b 0D       		.byte	0xd
 1867 079c 6601     		.2byte	0x166
 1868 079e 03       		.byte	0x3
 1869 079f B1070000 		.4byte	0x7b1
 1870 07a3 1D       		.uleb128 0x1d
 1871 07a4 12040000 		.4byte	.LASF112
 1872 07a8 C1070000 		.4byte	0x7c1
 1873 07ac D6060000 		.4byte	.LASF111
 1874 07b0 00       		.byte	0
 1875 07b1 15       		.uleb128 0x15
 1876 07b2 D5060000 		.4byte	0x6d5
 1877 07b6 C1070000 		.4byte	0x7c1
 1878 07ba 16       		.uleb128 0x16
 1879 07bb 5F040000 		.4byte	0x45f
 1880 07bf 0B       		.byte	0xb
 1881 07c0 00       		.byte	0
ARM GAS  /var/folders/m4/4md61f0s1_g0rzfghffqnxvr0000gn/T//ccXSh2M4.s 			page 34


 1882 07c1 13       		.uleb128 0x13
 1883 07c2 B1070000 		.4byte	0x7b1
 1884 07c6 17       		.uleb128 0x17
 1885 07c7 39000000 		.4byte	.LASF113
 1886 07cb 02       		.byte	0x2
 1887 07cc 9702     		.2byte	0x297
 1888 07ce 03       		.byte	0x3
 1889 07cf EB070000 		.4byte	0x7eb
 1890 07d3 1A       		.uleb128 0x1a
 1891 07d4 747000   		.ascii	"tp\000"
 1892 07d7 02       		.byte	0x2
 1893 07d8 9702     		.2byte	0x297
 1894 07da 4C020000 		.4byte	0x24c
 1895 07de 1A       		.uleb128 0x1a
 1896 07df 74717000 		.ascii	"tqp\000"
 1897 07e3 02       		.byte	0x2
 1898 07e4 9702     		.2byte	0x297
 1899 07e6 5E070000 		.4byte	0x75e
 1900 07ea 00       		.byte	0
 1901 07eb 1E       		.uleb128 0x1e
 1902 07ec 1B040000 		.4byte	.LASF114
 1903 07f0 01       		.byte	0x1
 1904 07f1 C5       		.byte	0xc5
 1905 07f2 05010000 		.4byte	0x105
 1906 07f6 01       		.byte	0x1
 1907 07f7 13080000 		.4byte	0x813
 1908 07fb 1F       		.uleb128 0x1f
 1909 07fc 737000   		.ascii	"sp\000"
 1910 07ff 01       		.byte	0x1
 1911 0800 C5       		.byte	0xc5
 1912 0801 13080000 		.4byte	0x813
 1913 0805 1D       		.uleb128 0x1d
 1914 0806 12040000 		.4byte	.LASF112
 1915 080a 29080000 		.4byte	0x829
 1916 080e 1B040000 		.4byte	.LASF114
 1917 0812 00       		.byte	0
 1918 0813 09       		.uleb128 0x9
 1919 0814 04       		.byte	0x4
 1920 0815 FC060000 		.4byte	0x6fc
 1921 0819 15       		.uleb128 0x15
 1922 081a D5060000 		.4byte	0x6d5
 1923 081e 29080000 		.4byte	0x829
 1924 0822 16       		.uleb128 0x16
 1925 0823 5F040000 		.4byte	0x45f
 1926 0827 0A       		.byte	0xa
 1927 0828 00       		.byte	0
 1928 0829 13       		.uleb128 0x13
 1929 082a 19080000 		.4byte	0x819
 1930 082e 20       		.uleb128 0x20
 1931 082f B4040000 		.4byte	.LASF115
 1932 0833 01       		.byte	0x1
 1933 0834 0801     		.2byte	0x108
 1934 0836 05010000 		.4byte	0x105
 1935 083a 01       		.byte	0x1
 1936 083b 64080000 		.4byte	0x864
 1937 083f 1A       		.uleb128 0x1a
 1938 0840 737000   		.ascii	"sp\000"
ARM GAS  /var/folders/m4/4md61f0s1_g0rzfghffqnxvr0000gn/T//ccXSh2M4.s 			page 35


 1939 0843 01       		.byte	0x1
 1940 0844 0801     		.2byte	0x108
 1941 0846 13080000 		.4byte	0x813
 1942 084a 18       		.uleb128 0x18
 1943 084b 60030000 		.4byte	.LASF116
 1944 084f 01       		.byte	0x1
 1945 0850 0801     		.2byte	0x108
 1946 0852 26010000 		.4byte	0x126
 1947 0856 1D       		.uleb128 0x1d
 1948 0857 12040000 		.4byte	.LASF112
 1949 085b 74080000 		.4byte	0x874
 1950 085f B4040000 		.4byte	.LASF115
 1951 0863 00       		.byte	0
 1952 0864 15       		.uleb128 0x15
 1953 0865 D5060000 		.4byte	0x6d5
 1954 0869 74080000 		.4byte	0x874
 1955 086d 16       		.uleb128 0x16
 1956 086e 5F040000 		.4byte	0x45f
 1957 0872 11       		.byte	0x11
 1958 0873 00       		.byte	0
 1959 0874 13       		.uleb128 0x13
 1960 0875 64080000 		.4byte	0x864
 1961 0879 1B       		.uleb128 0x1b
 1962 087a CF040000 		.4byte	.LASF118
 1963 087e 02       		.byte	0x2
 1964 087f 9F02     		.2byte	0x29f
 1965 0881 4C020000 		.4byte	0x24c
 1966 0885 03       		.byte	0x3
 1967 0886 A2080000 		.4byte	0x8a2
 1968 088a 1A       		.uleb128 0x1a
 1969 088b 74717000 		.ascii	"tqp\000"
 1970 088f 02       		.byte	0x2
 1971 0890 9F02     		.2byte	0x29f
 1972 0892 5E070000 		.4byte	0x75e
 1973 0896 1C       		.uleb128 0x1c
 1974 0897 747000   		.ascii	"tp\000"
 1975 089a 02       		.byte	0x2
 1976 089b A002     		.2byte	0x2a0
 1977 089d 4C020000 		.4byte	0x24c
 1978 08a1 00       		.byte	0
 1979 08a2 21       		.uleb128 0x21
 1980 08a3 EC010000 		.4byte	.LASF119
 1981 08a7 01       		.byte	0x1
 1982 08a8 61       		.byte	0x61
 1983 08a9 00000000 		.4byte	.LFB231
 1984 08ad 08000000 		.4byte	.LFE231-.LFB231
 1985 08b1 01       		.uleb128 0x1
 1986 08b2 9C       		.byte	0x9c
 1987 08b3 EF080000 		.4byte	0x8ef
 1988 08b7 22       		.uleb128 0x22
 1989 08b8 737000   		.ascii	"sp\000"
 1990 08bb 01       		.byte	0x1
 1991 08bc 61       		.byte	0x61
 1992 08bd 13080000 		.4byte	0x813
 1993 08c1 01       		.uleb128 0x1
 1994 08c2 50       		.byte	0x50
 1995 08c3 22       		.uleb128 0x22
ARM GAS  /var/folders/m4/4md61f0s1_g0rzfghffqnxvr0000gn/T//ccXSh2M4.s 			page 36


 1996 08c4 6E00     		.ascii	"n\000"
 1997 08c6 01       		.byte	0x1
 1998 08c7 61       		.byte	0x61
 1999 08c8 1B010000 		.4byte	0x11b
 2000 08cc 01       		.uleb128 0x1
 2001 08cd 51       		.byte	0x51
 2002 08ce 23       		.uleb128 0x23
 2003 08cf 12040000 		.4byte	.LASF112
 2004 08d3 FF080000 		.4byte	0x8ff
 2005 08d7 24       		.uleb128 0x24
 2006 08d8 44070000 		.4byte	0x744
 2007 08dc 00000000 		.4byte	.LBB90
 2008 08e0 04000000 		.4byte	.LBE90-.LBB90
 2009 08e4 01       		.byte	0x1
 2010 08e5 65       		.byte	0x65
 2011 08e6 25       		.uleb128 0x25
 2012 08e7 51070000 		.4byte	0x751
 2013 08eb 01       		.uleb128 0x1
 2014 08ec 50       		.byte	0x50
 2015 08ed 00       		.byte	0
 2016 08ee 00       		.byte	0
 2017 08ef 15       		.uleb128 0x15
 2018 08f0 D5060000 		.4byte	0x6d5
 2019 08f4 FF080000 		.4byte	0x8ff
 2020 08f8 16       		.uleb128 0x16
 2021 08f9 5F040000 		.4byte	0x45f
 2022 08fd 0F       		.byte	0xf
 2023 08fe 00       		.byte	0
 2024 08ff 13       		.uleb128 0x13
 2025 0900 EF080000 		.4byte	0x8ef
 2026 0904 21       		.uleb128 0x21
 2027 0905 8E060000 		.4byte	.LASF120
 2028 0909 01       		.byte	0x1
 2029 090a 93       		.byte	0x93
 2030 090b 00000000 		.4byte	.LFB233
 2031 090f 28000000 		.4byte	.LFE233-.LFB233
 2032 0913 01       		.uleb128 0x1
 2033 0914 9C       		.byte	0x9c
 2034 0915 86090000 		.4byte	0x986
 2035 0919 26       		.uleb128 0x26
 2036 091a 737000   		.ascii	"sp\000"
 2037 091d 01       		.byte	0x1
 2038 091e 93       		.byte	0x93
 2039 091f 13080000 		.4byte	0x813
 2040 0923 00000000 		.4byte	.LLST0
 2041 0927 26       		.uleb128 0x26
 2042 0928 6E00     		.ascii	"n\000"
 2043 092a 01       		.byte	0x1
 2044 092b 93       		.byte	0x93
 2045 092c 1B010000 		.4byte	0x11b
 2046 0930 2C000000 		.4byte	.LLST1
 2047 0934 27       		.uleb128 0x27
 2048 0935 636E7400 		.ascii	"cnt\000"
 2049 0939 01       		.byte	0x1
 2050 093a 94       		.byte	0x94
 2051 093b 1B010000 		.4byte	0x11b
 2052 093f 4D000000 		.4byte	.LLST2
ARM GAS  /var/folders/m4/4md61f0s1_g0rzfghffqnxvr0000gn/T//ccXSh2M4.s 			page 37


 2053 0943 23       		.uleb128 0x23
 2054 0944 12040000 		.4byte	.LASF112
 2055 0948 86090000 		.4byte	0x986
 2056 094c 28       		.uleb128 0x28
 2057 094d 64070000 		.4byte	0x764
 2058 0951 12000000 		.4byte	.LBB92
 2059 0955 08000000 		.4byte	.LBE92-.LBB92
 2060 0959 01       		.byte	0x1
 2061 095a 9F       		.byte	0x9f
 2062 095b 7C090000 		.4byte	0x97c
 2063 095f 29       		.uleb128 0x29
 2064 0960 75070000 		.4byte	0x775
 2065 0964 78000000 		.4byte	.LLST3
 2066 0968 2A       		.uleb128 0x2a
 2067 0969 12000000 		.4byte	.LBB93
 2068 096d 08000000 		.4byte	.LBE93-.LBB93
 2069 0971 2B       		.uleb128 0x2b
 2070 0972 81070000 		.4byte	0x781
 2071 0976 8B000000 		.4byte	.LLST4
 2072 097a 00       		.byte	0
 2073 097b 00       		.byte	0
 2074 097c 2C       		.uleb128 0x2c
 2075 097d 1E000000 		.4byte	.LVL6
 2076 0981 1D110000 		.4byte	0x111d
 2077 0985 00       		.byte	0
 2078 0986 13       		.uleb128 0x13
 2079 0987 B1070000 		.4byte	0x7b1
 2080 098b 21       		.uleb128 0x21
 2081 098c 4A020000 		.4byte	.LASF121
 2082 0990 01       		.byte	0x1
 2083 0991 78       		.byte	0x78
 2084 0992 00000000 		.4byte	.LFB232
 2085 0996 18000000 		.4byte	.LFE232-.LFB232
 2086 099a 01       		.uleb128 0x1
 2087 099b 9C       		.byte	0x9c
 2088 099c 680A0000 		.4byte	0xa68
 2089 09a0 26       		.uleb128 0x26
 2090 09a1 737000   		.ascii	"sp\000"
 2091 09a4 01       		.byte	0x1
 2092 09a5 78       		.byte	0x78
 2093 09a6 13080000 		.4byte	0x813
 2094 09aa 9E000000 		.4byte	.LLST5
 2095 09ae 26       		.uleb128 0x26
 2096 09af 6E00     		.ascii	"n\000"
 2097 09b1 01       		.byte	0x1
 2098 09b2 78       		.byte	0x78
 2099 09b3 1B010000 		.4byte	0x11b
 2100 09b7 BF000000 		.4byte	.LLST6
 2101 09bb 28       		.uleb128 0x28
 2102 09bc 8D070000 		.4byte	0x78d
 2103 09c0 02000000 		.4byte	.LBB94
 2104 09c4 06000000 		.4byte	.LBE94-.LBB94
 2105 09c8 01       		.byte	0x1
 2106 09c9 7A       		.byte	0x7a
 2107 09ca F7090000 		.4byte	0x9f7
 2108 09ce 2D       		.uleb128 0x2d
 2109 09cf 32070000 		.4byte	0x732
ARM GAS  /var/folders/m4/4md61f0s1_g0rzfghffqnxvr0000gn/T//ccXSh2M4.s 			page 38


 2110 09d3 02000000 		.4byte	.LBB95
 2111 09d7 06000000 		.4byte	.LBE95-.LBB95
 2112 09db 0D       		.byte	0xd
 2113 09dc 5C01     		.2byte	0x15c
 2114 09de 2D       		.uleb128 0x2d
 2115 09df 18070000 		.4byte	0x718
 2116 09e3 02000000 		.4byte	.LBB96
 2117 09e7 06000000 		.4byte	.LBE96-.LBB96
 2118 09eb 09       		.byte	0x9
 2119 09ec D001     		.2byte	0x1d0
 2120 09ee 2E       		.uleb128 0x2e
 2121 09ef 25070000 		.4byte	0x725
 2122 09f3 20       		.byte	0x20
 2123 09f4 00       		.byte	0
 2124 09f5 00       		.byte	0
 2125 09f6 00       		.byte	0
 2126 09f7 28       		.uleb128 0x28
 2127 09f8 96070000 		.4byte	0x796
 2128 09fc 10000000 		.4byte	.LBB98
 2129 0a00 08000000 		.4byte	.LBE98-.LBB98
 2130 0a04 01       		.byte	0x1
 2131 0a05 7D       		.byte	0x7d
 2132 0a06 420A0000 		.4byte	0xa42
 2133 0a0a 2A       		.uleb128 0x2a
 2134 0a0b 10000000 		.4byte	.LBB99
 2135 0a0f 08000000 		.4byte	.LBE99-.LBB99
 2136 0a13 2F       		.uleb128 0x2f
 2137 0a14 A3070000 		.4byte	0x7a3
 2138 0a18 2D       		.uleb128 0x2d
 2139 0a19 3B070000 		.4byte	0x73b
 2140 0a1d 10000000 		.4byte	.LBB100
 2141 0a21 08000000 		.4byte	.LBE100-.LBB100
 2142 0a25 0D       		.byte	0xd
 2143 0a26 7301     		.2byte	0x173
 2144 0a28 2D       		.uleb128 0x2d
 2145 0a29 18070000 		.4byte	0x718
 2146 0a2d 10000000 		.4byte	.LBB101
 2147 0a31 08000000 		.4byte	.LBE101-.LBB101
 2148 0a35 09       		.byte	0x9
 2149 0a36 E301     		.2byte	0x1e3
 2150 0a38 2E       		.uleb128 0x2e
 2151 0a39 25070000 		.4byte	0x725
 2152 0a3d 00       		.byte	0
 2153 0a3e 00       		.byte	0
 2154 0a3f 00       		.byte	0
 2155 0a40 00       		.byte	0
 2156 0a41 00       		.byte	0
 2157 0a42 30       		.uleb128 0x30
 2158 0a43 0C000000 		.4byte	.LVL11
 2159 0a47 04090000 		.4byte	0x904
 2160 0a4b 5E0A0000 		.4byte	0xa5e
 2161 0a4f 31       		.uleb128 0x31
 2162 0a50 01       		.uleb128 0x1
 2163 0a51 51       		.byte	0x51
 2164 0a52 03       		.uleb128 0x3
 2165 0a53 F3       		.byte	0xf3
 2166 0a54 01       		.uleb128 0x1
ARM GAS  /var/folders/m4/4md61f0s1_g0rzfghffqnxvr0000gn/T//ccXSh2M4.s 			page 39


 2167 0a55 51       		.byte	0x51
 2168 0a56 31       		.uleb128 0x31
 2169 0a57 01       		.uleb128 0x1
 2170 0a58 50       		.byte	0x50
 2171 0a59 03       		.uleb128 0x3
 2172 0a5a F3       		.byte	0xf3
 2173 0a5b 01       		.uleb128 0x1
 2174 0a5c 50       		.byte	0x50
 2175 0a5d 00       		.byte	0
 2176 0a5e 2C       		.uleb128 0x2c
 2177 0a5f 10000000 		.4byte	.LVL12
 2178 0a63 33110000 		.4byte	0x1133
 2179 0a67 00       		.byte	0
 2180 0a68 32       		.uleb128 0x32
 2181 0a69 18050000 		.4byte	.LASF122
 2182 0a6d 01       		.byte	0x1
 2183 0a6e AF       		.byte	0xaf
 2184 0a6f 05010000 		.4byte	0x105
 2185 0a73 00000000 		.4byte	.LFB234
 2186 0a77 44000000 		.4byte	.LFE234-.LFB234
 2187 0a7b 01       		.uleb128 0x1
 2188 0a7c 9C       		.byte	0x9c
 2189 0a7d 9C0B0000 		.4byte	0xb9c
 2190 0a81 26       		.uleb128 0x26
 2191 0a82 737000   		.ascii	"sp\000"
 2192 0a85 01       		.byte	0x1
 2193 0a86 AF       		.byte	0xaf
 2194 0a87 13080000 		.4byte	0x813
 2195 0a8b E0000000 		.4byte	.LLST7
 2196 0a8f 33       		.uleb128 0x33
 2197 0a90 6D736700 		.ascii	"msg\000"
 2198 0a94 01       		.byte	0x1
 2199 0a95 B0       		.byte	0xb0
 2200 0a96 05010000 		.4byte	0x105
 2201 0a9a 28       		.uleb128 0x28
 2202 0a9b 8D070000 		.4byte	0x78d
 2203 0a9f 00000000 		.4byte	.LBB118
 2204 0aa3 06000000 		.4byte	.LBE118-.LBB118
 2205 0aa7 01       		.byte	0x1
 2206 0aa8 B2       		.byte	0xb2
 2207 0aa9 D60A0000 		.4byte	0xad6
 2208 0aad 2D       		.uleb128 0x2d
 2209 0aae 32070000 		.4byte	0x732
 2210 0ab2 00000000 		.4byte	.LBB119
 2211 0ab6 06000000 		.4byte	.LBE119-.LBB119
 2212 0aba 0D       		.byte	0xd
 2213 0abb 5C01     		.2byte	0x15c
 2214 0abd 2D       		.uleb128 0x2d
 2215 0abe 18070000 		.4byte	0x718
 2216 0ac2 00000000 		.4byte	.LBB120
 2217 0ac6 06000000 		.4byte	.LBE120-.LBB120
 2218 0aca 09       		.byte	0x9
 2219 0acb D001     		.2byte	0x1d0
 2220 0acd 2E       		.uleb128 0x2e
 2221 0ace 25070000 		.4byte	0x725
 2222 0ad2 20       		.byte	0x20
 2223 0ad3 00       		.byte	0
ARM GAS  /var/folders/m4/4md61f0s1_g0rzfghffqnxvr0000gn/T//ccXSh2M4.s 			page 40


 2224 0ad4 00       		.byte	0
 2225 0ad5 00       		.byte	0
 2226 0ad6 34       		.uleb128 0x34
 2227 0ad7 EB070000 		.4byte	0x7eb
 2228 0adb 06000000 		.4byte	.LBB122
 2229 0adf 00000000 		.4byte	.Ldebug_ranges0+0
 2230 0ae3 01       		.byte	0x1
 2231 0ae4 B3       		.byte	0xb3
 2232 0ae5 550B0000 		.4byte	0xb55
 2233 0ae9 29       		.uleb128 0x29
 2234 0aea FB070000 		.4byte	0x7fb
 2235 0aee 25010000 		.4byte	.LLST8
 2236 0af2 35       		.uleb128 0x35
 2237 0af3 00000000 		.4byte	.Ldebug_ranges0+0
 2238 0af7 2F       		.uleb128 0x2f
 2239 0af8 05080000 		.4byte	0x805
 2240 0afc 2A       		.uleb128 0x2a
 2241 0afd 1C000000 		.4byte	.LBB124
 2242 0b01 1C000000 		.4byte	.LBE124-.LBB124
 2243 0b05 29       		.uleb128 0x29
 2244 0b06 FB070000 		.4byte	0x7fb
 2245 0b0a 6A010000 		.4byte	.LLST9
 2246 0b0e 2A       		.uleb128 0x2a
 2247 0b0f 1C000000 		.4byte	.LBB125
 2248 0b13 1C000000 		.4byte	.LBE125-.LBB125
 2249 0b17 2F       		.uleb128 0x2f
 2250 0b18 05080000 		.4byte	0x805
 2251 0b1c 34       		.uleb128 0x34
 2252 0b1d C6070000 		.4byte	0x7c6
 2253 0b21 22000000 		.4byte	.LBB126
 2254 0b25 18000000 		.4byte	.Ldebug_ranges0+0x18
 2255 0b29 01       		.byte	0x1
 2256 0b2a CF       		.byte	0xcf
 2257 0b2b 420B0000 		.4byte	0xb42
 2258 0b2f 29       		.uleb128 0x29
 2259 0b30 DE070000 		.4byte	0x7de
 2260 0b34 6A010000 		.4byte	.LLST9
 2261 0b38 29       		.uleb128 0x29
 2262 0b39 D3070000 		.4byte	0x7d3
 2263 0b3d 8B010000 		.4byte	.LLST11
 2264 0b41 00       		.byte	0
 2265 0b42 36       		.uleb128 0x36
 2266 0b43 34000000 		.4byte	.LVL19
 2267 0b47 3B110000 		.4byte	0x113b
 2268 0b4b 31       		.uleb128 0x31
 2269 0b4c 01       		.uleb128 0x1
 2270 0b4d 50       		.byte	0x50
 2271 0b4e 01       		.uleb128 0x1
 2272 0b4f 35       		.byte	0x35
 2273 0b50 00       		.byte	0
 2274 0b51 00       		.byte	0
 2275 0b52 00       		.byte	0
 2276 0b53 00       		.byte	0
 2277 0b54 00       		.byte	0
 2278 0b55 37       		.uleb128 0x37
 2279 0b56 96070000 		.4byte	0x796
 2280 0b5a 12000000 		.4byte	.LBB131
ARM GAS  /var/folders/m4/4md61f0s1_g0rzfghffqnxvr0000gn/T//ccXSh2M4.s 			page 41


 2281 0b5e 30000000 		.4byte	.Ldebug_ranges0+0x30
 2282 0b62 01       		.byte	0x1
 2283 0b63 B4       		.byte	0xb4
 2284 0b64 35       		.uleb128 0x35
 2285 0b65 30000000 		.4byte	.Ldebug_ranges0+0x30
 2286 0b69 2F       		.uleb128 0x2f
 2287 0b6a A3070000 		.4byte	0x7a3
 2288 0b6e 38       		.uleb128 0x38
 2289 0b6f 3B070000 		.4byte	0x73b
 2290 0b73 12000000 		.4byte	.LBB133
 2291 0b77 30000000 		.4byte	.Ldebug_ranges0+0x30
 2292 0b7b 0D       		.byte	0xd
 2293 0b7c 7301     		.2byte	0x173
 2294 0b7e 38       		.uleb128 0x38
 2295 0b7f 18070000 		.4byte	0x718
 2296 0b83 12000000 		.4byte	.LBB134
 2297 0b87 30000000 		.4byte	.Ldebug_ranges0+0x30
 2298 0b8b 09       		.byte	0x9
 2299 0b8c E301     		.2byte	0x1e3
 2300 0b8e 29       		.uleb128 0x29
 2301 0b8f 25070000 		.4byte	0x725
 2302 0b93 9E010000 		.4byte	.LLST12
 2303 0b97 00       		.byte	0
 2304 0b98 00       		.byte	0
 2305 0b99 00       		.byte	0
 2306 0b9a 00       		.byte	0
 2307 0b9b 00       		.byte	0
 2308 0b9c 39       		.uleb128 0x39
 2309 0b9d EB070000 		.4byte	0x7eb
 2310 0ba1 00000000 		.4byte	.LFB235
 2311 0ba5 34000000 		.4byte	.LFE235-.LFB235
 2312 0ba9 01       		.uleb128 0x1
 2313 0baa 9C       		.byte	0x9c
 2314 0bab 150C0000 		.4byte	0xc15
 2315 0baf 29       		.uleb128 0x29
 2316 0bb0 FB070000 		.4byte	0x7fb
 2317 0bb4 BE010000 		.4byte	.LLST13
 2318 0bb8 2F       		.uleb128 0x2f
 2319 0bb9 05080000 		.4byte	0x805
 2320 0bbd 2A       		.uleb128 0x2a
 2321 0bbe 10000000 		.4byte	.LBB146
 2322 0bc2 24000000 		.4byte	.LBE146-.LBB146
 2323 0bc6 29       		.uleb128 0x29
 2324 0bc7 FB070000 		.4byte	0x7fb
 2325 0bcb 03020000 		.4byte	.LLST14
 2326 0bcf 2A       		.uleb128 0x2a
 2327 0bd0 10000000 		.4byte	.LBB147
 2328 0bd4 24000000 		.4byte	.LBE147-.LBB147
 2329 0bd8 2F       		.uleb128 0x2f
 2330 0bd9 05080000 		.4byte	0x805
 2331 0bdd 34       		.uleb128 0x34
 2332 0bde C6070000 		.4byte	0x7c6
 2333 0be2 16000000 		.4byte	.LBB148
 2334 0be6 48000000 		.4byte	.Ldebug_ranges0+0x48
 2335 0bea 01       		.byte	0x1
 2336 0beb CF       		.byte	0xcf
 2337 0bec 030C0000 		.4byte	0xc03
ARM GAS  /var/folders/m4/4md61f0s1_g0rzfghffqnxvr0000gn/T//ccXSh2M4.s 			page 42


 2338 0bf0 29       		.uleb128 0x29
 2339 0bf1 DE070000 		.4byte	0x7de
 2340 0bf5 03020000 		.4byte	.LLST14
 2341 0bf9 29       		.uleb128 0x29
 2342 0bfa D3070000 		.4byte	0x7d3
 2343 0bfe 24020000 		.4byte	.LLST16
 2344 0c02 00       		.byte	0
 2345 0c03 36       		.uleb128 0x36
 2346 0c04 28000000 		.4byte	.LVL26
 2347 0c08 3B110000 		.4byte	0x113b
 2348 0c0c 31       		.uleb128 0x31
 2349 0c0d 01       		.uleb128 0x1
 2350 0c0e 50       		.byte	0x50
 2351 0c0f 01       		.uleb128 0x1
 2352 0c10 35       		.byte	0x35
 2353 0c11 00       		.byte	0
 2354 0c12 00       		.byte	0
 2355 0c13 00       		.byte	0
 2356 0c14 00       		.byte	0
 2357 0c15 39       		.uleb128 0x39
 2358 0c16 2E080000 		.4byte	0x82e
 2359 0c1a 00000000 		.4byte	.LFB237
 2360 0c1e 40000000 		.4byte	.LFE237-.LFB237
 2361 0c22 01       		.uleb128 0x1
 2362 0c23 9C       		.byte	0x9c
 2363 0c24 950C0000 		.4byte	0xc95
 2364 0c28 29       		.uleb128 0x29
 2365 0c29 3F080000 		.4byte	0x83f
 2366 0c2d 37020000 		.4byte	.LLST17
 2367 0c31 29       		.uleb128 0x29
 2368 0c32 4A080000 		.4byte	0x84a
 2369 0c36 6E020000 		.4byte	.LLST18
 2370 0c3a 2F       		.uleb128 0x2f
 2371 0c3b 56080000 		.4byte	0x856
 2372 0c3f 35       		.uleb128 0x35
 2373 0c40 60000000 		.4byte	.Ldebug_ranges0+0x60
 2374 0c44 3A       		.uleb128 0x3a
 2375 0c45 4A080000 		.4byte	0x84a
 2376 0c49 29       		.uleb128 0x29
 2377 0c4a 3F080000 		.4byte	0x83f
 2378 0c4e 9A020000 		.4byte	.LLST19
 2379 0c52 35       		.uleb128 0x35
 2380 0c53 60000000 		.4byte	.Ldebug_ranges0+0x60
 2381 0c57 2F       		.uleb128 0x2f
 2382 0c58 56080000 		.4byte	0x856
 2383 0c5c 3B       		.uleb128 0x3b
 2384 0c5d C6070000 		.4byte	0x7c6
 2385 0c61 1A000000 		.4byte	.LBB158
 2386 0c65 78000000 		.4byte	.Ldebug_ranges0+0x78
 2387 0c69 01       		.byte	0x1
 2388 0c6a 1701     		.2byte	0x117
 2389 0c6c 830C0000 		.4byte	0xc83
 2390 0c70 29       		.uleb128 0x29
 2391 0c71 DE070000 		.4byte	0x7de
 2392 0c75 BB020000 		.4byte	.LLST20
 2393 0c79 29       		.uleb128 0x29
 2394 0c7a D3070000 		.4byte	0x7d3
ARM GAS  /var/folders/m4/4md61f0s1_g0rzfghffqnxvr0000gn/T//ccXSh2M4.s 			page 43


 2395 0c7e DC020000 		.4byte	.LLST21
 2396 0c82 00       		.byte	0
 2397 0c83 3C       		.uleb128 0x3c
 2398 0c84 2E000000 		.4byte	.LVL31
 2399 0c88 4D110000 		.4byte	0x114d
 2400 0c8c 31       		.uleb128 0x31
 2401 0c8d 01       		.uleb128 0x1
 2402 0c8e 50       		.byte	0x50
 2403 0c8f 01       		.uleb128 0x1
 2404 0c90 35       		.byte	0x35
 2405 0c91 00       		.byte	0
 2406 0c92 00       		.byte	0
 2407 0c93 00       		.byte	0
 2408 0c94 00       		.byte	0
 2409 0c95 32       		.uleb128 0x32
 2410 0c96 0F020000 		.4byte	.LASF123
 2411 0c9a 01       		.byte	0x1
 2412 0c9b EB       		.byte	0xeb
 2413 0c9c 05010000 		.4byte	0x105
 2414 0ca0 00000000 		.4byte	.LFB236
 2415 0ca4 14000000 		.4byte	.LFE236-.LFB236
 2416 0ca8 01       		.uleb128 0x1
 2417 0ca9 9C       		.byte	0x9c
 2418 0caa 780D0000 		.4byte	0xd78
 2419 0cae 26       		.uleb128 0x26
 2420 0caf 737000   		.ascii	"sp\000"
 2421 0cb2 01       		.byte	0x1
 2422 0cb3 EB       		.byte	0xeb
 2423 0cb4 13080000 		.4byte	0x813
 2424 0cb8 EF020000 		.4byte	.LLST22
 2425 0cbc 3D       		.uleb128 0x3d
 2426 0cbd 60030000 		.4byte	.LASF116
 2427 0cc1 01       		.byte	0x1
 2428 0cc2 EB       		.byte	0xeb
 2429 0cc3 26010000 		.4byte	0x126
 2430 0cc7 10030000 		.4byte	.LLST23
 2431 0ccb 3E       		.uleb128 0x3e
 2432 0ccc 6D736700 		.ascii	"msg\000"
 2433 0cd0 01       		.byte	0x1
 2434 0cd1 EC       		.byte	0xec
 2435 0cd2 05010000 		.4byte	0x105
 2436 0cd6 01       		.uleb128 0x1
 2437 0cd7 50       		.byte	0x50
 2438 0cd8 28       		.uleb128 0x28
 2439 0cd9 8D070000 		.4byte	0x78d
 2440 0cdd 02000000 		.4byte	.LBB164
 2441 0ce1 06000000 		.4byte	.LBE164-.LBB164
 2442 0ce5 01       		.byte	0x1
 2443 0ce6 EE       		.byte	0xee
 2444 0ce7 140D0000 		.4byte	0xd14
 2445 0ceb 2D       		.uleb128 0x2d
 2446 0cec 32070000 		.4byte	0x732
 2447 0cf0 02000000 		.4byte	.LBB165
 2448 0cf4 06000000 		.4byte	.LBE165-.LBB165
 2449 0cf8 0D       		.byte	0xd
 2450 0cf9 5C01     		.2byte	0x15c
 2451 0cfb 2D       		.uleb128 0x2d
ARM GAS  /var/folders/m4/4md61f0s1_g0rzfghffqnxvr0000gn/T//ccXSh2M4.s 			page 44


 2452 0cfc 18070000 		.4byte	0x718
 2453 0d00 02000000 		.4byte	.LBB166
 2454 0d04 06000000 		.4byte	.LBE166-.LBB166
 2455 0d08 09       		.byte	0x9
 2456 0d09 D001     		.2byte	0x1d0
 2457 0d0b 2E       		.uleb128 0x2e
 2458 0d0c 25070000 		.4byte	0x725
 2459 0d10 20       		.byte	0x20
 2460 0d11 00       		.byte	0
 2461 0d12 00       		.byte	0
 2462 0d13 00       		.byte	0
 2463 0d14 28       		.uleb128 0x28
 2464 0d15 96070000 		.4byte	0x796
 2465 0d19 0C000000 		.4byte	.LBB168
 2466 0d1d 06000000 		.4byte	.LBE168-.LBB168
 2467 0d21 01       		.byte	0x1
 2468 0d22 F0       		.byte	0xf0
 2469 0d23 5F0D0000 		.4byte	0xd5f
 2470 0d27 2A       		.uleb128 0x2a
 2471 0d28 0C000000 		.4byte	.LBB169
 2472 0d2c 06000000 		.4byte	.LBE169-.LBB169
 2473 0d30 2F       		.uleb128 0x2f
 2474 0d31 A3070000 		.4byte	0x7a3
 2475 0d35 2D       		.uleb128 0x2d
 2476 0d36 3B070000 		.4byte	0x73b
 2477 0d3a 0C000000 		.4byte	.LBB170
 2478 0d3e 06000000 		.4byte	.LBE170-.LBB170
 2479 0d42 0D       		.byte	0xd
 2480 0d43 7301     		.2byte	0x173
 2481 0d45 2D       		.uleb128 0x2d
 2482 0d46 18070000 		.4byte	0x718
 2483 0d4a 0C000000 		.4byte	.LBB171
 2484 0d4e 06000000 		.4byte	.LBE171-.LBB171
 2485 0d52 09       		.byte	0x9
 2486 0d53 E301     		.2byte	0x1e3
 2487 0d55 2E       		.uleb128 0x2e
 2488 0d56 25070000 		.4byte	0x725
 2489 0d5a 00       		.byte	0
 2490 0d5b 00       		.byte	0
 2491 0d5c 00       		.byte	0
 2492 0d5d 00       		.byte	0
 2493 0d5e 00       		.byte	0
 2494 0d5f 36       		.uleb128 0x36
 2495 0d60 0C000000 		.4byte	.LVL33
 2496 0d64 2E080000 		.4byte	0x82e
 2497 0d68 31       		.uleb128 0x31
 2498 0d69 01       		.uleb128 0x1
 2499 0d6a 51       		.byte	0x51
 2500 0d6b 03       		.uleb128 0x3
 2501 0d6c F3       		.byte	0xf3
 2502 0d6d 01       		.uleb128 0x1
 2503 0d6e 51       		.byte	0x51
 2504 0d6f 31       		.uleb128 0x31
 2505 0d70 01       		.uleb128 0x1
 2506 0d71 50       		.byte	0x50
 2507 0d72 03       		.uleb128 0x3
 2508 0d73 F3       		.byte	0xf3
ARM GAS  /var/folders/m4/4md61f0s1_g0rzfghffqnxvr0000gn/T//ccXSh2M4.s 			page 45


 2509 0d74 01       		.uleb128 0x1
 2510 0d75 50       		.byte	0x50
 2511 0d76 00       		.byte	0
 2512 0d77 00       		.byte	0
 2513 0d78 3F       		.uleb128 0x3f
 2514 0d79 B5000000 		.4byte	.LASF124
 2515 0d7d 01       		.byte	0x1
 2516 0d7e 2601     		.2byte	0x126
 2517 0d80 00000000 		.4byte	.LFB238
 2518 0d84 32000000 		.4byte	.LFE238-.LFB238
 2519 0d88 01       		.uleb128 0x1
 2520 0d89 9C       		.byte	0x9c
 2521 0d8a 6B0E0000 		.4byte	0xe6b
 2522 0d8e 40       		.uleb128 0x40
 2523 0d8f 737000   		.ascii	"sp\000"
 2524 0d92 01       		.byte	0x1
 2525 0d93 2601     		.2byte	0x126
 2526 0d95 13080000 		.4byte	0x813
 2527 0d99 31030000 		.4byte	.LLST24
 2528 0d9d 23       		.uleb128 0x23
 2529 0d9e 12040000 		.4byte	.LASF112
 2530 0da2 6B0E0000 		.4byte	0xe6b
 2531 0da6 41       		.uleb128 0x41
 2532 0da7 8D070000 		.4byte	0x78d
 2533 0dab 02000000 		.4byte	.LBB173
 2534 0daf 06000000 		.4byte	.LBE173-.LBB173
 2535 0db3 01       		.byte	0x1
 2536 0db4 2D01     		.2byte	0x12d
 2537 0db6 E30D0000 		.4byte	0xde3
 2538 0dba 2D       		.uleb128 0x2d
 2539 0dbb 32070000 		.4byte	0x732
 2540 0dbf 02000000 		.4byte	.LBB174
 2541 0dc3 06000000 		.4byte	.LBE174-.LBB174
 2542 0dc7 0D       		.byte	0xd
 2543 0dc8 5C01     		.2byte	0x15c
 2544 0dca 2D       		.uleb128 0x2d
 2545 0dcb 18070000 		.4byte	0x718
 2546 0dcf 02000000 		.4byte	.LBB175
 2547 0dd3 06000000 		.4byte	.LBE175-.LBB175
 2548 0dd7 09       		.byte	0x9
 2549 0dd8 D001     		.2byte	0x1d0
 2550 0dda 2E       		.uleb128 0x2e
 2551 0ddb 25070000 		.4byte	0x725
 2552 0ddf 20       		.byte	0x20
 2553 0de0 00       		.byte	0
 2554 0de1 00       		.byte	0
 2555 0de2 00       		.byte	0
 2556 0de3 3B       		.uleb128 0x3b
 2557 0de4 96070000 		.4byte	0x796
 2558 0de8 12000000 		.4byte	.LBB177
 2559 0dec 90000000 		.4byte	.Ldebug_ranges0+0x90
 2560 0df0 01       		.byte	0x1
 2561 0df1 3101     		.2byte	0x131
 2562 0df3 2E0E0000 		.4byte	0xe2e
 2563 0df7 35       		.uleb128 0x35
 2564 0df8 90000000 		.4byte	.Ldebug_ranges0+0x90
 2565 0dfc 2F       		.uleb128 0x2f
ARM GAS  /var/folders/m4/4md61f0s1_g0rzfghffqnxvr0000gn/T//ccXSh2M4.s 			page 46


 2566 0dfd A3070000 		.4byte	0x7a3
 2567 0e01 38       		.uleb128 0x38
 2568 0e02 3B070000 		.4byte	0x73b
 2569 0e06 12000000 		.4byte	.LBB179
 2570 0e0a 90000000 		.4byte	.Ldebug_ranges0+0x90
 2571 0e0e 0D       		.byte	0xd
 2572 0e0f 7301     		.2byte	0x173
 2573 0e11 38       		.uleb128 0x38
 2574 0e12 18070000 		.4byte	0x718
 2575 0e16 12000000 		.4byte	.LBB180
 2576 0e1a 90000000 		.4byte	.Ldebug_ranges0+0x90
 2577 0e1e 09       		.byte	0x9
 2578 0e1f E301     		.2byte	0x1e3
 2579 0e21 29       		.uleb128 0x29
 2580 0e22 25070000 		.4byte	0x725
 2581 0e26 5D030000 		.4byte	.LLST25
 2582 0e2a 00       		.byte	0
 2583 0e2b 00       		.byte	0
 2584 0e2c 00       		.byte	0
 2585 0e2d 00       		.byte	0
 2586 0e2e 3B       		.uleb128 0x3b
 2587 0e2f 79080000 		.4byte	0x879
 2588 0e33 1C000000 		.4byte	.LBB186
 2589 0e37 A8000000 		.4byte	.Ldebug_ranges0+0xa8
 2590 0e3b 01       		.byte	0x1
 2591 0e3c 2F01     		.2byte	0x12f
 2592 0e3e 5B0E0000 		.4byte	0xe5b
 2593 0e42 29       		.uleb128 0x29
 2594 0e43 8A080000 		.4byte	0x88a
 2595 0e47 7D030000 		.4byte	.LLST26
 2596 0e4b 35       		.uleb128 0x35
 2597 0e4c A8000000 		.4byte	.Ldebug_ranges0+0xa8
 2598 0e50 2B       		.uleb128 0x2b
 2599 0e51 96080000 		.4byte	0x896
 2600 0e55 9E030000 		.4byte	.LLST27
 2601 0e59 00       		.byte	0
 2602 0e5a 00       		.byte	0
 2603 0e5b 36       		.uleb128 0x36
 2604 0e5c 2A000000 		.4byte	.LVL39
 2605 0e60 68110000 		.4byte	0x1168
 2606 0e64 31       		.uleb128 0x31
 2607 0e65 01       		.uleb128 0x1
 2608 0e66 51       		.byte	0x51
 2609 0e67 01       		.uleb128 0x1
 2610 0e68 30       		.byte	0x30
 2611 0e69 00       		.byte	0
 2612 0e6a 00       		.byte	0
 2613 0e6b 13       		.uleb128 0x13
 2614 0e6c B1070000 		.4byte	0x7b1
 2615 0e70 3F       		.uleb128 0x3f
 2616 0e71 46000000 		.4byte	.LASF125
 2617 0e75 01       		.byte	0x1
 2618 0e76 3F01     		.2byte	0x13f
 2619 0e78 00000000 		.4byte	.LFB239
 2620 0e7c 1E000000 		.4byte	.LFE239-.LFB239
 2621 0e80 01       		.uleb128 0x1
 2622 0e81 9C       		.byte	0x9c
ARM GAS  /var/folders/m4/4md61f0s1_g0rzfghffqnxvr0000gn/T//ccXSh2M4.s 			page 47


 2623 0e82 EC0E0000 		.4byte	0xeec
 2624 0e86 40       		.uleb128 0x40
 2625 0e87 737000   		.ascii	"sp\000"
 2626 0e8a 01       		.byte	0x1
 2627 0e8b 3F01     		.2byte	0x13f
 2628 0e8d 13080000 		.4byte	0x813
 2629 0e91 B1030000 		.4byte	.LLST28
 2630 0e95 23       		.uleb128 0x23
 2631 0e96 12040000 		.4byte	.LASF112
 2632 0e9a FC0E0000 		.4byte	0xefc
 2633 0e9e 2A       		.uleb128 0x2a
 2634 0e9f 0C000000 		.4byte	.LBB191
 2635 0ea3 12000000 		.4byte	.LBE191-.LBB191
 2636 0ea7 42       		.uleb128 0x42
 2637 0ea8 747000   		.ascii	"tp\000"
 2638 0eab 01       		.byte	0x1
 2639 0eac 4A01     		.2byte	0x14a
 2640 0eae 4C020000 		.4byte	0x24c
 2641 0eb2 01       		.uleb128 0x1
 2642 0eb3 53       		.byte	0x53
 2643 0eb4 3B       		.uleb128 0x3b
 2644 0eb5 79080000 		.4byte	0x879
 2645 0eb9 0C000000 		.4byte	.LBB192
 2646 0ebd C0000000 		.4byte	.Ldebug_ranges0+0xc0
 2647 0ec1 01       		.byte	0x1
 2648 0ec2 4A01     		.2byte	0x14a
 2649 0ec4 E10E0000 		.4byte	0xee1
 2650 0ec8 29       		.uleb128 0x29
 2651 0ec9 8A080000 		.4byte	0x88a
 2652 0ecd DE030000 		.4byte	.LLST29
 2653 0ed1 35       		.uleb128 0x35
 2654 0ed2 C0000000 		.4byte	.Ldebug_ranges0+0xc0
 2655 0ed6 2B       		.uleb128 0x2b
 2656 0ed7 96080000 		.4byte	0x896
 2657 0edb 0B040000 		.4byte	.LLST30
 2658 0edf 00       		.byte	0
 2659 0ee0 00       		.byte	0
 2660 0ee1 43       		.uleb128 0x43
 2661 0ee2 1E000000 		.4byte	.LVL44
 2662 0ee6 1D110000 		.4byte	0x111d
 2663 0eea 00       		.byte	0
 2664 0eeb 00       		.byte	0
 2665 0eec 15       		.uleb128 0x15
 2666 0eed D5060000 		.4byte	0x6d5
 2667 0ef1 FC0E0000 		.4byte	0xefc
 2668 0ef5 16       		.uleb128 0x16
 2669 0ef6 5F040000 		.4byte	0x45f
 2670 0efa 0C       		.byte	0xc
 2671 0efb 00       		.byte	0
 2672 0efc 13       		.uleb128 0x13
 2673 0efd EC0E0000 		.4byte	0xeec
 2674 0f01 3F       		.uleb128 0x3f
 2675 0f02 D5000000 		.4byte	.LASF126
 2676 0f06 01       		.byte	0x1
 2677 0f07 5D01     		.2byte	0x15d
 2678 0f09 00000000 		.4byte	.LFB240
 2679 0f0d 2E000000 		.4byte	.LFE240-.LFB240
ARM GAS  /var/folders/m4/4md61f0s1_g0rzfghffqnxvr0000gn/T//ccXSh2M4.s 			page 48


 2680 0f11 01       		.uleb128 0x1
 2681 0f12 9C       		.byte	0x9c
 2682 0f13 780F0000 		.4byte	0xf78
 2683 0f17 40       		.uleb128 0x40
 2684 0f18 737000   		.ascii	"sp\000"
 2685 0f1b 01       		.byte	0x1
 2686 0f1c 5D01     		.2byte	0x15d
 2687 0f1e 13080000 		.4byte	0x813
 2688 0f22 1E040000 		.4byte	.LLST31
 2689 0f26 40       		.uleb128 0x40
 2690 0f27 6E00     		.ascii	"n\000"
 2691 0f29 01       		.byte	0x1
 2692 0f2a 5D01     		.2byte	0x15d
 2693 0f2c 1B010000 		.4byte	0x11b
 2694 0f30 4A040000 		.4byte	.LLST32
 2695 0f34 23       		.uleb128 0x23
 2696 0f35 12040000 		.4byte	.LASF112
 2697 0f39 880F0000 		.4byte	0xf88
 2698 0f3d 41       		.uleb128 0x41
 2699 0f3e 79080000 		.4byte	0x879
 2700 0f42 1A000000 		.4byte	.LBB196
 2701 0f46 08000000 		.4byte	.LBE196-.LBB196
 2702 0f4a 01       		.byte	0x1
 2703 0f4b 6701     		.2byte	0x167
 2704 0f4d 6E0F0000 		.4byte	0xf6e
 2705 0f51 29       		.uleb128 0x29
 2706 0f52 8A080000 		.4byte	0x88a
 2707 0f56 82040000 		.4byte	.LLST33
 2708 0f5a 2A       		.uleb128 0x2a
 2709 0f5b 1A000000 		.4byte	.LBB197
 2710 0f5f 08000000 		.4byte	.LBE197-.LBB197
 2711 0f63 2B       		.uleb128 0x2b
 2712 0f64 96080000 		.4byte	0x896
 2713 0f68 95040000 		.4byte	.LLST34
 2714 0f6c 00       		.byte	0
 2715 0f6d 00       		.byte	0
 2716 0f6e 2C       		.uleb128 0x2c
 2717 0f6f 26000000 		.4byte	.LVL51
 2718 0f73 1D110000 		.4byte	0x111d
 2719 0f77 00       		.byte	0
 2720 0f78 15       		.uleb128 0x15
 2721 0f79 D5060000 		.4byte	0x6d5
 2722 0f7d 880F0000 		.4byte	0xf88
 2723 0f81 16       		.uleb128 0x16
 2724 0f82 5F040000 		.4byte	0x45f
 2725 0f86 10       		.byte	0x10
 2726 0f87 00       		.byte	0
 2727 0f88 13       		.uleb128 0x13
 2728 0f89 780F0000 		.4byte	0xf78
 2729 0f8d 44       		.uleb128 0x44
 2730 0f8e 25010000 		.4byte	.LASF127
 2731 0f92 01       		.byte	0x1
 2732 0f93 7A01     		.2byte	0x17a
 2733 0f95 05010000 		.4byte	0x105
 2734 0f99 00000000 		.4byte	.LFB241
 2735 0f9d 6C000000 		.4byte	.LFE241-.LFB241
 2736 0fa1 01       		.uleb128 0x1
ARM GAS  /var/folders/m4/4md61f0s1_g0rzfghffqnxvr0000gn/T//ccXSh2M4.s 			page 49


 2737 0fa2 9C       		.byte	0x9c
 2738 0fa3 FC100000 		.4byte	0x10fc
 2739 0fa7 40       		.uleb128 0x40
 2740 0fa8 73707300 		.ascii	"sps\000"
 2741 0fac 01       		.byte	0x1
 2742 0fad 7A01     		.2byte	0x17a
 2743 0faf 13080000 		.4byte	0x813
 2744 0fb3 A8040000 		.4byte	.LLST35
 2745 0fb7 40       		.uleb128 0x40
 2746 0fb8 73707700 		.ascii	"spw\000"
 2747 0fbc 01       		.byte	0x1
 2748 0fbd 7A01     		.2byte	0x17a
 2749 0fbf 13080000 		.4byte	0x813
 2750 0fc3 ED040000 		.4byte	.LLST36
 2751 0fc7 45       		.uleb128 0x45
 2752 0fc8 6D736700 		.ascii	"msg\000"
 2753 0fcc 01       		.byte	0x1
 2754 0fcd 7B01     		.2byte	0x17b
 2755 0fcf 05010000 		.4byte	0x105
 2756 0fd3 25050000 		.4byte	.LLST37
 2757 0fd7 23       		.uleb128 0x23
 2758 0fd8 12040000 		.4byte	.LASF112
 2759 0fdc FC100000 		.4byte	0x10fc
 2760 0fe0 41       		.uleb128 0x41
 2761 0fe1 8D070000 		.4byte	0x78d
 2762 0fe5 06000000 		.4byte	.LBB198
 2763 0fe9 06000000 		.4byte	.LBE198-.LBB198
 2764 0fed 01       		.byte	0x1
 2765 0fee 8501     		.2byte	0x185
 2766 0ff0 1D100000 		.4byte	0x101d
 2767 0ff4 2D       		.uleb128 0x2d
 2768 0ff5 32070000 		.4byte	0x732
 2769 0ff9 06000000 		.4byte	.LBB199
 2770 0ffd 06000000 		.4byte	.LBE199-.LBB199
 2771 1001 0D       		.byte	0xd
 2772 1002 5C01     		.2byte	0x15c
 2773 1004 2D       		.uleb128 0x2d
 2774 1005 18070000 		.4byte	0x718
 2775 1009 06000000 		.4byte	.LBB200
 2776 100d 06000000 		.4byte	.LBE200-.LBB200
 2777 1011 09       		.byte	0x9
 2778 1012 D001     		.2byte	0x1d0
 2779 1014 2E       		.uleb128 0x2e
 2780 1015 25070000 		.4byte	0x725
 2781 1019 20       		.byte	0x20
 2782 101a 00       		.byte	0
 2783 101b 00       		.byte	0
 2784 101c 00       		.byte	0
 2785 101d 3B       		.uleb128 0x3b
 2786 101e 96070000 		.4byte	0x796
 2787 1022 26000000 		.4byte	.LBB202
 2788 1026 D8000000 		.4byte	.Ldebug_ranges0+0xd8
 2789 102a 01       		.byte	0x1
 2790 102b 9401     		.2byte	0x194
 2791 102d 68100000 		.4byte	0x1068
 2792 1031 35       		.uleb128 0x35
 2793 1032 D8000000 		.4byte	.Ldebug_ranges0+0xd8
ARM GAS  /var/folders/m4/4md61f0s1_g0rzfghffqnxvr0000gn/T//ccXSh2M4.s 			page 50


 2794 1036 2F       		.uleb128 0x2f
 2795 1037 A3070000 		.4byte	0x7a3
 2796 103b 38       		.uleb128 0x38
 2797 103c 3B070000 		.4byte	0x73b
 2798 1040 26000000 		.4byte	.LBB204
 2799 1044 D8000000 		.4byte	.Ldebug_ranges0+0xd8
 2800 1048 0D       		.byte	0xd
 2801 1049 7301     		.2byte	0x173
 2802 104b 38       		.uleb128 0x38
 2803 104c 18070000 		.4byte	0x718
 2804 1050 26000000 		.4byte	.LBB205
 2805 1054 D8000000 		.4byte	.Ldebug_ranges0+0xd8
 2806 1058 09       		.byte	0x9
 2807 1059 E301     		.2byte	0x1e3
 2808 105b 29       		.uleb128 0x29
 2809 105c 25070000 		.4byte	0x725
 2810 1060 4F050000 		.4byte	.LLST38
 2811 1064 00       		.byte	0
 2812 1065 00       		.byte	0
 2813 1066 00       		.byte	0
 2814 1067 00       		.byte	0
 2815 1068 46       		.uleb128 0x46
 2816 1069 30000000 		.4byte	.LBB211
 2817 106d 18000000 		.4byte	.LBE211-.LBB211
 2818 1071 BC100000 		.4byte	0x10bc
 2819 1075 45       		.uleb128 0x45
 2820 1076 63747000 		.ascii	"ctp\000"
 2821 107a 01       		.byte	0x1
 2822 107b 8A01     		.2byte	0x18a
 2823 107d 4C020000 		.4byte	0x24c
 2824 1081 6F050000 		.4byte	.LLST39
 2825 1085 3B       		.uleb128 0x3b
 2826 1086 C6070000 		.4byte	0x7c6
 2827 108a 32000000 		.4byte	.LBB212
 2828 108e F0000000 		.4byte	.Ldebug_ranges0+0xf0
 2829 1092 01       		.byte	0x1
 2830 1093 8B01     		.2byte	0x18b
 2831 1095 AC100000 		.4byte	0x10ac
 2832 1099 29       		.uleb128 0x29
 2833 109a DE070000 		.4byte	0x7de
 2834 109e 82050000 		.4byte	.LLST40
 2835 10a2 29       		.uleb128 0x29
 2836 10a3 D3070000 		.4byte	0x7d3
 2837 10a7 6F050000 		.4byte	.LLST39
 2838 10ab 00       		.byte	0
 2839 10ac 36       		.uleb128 0x36
 2840 10ad 46000000 		.4byte	.LVL61
 2841 10b1 3B110000 		.4byte	0x113b
 2842 10b5 31       		.uleb128 0x31
 2843 10b6 01       		.uleb128 0x1
 2844 10b7 50       		.byte	0x50
 2845 10b8 01       		.uleb128 0x1
 2846 10b9 35       		.byte	0x35
 2847 10ba 00       		.byte	0
 2848 10bb 00       		.byte	0
 2849 10bc 41       		.uleb128 0x41
 2850 10bd 79080000 		.4byte	0x879
ARM GAS  /var/folders/m4/4md61f0s1_g0rzfghffqnxvr0000gn/T//ccXSh2M4.s 			page 51


 2851 10c1 52000000 		.4byte	.LBB217
 2852 10c5 0A000000 		.4byte	.LBE217-.LBB217
 2853 10c9 01       		.byte	0x1
 2854 10ca 8701     		.2byte	0x187
 2855 10cc E9100000 		.4byte	0x10e9
 2856 10d0 3A       		.uleb128 0x3a
 2857 10d1 8A080000 		.4byte	0x88a
 2858 10d5 2A       		.uleb128 0x2a
 2859 10d6 52000000 		.4byte	.LBB218
 2860 10da 0A000000 		.4byte	.LBE218-.LBB218
 2861 10de 2B       		.uleb128 0x2b
 2862 10df 96080000 		.4byte	0x896
 2863 10e3 95050000 		.4byte	.LLST42
 2864 10e7 00       		.byte	0
 2865 10e8 00       		.byte	0
 2866 10e9 2C       		.uleb128 0x2c
 2867 10ea 24000000 		.4byte	.LVL57
 2868 10ee 33110000 		.4byte	0x1133
 2869 10f2 2C       		.uleb128 0x2c
 2870 10f3 60000000 		.4byte	.LVL66
 2871 10f7 1D110000 		.4byte	0x111d
 2872 10fb 00       		.byte	0
 2873 10fc 13       		.uleb128 0x13
 2874 10fd EF080000 		.4byte	0x8ef
 2875 1101 47       		.uleb128 0x47
 2876 1102 E6000000 		.4byte	.LASF128
 2877 1106 0E       		.byte	0xe
 2878 1107 FA06     		.2byte	0x6fa
 2879 1109 0D110000 		.4byte	0x110d
 2880 110d 14       		.uleb128 0x14
 2881 110e A2000000 		.4byte	0xa2
 2882 1112 48       		.uleb128 0x48
 2883 1113 636800   		.ascii	"ch\000"
 2884 1116 02       		.byte	0x2
 2885 1117 0902     		.2byte	0x209
 2886 1119 F8030000 		.4byte	0x3f8
 2887 111d 49       		.uleb128 0x49
 2888 111e 81040000 		.4byte	.LASF129
 2889 1122 02       		.byte	0x2
 2890 1123 1302     		.2byte	0x213
 2891 1125 4C020000 		.4byte	0x24c
 2892 1129 33110000 		.4byte	0x1133
 2893 112d 0C       		.uleb128 0xc
 2894 112e 4C020000 		.4byte	0x24c
 2895 1132 00       		.byte	0
 2896 1133 4A       		.uleb128 0x4a
 2897 1134 A5010000 		.4byte	.LASF134
 2898 1138 02       		.byte	0x2
 2899 1139 1702     		.2byte	0x217
 2900 113b 4B       		.uleb128 0x4b
 2901 113c 50040000 		.4byte	.LASF135
 2902 1140 02       		.byte	0x2
 2903 1141 1402     		.2byte	0x214
 2904 1143 4D110000 		.4byte	0x114d
 2905 1147 0C       		.uleb128 0xc
 2906 1148 D9000000 		.4byte	0xd9
 2907 114c 00       		.byte	0
ARM GAS  /var/folders/m4/4md61f0s1_g0rzfghffqnxvr0000gn/T//ccXSh2M4.s 			page 52


 2908 114d 49       		.uleb128 0x49
 2909 114e C1060000 		.4byte	.LASF130
 2910 1152 02       		.byte	0x2
 2911 1153 1502     		.2byte	0x215
 2912 1155 05010000 		.4byte	0x105
 2913 1159 68110000 		.4byte	0x1168
 2914 115d 0C       		.uleb128 0xc
 2915 115e D9000000 		.4byte	0xd9
 2916 1162 0C       		.uleb128 0xc
 2917 1163 26010000 		.4byte	0x126
 2918 1167 00       		.byte	0
 2919 1168 4C       		.uleb128 0x4c
 2920 1169 78020000 		.4byte	.LASF136
 2921 116d 02       		.byte	0x2
 2922 116e 1602     		.2byte	0x216
 2923 1170 0C       		.uleb128 0xc
 2924 1171 4C020000 		.4byte	0x24c
 2925 1175 0C       		.uleb128 0xc
 2926 1176 05010000 		.4byte	0x105
 2927 117a 00       		.byte	0
 2928 117b 00       		.byte	0
 2929              		.section	.debug_abbrev,"",%progbits
 2930              	.Ldebug_abbrev0:
 2931 0000 01       		.uleb128 0x1
 2932 0001 11       		.uleb128 0x11
 2933 0002 01       		.byte	0x1
 2934 0003 25       		.uleb128 0x25
 2935 0004 0E       		.uleb128 0xe
 2936 0005 13       		.uleb128 0x13
 2937 0006 0B       		.uleb128 0xb
 2938 0007 03       		.uleb128 0x3
 2939 0008 0E       		.uleb128 0xe
 2940 0009 1B       		.uleb128 0x1b
 2941 000a 0E       		.uleb128 0xe
 2942 000b 55       		.uleb128 0x55
 2943 000c 17       		.uleb128 0x17
 2944 000d 11       		.uleb128 0x11
 2945 000e 01       		.uleb128 0x1
 2946 000f 10       		.uleb128 0x10
 2947 0010 17       		.uleb128 0x17
 2948 0011 00       		.byte	0
 2949 0012 00       		.byte	0
 2950 0013 02       		.uleb128 0x2
 2951 0014 24       		.uleb128 0x24
 2952 0015 00       		.byte	0
 2953 0016 0B       		.uleb128 0xb
 2954 0017 0B       		.uleb128 0xb
 2955 0018 3E       		.uleb128 0x3e
 2956 0019 0B       		.uleb128 0xb
 2957 001a 03       		.uleb128 0x3
 2958 001b 08       		.uleb128 0x8
 2959 001c 00       		.byte	0
 2960 001d 00       		.byte	0
 2961 001e 03       		.uleb128 0x3
 2962 001f 24       		.uleb128 0x24
 2963 0020 00       		.byte	0
 2964 0021 0B       		.uleb128 0xb
ARM GAS  /var/folders/m4/4md61f0s1_g0rzfghffqnxvr0000gn/T//ccXSh2M4.s 			page 53


 2965 0022 0B       		.uleb128 0xb
 2966 0023 3E       		.uleb128 0x3e
 2967 0024 0B       		.uleb128 0xb
 2968 0025 03       		.uleb128 0x3
 2969 0026 0E       		.uleb128 0xe
 2970 0027 00       		.byte	0
 2971 0028 00       		.byte	0
 2972 0029 04       		.uleb128 0x4
 2973 002a 16       		.uleb128 0x16
 2974 002b 00       		.byte	0
 2975 002c 03       		.uleb128 0x3
 2976 002d 0E       		.uleb128 0xe
 2977 002e 3A       		.uleb128 0x3a
 2978 002f 0B       		.uleb128 0xb
 2979 0030 3B       		.uleb128 0x3b
 2980 0031 0B       		.uleb128 0xb
 2981 0032 49       		.uleb128 0x49
 2982 0033 13       		.uleb128 0x13
 2983 0034 00       		.byte	0
 2984 0035 00       		.byte	0
 2985 0036 05       		.uleb128 0x5
 2986 0037 13       		.uleb128 0x13
 2987 0038 01       		.byte	0x1
 2988 0039 03       		.uleb128 0x3
 2989 003a 0E       		.uleb128 0xe
 2990 003b 0B       		.uleb128 0xb
 2991 003c 0B       		.uleb128 0xb
 2992 003d 3A       		.uleb128 0x3a
 2993 003e 0B       		.uleb128 0xb
 2994 003f 3B       		.uleb128 0x3b
 2995 0040 0B       		.uleb128 0xb
 2996 0041 01       		.uleb128 0x1
 2997 0042 13       		.uleb128 0x13
 2998 0043 00       		.byte	0
 2999 0044 00       		.byte	0
 3000 0045 06       		.uleb128 0x6
 3001 0046 0D       		.uleb128 0xd
 3002 0047 00       		.byte	0
 3003 0048 03       		.uleb128 0x3
 3004 0049 0E       		.uleb128 0xe
 3005 004a 3A       		.uleb128 0x3a
 3006 004b 0B       		.uleb128 0xb
 3007 004c 3B       		.uleb128 0x3b
 3008 004d 0B       		.uleb128 0xb
 3009 004e 49       		.uleb128 0x49
 3010 004f 13       		.uleb128 0x13
 3011 0050 38       		.uleb128 0x38
 3012 0051 0B       		.uleb128 0xb
 3013 0052 00       		.byte	0
 3014 0053 00       		.byte	0
 3015 0054 07       		.uleb128 0x7
 3016 0055 0D       		.uleb128 0xd
 3017 0056 00       		.byte	0
 3018 0057 03       		.uleb128 0x3
 3019 0058 08       		.uleb128 0x8
 3020 0059 3A       		.uleb128 0x3a
 3021 005a 0B       		.uleb128 0xb
ARM GAS  /var/folders/m4/4md61f0s1_g0rzfghffqnxvr0000gn/T//ccXSh2M4.s 			page 54


 3022 005b 3B       		.uleb128 0x3b
 3023 005c 05       		.uleb128 0x5
 3024 005d 49       		.uleb128 0x49
 3025 005e 13       		.uleb128 0x13
 3026 005f 38       		.uleb128 0x38
 3027 0060 0B       		.uleb128 0xb
 3028 0061 00       		.byte	0
 3029 0062 00       		.byte	0
 3030 0063 08       		.uleb128 0x8
 3031 0064 0D       		.uleb128 0xd
 3032 0065 00       		.byte	0
 3033 0066 03       		.uleb128 0x3
 3034 0067 0E       		.uleb128 0xe
 3035 0068 3A       		.uleb128 0x3a
 3036 0069 0B       		.uleb128 0xb
 3037 006a 3B       		.uleb128 0x3b
 3038 006b 05       		.uleb128 0x5
 3039 006c 49       		.uleb128 0x49
 3040 006d 13       		.uleb128 0x13
 3041 006e 38       		.uleb128 0x38
 3042 006f 0B       		.uleb128 0xb
 3043 0070 00       		.byte	0
 3044 0071 00       		.byte	0
 3045 0072 09       		.uleb128 0x9
 3046 0073 0F       		.uleb128 0xf
 3047 0074 00       		.byte	0
 3048 0075 0B       		.uleb128 0xb
 3049 0076 0B       		.uleb128 0xb
 3050 0077 49       		.uleb128 0x49
 3051 0078 13       		.uleb128 0x13
 3052 0079 00       		.byte	0
 3053 007a 00       		.byte	0
 3054 007b 0A       		.uleb128 0xa
 3055 007c 13       		.uleb128 0x13
 3056 007d 01       		.byte	0x1
 3057 007e 03       		.uleb128 0x3
 3058 007f 0E       		.uleb128 0xe
 3059 0080 0B       		.uleb128 0xb
 3060 0081 0B       		.uleb128 0xb
 3061 0082 3A       		.uleb128 0x3a
 3062 0083 0B       		.uleb128 0xb
 3063 0084 3B       		.uleb128 0x3b
 3064 0085 05       		.uleb128 0x5
 3065 0086 01       		.uleb128 0x1
 3066 0087 13       		.uleb128 0x13
 3067 0088 00       		.byte	0
 3068 0089 00       		.byte	0
 3069 008a 0B       		.uleb128 0xb
 3070 008b 15       		.uleb128 0x15
 3071 008c 01       		.byte	0x1
 3072 008d 27       		.uleb128 0x27
 3073 008e 19       		.uleb128 0x19
 3074 008f 01       		.uleb128 0x1
 3075 0090 13       		.uleb128 0x13
 3076 0091 00       		.byte	0
 3077 0092 00       		.byte	0
 3078 0093 0C       		.uleb128 0xc
ARM GAS  /var/folders/m4/4md61f0s1_g0rzfghffqnxvr0000gn/T//ccXSh2M4.s 			page 55


 3079 0094 05       		.uleb128 0x5
 3080 0095 00       		.byte	0
 3081 0096 49       		.uleb128 0x49
 3082 0097 13       		.uleb128 0x13
 3083 0098 00       		.byte	0
 3084 0099 00       		.byte	0
 3085 009a 0D       		.uleb128 0xd
 3086 009b 0F       		.uleb128 0xf
 3087 009c 00       		.byte	0
 3088 009d 0B       		.uleb128 0xb
 3089 009e 0B       		.uleb128 0xb
 3090 009f 00       		.byte	0
 3091 00a0 00       		.byte	0
 3092 00a1 0E       		.uleb128 0xe
 3093 00a2 13       		.uleb128 0x13
 3094 00a3 01       		.byte	0x1
 3095 00a4 03       		.uleb128 0x3
 3096 00a5 0E       		.uleb128 0xe
 3097 00a6 0B       		.uleb128 0xb
 3098 00a7 05       		.uleb128 0x5
 3099 00a8 3A       		.uleb128 0x3a
 3100 00a9 0B       		.uleb128 0xb
 3101 00aa 3B       		.uleb128 0x3b
 3102 00ab 05       		.uleb128 0x5
 3103 00ac 01       		.uleb128 0x1
 3104 00ad 13       		.uleb128 0x13
 3105 00ae 00       		.byte	0
 3106 00af 00       		.byte	0
 3107 00b0 0F       		.uleb128 0xf
 3108 00b1 0D       		.uleb128 0xd
 3109 00b2 00       		.byte	0
 3110 00b3 03       		.uleb128 0x3
 3111 00b4 08       		.uleb128 0x8
 3112 00b5 3A       		.uleb128 0x3a
 3113 00b6 0B       		.uleb128 0xb
 3114 00b7 3B       		.uleb128 0x3b
 3115 00b8 0B       		.uleb128 0xb
 3116 00b9 49       		.uleb128 0x49
 3117 00ba 13       		.uleb128 0x13
 3118 00bb 38       		.uleb128 0x38
 3119 00bc 0B       		.uleb128 0xb
 3120 00bd 00       		.byte	0
 3121 00be 00       		.byte	0
 3122 00bf 10       		.uleb128 0x10
 3123 00c0 13       		.uleb128 0x13
 3124 00c1 01       		.byte	0x1
 3125 00c2 0B       		.uleb128 0xb
 3126 00c3 0B       		.uleb128 0xb
 3127 00c4 3A       		.uleb128 0x3a
 3128 00c5 0B       		.uleb128 0xb
 3129 00c6 3B       		.uleb128 0x3b
 3130 00c7 0B       		.uleb128 0xb
 3131 00c8 01       		.uleb128 0x1
 3132 00c9 13       		.uleb128 0x13
 3133 00ca 00       		.byte	0
 3134 00cb 00       		.byte	0
 3135 00cc 11       		.uleb128 0x11
ARM GAS  /var/folders/m4/4md61f0s1_g0rzfghffqnxvr0000gn/T//ccXSh2M4.s 			page 56


 3136 00cd 17       		.uleb128 0x17
 3137 00ce 01       		.byte	0x1
 3138 00cf 0B       		.uleb128 0xb
 3139 00d0 0B       		.uleb128 0xb
 3140 00d1 3A       		.uleb128 0x3a
 3141 00d2 0B       		.uleb128 0xb
 3142 00d3 3B       		.uleb128 0x3b
 3143 00d4 0B       		.uleb128 0xb
 3144 00d5 01       		.uleb128 0x1
 3145 00d6 13       		.uleb128 0x13
 3146 00d7 00       		.byte	0
 3147 00d8 00       		.byte	0
 3148 00d9 12       		.uleb128 0x12
 3149 00da 0D       		.uleb128 0xd
 3150 00db 00       		.byte	0
 3151 00dc 03       		.uleb128 0x3
 3152 00dd 0E       		.uleb128 0xe
 3153 00de 3A       		.uleb128 0x3a
 3154 00df 0B       		.uleb128 0xb
 3155 00e0 3B       		.uleb128 0x3b
 3156 00e1 05       		.uleb128 0x5
 3157 00e2 49       		.uleb128 0x49
 3158 00e3 13       		.uleb128 0x13
 3159 00e4 00       		.byte	0
 3160 00e5 00       		.byte	0
 3161 00e6 13       		.uleb128 0x13
 3162 00e7 26       		.uleb128 0x26
 3163 00e8 00       		.byte	0
 3164 00e9 49       		.uleb128 0x49
 3165 00ea 13       		.uleb128 0x13
 3166 00eb 00       		.byte	0
 3167 00ec 00       		.byte	0
 3168 00ed 14       		.uleb128 0x14
 3169 00ee 35       		.uleb128 0x35
 3170 00ef 00       		.byte	0
 3171 00f0 49       		.uleb128 0x49
 3172 00f1 13       		.uleb128 0x13
 3173 00f2 00       		.byte	0
 3174 00f3 00       		.byte	0
 3175 00f4 15       		.uleb128 0x15
 3176 00f5 01       		.uleb128 0x1
 3177 00f6 01       		.byte	0x1
 3178 00f7 49       		.uleb128 0x49
 3179 00f8 13       		.uleb128 0x13
 3180 00f9 01       		.uleb128 0x1
 3181 00fa 13       		.uleb128 0x13
 3182 00fb 00       		.byte	0
 3183 00fc 00       		.byte	0
 3184 00fd 16       		.uleb128 0x16
 3185 00fe 21       		.uleb128 0x21
 3186 00ff 00       		.byte	0
 3187 0100 49       		.uleb128 0x49
 3188 0101 13       		.uleb128 0x13
 3189 0102 2F       		.uleb128 0x2f
 3190 0103 0B       		.uleb128 0xb
 3191 0104 00       		.byte	0
 3192 0105 00       		.byte	0
ARM GAS  /var/folders/m4/4md61f0s1_g0rzfghffqnxvr0000gn/T//ccXSh2M4.s 			page 57


 3193 0106 17       		.uleb128 0x17
 3194 0107 2E       		.uleb128 0x2e
 3195 0108 01       		.byte	0x1
 3196 0109 03       		.uleb128 0x3
 3197 010a 0E       		.uleb128 0xe
 3198 010b 3A       		.uleb128 0x3a
 3199 010c 0B       		.uleb128 0xb
 3200 010d 3B       		.uleb128 0x3b
 3201 010e 05       		.uleb128 0x5
 3202 010f 27       		.uleb128 0x27
 3203 0110 19       		.uleb128 0x19
 3204 0111 20       		.uleb128 0x20
 3205 0112 0B       		.uleb128 0xb
 3206 0113 01       		.uleb128 0x1
 3207 0114 13       		.uleb128 0x13
 3208 0115 00       		.byte	0
 3209 0116 00       		.byte	0
 3210 0117 18       		.uleb128 0x18
 3211 0118 05       		.uleb128 0x5
 3212 0119 00       		.byte	0
 3213 011a 03       		.uleb128 0x3
 3214 011b 0E       		.uleb128 0xe
 3215 011c 3A       		.uleb128 0x3a
 3216 011d 0B       		.uleb128 0xb
 3217 011e 3B       		.uleb128 0x3b
 3218 011f 05       		.uleb128 0x5
 3219 0120 49       		.uleb128 0x49
 3220 0121 13       		.uleb128 0x13
 3221 0122 00       		.byte	0
 3222 0123 00       		.byte	0
 3223 0124 19       		.uleb128 0x19
 3224 0125 2E       		.uleb128 0x2e
 3225 0126 00       		.byte	0
 3226 0127 03       		.uleb128 0x3
 3227 0128 0E       		.uleb128 0xe
 3228 0129 3A       		.uleb128 0x3a
 3229 012a 0B       		.uleb128 0xb
 3230 012b 3B       		.uleb128 0x3b
 3231 012c 05       		.uleb128 0x5
 3232 012d 27       		.uleb128 0x27
 3233 012e 19       		.uleb128 0x19
 3234 012f 20       		.uleb128 0x20
 3235 0130 0B       		.uleb128 0xb
 3236 0131 00       		.byte	0
 3237 0132 00       		.byte	0
 3238 0133 1A       		.uleb128 0x1a
 3239 0134 05       		.uleb128 0x5
 3240 0135 00       		.byte	0
 3241 0136 03       		.uleb128 0x3
 3242 0137 08       		.uleb128 0x8
 3243 0138 3A       		.uleb128 0x3a
 3244 0139 0B       		.uleb128 0xb
 3245 013a 3B       		.uleb128 0x3b
 3246 013b 05       		.uleb128 0x5
 3247 013c 49       		.uleb128 0x49
 3248 013d 13       		.uleb128 0x13
 3249 013e 00       		.byte	0
ARM GAS  /var/folders/m4/4md61f0s1_g0rzfghffqnxvr0000gn/T//ccXSh2M4.s 			page 58


 3250 013f 00       		.byte	0
 3251 0140 1B       		.uleb128 0x1b
 3252 0141 2E       		.uleb128 0x2e
 3253 0142 01       		.byte	0x1
 3254 0143 03       		.uleb128 0x3
 3255 0144 0E       		.uleb128 0xe
 3256 0145 3A       		.uleb128 0x3a
 3257 0146 0B       		.uleb128 0xb
 3258 0147 3B       		.uleb128 0x3b
 3259 0148 05       		.uleb128 0x5
 3260 0149 27       		.uleb128 0x27
 3261 014a 19       		.uleb128 0x19
 3262 014b 49       		.uleb128 0x49
 3263 014c 13       		.uleb128 0x13
 3264 014d 20       		.uleb128 0x20
 3265 014e 0B       		.uleb128 0xb
 3266 014f 01       		.uleb128 0x1
 3267 0150 13       		.uleb128 0x13
 3268 0151 00       		.byte	0
 3269 0152 00       		.byte	0
 3270 0153 1C       		.uleb128 0x1c
 3271 0154 34       		.uleb128 0x34
 3272 0155 00       		.byte	0
 3273 0156 03       		.uleb128 0x3
 3274 0157 08       		.uleb128 0x8
 3275 0158 3A       		.uleb128 0x3a
 3276 0159 0B       		.uleb128 0xb
 3277 015a 3B       		.uleb128 0x3b
 3278 015b 05       		.uleb128 0x5
 3279 015c 49       		.uleb128 0x49
 3280 015d 13       		.uleb128 0x13
 3281 015e 00       		.byte	0
 3282 015f 00       		.byte	0
 3283 0160 1D       		.uleb128 0x1d
 3284 0161 34       		.uleb128 0x34
 3285 0162 00       		.byte	0
 3286 0163 03       		.uleb128 0x3
 3287 0164 0E       		.uleb128 0xe
 3288 0165 49       		.uleb128 0x49
 3289 0166 13       		.uleb128 0x13
 3290 0167 34       		.uleb128 0x34
 3291 0168 19       		.uleb128 0x19
 3292 0169 1C       		.uleb128 0x1c
 3293 016a 0E       		.uleb128 0xe
 3294 016b 00       		.byte	0
 3295 016c 00       		.byte	0
 3296 016d 1E       		.uleb128 0x1e
 3297 016e 2E       		.uleb128 0x2e
 3298 016f 01       		.byte	0x1
 3299 0170 3F       		.uleb128 0x3f
 3300 0171 19       		.uleb128 0x19
 3301 0172 03       		.uleb128 0x3
 3302 0173 0E       		.uleb128 0xe
 3303 0174 3A       		.uleb128 0x3a
 3304 0175 0B       		.uleb128 0xb
 3305 0176 3B       		.uleb128 0x3b
 3306 0177 0B       		.uleb128 0xb
ARM GAS  /var/folders/m4/4md61f0s1_g0rzfghffqnxvr0000gn/T//ccXSh2M4.s 			page 59


 3307 0178 27       		.uleb128 0x27
 3308 0179 19       		.uleb128 0x19
 3309 017a 49       		.uleb128 0x49
 3310 017b 13       		.uleb128 0x13
 3311 017c 20       		.uleb128 0x20
 3312 017d 0B       		.uleb128 0xb
 3313 017e 01       		.uleb128 0x1
 3314 017f 13       		.uleb128 0x13
 3315 0180 00       		.byte	0
 3316 0181 00       		.byte	0
 3317 0182 1F       		.uleb128 0x1f
 3318 0183 05       		.uleb128 0x5
 3319 0184 00       		.byte	0
 3320 0185 03       		.uleb128 0x3
 3321 0186 08       		.uleb128 0x8
 3322 0187 3A       		.uleb128 0x3a
 3323 0188 0B       		.uleb128 0xb
 3324 0189 3B       		.uleb128 0x3b
 3325 018a 0B       		.uleb128 0xb
 3326 018b 49       		.uleb128 0x49
 3327 018c 13       		.uleb128 0x13
 3328 018d 00       		.byte	0
 3329 018e 00       		.byte	0
 3330 018f 20       		.uleb128 0x20
 3331 0190 2E       		.uleb128 0x2e
 3332 0191 01       		.byte	0x1
 3333 0192 3F       		.uleb128 0x3f
 3334 0193 19       		.uleb128 0x19
 3335 0194 03       		.uleb128 0x3
 3336 0195 0E       		.uleb128 0xe
 3337 0196 3A       		.uleb128 0x3a
 3338 0197 0B       		.uleb128 0xb
 3339 0198 3B       		.uleb128 0x3b
 3340 0199 05       		.uleb128 0x5
 3341 019a 27       		.uleb128 0x27
 3342 019b 19       		.uleb128 0x19
 3343 019c 49       		.uleb128 0x49
 3344 019d 13       		.uleb128 0x13
 3345 019e 20       		.uleb128 0x20
 3346 019f 0B       		.uleb128 0xb
 3347 01a0 01       		.uleb128 0x1
 3348 01a1 13       		.uleb128 0x13
 3349 01a2 00       		.byte	0
 3350 01a3 00       		.byte	0
 3351 01a4 21       		.uleb128 0x21
 3352 01a5 2E       		.uleb128 0x2e
 3353 01a6 01       		.byte	0x1
 3354 01a7 3F       		.uleb128 0x3f
 3355 01a8 19       		.uleb128 0x19
 3356 01a9 03       		.uleb128 0x3
 3357 01aa 0E       		.uleb128 0xe
 3358 01ab 3A       		.uleb128 0x3a
 3359 01ac 0B       		.uleb128 0xb
 3360 01ad 3B       		.uleb128 0x3b
 3361 01ae 0B       		.uleb128 0xb
 3362 01af 27       		.uleb128 0x27
 3363 01b0 19       		.uleb128 0x19
ARM GAS  /var/folders/m4/4md61f0s1_g0rzfghffqnxvr0000gn/T//ccXSh2M4.s 			page 60


 3364 01b1 11       		.uleb128 0x11
 3365 01b2 01       		.uleb128 0x1
 3366 01b3 12       		.uleb128 0x12
 3367 01b4 06       		.uleb128 0x6
 3368 01b5 40       		.uleb128 0x40
 3369 01b6 18       		.uleb128 0x18
 3370 01b7 9742     		.uleb128 0x2117
 3371 01b9 19       		.uleb128 0x19
 3372 01ba 01       		.uleb128 0x1
 3373 01bb 13       		.uleb128 0x13
 3374 01bc 00       		.byte	0
 3375 01bd 00       		.byte	0
 3376 01be 22       		.uleb128 0x22
 3377 01bf 05       		.uleb128 0x5
 3378 01c0 00       		.byte	0
 3379 01c1 03       		.uleb128 0x3
 3380 01c2 08       		.uleb128 0x8
 3381 01c3 3A       		.uleb128 0x3a
 3382 01c4 0B       		.uleb128 0xb
 3383 01c5 3B       		.uleb128 0x3b
 3384 01c6 0B       		.uleb128 0xb
 3385 01c7 49       		.uleb128 0x49
 3386 01c8 13       		.uleb128 0x13
 3387 01c9 02       		.uleb128 0x2
 3388 01ca 18       		.uleb128 0x18
 3389 01cb 00       		.byte	0
 3390 01cc 00       		.byte	0
 3391 01cd 23       		.uleb128 0x23
 3392 01ce 34       		.uleb128 0x34
 3393 01cf 00       		.byte	0
 3394 01d0 03       		.uleb128 0x3
 3395 01d1 0E       		.uleb128 0xe
 3396 01d2 49       		.uleb128 0x49
 3397 01d3 13       		.uleb128 0x13
 3398 01d4 34       		.uleb128 0x34
 3399 01d5 19       		.uleb128 0x19
 3400 01d6 00       		.byte	0
 3401 01d7 00       		.byte	0
 3402 01d8 24       		.uleb128 0x24
 3403 01d9 1D       		.uleb128 0x1d
 3404 01da 01       		.byte	0x1
 3405 01db 31       		.uleb128 0x31
 3406 01dc 13       		.uleb128 0x13
 3407 01dd 11       		.uleb128 0x11
 3408 01de 01       		.uleb128 0x1
 3409 01df 12       		.uleb128 0x12
 3410 01e0 06       		.uleb128 0x6
 3411 01e1 58       		.uleb128 0x58
 3412 01e2 0B       		.uleb128 0xb
 3413 01e3 59       		.uleb128 0x59
 3414 01e4 0B       		.uleb128 0xb
 3415 01e5 00       		.byte	0
 3416 01e6 00       		.byte	0
 3417 01e7 25       		.uleb128 0x25
 3418 01e8 05       		.uleb128 0x5
 3419 01e9 00       		.byte	0
 3420 01ea 31       		.uleb128 0x31
ARM GAS  /var/folders/m4/4md61f0s1_g0rzfghffqnxvr0000gn/T//ccXSh2M4.s 			page 61


 3421 01eb 13       		.uleb128 0x13
 3422 01ec 02       		.uleb128 0x2
 3423 01ed 18       		.uleb128 0x18
 3424 01ee 00       		.byte	0
 3425 01ef 00       		.byte	0
 3426 01f0 26       		.uleb128 0x26
 3427 01f1 05       		.uleb128 0x5
 3428 01f2 00       		.byte	0
 3429 01f3 03       		.uleb128 0x3
 3430 01f4 08       		.uleb128 0x8
 3431 01f5 3A       		.uleb128 0x3a
 3432 01f6 0B       		.uleb128 0xb
 3433 01f7 3B       		.uleb128 0x3b
 3434 01f8 0B       		.uleb128 0xb
 3435 01f9 49       		.uleb128 0x49
 3436 01fa 13       		.uleb128 0x13
 3437 01fb 02       		.uleb128 0x2
 3438 01fc 17       		.uleb128 0x17
 3439 01fd 00       		.byte	0
 3440 01fe 00       		.byte	0
 3441 01ff 27       		.uleb128 0x27
 3442 0200 34       		.uleb128 0x34
 3443 0201 00       		.byte	0
 3444 0202 03       		.uleb128 0x3
 3445 0203 08       		.uleb128 0x8
 3446 0204 3A       		.uleb128 0x3a
 3447 0205 0B       		.uleb128 0xb
 3448 0206 3B       		.uleb128 0x3b
 3449 0207 0B       		.uleb128 0xb
 3450 0208 49       		.uleb128 0x49
 3451 0209 13       		.uleb128 0x13
 3452 020a 02       		.uleb128 0x2
 3453 020b 17       		.uleb128 0x17
 3454 020c 00       		.byte	0
 3455 020d 00       		.byte	0
 3456 020e 28       		.uleb128 0x28
 3457 020f 1D       		.uleb128 0x1d
 3458 0210 01       		.byte	0x1
 3459 0211 31       		.uleb128 0x31
 3460 0212 13       		.uleb128 0x13
 3461 0213 11       		.uleb128 0x11
 3462 0214 01       		.uleb128 0x1
 3463 0215 12       		.uleb128 0x12
 3464 0216 06       		.uleb128 0x6
 3465 0217 58       		.uleb128 0x58
 3466 0218 0B       		.uleb128 0xb
 3467 0219 59       		.uleb128 0x59
 3468 021a 0B       		.uleb128 0xb
 3469 021b 01       		.uleb128 0x1
 3470 021c 13       		.uleb128 0x13
 3471 021d 00       		.byte	0
 3472 021e 00       		.byte	0
 3473 021f 29       		.uleb128 0x29
 3474 0220 05       		.uleb128 0x5
 3475 0221 00       		.byte	0
 3476 0222 31       		.uleb128 0x31
 3477 0223 13       		.uleb128 0x13
ARM GAS  /var/folders/m4/4md61f0s1_g0rzfghffqnxvr0000gn/T//ccXSh2M4.s 			page 62


 3478 0224 02       		.uleb128 0x2
 3479 0225 17       		.uleb128 0x17
 3480 0226 00       		.byte	0
 3481 0227 00       		.byte	0
 3482 0228 2A       		.uleb128 0x2a
 3483 0229 0B       		.uleb128 0xb
 3484 022a 01       		.byte	0x1
 3485 022b 11       		.uleb128 0x11
 3486 022c 01       		.uleb128 0x1
 3487 022d 12       		.uleb128 0x12
 3488 022e 06       		.uleb128 0x6
 3489 022f 00       		.byte	0
 3490 0230 00       		.byte	0
 3491 0231 2B       		.uleb128 0x2b
 3492 0232 34       		.uleb128 0x34
 3493 0233 00       		.byte	0
 3494 0234 31       		.uleb128 0x31
 3495 0235 13       		.uleb128 0x13
 3496 0236 02       		.uleb128 0x2
 3497 0237 17       		.uleb128 0x17
 3498 0238 00       		.byte	0
 3499 0239 00       		.byte	0
 3500 023a 2C       		.uleb128 0x2c
 3501 023b 898201   		.uleb128 0x4109
 3502 023e 00       		.byte	0
 3503 023f 11       		.uleb128 0x11
 3504 0240 01       		.uleb128 0x1
 3505 0241 31       		.uleb128 0x31
 3506 0242 13       		.uleb128 0x13
 3507 0243 00       		.byte	0
 3508 0244 00       		.byte	0
 3509 0245 2D       		.uleb128 0x2d
 3510 0246 1D       		.uleb128 0x1d
 3511 0247 01       		.byte	0x1
 3512 0248 31       		.uleb128 0x31
 3513 0249 13       		.uleb128 0x13
 3514 024a 11       		.uleb128 0x11
 3515 024b 01       		.uleb128 0x1
 3516 024c 12       		.uleb128 0x12
 3517 024d 06       		.uleb128 0x6
 3518 024e 58       		.uleb128 0x58
 3519 024f 0B       		.uleb128 0xb
 3520 0250 59       		.uleb128 0x59
 3521 0251 05       		.uleb128 0x5
 3522 0252 00       		.byte	0
 3523 0253 00       		.byte	0
 3524 0254 2E       		.uleb128 0x2e
 3525 0255 05       		.uleb128 0x5
 3526 0256 00       		.byte	0
 3527 0257 31       		.uleb128 0x31
 3528 0258 13       		.uleb128 0x13
 3529 0259 1C       		.uleb128 0x1c
 3530 025a 0B       		.uleb128 0xb
 3531 025b 00       		.byte	0
 3532 025c 00       		.byte	0
 3533 025d 2F       		.uleb128 0x2f
 3534 025e 34       		.uleb128 0x34
ARM GAS  /var/folders/m4/4md61f0s1_g0rzfghffqnxvr0000gn/T//ccXSh2M4.s 			page 63


 3535 025f 00       		.byte	0
 3536 0260 31       		.uleb128 0x31
 3537 0261 13       		.uleb128 0x13
 3538 0262 00       		.byte	0
 3539 0263 00       		.byte	0
 3540 0264 30       		.uleb128 0x30
 3541 0265 898201   		.uleb128 0x4109
 3542 0268 01       		.byte	0x1
 3543 0269 11       		.uleb128 0x11
 3544 026a 01       		.uleb128 0x1
 3545 026b 31       		.uleb128 0x31
 3546 026c 13       		.uleb128 0x13
 3547 026d 01       		.uleb128 0x1
 3548 026e 13       		.uleb128 0x13
 3549 026f 00       		.byte	0
 3550 0270 00       		.byte	0
 3551 0271 31       		.uleb128 0x31
 3552 0272 8A8201   		.uleb128 0x410a
 3553 0275 00       		.byte	0
 3554 0276 02       		.uleb128 0x2
 3555 0277 18       		.uleb128 0x18
 3556 0278 9142     		.uleb128 0x2111
 3557 027a 18       		.uleb128 0x18
 3558 027b 00       		.byte	0
 3559 027c 00       		.byte	0
 3560 027d 32       		.uleb128 0x32
 3561 027e 2E       		.uleb128 0x2e
 3562 027f 01       		.byte	0x1
 3563 0280 3F       		.uleb128 0x3f
 3564 0281 19       		.uleb128 0x19
 3565 0282 03       		.uleb128 0x3
 3566 0283 0E       		.uleb128 0xe
 3567 0284 3A       		.uleb128 0x3a
 3568 0285 0B       		.uleb128 0xb
 3569 0286 3B       		.uleb128 0x3b
 3570 0287 0B       		.uleb128 0xb
 3571 0288 27       		.uleb128 0x27
 3572 0289 19       		.uleb128 0x19
 3573 028a 49       		.uleb128 0x49
 3574 028b 13       		.uleb128 0x13
 3575 028c 11       		.uleb128 0x11
 3576 028d 01       		.uleb128 0x1
 3577 028e 12       		.uleb128 0x12
 3578 028f 06       		.uleb128 0x6
 3579 0290 40       		.uleb128 0x40
 3580 0291 18       		.uleb128 0x18
 3581 0292 9742     		.uleb128 0x2117
 3582 0294 19       		.uleb128 0x19
 3583 0295 01       		.uleb128 0x1
 3584 0296 13       		.uleb128 0x13
 3585 0297 00       		.byte	0
 3586 0298 00       		.byte	0
 3587 0299 33       		.uleb128 0x33
 3588 029a 34       		.uleb128 0x34
 3589 029b 00       		.byte	0
 3590 029c 03       		.uleb128 0x3
 3591 029d 08       		.uleb128 0x8
ARM GAS  /var/folders/m4/4md61f0s1_g0rzfghffqnxvr0000gn/T//ccXSh2M4.s 			page 64


 3592 029e 3A       		.uleb128 0x3a
 3593 029f 0B       		.uleb128 0xb
 3594 02a0 3B       		.uleb128 0x3b
 3595 02a1 0B       		.uleb128 0xb
 3596 02a2 49       		.uleb128 0x49
 3597 02a3 13       		.uleb128 0x13
 3598 02a4 00       		.byte	0
 3599 02a5 00       		.byte	0
 3600 02a6 34       		.uleb128 0x34
 3601 02a7 1D       		.uleb128 0x1d
 3602 02a8 01       		.byte	0x1
 3603 02a9 31       		.uleb128 0x31
 3604 02aa 13       		.uleb128 0x13
 3605 02ab 52       		.uleb128 0x52
 3606 02ac 01       		.uleb128 0x1
 3607 02ad 55       		.uleb128 0x55
 3608 02ae 17       		.uleb128 0x17
 3609 02af 58       		.uleb128 0x58
 3610 02b0 0B       		.uleb128 0xb
 3611 02b1 59       		.uleb128 0x59
 3612 02b2 0B       		.uleb128 0xb
 3613 02b3 01       		.uleb128 0x1
 3614 02b4 13       		.uleb128 0x13
 3615 02b5 00       		.byte	0
 3616 02b6 00       		.byte	0
 3617 02b7 35       		.uleb128 0x35
 3618 02b8 0B       		.uleb128 0xb
 3619 02b9 01       		.byte	0x1
 3620 02ba 55       		.uleb128 0x55
 3621 02bb 17       		.uleb128 0x17
 3622 02bc 00       		.byte	0
 3623 02bd 00       		.byte	0
 3624 02be 36       		.uleb128 0x36
 3625 02bf 898201   		.uleb128 0x4109
 3626 02c2 01       		.byte	0x1
 3627 02c3 11       		.uleb128 0x11
 3628 02c4 01       		.uleb128 0x1
 3629 02c5 31       		.uleb128 0x31
 3630 02c6 13       		.uleb128 0x13
 3631 02c7 00       		.byte	0
 3632 02c8 00       		.byte	0
 3633 02c9 37       		.uleb128 0x37
 3634 02ca 1D       		.uleb128 0x1d
 3635 02cb 01       		.byte	0x1
 3636 02cc 31       		.uleb128 0x31
 3637 02cd 13       		.uleb128 0x13
 3638 02ce 52       		.uleb128 0x52
 3639 02cf 01       		.uleb128 0x1
 3640 02d0 55       		.uleb128 0x55
 3641 02d1 17       		.uleb128 0x17
 3642 02d2 58       		.uleb128 0x58
 3643 02d3 0B       		.uleb128 0xb
 3644 02d4 59       		.uleb128 0x59
 3645 02d5 0B       		.uleb128 0xb
 3646 02d6 00       		.byte	0
 3647 02d7 00       		.byte	0
 3648 02d8 38       		.uleb128 0x38
ARM GAS  /var/folders/m4/4md61f0s1_g0rzfghffqnxvr0000gn/T//ccXSh2M4.s 			page 65


 3649 02d9 1D       		.uleb128 0x1d
 3650 02da 01       		.byte	0x1
 3651 02db 31       		.uleb128 0x31
 3652 02dc 13       		.uleb128 0x13
 3653 02dd 52       		.uleb128 0x52
 3654 02de 01       		.uleb128 0x1
 3655 02df 55       		.uleb128 0x55
 3656 02e0 17       		.uleb128 0x17
 3657 02e1 58       		.uleb128 0x58
 3658 02e2 0B       		.uleb128 0xb
 3659 02e3 59       		.uleb128 0x59
 3660 02e4 05       		.uleb128 0x5
 3661 02e5 00       		.byte	0
 3662 02e6 00       		.byte	0
 3663 02e7 39       		.uleb128 0x39
 3664 02e8 2E       		.uleb128 0x2e
 3665 02e9 01       		.byte	0x1
 3666 02ea 31       		.uleb128 0x31
 3667 02eb 13       		.uleb128 0x13
 3668 02ec 11       		.uleb128 0x11
 3669 02ed 01       		.uleb128 0x1
 3670 02ee 12       		.uleb128 0x12
 3671 02ef 06       		.uleb128 0x6
 3672 02f0 40       		.uleb128 0x40
 3673 02f1 18       		.uleb128 0x18
 3674 02f2 9742     		.uleb128 0x2117
 3675 02f4 19       		.uleb128 0x19
 3676 02f5 01       		.uleb128 0x1
 3677 02f6 13       		.uleb128 0x13
 3678 02f7 00       		.byte	0
 3679 02f8 00       		.byte	0
 3680 02f9 3A       		.uleb128 0x3a
 3681 02fa 05       		.uleb128 0x5
 3682 02fb 00       		.byte	0
 3683 02fc 31       		.uleb128 0x31
 3684 02fd 13       		.uleb128 0x13
 3685 02fe 00       		.byte	0
 3686 02ff 00       		.byte	0
 3687 0300 3B       		.uleb128 0x3b
 3688 0301 1D       		.uleb128 0x1d
 3689 0302 01       		.byte	0x1
 3690 0303 31       		.uleb128 0x31
 3691 0304 13       		.uleb128 0x13
 3692 0305 52       		.uleb128 0x52
 3693 0306 01       		.uleb128 0x1
 3694 0307 55       		.uleb128 0x55
 3695 0308 17       		.uleb128 0x17
 3696 0309 58       		.uleb128 0x58
 3697 030a 0B       		.uleb128 0xb
 3698 030b 59       		.uleb128 0x59
 3699 030c 05       		.uleb128 0x5
 3700 030d 01       		.uleb128 0x1
 3701 030e 13       		.uleb128 0x13
 3702 030f 00       		.byte	0
 3703 0310 00       		.byte	0
 3704 0311 3C       		.uleb128 0x3c
 3705 0312 898201   		.uleb128 0x4109
ARM GAS  /var/folders/m4/4md61f0s1_g0rzfghffqnxvr0000gn/T//ccXSh2M4.s 			page 66


 3706 0315 01       		.byte	0x1
 3707 0316 11       		.uleb128 0x11
 3708 0317 01       		.uleb128 0x1
 3709 0318 9542     		.uleb128 0x2115
 3710 031a 19       		.uleb128 0x19
 3711 031b 31       		.uleb128 0x31
 3712 031c 13       		.uleb128 0x13
 3713 031d 00       		.byte	0
 3714 031e 00       		.byte	0
 3715 031f 3D       		.uleb128 0x3d
 3716 0320 05       		.uleb128 0x5
 3717 0321 00       		.byte	0
 3718 0322 03       		.uleb128 0x3
 3719 0323 0E       		.uleb128 0xe
 3720 0324 3A       		.uleb128 0x3a
 3721 0325 0B       		.uleb128 0xb
 3722 0326 3B       		.uleb128 0x3b
 3723 0327 0B       		.uleb128 0xb
 3724 0328 49       		.uleb128 0x49
 3725 0329 13       		.uleb128 0x13
 3726 032a 02       		.uleb128 0x2
 3727 032b 17       		.uleb128 0x17
 3728 032c 00       		.byte	0
 3729 032d 00       		.byte	0
 3730 032e 3E       		.uleb128 0x3e
 3731 032f 34       		.uleb128 0x34
 3732 0330 00       		.byte	0
 3733 0331 03       		.uleb128 0x3
 3734 0332 08       		.uleb128 0x8
 3735 0333 3A       		.uleb128 0x3a
 3736 0334 0B       		.uleb128 0xb
 3737 0335 3B       		.uleb128 0x3b
 3738 0336 0B       		.uleb128 0xb
 3739 0337 49       		.uleb128 0x49
 3740 0338 13       		.uleb128 0x13
 3741 0339 02       		.uleb128 0x2
 3742 033a 18       		.uleb128 0x18
 3743 033b 00       		.byte	0
 3744 033c 00       		.byte	0
 3745 033d 3F       		.uleb128 0x3f
 3746 033e 2E       		.uleb128 0x2e
 3747 033f 01       		.byte	0x1
 3748 0340 3F       		.uleb128 0x3f
 3749 0341 19       		.uleb128 0x19
 3750 0342 03       		.uleb128 0x3
 3751 0343 0E       		.uleb128 0xe
 3752 0344 3A       		.uleb128 0x3a
 3753 0345 0B       		.uleb128 0xb
 3754 0346 3B       		.uleb128 0x3b
 3755 0347 05       		.uleb128 0x5
 3756 0348 27       		.uleb128 0x27
 3757 0349 19       		.uleb128 0x19
 3758 034a 11       		.uleb128 0x11
 3759 034b 01       		.uleb128 0x1
 3760 034c 12       		.uleb128 0x12
 3761 034d 06       		.uleb128 0x6
 3762 034e 40       		.uleb128 0x40
ARM GAS  /var/folders/m4/4md61f0s1_g0rzfghffqnxvr0000gn/T//ccXSh2M4.s 			page 67


 3763 034f 18       		.uleb128 0x18
 3764 0350 9742     		.uleb128 0x2117
 3765 0352 19       		.uleb128 0x19
 3766 0353 01       		.uleb128 0x1
 3767 0354 13       		.uleb128 0x13
 3768 0355 00       		.byte	0
 3769 0356 00       		.byte	0
 3770 0357 40       		.uleb128 0x40
 3771 0358 05       		.uleb128 0x5
 3772 0359 00       		.byte	0
 3773 035a 03       		.uleb128 0x3
 3774 035b 08       		.uleb128 0x8
 3775 035c 3A       		.uleb128 0x3a
 3776 035d 0B       		.uleb128 0xb
 3777 035e 3B       		.uleb128 0x3b
 3778 035f 05       		.uleb128 0x5
 3779 0360 49       		.uleb128 0x49
 3780 0361 13       		.uleb128 0x13
 3781 0362 02       		.uleb128 0x2
 3782 0363 17       		.uleb128 0x17
 3783 0364 00       		.byte	0
 3784 0365 00       		.byte	0
 3785 0366 41       		.uleb128 0x41
 3786 0367 1D       		.uleb128 0x1d
 3787 0368 01       		.byte	0x1
 3788 0369 31       		.uleb128 0x31
 3789 036a 13       		.uleb128 0x13
 3790 036b 11       		.uleb128 0x11
 3791 036c 01       		.uleb128 0x1
 3792 036d 12       		.uleb128 0x12
 3793 036e 06       		.uleb128 0x6
 3794 036f 58       		.uleb128 0x58
 3795 0370 0B       		.uleb128 0xb
 3796 0371 59       		.uleb128 0x59
 3797 0372 05       		.uleb128 0x5
 3798 0373 01       		.uleb128 0x1
 3799 0374 13       		.uleb128 0x13
 3800 0375 00       		.byte	0
 3801 0376 00       		.byte	0
 3802 0377 42       		.uleb128 0x42
 3803 0378 34       		.uleb128 0x34
 3804 0379 00       		.byte	0
 3805 037a 03       		.uleb128 0x3
 3806 037b 08       		.uleb128 0x8
 3807 037c 3A       		.uleb128 0x3a
 3808 037d 0B       		.uleb128 0xb
 3809 037e 3B       		.uleb128 0x3b
 3810 037f 05       		.uleb128 0x5
 3811 0380 49       		.uleb128 0x49
 3812 0381 13       		.uleb128 0x13
 3813 0382 02       		.uleb128 0x2
 3814 0383 18       		.uleb128 0x18
 3815 0384 00       		.byte	0
 3816 0385 00       		.byte	0
 3817 0386 43       		.uleb128 0x43
 3818 0387 898201   		.uleb128 0x4109
 3819 038a 00       		.byte	0
ARM GAS  /var/folders/m4/4md61f0s1_g0rzfghffqnxvr0000gn/T//ccXSh2M4.s 			page 68


 3820 038b 11       		.uleb128 0x11
 3821 038c 01       		.uleb128 0x1
 3822 038d 9542     		.uleb128 0x2115
 3823 038f 19       		.uleb128 0x19
 3824 0390 31       		.uleb128 0x31
 3825 0391 13       		.uleb128 0x13
 3826 0392 00       		.byte	0
 3827 0393 00       		.byte	0
 3828 0394 44       		.uleb128 0x44
 3829 0395 2E       		.uleb128 0x2e
 3830 0396 01       		.byte	0x1
 3831 0397 3F       		.uleb128 0x3f
 3832 0398 19       		.uleb128 0x19
 3833 0399 03       		.uleb128 0x3
 3834 039a 0E       		.uleb128 0xe
 3835 039b 3A       		.uleb128 0x3a
 3836 039c 0B       		.uleb128 0xb
 3837 039d 3B       		.uleb128 0x3b
 3838 039e 05       		.uleb128 0x5
 3839 039f 27       		.uleb128 0x27
 3840 03a0 19       		.uleb128 0x19
 3841 03a1 49       		.uleb128 0x49
 3842 03a2 13       		.uleb128 0x13
 3843 03a3 11       		.uleb128 0x11
 3844 03a4 01       		.uleb128 0x1
 3845 03a5 12       		.uleb128 0x12
 3846 03a6 06       		.uleb128 0x6
 3847 03a7 40       		.uleb128 0x40
 3848 03a8 18       		.uleb128 0x18
 3849 03a9 9742     		.uleb128 0x2117
 3850 03ab 19       		.uleb128 0x19
 3851 03ac 01       		.uleb128 0x1
 3852 03ad 13       		.uleb128 0x13
 3853 03ae 00       		.byte	0
 3854 03af 00       		.byte	0
 3855 03b0 45       		.uleb128 0x45
 3856 03b1 34       		.uleb128 0x34
 3857 03b2 00       		.byte	0
 3858 03b3 03       		.uleb128 0x3
 3859 03b4 08       		.uleb128 0x8
 3860 03b5 3A       		.uleb128 0x3a
 3861 03b6 0B       		.uleb128 0xb
 3862 03b7 3B       		.uleb128 0x3b
 3863 03b8 05       		.uleb128 0x5
 3864 03b9 49       		.uleb128 0x49
 3865 03ba 13       		.uleb128 0x13
 3866 03bb 02       		.uleb128 0x2
 3867 03bc 17       		.uleb128 0x17
 3868 03bd 00       		.byte	0
 3869 03be 00       		.byte	0
 3870 03bf 46       		.uleb128 0x46
 3871 03c0 0B       		.uleb128 0xb
 3872 03c1 01       		.byte	0x1
 3873 03c2 11       		.uleb128 0x11
 3874 03c3 01       		.uleb128 0x1
 3875 03c4 12       		.uleb128 0x12
 3876 03c5 06       		.uleb128 0x6
ARM GAS  /var/folders/m4/4md61f0s1_g0rzfghffqnxvr0000gn/T//ccXSh2M4.s 			page 69


 3877 03c6 01       		.uleb128 0x1
 3878 03c7 13       		.uleb128 0x13
 3879 03c8 00       		.byte	0
 3880 03c9 00       		.byte	0
 3881 03ca 47       		.uleb128 0x47
 3882 03cb 34       		.uleb128 0x34
 3883 03cc 00       		.byte	0
 3884 03cd 03       		.uleb128 0x3
 3885 03ce 0E       		.uleb128 0xe
 3886 03cf 3A       		.uleb128 0x3a
 3887 03d0 0B       		.uleb128 0xb
 3888 03d1 3B       		.uleb128 0x3b
 3889 03d2 05       		.uleb128 0x5
 3890 03d3 49       		.uleb128 0x49
 3891 03d4 13       		.uleb128 0x13
 3892 03d5 3F       		.uleb128 0x3f
 3893 03d6 19       		.uleb128 0x19
 3894 03d7 3C       		.uleb128 0x3c
 3895 03d8 19       		.uleb128 0x19
 3896 03d9 00       		.byte	0
 3897 03da 00       		.byte	0
 3898 03db 48       		.uleb128 0x48
 3899 03dc 34       		.uleb128 0x34
 3900 03dd 00       		.byte	0
 3901 03de 03       		.uleb128 0x3
 3902 03df 08       		.uleb128 0x8
 3903 03e0 3A       		.uleb128 0x3a
 3904 03e1 0B       		.uleb128 0xb
 3905 03e2 3B       		.uleb128 0x3b
 3906 03e3 05       		.uleb128 0x5
 3907 03e4 49       		.uleb128 0x49
 3908 03e5 13       		.uleb128 0x13
 3909 03e6 3F       		.uleb128 0x3f
 3910 03e7 19       		.uleb128 0x19
 3911 03e8 3C       		.uleb128 0x3c
 3912 03e9 19       		.uleb128 0x19
 3913 03ea 00       		.byte	0
 3914 03eb 00       		.byte	0
 3915 03ec 49       		.uleb128 0x49
 3916 03ed 2E       		.uleb128 0x2e
 3917 03ee 01       		.byte	0x1
 3918 03ef 3F       		.uleb128 0x3f
 3919 03f0 19       		.uleb128 0x19
 3920 03f1 03       		.uleb128 0x3
 3921 03f2 0E       		.uleb128 0xe
 3922 03f3 3A       		.uleb128 0x3a
 3923 03f4 0B       		.uleb128 0xb
 3924 03f5 3B       		.uleb128 0x3b
 3925 03f6 05       		.uleb128 0x5
 3926 03f7 27       		.uleb128 0x27
 3927 03f8 19       		.uleb128 0x19
 3928 03f9 49       		.uleb128 0x49
 3929 03fa 13       		.uleb128 0x13
 3930 03fb 3C       		.uleb128 0x3c
 3931 03fc 19       		.uleb128 0x19
 3932 03fd 01       		.uleb128 0x1
 3933 03fe 13       		.uleb128 0x13
ARM GAS  /var/folders/m4/4md61f0s1_g0rzfghffqnxvr0000gn/T//ccXSh2M4.s 			page 70


 3934 03ff 00       		.byte	0
 3935 0400 00       		.byte	0
 3936 0401 4A       		.uleb128 0x4a
 3937 0402 2E       		.uleb128 0x2e
 3938 0403 00       		.byte	0
 3939 0404 3F       		.uleb128 0x3f
 3940 0405 19       		.uleb128 0x19
 3941 0406 03       		.uleb128 0x3
 3942 0407 0E       		.uleb128 0xe
 3943 0408 3A       		.uleb128 0x3a
 3944 0409 0B       		.uleb128 0xb
 3945 040a 3B       		.uleb128 0x3b
 3946 040b 05       		.uleb128 0x5
 3947 040c 27       		.uleb128 0x27
 3948 040d 19       		.uleb128 0x19
 3949 040e 3C       		.uleb128 0x3c
 3950 040f 19       		.uleb128 0x19
 3951 0410 00       		.byte	0
 3952 0411 00       		.byte	0
 3953 0412 4B       		.uleb128 0x4b
 3954 0413 2E       		.uleb128 0x2e
 3955 0414 01       		.byte	0x1
 3956 0415 3F       		.uleb128 0x3f
 3957 0416 19       		.uleb128 0x19
 3958 0417 03       		.uleb128 0x3
 3959 0418 0E       		.uleb128 0xe
 3960 0419 3A       		.uleb128 0x3a
 3961 041a 0B       		.uleb128 0xb
 3962 041b 3B       		.uleb128 0x3b
 3963 041c 05       		.uleb128 0x5
 3964 041d 27       		.uleb128 0x27
 3965 041e 19       		.uleb128 0x19
 3966 041f 3C       		.uleb128 0x3c
 3967 0420 19       		.uleb128 0x19
 3968 0421 01       		.uleb128 0x1
 3969 0422 13       		.uleb128 0x13
 3970 0423 00       		.byte	0
 3971 0424 00       		.byte	0
 3972 0425 4C       		.uleb128 0x4c
 3973 0426 2E       		.uleb128 0x2e
 3974 0427 01       		.byte	0x1
 3975 0428 3F       		.uleb128 0x3f
 3976 0429 19       		.uleb128 0x19
 3977 042a 03       		.uleb128 0x3
 3978 042b 0E       		.uleb128 0xe
 3979 042c 3A       		.uleb128 0x3a
 3980 042d 0B       		.uleb128 0xb
 3981 042e 3B       		.uleb128 0x3b
 3982 042f 05       		.uleb128 0x5
 3983 0430 27       		.uleb128 0x27
 3984 0431 19       		.uleb128 0x19
 3985 0432 3C       		.uleb128 0x3c
 3986 0433 19       		.uleb128 0x19
 3987 0434 00       		.byte	0
 3988 0435 00       		.byte	0
 3989 0436 00       		.byte	0
 3990              		.section	.debug_loc,"",%progbits
ARM GAS  /var/folders/m4/4md61f0s1_g0rzfghffqnxvr0000gn/T//ccXSh2M4.s 			page 71


 3991              	.Ldebug_loc0:
 3992              	.LLST0:
 3993 0000 00000000 		.4byte	.LVL1
 3994 0004 12000000 		.4byte	.LVL4
 3995 0008 0100     		.2byte	0x1
 3996 000a 50       		.byte	0x50
 3997 000b 12000000 		.4byte	.LVL4
 3998 000f 26000000 		.4byte	.LVL9
 3999 0013 0100     		.2byte	0x1
 4000 0015 54       		.byte	0x54
 4001 0016 26000000 		.4byte	.LVL9
 4002 001a 28000000 		.4byte	.LFE233
 4003 001e 0400     		.2byte	0x4
 4004 0020 F3       		.byte	0xf3
 4005 0021 01       		.uleb128 0x1
 4006 0022 50       		.byte	0x50
 4007 0023 9F       		.byte	0x9f
 4008 0024 00000000 		.4byte	0
 4009 0028 00000000 		.4byte	0
 4010              	.LLST1:
 4011 002c 00000000 		.4byte	.LVL1
 4012 0030 12000000 		.4byte	.LVL4
 4013 0034 0100     		.2byte	0x1
 4014 0036 51       		.byte	0x51
 4015 0037 12000000 		.4byte	.LVL4
 4016 003b 28000000 		.4byte	.LFE233
 4017 003f 0400     		.2byte	0x4
 4018 0041 F3       		.byte	0xf3
 4019 0042 01       		.uleb128 0x1
 4020 0043 51       		.byte	0x51
 4021 0044 9F       		.byte	0x9f
 4022 0045 00000000 		.4byte	0
 4023 0049 00000000 		.4byte	0
 4024              	.LLST2:
 4025 004d 04000000 		.4byte	.LVL2
 4026 0051 20000000 		.4byte	.LVL7
 4027 0055 0100     		.2byte	0x1
 4028 0057 55       		.byte	0x55
 4029 0058 20000000 		.4byte	.LVL7
 4030 005c 24000000 		.4byte	.LVL8
 4031 0060 0300     		.2byte	0x3
 4032 0062 75       		.byte	0x75
 4033 0063 7F       		.sleb128 -1
 4034 0064 9F       		.byte	0x9f
 4035 0065 24000000 		.4byte	.LVL8
 4036 0069 28000000 		.4byte	.LFE233
 4037 006d 0100     		.2byte	0x1
 4038 006f 55       		.byte	0x55
 4039 0070 00000000 		.4byte	0
 4040 0074 00000000 		.4byte	0
 4041              	.LLST3:
 4042 0078 12000000 		.4byte	.LVL4
 4043 007c 26000000 		.4byte	.LVL9
 4044 0080 0100     		.2byte	0x1
 4045 0082 54       		.byte	0x54
 4046 0083 00000000 		.4byte	0
 4047 0087 00000000 		.4byte	0
ARM GAS  /var/folders/m4/4md61f0s1_g0rzfghffqnxvr0000gn/T//ccXSh2M4.s 			page 72


 4048              	.LLST4:
 4049 008b 14000000 		.4byte	.LVL5
 4050 008f 1D000000 		.4byte	.LVL6-1
 4051 0093 0100     		.2byte	0x1
 4052 0095 50       		.byte	0x50
 4053 0096 00000000 		.4byte	0
 4054 009a 00000000 		.4byte	0
 4055              	.LLST5:
 4056 009e 00000000 		.4byte	.LVL10
 4057 00a2 0B000000 		.4byte	.LVL11-1
 4058 00a6 0100     		.2byte	0x1
 4059 00a8 50       		.byte	0x50
 4060 00a9 0B000000 		.4byte	.LVL11-1
 4061 00ad 18000000 		.4byte	.LFE232
 4062 00b1 0400     		.2byte	0x4
 4063 00b3 F3       		.byte	0xf3
 4064 00b4 01       		.uleb128 0x1
 4065 00b5 50       		.byte	0x50
 4066 00b6 9F       		.byte	0x9f
 4067 00b7 00000000 		.4byte	0
 4068 00bb 00000000 		.4byte	0
 4069              	.LLST6:
 4070 00bf 00000000 		.4byte	.LVL10
 4071 00c3 0B000000 		.4byte	.LVL11-1
 4072 00c7 0100     		.2byte	0x1
 4073 00c9 51       		.byte	0x51
 4074 00ca 0B000000 		.4byte	.LVL11-1
 4075 00ce 18000000 		.4byte	.LFE232
 4076 00d2 0400     		.2byte	0x4
 4077 00d4 F3       		.byte	0xf3
 4078 00d5 01       		.uleb128 0x1
 4079 00d6 51       		.byte	0x51
 4080 00d7 9F       		.byte	0x9f
 4081 00d8 00000000 		.4byte	0
 4082 00dc 00000000 		.4byte	0
 4083              	.LLST7:
 4084 00e0 00000000 		.4byte	.LVL13
 4085 00e4 12000000 		.4byte	.LVL15
 4086 00e8 0100     		.2byte	0x1
 4087 00ea 50       		.byte	0x50
 4088 00eb 12000000 		.4byte	.LVL15
 4089 00ef 1A000000 		.4byte	.LVL16
 4090 00f3 0400     		.2byte	0x4
 4091 00f5 F3       		.byte	0xf3
 4092 00f6 01       		.uleb128 0x1
 4093 00f7 50       		.byte	0x50
 4094 00f8 9F       		.byte	0x9f
 4095 00f9 1A000000 		.4byte	.LVL16
 4096 00fd 2E000000 		.4byte	.LVL18
 4097 0101 0100     		.2byte	0x1
 4098 0103 50       		.byte	0x50
 4099 0104 2E000000 		.4byte	.LVL18
 4100 0108 33000000 		.4byte	.LVL19-1
 4101 010c 0100     		.2byte	0x1
 4102 010e 53       		.byte	0x53
 4103 010f 33000000 		.4byte	.LVL19-1
 4104 0113 44000000 		.4byte	.LFE234
ARM GAS  /var/folders/m4/4md61f0s1_g0rzfghffqnxvr0000gn/T//ccXSh2M4.s 			page 73


 4105 0117 0400     		.2byte	0x4
 4106 0119 F3       		.byte	0xf3
 4107 011a 01       		.uleb128 0x1
 4108 011b 50       		.byte	0x50
 4109 011c 9F       		.byte	0x9f
 4110 011d 00000000 		.4byte	0
 4111 0121 00000000 		.4byte	0
 4112              	.LLST8:
 4113 0125 06000000 		.4byte	.LVL14
 4114 0129 12000000 		.4byte	.LVL15
 4115 012d 0100     		.2byte	0x1
 4116 012f 50       		.byte	0x50
 4117 0130 12000000 		.4byte	.LVL15
 4118 0134 1A000000 		.4byte	.LVL16
 4119 0138 0400     		.2byte	0x4
 4120 013a F3       		.byte	0xf3
 4121 013b 01       		.uleb128 0x1
 4122 013c 50       		.byte	0x50
 4123 013d 9F       		.byte	0x9f
 4124 013e 1A000000 		.4byte	.LVL16
 4125 0142 2E000000 		.4byte	.LVL18
 4126 0146 0100     		.2byte	0x1
 4127 0148 50       		.byte	0x50
 4128 0149 2E000000 		.4byte	.LVL18
 4129 014d 33000000 		.4byte	.LVL19-1
 4130 0151 0100     		.2byte	0x1
 4131 0153 53       		.byte	0x53
 4132 0154 33000000 		.4byte	.LVL19-1
 4133 0158 44000000 		.4byte	.LFE234
 4134 015c 0400     		.2byte	0x4
 4135 015e F3       		.byte	0xf3
 4136 015f 01       		.uleb128 0x1
 4137 0160 50       		.byte	0x50
 4138 0161 9F       		.byte	0x9f
 4139 0162 00000000 		.4byte	0
 4140 0166 00000000 		.4byte	0
 4141              	.LLST9:
 4142 016a 28000000 		.4byte	.LVL17
 4143 016e 33000000 		.4byte	.LVL19-1
 4144 0172 0100     		.2byte	0x1
 4145 0174 53       		.byte	0x53
 4146 0175 33000000 		.4byte	.LVL19-1
 4147 0179 44000000 		.4byte	.LFE234
 4148 017d 0400     		.2byte	0x4
 4149 017f F3       		.byte	0xf3
 4150 0180 01       		.uleb128 0x1
 4151 0181 50       		.byte	0x50
 4152 0182 9F       		.byte	0x9f
 4153 0183 00000000 		.4byte	0
 4154 0187 00000000 		.4byte	0
 4155              	.LLST11:
 4156 018b 28000000 		.4byte	.LVL17
 4157 018f 33000000 		.4byte	.LVL19-1
 4158 0193 0100     		.2byte	0x1
 4159 0195 52       		.byte	0x52
 4160 0196 00000000 		.4byte	0
 4161 019a 00000000 		.4byte	0
ARM GAS  /var/folders/m4/4md61f0s1_g0rzfghffqnxvr0000gn/T//ccXSh2M4.s 			page 74


 4162              	.LLST12:
 4163 019e 12000000 		.4byte	.LVL15
 4164 01a2 1A000000 		.4byte	.LVL16
 4165 01a6 0200     		.2byte	0x2
 4166 01a8 30       		.byte	0x30
 4167 01a9 9F       		.byte	0x9f
 4168 01aa 38000000 		.4byte	.LVL20
 4169 01ae 44000000 		.4byte	.LFE234
 4170 01b2 0200     		.2byte	0x2
 4171 01b4 30       		.byte	0x30
 4172 01b5 9F       		.byte	0x9f
 4173 01b6 00000000 		.4byte	0
 4174 01ba 00000000 		.4byte	0
 4175              	.LLST13:
 4176 01be 00000000 		.4byte	.LVL21
 4177 01c2 0C000000 		.4byte	.LVL22
 4178 01c6 0100     		.2byte	0x1
 4179 01c8 50       		.byte	0x50
 4180 01c9 0C000000 		.4byte	.LVL22
 4181 01cd 0E000000 		.4byte	.LVL23
 4182 01d1 0400     		.2byte	0x4
 4183 01d3 F3       		.byte	0xf3
 4184 01d4 01       		.uleb128 0x1
 4185 01d5 50       		.byte	0x50
 4186 01d6 9F       		.byte	0x9f
 4187 01d7 0E000000 		.4byte	.LVL23
 4188 01db 22000000 		.4byte	.LVL25
 4189 01df 0100     		.2byte	0x1
 4190 01e1 50       		.byte	0x50
 4191 01e2 22000000 		.4byte	.LVL25
 4192 01e6 27000000 		.4byte	.LVL26-1
 4193 01ea 0100     		.2byte	0x1
 4194 01ec 53       		.byte	0x53
 4195 01ed 27000000 		.4byte	.LVL26-1
 4196 01f1 34000000 		.4byte	.LFE235
 4197 01f5 0400     		.2byte	0x4
 4198 01f7 F3       		.byte	0xf3
 4199 01f8 01       		.uleb128 0x1
 4200 01f9 50       		.byte	0x50
 4201 01fa 9F       		.byte	0x9f
 4202 01fb 00000000 		.4byte	0
 4203 01ff 00000000 		.4byte	0
 4204              	.LLST14:
 4205 0203 1C000000 		.4byte	.LVL24
 4206 0207 27000000 		.4byte	.LVL26-1
 4207 020b 0100     		.2byte	0x1
 4208 020d 53       		.byte	0x53
 4209 020e 27000000 		.4byte	.LVL26-1
 4210 0212 34000000 		.4byte	.LFE235
 4211 0216 0400     		.2byte	0x4
 4212 0218 F3       		.byte	0xf3
 4213 0219 01       		.uleb128 0x1
 4214 021a 50       		.byte	0x50
 4215 021b 9F       		.byte	0x9f
 4216 021c 00000000 		.4byte	0
 4217 0220 00000000 		.4byte	0
 4218              	.LLST16:
ARM GAS  /var/folders/m4/4md61f0s1_g0rzfghffqnxvr0000gn/T//ccXSh2M4.s 			page 75


 4219 0224 1C000000 		.4byte	.LVL24
 4220 0228 27000000 		.4byte	.LVL26-1
 4221 022c 0100     		.2byte	0x1
 4222 022e 52       		.byte	0x52
 4223 022f 00000000 		.4byte	0
 4224 0233 00000000 		.4byte	0
 4225              	.LLST17:
 4226 0237 00000000 		.4byte	.LVL27
 4227 023b 04000000 		.4byte	.LVL28
 4228 023f 0100     		.2byte	0x1
 4229 0241 50       		.byte	0x50
 4230 0242 04000000 		.4byte	.LVL28
 4231 0246 2D000000 		.4byte	.LVL31-1
 4232 024a 0100     		.2byte	0x1
 4233 024c 53       		.byte	0x53
 4234 024d 2D000000 		.4byte	.LVL31-1
 4235 0251 2E000000 		.4byte	.LVL31
 4236 0255 0400     		.2byte	0x4
 4237 0257 F3       		.byte	0xf3
 4238 0258 01       		.uleb128 0x1
 4239 0259 50       		.byte	0x50
 4240 025a 9F       		.byte	0x9f
 4241 025b 2E000000 		.4byte	.LVL31
 4242 025f 40000000 		.4byte	.LFE237
 4243 0263 0100     		.2byte	0x1
 4244 0265 53       		.byte	0x53
 4245 0266 00000000 		.4byte	0
 4246 026a 00000000 		.4byte	0
 4247              	.LLST18:
 4248 026e 00000000 		.4byte	.LVL27
 4249 0272 2D000000 		.4byte	.LVL31-1
 4250 0276 0100     		.2byte	0x1
 4251 0278 51       		.byte	0x51
 4252 0279 2D000000 		.4byte	.LVL31-1
 4253 027d 2E000000 		.4byte	.LVL31
 4254 0281 0400     		.2byte	0x4
 4255 0283 F3       		.byte	0xf3
 4256 0284 01       		.uleb128 0x1
 4257 0285 51       		.byte	0x51
 4258 0286 9F       		.byte	0x9f
 4259 0287 2E000000 		.4byte	.LVL31
 4260 028b 40000000 		.4byte	.LFE237
 4261 028f 0100     		.2byte	0x1
 4262 0291 51       		.byte	0x51
 4263 0292 00000000 		.4byte	0
 4264 0296 00000000 		.4byte	0
 4265              	.LLST19:
 4266 029a 14000000 		.4byte	.LVL29
 4267 029e 2D000000 		.4byte	.LVL31-1
 4268 02a2 0100     		.2byte	0x1
 4269 02a4 53       		.byte	0x53
 4270 02a5 2D000000 		.4byte	.LVL31-1
 4271 02a9 2E000000 		.4byte	.LVL31
 4272 02ad 0400     		.2byte	0x4
 4273 02af F3       		.byte	0xf3
 4274 02b0 01       		.uleb128 0x1
 4275 02b1 50       		.byte	0x50
ARM GAS  /var/folders/m4/4md61f0s1_g0rzfghffqnxvr0000gn/T//ccXSh2M4.s 			page 76


 4276 02b2 9F       		.byte	0x9f
 4277 02b3 00000000 		.4byte	0
 4278 02b7 00000000 		.4byte	0
 4279              	.LLST20:
 4280 02bb 1A000000 		.4byte	.LVL30
 4281 02bf 2D000000 		.4byte	.LVL31-1
 4282 02c3 0100     		.2byte	0x1
 4283 02c5 53       		.byte	0x53
 4284 02c6 2D000000 		.4byte	.LVL31-1
 4285 02ca 2E000000 		.4byte	.LVL31
 4286 02ce 0400     		.2byte	0x4
 4287 02d0 F3       		.byte	0xf3
 4288 02d1 01       		.uleb128 0x1
 4289 02d2 50       		.byte	0x50
 4290 02d3 9F       		.byte	0x9f
 4291 02d4 00000000 		.4byte	0
 4292 02d8 00000000 		.4byte	0
 4293              	.LLST21:
 4294 02dc 1A000000 		.4byte	.LVL30
 4295 02e0 2D000000 		.4byte	.LVL31-1
 4296 02e4 0100     		.2byte	0x1
 4297 02e6 52       		.byte	0x52
 4298 02e7 00000000 		.4byte	0
 4299 02eb 00000000 		.4byte	0
 4300              	.LLST22:
 4301 02ef 00000000 		.4byte	.LVL32
 4302 02f3 0B000000 		.4byte	.LVL33-1
 4303 02f7 0100     		.2byte	0x1
 4304 02f9 50       		.byte	0x50
 4305 02fa 0B000000 		.4byte	.LVL33-1
 4306 02fe 14000000 		.4byte	.LFE236
 4307 0302 0400     		.2byte	0x4
 4308 0304 F3       		.byte	0xf3
 4309 0305 01       		.uleb128 0x1
 4310 0306 50       		.byte	0x50
 4311 0307 9F       		.byte	0x9f
 4312 0308 00000000 		.4byte	0
 4313 030c 00000000 		.4byte	0
 4314              	.LLST23:
 4315 0310 00000000 		.4byte	.LVL32
 4316 0314 0B000000 		.4byte	.LVL33-1
 4317 0318 0100     		.2byte	0x1
 4318 031a 51       		.byte	0x51
 4319 031b 0B000000 		.4byte	.LVL33-1
 4320 031f 14000000 		.4byte	.LFE236
 4321 0323 0400     		.2byte	0x4
 4322 0325 F3       		.byte	0xf3
 4323 0326 01       		.uleb128 0x1
 4324 0327 51       		.byte	0x51
 4325 0328 9F       		.byte	0x9f
 4326 0329 00000000 		.4byte	0
 4327 032d 00000000 		.4byte	0
 4328              	.LLST24:
 4329 0331 00000000 		.4byte	.LVL34
 4330 0335 1E000000 		.4byte	.LVL38
 4331 0339 0100     		.2byte	0x1
 4332 033b 50       		.byte	0x50
ARM GAS  /var/folders/m4/4md61f0s1_g0rzfghffqnxvr0000gn/T//ccXSh2M4.s 			page 77


 4333 033c 1E000000 		.4byte	.LVL38
 4334 0340 29000000 		.4byte	.LVL39-1
 4335 0344 0100     		.2byte	0x1
 4336 0346 53       		.byte	0x53
 4337 0347 29000000 		.4byte	.LVL39-1
 4338 034b 32000000 		.4byte	.LFE238
 4339 034f 0400     		.2byte	0x4
 4340 0351 F3       		.byte	0xf3
 4341 0352 01       		.uleb128 0x1
 4342 0353 50       		.byte	0x50
 4343 0354 9F       		.byte	0x9f
 4344 0355 00000000 		.4byte	0
 4345 0359 00000000 		.4byte	0
 4346              	.LLST25:
 4347 035d 12000000 		.4byte	.LVL35
 4348 0361 1A000000 		.4byte	.LVL36
 4349 0365 0200     		.2byte	0x2
 4350 0367 30       		.byte	0x30
 4351 0368 9F       		.byte	0x9f
 4352 0369 2A000000 		.4byte	.LVL39
 4353 036d 32000000 		.4byte	.LFE238
 4354 0371 0200     		.2byte	0x2
 4355 0373 30       		.byte	0x30
 4356 0374 9F       		.byte	0x9f
 4357 0375 00000000 		.4byte	0
 4358 0379 00000000 		.4byte	0
 4359              	.LLST26:
 4360 037d 1C000000 		.4byte	.LVL37
 4361 0381 29000000 		.4byte	.LVL39-1
 4362 0385 0100     		.2byte	0x1
 4363 0387 53       		.byte	0x53
 4364 0388 29000000 		.4byte	.LVL39-1
 4365 038c 32000000 		.4byte	.LFE238
 4366 0390 0400     		.2byte	0x4
 4367 0392 F3       		.byte	0xf3
 4368 0393 01       		.uleb128 0x1
 4369 0394 50       		.byte	0x50
 4370 0395 9F       		.byte	0x9f
 4371 0396 00000000 		.4byte	0
 4372 039a 00000000 		.4byte	0
 4373              	.LLST27:
 4374 039e 1E000000 		.4byte	.LVL38
 4375 03a2 29000000 		.4byte	.LVL39-1
 4376 03a6 0100     		.2byte	0x1
 4377 03a8 50       		.byte	0x50
 4378 03a9 00000000 		.4byte	0
 4379 03ad 00000000 		.4byte	0
 4380              	.LLST28:
 4381 03b1 00000000 		.4byte	.LVL40
 4382 03b5 18000000 		.4byte	.LVL43
 4383 03b9 0100     		.2byte	0x1
 4384 03bb 50       		.byte	0x50
 4385 03bc 18000000 		.4byte	.LVL43
 4386 03c0 1D000000 		.4byte	.LVL44-1
 4387 03c4 0200     		.2byte	0x2
 4388 03c6 72       		.byte	0x72
 4389 03c7 04       		.sleb128 4
ARM GAS  /var/folders/m4/4md61f0s1_g0rzfghffqnxvr0000gn/T//ccXSh2M4.s 			page 78


 4390 03c8 1D000000 		.4byte	.LVL44-1
 4391 03cc 1E000000 		.4byte	.LFE239
 4392 03d0 0400     		.2byte	0x4
 4393 03d2 F3       		.byte	0xf3
 4394 03d3 01       		.uleb128 0x1
 4395 03d4 50       		.byte	0x50
 4396 03d5 9F       		.byte	0x9f
 4397 03d6 00000000 		.4byte	0
 4398 03da 00000000 		.4byte	0
 4399              	.LLST29:
 4400 03de 0C000000 		.4byte	.LVL41
 4401 03e2 18000000 		.4byte	.LVL43
 4402 03e6 0100     		.2byte	0x1
 4403 03e8 50       		.byte	0x50
 4404 03e9 18000000 		.4byte	.LVL43
 4405 03ed 1D000000 		.4byte	.LVL44-1
 4406 03f1 0200     		.2byte	0x2
 4407 03f3 72       		.byte	0x72
 4408 03f4 04       		.sleb128 4
 4409 03f5 1D000000 		.4byte	.LVL44-1
 4410 03f9 1E000000 		.4byte	.LFE239
 4411 03fd 0400     		.2byte	0x4
 4412 03ff F3       		.byte	0xf3
 4413 0400 01       		.uleb128 0x1
 4414 0401 50       		.byte	0x50
 4415 0402 9F       		.byte	0x9f
 4416 0403 00000000 		.4byte	0
 4417 0407 00000000 		.4byte	0
 4418              	.LLST30:
 4419 040b 0E000000 		.4byte	.LVL42
 4420 040f 1D000000 		.4byte	.LVL44-1
 4421 0413 0100     		.2byte	0x1
 4422 0415 53       		.byte	0x53
 4423 0416 00000000 		.4byte	0
 4424 041a 00000000 		.4byte	0
 4425              	.LLST31:
 4426 041e 00000000 		.4byte	.LVL45
 4427 0422 0C000000 		.4byte	.LVL46
 4428 0426 0100     		.2byte	0x1
 4429 0428 50       		.byte	0x50
 4430 0429 0C000000 		.4byte	.LVL46
 4431 042d 2C000000 		.4byte	.LVL54
 4432 0431 0100     		.2byte	0x1
 4433 0433 55       		.byte	0x55
 4434 0434 2C000000 		.4byte	.LVL54
 4435 0438 2E000000 		.4byte	.LFE240
 4436 043c 0400     		.2byte	0x4
 4437 043e F3       		.byte	0xf3
 4438 043f 01       		.uleb128 0x1
 4439 0440 50       		.byte	0x50
 4440 0441 9F       		.byte	0x9f
 4441 0442 00000000 		.4byte	0
 4442 0446 00000000 		.4byte	0
 4443              	.LLST32:
 4444 044a 00000000 		.4byte	.LVL45
 4445 044e 0C000000 		.4byte	.LVL46
 4446 0452 0100     		.2byte	0x1
ARM GAS  /var/folders/m4/4md61f0s1_g0rzfghffqnxvr0000gn/T//ccXSh2M4.s 			page 79


 4447 0454 51       		.byte	0x51
 4448 0455 0C000000 		.4byte	.LVL46
 4449 0459 0E000000 		.4byte	.LVL47
 4450 045d 0300     		.2byte	0x3
 4451 045f 74       		.byte	0x74
 4452 0460 7F       		.sleb128 -1
 4453 0461 9F       		.byte	0x9f
 4454 0462 0E000000 		.4byte	.LVL47
 4455 0466 28000000 		.4byte	.LVL52
 4456 046a 0100     		.2byte	0x1
 4457 046c 54       		.byte	0x54
 4458 046d 28000000 		.4byte	.LVL52
 4459 0471 2A000000 		.4byte	.LVL53
 4460 0475 0300     		.2byte	0x3
 4461 0477 74       		.byte	0x74
 4462 0478 01       		.sleb128 1
 4463 0479 9F       		.byte	0x9f
 4464 047a 00000000 		.4byte	0
 4465 047e 00000000 		.4byte	0
 4466              	.LLST33:
 4467 0482 1A000000 		.4byte	.LVL49
 4468 0486 2C000000 		.4byte	.LVL54
 4469 048a 0100     		.2byte	0x1
 4470 048c 55       		.byte	0x55
 4471 048d 00000000 		.4byte	0
 4472 0491 00000000 		.4byte	0
 4473              	.LLST34:
 4474 0495 1C000000 		.4byte	.LVL50
 4475 0499 25000000 		.4byte	.LVL51-1
 4476 049d 0100     		.2byte	0x1
 4477 049f 50       		.byte	0x50
 4478 04a0 00000000 		.4byte	0
 4479 04a4 00000000 		.4byte	0
 4480              	.LLST35:
 4481 04a8 00000000 		.4byte	.LVL55
 4482 04ac 16000000 		.4byte	.LVL56
 4483 04b0 0100     		.2byte	0x1
 4484 04b2 50       		.byte	0x50
 4485 04b3 16000000 		.4byte	.LVL56
 4486 04b7 52000000 		.4byte	.LVL63
 4487 04bb 0400     		.2byte	0x4
 4488 04bd F3       		.byte	0xf3
 4489 04be 01       		.uleb128 0x1
 4490 04bf 50       		.byte	0x50
 4491 04c0 9F       		.byte	0x9f
 4492 04c1 52000000 		.4byte	.LVL63
 4493 04c5 54000000 		.4byte	.LVL64
 4494 04c9 0100     		.2byte	0x1
 4495 04cb 50       		.byte	0x50
 4496 04cc 54000000 		.4byte	.LVL64
 4497 04d0 5F000000 		.4byte	.LVL66-1
 4498 04d4 0100     		.2byte	0x1
 4499 04d6 52       		.byte	0x52
 4500 04d7 5F000000 		.4byte	.LVL66-1
 4501 04db 6C000000 		.4byte	.LFE241
 4502 04df 0400     		.2byte	0x4
 4503 04e1 F3       		.byte	0xf3
ARM GAS  /var/folders/m4/4md61f0s1_g0rzfghffqnxvr0000gn/T//ccXSh2M4.s 			page 80


 4504 04e2 01       		.uleb128 0x1
 4505 04e3 50       		.byte	0x50
 4506 04e4 9F       		.byte	0x9f
 4507 04e5 00000000 		.4byte	0
 4508 04e9 00000000 		.4byte	0
 4509              	.LLST36:
 4510 04ed 00000000 		.4byte	.LVL55
 4511 04f1 16000000 		.4byte	.LVL56
 4512 04f5 0100     		.2byte	0x1
 4513 04f7 51       		.byte	0x51
 4514 04f8 16000000 		.4byte	.LVL56
 4515 04fc 52000000 		.4byte	.LVL63
 4516 0500 0400     		.2byte	0x4
 4517 0502 F3       		.byte	0xf3
 4518 0503 01       		.uleb128 0x1
 4519 0504 51       		.byte	0x51
 4520 0505 9F       		.byte	0x9f
 4521 0506 52000000 		.4byte	.LVL63
 4522 050a 5F000000 		.4byte	.LVL66-1
 4523 050e 0100     		.2byte	0x1
 4524 0510 51       		.byte	0x51
 4525 0511 5F000000 		.4byte	.LVL66-1
 4526 0515 6C000000 		.4byte	.LFE241
 4527 0519 0200     		.2byte	0x2
 4528 051b 91       		.byte	0x91
 4529 051c 74       		.sleb128 -12
 4530 051d 00000000 		.4byte	0
 4531 0521 00000000 		.4byte	0
 4532              	.LLST37:
 4533 0525 24000000 		.4byte	.LVL57
 4534 0529 26000000 		.4byte	.LVL58
 4535 052d 0200     		.2byte	0x2
 4536 052f 30       		.byte	0x30
 4537 0530 9F       		.byte	0x9f
 4538 0531 26000000 		.4byte	.LVL58
 4539 0535 30000000 		.4byte	.LVL59
 4540 0539 0100     		.2byte	0x1
 4541 053b 50       		.byte	0x50
 4542 053c 48000000 		.4byte	.LVL62
 4543 0540 52000000 		.4byte	.LVL63
 4544 0544 0100     		.2byte	0x1
 4545 0546 50       		.byte	0x50
 4546 0547 00000000 		.4byte	0
 4547 054b 00000000 		.4byte	0
 4548              	.LLST38:
 4549 054f 26000000 		.4byte	.LVL58
 4550 0553 30000000 		.4byte	.LVL59
 4551 0557 0200     		.2byte	0x2
 4552 0559 30       		.byte	0x30
 4553 055a 9F       		.byte	0x9f
 4554 055b 48000000 		.4byte	.LVL62
 4555 055f 52000000 		.4byte	.LVL63
 4556 0563 0200     		.2byte	0x2
 4557 0565 30       		.byte	0x30
 4558 0566 9F       		.byte	0x9f
 4559 0567 00000000 		.4byte	0
 4560 056b 00000000 		.4byte	0
ARM GAS  /var/folders/m4/4md61f0s1_g0rzfghffqnxvr0000gn/T//ccXSh2M4.s 			page 81


 4561              	.LLST39:
 4562 056f 36000000 		.4byte	.LVL60
 4563 0573 52000000 		.4byte	.LVL63
 4564 0577 0100     		.2byte	0x1
 4565 0579 54       		.byte	0x54
 4566 057a 00000000 		.4byte	0
 4567 057e 00000000 		.4byte	0
 4568              	.LLST40:
 4569 0582 36000000 		.4byte	.LVL60
 4570 0586 45000000 		.4byte	.LVL61-1
 4571 058a 0100     		.2byte	0x1
 4572 058c 51       		.byte	0x51
 4573 058d 00000000 		.4byte	0
 4574 0591 00000000 		.4byte	0
 4575              	.LLST42:
 4576 0595 56000000 		.4byte	.LVL65
 4577 0599 5F000000 		.4byte	.LVL66-1
 4578 059d 0100     		.2byte	0x1
 4579 059f 50       		.byte	0x50
 4580 05a0 00000000 		.4byte	0
 4581 05a4 00000000 		.4byte	0
 4582              		.section	.debug_aranges,"",%progbits
 4583 0000 6C000000 		.4byte	0x6c
 4584 0004 0200     		.2byte	0x2
 4585 0006 00000000 		.4byte	.Ldebug_info0
 4586 000a 04       		.byte	0x4
 4587 000b 00       		.byte	0
 4588 000c 0000     		.2byte	0
 4589 000e 0000     		.2byte	0
 4590 0010 00000000 		.4byte	.LFB231
 4591 0014 08000000 		.4byte	.LFE231-.LFB231
 4592 0018 00000000 		.4byte	.LFB233
 4593 001c 28000000 		.4byte	.LFE233-.LFB233
 4594 0020 00000000 		.4byte	.LFB232
 4595 0024 18000000 		.4byte	.LFE232-.LFB232
 4596 0028 00000000 		.4byte	.LFB234
 4597 002c 44000000 		.4byte	.LFE234-.LFB234
 4598 0030 00000000 		.4byte	.LFB235
 4599 0034 34000000 		.4byte	.LFE235-.LFB235
 4600 0038 00000000 		.4byte	.LFB237
 4601 003c 40000000 		.4byte	.LFE237-.LFB237
 4602 0040 00000000 		.4byte	.LFB236
 4603 0044 14000000 		.4byte	.LFE236-.LFB236
 4604 0048 00000000 		.4byte	.LFB238
 4605 004c 32000000 		.4byte	.LFE238-.LFB238
 4606 0050 00000000 		.4byte	.LFB239
 4607 0054 1E000000 		.4byte	.LFE239-.LFB239
 4608 0058 00000000 		.4byte	.LFB240
 4609 005c 2E000000 		.4byte	.LFE240-.LFB240
 4610 0060 00000000 		.4byte	.LFB241
 4611 0064 6C000000 		.4byte	.LFE241-.LFB241
 4612 0068 00000000 		.4byte	0
 4613 006c 00000000 		.4byte	0
 4614              		.section	.debug_ranges,"",%progbits
 4615              	.Ldebug_ranges0:
 4616 0000 06000000 		.4byte	.LBB122
 4617 0004 12000000 		.4byte	.LBE122
ARM GAS  /var/folders/m4/4md61f0s1_g0rzfghffqnxvr0000gn/T//ccXSh2M4.s 			page 82


 4618 0008 1C000000 		.4byte	.LBB140
 4619 000c 38000000 		.4byte	.LBE140
 4620 0010 00000000 		.4byte	0
 4621 0014 00000000 		.4byte	0
 4622 0018 22000000 		.4byte	.LBB126
 4623 001c 2C000000 		.4byte	.LBE126
 4624 0020 2E000000 		.4byte	.LBB129
 4625 0024 30000000 		.4byte	.LBE129
 4626 0028 00000000 		.4byte	0
 4627 002c 00000000 		.4byte	0
 4628 0030 12000000 		.4byte	.LBB131
 4629 0034 18000000 		.4byte	.LBE131
 4630 0038 38000000 		.4byte	.LBB141
 4631 003c 3E000000 		.4byte	.LBE141
 4632 0040 00000000 		.4byte	0
 4633 0044 00000000 		.4byte	0
 4634 0048 16000000 		.4byte	.LBB148
 4635 004c 20000000 		.4byte	.LBE148
 4636 0050 22000000 		.4byte	.LBB151
 4637 0054 24000000 		.4byte	.LBE151
 4638 0058 00000000 		.4byte	0
 4639 005c 00000000 		.4byte	0
 4640 0060 14000000 		.4byte	.LBB156
 4641 0064 26000000 		.4byte	.LBE156
 4642 0068 2A000000 		.4byte	.LBB163
 4643 006c 2E000000 		.4byte	.LBE163
 4644 0070 00000000 		.4byte	0
 4645 0074 00000000 		.4byte	0
 4646 0078 1A000000 		.4byte	.LBB158
 4647 007c 1C000000 		.4byte	.LBE158
 4648 0080 1E000000 		.4byte	.LBB161
 4649 0084 26000000 		.4byte	.LBE161
 4650 0088 00000000 		.4byte	0
 4651 008c 00000000 		.4byte	0
 4652 0090 12000000 		.4byte	.LBB177
 4653 0094 1C000000 		.4byte	.LBE177
 4654 0098 2A000000 		.4byte	.LBB190
 4655 009c 32000000 		.4byte	.LBE190
 4656 00a0 00000000 		.4byte	0
 4657 00a4 00000000 		.4byte	0
 4658 00a8 1C000000 		.4byte	.LBB186
 4659 00ac 22000000 		.4byte	.LBE186
 4660 00b0 24000000 		.4byte	.LBB189
 4661 00b4 26000000 		.4byte	.LBE189
 4662 00b8 00000000 		.4byte	0
 4663 00bc 00000000 		.4byte	0
 4664 00c0 0C000000 		.4byte	.LBB192
 4665 00c4 12000000 		.4byte	.LBE192
 4666 00c8 14000000 		.4byte	.LBB195
 4667 00cc 16000000 		.4byte	.LBE195
 4668 00d0 00000000 		.4byte	0
 4669 00d4 00000000 		.4byte	0
 4670 00d8 26000000 		.4byte	.LBB202
 4671 00dc 2C000000 		.4byte	.LBE202
 4672 00e0 48000000 		.4byte	.LBB216
 4673 00e4 4E000000 		.4byte	.LBE216
 4674 00e8 00000000 		.4byte	0
ARM GAS  /var/folders/m4/4md61f0s1_g0rzfghffqnxvr0000gn/T//ccXSh2M4.s 			page 83


 4675 00ec 00000000 		.4byte	0
 4676 00f0 32000000 		.4byte	.LBB212
 4677 00f4 34000000 		.4byte	.LBE212
 4678 00f8 38000000 		.4byte	.LBB215
 4679 00fc 40000000 		.4byte	.LBE215
 4680 0100 00000000 		.4byte	0
 4681 0104 00000000 		.4byte	0
 4682 0108 00000000 		.4byte	.LFB231
 4683 010c 08000000 		.4byte	.LFE231
 4684 0110 00000000 		.4byte	.LFB233
 4685 0114 28000000 		.4byte	.LFE233
 4686 0118 00000000 		.4byte	.LFB232
 4687 011c 18000000 		.4byte	.LFE232
 4688 0120 00000000 		.4byte	.LFB234
 4689 0124 44000000 		.4byte	.LFE234
 4690 0128 00000000 		.4byte	.LFB235
 4691 012c 34000000 		.4byte	.LFE235
 4692 0130 00000000 		.4byte	.LFB237
 4693 0134 40000000 		.4byte	.LFE237
 4694 0138 00000000 		.4byte	.LFB236
 4695 013c 14000000 		.4byte	.LFE236
 4696 0140 00000000 		.4byte	.LFB238
 4697 0144 32000000 		.4byte	.LFE238
 4698 0148 00000000 		.4byte	.LFB239
 4699 014c 1E000000 		.4byte	.LFE239
 4700 0150 00000000 		.4byte	.LFB240
 4701 0154 2E000000 		.4byte	.LFE240
 4702 0158 00000000 		.4byte	.LFB241
 4703 015c 6C000000 		.4byte	.LFE241
 4704 0160 00000000 		.4byte	0
 4705 0164 00000000 		.4byte	0
 4706              		.section	.debug_line,"",%progbits
 4707              	.Ldebug_line0:
 4708 0000 69040000 		.section	.debug_str,"MS",%progbits,1
 4708      02001202 
 4708      00000201 
 4708      FB0E0D00 
 4708      01010101 
 4709              	.LASF133:
 4710 0000 2F557365 		.ascii	"/Users/raphael/Documents/pcb-quadrotor/code\000"
 4710      72732F72 
 4710      61706861 
 4710      656C2F44 
 4710      6F63756D 
 4711              	.LASF53:
 4712 002c 72656164 		.ascii	"ready_list_t\000"
 4712      795F6C69 
 4712      73745F74 
 4712      00
 4713              	.LASF113:
 4714 0039 71756575 		.ascii	"queue_insert\000"
 4714      655F696E 
 4714      73657274 
 4714      00
 4715              	.LASF125:
 4716 0046 63685365 		.ascii	"chSemSignalI\000"
 4716      6D536967 
ARM GAS  /var/folders/m4/4md61f0s1_g0rzfghffqnxvr0000gn/T//ccXSh2M4.s 			page 84


 4716      6E616C49 
 4716      00
 4717              	.LASF91:
 4718 0053 77747472 		.ascii	"wttrp\000"
 4718      7000
 4719              	.LASF88:
 4720 0059 7264796D 		.ascii	"rdymsg\000"
 4720      736700
 4721              	.LASF16:
 4722 0060 75696E74 		.ascii	"uint64_t\000"
 4722      36345F74 
 4722      00
 4723              	.LASF5:
 4724 0069 5F5F7569 		.ascii	"__uint8_t\000"
 4724      6E74385F 
 4724      7400
 4725              	.LASF85:
 4726 0073 706F7274 		.ascii	"port_intctx\000"
 4726      5F696E74 
 4726      63747800 
 4727              	.LASF72:
 4728 007f 73797374 		.ascii	"system_debug_t\000"
 4728      656D5F64 
 4728      65627567 
 4728      5F7400
 4729              	.LASF108:
 4730 008e 71756575 		.ascii	"queue_init\000"
 4730      655F696E 
 4730      697400
 4731              	.LASF105:
 4732 0099 706F7274 		.ascii	"port_lock\000"
 4732      5F6C6F63 
 4732      6B00
 4733              	.LASF117:
 4734 00a3 71756575 		.ascii	"queue_lifo_remove\000"
 4734      655F6C69 
 4734      666F5F72 
 4734      656D6F76 
 4734      6500
 4735              	.LASF124:
 4736 00b5 63685365 		.ascii	"chSemSignal\000"
 4736      6D536967 
 4736      6E616C00 
 4737              	.LASF89:
 4738 00c1 65786974 		.ascii	"exitcode\000"
 4738      636F6465 
 4738      00
 4739              	.LASF79:
 4740 00ca 6D61696E 		.ascii	"mainthread\000"
 4740      74687265 
 4740      616400
 4741              	.LASF126:
 4742 00d5 63685365 		.ascii	"chSemAddCounterI\000"
 4742      6D416464 
 4742      436F756E 
 4742      74657249 
 4742      00
ARM GAS  /var/folders/m4/4md61f0s1_g0rzfghffqnxvr0000gn/T//ccXSh2M4.s 			page 85


 4743              	.LASF128:
 4744 00e6 49544D5F 		.ascii	"ITM_RxBuffer\000"
 4744      52784275 
 4744      66666572 
 4744      00
 4745              	.LASF52:
 4746 00f3 63685F74 		.ascii	"ch_threads_queue\000"
 4746      68726561 
 4746      64735F71 
 4746      75657565 
 4746      00
 4747              	.LASF30:
 4748 0104 705F7072 		.ascii	"p_prio\000"
 4748      696F00
 4749              	.LASF10:
 4750 010b 6C6F6E67 		.ascii	"long long int\000"
 4750      206C6F6E 
 4750      6720696E 
 4750      7400
 4751              	.LASF1:
 4752 0119 7369676E 		.ascii	"signed char\000"
 4752      65642063 
 4752      68617200 
 4753              	.LASF127:
 4754 0125 63685365 		.ascii	"chSemSignalWait\000"
 4754      6D536967 
 4754      6E616C57 
 4754      61697400 
 4755              	.LASF46:
 4756 0135 705F6D70 		.ascii	"p_mpool\000"
 4756      6F6F6C00 
 4757              	.LASF12:
 4758 013d 6C6F6E67 		.ascii	"long long unsigned int\000"
 4758      206C6F6E 
 4758      6720756E 
 4758      7369676E 
 4758      65642069 
 4759              	.LASF99:
 4760 0154 6D5F7175 		.ascii	"m_queue\000"
 4760      65756500 
 4761              	.LASF78:
 4762 015c 76746C69 		.ascii	"vtlist\000"
 4762      737400
 4763              	.LASF106:
 4764 0163 706F7274 		.ascii	"port_unlock\000"
 4764      5F756E6C 
 4764      6F636B00 
 4765              	.LASF21:
 4766 016f 74736C69 		.ascii	"tslices_t\000"
 4766      6365735F 
 4766      7400
 4767              	.LASF76:
 4768 0179 63685F73 		.ascii	"ch_system\000"
 4768      79737465 
 4768      6D00
 4769              	.LASF7:
 4770 0183 6C6F6E67 		.ascii	"long int\000"
ARM GAS  /var/folders/m4/4md61f0s1_g0rzfghffqnxvr0000gn/T//ccXSh2M4.s 			page 86


 4770      20696E74 
 4770      00
 4771              	.LASF19:
 4772 018c 74737461 		.ascii	"tstate_t\000"
 4772      74655F74 
 4772      00
 4773              	.LASF32:
 4774 0195 705F6E65 		.ascii	"p_newer\000"
 4774      77657200 
 4775              	.LASF96:
 4776 019d 735F7175 		.ascii	"s_queue\000"
 4776      65756500 
 4777              	.LASF134:
 4778 01a5 63685363 		.ascii	"chSchRescheduleS\000"
 4778      68526573 
 4778      63686564 
 4778      756C6553 
 4778      00
 4779              	.LASF58:
 4780 01b6 725F6E65 		.ascii	"r_newer\000"
 4780      77657200 
 4781              	.LASF82:
 4782 01be 72656761 		.ascii	"regarm_t\000"
 4782      726D5F74 
 4782      00
 4783              	.LASF65:
 4784 01c7 76745F70 		.ascii	"vt_prev\000"
 4784      72657600 
 4785              	.LASF104:
 4786 01cf 6D757465 		.ascii	"mutex_t\000"
 4786      785F7400 
 4787              	.LASF109:
 4788 01d7 76616C75 		.ascii	"value\000"
 4788      6500
 4789              	.LASF80:
 4790 01dd 69646C65 		.ascii	"idle_thread_wa\000"
 4790      5F746872 
 4790      6561645F 
 4790      776100
 4791              	.LASF119:
 4792 01ec 63685365 		.ascii	"chSemObjectInit\000"
 4792      6D4F626A 
 4792      65637449 
 4792      6E697400 
 4793              	.LASF25:
 4794 01fc 636E745F 		.ascii	"cnt_t\000"
 4794      7400
 4795              	.LASF0:
 4796 0202 756E7369 		.ascii	"unsigned int\000"
 4796      676E6564 
 4796      20696E74 
 4796      00
 4797              	.LASF123:
 4798 020f 63685365 		.ascii	"chSemWaitTimeout\000"
 4798      6D576169 
 4798      7454696D 
 4798      656F7574 
ARM GAS  /var/folders/m4/4md61f0s1_g0rzfghffqnxvr0000gn/T//ccXSh2M4.s 			page 87


 4798      00
 4799              	.LASF64:
 4800 0220 76745F6E 		.ascii	"vt_next\000"
 4800      65787400 
 4801              	.LASF39:
 4802 0228 705F7469 		.ascii	"p_time\000"
 4802      6D6500
 4803              	.LASF92:
 4804 022f 77747365 		.ascii	"wtsemp\000"
 4804      6D7000
 4805              	.LASF66:
 4806 0236 76745F64 		.ascii	"vt_delta\000"
 4806      656C7461 
 4806      00
 4807              	.LASF41:
 4808 023f 705F6D73 		.ascii	"p_msgqueue\000"
 4808      67717565 
 4808      756500
 4809              	.LASF121:
 4810 024a 63685365 		.ascii	"chSemReset\000"
 4810      6D526573 
 4810      657400
 4811              	.LASF97:
 4812 0255 735F636E 		.ascii	"s_cnt\000"
 4812      7400
 4813              	.LASF4:
 4814 025b 73686F72 		.ascii	"short unsigned int\000"
 4814      7420756E 
 4814      7369676E 
 4814      65642069 
 4814      6E7400
 4815              	.LASF49:
 4816 026e 63685F74 		.ascii	"ch_thread\000"
 4816      68726561 
 4816      6400
 4817              	.LASF136:
 4818 0278 63685363 		.ascii	"chSchWakeupS\000"
 4818      6857616B 
 4818      65757053 
 4818      00
 4819              	.LASF23:
 4820 0285 6D73675F 		.ascii	"msg_t\000"
 4820      7400
 4821              	.LASF75:
 4822 028b 63685F73 		.ascii	"ch_system_t\000"
 4822      79737465 
 4822      6D5F7400 
 4823              	.LASF18:
 4824 0297 746D6F64 		.ascii	"tmode_t\000"
 4824      655F7400 
 4825              	.LASF54:
 4826 029f 63685F72 		.ascii	"ch_ready_list\000"
 4826      65616479 
 4826      5F6C6973 
 4826      7400
 4827              	.LASF24:
 4828 02ad 6576656E 		.ascii	"eventmask_t\000"
ARM GAS  /var/folders/m4/4md61f0s1_g0rzfghffqnxvr0000gn/T//ccXSh2M4.s 			page 88


 4828      746D6173 
 4828      6B5F7400 
 4829              	.LASF6:
 4830 02b9 5F5F696E 		.ascii	"__int32_t\000"
 4830      7433325F 
 4830      7400
 4831              	.LASF69:
 4832 02c3 76697274 		.ascii	"virtual_timers_list_t\000"
 4832      75616C5F 
 4832      74696D65 
 4832      72735F6C 
 4832      6973745F 
 4833              	.LASF83:
 4834 02d9 73746B61 		.ascii	"stkalign_t\000"
 4834      6C69676E 
 4834      5F7400
 4835              	.LASF48:
 4836 02e4 74687265 		.ascii	"threads_list_t\000"
 4836      6164735F 
 4836      6C697374 
 4836      5F7400
 4837              	.LASF40:
 4838 02f3 705F7761 		.ascii	"p_waiting\000"
 4838      6974696E 
 4838      6700
 4839              	.LASF81:
 4840 02fd 73697A65 		.ascii	"sizetype\000"
 4840      74797065 
 4840      00
 4841              	.LASF47:
 4842 0306 74687265 		.ascii	"thread_reference_t\000"
 4842      61645F72 
 4842      65666572 
 4842      656E6365 
 4842      5F7400
 4843              	.LASF70:
 4844 0319 63685F76 		.ascii	"ch_virtual_timers_list\000"
 4844      69727475 
 4844      616C5F74 
 4844      696D6572 
 4844      735F6C69 
 4845              	.LASF110:
 4846 0330 63685379 		.ascii	"chSysLock\000"
 4846      734C6F63 
 4846      6B00
 4847              	.LASF33:
 4848 033a 705F6F6C 		.ascii	"p_older\000"
 4848      64657200 
 4849              	.LASF57:
 4850 0342 725F6374 		.ascii	"r_ctx\000"
 4850      7800
 4851              	.LASF87:
 4852 0348 746D5F63 		.ascii	"tm_calibration_t\000"
 4852      616C6962 
 4852      72617469 
 4852      6F6E5F74 
 4852      00
ARM GAS  /var/folders/m4/4md61f0s1_g0rzfghffqnxvr0000gn/T//ccXSh2M4.s 			page 89


 4853              	.LASF101:
 4854 0359 6D5F6E65 		.ascii	"m_next\000"
 4854      787400
 4855              	.LASF116:
 4856 0360 74696D65 		.ascii	"time\000"
 4856      00
 4857              	.LASF60:
 4858 0365 725F6375 		.ascii	"r_current\000"
 4858      7272656E 
 4858      7400
 4859              	.LASF59:
 4860 036f 725F6F6C 		.ascii	"r_older\000"
 4860      64657200 
 4861              	.LASF11:
 4862 0377 5F5F7569 		.ascii	"__uint64_t\000"
 4862      6E743634 
 4862      5F7400
 4863              	.LASF20:
 4864 0382 74726566 		.ascii	"trefs_t\000"
 4864      735F7400 
 4865              	.LASF62:
 4866 038a 76697274 		.ascii	"virtual_timer_t\000"
 4866      75616C5F 
 4866      74696D65 
 4866      725F7400 
 4867              	.LASF29:
 4868 039a 705F7072 		.ascii	"p_prev\000"
 4868      657600
 4869              	.LASF22:
 4870 03a1 74707269 		.ascii	"tprio_t\000"
 4870      6F5F7400 
 4871              	.LASF73:
 4872 03a9 63685F73 		.ascii	"ch_system_debug\000"
 4872      79737465 
 4872      6D5F6465 
 4872      62756700 
 4873              	.LASF14:
 4874 03b9 696E7433 		.ascii	"int32_t\000"
 4874      325F7400 
 4875              	.LASF2:
 4876 03c1 756E7369 		.ascii	"unsigned char\000"
 4876      676E6564 
 4876      20636861 
 4876      7200
 4877              	.LASF44:
 4878 03cf 705F6D74 		.ascii	"p_mtxlist\000"
 4878      786C6973 
 4878      7400
 4879              	.LASF3:
 4880 03d9 73686F72 		.ascii	"short int\000"
 4880      7420696E 
 4880      7400
 4881              	.LASF35:
 4882 03e3 705F7374 		.ascii	"p_state\000"
 4882      61746500 
 4883              	.LASF38:
 4884 03eb 705F7072 		.ascii	"p_preempt\000"
ARM GAS  /var/folders/m4/4md61f0s1_g0rzfghffqnxvr0000gn/T//ccXSh2M4.s 			page 90


 4884      65656D70 
 4884      7400
 4885              	.LASF56:
 4886 03f5 725F7072 		.ascii	"r_prio\000"
 4886      696F00
 4887              	.LASF94:
 4888 03fc 65776D61 		.ascii	"ewmask\000"
 4888      736B00
 4889              	.LASF28:
 4890 0403 705F6E65 		.ascii	"p_next\000"
 4890      787400
 4891              	.LASF36:
 4892 040a 705F666C 		.ascii	"p_flags\000"
 4892      61677300 
 4893              	.LASF112:
 4894 0412 5F5F6675 		.ascii	"__func__\000"
 4894      6E635F5F 
 4894      00
 4895              	.LASF114:
 4896 041b 63685365 		.ascii	"chSemWaitS\000"
 4896      6D576169 
 4896      745300
 4897              	.LASF103:
 4898 0426 73656D61 		.ascii	"semaphore_t\000"
 4898      70686F72 
 4898      655F7400 
 4899              	.LASF63:
 4900 0432 63685F76 		.ascii	"ch_virtual_timer\000"
 4900      69727475 
 4900      616C5F74 
 4900      696D6572 
 4900      00
 4901              	.LASF95:
 4902 0443 63685F73 		.ascii	"ch_semaphore\000"
 4902      656D6170 
 4902      686F7265 
 4902      00
 4903              	.LASF135:
 4904 0450 63685363 		.ascii	"chSchGoSleepS\000"
 4904      68476F53 
 4904      6C656570 
 4904      5300
 4905              	.LASF43:
 4906 045e 705F6570 		.ascii	"p_epending\000"
 4906      656E6469 
 4906      6E6700
 4907              	.LASF15:
 4908 0469 75696E74 		.ascii	"uint32_t\000"
 4908      33325F74 
 4908      00
 4909              	.LASF93:
 4910 0472 77746D74 		.ascii	"wtmtxp\000"
 4910      787000
 4911              	.LASF55:
 4912 0479 725F7175 		.ascii	"r_queue\000"
 4912      65756500 
 4913              	.LASF129:
ARM GAS  /var/folders/m4/4md61f0s1_g0rzfghffqnxvr0000gn/T//ccXSh2M4.s 			page 91


 4914 0481 63685363 		.ascii	"chSchReadyI\000"
 4914      68526561 
 4914      64794900 
 4915              	.LASF50:
 4916 048d 63685F74 		.ascii	"ch_threads_list\000"
 4916      68726561 
 4916      64735F6C 
 4916      69737400 
 4917              	.LASF9:
 4918 049d 6C6F6E67 		.ascii	"long unsigned int\000"
 4918      20756E73 
 4918      69676E65 
 4918      6420696E 
 4918      7400
 4919              	.LASF102:
 4920 04af 63686172 		.ascii	"char\000"
 4920      00
 4921              	.LASF115:
 4922 04b4 63685365 		.ascii	"chSemWaitTimeoutS\000"
 4922      6D576169 
 4922      7454696D 
 4922      656F7574 
 4922      5300
 4923              	.LASF27:
 4924 04c6 74687265 		.ascii	"thread_t\000"
 4924      61645F74 
 4924      00
 4925              	.LASF118:
 4926 04cf 71756575 		.ascii	"queue_fifo_remove\000"
 4926      655F6669 
 4926      666F5F72 
 4926      656D6F76 
 4926      6500
 4927              	.LASF26:
 4928 04e1 73797374 		.ascii	"systime_t\000"
 4928      696D655F 
 4928      7400
 4929              	.LASF45:
 4930 04eb 705F7265 		.ascii	"p_realprio\000"
 4930      616C7072 
 4930      696F00
 4931              	.LASF61:
 4932 04f6 76746675 		.ascii	"vtfunc_t\000"
 4932      6E635F74 
 4932      00
 4933              	.LASF8:
 4934 04ff 5F5F7569 		.ascii	"__uint32_t\000"
 4934      6E743332 
 4934      5F7400
 4935              	.LASF107:
 4936 050a 5F5F7365 		.ascii	"__set_BASEPRI\000"
 4936      745F4241 
 4936      53455052 
 4936      4900
 4937              	.LASF122:
 4938 0518 63685365 		.ascii	"chSemWait\000"
 4938      6D576169 
ARM GAS  /var/folders/m4/4md61f0s1_g0rzfghffqnxvr0000gn/T//ccXSh2M4.s 			page 92


 4938      7400
 4939              	.LASF131:
 4940 0522 474E5520 		.ascii	"GNU C 4.9.3 20150529 (release) [ARM/embedded-4_9-br"
 4940      4320342E 
 4940      392E3320 
 4940      32303135 
 4940      30353239 
 4941 0555 616E6368 		.ascii	"anch revision 224288] -mcpu=cortex-m4 -mfloat-abi=h"
 4941      20726576 
 4941      6973696F 
 4941      6E203232 
 4941      34323838 
 4942 0588 61726420 		.ascii	"ard -mfpu=fpv4-sp-d16 -mno-thumb-interwork -mthumb "
 4942      2D6D6670 
 4942      753D6670 
 4942      76342D73 
 4942      702D6431 
 4943 05bb 2D676764 		.ascii	"-ggdb -O2 -std=gnu99 -fomit-frame-pointer -falign-f"
 4943      62202D4F 
 4943      32202D73 
 4943      74643D67 
 4943      6E753939 
 4944 05ee 756E6374 		.ascii	"unctions=16 -ffunction-sections -fdata-sections -fn"
 4944      696F6E73 
 4944      3D313620 
 4944      2D666675 
 4944      6E637469 
 4945 0621 6F2D636F 		.ascii	"o-common -fsingle-precision-constant\000"
 4945      6D6D6F6E 
 4945      202D6673 
 4945      696E676C 
 4945      652D7072 
 4946              	.LASF74:
 4947 0646 70616E69 		.ascii	"panic_msg\000"
 4947      635F6D73 
 4947      6700
 4948              	.LASF86:
 4949 0650 6F666673 		.ascii	"offset\000"
 4949      657400
 4950              	.LASF84:
 4951 0657 636F6E74 		.ascii	"context\000"
 4951      65787400 
 4952              	.LASF17:
 4953 065f 7274636E 		.ascii	"rtcnt_t\000"
 4953      745F7400 
 4954              	.LASF68:
 4955 0667 76745F70 		.ascii	"vt_par\000"
 4955      617200
 4956              	.LASF51:
 4957 066e 74687265 		.ascii	"threads_queue_t\000"
 4957      6164735F 
 4957      71756575 
 4957      655F7400 
 4958              	.LASF98:
 4959 067e 63685F6D 		.ascii	"ch_mutex\000"
 4959      75746578 
 4959      00
ARM GAS  /var/folders/m4/4md61f0s1_g0rzfghffqnxvr0000gn/T//ccXSh2M4.s 			page 93


 4960              	.LASF37:
 4961 0687 705F7265 		.ascii	"p_refs\000"
 4961      667300
 4962              	.LASF120:
 4963 068e 63685365 		.ascii	"chSemResetI\000"
 4963      6D526573 
 4963      65744900 
 4964              	.LASF77:
 4965 069a 726C6973 		.ascii	"rlist\000"
 4965      7400
 4966              	.LASF13:
 4967 06a0 75696E74 		.ascii	"uint8_t\000"
 4967      385F7400 
 4968              	.LASF90:
 4969 06a8 77746F62 		.ascii	"wtobjp\000"
 4969      6A7000
 4970              	.LASF34:
 4971 06af 705F6E61 		.ascii	"p_name\000"
 4971      6D6500
 4972              	.LASF71:
 4973 06b6 76745F73 		.ascii	"vt_systime\000"
 4973      79737469 
 4973      6D6500
 4974              	.LASF130:
 4975 06c1 63685363 		.ascii	"chSchGoSleepTimeoutS\000"
 4975      68476F53 
 4975      6C656570 
 4975      54696D65 
 4975      6F757453 
 4976              	.LASF111:
 4977 06d6 63685379 		.ascii	"chSysUnlock\000"
 4977      73556E6C 
 4977      6F636B00 
 4978              	.LASF42:
 4979 06e2 705F6D73 		.ascii	"p_msg\000"
 4979      6700
 4980              	.LASF132:
 4981 06e8 43686962 		.ascii	"ChibiOS_16.1.4/os/rt/src/chsem.c\000"
 4981      694F535F 
 4981      31362E31 
 4981      2E342F6F 
 4981      732F7274 
 4982              	.LASF100:
 4983 0709 6D5F6F77 		.ascii	"m_owner\000"
 4983      6E657200 
 4984              	.LASF31:
 4985 0711 705F6374 		.ascii	"p_ctx\000"
 4985      7800
 4986              	.LASF67:
 4987 0717 76745F66 		.ascii	"vt_func\000"
 4987      756E6300 
 4988              		.ident	"GCC: (GNU Tools for ARM Embedded Processors) 4.9.3 20150529 (release) [ARM/embedded-4_9-br
ARM GAS  /var/folders/m4/4md61f0s1_g0rzfghffqnxvr0000gn/T//ccXSh2M4.s 			page 94


DEFINED SYMBOLS
                            *ABS*:0000000000000000 chsem.c
/var/folders/m4/4md61f0s1_g0rzfghffqnxvr0000gn/T//ccXSh2M4.s:21     .text.chSemObjectInit:0000000000000000 $t
/var/folders/m4/4md61f0s1_g0rzfghffqnxvr0000gn/T//ccXSh2M4.s:27     .text.chSemObjectInit:0000000000000000 chSemObjectInit
/var/folders/m4/4md61f0s1_g0rzfghffqnxvr0000gn/T//ccXSh2M4.s:52     .text.chSemResetI:0000000000000000 $t
/var/folders/m4/4md61f0s1_g0rzfghffqnxvr0000gn/T//ccXSh2M4.s:58     .text.chSemResetI:0000000000000000 chSemResetI
/var/folders/m4/4md61f0s1_g0rzfghffqnxvr0000gn/T//ccXSh2M4.s:117    .text.chSemReset:0000000000000000 $t
/var/folders/m4/4md61f0s1_g0rzfghffqnxvr0000gn/T//ccXSh2M4.s:123    .text.chSemReset:0000000000000000 chSemReset
/var/folders/m4/4md61f0s1_g0rzfghffqnxvr0000gn/T//ccXSh2M4.s:176    .text.chSemWait:0000000000000000 $t
/var/folders/m4/4md61f0s1_g0rzfghffqnxvr0000gn/T//ccXSh2M4.s:182    .text.chSemWait:0000000000000000 chSemWait
/var/folders/m4/4md61f0s1_g0rzfghffqnxvr0000gn/T//ccXSh2M4.s:304    .text.chSemWait:0000000000000040 $d
/var/folders/m4/4md61f0s1_g0rzfghffqnxvr0000gn/T//ccXSh2M4.s:309    .text.chSemWaitS:0000000000000000 $t
/var/folders/m4/4md61f0s1_g0rzfghffqnxvr0000gn/T//ccXSh2M4.s:315    .text.chSemWaitS:0000000000000000 chSemWaitS
/var/folders/m4/4md61f0s1_g0rzfghffqnxvr0000gn/T//ccXSh2M4.s:377    .text.chSemWaitS:0000000000000030 $d
/var/folders/m4/4md61f0s1_g0rzfghffqnxvr0000gn/T//ccXSh2M4.s:384    .text.chSemWaitTimeoutS:0000000000000000 $t
/var/folders/m4/4md61f0s1_g0rzfghffqnxvr0000gn/T//ccXSh2M4.s:390    .text.chSemWaitTimeoutS:0000000000000000 chSemWaitTimeoutS
/var/folders/m4/4md61f0s1_g0rzfghffqnxvr0000gn/T//ccXSh2M4.s:471    .text.chSemWaitTimeoutS:000000000000003c $d
/var/folders/m4/4md61f0s1_g0rzfghffqnxvr0000gn/T//ccXSh2M4.s:476    .text.chSemWaitTimeout:0000000000000000 $t
/var/folders/m4/4md61f0s1_g0rzfghffqnxvr0000gn/T//ccXSh2M4.s:482    .text.chSemWaitTimeout:0000000000000000 chSemWaitTimeout
/var/folders/m4/4md61f0s1_g0rzfghffqnxvr0000gn/T//ccXSh2M4.s:532    .text.chSemSignal:0000000000000000 $t
/var/folders/m4/4md61f0s1_g0rzfghffqnxvr0000gn/T//ccXSh2M4.s:538    .text.chSemSignal:0000000000000000 chSemSignal
/var/folders/m4/4md61f0s1_g0rzfghffqnxvr0000gn/T//ccXSh2M4.s:633    .text.chSemSignalI:0000000000000000 $t
/var/folders/m4/4md61f0s1_g0rzfghffqnxvr0000gn/T//ccXSh2M4.s:639    .text.chSemSignalI:0000000000000000 chSemSignalI
/var/folders/m4/4md61f0s1_g0rzfghffqnxvr0000gn/T//ccXSh2M4.s:688    .text.chSemAddCounterI:0000000000000000 $t
/var/folders/m4/4md61f0s1_g0rzfghffqnxvr0000gn/T//ccXSh2M4.s:694    .text.chSemAddCounterI:0000000000000000 chSemAddCounterI
/var/folders/m4/4md61f0s1_g0rzfghffqnxvr0000gn/T//ccXSh2M4.s:759    .text.chSemSignalWait:0000000000000000 $t
/var/folders/m4/4md61f0s1_g0rzfghffqnxvr0000gn/T//ccXSh2M4.s:765    .text.chSemSignalWait:0000000000000000 chSemSignalWait
/var/folders/m4/4md61f0s1_g0rzfghffqnxvr0000gn/T//ccXSh2M4.s:920    .text.chSemSignalWait:0000000000000068 $d
                     .debug_frame:0000000000000010 $d

UNDEFINED SYMBOLS
chSchReadyI
chSchRescheduleS
chSchGoSleepS
ch
chSchGoSleepTimeoutS
chSchWakeupS
