ARM GAS  /var/folders/m4/4md61f0s1_g0rzfghffqnxvr0000gn/T//ccXSh2M4.s 			page 1


   1              		.syntax unified
   2              		.cpu cortex-m4
   3              		.eabi_attribute 27, 1
   4              		.eabi_attribute 28, 1
   5              		.fpu fpv4-sp-d16
   6              		.eabi_attribute 20, 1
   7              		.eabi_attribute 21, 1
   8              		.eabi_attribute 23, 3
   9              		.eabi_attribute 24, 1
  10              		.eabi_attribute 25, 1
  11              		.eabi_attribute 26, 1
  12              		.eabi_attribute 30, 2
  13              		.eabi_attribute 34, 1
  14              		.eabi_attribute 18, 4
  15              		.thumb
  16              		.file	"chsem.c"
  17              		.text
  18              	.Ltext0:
  19              		.cfi_sections	.debug_frame
  20              		.section	.text.chSemObjectInit,"ax",%progbits
  21              		.align	2
  22              		.p2align 4,,15
  23              		.global	chSemObjectInit
  24              		.thumb
  25              		.thumb_func
  26              		.type	chSemObjectInit, %function
  27              	chSemObjectInit:
  28              	.LFB231:
  29              		.file 1 "ChibiOS_16.1.4/os/rt/src/chsem.c"
  30              		.loc 1 97 0
  31              		.cfi_startproc
  32              		@ args = 0, pretend = 0, frame = 0
  33              		@ frame_needed = 0, uses_anonymous_args = 0
  34              		@ link register save eliminated.
  35              	.LVL0:
  36              	.LBB90:
  37              	.LBB91:
  38              		.file 2 "ChibiOS_16.1.4/os/rt/include/chschd.h"
  39              		.loc 2 604 0
  40 0000 0060     		str	r0, [r0]
  41              		.loc 2 605 0
  42 0002 4060     		str	r0, [r0, #4]
  43              	.LBE91:
  44              	.LBE90:
  45              		.loc 1 102 0
  46 0004 8160     		str	r1, [r0, #8]
  47 0006 7047     		bx	lr
  48              		.cfi_endproc
  49              	.LFE231:
  50              		.size	chSemObjectInit, .-chSemObjectInit
  51              		.section	.text.chSemResetI,"ax",%progbits
  52              		.align	2
  53              		.p2align 4,,15
  54              		.global	chSemResetI
  55              		.thumb
  56              		.thumb_func
  57              		.type	chSemResetI, %function
ARM GAS  /var/folders/m4/4md61f0s1_g0rzfghffqnxvr0000gn/T//ccXSh2M4.s 			page 2


  58              	chSemResetI:
  59              	.LFB233:
  60              		.loc 1 147 0
  61              		.cfi_startproc
  62              		@ args = 0, pretend = 0, frame = 0
  63              		@ frame_needed = 0, uses_anonymous_args = 0
  64              	.LVL1:
  65 0000 70B5     		push	{r4, r5, r6, lr}
  66              		.cfi_def_cfa_offset 16
  67              		.cfi_offset 4, -16
  68              		.cfi_offset 5, -12
  69              		.cfi_offset 6, -8
  70              		.cfi_offset 14, -4
  71              		.loc 1 156 0
  72 0002 8568     		ldr	r5, [r0, #8]
  73              	.LVL2:
  74              		.loc 1 157 0
  75 0004 8160     		str	r1, [r0, #8]
  76              		.loc 1 158 0
  77 0006 0135     		adds	r5, r5, #1
  78              	.LVL3:
  79 0008 002D     		cmp	r5, #0
  80 000a 0CDC     		bgt	.L2
  81 000c 0446     		mov	r4, r0
  82              		.loc 1 159 0
  83 000e 6FF00106 		mvn	r6, #1
  84              	.LVL4:
  85              	.L4:
  86              	.LBB92:
  87              	.LBB93:
  88              		.loc 2 681 0
  89 0012 6068     		ldr	r0, [r4, #4]
  90              	.LVL5:
  91              		.loc 2 683 0
  92 0014 4368     		ldr	r3, [r0, #4]
  93 0016 6360     		str	r3, [r4, #4]
  94              		.loc 2 684 0
  95 0018 1C60     		str	r4, [r3]
  96              	.LBE93:
  97              	.LBE92:
  98              		.loc 1 159 0
  99 001a FFF7FEFF 		bl	chSchReadyI
 100              	.LVL6:
 101              		.loc 1 158 0
 102 001e 0135     		adds	r5, r5, #1
 103              	.LVL7:
 104 0020 012D     		cmp	r5, #1
 105              		.loc 1 159 0
 106 0022 4662     		str	r6, [r0, #36]
 107              	.LVL8:
 108              		.loc 1 158 0
 109 0024 F5D1     		bne	.L4
 110              	.LVL9:
 111              	.L2:
 112 0026 70BD     		pop	{r4, r5, r6, pc}
 113              		.cfi_endproc
 114              	.LFE233:
ARM GAS  /var/folders/m4/4md61f0s1_g0rzfghffqnxvr0000gn/T//ccXSh2M4.s 			page 3


 115              		.size	chSemResetI, .-chSemResetI
 116              		.section	.text.chSemReset,"ax",%progbits
 117              		.align	2
 118              		.p2align 4,,15
 119              		.global	chSemReset
 120              		.thumb
 121              		.thumb_func
 122              		.type	chSemReset, %function
 123              	chSemReset:
 124              	.LFB232:
 125              		.loc 1 120 0
 126              		.cfi_startproc
 127              		@ args = 0, pretend = 0, frame = 0
 128              		@ frame_needed = 0, uses_anonymous_args = 0
 129              	.LVL10:
 130 0000 08B5     		push	{r3, lr}
 131              		.cfi_def_cfa_offset 8
 132              		.cfi_offset 3, -8
 133              		.cfi_offset 14, -4
 134              	.LBB94:
 135              	.LBB95:
 136              	.LBB96:
 137              	.LBB97:
 138              		.file 3 "ChibiOS_16.1.4/os/ext/CMSIS/include/core_cmFunc.h"
 139              		.loc 3 548 0
 140 0002 2023     		movs	r3, #32
 141              	@ 548 "ChibiOS_16.1.4/os/ext/CMSIS/include/core_cmFunc.h" 1
 142 0004 83F31188 		MSR basepri, r3
 143              	@ 0 "" 2
 144              		.thumb
 145              	.LBE97:
 146              	.LBE96:
 147              	.LBE95:
 148              	.LBE94:
 149              		.loc 1 123 0
 150 0008 FFF7FEFF 		bl	chSemResetI
 151              	.LVL11:
 152              		.loc 1 124 0
 153 000c FFF7FEFF 		bl	chSchRescheduleS
 154              	.LVL12:
 155              	.LBB98:
 156              	.LBB99:
 157              	.LBB100:
 158              	.LBB101:
 159              	.LBB102:
 160              		.loc 3 548 0
 161 0010 0023     		movs	r3, #0
 162              	@ 548 "ChibiOS_16.1.4/os/ext/CMSIS/include/core_cmFunc.h" 1
 163 0012 83F31188 		MSR basepri, r3
 164              	@ 0 "" 2
 165              		.thumb
 166 0016 08BD     		pop	{r3, pc}
 167              	.LBE102:
 168              	.LBE101:
 169              	.LBE100:
 170              	.LBE99:
 171              	.LBE98:
ARM GAS  /var/folders/m4/4md61f0s1_g0rzfghffqnxvr0000gn/T//ccXSh2M4.s 			page 4


 172              		.cfi_endproc
 173              	.LFE232:
 174              		.size	chSemReset, .-chSemReset
 175              		.section	.text.chSemWait,"ax",%progbits
 176              		.align	2
 177              		.p2align 4,,15
 178              		.global	chSemWait
 179              		.thumb
 180              		.thumb_func
 181              		.type	chSemWait, %function
 182              	chSemWait:
 183              	.LFB234:
 184              		.loc 1 175 0
 185              		.cfi_startproc
 186              		@ args = 0, pretend = 0, frame = 0
 187              		@ frame_needed = 0, uses_anonymous_args = 0
 188              	.LVL13:
 189              	.LBB118:
 190              	.LBB119:
 191              	.LBB120:
 192              	.LBB121:
 193              		.loc 3 548 0
 194 0000 2023     		movs	r3, #32
 195              	@ 548 "ChibiOS_16.1.4/os/ext/CMSIS/include/core_cmFunc.h" 1
 196 0002 83F31188 		MSR basepri, r3
 197              	@ 0 "" 2
 198              	.LVL14:
 199              		.thumb
 200              	.LBE121:
 201              	.LBE120:
 202              	.LBE119:
 203              	.LBE118:
 204              	.LBB122:
 205              	.LBB123:
 206              		.loc 1 205 0
 207 0006 8368     		ldr	r3, [r0, #8]
 208 0008 013B     		subs	r3, r3, #1
 209 000a 002B     		cmp	r3, #0
 210 000c 8360     		str	r3, [r0, #8]
 211 000e 04DB     		blt	.L16
 212              		.loc 1 213 0
 213 0010 0020     		movs	r0, #0
 214              	.LVL15:
 215              	.LBE123:
 216              	.LBE122:
 217              	.LBB131:
 218              	.LBB132:
 219              	.LBB133:
 220              	.LBB134:
 221              	.LBB135:
 222              		.loc 3 548 0
 223 0012 0023     		movs	r3, #0
 224              	@ 548 "ChibiOS_16.1.4/os/ext/CMSIS/include/core_cmFunc.h" 1
 225 0014 83F31188 		MSR basepri, r3
 226              	@ 0 "" 2
 227              		.thumb
 228              	.LBE135:
ARM GAS  /var/folders/m4/4md61f0s1_g0rzfghffqnxvr0000gn/T//ccXSh2M4.s 			page 5


 229              	.LBE134:
 230              	.LBE133:
 231              	.LBE132:
 232              	.LBE131:
 233              		.loc 1 183 0
 234 0018 7047     		bx	lr
 235              	.LVL16:
 236              	.L16:
 237              		.loc 1 175 0
 238 001a 10B5     		push	{r4, lr}
 239              		.cfi_def_cfa_offset 8
 240              		.cfi_offset 4, -8
 241              		.cfi_offset 14, -4
 242              	.LBB140:
 243              	.LBB130:
 244              	.LBB124:
 245              	.LBB125:
 246              		.loc 1 206 0
 247 001c 084C     		ldr	r4, .L17
 248 001e A269     		ldr	r2, [r4, #24]
 249 0020 5062     		str	r0, [r2, #36]
 250              	.LBB126:
 251              	.LBB127:
 252              		.loc 2 666 0
 253 0022 4168     		ldr	r1, [r0, #4]
 254 0024 5160     		str	r1, [r2, #4]
 255 0026 0346     		mov	r3, r0
 256              	.LVL17:
 257              		.loc 2 665 0
 258 0028 1060     		str	r0, [r2]
 259              		.loc 2 667 0
 260 002a 0A60     		str	r2, [r1]
 261              	.LBE127:
 262              	.LBE126:
 263              		.loc 1 208 0
 264 002c 0520     		movs	r0, #5
 265              	.LVL18:
 266              	.LBB129:
 267              	.LBB128:
 268              		.loc 2 668 0
 269 002e 5A60     		str	r2, [r3, #4]
 270              	.LBE128:
 271              	.LBE129:
 272              		.loc 1 208 0
 273 0030 FFF7FEFF 		bl	chSchGoSleepS
 274              	.LVL19:
 275              		.loc 1 210 0
 276 0034 A369     		ldr	r3, [r4, #24]
 277 0036 586A     		ldr	r0, [r3, #36]
 278              	.LVL20:
 279              	.LBE125:
 280              	.LBE124:
 281              	.LBE130:
 282              	.LBE140:
 283              	.LBB141:
 284              	.LBB139:
 285              	.LBB138:
ARM GAS  /var/folders/m4/4md61f0s1_g0rzfghffqnxvr0000gn/T//ccXSh2M4.s 			page 6


 286              	.LBB137:
 287              	.LBB136:
 288              		.loc 3 548 0
 289 0038 0023     		movs	r3, #0
 290              	@ 548 "ChibiOS_16.1.4/os/ext/CMSIS/include/core_cmFunc.h" 1
 291 003a 83F31188 		MSR basepri, r3
 292              	@ 0 "" 2
 293              		.thumb
 294              	.LBE136:
 295              	.LBE137:
 296              	.LBE138:
 297              	.LBE139:
 298              	.LBE141:
 299              		.loc 1 183 0
 300 003e 10BD     		pop	{r4, pc}
 301              	.L18:
 302              		.align	2
 303              	.L17:
 304 0040 00000000 		.word	ch
 305              		.cfi_endproc
 306              	.LFE234:
 307              		.size	chSemWait, .-chSemWait
 308              		.section	.text.chSemWaitS,"ax",%progbits
 309              		.align	2
 310              		.p2align 4,,15
 311              		.global	chSemWaitS
 312              		.thumb
 313              		.thumb_func
 314              		.type	chSemWaitS, %function
 315              	chSemWaitS:
 316              	.LFB235:
 317              		.loc 1 197 0
 318              		.cfi_startproc
 319              		@ args = 0, pretend = 0, frame = 0
 320              		@ frame_needed = 0, uses_anonymous_args = 0
 321              	.LVL21:
 322              		.loc 1 205 0
 323 0000 8368     		ldr	r3, [r0, #8]
 324 0002 013B     		subs	r3, r3, #1
 325 0004 002B     		cmp	r3, #0
 326 0006 8360     		str	r3, [r0, #8]
 327 0008 01DB     		blt	.L24
 328              		.loc 1 213 0
 329 000a 0020     		movs	r0, #0
 330              	.LVL22:
 331 000c 7047     		bx	lr
 332              	.LVL23:
 333              	.L24:
 334              		.loc 1 197 0
 335 000e 10B5     		push	{r4, lr}
 336              		.cfi_def_cfa_offset 8
 337              		.cfi_offset 4, -8
 338              		.cfi_offset 14, -4
 339              	.LBB146:
 340              	.LBB147:
 341              		.loc 1 206 0
 342 0010 074C     		ldr	r4, .L25
ARM GAS  /var/folders/m4/4md61f0s1_g0rzfghffqnxvr0000gn/T//ccXSh2M4.s 			page 7


 343 0012 A269     		ldr	r2, [r4, #24]
 344 0014 5062     		str	r0, [r2, #36]
 345              	.LBB148:
 346              	.LBB149:
 347              		.loc 2 666 0
 348 0016 4168     		ldr	r1, [r0, #4]
 349 0018 5160     		str	r1, [r2, #4]
 350 001a 0346     		mov	r3, r0
 351              	.LVL24:
 352              		.loc 2 665 0
 353 001c 1060     		str	r0, [r2]
 354              		.loc 2 667 0
 355 001e 0A60     		str	r2, [r1]
 356              	.LBE149:
 357              	.LBE148:
 358              		.loc 1 208 0
 359 0020 0520     		movs	r0, #5
 360              	.LVL25:
 361              	.LBB151:
 362              	.LBB150:
 363              		.loc 2 668 0
 364 0022 5A60     		str	r2, [r3, #4]
 365              	.LBE150:
 366              	.LBE151:
 367              		.loc 1 208 0
 368 0024 FFF7FEFF 		bl	chSchGoSleepS
 369              	.LVL26:
 370              		.loc 1 210 0
 371 0028 A369     		ldr	r3, [r4, #24]
 372 002a 586A     		ldr	r0, [r3, #36]
 373 002c 10BD     		pop	{r4, pc}
 374              	.L26:
 375 002e 00BF     		.align	2
 376              	.L25:
 377 0030 00000000 		.word	ch
 378              	.LBE147:
 379              	.LBE146:
 380              		.cfi_endproc
 381              	.LFE235:
 382              		.size	chSemWaitS, .-chSemWaitS
 383              		.section	.text.chSemWaitTimeoutS,"ax",%progbits
 384              		.align	2
 385              		.p2align 4,,15
 386              		.global	chSemWaitTimeoutS
 387              		.thumb
 388              		.thumb_func
 389              		.type	chSemWaitTimeoutS, %function
 390              	chSemWaitTimeoutS:
 391              	.LFB237:
 392              		.loc 1 264 0
 393              		.cfi_startproc
 394              		@ args = 0, pretend = 0, frame = 0
 395              		@ frame_needed = 0, uses_anonymous_args = 0
 396              		@ link register save eliminated.
 397              	.LVL27:
 398 0000 0346     		mov	r3, r0
 399              		.loc 1 272 0
ARM GAS  /var/folders/m4/4md61f0s1_g0rzfghffqnxvr0000gn/T//ccXSh2M4.s 			page 8


 400 0002 8068     		ldr	r0, [r0, #8]
 401              	.LVL28:
 402 0004 421E     		subs	r2, r0, #1
 403 0006 002A     		cmp	r2, #0
 404 0008 9A60     		str	r2, [r3, #8]
 405 000a 01DB     		blt	.L33
 406              		.loc 1 284 0
 407 000c 0020     		movs	r0, #0
 408 000e 7047     		bx	lr
 409              	.L33:
 410              		.loc 1 264 0
 411 0010 10B4     		push	{r4}
 412              		.cfi_def_cfa_offset 4
 413              		.cfi_offset 4, -4
 414              		.loc 1 273 0
 415 0012 61B1     		cbz	r1, .L34
 416              	.LVL29:
 417              	.LBB156:
 418              	.LBB157:
 419              		.loc 1 278 0
 420 0014 094A     		ldr	r2, .L35
 421 0016 9269     		ldr	r2, [r2, #24]
 422 0018 5362     		str	r3, [r2, #36]
 423              	.LVL30:
 424              	.LBB158:
 425              	.LBB159:
 426              		.loc 2 666 0
 427 001a 5C68     		ldr	r4, [r3, #4]
 428              	.LBE159:
 429              	.LBE158:
 430              		.loc 1 281 0
 431 001c 0520     		movs	r0, #5
 432              	.LBB161:
 433              	.LBB160:
 434              		.loc 2 666 0
 435 001e 82E81800 		stmia	r2, {r3, r4}
 436              		.loc 2 667 0
 437 0022 2260     		str	r2, [r4]
 438              		.loc 2 668 0
 439 0024 5A60     		str	r2, [r3, #4]
 440              	.LBE160:
 441              	.LBE161:
 442              	.LBE157:
 443              	.LBE156:
 444              		.loc 1 285 0
 445 0026 5DF8044B 		ldr	r4, [sp], #4
 446              		.cfi_remember_state
 447              		.cfi_restore 4
 448              		.cfi_def_cfa_offset 0
 449              	.LBB163:
 450              	.LBB162:
 451              		.loc 1 281 0
 452 002a FFF7FEBF 		b	chSchGoSleepTimeoutS
 453              	.LVL31:
 454              	.L34:
 455              		.cfi_restore_state
 456              	.LBE162:
ARM GAS  /var/folders/m4/4md61f0s1_g0rzfghffqnxvr0000gn/T//ccXSh2M4.s 			page 9


 457              	.LBE163:
 458              		.loc 1 274 0
 459 002e 9860     		str	r0, [r3, #8]
 460              		.loc 1 285 0
 461 0030 5DF8044B 		ldr	r4, [sp], #4
 462              		.cfi_restore 4
 463              		.cfi_def_cfa_offset 0
 464              		.loc 1 276 0
 465 0034 4FF0FF30 		mov	r0, #-1
 466              		.loc 1 285 0
 467 0038 7047     		bx	lr
 468              	.L36:
 469 003a 00BF     		.align	2
 470              	.L35:
 471 003c 00000000 		.word	ch
 472              		.cfi_endproc
 473              	.LFE237:
 474              		.size	chSemWaitTimeoutS, .-chSemWaitTimeoutS
 475              		.section	.text.chSemWaitTimeout,"ax",%progbits
 476              		.align	2
 477              		.p2align 4,,15
 478              		.global	chSemWaitTimeout
 479              		.thumb
 480              		.thumb_func
 481              		.type	chSemWaitTimeout, %function
 482              	chSemWaitTimeout:
 483              	.LFB236:
 484              		.loc 1 235 0
 485              		.cfi_startproc
 486              		@ args = 0, pretend = 0, frame = 0
 487              		@ frame_needed = 0, uses_anonymous_args = 0
 488              	.LVL32:
 489 0000 08B5     		push	{r3, lr}
 490              		.cfi_def_cfa_offset 8
 491              		.cfi_offset 3, -8
 492              		.cfi_offset 14, -4
 493              	.LBB164:
 494              	.LBB165:
 495              	.LBB166:
 496              	.LBB167:
 497              		.loc 3 548 0
 498 0002 2023     		movs	r3, #32
 499              	@ 548 "ChibiOS_16.1.4/os/ext/CMSIS/include/core_cmFunc.h" 1
 500 0004 83F31188 		MSR basepri, r3
 501              	@ 0 "" 2
 502              		.thumb
 503              	.LBE167:
 504              	.LBE166:
 505              	.LBE165:
 506              	.LBE164:
 507              		.loc 1 239 0
 508 0008 FFF7FEFF 		bl	chSemWaitTimeoutS
 509              	.LVL33:
 510              	.LBB168:
 511              	.LBB169:
 512              	.LBB170:
 513              	.LBB171:
ARM GAS  /var/folders/m4/4md61f0s1_g0rzfghffqnxvr0000gn/T//ccXSh2M4.s 			page 10


 514              	.LBB172:
 515              		.loc 3 548 0
 516 000c 0023     		movs	r3, #0
 517              	@ 548 "ChibiOS_16.1.4/os/ext/CMSIS/include/core_cmFunc.h" 1
 518 000e 83F31188 		MSR basepri, r3
 519              	@ 0 "" 2
 520              		.thumb
 521              	.LBE172:
 522              	.LBE171:
 523              	.LBE170:
 524              	.LBE169:
 525              	.LBE168:
 526              		.loc 1 243 0
 527 0012 08BD     		pop	{r3, pc}
 528              		.cfi_endproc
 529              	.LFE236:
 530              		.size	chSemWaitTimeout, .-chSemWaitTimeout
 531              		.section	.text.chSemSignal,"ax",%progbits
 532              		.align	2
 533              		.p2align 4,,15
 534              		.global	chSemSignal
 535              		.thumb
 536              		.thumb_func
 537              		.type	chSemSignal, %function
 538              	chSemSignal:
 539              	.LFB238:
 540              		.loc 1 294 0
 541              		.cfi_startproc
 542              		@ args = 0, pretend = 0, frame = 0
 543              		@ frame_needed = 0, uses_anonymous_args = 0
 544              	.LVL34:
 545 0000 08B5     		push	{r3, lr}
 546              		.cfi_def_cfa_offset 8
 547              		.cfi_offset 3, -8
 548              		.cfi_offset 14, -4
 549              	.LBB173:
 550              	.LBB174:
 551              	.LBB175:
 552              	.LBB176:
 553              		.loc 3 548 0
 554 0002 2023     		movs	r3, #32
 555              	@ 548 "ChibiOS_16.1.4/os/ext/CMSIS/include/core_cmFunc.h" 1
 556 0004 83F31188 		MSR basepri, r3
 557              	@ 0 "" 2
 558              		.thumb
 559              	.LBE176:
 560              	.LBE175:
 561              	.LBE174:
 562              	.LBE173:
 563              		.loc 1 302 0
 564 0008 8368     		ldr	r3, [r0, #8]
 565 000a 0133     		adds	r3, r3, #1
 566 000c 002B     		cmp	r3, #0
 567 000e 8360     		str	r3, [r0, #8]
 568 0010 03DD     		ble	.L42
 569              	.LVL35:
 570              	.LBB177:
ARM GAS  /var/folders/m4/4md61f0s1_g0rzfghffqnxvr0000gn/T//ccXSh2M4.s 			page 11


 571              	.LBB178:
 572              	.LBB179:
 573              	.LBB180:
 574              	.LBB181:
 575              		.loc 3 548 0
 576 0012 0023     		movs	r3, #0
 577              	@ 548 "ChibiOS_16.1.4/os/ext/CMSIS/include/core_cmFunc.h" 1
 578 0014 83F31188 		MSR basepri, r3
 579              	@ 0 "" 2
 580              		.thumb
 581 0018 08BD     		pop	{r3, pc}
 582              	.LVL36:
 583              	.L42:
 584 001a 0346     		mov	r3, r0
 585              	.LVL37:
 586              	.LBE181:
 587              	.LBE180:
 588              	.LBE179:
 589              	.LBE178:
 590              	.LBE177:
 591              	.LBB186:
 592              	.LBB187:
 593              		.loc 2 672 0
 594 001c 0068     		ldr	r0, [r0]
 595              	.LVL38:
 596              		.loc 2 674 0
 597 001e 0268     		ldr	r2, [r0]
 598 0020 1A60     		str	r2, [r3]
 599              	.LBE187:
 600              	.LBE186:
 601              		.loc 1 303 0
 602 0022 0021     		movs	r1, #0
 603              	.LBB189:
 604              	.LBB188:
 605              		.loc 2 675 0
 606 0024 5360     		str	r3, [r2, #4]
 607              	.LBE188:
 608              	.LBE189:
 609              		.loc 1 303 0
 610 0026 FFF7FEFF 		bl	chSchWakeupS
 611              	.LVL39:
 612              	.LBB190:
 613              	.LBB185:
 614              	.LBB184:
 615              	.LBB183:
 616              	.LBB182:
 617              		.loc 3 548 0
 618 002a 0023     		movs	r3, #0
 619              	@ 548 "ChibiOS_16.1.4/os/ext/CMSIS/include/core_cmFunc.h" 1
 620 002c 83F31188 		MSR basepri, r3
 621              	@ 0 "" 2
 622              		.thumb
 623 0030 08BD     		pop	{r3, pc}
 624              	.LBE182:
 625              	.LBE183:
 626              	.LBE184:
 627              	.LBE185:
ARM GAS  /var/folders/m4/4md61f0s1_g0rzfghffqnxvr0000gn/T//ccXSh2M4.s 			page 12


 628              	.LBE190:
 629              		.cfi_endproc
 630              	.LFE238:
 631              		.size	chSemSignal, .-chSemSignal
 632 0032 00BF     		.section	.text.chSemSignalI,"ax",%progbits
 633              		.align	2
 634              		.p2align 4,,15
 635              		.global	chSemSignalI
 636              		.thumb
 637              		.thumb_func
 638              		.type	chSemSignalI, %function
 639              	chSemSignalI:
 640              	.LFB239:
 641              		.loc 1 319 0
 642              		.cfi_startproc
 643              		@ args = 0, pretend = 0, frame = 0
 644              		@ frame_needed = 0, uses_anonymous_args = 0
 645              		@ link register save eliminated.
 646              	.LVL40:
 647              		.loc 1 327 0
 648 0000 8368     		ldr	r3, [r0, #8]
 649 0002 0133     		adds	r3, r3, #1
 650 0004 002B     		cmp	r3, #0
 651 0006 8360     		str	r3, [r0, #8]
 652 0008 00DD     		ble	.L45
 653 000a 7047     		bx	lr
 654              	.L45:
 655              	.LVL41:
 656              	.LBB191:
 657              	.LBB192:
 658              	.LBB193:
 659              		.loc 2 672 0
 660 000c 0368     		ldr	r3, [r0]
 661              	.LVL42:
 662              		.loc 2 674 0
 663 000e 1A68     		ldr	r2, [r3]
 664 0010 0260     		str	r2, [r0]
 665              	.LBE193:
 666              	.LBE192:
 667              		.loc 1 331 0
 668 0012 0021     		movs	r1, #0
 669              	.LBB195:
 670              	.LBB194:
 671              		.loc 2 675 0
 672 0014 5060     		str	r0, [r2, #4]
 673              	.LBE194:
 674              	.LBE195:
 675              		.loc 1 332 0
 676 0016 1846     		mov	r0, r3
 677              	.LVL43:
 678              		.loc 1 331 0
 679 0018 5962     		str	r1, [r3, #36]
 680              		.loc 1 332 0
 681 001a FFF7FEBF 		b	chSchReadyI
 682              	.LVL44:
 683              	.LBE191:
 684              		.cfi_endproc
ARM GAS  /var/folders/m4/4md61f0s1_g0rzfghffqnxvr0000gn/T//ccXSh2M4.s 			page 13


 685              	.LFE239:
 686              		.size	chSemSignalI, .-chSemSignalI
 687 001e 00BF     		.section	.text.chSemAddCounterI,"ax",%progbits
 688              		.align	2
 689              		.p2align 4,,15
 690              		.global	chSemAddCounterI
 691              		.thumb
 692              		.thumb_func
 693              		.type	chSemAddCounterI, %function
 694              	chSemAddCounterI:
 695              	.LFB240:
 696              		.loc 1 349 0
 697              		.cfi_startproc
 698              		@ args = 0, pretend = 0, frame = 0
 699              		@ frame_needed = 0, uses_anonymous_args = 0
 700              	.LVL45:
 701 0000 70B5     		push	{r4, r5, r6, lr}
 702              		.cfi_def_cfa_offset 16
 703              		.cfi_offset 4, -16
 704              		.cfi_offset 5, -12
 705              		.cfi_offset 6, -8
 706              		.cfi_offset 14, -4
 707              		.loc 1 357 0
 708 0002 0C1E     		subs	r4, r1, #0
 709 0004 12DD     		ble	.L46
 710 0006 0546     		mov	r5, r0
 711              		.loc 1 359 0
 712 0008 0026     		movs	r6, #0
 713 000a 01E0     		b	.L49
 714              	.LVL46:
 715              	.L48:
 716              		.loc 1 357 0
 717 000c 013C     		subs	r4, r4, #1
 718              	.LVL47:
 719 000e 0DD0     		beq	.L46
 720              	.LVL48:
 721              	.L49:
 722              		.loc 1 358 0
 723 0010 AB68     		ldr	r3, [r5, #8]
 724 0012 0133     		adds	r3, r3, #1
 725 0014 002B     		cmp	r3, #0
 726 0016 AB60     		str	r3, [r5, #8]
 727 0018 F8DC     		bgt	.L48
 728              	.LVL49:
 729              	.LBB196:
 730              	.LBB197:
 731              		.loc 2 672 0
 732 001a 2868     		ldr	r0, [r5]
 733              	.LVL50:
 734              		.loc 2 674 0
 735 001c 0368     		ldr	r3, [r0]
 736 001e 2B60     		str	r3, [r5]
 737              		.loc 2 675 0
 738 0020 5D60     		str	r5, [r3, #4]
 739              	.LBE197:
 740              	.LBE196:
 741              		.loc 1 359 0
ARM GAS  /var/folders/m4/4md61f0s1_g0rzfghffqnxvr0000gn/T//ccXSh2M4.s 			page 14


 742 0022 FFF7FEFF 		bl	chSchReadyI
 743              	.LVL51:
 744              		.loc 1 357 0
 745 0026 013C     		subs	r4, r4, #1
 746              	.LVL52:
 747              		.loc 1 359 0
 748 0028 4662     		str	r6, [r0, #36]
 749              	.LVL53:
 750              		.loc 1 357 0
 751 002a F1D1     		bne	.L49
 752              	.LVL54:
 753              	.L46:
 754 002c 70BD     		pop	{r4, r5, r6, pc}
 755              		.cfi_endproc
 756              	.LFE240:
 757              		.size	chSemAddCounterI, .-chSemAddCounterI
 758 002e 00BF     		.section	.text.chSemSignalWait,"ax",%progbits
 759              		.align	2
 760              		.p2align 4,,15
 761              		.global	chSemSignalWait
 762              		.thumb
 763              		.thumb_func
 764              		.type	chSemSignalWait, %function
 765              	chSemSignalWait:
 766              	.LFB241:
 767              		.loc 1 378 0
 768              		.cfi_startproc
 769              		@ args = 0, pretend = 0, frame = 8
 770              		@ frame_needed = 0, uses_anonymous_args = 0
 771              	.LVL55:
 772 0000 10B5     		push	{r4, lr}
 773              		.cfi_def_cfa_offset 8
 774              		.cfi_offset 4, -8
 775              		.cfi_offset 14, -4
 776 0002 0246     		mov	r2, r0
 777 0004 82B0     		sub	sp, sp, #8
 778              		.cfi_def_cfa_offset 16
 779              	.LBB198:
 780              	.LBB199:
 781              	.LBB200:
 782              	.LBB201:
 783              		.loc 3 548 0
 784 0006 2023     		movs	r3, #32
 785              	@ 548 "ChibiOS_16.1.4/os/ext/CMSIS/include/core_cmFunc.h" 1
 786 0008 83F31188 		MSR basepri, r3
 787              	@ 0 "" 2
 788              		.thumb
 789              	.LBE201:
 790              	.LBE200:
 791              	.LBE199:
 792              	.LBE198:
 793              		.loc 1 390 0
 794 000c 8368     		ldr	r3, [r0, #8]
 795 000e 0133     		adds	r3, r3, #1
 796 0010 002B     		cmp	r3, #0
 797 0012 8360     		str	r3, [r0, #8]
 798 0014 1DDD     		ble	.L58
ARM GAS  /var/folders/m4/4md61f0s1_g0rzfghffqnxvr0000gn/T//ccXSh2M4.s 			page 15


 799              	.LVL56:
 800              	.L54:
 801              		.loc 1 393 0
 802 0016 8B68     		ldr	r3, [r1, #8]
 803 0018 013B     		subs	r3, r3, #1
 804 001a 002B     		cmp	r3, #0
 805 001c 8B60     		str	r3, [r1, #8]
 806 001e 07DB     		blt	.L59
 807              		.loc 1 401 0
 808 0020 FFF7FEFF 		bl	chSchRescheduleS
 809              	.LVL57:
 810              		.loc 1 402 0
 811 0024 0020     		movs	r0, #0
 812              	.LVL58:
 813              	.LBB202:
 814              	.LBB203:
 815              	.LBB204:
 816              	.LBB205:
 817              	.LBB206:
 818              		.loc 3 548 0
 819 0026 0023     		movs	r3, #0
 820              	@ 548 "ChibiOS_16.1.4/os/ext/CMSIS/include/core_cmFunc.h" 1
 821 0028 83F31188 		MSR basepri, r3
 822              	@ 0 "" 2
 823              		.thumb
 824              	.LBE206:
 825              	.LBE205:
 826              	.LBE204:
 827              	.LBE203:
 828              	.LBE202:
 829              		.loc 1 407 0
 830 002c 02B0     		add	sp, sp, #8
 831              		.cfi_remember_state
 832              		.cfi_def_cfa_offset 8
 833              		@ sp needed
 834 002e 10BD     		pop	{r4, pc}
 835              	.LVL59:
 836              	.L59:
 837              		.cfi_restore_state
 838              	.LBB211:
 839              		.loc 1 394 0
 840 0030 0D4A     		ldr	r2, .L60
 841              	.LBB212:
 842              	.LBB213:
 843              		.loc 2 666 0
 844 0032 4B68     		ldr	r3, [r1, #4]
 845              	.LBE213:
 846              	.LBE212:
 847              		.loc 1 394 0
 848 0034 9469     		ldr	r4, [r2, #24]
 849              	.LVL60:
 850              		.loc 1 397 0
 851 0036 0520     		movs	r0, #5
 852              	.LBB215:
 853              	.LBB214:
 854              		.loc 2 666 0
 855 0038 84E80A00 		stmia	r4, {r1, r3}
ARM GAS  /var/folders/m4/4md61f0s1_g0rzfghffqnxvr0000gn/T//ccXSh2M4.s 			page 16


 856              		.loc 2 667 0
 857 003c 1C60     		str	r4, [r3]
 858              		.loc 2 668 0
 859 003e 4C60     		str	r4, [r1, #4]
 860              	.LBE214:
 861              	.LBE215:
 862              		.loc 1 396 0
 863 0040 6162     		str	r1, [r4, #36]
 864              		.loc 1 397 0
 865 0042 FFF7FEFF 		bl	chSchGoSleepS
 866              	.LVL61:
 867              		.loc 1 398 0
 868 0046 606A     		ldr	r0, [r4, #36]
 869              	.LVL62:
 870              	.LBE211:
 871              	.LBB216:
 872              	.LBB210:
 873              	.LBB209:
 874              	.LBB208:
 875              	.LBB207:
 876              		.loc 3 548 0
 877 0048 0023     		movs	r3, #0
 878              	@ 548 "ChibiOS_16.1.4/os/ext/CMSIS/include/core_cmFunc.h" 1
 879 004a 83F31188 		MSR basepri, r3
 880              	@ 0 "" 2
 881              		.thumb
 882              	.LBE207:
 883              	.LBE208:
 884              	.LBE209:
 885              	.LBE210:
 886              	.LBE216:
 887              		.loc 1 407 0
 888 004e 02B0     		add	sp, sp, #8
 889              		.cfi_remember_state
 890              		.cfi_def_cfa_offset 8
 891              		@ sp needed
 892 0050 10BD     		pop	{r4, pc}
 893              	.LVL63:
 894              	.L58:
 895              		.cfi_restore_state
 896              	.LBB217:
 897              	.LBB218:
 898              		.loc 2 672 0
 899 0052 0068     		ldr	r0, [r0]
 900              	.LVL64:
 901 0054 0191     		str	r1, [sp, #4]
 902              	.LVL65:
 903              		.loc 2 674 0
 904 0056 0368     		ldr	r3, [r0]
 905 0058 1360     		str	r3, [r2]
 906              		.loc 2 675 0
 907 005a 5A60     		str	r2, [r3, #4]
 908              	.LBE218:
 909              	.LBE217:
 910              		.loc 1 391 0
 911 005c FFF7FEFF 		bl	chSchReadyI
 912              	.LVL66:
ARM GAS  /var/folders/m4/4md61f0s1_g0rzfghffqnxvr0000gn/T//ccXSh2M4.s 			page 17


 913 0060 0023     		movs	r3, #0
 914 0062 4362     		str	r3, [r0, #36]
 915 0064 0199     		ldr	r1, [sp, #4]
 916 0066 D6E7     		b	.L54
 917              	.L61:
 918              		.align	2
 919              	.L60:
 920 0068 00000000 		.word	ch
 921              		.cfi_endproc
 922              	.LFE241:
 923              		.size	chSemSignalWait, .-chSemSignalWait
 924              		.text
 925              	.Letext0:
 926              		.file 4 "/usr/local/Cellar/gcc-arm-none-eabi-49/20150609/arm-none-eabi/include/machine/_default_ty
 927              		.file 5 "/usr/local/Cellar/gcc-arm-none-eabi-49/20150609/arm-none-eabi/include/sys/_stdint.h"
 928              		.file 6 "ChibiOS_16.1.4/os/rt/ports/ARMCMx/compilers/GCC/chtypes.h"
 929              		.file 7 "ChibiOS_16.1.4/os/rt/include/chsystypes.h"
 930              		.file 8 "ChibiOS_16.1.4/os/rt/ports/ARMCMx/chcore.h"
 931              		.file 9 "ChibiOS_16.1.4/os/rt/ports/ARMCMx/chcore_v7m.h"
 932              		.file 10 "ChibiOS_16.1.4/os/rt/include/chtm.h"
 933              		.file 11 "ChibiOS_16.1.4/os/rt/include/chsem.h"
 934              		.file 12 "ChibiOS_16.1.4/os/rt/include/chmtx.h"
 935              		.file 13 "ChibiOS_16.1.4/os/rt/include/chsys.h"
 936              		.file 14 "ChibiOS_16.1.4/os/ext/CMSIS/include/core_cm4.h"