ARM GAS  /var/folders/m4/4md61f0s1_g0rzfghffqnxvr0000gn/T//ccCW3rgC.s 			page 1


   1              		.syntax unified
   2              		.cpu cortex-m4
   3              		.eabi_attribute 27, 1
   4              		.eabi_attribute 28, 1
   5              		.fpu fpv4-sp-d16
   6              		.eabi_attribute 20, 1
   7              		.eabi_attribute 21, 1
   8              		.eabi_attribute 23, 3
   9              		.eabi_attribute 24, 1
  10              		.eabi_attribute 25, 1
  11              		.eabi_attribute 26, 1
  12              		.eabi_attribute 30, 2
  13              		.eabi_attribute 34, 1
  14              		.eabi_attribute 18, 4
  15              		.thumb
  16              		.file	"chthreads.c"
  17              		.text
  18              	.Ltext0:
  19              		.cfi_sections	.debug_frame
  20              		.section	.text._thread_init,"ax",%progbits
  21              		.align	2
  22              		.p2align 4,,15
  23              		.global	_thread_init
  24              		.thumb
  25              		.thumb_func
  26              		.type	_thread_init, %function
  27              	_thread_init:
  28              	.LFB231:
  29              		.file 1 "ChibiOS_16.1.4/os/rt/src/chthreads.c"
  30              		.loc 1 91 0
  31              		.cfi_startproc
  32              		@ args = 0, pretend = 0, frame = 0
  33              		@ frame_needed = 0, uses_anonymous_args = 0
  34              	.LVL0:
  35 0000 2DE9F041 		push	{r4, r5, r6, r7, r8, lr}
  36              		.cfi_def_cfa_offset 24
  37              		.cfi_offset 4, -24
  38              		.cfi_offset 5, -20
  39              		.cfi_offset 6, -16
  40              		.cfi_offset 7, -12
  41              		.cfi_offset 8, -8
  42              		.cfi_offset 14, -4
  43              		.loc 1 114 0
  44 0004 114C     		ldr	r4, .L3
  45              		.loc 1 100 0
  46 0006 0164     		str	r1, [r0, #64]
  47              		.loc 1 114 0
  48 0008 6669     		ldr	r6, [r4, #20]
  49 000a 4661     		str	r6, [r0, #20]
  50              		.loc 1 95 0
  51 000c 0022     		movs	r2, #0
  52              		.loc 1 120 0
  53 000e 00F12C05 		add	r5, r0, #44
  54              		.loc 1 94 0
  55 0012 4FF00208 		mov	r8, #2
  56              		.loc 1 97 0
  57 0016 4FF0040C 		mov	ip, #4
ARM GAS  /var/folders/m4/4md61f0s1_g0rzfghffqnxvr0000gn/T//ccCW3rgC.s 			page 2


  58              		.loc 1 110 0
  59 001a 4FF0010E 		mov	lr, #1
  60              		.loc 1 117 0
  61 001e 00F12807 		add	r7, r0, #40
  62              		.loc 1 93 0
  63 0022 8160     		str	r1, [r0, #8]
  64              		.loc 1 114 0
  65 0024 0461     		str	r4, [r0, #16]
  66              		.loc 1 94 0
  67 0026 80F81C80 		strb	r8, [r0, #28]
  68              		.loc 1 97 0
  69 002a 80F81FC0 		strb	ip, [r0, #31]
  70              		.loc 1 110 0
  71 002e 80F81EE0 		strb	lr, [r0, #30]
  72              		.loc 1 95 0
  73 0032 4277     		strb	r2, [r0, #29]
  74              		.loc 1 101 0
  75 0034 C263     		str	r2, [r0, #60]
  76              		.loc 1 104 0
  77 0036 8263     		str	r2, [r0, #56]
  78              		.loc 1 107 0
  79 0038 0262     		str	r2, [r0, #32]
  80              		.loc 1 113 0
  81 003a 8261     		str	r2, [r0, #24]
  82              		.loc 1 114 0
  83 003c 3061     		str	r0, [r6, #16]
  84 003e 6061     		str	r0, [r4, #20]
  85              	.LVL1:
  86              	.LBB184:
  87              	.LBB185:
  88              		.file 2 "ChibiOS_16.1.4/os/rt/include/chschd.h"
  89              		.loc 2 566 0
  90 0040 8762     		str	r7, [r0, #40]
  91              	.LBE185:
  92              	.LBE184:
  93              	.LBB186:
  94              	.LBB187:
  95              		.loc 2 604 0
  96 0042 C562     		str	r5, [r0, #44]
  97              		.loc 2 605 0
  98 0044 0563     		str	r5, [r0, #48]
  99              	.LBE187:
 100              	.LBE186:
 101              		.loc 1 132 0
 102 0046 BDE8F081 		pop	{r4, r5, r6, r7, r8, pc}
 103              	.LVL2:
 104              	.L4:
 105 004a 00BF     		.align	2
 106              	.L3:
 107 004c 00000000 		.word	ch
 108              		.cfi_endproc
 109              	.LFE231:
 110              		.size	_thread_init, .-_thread_init
 111              		.section	.text.chThdCreateI,"ax",%progbits
 112              		.align	2
 113              		.p2align 4,,15
 114              		.global	chThdCreateI
ARM GAS  /var/folders/m4/4md61f0s1_g0rzfghffqnxvr0000gn/T//ccCW3rgC.s 			page 3


 115              		.thumb
 116              		.thumb_func
 117              		.type	chThdCreateI, %function
 118              	chThdCreateI:
 119              	.LFB232:
 120              		.loc 1 177 0
 121              		.cfi_startproc
 122              		@ args = 4, pretend = 0, frame = 0
 123              		@ frame_needed = 0, uses_anonymous_args = 0
 124              	.LVL3:
 125 0000 2DE9F04F 		push	{r4, r5, r6, r7, r8, r9, r10, fp, lr}
 126              		.cfi_def_cfa_offset 36
 127              		.cfi_offset 4, -36
 128              		.cfi_offset 5, -32
 129              		.cfi_offset 6, -28
 130              		.cfi_offset 7, -24
 131              		.cfi_offset 8, -20
 132              		.cfi_offset 9, -16
 133              		.cfi_offset 10, -12
 134              		.cfi_offset 11, -8
 135              		.cfi_offset 14, -4
 136              		.loc 1 186 0
 137 0004 6439     		subs	r1, r1, #100
 138              	.LVL4:
 139              	.LBB188:
 140              	.LBB189:
 141              		.loc 1 114 0
 142 0006 184F     		ldr	r7, .L7
 143              	.LBE189:
 144              	.LBE188:
 145              		.loc 1 186 0
 146 0008 DFF86090 		ldr	r9, .L7+4
 147              	.LBB199:
 148              	.LBB194:
 149              		.loc 1 114 0
 150 000c D7F814E0 		ldr	lr, [r7, #20]
 151              	.LBE194:
 152              	.LBE199:
 153              		.loc 1 186 0
 154 0010 099E     		ldr	r6, [sp, #36]
 155 0012 0144     		add	r1, r1, r0
 156              	.LVL5:
 157              	.LBB200:
 158              	.LBB195:
 159              		.loc 1 95 0
 160 0014 0025     		movs	r5, #0
 161              	.LBE195:
 162              	.LBE200:
 163              		.loc 1 186 0
 164 0016 C160     		str	r1, [r0, #12]
 165              	.LBB201:
 166              	.LBB196:
 167              		.loc 1 94 0
 168 0018 4FF0020B 		mov	fp, #2
 169              	.LBE196:
 170              	.LBE201:
 171              		.loc 1 186 0
ARM GAS  /var/folders/m4/4md61f0s1_g0rzfghffqnxvr0000gn/T//ccCW3rgC.s 			page 4


 172 001c 0B64     		str	r3, [r1, #64]
 173              	.LBB202:
 174              	.LBB197:
 175              		.loc 1 97 0
 176 001e 4FF0040A 		mov	r10, #4
 177              		.loc 1 120 0
 178 0022 00F12C03 		add	r3, r0, #44
 179              	.LVL6:
 180              		.loc 1 110 0
 181 0026 4FF00108 		mov	r8, #1
 182              		.loc 1 117 0
 183 002a 00F1280C 		add	ip, r0, #40
 184              	.LBE197:
 185              	.LBE202:
 186              		.loc 1 186 0
 187 002e 4E64     		str	r6, [r1, #68]
 188 0030 C1F86090 		str	r9, [r1, #96]
 189              	.LVL7:
 190              	.LBB203:
 191              	.LBB198:
 192              		.loc 1 93 0
 193 0034 8260     		str	r2, [r0, #8]
 194              		.loc 1 114 0
 195 0036 0761     		str	r7, [r0, #16]
 196 0038 C0F814E0 		str	lr, [r0, #20]
 197              		.loc 1 100 0
 198 003c 0264     		str	r2, [r0, #64]
 199              		.loc 1 94 0
 200 003e 80F81CB0 		strb	fp, [r0, #28]
 201              	.LVL8:
 202              		.loc 1 97 0
 203 0042 80F81FA0 		strb	r10, [r0, #31]
 204              		.loc 1 110 0
 205 0046 80F81E80 		strb	r8, [r0, #30]
 206              		.loc 1 95 0
 207 004a 4577     		strb	r5, [r0, #29]
 208              		.loc 1 101 0
 209 004c C563     		str	r5, [r0, #60]
 210              		.loc 1 104 0
 211 004e 8563     		str	r5, [r0, #56]
 212              		.loc 1 107 0
 213 0050 0562     		str	r5, [r0, #32]
 214              		.loc 1 113 0
 215 0052 8561     		str	r5, [r0, #24]
 216              		.loc 1 114 0
 217 0054 CEF81000 		str	r0, [lr, #16]
 218              	.LBB190:
 219              	.LBB191:
 220              		.loc 2 566 0
 221 0058 C0F828C0 		str	ip, [r0, #40]
 222              	.LBE191:
 223              	.LBE190:
 224              		.loc 1 114 0
 225 005c 7861     		str	r0, [r7, #20]
 226              	.LVL9:
 227              	.LBB192:
 228              	.LBB193:
ARM GAS  /var/folders/m4/4md61f0s1_g0rzfghffqnxvr0000gn/T//ccCW3rgC.s 			page 5


 229              		.loc 2 604 0
 230 005e C362     		str	r3, [r0, #44]
 231              		.loc 2 605 0
 232 0060 0363     		str	r3, [r0, #48]
 233              	.LBE193:
 234              	.LBE192:
 235              	.LBE198:
 236              	.LBE203:
 237              		.loc 1 189 0
 238 0062 BDE8F08F 		pop	{r4, r5, r6, r7, r8, r9, r10, fp, pc}
 239              	.LVL10:
 240              	.L8:
 241 0066 00BF     		.align	2
 242              	.L7:
 243 0068 00000000 		.word	ch
 244 006c 00000000 		.word	_port_thread_start
 245              		.cfi_endproc
 246              	.LFE232:
 247              		.size	chThdCreateI, .-chThdCreateI
 248              		.section	.text.chThdCreateStatic,"ax",%progbits
 249              		.align	2
 250              		.p2align 4,,15
 251              		.global	chThdCreateStatic
 252              		.thumb
 253              		.thumb_func
 254              		.type	chThdCreateStatic, %function
 255              	chThdCreateStatic:
 256              	.LFB233:
 257              		.loc 1 208 0
 258              		.cfi_startproc
 259              		@ args = 4, pretend = 0, frame = 0
 260              		@ frame_needed = 0, uses_anonymous_args = 0
 261              	.LVL11:
 262 0000 2DE9F84F 		push	{r3, r4, r5, r6, r7, r8, r9, r10, fp, lr}
 263              		.cfi_def_cfa_offset 40
 264              		.cfi_offset 3, -40
 265              		.cfi_offset 4, -36
 266              		.cfi_offset 5, -32
 267              		.cfi_offset 6, -28
 268              		.cfi_offset 7, -24
 269              		.cfi_offset 8, -20
 270              		.cfi_offset 9, -16
 271              		.cfi_offset 10, -12
 272              		.cfi_offset 11, -8
 273              		.cfi_offset 14, -4
 274              		.loc 1 208 0
 275 0004 0446     		mov	r4, r0
 276              	.LBB204:
 277              	.LBB205:
 278              	.LBB206:
 279              	.LBB207:
 280              		.file 3 "ChibiOS_16.1.4/os/ext/CMSIS/include/core_cmFunc.h"
 281              		.loc 3 548 0
 282 0006 2025     		movs	r5, #32
 283              	@ 548 "ChibiOS_16.1.4/os/ext/CMSIS/include/core_cmFunc.h" 1
 284 0008 85F31188 		MSR basepri, r5
 285              	@ 0 "" 2
ARM GAS  /var/folders/m4/4md61f0s1_g0rzfghffqnxvr0000gn/T//ccCW3rgC.s 			page 6


 286              	.LVL12:
 287              		.thumb
 288              	.LBE207:
 289              	.LBE206:
 290              	.LBE205:
 291              	.LBE204:
 292              	.LBB208:
 293              	.LBB209:
 294              	.LBB210:
 295              	.LBB211:
 296              		.loc 1 114 0
 297 000c 1A4E     		ldr	r6, .L11
 298              	.LBE211:
 299              	.LBE210:
 300              		.loc 1 186 0
 301 000e DFF86CA0 		ldr	r10, .L11+4
 302              	.LBB222:
 303              	.LBB216:
 304              		.loc 1 114 0
 305 0012 7769     		ldr	r7, [r6, #20]
 306              	.LBE216:
 307              	.LBE222:
 308              		.loc 1 186 0
 309 0014 6439     		subs	r1, r1, #100
 310              	.LVL13:
 311 0016 0144     		add	r1, r1, r0
 312              	.LVL14:
 313 0018 C160     		str	r1, [r0, #12]
 314              	.LBB223:
 315              	.LBB217:
 316              		.loc 1 95 0
 317 001a 0025     		movs	r5, #0
 318              	.LBE217:
 319              	.LBE223:
 320              		.loc 1 186 0
 321 001c 0B64     		str	r3, [r1, #64]
 322              	.LBB224:
 323              	.LBB218:
 324              		.loc 1 120 0
 325 001e 00F12C0B 		add	fp, r0, #44
 326              		.loc 1 110 0
 327 0022 4FF0010C 		mov	ip, #1
 328              		.loc 1 117 0
 329 0026 00F1280E 		add	lr, r0, #40
 330              	.LBE218:
 331              	.LBE224:
 332              		.loc 1 186 0
 333 002a 0A9B     		ldr	r3, [sp, #40]
 334              	.LVL15:
 335 002c 4B64     		str	r3, [r1, #68]
 336              	.LBB225:
 337              	.LBB219:
 338              		.loc 1 94 0
 339 002e 4FF00209 		mov	r9, #2
 340              		.loc 1 97 0
 341 0032 4FF00408 		mov	r8, #4
 342              	.LBE219:
ARM GAS  /var/folders/m4/4md61f0s1_g0rzfghffqnxvr0000gn/T//ccCW3rgC.s 			page 7


 343              	.LBE225:
 344              		.loc 1 186 0
 345 0036 C1F860A0 		str	r10, [r1, #96]
 346              	.LVL16:
 347              	.LBB226:
 348              	.LBB220:
 349              		.loc 1 93 0
 350 003a 8260     		str	r2, [r0, #8]
 351              		.loc 1 114 0
 352 003c 0661     		str	r6, [r0, #16]
 353 003e 4761     		str	r7, [r0, #20]
 354              		.loc 1 100 0
 355 0040 0264     		str	r2, [r0, #64]
 356              		.loc 1 94 0
 357 0042 80F81C90 		strb	r9, [r0, #28]
 358              	.LVL17:
 359              		.loc 1 97 0
 360 0046 80F81F80 		strb	r8, [r0, #31]
 361              		.loc 1 110 0
 362 004a 80F81EC0 		strb	ip, [r0, #30]
 363              		.loc 1 95 0
 364 004e 4577     		strb	r5, [r0, #29]
 365              		.loc 1 101 0
 366 0050 C563     		str	r5, [r0, #60]
 367              		.loc 1 104 0
 368 0052 8563     		str	r5, [r0, #56]
 369              		.loc 1 107 0
 370 0054 0562     		str	r5, [r0, #32]
 371              		.loc 1 113 0
 372 0056 8561     		str	r5, [r0, #24]
 373              	.LBE220:
 374              	.LBE226:
 375              	.LBE209:
 376              	.LBE208:
 377              		.loc 1 222 0
 378 0058 2946     		mov	r1, r5
 379              	.LBB229:
 380              	.LBB228:
 381              	.LBB227:
 382              	.LBB221:
 383              		.loc 1 114 0
 384 005a 3861     		str	r0, [r7, #16]
 385              	.LBB212:
 386              	.LBB213:
 387              		.loc 2 566 0
 388 005c C0F828E0 		str	lr, [r0, #40]
 389              	.LBE213:
 390              	.LBE212:
 391              	.LBB214:
 392              	.LBB215:
 393              		.loc 2 604 0
 394 0060 C0F82CB0 		str	fp, [r0, #44]
 395              		.loc 2 605 0
 396 0064 C0F830B0 		str	fp, [r0, #48]
 397              	.LBE215:
 398              	.LBE214:
 399              		.loc 1 114 0
ARM GAS  /var/folders/m4/4md61f0s1_g0rzfghffqnxvr0000gn/T//ccCW3rgC.s 			page 8


 400 0068 7061     		str	r0, [r6, #20]
 401              	.LVL18:
 402              	.LBE221:
 403              	.LBE227:
 404              	.LBE228:
 405              	.LBE229:
 406              		.loc 1 222 0
 407 006a FFF7FEFF 		bl	chSchWakeupS
 408              	.LVL19:
 409              	.LBB230:
 410              	.LBB231:
 411              	.LBB232:
 412              	.LBB233:
 413              	.LBB234:
 414              		.loc 3 548 0
 415              	@ 548 "ChibiOS_16.1.4/os/ext/CMSIS/include/core_cmFunc.h" 1
 416 006e 85F31188 		MSR basepri, r5
 417              	@ 0 "" 2
 418              		.thumb
 419              	.LBE234:
 420              	.LBE233:
 421              	.LBE232:
 422              	.LBE231:
 423              	.LBE230:
 424              		.loc 1 226 0
 425 0072 2046     		mov	r0, r4
 426 0074 BDE8F88F 		pop	{r3, r4, r5, r6, r7, r8, r9, r10, fp, pc}
 427              	.LVL20:
 428              	.L12:
 429              		.align	2
 430              	.L11:
 431 0078 00000000 		.word	ch
 432 007c 00000000 		.word	_port_thread_start
 433              		.cfi_endproc
 434              	.LFE233:
 435              		.size	chThdCreateStatic, .-chThdCreateStatic
 436              		.section	.text.chThdStart,"ax",%progbits
 437              		.align	2
 438              		.p2align 4,,15
 439              		.global	chThdStart
 440              		.thumb
 441              		.thumb_func
 442              		.type	chThdStart, %function
 443              	chThdStart:
 444              	.LFB234:
 445              		.loc 1 237 0
 446              		.cfi_startproc
 447              		@ args = 0, pretend = 0, frame = 0
 448              		@ frame_needed = 0, uses_anonymous_args = 0
 449              	.LVL21:
 450 0000 08B5     		push	{r3, lr}
 451              		.cfi_def_cfa_offset 8
 452              		.cfi_offset 3, -8
 453              		.cfi_offset 14, -4
 454              	.LBB235:
 455              	.LBB236:
 456              	.LBB237:
ARM GAS  /var/folders/m4/4md61f0s1_g0rzfghffqnxvr0000gn/T//ccCW3rgC.s 			page 9


 457              	.LBB238:
 458              		.loc 3 548 0
 459 0002 2023     		movs	r3, #32
 460              	@ 548 "ChibiOS_16.1.4/os/ext/CMSIS/include/core_cmFunc.h" 1
 461 0004 83F31188 		MSR basepri, r3
 462              	@ 0 "" 2
 463              	.LVL22:
 464              		.thumb
 465              	.LBE238:
 466              	.LBE237:
 467              	.LBE236:
 468              	.LBE235:
 469              	.LBB239:
 470              	.LBB240:
 471              		.file 4 "ChibiOS_16.1.4/os/rt/include/chthreads.h"
 472              		.loc 4 249 0
 473 0008 FFF7FEFF 		bl	chSchReadyI
 474              	.LVL23:
 475              	.LBE240:
 476              	.LBE239:
 477              	.LBB241:
 478              	.LBB242:
 479              	.LBB243:
 480              	.LBB244:
 481              	.LBB245:
 482              		.loc 3 548 0
 483 000c 0023     		movs	r3, #0
 484              	@ 548 "ChibiOS_16.1.4/os/ext/CMSIS/include/core_cmFunc.h" 1
 485 000e 83F31188 		MSR basepri, r3
 486              	@ 0 "" 2
 487              		.thumb
 488              	.LBE245:
 489              	.LBE244:
 490              	.LBE243:
 491              	.LBE242:
 492              	.LBE241:
 493              		.loc 1 244 0
 494 0012 08BD     		pop	{r3, pc}
 495              		.cfi_endproc
 496              	.LFE234:
 497              		.size	chThdStart, .-chThdStart
 498              		.section	.text.chThdSetPriority,"ax",%progbits
 499              		.align	2
 500              		.p2align 4,,15
 501              		.global	chThdSetPriority
 502              		.thumb
 503              		.thumb_func
 504              		.type	chThdSetPriority, %function
 505              	chThdSetPriority:
 506              	.LFB235:
 507              		.loc 1 258 0
 508              		.cfi_startproc
 509              		@ args = 0, pretend = 0, frame = 0
 510              		@ frame_needed = 0, uses_anonymous_args = 0
 511              	.LVL24:
 512 0000 10B5     		push	{r4, lr}
 513              		.cfi_def_cfa_offset 8
ARM GAS  /var/folders/m4/4md61f0s1_g0rzfghffqnxvr0000gn/T//ccCW3rgC.s 			page 10


 514              		.cfi_offset 4, -8
 515              		.cfi_offset 14, -4
 516              	.LBB246:
 517              	.LBB247:
 518              	.LBB248:
 519              	.LBB249:
 520              		.loc 3 548 0
 521 0002 2023     		movs	r3, #32
 522              	@ 548 "ChibiOS_16.1.4/os/ext/CMSIS/include/core_cmFunc.h" 1
 523 0004 83F31188 		MSR basepri, r3
 524              	@ 0 "" 2
 525              		.thumb
 526              	.LBE249:
 527              	.LBE248:
 528              	.LBE247:
 529              	.LBE246:
 530              		.loc 1 265 0
 531 0008 084B     		ldr	r3, .L20
 532 000a 9B69     		ldr	r3, [r3, #24]
 533 000c 1C6C     		ldr	r4, [r3, #64]
 534              	.LVL25:
 535              		.loc 1 266 0
 536 000e 9968     		ldr	r1, [r3, #8]
 537 0010 8C42     		cmp	r4, r1
 538 0012 01D0     		beq	.L16
 539              		.loc 1 266 0 is_stmt 0 discriminator 1
 540 0014 8142     		cmp	r1, r0
 541 0016 00D2     		bcs	.L17
 542              	.L16:
 543              		.loc 1 267 0 is_stmt 1
 544 0018 9860     		str	r0, [r3, #8]
 545              	.L17:
 546              		.loc 1 269 0
 547 001a 1864     		str	r0, [r3, #64]
 548              		.loc 1 274 0
 549 001c FFF7FEFF 		bl	chSchRescheduleS
 550              	.LVL26:
 551              	.LBB250:
 552              	.LBB251:
 553              	.LBB252:
 554              	.LBB253:
 555              	.LBB254:
 556              		.loc 3 548 0
 557 0020 0023     		movs	r3, #0
 558              	@ 548 "ChibiOS_16.1.4/os/ext/CMSIS/include/core_cmFunc.h" 1
 559 0022 83F31188 		MSR basepri, r3
 560              	@ 0 "" 2
 561              		.thumb
 562              	.LBE254:
 563              	.LBE253:
 564              	.LBE252:
 565              	.LBE251:
 566              	.LBE250:
 567              		.loc 1 278 0
 568 0026 2046     		mov	r0, r4
 569 0028 10BD     		pop	{r4, pc}
 570              	.LVL27:
ARM GAS  /var/folders/m4/4md61f0s1_g0rzfghffqnxvr0000gn/T//ccCW3rgC.s 			page 11


 571              	.L21:
 572 002a 00BF     		.align	2
 573              	.L20:
 574 002c 00000000 		.word	ch
 575              		.cfi_endproc
 576              	.LFE235:
 577              		.size	chThdSetPriority, .-chThdSetPriority
 578              		.section	.text.chThdTerminate,"ax",%progbits
 579              		.align	2
 580              		.p2align 4,,15
 581              		.global	chThdTerminate
 582              		.thumb
 583              		.thumb_func
 584              		.type	chThdTerminate, %function
 585              	chThdTerminate:
 586              	.LFB236:
 587              		.loc 1 292 0
 588              		.cfi_startproc
 589              		@ args = 0, pretend = 0, frame = 0
 590              		@ frame_needed = 0, uses_anonymous_args = 0
 591              		@ link register save eliminated.
 592              	.LVL28:
 593              	.LBB255:
 594              	.LBB256:
 595              	.LBB257:
 596              	.LBB258:
 597              		.loc 3 548 0
 598 0000 2023     		movs	r3, #32
 599              	@ 548 "ChibiOS_16.1.4/os/ext/CMSIS/include/core_cmFunc.h" 1
 600 0002 83F31188 		MSR basepri, r3
 601              	@ 0 "" 2
 602              		.thumb
 603              	.LBE258:
 604              	.LBE257:
 605              	.LBE256:
 606              	.LBE255:
 607              		.loc 1 295 0
 608 0006 437F     		ldrb	r3, [r0, #29]	@ zero_extendqisi2
 609 0008 43F00403 		orr	r3, r3, #4
 610 000c 4377     		strb	r3, [r0, #29]
 611              	.LVL29:
 612              	.LBB259:
 613              	.LBB260:
 614              	.LBB261:
 615              	.LBB262:
 616              	.LBB263:
 617              		.loc 3 548 0
 618 000e 0023     		movs	r3, #0
 619              	@ 548 "ChibiOS_16.1.4/os/ext/CMSIS/include/core_cmFunc.h" 1
 620 0010 83F31188 		MSR basepri, r3
 621              	@ 0 "" 2
 622              		.thumb
 623 0014 7047     		bx	lr
 624              	.LBE263:
 625              	.LBE262:
 626              	.LBE261:
 627              	.LBE260:
ARM GAS  /var/folders/m4/4md61f0s1_g0rzfghffqnxvr0000gn/T//ccCW3rgC.s 			page 12


 628              	.LBE259:
 629              		.cfi_endproc
 630              	.LFE236:
 631              		.size	chThdTerminate, .-chThdTerminate
 632 0016 00BF     		.section	.text.chThdSleep,"ax",%progbits
 633              		.align	2
 634              		.p2align 4,,15
 635              		.global	chThdSleep
 636              		.thumb
 637              		.thumb_func
 638              		.type	chThdSleep, %function
 639              	chThdSleep:
 640              	.LFB237:
 641              		.loc 1 311 0
 642              		.cfi_startproc
 643              		@ args = 0, pretend = 0, frame = 0
 644              		@ frame_needed = 0, uses_anonymous_args = 0
 645              	.LVL30:
 646 0000 08B5     		push	{r3, lr}
 647              		.cfi_def_cfa_offset 8
 648              		.cfi_offset 3, -8
 649              		.cfi_offset 14, -4
 650              		.loc 1 311 0
 651 0002 0146     		mov	r1, r0
 652              	.LBB264:
 653              	.LBB265:
 654              	.LBB266:
 655              	.LBB267:
 656              		.loc 3 548 0
 657 0004 2023     		movs	r3, #32
 658              	@ 548 "ChibiOS_16.1.4/os/ext/CMSIS/include/core_cmFunc.h" 1
 659 0006 83F31188 		MSR basepri, r3
 660              	@ 0 "" 2
 661              	.LVL31:
 662              		.thumb
 663              	.LBE267:
 664              	.LBE266:
 665              	.LBE265:
 666              	.LBE264:
 667              	.LBB268:
 668              	.LBB269:
 669              		.loc 4 268 0
 670 000a 0820     		movs	r0, #8
 671              	.LVL32:
 672 000c FFF7FEFF 		bl	chSchGoSleepTimeoutS
 673              	.LVL33:
 674              	.LBE269:
 675              	.LBE268:
 676              	.LBB270:
 677              	.LBB271:
 678              	.LBB272:
 679              	.LBB273:
 680              	.LBB274:
 681              		.loc 3 548 0
 682 0010 0023     		movs	r3, #0
 683              	@ 548 "ChibiOS_16.1.4/os/ext/CMSIS/include/core_cmFunc.h" 1
 684 0012 83F31188 		MSR basepri, r3
ARM GAS  /var/folders/m4/4md61f0s1_g0rzfghffqnxvr0000gn/T//ccCW3rgC.s 			page 13


 685              	@ 0 "" 2
 686              		.thumb
 687 0016 08BD     		pop	{r3, pc}
 688              	.LBE274:
 689              	.LBE273:
 690              	.LBE272:
 691              	.LBE271:
 692              	.LBE270:
 693              		.cfi_endproc
 694              	.LFE237:
 695              		.size	chThdSleep, .-chThdSleep
 696              		.section	.text.chThdSleepUntil,"ax",%progbits
 697              		.align	2
 698              		.p2align 4,,15
 699              		.global	chThdSleepUntil
 700              		.thumb
 701              		.thumb_func
 702              		.type	chThdSleepUntil, %function
 703              	chThdSleepUntil:
 704              	.LFB238:
 705              		.loc 1 331 0
 706              		.cfi_startproc
 707              		@ args = 0, pretend = 0, frame = 0
 708              		@ frame_needed = 0, uses_anonymous_args = 0
 709              	.LVL34:
 710 0000 08B5     		push	{r3, lr}
 711              		.cfi_def_cfa_offset 8
 712              		.cfi_offset 3, -8
 713              		.cfi_offset 14, -4
 714              	.LBB275:
 715              	.LBB276:
 716              	.LBB277:
 717              	.LBB278:
 718              		.loc 3 548 0
 719 0002 2023     		movs	r3, #32
 720              	@ 548 "ChibiOS_16.1.4/os/ext/CMSIS/include/core_cmFunc.h" 1
 721 0004 83F31188 		MSR basepri, r3
 722              	@ 0 "" 2
 723              		.thumb
 724              	.LBE278:
 725              	.LBE277:
 726              	.LBE276:
 727              	.LBE275:
 728              	.LBB279:
 729              	.LBB280:
 730              		.file 5 "ChibiOS_16.1.4/os/rt/include/chvt.h"
 731              		.loc 5 231 0
 732 0008 054B     		ldr	r3, .L31
 733 000a 996A     		ldr	r1, [r3, #40]
 734              	.LVL35:
 735              	.LBE280:
 736              	.LBE279:
 737              		.loc 1 335 0
 738 000c 411A     		subs	r1, r0, r1
 739              	.LVL36:
 740 000e 02D0     		beq	.L26
 741              	.LVL37:
ARM GAS  /var/folders/m4/4md61f0s1_g0rzfghffqnxvr0000gn/T//ccCW3rgC.s 			page 14


 742              	.LBB281:
 743              	.LBB282:
 744              		.loc 4 268 0
 745 0010 0820     		movs	r0, #8
 746 0012 FFF7FEFF 		bl	chSchGoSleepTimeoutS
 747              	.LVL38:
 748              	.L26:
 749              	.LBE282:
 750              	.LBE281:
 751              	.LBB283:
 752              	.LBB284:
 753              	.LBB285:
 754              	.LBB286:
 755              	.LBB287:
 756              		.loc 3 548 0
 757 0016 0023     		movs	r3, #0
 758              	@ 548 "ChibiOS_16.1.4/os/ext/CMSIS/include/core_cmFunc.h" 1
 759 0018 83F31188 		MSR basepri, r3
 760              	@ 0 "" 2
 761              		.thumb
 762 001c 08BD     		pop	{r3, pc}
 763              	.L32:
 764 001e 00BF     		.align	2
 765              	.L31:
 766 0020 00000000 		.word	ch
 767              	.LBE287:
 768              	.LBE286:
 769              	.LBE285:
 770              	.LBE284:
 771              	.LBE283:
 772              		.cfi_endproc
 773              	.LFE238:
 774              		.size	chThdSleepUntil, .-chThdSleepUntil
 775              		.section	.text.chThdSleepUntilWindowed,"ax",%progbits
 776              		.align	2
 777              		.p2align 4,,15
 778              		.global	chThdSleepUntilWindowed
 779              		.thumb
 780              		.thumb_func
 781              		.type	chThdSleepUntilWindowed, %function
 782              	chThdSleepUntilWindowed:
 783              	.LFB239:
 784              		.loc 1 355 0
 785              		.cfi_startproc
 786              		@ args = 0, pretend = 0, frame = 0
 787              		@ frame_needed = 0, uses_anonymous_args = 0
 788              	.LVL39:
 789 0000 10B5     		push	{r4, lr}
 790              		.cfi_def_cfa_offset 8
 791              		.cfi_offset 4, -8
 792              		.cfi_offset 14, -4
 793              	.LBB288:
 794              	.LBB289:
 795              	.LBB290:
 796              	.LBB291:
 797              		.loc 3 548 0
 798 0002 2023     		movs	r3, #32
ARM GAS  /var/folders/m4/4md61f0s1_g0rzfghffqnxvr0000gn/T//ccCW3rgC.s 			page 15


 799              	.LBE291:
 800              	.LBE290:
 801              	.LBE289:
 802              	.LBE288:
 803              		.loc 1 355 0
 804 0004 0C46     		mov	r4, r1
 805              	.LBB295:
 806              	.LBB294:
 807              	.LBB293:
 808              	.LBB292:
 809              		.loc 3 548 0
 810              	@ 548 "ChibiOS_16.1.4/os/ext/CMSIS/include/core_cmFunc.h" 1
 811 0006 83F31188 		MSR basepri, r3
 812              	@ 0 "" 2
 813              		.thumb
 814              	.LBE292:
 815              	.LBE293:
 816              	.LBE294:
 817              	.LBE295:
 818              	.LBB296:
 819              	.LBB297:
 820              		.loc 5 231 0
 821 000a 074B     		ldr	r3, .L36
 822 000c 996A     		ldr	r1, [r3, #40]
 823              	.LVL40:
 824              	.LBE297:
 825              	.LBE296:
 826              	.LBB298:
 827              	.LBB299:
 828              		.loc 5 288 0
 829 000e 231A     		subs	r3, r4, r0
 830 0010 081A     		subs	r0, r1, r0
 831              	.LVL41:
 832              	.LBE299:
 833              	.LBE298:
 834              		.loc 1 360 0
 835 0012 9842     		cmp	r0, r3
 836 0014 03D2     		bcs	.L34
 837              	.LVL42:
 838              	.LBB300:
 839              	.LBB301:
 840              		.loc 4 268 0
 841 0016 611A     		subs	r1, r4, r1
 842              	.LVL43:
 843 0018 0820     		movs	r0, #8
 844 001a FFF7FEFF 		bl	chSchGoSleepTimeoutS
 845              	.LVL44:
 846              	.L34:
 847              	.LBE301:
 848              	.LBE300:
 849              	.LBB302:
 850              	.LBB303:
 851              	.LBB304:
 852              	.LBB305:
 853              	.LBB306:
 854              		.loc 3 548 0
 855 001e 0023     		movs	r3, #0
ARM GAS  /var/folders/m4/4md61f0s1_g0rzfghffqnxvr0000gn/T//ccCW3rgC.s 			page 16


 856              	@ 548 "ChibiOS_16.1.4/os/ext/CMSIS/include/core_cmFunc.h" 1
 857 0020 83F31188 		MSR basepri, r3
 858              	@ 0 "" 2
 859              		.thumb
 860              	.LBE306:
 861              	.LBE305:
 862              	.LBE304:
 863              	.LBE303:
 864              	.LBE302:
 865              		.loc 1 366 0
 866 0024 2046     		mov	r0, r4
 867 0026 10BD     		pop	{r4, pc}
 868              	.LVL45:
 869              	.L37:
 870              		.align	2
 871              	.L36:
 872 0028 00000000 		.word	ch
 873              		.cfi_endproc
 874              	.LFE239:
 875              		.size	chThdSleepUntilWindowed, .-chThdSleepUntilWindowed
 876              		.section	.text.chThdYield,"ax",%progbits
 877              		.align	2
 878              		.p2align 4,,15
 879              		.global	chThdYield
 880              		.thumb
 881              		.thumb_func
 882              		.type	chThdYield, %function
 883              	chThdYield:
 884              	.LFB240:
 885              		.loc 1 375 0
 886              		.cfi_startproc
 887              		@ args = 0, pretend = 0, frame = 0
 888              		@ frame_needed = 0, uses_anonymous_args = 0
 889              	.LVL46:
 890 0000 08B5     		push	{r3, lr}
 891              		.cfi_def_cfa_offset 8
 892              		.cfi_offset 3, -8
 893              		.cfi_offset 14, -4
 894              	.LBB320:
 895              	.LBB321:
 896              	.LBB322:
 897              	.LBB323:
 898              		.loc 3 548 0
 899 0002 2023     		movs	r3, #32
 900              	@ 548 "ChibiOS_16.1.4/os/ext/CMSIS/include/core_cmFunc.h" 1
 901 0004 83F31188 		MSR basepri, r3
 902              	@ 0 "" 2
 903              		.thumb
 904              	.LBE323:
 905              	.LBE322:
 906              	.LBE321:
 907              	.LBE320:
 908              	.LBB324:
 909              	.LBB325:
 910              	.LBB326:
 911              	.LBB327:
 912              		.loc 2 731 0
ARM GAS  /var/folders/m4/4md61f0s1_g0rzfghffqnxvr0000gn/T//ccCW3rgC.s 			page 17


 913 0008 064B     		ldr	r3, .L41
 914 000a 1A68     		ldr	r2, [r3]
 915 000c 9B69     		ldr	r3, [r3, #24]
 916              	.LBE327:
 917              	.LBE326:
 918              		.loc 2 745 0
 919 000e 9268     		ldr	r2, [r2, #8]
 920 0010 9B68     		ldr	r3, [r3, #8]
 921 0012 9A42     		cmp	r2, r3
 922 0014 01D3     		bcc	.L39
 923              		.loc 2 746 0
 924 0016 FFF7FEFF 		bl	chSchDoRescheduleBehind
 925              	.LVL47:
 926              	.L39:
 927              	.LBE325:
 928              	.LBE324:
 929              	.LBB328:
 930              	.LBB329:
 931              	.LBB330:
 932              	.LBB331:
 933              	.LBB332:
 934              		.loc 3 548 0
 935 001a 0023     		movs	r3, #0
 936              	@ 548 "ChibiOS_16.1.4/os/ext/CMSIS/include/core_cmFunc.h" 1
 937 001c 83F31188 		MSR basepri, r3
 938              	@ 0 "" 2
 939              		.thumb
 940 0020 08BD     		pop	{r3, pc}
 941              	.L42:
 942 0022 00BF     		.align	2
 943              	.L41:
 944 0024 00000000 		.word	ch
 945              	.LBE332:
 946              	.LBE331:
 947              	.LBE330:
 948              	.LBE329:
 949              	.LBE328:
 950              		.cfi_endproc
 951              	.LFE240:
 952              		.size	chThdYield, .-chThdYield
 953              		.section	.text.chThdExitS,"ax",%progbits
 954              		.align	2
 955              		.p2align 4,,15
 956              		.global	chThdExitS
 957              		.thumb
 958              		.thumb_func
 959              		.type	chThdExitS, %function
 960              	chThdExitS:
 961              	.LFB242:
 962              		.loc 1 417 0
 963              		.cfi_startproc
 964              		@ args = 0, pretend = 0, frame = 0
 965              		@ frame_needed = 0, uses_anonymous_args = 0
 966              	.LVL48:
 967 0000 38B5     		push	{r3, r4, r5, lr}
 968              		.cfi_def_cfa_offset 16
 969              		.cfi_offset 3, -16
ARM GAS  /var/folders/m4/4md61f0s1_g0rzfghffqnxvr0000gn/T//ccCW3rgC.s 			page 18


 970              		.cfi_offset 4, -12
 971              		.cfi_offset 5, -8
 972              		.cfi_offset 14, -4
 973              		.loc 1 418 0
 974 0002 0E4B     		ldr	r3, .L51
 975 0004 9C69     		ldr	r4, [r3, #24]
 976              	.LVL49:
 977              	.LBB333:
 978              	.LBB334:
 979              		.loc 2 592 0
 980 0006 A36A     		ldr	r3, [r4, #40]
 981              	.LBE334:
 982              	.LBE333:
 983              		.loc 1 420 0
 984 0008 6062     		str	r0, [r4, #36]
 985              		.loc 1 425 0
 986 000a 04F12805 		add	r5, r4, #40
 987              	.LVL50:
 988 000e 9D42     		cmp	r5, r3
 989 0010 07D0     		beq	.L48
 990              	.LVL51:
 991              	.L47:
 992              	.LBB336:
 993              	.LBB337:
 994              		.loc 2 646 0
 995 0012 1A68     		ldr	r2, [r3]
 996 0014 A262     		str	r2, [r4, #40]
 997              	.LBE337:
 998              	.LBE336:
 999              		.loc 1 426 0
 1000 0016 1846     		mov	r0, r3
 1001 0018 FFF7FEFF 		bl	chSchReadyI
 1002              	.LVL52:
 1003              	.LBB338:
 1004              	.LBB335:
 1005              		.loc 2 592 0
 1006 001c A36A     		ldr	r3, [r4, #40]
 1007              	.LBE335:
 1008              	.LBE338:
 1009              		.loc 1 425 0
 1010 001e AB42     		cmp	r3, r5
 1011 0020 F7D1     		bne	.L47
 1012              	.LVL53:
 1013              	.L48:
 1014              		.loc 1 432 0
 1015 0022 637F     		ldrb	r3, [r4, #29]	@ zero_extendqisi2
 1016 0024 9B07     		lsls	r3, r3, #30
 1017 0026 04D1     		bne	.L46
 1018              		.loc 1 433 0
 1019 0028 6369     		ldr	r3, [r4, #20]
 1020 002a 2269     		ldr	r2, [r4, #16]
 1021 002c 1A61     		str	r2, [r3, #16]
 1022 002e 2269     		ldr	r2, [r4, #16]
 1023 0030 5361     		str	r3, [r2, #20]
 1024              	.L46:
 1025              		.loc 1 436 0
 1026 0032 0F20     		movs	r0, #15
ARM GAS  /var/folders/m4/4md61f0s1_g0rzfghffqnxvr0000gn/T//ccCW3rgC.s 			page 19


 1027              		.loc 1 440 0
 1028 0034 BDE83840 		pop	{r3, r4, r5, lr}
 1029              		.cfi_restore 14
 1030              		.cfi_restore 5
 1031              		.cfi_restore 4
 1032              		.cfi_restore 3
 1033              		.cfi_def_cfa_offset 0
 1034              	.LVL54:
 1035              		.loc 1 436 0
 1036 0038 FFF7FEBF 		b	chSchGoSleepS
 1037              	.LVL55:
 1038              	.L52:
 1039              		.align	2
 1040              	.L51:
 1041 003c 00000000 		.word	ch
 1042              		.cfi_endproc
 1043              	.LFE242:
 1044              		.size	chThdExitS, .-chThdExitS
 1045              		.section	.text.chThdExit,"ax",%progbits
 1046              		.align	2
 1047              		.p2align 4,,15
 1048              		.global	chThdExit
 1049              		.thumb
 1050              		.thumb_func
 1051              		.type	chThdExit, %function
 1052              	chThdExit:
 1053              	.LFB241:
 1054              		.loc 1 396 0
 1055              		.cfi_startproc
 1056              		@ args = 0, pretend = 0, frame = 0
 1057              		@ frame_needed = 0, uses_anonymous_args = 0
 1058              		@ link register save eliminated.
 1059              	.LVL56:
 1060              	.LBB339:
 1061              	.LBB340:
 1062              	.LBB341:
 1063              	.LBB342:
 1064              		.loc 3 548 0
 1065 0000 2023     		movs	r3, #32
 1066              	@ 548 "ChibiOS_16.1.4/os/ext/CMSIS/include/core_cmFunc.h" 1
 1067 0002 83F31188 		MSR basepri, r3
 1068              	@ 0 "" 2
 1069              		.thumb
 1070              	.LBE342:
 1071              	.LBE341:
 1072              	.LBE340:
 1073              	.LBE339:
 1074              		.loc 1 399 0
 1075 0006 FFF7FEBF 		b	chThdExitS
 1076              	.LVL57:
 1077              		.cfi_endproc
 1078              	.LFE241:
 1079              		.size	chThdExit, .-chThdExit
 1080 000a 00BF     		.section	.text.chThdWait,"ax",%progbits
 1081              		.align	2
 1082              		.p2align 4,,15
 1083              		.global	chThdWait
ARM GAS  /var/folders/m4/4md61f0s1_g0rzfghffqnxvr0000gn/T//ccCW3rgC.s 			page 20


 1084              		.thumb
 1085              		.thumb_func
 1086              		.type	chThdWait, %function
 1087              	chThdWait:
 1088              	.LFB243:
 1089              		.loc 1 474 0
 1090              		.cfi_startproc
 1091              		@ args = 0, pretend = 0, frame = 0
 1092              		@ frame_needed = 0, uses_anonymous_args = 0
 1093              	.LVL58:
 1094 0000 38B5     		push	{r3, r4, r5, lr}
 1095              		.cfi_def_cfa_offset 16
 1096              		.cfi_offset 3, -16
 1097              		.cfi_offset 4, -12
 1098              		.cfi_offset 5, -8
 1099              		.cfi_offset 14, -4
 1100              		.loc 1 474 0
 1101 0002 0446     		mov	r4, r0
 1102              	.LBB343:
 1103              	.LBB344:
 1104              	.LBB345:
 1105              	.LBB346:
 1106              		.loc 3 548 0
 1107 0004 2023     		movs	r3, #32
 1108              	@ 548 "ChibiOS_16.1.4/os/ext/CMSIS/include/core_cmFunc.h" 1
 1109 0006 83F31188 		MSR basepri, r3
 1110              	@ 0 "" 2
 1111              		.thumb
 1112              	.LBE346:
 1113              	.LBE345:
 1114              	.LBE344:
 1115              	.LBE343:
 1116              		.loc 1 484 0
 1117 000a 037F     		ldrb	r3, [r0, #28]	@ zero_extendqisi2
 1118 000c 0F2B     		cmp	r3, #15
 1119 000e 07D0     		beq	.L55
 1120              		.loc 1 485 0
 1121 0010 084B     		ldr	r3, .L60
 1122              	.LBB347:
 1123              	.LBB348:
 1124              		.loc 2 639 0
 1125 0012 826A     		ldr	r2, [r0, #40]
 1126              	.LBE348:
 1127              	.LBE347:
 1128              		.loc 1 485 0
 1129 0014 9B69     		ldr	r3, [r3, #24]
 1130              	.LVL59:
 1131              		.loc 1 486 0
 1132 0016 0920     		movs	r0, #9
 1133              	.LVL60:
 1134              	.LBB350:
 1135              	.LBB349:
 1136              		.loc 2 639 0
 1137 0018 1A60     		str	r2, [r3]
 1138              		.loc 2 640 0
 1139 001a A362     		str	r3, [r4, #40]
 1140              	.LBE349:
ARM GAS  /var/folders/m4/4md61f0s1_g0rzfghffqnxvr0000gn/T//ccCW3rgC.s 			page 21


 1141              	.LBE350:
 1142              		.loc 1 486 0
 1143 001c FFF7FEFF 		bl	chSchGoSleepS
 1144              	.LVL61:
 1145              	.L55:
 1146              		.loc 1 488 0
 1147 0020 656A     		ldr	r5, [r4, #36]
 1148              	.LVL62:
 1149              	.LBB351:
 1150              	.LBB352:
 1151              	.LBB353:
 1152              	.LBB354:
 1153              	.LBB355:
 1154              		.loc 3 548 0
 1155 0022 0023     		movs	r3, #0
 1156              	@ 548 "ChibiOS_16.1.4/os/ext/CMSIS/include/core_cmFunc.h" 1
 1157 0024 83F31188 		MSR basepri, r3
 1158              	@ 0 "" 2
 1159              		.thumb
 1160              	.LBE355:
 1161              	.LBE354:
 1162              	.LBE353:
 1163              	.LBE352:
 1164              	.LBE351:
 1165              		.loc 1 493 0
 1166 0028 2046     		mov	r0, r4
 1167 002a FFF7FEFF 		bl	chThdRelease
 1168              	.LVL63:
 1169              		.loc 1 497 0
 1170 002e 2846     		mov	r0, r5
 1171 0030 38BD     		pop	{r3, r4, r5, pc}
 1172              	.LVL64:
 1173              	.L61:
 1174 0032 00BF     		.align	2
 1175              	.L60:
 1176 0034 00000000 		.word	ch
 1177              		.cfi_endproc
 1178              	.LFE243:
 1179              		.size	chThdWait, .-chThdWait
 1180              		.section	.text.chThdSuspendS,"ax",%progbits
 1181              		.align	2
 1182              		.p2align 4,,15
 1183              		.global	chThdSuspendS
 1184              		.thumb
 1185              		.thumb_func
 1186              		.type	chThdSuspendS, %function
 1187              	chThdSuspendS:
 1188              	.LFB244:
 1189              		.loc 1 510 0
 1190              		.cfi_startproc
 1191              		@ args = 0, pretend = 0, frame = 0
 1192              		@ frame_needed = 0, uses_anonymous_args = 0
 1193              	.LVL65:
 1194 0000 10B5     		push	{r4, lr}
 1195              		.cfi_def_cfa_offset 8
 1196              		.cfi_offset 4, -8
 1197              		.cfi_offset 14, -4
ARM GAS  /var/folders/m4/4md61f0s1_g0rzfghffqnxvr0000gn/T//ccCW3rgC.s 			page 22


 1198              	.LBB356:
 1199              	.LBB357:
 1200              		.loc 4 176 0
 1201 0002 054C     		ldr	r4, .L64
 1202 0004 A369     		ldr	r3, [r4, #24]
 1203              	.LBE357:
 1204              	.LBE356:
 1205              		.loc 1 515 0
 1206 0006 0360     		str	r3, [r0]
 1207              		.loc 1 510 0
 1208 0008 0246     		mov	r2, r0
 1209              		.loc 1 516 0
 1210 000a 5A62     		str	r2, [r3, #36]
 1211              		.loc 1 517 0
 1212 000c 0320     		movs	r0, #3
 1213              	.LVL66:
 1214 000e FFF7FEFF 		bl	chSchGoSleepS
 1215              	.LVL67:
 1216              		.loc 1 519 0
 1217 0012 A369     		ldr	r3, [r4, #24]
 1218              		.loc 1 520 0
 1219 0014 586A     		ldr	r0, [r3, #36]
 1220 0016 10BD     		pop	{r4, pc}
 1221              	.L65:
 1222              		.align	2
 1223              	.L64:
 1224 0018 00000000 		.word	ch
 1225              		.cfi_endproc
 1226              	.LFE244:
 1227              		.size	chThdSuspendS, .-chThdSuspendS
 1228              		.section	.text.chThdSuspendTimeoutS,"ax",%progbits
 1229              		.align	2
 1230              		.p2align 4,,15
 1231              		.global	chThdSuspendTimeoutS
 1232              		.thumb
 1233              		.thumb_func
 1234              		.type	chThdSuspendTimeoutS, %function
 1235              	chThdSuspendTimeoutS:
 1236              	.LFB245:
 1237              		.loc 1 541 0
 1238              		.cfi_startproc
 1239              		@ args = 0, pretend = 0, frame = 0
 1240              		@ frame_needed = 0, uses_anonymous_args = 0
 1241              		@ link register save eliminated.
 1242              	.LVL68:
 1243              	.LBB358:
 1244              	.LBB359:
 1245              		.loc 4 176 0
 1246 0000 054B     		ldr	r3, .L68
 1247              	.LBE359:
 1248              	.LBE358:
 1249              		.loc 1 541 0
 1250 0002 0246     		mov	r2, r0
 1251              	.LBB361:
 1252              	.LBB360:
 1253              		.loc 4 176 0
 1254 0004 9B69     		ldr	r3, [r3, #24]
ARM GAS  /var/folders/m4/4md61f0s1_g0rzfghffqnxvr0000gn/T//ccCW3rgC.s 			page 23


 1255              	.LBE360:
 1256              	.LBE361:
 1257              		.loc 1 546 0
 1258 0006 21B1     		cbz	r1, .L67
 1259              		.loc 1 550 0
 1260 0008 0360     		str	r3, [r0]
 1261              		.loc 1 553 0
 1262 000a 0320     		movs	r0, #3
 1263              	.LVL69:
 1264              		.loc 1 551 0
 1265 000c 5A62     		str	r2, [r3, #36]
 1266              		.loc 1 553 0
 1267 000e FFF7FEBF 		b	chSchGoSleepTimeoutS
 1268              	.LVL70:
 1269              	.L67:
 1270              		.loc 1 554 0
 1271 0012 4FF0FF30 		mov	r0, #-1
 1272              	.LVL71:
 1273 0016 7047     		bx	lr
 1274              	.L69:
 1275              		.align	2
 1276              	.L68:
 1277 0018 00000000 		.word	ch
 1278              		.cfi_endproc
 1279              	.LFE245:
 1280              		.size	chThdSuspendTimeoutS, .-chThdSuspendTimeoutS
 1281              		.section	.text.chThdResumeI,"ax",%progbits
 1282              		.align	2
 1283              		.p2align 4,,15
 1284              		.global	chThdResumeI
 1285              		.thumb
 1286              		.thumb_func
 1287              		.type	chThdResumeI, %function
 1288              	chThdResumeI:
 1289              	.LFB246:
 1290              		.loc 1 566 0
 1291              		.cfi_startproc
 1292              		@ args = 0, pretend = 0, frame = 0
 1293              		@ frame_needed = 0, uses_anonymous_args = 0
 1294              		@ link register save eliminated.
 1295              	.LVL72:
 1296              		.loc 1 568 0
 1297 0000 0368     		ldr	r3, [r0]
 1298 0002 2BB1     		cbz	r3, .L70
 1299              	.LVL73:
 1300              	.LBB362:
 1301              		.loc 1 574 0
 1302 0004 0022     		movs	r2, #0
 1303 0006 0260     		str	r2, [r0]
 1304              		.loc 1 576 0
 1305 0008 1846     		mov	r0, r3
 1306              	.LVL74:
 1307              		.loc 1 575 0
 1308 000a 5962     		str	r1, [r3, #36]
 1309              		.loc 1 576 0
 1310 000c FFF7FEBF 		b	chSchReadyI
 1311              	.LVL75:
ARM GAS  /var/folders/m4/4md61f0s1_g0rzfghffqnxvr0000gn/T//ccCW3rgC.s 			page 24


 1312              	.L70:
 1313 0010 7047     		bx	lr
 1314              	.LBE362:
 1315              		.cfi_endproc
 1316              	.LFE246:
 1317              		.size	chThdResumeI, .-chThdResumeI
 1318 0012 00BF     		.section	.text.chThdResumeS,"ax",%progbits
 1319              		.align	2
 1320              		.p2align 4,,15
 1321              		.global	chThdResumeS
 1322              		.thumb
 1323              		.thumb_func
 1324              		.type	chThdResumeS, %function
 1325              	chThdResumeS:
 1326              	.LFB247:
 1327              		.loc 1 590 0
 1328              		.cfi_startproc
 1329              		@ args = 0, pretend = 0, frame = 0
 1330              		@ frame_needed = 0, uses_anonymous_args = 0
 1331              		@ link register save eliminated.
 1332              	.LVL76:
 1333              		.loc 1 590 0
 1334 0000 0346     		mov	r3, r0
 1335              		.loc 1 592 0
 1336 0002 0068     		ldr	r0, [r0]
 1337              	.LVL77:
 1338 0004 18B1     		cbz	r0, .L72
 1339              	.LVL78:
 1340              	.LBB363:
 1341              		.loc 1 598 0
 1342 0006 0022     		movs	r2, #0
 1343 0008 1A60     		str	r2, [r3]
 1344              		.loc 1 599 0
 1345 000a FFF7FEBF 		b	chSchWakeupS
 1346              	.LVL79:
 1347              	.L72:
 1348 000e 7047     		bx	lr
 1349              	.LBE363:
 1350              		.cfi_endproc
 1351              	.LFE247:
 1352              		.size	chThdResumeS, .-chThdResumeS
 1353              		.section	.text.chThdResume,"ax",%progbits
 1354              		.align	2
 1355              		.p2align 4,,15
 1356              		.global	chThdResume
 1357              		.thumb
 1358              		.thumb_func
 1359              		.type	chThdResume, %function
 1360              	chThdResume:
 1361              	.LFB248:
 1362              		.loc 1 613 0
 1363              		.cfi_startproc
 1364              		@ args = 0, pretend = 0, frame = 0
 1365              		@ frame_needed = 0, uses_anonymous_args = 0
 1366              	.LVL80:
 1367              	.LBB364:
 1368              	.LBB365:
ARM GAS  /var/folders/m4/4md61f0s1_g0rzfghffqnxvr0000gn/T//ccCW3rgC.s 			page 25


 1369              	.LBB366:
 1370              	.LBB367:
 1371              		.loc 3 548 0
 1372 0000 2023     		movs	r3, #32
 1373              	@ 548 "ChibiOS_16.1.4/os/ext/CMSIS/include/core_cmFunc.h" 1
 1374 0002 83F31188 		MSR basepri, r3
 1375              	@ 0 "" 2
 1376              	.LVL81:
 1377              		.thumb
 1378              	.LBE367:
 1379              	.LBE366:
 1380              	.LBE365:
 1381              	.LBE364:
 1382              	.LBB368:
 1383              	.LBB369:
 1384              		.loc 1 592 0
 1385 0006 0268     		ldr	r2, [r0]
 1386 0008 52B1     		cbz	r2, .L80
 1387 000a 0346     		mov	r3, r0
 1388              	.LVL82:
 1389              	.LBE369:
 1390              	.LBE368:
 1391              		.loc 1 613 0
 1392 000c 10B5     		push	{r4, lr}
 1393              		.cfi_def_cfa_offset 8
 1394              		.cfi_offset 4, -8
 1395              		.cfi_offset 14, -4
 1396              	.LBB372:
 1397              	.LBB371:
 1398              	.LBB370:
 1399              		.loc 1 598 0
 1400 000e 0024     		movs	r4, #0
 1401 0010 1C60     		str	r4, [r3]
 1402              		.loc 1 599 0
 1403 0012 1046     		mov	r0, r2
 1404              	.LVL83:
 1405 0014 FFF7FEFF 		bl	chSchWakeupS
 1406              	.LVL84:
 1407              	.LBE370:
 1408              	.LBE371:
 1409              	.LBE372:
 1410              	.LBB373:
 1411              	.LBB374:
 1412              	.LBB375:
 1413              	.LBB376:
 1414              	.LBB377:
 1415              		.loc 3 548 0
 1416 0018 0023     		movs	r3, #0
 1417              	@ 548 "ChibiOS_16.1.4/os/ext/CMSIS/include/core_cmFunc.h" 1
 1418 001a 83F31188 		MSR basepri, r3
 1419              	@ 0 "" 2
 1420              		.thumb
 1421 001e 10BD     		pop	{r4, pc}
 1422              	.LVL85:
 1423              	.L80:
 1424              		.cfi_def_cfa_offset 0
 1425              		.cfi_restore 4
ARM GAS  /var/folders/m4/4md61f0s1_g0rzfghffqnxvr0000gn/T//ccCW3rgC.s 			page 26


 1426              		.cfi_restore 14
 1427 0020 0023     		movs	r3, #0
 1428              	@ 548 "ChibiOS_16.1.4/os/ext/CMSIS/include/core_cmFunc.h" 1
 1429 0022 83F31188 		MSR basepri, r3
 1430              	@ 0 "" 2
 1431              		.thumb
 1432 0026 7047     		bx	lr
 1433              	.LBE377:
 1434              	.LBE376:
 1435              	.LBE375:
 1436              	.LBE374:
 1437              	.LBE373:
 1438              		.cfi_endproc
 1439              	.LFE248:
 1440              		.size	chThdResume, .-chThdResume
 1441              		.section	.text.chThdEnqueueTimeoutS,"ax",%progbits
 1442              		.align	2
 1443              		.p2align 4,,15
 1444              		.global	chThdEnqueueTimeoutS
 1445              		.thumb
 1446              		.thumb_func
 1447              		.type	chThdEnqueueTimeoutS, %function
 1448              	chThdEnqueueTimeoutS:
 1449              	.LFB249:
 1450              		.loc 1 643 0
 1451              		.cfi_startproc
 1452              		@ args = 0, pretend = 0, frame = 0
 1453              		@ frame_needed = 0, uses_anonymous_args = 0
 1454              		@ link register save eliminated.
 1455              	.LVL86:
 1456              		.loc 1 645 0
 1457 0000 69B1     		cbz	r1, .L82
 1458              		.loc 1 649 0
 1459 0002 084B     		ldr	r3, .L84
 1460              		.loc 1 643 0
 1461 0004 10B4     		push	{r4}
 1462              		.cfi_def_cfa_offset 4
 1463              		.cfi_offset 4, -4
 1464 0006 0246     		mov	r2, r0
 1465              	.LBB378:
 1466              	.LBB379:
 1467              		.loc 2 666 0
 1468 0008 4468     		ldr	r4, [r0, #4]
 1469              	.LBE379:
 1470              	.LBE378:
 1471              		.loc 1 649 0
 1472 000a 9B69     		ldr	r3, [r3, #24]
 1473              	.LVL87:
 1474              		.loc 1 651 0
 1475 000c 0420     		movs	r0, #4
 1476              	.LVL88:
 1477              	.LBB381:
 1478              	.LBB380:
 1479              		.loc 2 666 0
 1480 000e 83E81400 		stmia	r3, {r2, r4}
 1481              		.loc 2 667 0
 1482 0012 2360     		str	r3, [r4]
ARM GAS  /var/folders/m4/4md61f0s1_g0rzfghffqnxvr0000gn/T//ccCW3rgC.s 			page 27


 1483              		.loc 2 668 0
 1484 0014 5360     		str	r3, [r2, #4]
 1485              	.LBE380:
 1486              	.LBE381:
 1487              		.loc 1 652 0
 1488 0016 5DF8044B 		ldr	r4, [sp], #4
 1489              		.cfi_restore 4
 1490              		.cfi_def_cfa_offset 0
 1491              		.loc 1 651 0
 1492 001a FFF7FEBF 		b	chSchGoSleepTimeoutS
 1493              	.LVL89:
 1494              	.L82:
 1495              		.loc 1 652 0
 1496 001e 4FF0FF30 		mov	r0, #-1
 1497              	.LVL90:
 1498 0022 7047     		bx	lr
 1499              	.L85:
 1500              		.align	2
 1501              	.L84:
 1502 0024 00000000 		.word	ch
 1503              		.cfi_endproc
 1504              	.LFE249:
 1505              		.size	chThdEnqueueTimeoutS, .-chThdEnqueueTimeoutS
 1506              		.section	.text.chThdDequeueNextI,"ax",%progbits
 1507              		.align	2
 1508              		.p2align 4,,15
 1509              		.global	chThdDequeueNextI
 1510              		.thumb
 1511              		.thumb_func
 1512              		.type	chThdDequeueNextI, %function
 1513              	chThdDequeueNextI:
 1514              	.LFB250:
 1515              		.loc 1 663 0
 1516              		.cfi_startproc
 1517              		@ args = 0, pretend = 0, frame = 0
 1518              		@ frame_needed = 0, uses_anonymous_args = 0
 1519              		@ link register save eliminated.
 1520              	.LVL91:
 1521              	.LBB382:
 1522              	.LBB383:
 1523              		.loc 2 631 0
 1524 0000 0268     		ldr	r2, [r0]
 1525              	.LBE383:
 1526              	.LBE382:
 1527              		.loc 1 665 0
 1528 0002 9042     		cmp	r0, r2
 1529              		.loc 1 663 0
 1530 0004 0346     		mov	r3, r0
 1531              	.LVL92:
 1532              		.loc 1 665 0
 1533 0006 09D0     		beq	.L89
 1534              	.LVL93:
 1535              		.loc 1 663 0
 1536 0008 10B4     		push	{r4}
 1537              		.cfi_def_cfa_offset 4
 1538              		.cfi_offset 4, -4
 1539              	.LBB384:
ARM GAS  /var/folders/m4/4md61f0s1_g0rzfghffqnxvr0000gn/T//ccCW3rgC.s 			page 28


 1540              	.LBB385:
 1541              	.LBB386:
 1542              	.LBB387:
 1543              		.loc 2 674 0
 1544 000a 1468     		ldr	r4, [r2]
 1545 000c 0460     		str	r4, [r0]
 1546              		.loc 2 675 0
 1547 000e 6360     		str	r3, [r4, #4]
 1548              	.LBE387:
 1549              	.LBE386:
 1550              		.loc 4 321 0
 1551 0010 5162     		str	r1, [r2, #36]
 1552              		.loc 4 322 0
 1553 0012 1046     		mov	r0, r2
 1554              	.LVL94:
 1555              	.LBE385:
 1556              	.LBE384:
 1557              		.loc 1 668 0
 1558 0014 5DF8044B 		ldr	r4, [sp], #4
 1559              		.cfi_restore 4
 1560              		.cfi_def_cfa_offset 0
 1561              	.LBB389:
 1562              	.LBB388:
 1563              		.loc 4 322 0
 1564 0018 FFF7FEBF 		b	chSchReadyI
 1565              	.LVL95:
 1566              	.L89:
 1567 001c 7047     		bx	lr
 1568              	.LBE388:
 1569              	.LBE389:
 1570              		.cfi_endproc
 1571              	.LFE250:
 1572              		.size	chThdDequeueNextI, .-chThdDequeueNextI
 1573 001e 00BF     		.section	.text.chThdDequeueAllI,"ax",%progbits
 1574              		.align	2
 1575              		.p2align 4,,15
 1576              		.global	chThdDequeueAllI
 1577              		.thumb
 1578              		.thumb_func
 1579              		.type	chThdDequeueAllI, %function
 1580              	chThdDequeueAllI:
 1581              	.LFB251:
 1582              		.loc 1 678 0
 1583              		.cfi_startproc
 1584              		@ args = 0, pretend = 0, frame = 0
 1585              		@ frame_needed = 0, uses_anonymous_args = 0
 1586              	.LVL96:
 1587 0000 38B5     		push	{r3, r4, r5, lr}
 1588              		.cfi_def_cfa_offset 16
 1589              		.cfi_offset 3, -16
 1590              		.cfi_offset 4, -12
 1591              		.cfi_offset 5, -8
 1592              		.cfi_offset 14, -4
 1593              	.LBB390:
 1594              	.LBB391:
 1595              		.loc 2 631 0
 1596 0002 0368     		ldr	r3, [r0]
ARM GAS  /var/folders/m4/4md61f0s1_g0rzfghffqnxvr0000gn/T//ccCW3rgC.s 			page 29


 1597              	.LBE391:
 1598              	.LBE390:
 1599              		.loc 1 680 0
 1600 0004 9842     		cmp	r0, r3
 1601              		.loc 1 678 0
 1602 0006 0446     		mov	r4, r0
 1603              	.LVL97:
 1604 0008 0D46     		mov	r5, r1
 1605              		.loc 1 680 0
 1606 000a 09D0     		beq	.L90
 1607              	.LVL98:
 1608              	.L92:
 1609              	.LBB393:
 1610              	.LBB394:
 1611              	.LBB395:
 1612              	.LBB396:
 1613              		.loc 2 674 0
 1614 000c 1A68     		ldr	r2, [r3]
 1615 000e 2260     		str	r2, [r4]
 1616              	.LBE396:
 1617              	.LBE395:
 1618              		.loc 4 322 0
 1619 0010 1846     		mov	r0, r3
 1620              	.LBB398:
 1621              	.LBB397:
 1622              		.loc 2 675 0
 1623 0012 5460     		str	r4, [r2, #4]
 1624              	.LBE397:
 1625              	.LBE398:
 1626              		.loc 4 321 0
 1627 0014 5D62     		str	r5, [r3, #36]
 1628              		.loc 4 322 0
 1629 0016 FFF7FEFF 		bl	chSchReadyI
 1630              	.LVL99:
 1631              	.LBE394:
 1632              	.LBE393:
 1633              	.LBB399:
 1634              	.LBB392:
 1635              		.loc 2 631 0
 1636 001a 2368     		ldr	r3, [r4]
 1637              	.LBE392:
 1638              	.LBE399:
 1639              		.loc 1 680 0
 1640 001c 9C42     		cmp	r4, r3
 1641 001e F5D1     		bne	.L92
 1642              	.LVL100:
 1643              	.L90:
 1644 0020 38BD     		pop	{r3, r4, r5, pc}
 1645              		.cfi_endproc
 1646              	.LFE251:
 1647              		.size	chThdDequeueAllI, .-chThdDequeueAllI
 1648              		.text
 1649              	.Letext0:
 1650              		.file 6 "/usr/local/Cellar/gcc-arm-none-eabi-49/20150609/lib/gcc/arm-none-eabi/4.9.3/include/stdde
 1651              		.file 7 "/usr/local/Cellar/gcc-arm-none-eabi-49/20150609/arm-none-eabi/include/machine/_default_ty
 1652              		.file 8 "/usr/local/Cellar/gcc-arm-none-eabi-49/20150609/arm-none-eabi/include/sys/_stdint.h"
 1653              		.file 9 "ChibiOS_16.1.4/os/rt/ports/ARMCMx/compilers/GCC/chtypes.h"
ARM GAS  /var/folders/m4/4md61f0s1_g0rzfghffqnxvr0000gn/T//ccCW3rgC.s 			page 30


 1654              		.file 10 "ChibiOS_16.1.4/os/rt/include/chsystypes.h"
 1655              		.file 11 "ChibiOS_16.1.4/os/rt/ports/ARMCMx/chcore.h"
 1656              		.file 12 "ChibiOS_16.1.4/os/rt/ports/ARMCMx/chcore_v7m.h"
 1657              		.file 13 "ChibiOS_16.1.4/os/rt/include/chtm.h"
 1658              		.file 14 "ChibiOS_16.1.4/os/rt/include/chsem.h"
 1659              		.file 15 "ChibiOS_16.1.4/os/rt/include/chmtx.h"
 1660              		.file 16 "ChibiOS_16.1.4/os/rt/include/chsys.h"
 1661              		.file 17 "ChibiOS_16.1.4/os/ext/CMSIS/include/core_cm4.h"
 1662              		.file 18 "ChibiOS_16.1.4/os/rt/include/chdynamic.h"