ARM GAS  /var/folders/m4/4md61f0s1_g0rzfghffqnxvr0000gn/T//ccXN00eX.s 			page 1


   1              		.syntax unified
   2              		.cpu cortex-m4
   3              		.eabi_attribute 27, 1
   4              		.eabi_attribute 28, 1
   5              		.fpu fpv4-sp-d16
   6              		.eabi_attribute 20, 1
   7              		.eabi_attribute 21, 1
   8              		.eabi_attribute 23, 3
   9              		.eabi_attribute 24, 1
  10              		.eabi_attribute 25, 1
  11              		.eabi_attribute 26, 1
  12              		.eabi_attribute 30, 2
  13              		.eabi_attribute 34, 1
  14              		.eabi_attribute 18, 4
  15              		.thumb
  16              		.syntax unified
  17              		.file	"controller.cpp"
  18              		.text
  19              	.Ltext0:
  20              		.cfi_sections	.debug_frame
  21              		.section	.text._Z15controller_initv,"ax",%progbits
  22              		.align	2
  23              		.p2align 4,,15
  24              		.global	_Z15controller_initv
  25              		.thumb
  26              		.thumb_func
  27              		.type	_Z15controller_initv, %function
  28              	_Z15controller_initv:
  29              	.LFB6340:
  30              		.file 1 "controller.cpp"
  31              		.loc 1 18 0
  32              		.cfi_startproc
  33              		@ args = 0, pretend = 0, frame = 0
  34              		@ frame_needed = 0, uses_anonymous_args = 0
  35              		@ link register save eliminated.
  36 0000 2DE9700F 		push	{r4, r5, r6, r8, r9, r10, fp}
  37              		.cfi_def_cfa_offset 28
  38              		.cfi_offset 4, -28
  39              		.cfi_offset 5, -24
  40              		.cfi_offset 6, -20
  41              		.cfi_offset 8, -16
  42              		.cfi_offset 9, -12
  43              		.cfi_offset 10, -8
  44              		.cfi_offset 11, -4
  45              		.loc 1 19 0
  46 0004 9FED1C7B 		vldr.64	d7, .L3
  47              		.loc 1 21 0
  48 0008 0FF2940B 		adr	fp, .L3+40
  49 000c DBE900AB 		ldrd	r10, [fp]
  50              		.loc 1 19 0
  51 0010 1D4B     		ldr	r3, .L3+16
  52              		.loc 1 28 0
  53 0012 1E4E     		ldr	r6, .L3+20
  54              		.loc 1 22 0
  55 0014 1E4D     		ldr	r5, .L3+24
  56              		.loc 1 25 0
  57 0016 1F4C     		ldr	r4, .L3+28
ARM GAS  /var/folders/m4/4md61f0s1_g0rzfghffqnxvr0000gn/T//ccXN00eX.s 			page 2


  58              		.loc 1 31 0
  59 0018 1F48     		ldr	r0, .L3+32
  60              		.loc 1 34 0
  61 001a 2049     		ldr	r1, .L3+36
  62              		.loc 1 28 0
  63 001c 0FF26009 		adr	r9, .L3+8
  64 0020 D9E90089 		ldrd	r8, [r9]
  65              		.loc 1 22 0
  66 0024 0022     		movs	r2, #0
  67              		.loc 1 21 0
  68 0026 C3E904AB 		strd	r10, [r3, #16]
  69              		.loc 1 19 0
  70 002a 83ED007B 		vstr.64	d7, [r3]
  71              		.loc 1 20 0
  72 002e 83ED027B 		vstr.64	d7, [r3, #8]
  73              		.loc 1 22 0
  74 0032 0023     		movs	r3, #0
  75              		.loc 1 30 0
  76 0034 C6E904AB 		strd	r10, [r6, #16]
  77              		.loc 1 28 0
  78 0038 C6E90089 		strd	r8, [r6]
  79              		.loc 1 29 0
  80 003c C6E90289 		strd	r8, [r6, #8]
  81              		.loc 1 22 0
  82 0040 C5E90023 		strd	r2, [r5]
  83              		.loc 1 23 0
  84 0044 C5E90223 		strd	r2, [r5, #8]
  85              		.loc 1 24 0
  86 0048 C5E90423 		strd	r2, [r5, #16]
  87              		.loc 1 25 0
  88 004c C4E90023 		strd	r2, [r4]
  89              		.loc 1 26 0
  90 0050 C4E90223 		strd	r2, [r4, #8]
  91              		.loc 1 27 0
  92 0054 C4E90423 		strd	r2, [r4, #16]
  93              		.loc 1 31 0
  94 0058 C0E90023 		strd	r2, [r0]
  95              		.loc 1 32 0
  96 005c C0E90223 		strd	r2, [r0, #8]
  97              		.loc 1 33 0
  98 0060 C0E90423 		strd	r2, [r0, #16]
  99              		.loc 1 34 0
 100 0064 C1E90023 		strd	r2, [r1]
 101              		.loc 1 35 0
 102 0068 C1E90223 		strd	r2, [r1, #8]
 103              		.loc 1 36 0
 104 006c C1E90423 		strd	r2, [r1, #16]
 105              		.loc 1 37 0
 106 0070 BDE8700F 		pop	{r4, r5, r6, r8, r9, r10, fp}
 107              		.cfi_restore 11
 108              		.cfi_restore 10
 109              		.cfi_restore 9
 110              		.cfi_restore 8
 111              		.cfi_restore 6
 112              		.cfi_restore 5
 113              		.cfi_restore 4
 114              		.cfi_def_cfa_offset 0
ARM GAS  /var/folders/m4/4md61f0s1_g0rzfghffqnxvr0000gn/T//ccXN00eX.s 			page 3


 115 0074 7047     		bx	lr
 116              	.L4:
 117 0076 00BF     		.align	3
 118              	.L3:
 119 0078 7B14AE47 		.word	1202590843
 120 007c E17A843F 		.word	1065646817
 121 0080 7B14AE47 		.word	1202590843
 122 0084 E17A84BF 		.word	-1081836831
 123 0088 00000000 		.word	.LANCHOR0
 124 008c 00000000 		.word	.LANCHOR3
 125 0090 00000000 		.word	.LANCHOR1
 126 0094 00000000 		.word	.LANCHOR2
 127 0098 00000000 		.word	.LANCHOR4
 128 009c 00000000 		.word	.LANCHOR5
 129 00a0 9A999999 		.word	2576980378
 130 00a4 9999A93F 		.word	1068079513
 131              		.cfi_endproc
 132              	.LFE6340:
 133              		.size	_Z15controller_initv, .-_Z15controller_initv
 134              		.global	__aeabi_dsub
 135              		.global	__aeabi_dmul
 136              		.global	__aeabi_dadd
 137              		.section	.text._Z20velocity_loop_update7vector3d,"ax",%progbits
 138              		.align	2
 139              		.p2align 4,,15
 140              		.global	_Z20velocity_loop_update7vector3d
 141              		.thumb
 142              		.thumb_func
 143              		.type	_Z20velocity_loop_update7vector3d, %function
 144              	_Z20velocity_loop_update7vector3d:
 145              	.LFB6342:
 146              		.loc 1 57 0
 147              		.cfi_startproc
 148              		@ args = 0, pretend = 0, frame = 40
 149              		@ frame_needed = 0, uses_anonymous_args = 0
 150              	.LVL0:
 151 0000 2DE9F04F 		push	{r4, r5, r6, r7, r8, r9, r10, fp, lr}
 152              		.cfi_def_cfa_offset 36
 153              		.cfi_offset 4, -36
 154              		.cfi_offset 5, -32
 155              		.cfi_offset 6, -28
 156              		.cfi_offset 7, -24
 157              		.cfi_offset 8, -20
 158              		.cfi_offset 9, -16
 159              		.cfi_offset 10, -12
 160              		.cfi_offset 11, -8
 161              		.cfi_offset 14, -4
 162              		.loc 1 58 0
 163 0004 374D     		ldr	r5, .L7
 164              		.loc 1 61 0
 165 0006 384C     		ldr	r4, .L7+4
 166              		.loc 1 57 0
 167 0008 8BB0     		sub	sp, sp, #44
 168              		.cfi_def_cfa_offset 80
 169              	.LVL1:
 170              		.loc 1 61 0
 171 000a 51EC100B 		vmov	r0, r1, d0
ARM GAS  /var/folders/m4/4md61f0s1_g0rzfghffqnxvr0000gn/T//ccXN00eX.s 			page 4


 172 000e D5E90023 		ldrd	r2, [r5]
 173              		.loc 1 57 0
 174 0012 57EC136B 		vmov	r6, r7, d3
 175 0016 8DED002B 		vstr.64	d2, [sp]
 176 001a 8DED021B 		vstr.64	d1, [sp, #8]
 177              		.loc 1 61 0
 178 001e FFF7FEFF 		bl	__aeabi_dsub
 179              	.LVL2:
 180 0022 D4E90023 		ldrd	r2, [r4]
 181 0026 FFF7FEFF 		bl	__aeabi_dmul
 182              	.LVL3:
 183              		.loc 1 62 0
 184 002a 9DED021B 		vldr.64	d1, [sp, #8]
 185              		.loc 1 61 0
 186 002e 8246     		mov	r10, r0
 187 0030 8B46     		mov	fp, r1
 188              	.LVL4:
 189              		.loc 1 62 0
 190 0032 D5E90223 		ldrd	r2, [r5, #8]
 191              	.LVL5:
 192 0036 51EC110B 		vmov	r0, r1, d1
 193 003a FFF7FEFF 		bl	__aeabi_dsub
 194              	.LVL6:
 195 003e D4E90223 		ldrd	r2, [r4, #8]
 196 0042 FFF7FEFF 		bl	__aeabi_dmul
 197              	.LVL7:
 198              		.loc 1 63 0
 199 0046 9DED002B 		vldr.64	d2, [sp]
 200              		.loc 1 62 0
 201 004a 8046     		mov	r8, r0
 202 004c 8946     		mov	r9, r1
 203              	.LVL8:
 204              		.loc 1 63 0
 205 004e D5E90423 		ldrd	r2, [r5, #16]
 206              	.LVL9:
 207 0052 51EC120B 		vmov	r0, r1, d2
 208 0056 FFF7FEFF 		bl	__aeabi_dsub
 209              	.LVL10:
 210 005a D4E90423 		ldrd	r2, [r4, #16]
 211 005e FFF7FEFF 		bl	__aeabi_dmul
 212              	.LVL11:
 213              		.loc 1 64 0
 214 0062 3246     		mov	r2, r6
 215              		.loc 1 63 0
 216 0064 0446     		mov	r4, r0
 217 0066 0D46     		mov	r5, r1
 218              	.LVL12:
 219              		.loc 1 64 0
 220 0068 3B46     		mov	r3, r7
 221 006a 5046     		mov	r0, r10
 222 006c 5946     		mov	r1, fp
 223 006e FFF7FEFF 		bl	__aeabi_dadd
 224              	.LVL13:
 225 0072 2246     		mov	r2, r4
 226 0074 2B46     		mov	r3, r5
 227 0076 FFF7FEFF 		bl	__aeabi_dsub
 228              	.LVL14:
ARM GAS  /var/folders/m4/4md61f0s1_g0rzfghffqnxvr0000gn/T//ccXN00eX.s 			page 5


 229 007a 41EC100B 		vmov	d0, r0, r1
 230 007e 0020     		movs	r0, #0
 231 0080 FFF7FEFF 		bl	_Z7esc_sethd
 232              	.LVL15:
 233              		.loc 1 65 0
 234 0084 4246     		mov	r2, r8
 235 0086 4B46     		mov	r3, r9
 236 0088 3046     		mov	r0, r6
 237 008a 3946     		mov	r1, r7
 238 008c FFF7FEFF 		bl	__aeabi_dsub
 239              	.LVL16:
 240 0090 2246     		mov	r2, r4
 241 0092 2B46     		mov	r3, r5
 242 0094 FFF7FEFF 		bl	__aeabi_dadd
 243              	.LVL17:
 244 0098 41EC100B 		vmov	d0, r0, r1
 245 009c 0120     		movs	r0, #1
 246 009e FFF7FEFF 		bl	_Z7esc_sethd
 247              	.LVL18:
 248              		.loc 1 66 0
 249 00a2 5246     		mov	r2, r10
 250 00a4 5B46     		mov	r3, fp
 251 00a6 3046     		mov	r0, r6
 252 00a8 3946     		mov	r1, r7
 253 00aa FFF7FEFF 		bl	__aeabi_dsub
 254              	.LVL19:
 255 00ae 2246     		mov	r2, r4
 256 00b0 2B46     		mov	r3, r5
 257 00b2 FFF7FEFF 		bl	__aeabi_dsub
 258              	.LVL20:
 259 00b6 41EC100B 		vmov	d0, r0, r1
 260 00ba 0220     		movs	r0, #2
 261 00bc FFF7FEFF 		bl	_Z7esc_sethd
 262              	.LVL21:
 263              		.loc 1 67 0
 264 00c0 3246     		mov	r2, r6
 265 00c2 3B46     		mov	r3, r7
 266 00c4 4046     		mov	r0, r8
 267 00c6 4946     		mov	r1, r9
 268 00c8 FFF7FEFF 		bl	__aeabi_dadd
 269              	.LVL22:
 270 00cc 2246     		mov	r2, r4
 271 00ce 2B46     		mov	r3, r5
 272 00d0 FFF7FEFF 		bl	__aeabi_dadd
 273              	.LVL23:
 274 00d4 41EC100B 		vmov	d0, r0, r1
 275 00d8 0320     		movs	r0, #3
 276              		.loc 1 68 0
 277 00da 0BB0     		add	sp, sp, #44
 278              		.cfi_def_cfa_offset 36
 279              		@ sp needed
 280 00dc BDE8F04F 		pop	{r4, r5, r6, r7, r8, r9, r10, fp, lr}
 281              		.cfi_restore 14
 282              		.cfi_restore 11
 283              		.cfi_restore 10
 284              		.cfi_restore 9
 285              		.cfi_restore 8
ARM GAS  /var/folders/m4/4md61f0s1_g0rzfghffqnxvr0000gn/T//ccXN00eX.s 			page 6


 286              		.cfi_restore 7
 287              		.cfi_restore 6
 288              		.cfi_restore 5
 289              		.cfi_restore 4
 290              		.cfi_def_cfa_offset 0
 291              	.LVL24:
 292              		.loc 1 67 0
 293 00e0 FFF7FEBF 		b	_Z7esc_sethd
 294              	.LVL25:
 295              	.L8:
 296              		.align	2
 297              	.L7:
 298 00e4 00000000 		.word	.LANCHOR6
 299 00e8 00000000 		.word	.LANCHOR0
 300              		.cfi_endproc
 301              	.LFE6342:
 302              		.size	_Z20velocity_loop_update7vector3d, .-_Z20velocity_loop_update7vector3d
 303              		.section	.text._Z17controller_updated,"ax",%progbits
 304              		.align	2
 305              		.p2align 4,,15
 306              		.global	_Z17controller_updated
 307              		.thumb
 308              		.thumb_func
 309              		.type	_Z17controller_updated, %function
 310              	_Z17controller_updated:
 311              	.LFB6341:
 312              		.loc 1 40 0
 313              		.cfi_startproc
 314              		@ args = 0, pretend = 0, frame = 32
 315              		@ frame_needed = 0, uses_anonymous_args = 0
 316              	.LVL26:
 317 0000 70B5     		push	{r4, r5, r6, lr}
 318              		.cfi_def_cfa_offset 16
 319              		.cfi_offset 4, -16
 320              		.cfi_offset 5, -12
 321              		.cfi_offset 6, -8
 322              		.cfi_offset 14, -4
 323 0002 2DED028B 		vpush.64	{d8}
 324              		.cfi_def_cfa_offset 24
 325              		.cfi_offset 80, -24
 326              		.cfi_offset 81, -20
 327 0006 B0EE408A 		vmov.f32	s16, s0
 328 000a F0EE608A 		vmov.f32	s17, s1
 329 000e 88B0     		sub	sp, sp, #32
 330              		.cfi_def_cfa_offset 56
 331              		.loc 1 41 0
 332 0010 1A20     		movs	r0, #26
 333 0012 FFF7FEFF 		bl	_Z17bno055_get_vectorh
 334              	.LVL27:
 335 0016 1E4C     		ldr	r4, .L11+8
 336              		.loc 1 42 0
 337 0018 1E4D     		ldr	r5, .L11+12
 338              		.loc 1 51 0
 339 001a 1F4E     		ldr	r6, .L11+16
 340              		.loc 1 42 0
 341 001c 1420     		movs	r0, #20
 342              		.loc 1 41 0
ARM GAS  /var/folders/m4/4md61f0s1_g0rzfghffqnxvr0000gn/T//ccXN00eX.s 			page 7


 343 001e 84ED000B 		vstr.64	d0, [r4]
 344 0022 84ED021B 		vstr.64	d1, [r4, #8]
 345 0026 84ED042B 		vstr.64	d2, [r4, #16]
 346              		.loc 1 42 0
 347 002a FFF7FEFF 		bl	_Z17bno055_get_vectorh
 348              	.LVL28:
 349              		.loc 1 51 0
 350 002e D4E90223 		ldrd	r2, [r4, #8]
 351 0032 0020     		movs	r0, #0
 352 0034 0021     		movs	r1, #0
 353              		.loc 1 42 0
 354 0036 85ED000B 		vstr.64	d0, [r5]
 355 003a 85ED021B 		vstr.64	d1, [r5, #8]
 356 003e 85ED042B 		vstr.64	d2, [r5, #16]
 357              	.LVL29:
 358              		.loc 1 51 0
 359 0042 FFF7FEFF 		bl	__aeabi_dsub
 360              	.LVL30:
 361 0046 D6E90223 		ldrd	r2, [r6, #8]
 362 004a FFF7FEFF 		bl	__aeabi_dmul
 363              	.LVL31:
 364              		.loc 1 53 0
 365 004e D4E90023 		ldrd	r2, [r4]
 366              	.LVL32:
 367              		.loc 1 51 0
 368 0052 CDE90001 		strd	r0, [sp]
 369              	.LVL33:
 370              		.loc 1 53 0
 371 0056 0020     		movs	r0, #0
 372              	.LVL34:
 373 0058 0021     		movs	r1, #0
 374 005a FFF7FEFF 		bl	__aeabi_dsub
 375              	.LVL35:
 376 005e D6E90023 		ldrd	r2, [r6]
 377 0062 FFF7FEFF 		bl	__aeabi_dmul
 378              	.LVL36:
 379 0066 B0EE483A 		vmov.f32	s6, s16
 380 006a F0EE683A 		vmov.f32	s7, s17
 381 006e 41EC100B 		vmov	d0, r0, r1
 382 0072 9DED001B 		vldr.64	d1, [sp]
 383 0076 9FED042B 		vldr.64	d2, .L11
 384 007a FFF7FEFF 		bl	_Z20velocity_loop_update7vector3d
 385              	.LVL37:
 386              		.loc 1 54 0
 387 007e 08B0     		add	sp, sp, #32
 388              		.cfi_def_cfa_offset 24
 389              		@ sp needed
 390 0080 BDEC028B 		vldm	sp!, {d8}
 391              		.cfi_restore 80
 392              		.cfi_restore 81
 393              		.cfi_def_cfa_offset 16
 394              	.LVL38:
 395 0084 70BD     		pop	{r4, r5, r6, pc}
 396              	.L12:
 397 0086 00BF     		.align	3
 398              	.L11:
 399 0088 00000000 		.word	0
ARM GAS  /var/folders/m4/4md61f0s1_g0rzfghffqnxvr0000gn/T//ccXN00eX.s 			page 8


 400 008c 00000000 		.word	0
 401 0090 00000000 		.word	.LANCHOR7
 402 0094 00000000 		.word	.LANCHOR6
 403 0098 00000000 		.word	.LANCHOR3
 404              		.cfi_endproc
 405              	.LFE6341:
 406              		.size	_Z17controller_updated, .-_Z17controller_updated
 407              		.global	pos_d_gains
 408              		.global	pos_i_gains
 409              		.global	pos_p_gains
 410              		.global	vel_d_gains
 411              		.global	vel_i_gains
 412              		.global	vel_p_gains
 413              		.global	rotation
 414              		.global	orientation
 415              		.section	.bss.vel_d_gains,"aw",%nobits
 416              		.align	3
 417              		.set	.LANCHOR2,. + 0
 418              		.type	vel_d_gains, %object
 419              		.size	vel_d_gains, 24
 420              	vel_d_gains:
 421 0000 00000000 		.space	24
 421      00000000 
 421      00000000 
 421      00000000 
 421      00000000 
 422              		.section	.bss.pos_i_gains,"aw",%nobits
 423              		.align	3
 424              		.set	.LANCHOR4,. + 0
 425              		.type	pos_i_gains, %object
 426              		.size	pos_i_gains, 24
 427              	pos_i_gains:
 428 0000 00000000 		.space	24
 428      00000000 
 428      00000000 
 428      00000000 
 428      00000000 
 429              		.section	.bss.orientation,"aw",%nobits
 430              		.align	3
 431              		.set	.LANCHOR7,. + 0
 432              		.type	orientation, %object
 433              		.size	orientation, 24
 434              	orientation:
 435 0000 00000000 		.space	24
 435      00000000 
 435      00000000 
 435      00000000 
 435      00000000 
 436              		.section	.bss.pos_p_gains,"aw",%nobits
 437              		.align	3
 438              		.set	.LANCHOR3,. + 0
 439              		.type	pos_p_gains, %object
 440              		.size	pos_p_gains, 24
 441              	pos_p_gains:
 442 0000 00000000 		.space	24
 442      00000000 
 442      00000000 
ARM GAS  /var/folders/m4/4md61f0s1_g0rzfghffqnxvr0000gn/T//ccXN00eX.s 			page 9


 442      00000000 
 442      00000000 
 443              		.section	.bss.vel_i_gains,"aw",%nobits
 444              		.align	3
 445              		.set	.LANCHOR1,. + 0
 446              		.type	vel_i_gains, %object
 447              		.size	vel_i_gains, 24
 448              	vel_i_gains:
 449 0000 00000000 		.space	24
 449      00000000 
 449      00000000 
 449      00000000 
 449      00000000 
 450              		.section	.bss.pos_d_gains,"aw",%nobits
 451              		.align	3
 452              		.set	.LANCHOR5,. + 0
 453              		.type	pos_d_gains, %object
 454              		.size	pos_d_gains, 24
 455              	pos_d_gains:
 456 0000 00000000 		.space	24
 456      00000000 
 456      00000000 
 456      00000000 
 456      00000000 
 457              		.section	.bss.vel_p_gains,"aw",%nobits
 458              		.align	3
 459              		.set	.LANCHOR0,. + 0
 460              		.type	vel_p_gains, %object
 461              		.size	vel_p_gains, 24
 462              	vel_p_gains:
 463 0000 00000000 		.space	24
 463      00000000 
 463      00000000 
 463      00000000 
 463      00000000 
 464              		.section	.bss.rotation,"aw",%nobits
 465              		.align	3
 466              		.set	.LANCHOR6,. + 0
 467              		.type	rotation, %object
 468              		.size	rotation, 24
 469              	rotation:
 470 0000 00000000 		.space	24
 470      00000000 
 470      00000000 
 470      00000000 
 470      00000000 
 471              		.text
 472              	.Letext0:
 473              		.file 2 "/opt/homebrew-cask/Caskroom/gcc-arm-embedded/5_2-2015q4,20151219/gcc-arm-none-eabi-5_2-20
 474              		.file 3 "/opt/homebrew-cask/Caskroom/gcc-arm-embedded/5_2-2015q4,20151219/gcc-arm-none-eabi-5_2-20
 475              		.file 4 "/opt/homebrew-cask/Caskroom/gcc-arm-embedded/5_2-2015q4,20151219/gcc-arm-none-eabi-5_2-20
 476              		.file 5 "bno055.h"
 477              		.file 6 "/opt/homebrew-cask/Caskroom/gcc-arm-embedded/5_2-2015q4,20151219/gcc-arm-none-eabi-5_2-20
 478              		.file 7 "ChibiOS_16.1.4/os/rt/ports/ARMCMx/compilers/GCC/chtypes.h"
 479              		.file 8 "ChibiOS_16.1.4/os/rt/include/chsystypes.h"
 480              		.file 9 "ChibiOS_16.1.4/os/rt/include/chschd.h"
 481              		.file 10 "ChibiOS_16.1.4/os/rt/ports/ARMCMx/chcore.h"
ARM GAS  /var/folders/m4/4md61f0s1_g0rzfghffqnxvr0000gn/T//ccXN00eX.s 			page 10


 482              		.file 11 "ChibiOS_16.1.4/os/rt/ports/ARMCMx/chcore_v7m.h"
 483              		.file 12 "ChibiOS_16.1.4/os/rt/include/chtm.h"
 484              		.file 13 "ChibiOS_16.1.4/os/rt/include/chsem.h"
 485              		.file 14 "ChibiOS_16.1.4/os/rt/include/chmtx.h"
 486              		.file 15 "/opt/homebrew-cask/Caskroom/gcc-arm-embedded/5_2-2015q4,20151219/gcc-arm-none-eabi-5_2-2
 487              		.file 16 "/opt/homebrew-cask/Caskroom/gcc-arm-embedded/5_2-2015q4,20151219/gcc-arm-none-eabi-5_2-2
 488              		.file 17 "/opt/homebrew-cask/Caskroom/gcc-arm-embedded/5_2-2015q4,20151219/gcc-arm-none-eabi-5_2-2
 489              		.file 18 "/opt/homebrew-cask/Caskroom/gcc-arm-embedded/5_2-2015q4,20151219/gcc-arm-none-eabi-5_2-2
 490              		.file 19 "/opt/homebrew-cask/Caskroom/gcc-arm-embedded/5_2-2015q4,20151219/gcc-arm-none-eabi-5_2-2
 491              		.file 20 "/opt/homebrew-cask/Caskroom/gcc-arm-embedded/5_2-2015q4,20151219/gcc-arm-none-eabi-5_2-2
 492              		.file 21 "/opt/homebrew-cask/Caskroom/gcc-arm-embedded/5_2-2015q4,20151219/gcc-arm-none-eabi-5_2-2
 493              		.file 22 "/opt/homebrew-cask/Caskroom/gcc-arm-embedded/5_2-2015q4,20151219/gcc-arm-none-eabi-5_2-2
 494              		.file 23 "/opt/homebrew-cask/Caskroom/gcc-arm-embedded/5_2-2015q4,20151219/gcc-arm-none-eabi-5_2-2
 495              		.file 24 "/opt/homebrew-cask/Caskroom/gcc-arm-embedded/5_2-2015q4,20151219/gcc-arm-none-eabi-5_2-2
 496              		.file 25 "/opt/homebrew-cask/Caskroom/gcc-arm-embedded/5_2-2015q4,20151219/gcc-arm-none-eabi-5_2-2
 497              		.file 26 "/opt/homebrew-cask/Caskroom/gcc-arm-embedded/5_2-2015q4,20151219/gcc-arm-none-eabi-5_2-2
 498              		.file 27 "/opt/homebrew-cask/Caskroom/gcc-arm-embedded/5_2-2015q4,20151219/gcc-arm-none-eabi-5_2-2
 499              		.file 28 "/opt/homebrew-cask/Caskroom/gcc-arm-embedded/5_2-2015q4,20151219/gcc-arm-none-eabi-5_2-2
 500              		.file 29 "/opt/homebrew-cask/Caskroom/gcc-arm-embedded/5_2-2015q4,20151219/gcc-arm-none-eabi-5_2-2
 501              		.file 30 "/opt/homebrew-cask/Caskroom/gcc-arm-embedded/5_2-2015q4,20151219/gcc-arm-none-eabi-5_2-2
 502              		.file 31 "/opt/homebrew-cask/Caskroom/gcc-arm-embedded/5_2-2015q4,20151219/gcc-arm-none-eabi-5_2-2
 503              		.file 32 "/opt/homebrew-cask/Caskroom/gcc-arm-embedded/5_2-2015q4,20151219/gcc-arm-none-eabi-5_2-2
 504              		.file 33 "/opt/homebrew-cask/Caskroom/gcc-arm-embedded/5_2-2015q4,20151219/gcc-arm-none-eabi-5_2-2
 505              		.file 34 "/opt/homebrew-cask/Caskroom/gcc-arm-embedded/5_2-2015q4,20151219/gcc-arm-none-eabi-5_2-2
 506              		.file 35 "/opt/homebrew-cask/Caskroom/gcc-arm-embedded/5_2-2015q4,20151219/gcc-arm-none-eabi-5_2-2
 507              		.file 36 "/opt/homebrew-cask/Caskroom/gcc-arm-embedded/5_2-2015q4,20151219/gcc-arm-none-eabi-5_2-2
 508              		.file 37 "/opt/homebrew-cask/Caskroom/gcc-arm-embedded/5_2-2015q4,20151219/gcc-arm-none-eabi-5_2-2
 509              		.file 38 "/opt/homebrew-cask/Caskroom/gcc-arm-embedded/5_2-2015q4,20151219/gcc-arm-none-eabi-5_2-2
 510              		.file 39 "/opt/homebrew-cask/Caskroom/gcc-arm-embedded/5_2-2015q4,20151219/gcc-arm-none-eabi-5_2-2
 511              		.file 40 "/opt/homebrew-cask/Caskroom/gcc-arm-embedded/5_2-2015q4,20151219/gcc-arm-none-eabi-5_2-2
 512              		.file 41 "/opt/homebrew-cask/Caskroom/gcc-arm-embedded/5_2-2015q4,20151219/gcc-arm-none-eabi-5_2-2
 513              		.file 42 "/opt/homebrew-cask/Caskroom/gcc-arm-embedded/5_2-2015q4,20151219/gcc-arm-none-eabi-5_2-2
 514              		.file 43 "<built-in>"
 515              		.file 44 "/opt/homebrew-cask/Caskroom/gcc-arm-embedded/5_2-2015q4,20151219/gcc-arm-none-eabi-5_2-2
 516              		.file 45 "/opt/homebrew-cask/Caskroom/gcc-arm-embedded/5_2-2015q4,20151219/gcc-arm-none-eabi-5_2-2
 517              		.file 46 "/opt/homebrew-cask/Caskroom/gcc-arm-embedded/5_2-2015q4,20151219/gcc-arm-none-eabi-5_2-2
 518              		.file 47 "/opt/homebrew-cask/Caskroom/gcc-arm-embedded/5_2-2015q4,20151219/gcc-arm-none-eabi-5_2-2
 519              		.file 48 "/opt/homebrew-cask/Caskroom/gcc-arm-embedded/5_2-2015q4,20151219/gcc-arm-none-eabi-5_2-2
 520              		.file 49 "eigen/Eigen/Core"
 521              		.file 50 "eigen/Eigen/src/Core/util/Macros.h"
 522              		.file 51 "eigen/Eigen/src/Core/util/Constants.h"
 523              		.file 52 "eigen/Eigen/src/Core/products/GeneralBlockPanelKernel.h"
 524              		.file 53 "ChibiOS_16.1.4/os/ext/CMSIS/include/core_cm4.h"
 525              		.file 54 "esc.h"