ARM GAS  /var/folders/m4/4md61f0s1_g0rzfghffqnxvr0000gn/T//cchTdfYZ.s 			page 1


   1              		.syntax unified
   2              		.cpu cortex-m4
   3              		.eabi_attribute 27, 1
   4              		.eabi_attribute 28, 1
   5              		.fpu fpv4-sp-d16
   6              		.eabi_attribute 20, 1
   7              		.eabi_attribute 21, 1
   8              		.eabi_attribute 23, 3
   9              		.eabi_attribute 24, 1
  10              		.eabi_attribute 25, 1
  11              		.eabi_attribute 26, 1
  12              		.eabi_attribute 30, 2
  13              		.eabi_attribute 34, 1
  14              		.eabi_attribute 18, 4
  15              		.thumb
  16              		.syntax unified
  17              		.file	"esc.cpp"
  18              		.text
  19              	.Ltext0:
  20              		.cfi_sections	.debug_frame
  21              		.global	__aeabi_dcmplt
  22              		.global	__aeabi_dcmpgt
  23              		.global	__aeabi_dmul
  24              		.global	__aeabi_ddiv
  25              		.global	__aeabi_d2uiz
  26              		.section	.text._Z7esc_sethd,"ax",%progbits
  27              		.align	2
  28              		.p2align 4,,15
  29              		.global	_Z7esc_sethd
  30              		.thumb
  31              		.thumb_func
  32              		.type	_Z7esc_sethd, %function
  33              	_Z7esc_sethd:
  34              	.LFB269:
  35              		.file 1 "esc.cpp"
  36              		.loc 1 63 0
  37              		.cfi_startproc
  38              		@ args = 0, pretend = 0, frame = 0
  39              		@ frame_needed = 0, uses_anonymous_args = 0
  40              	.LVL0:
  41 0000 F8B5     		push	{r3, r4, r5, r6, r7, lr}
  42              		.cfi_def_cfa_offset 24
  43              		.cfi_offset 3, -24
  44              		.cfi_offset 4, -20
  45              		.cfi_offset 5, -16
  46              		.cfi_offset 6, -12
  47              		.cfi_offset 7, -8
  48              		.cfi_offset 14, -4
  49              		.loc 1 63 0
  50 0002 57EC106B 		vmov	r6, r7, d0
  51 0006 0446     		mov	r4, r0
  52              		.loc 1 65 0
  53 0008 0022     		movs	r2, #0
  54 000a 0023     		movs	r3, #0
  55 000c 10EE100A 		vmov	r0, s0	@ int
  56              	.LVL1:
  57 0010 3946     		mov	r1, r7
ARM GAS  /var/folders/m4/4md61f0s1_g0rzfghffqnxvr0000gn/T//cchTdfYZ.s 			page 2


  58 0012 FFF7FEFF 		bl	__aeabi_dcmplt
  59              	.LVL2:
  60 0016 78BB     		cbnz	r0, .L10
  61              		.loc 1 67 0
  62 0018 0022     		movs	r2, #0
  63 001a 254B     		ldr	r3, .L17+16
  64 001c 3046     		mov	r0, r6
  65 001e 3946     		mov	r1, r7
  66 0020 FFF7FEFF 		bl	__aeabi_dcmpgt
  67              	.LVL3:
  68 0024 4FF47A75 		mov	r5, #1000
  69 0028 50B3     		cbz	r0, .L14
  70              	.L2:
  71              	.LVL4:
  72              		.loc 1 72 0
  73 002a 022C     		cmp	r4, #2
  74 002c 03D0     		beq	.L8
  75 002e 09D8     		bhi	.L5
  76 0030 0CB1     		cbz	r4, .L8
  77 0032 012C     		cmp	r4, #1
  78 0034 22D1     		bne	.L15
  79              	.L8:
  80              		.loc 1 86 0
  81 0036 2A46     		mov	r2, r5
  82 0038 2146     		mov	r1, r4
  83 003a 1E48     		ldr	r0, .L17+20
  84              		.loc 1 99 0
  85 003c BDE8F840 		pop	{r3, r4, r5, r6, r7, lr}
  86              		.cfi_remember_state
  87              		.cfi_restore 14
  88              		.cfi_restore 7
  89              		.cfi_restore 6
  90              		.cfi_restore 5
  91              		.cfi_restore 4
  92              		.cfi_restore 3
  93              		.cfi_def_cfa_offset 0
  94              		.loc 1 86 0
  95 0040 FFF7FEBF 		b	pwmEnableChannel
  96              	.LVL5:
  97              	.L5:
  98              		.cfi_restore_state
  99              		.loc 1 72 0
 100 0044 032C     		cmp	r4, #3
 101 0046 F6D0     		beq	.L8
 102 0048 FF2C     		cmp	r4, #255
 103 004a 18D1     		bne	.L16
 104              		.loc 1 90 0
 105 004c 2A46     		mov	r2, r5
 106 004e 0021     		movs	r1, #0
 107 0050 1848     		ldr	r0, .L17+20
 108 0052 FFF7FEFF 		bl	pwmEnableChannel
 109              	.LVL6:
 110              		.loc 1 91 0
 111 0056 2A46     		mov	r2, r5
 112 0058 0121     		movs	r1, #1
 113 005a 1648     		ldr	r0, .L17+20
 114 005c FFF7FEFF 		bl	pwmEnableChannel
ARM GAS  /var/folders/m4/4md61f0s1_g0rzfghffqnxvr0000gn/T//cchTdfYZ.s 			page 3


 115              	.LVL7:
 116              		.loc 1 92 0
 117 0060 2A46     		mov	r2, r5
 118 0062 0221     		movs	r1, #2
 119 0064 1348     		ldr	r0, .L17+20
 120 0066 FFF7FEFF 		bl	pwmEnableChannel
 121              	.LVL8:
 122              		.loc 1 93 0
 123 006a 2A46     		mov	r2, r5
 124 006c 0321     		movs	r1, #3
 125 006e 1148     		ldr	r0, .L17+20
 126              		.loc 1 99 0
 127 0070 BDE8F840 		pop	{r3, r4, r5, r6, r7, lr}
 128              		.cfi_remember_state
 129              		.cfi_restore 14
 130              		.cfi_restore 7
 131              		.cfi_restore 6
 132              		.cfi_restore 5
 133              		.cfi_restore 4
 134              		.cfi_restore 3
 135              		.cfi_def_cfa_offset 0
 136              		.loc 1 93 0
 137 0074 FFF7FEBF 		b	pwmEnableChannel
 138              	.LVL9:
 139              	.L10:
 140              		.cfi_restore_state
 141 0078 0025     		movs	r5, #0
 142 007a D6E7     		b	.L2
 143              	.LVL10:
 144              	.L15:
 145 007c F8BD     		pop	{r3, r4, r5, r6, r7, pc}
 146              	.L16:
 147 007e F8BD     		pop	{r3, r4, r5, r6, r7, pc}
 148              	.LVL11:
 149              	.L14:
 150 0080 07A3     		adr	r3, .L17
 151 0082 D3E90023 		ldrd	r2, [r3]
 152 0086 3046     		mov	r0, r6
 153 0088 3946     		mov	r1, r7
 154 008a FFF7FEFF 		bl	__aeabi_dmul
 155              	.LVL12:
 156 008e 06A3     		adr	r3, .L17+8
 157 0090 D3E90023 		ldrd	r2, [r3]
 158 0094 FFF7FEFF 		bl	__aeabi_ddiv
 159              	.LVL13:
 160 0098 FFF7FEFF 		bl	__aeabi_d2uiz
 161              	.LVL14:
 162 009c 0546     		mov	r5, r0
 163 009e C4E7     		b	.L2
 164              	.L18:
 165              		.align	3
 166              	.L17:
 167 00a0 00000000 		.word	0
 168 00a4 D0126341 		.word	1097011920
 169 00a8 00000000 		.word	0
 170 00ac 0088C340 		.word	1086556160
 171 00b0 0000F03F 		.word	1072693248
ARM GAS  /var/folders/m4/4md61f0s1_g0rzfghffqnxvr0000gn/T//cchTdfYZ.s 			page 4


 172 00b4 00000000 		.word	PWMD5
 173              		.cfi_endproc
 174              	.LFE269:
 175              		.size	_Z7esc_sethd, .-_Z7esc_sethd
 176              		.section	.text._Z8esc_initv,"ax",%progbits
 177              		.align	2
 178              		.p2align 4,,15
 179              		.global	_Z8esc_initv
 180              		.thumb
 181              		.thumb_func
 182              		.type	_Z8esc_initv, %function
 183              	_Z8esc_initv:
 184              	.LFB268:
 185              		.loc 1 24 0
 186              		.cfi_startproc
 187              		@ args = 0, pretend = 0, frame = 0
 188              		@ frame_needed = 0, uses_anonymous_args = 0
 189 0000 38B5     		push	{r3, r4, r5, lr}
 190              		.cfi_def_cfa_offset 16
 191              		.cfi_offset 3, -16
 192              		.cfi_offset 4, -12
 193              		.cfi_offset 5, -8
 194              		.cfi_offset 14, -4
 195              		.loc 1 30 0
 196 0002 254D     		ldr	r5, .L21+8
 197              		.loc 1 25 0
 198 0004 2549     		ldr	r1, .L21+12
 199 0006 2648     		ldr	r0, .L21+16
 200              		.loc 1 45 0
 201 0008 264C     		ldr	r4, .L21+20
 202              		.loc 1 25 0
 203 000a FFF7FEFF 		bl	pwmStart
 204              	.LVL15:
 205              		.loc 1 30 0
 206 000e 2846     		mov	r0, r5
 207 0010 4FF48572 		mov	r2, #266
 208 0014 0121     		movs	r1, #1
 209 0016 FFF7FEFF 		bl	_pal_lld_setgroupmode
 210              	.LVL16:
 211              		.loc 1 34 0
 212 001a 2846     		mov	r0, r5
 213 001c 4FF48572 		mov	r2, #266
 214 0020 0221     		movs	r1, #2
 215 0022 FFF7FEFF 		bl	_pal_lld_setgroupmode
 216              	.LVL17:
 217              		.loc 1 38 0
 218 0026 2846     		mov	r0, r5
 219 0028 4FF48572 		mov	r2, #266
 220 002c 0421     		movs	r1, #4
 221 002e FFF7FEFF 		bl	_pal_lld_setgroupmode
 222              	.LVL18:
 223              		.loc 1 42 0
 224 0032 2846     		mov	r0, r5
 225 0034 4FF48572 		mov	r2, #266
 226 0038 0821     		movs	r1, #8
 227 003a FFF7FEFF 		bl	_pal_lld_setgroupmode
 228              	.LVL19:
ARM GAS  /var/folders/m4/4md61f0s1_g0rzfghffqnxvr0000gn/T//cchTdfYZ.s 			page 5


 229              		.loc 1 45 0
 230 003e 2046     		mov	r0, r4
 231 0040 1922     		movs	r2, #25
 232 0042 4021     		movs	r1, #64
 233 0044 FFF7FEFF 		bl	_pal_lld_setgroupmode
 234              	.LVL20:
 235              		.loc 1 48 0
 236 0048 2046     		mov	r0, r4
 237 004a 1922     		movs	r2, #25
 238 004c 8021     		movs	r1, #128
 239 004e FFF7FEFF 		bl	_pal_lld_setgroupmode
 240              	.LVL21:
 241              		.loc 1 51 0
 242 0052 2046     		mov	r0, r4
 243 0054 1922     		movs	r2, #25
 244 0056 4FF48071 		mov	r1, #256
 245 005a FFF7FEFF 		bl	_pal_lld_setgroupmode
 246              	.LVL22:
 247              		.loc 1 54 0
 248 005e 2046     		mov	r0, r4
 249 0060 1922     		movs	r2, #25
 250 0062 4FF40071 		mov	r1, #512
 251 0066 FFF7FEFF 		bl	_pal_lld_setgroupmode
 252              	.LVL23:
 253              		.loc 1 55 0
 254 006a 4020     		movs	r0, #64
 255              		.loc 1 58 0
 256 006c 4FF40073 		mov	r3, #512
 257              		.loc 1 56 0
 258 0070 8021     		movs	r1, #128
 259              		.loc 1 57 0
 260 0072 4FF48072 		mov	r2, #256
 261              		.loc 1 55 0
 262 0076 2083     		strh	r0, [r4, #24]	@ movhi
 263              		.loc 1 56 0
 264 0078 2183     		strh	r1, [r4, #24]	@ movhi
 265              		.loc 1 57 0
 266 007a 2283     		strh	r2, [r4, #24]	@ movhi
 267              		.loc 1 58 0
 268 007c 2383     		strh	r3, [r4, #24]	@ movhi
 269              	.LVL24:
 270              	.LBB4:
 271              	.LBB5:
 272              		.loc 1 102 0
 273 007e 9FED040B 		vldr.64	d0, .L21
 274 0082 FF20     		movs	r0, #255
 275              	.LBE5:
 276              	.LBE4:
 277              		.loc 1 61 0
 278 0084 BDE83840 		pop	{r3, r4, r5, lr}
 279              		.cfi_restore 14
 280              		.cfi_restore 5
 281              		.cfi_restore 4
 282              		.cfi_restore 3
 283              		.cfi_def_cfa_offset 0
 284              	.LBB7:
 285              	.LBB6:
ARM GAS  /var/folders/m4/4md61f0s1_g0rzfghffqnxvr0000gn/T//cchTdfYZ.s 			page 6


 286              		.loc 1 102 0
 287 0088 FFF7FEBF 		b	_Z7esc_sethd
 288              	.LVL25:
 289              	.L22:
 290 008c AFF30080 		.align	3
 291              	.L21:
 292 0090 00000000 		.word	0
 293 0094 00000000 		.word	0
 294 0098 00000240 		.word	1073872896
 295 009c 00000000 		.word	.LANCHOR0
 296 00a0 00000000 		.word	PWMD5
 297 00a4 00080240 		.word	1073874944
 298              	.LBE6:
 299              	.LBE7:
 300              		.cfi_endproc
 301              	.LFE268:
 302              		.size	_Z8esc_initv, .-_Z8esc_initv
 303              		.section	.text._Z11esc_set_alld,"ax",%progbits
 304              		.align	2
 305              		.p2align 4,,15
 306              		.global	_Z11esc_set_alld
 307              		.thumb
 308              		.thumb_func
 309              		.type	_Z11esc_set_alld, %function
 310              	_Z11esc_set_alld:
 311              	.LFB270:
 312              		.loc 1 101 0
 313              		.cfi_startproc
 314              		@ args = 0, pretend = 0, frame = 0
 315              		@ frame_needed = 0, uses_anonymous_args = 0
 316              		@ link register save eliminated.
 317              	.LVL26:
 318              		.loc 1 102 0
 319 0000 FF20     		movs	r0, #255
 320 0002 FFF7FEBF 		b	_Z7esc_sethd
 321              	.LVL27:
 322              		.cfi_endproc
 323              	.LFE270:
 324              		.size	_Z11esc_set_alld, .-_Z11esc_set_alld
 325 0006 00BF     		.section	.data._ZL6pwmcfg,"aw",%progbits
 326              		.align	2
 327              		.set	.LANCHOR0,. + 0
 328              		.type	_ZL6pwmcfg, %object
 329              		.size	_ZL6pwmcfg, 52
 330              	_ZL6pwmcfg:
 331 0000 80969800 		.word	10000000
 332 0004 E8030000 		.word	1000
 333 0008 00000000 		.word	0
 334 000c 01000000 		.word	1
 335 0010 00000000 		.word	0
 336 0014 01000000 		.word	1
 337 0018 00000000 		.word	0
 338 001c 01000000 		.word	1
 339 0020 00000000 		.word	0
 340 0024 01000000 		.word	1
 341 0028 00000000 		.word	0
 342 002c 00000000 		.word	0
ARM GAS  /var/folders/m4/4md61f0s1_g0rzfghffqnxvr0000gn/T//cchTdfYZ.s 			page 7


 343 0030 00000000 		.word	0
 344              		.text
 345              	.Letext0:
 346              		.file 2 "/opt/homebrew-cask/Caskroom/gcc-arm-embedded/5_2-2015q4,20151219/gcc-arm-none-eabi-5_2-20
 347              		.file 3 "/opt/homebrew-cask/Caskroom/gcc-arm-embedded/5_2-2015q4,20151219/gcc-arm-none-eabi-5_2-20
 348              		.file 4 "/opt/homebrew-cask/Caskroom/gcc-arm-embedded/5_2-2015q4,20151219/gcc-arm-none-eabi-5_2-20
 349              		.file 5 "ChibiOS_16.1.4/os/rt/ports/ARMCMx/compilers/GCC/chtypes.h"
 350              		.file 6 "ChibiOS_16.1.4/os/rt/include/chsystypes.h"
 351              		.file 7 "ChibiOS_16.1.4/os/rt/include/chschd.h"
 352              		.file 8 "ChibiOS_16.1.4/os/ext/CMSIS/ST/STM32F4xx/stm32f4xx.h"
 353              		.file 9 "ChibiOS_16.1.4/os/rt/ports/ARMCMx/chcore.h"
 354              		.file 10 "ChibiOS_16.1.4/os/rt/ports/ARMCMx/chcore_v7m.h"
 355              		.file 11 "ChibiOS_16.1.4/os/rt/include/chtm.h"
 356              		.file 12 "ChibiOS_16.1.4/os/rt/include/chsem.h"
 357              		.file 13 "ChibiOS_16.1.4/os/rt/include/chmtx.h"
 358              		.file 14 "ChibiOS_16.1.4/os/hal/ports/STM32/LLD/GPIOv2/pal_lld.h"
 359              		.file 15 "ChibiOS_16.1.4/os/hal/include/pwm.h"
 360              		.file 16 "ChibiOS_16.1.4/os/hal/ports/STM32/LLD/TIMv1/pwm_lld.h"
 361              		.file 17 "ChibiOS_16.1.4/os/hal/ports/STM32/LLD/TIMv1/stm32_tim.h"
 362              		.file 18 "ChibiOS_16.1.4/os/ext/CMSIS/include/core_cm4.h"
 363              		.section	.debug_info,"",%progbits
 364              	.Ldebug_info0:
 365 0000 580E0000 		.4byte	0xe58
 366 0004 0400     		.2byte	0x4
 367 0006 00000000 		.4byte	.Ldebug_abbrev0
 368 000a 04       		.byte	0x4
 369 000b 01       		.uleb128 0x1
 370 000c 7E000000 		.4byte	.LASF178
 371 0010 04       		.byte	0x4
 372 0011 6D060000 		.4byte	.LASF179
 373 0015 00000000 		.4byte	.LASF180
 374 0019 18000000 		.4byte	.Ldebug_ranges0+0x18
 375 001d 00000000 		.4byte	0
 376 0021 00000000 		.4byte	.Ldebug_line0
 377 0025 02       		.uleb128 0x2
 378 0026 08       		.byte	0x8
 379 0027 04       		.byte	0x4
 380 0028 61080000 		.4byte	.LASF0
 381 002c 03       		.uleb128 0x3
 382 002d 04       		.byte	0x4
 383 002e 05       		.byte	0x5
 384 002f 696E7400 		.ascii	"int\000"
 385 0033 04       		.uleb128 0x4
 386 0034 61000000 		.4byte	.LASF5
 387 0038 02       		.byte	0x2
 388 0039 D8       		.byte	0xd8
 389 003a 3E000000 		.4byte	0x3e
 390 003e 02       		.uleb128 0x2
 391 003f 04       		.byte	0x4
 392 0040 07       		.byte	0x7
 393 0041 AC030000 		.4byte	.LASF1
 394 0045 02       		.uleb128 0x2
 395 0046 08       		.byte	0x8
 396 0047 05       		.byte	0x5
 397 0048 7F020000 		.4byte	.LASF2
 398 004c 02       		.uleb128 0x2
 399 004d 08       		.byte	0x8
ARM GAS  /var/folders/m4/4md61f0s1_g0rzfghffqnxvr0000gn/T//cchTdfYZ.s 			page 8


 400 004e 04       		.byte	0x4
 401 004f B9060000 		.4byte	.LASF3
 402 0053 05       		.uleb128 0x5
 403 0054 87040000 		.4byte	.LASF181
 404 0058 02       		.uleb128 0x2
 405 0059 01       		.byte	0x1
 406 005a 06       		.byte	0x6
 407 005b 8D020000 		.4byte	.LASF4
 408 005f 04       		.uleb128 0x4
 409 0060 B7010000 		.4byte	.LASF6
 410 0064 03       		.byte	0x3
 411 0065 1D       		.byte	0x1d
 412 0066 6A000000 		.4byte	0x6a
 413 006a 02       		.uleb128 0x2
 414 006b 01       		.byte	0x1
 415 006c 08       		.byte	0x8
 416 006d B9050000 		.4byte	.LASF7
 417 0071 02       		.uleb128 0x2
 418 0072 02       		.byte	0x2
 419 0073 05       		.byte	0x5
 420 0074 E4050000 		.4byte	.LASF8
 421 0078 04       		.uleb128 0x4
 422 0079 E4060000 		.4byte	.LASF9
 423 007d 03       		.byte	0x3
 424 007e 2B       		.byte	0x2b
 425 007f 83000000 		.4byte	0x83
 426 0083 02       		.uleb128 0x2
 427 0084 02       		.byte	0x2
 428 0085 07       		.byte	0x7
 429 0086 04040000 		.4byte	.LASF10
 430 008a 04       		.uleb128 0x4
 431 008b 7D040000 		.4byte	.LASF11
 432 008f 03       		.byte	0x3
 433 0090 3F       		.byte	0x3f
 434 0091 95000000 		.4byte	0x95
 435 0095 02       		.uleb128 0x2
 436 0096 04       		.byte	0x4
 437 0097 05       		.byte	0x5
 438 0098 FB020000 		.4byte	.LASF12
 439 009c 04       		.uleb128 0x4
 440 009d 2C070000 		.4byte	.LASF13
 441 00a1 03       		.byte	0x3
 442 00a2 41       		.byte	0x41
 443 00a3 A7000000 		.4byte	0xa7
 444 00a7 02       		.uleb128 0x2
 445 00a8 04       		.byte	0x4
 446 00a9 07       		.byte	0x7
 447 00aa AA020000 		.4byte	.LASF14
 448 00ae 02       		.uleb128 0x2
 449 00af 08       		.byte	0x8
 450 00b0 07       		.byte	0x7
 451 00b1 F6010000 		.4byte	.LASF15
 452 00b5 04       		.uleb128 0x4
 453 00b6 DB070000 		.4byte	.LASF16
 454 00ba 04       		.byte	0x4
 455 00bb 14       		.byte	0x14
 456 00bc 5F000000 		.4byte	0x5f
ARM GAS  /var/folders/m4/4md61f0s1_g0rzfghffqnxvr0000gn/T//cchTdfYZ.s 			page 9


 457 00c0 04       		.uleb128 0x4
 458 00c1 14030000 		.4byte	.LASF17
 459 00c5 04       		.byte	0x4
 460 00c6 1A       		.byte	0x1a
 461 00c7 78000000 		.4byte	0x78
 462 00cb 04       		.uleb128 0x4
 463 00cc B1050000 		.4byte	.LASF18
 464 00d0 04       		.byte	0x4
 465 00d1 1F       		.byte	0x1f
 466 00d2 8A000000 		.4byte	0x8a
 467 00d6 04       		.uleb128 0x4
 468 00d7 75060000 		.4byte	.LASF19
 469 00db 04       		.byte	0x4
 470 00dc 20       		.byte	0x20
 471 00dd 9C000000 		.4byte	0x9c
 472 00e1 04       		.uleb128 0x4
 473 00e2 A8040000 		.4byte	.LASF20
 474 00e6 05       		.byte	0x5
 475 00e7 39       		.byte	0x39
 476 00e8 D6000000 		.4byte	0xd6
 477 00ec 04       		.uleb128 0x4
 478 00ed 56040000 		.4byte	.LASF21
 479 00f1 05       		.byte	0x5
 480 00f2 3C       		.byte	0x3c
 481 00f3 B5000000 		.4byte	0xb5
 482 00f7 04       		.uleb128 0x4
 483 00f8 0B030000 		.4byte	.LASF22
 484 00fc 05       		.byte	0x5
 485 00fd 3D       		.byte	0x3d
 486 00fe B5000000 		.4byte	0xb5
 487 0102 04       		.uleb128 0x4
 488 0103 5F050000 		.4byte	.LASF23
 489 0107 05       		.byte	0x5
 490 0108 3E       		.byte	0x3e
 491 0109 B5000000 		.4byte	0xb5
 492 010d 04       		.uleb128 0x4
 493 010e D5020000 		.4byte	.LASF24
 494 0112 05       		.byte	0x5
 495 0113 3F       		.byte	0x3f
 496 0114 B5000000 		.4byte	0xb5
 497 0118 04       		.uleb128 0x4
 498 0119 90050000 		.4byte	.LASF25
 499 011d 05       		.byte	0x5
 500 011e 40       		.byte	0x40
 501 011f D6000000 		.4byte	0xd6
 502 0123 04       		.uleb128 0x4
 503 0124 17040000 		.4byte	.LASF26
 504 0128 05       		.byte	0x5
 505 0129 41       		.byte	0x41
 506 012a CB000000 		.4byte	0xcb
 507 012e 04       		.uleb128 0x4
 508 012f 71040000 		.4byte	.LASF27
 509 0133 05       		.byte	0x5
 510 0134 43       		.byte	0x43
 511 0135 D6000000 		.4byte	0xd6
 512 0139 04       		.uleb128 0x4
 513 013a A6030000 		.4byte	.LASF28
ARM GAS  /var/folders/m4/4md61f0s1_g0rzfghffqnxvr0000gn/T//cchTdfYZ.s 			page 10


 514 013e 05       		.byte	0x5
 515 013f 45       		.byte	0x45
 516 0140 CB000000 		.4byte	0xcb
 517 0144 04       		.uleb128 0x4
 518 0145 0E070000 		.4byte	.LASF29
 519 0149 06       		.byte	0x6
 520 014a 33       		.byte	0x33
 521 014b D6000000 		.4byte	0xd6
 522 014f 04       		.uleb128 0x4
 523 0150 CC070000 		.4byte	.LASF30
 524 0154 06       		.byte	0x6
 525 0155 3F       		.byte	0x3f
 526 0156 5A010000 		.4byte	0x15a
 527 015a 06       		.uleb128 0x6
 528 015b E7030000 		.4byte	.LASF59
 529 015f 48       		.byte	0x48
 530 0160 07       		.byte	0x7
 531 0161 C2       		.byte	0xc2
 532 0162 BC020000 		.4byte	0x2bc
 533 0166 07       		.uleb128 0x7
 534 0167 04       		.byte	0x4
 535 0168 07       		.byte	0x7
 536 0169 FA       		.byte	0xfa
 537 016a C3010000 		.4byte	0x1c3
 538 016e 08       		.uleb128 0x8
 539 016f BE070000 		.4byte	.LASF31
 540 0173 07       		.byte	0x7
 541 0174 0101     		.2byte	0x101
 542 0176 23010000 		.4byte	0x123
 543 017a 08       		.uleb128 0x8
 544 017b 48030000 		.4byte	.LASF32
 545 017f 07       		.byte	0x7
 546 0180 0801     		.2byte	0x108
 547 0182 23010000 		.4byte	0x123
 548 0186 08       		.uleb128 0x8
 549 0187 CE020000 		.4byte	.LASF33
 550 018b 07       		.byte	0x7
 551 018c 0F01     		.2byte	0x10f
 552 018e A4030000 		.4byte	0x3a4
 553 0192 08       		.uleb128 0x8
 554 0193 08060000 		.4byte	.LASF34
 555 0197 07       		.byte	0x7
 556 0198 1601     		.2byte	0x116
 557 019a 16070000 		.4byte	0x716
 558 019e 08       		.uleb128 0x8
 559 019f C8030000 		.4byte	.LASF35
 560 01a3 07       		.byte	0x7
 561 01a4 1E01     		.2byte	0x11e
 562 01a6 41070000 		.4byte	0x741
 563 01aa 08       		.uleb128 0x8
 564 01ab 37070000 		.4byte	.LASF36
 565 01af 07       		.byte	0x7
 566 01b0 2701     		.2byte	0x127
 567 01b2 78070000 		.4byte	0x778
 568 01b6 08       		.uleb128 0x8
 569 01b7 15060000 		.4byte	.LASF37
 570 01bb 07       		.byte	0x7
ARM GAS  /var/folders/m4/4md61f0s1_g0rzfghffqnxvr0000gn/T//cchTdfYZ.s 			page 11


 571 01bc 2F01     		.2byte	0x12f
 572 01be 2E010000 		.4byte	0x12e
 573 01c2 00       		.byte	0
 574 01c3 09       		.uleb128 0x9
 575 01c4 1C060000 		.4byte	.LASF38
 576 01c8 07       		.byte	0x7
 577 01c9 C3       		.byte	0xc3
 578 01ca C7020000 		.4byte	0x2c7
 579 01ce 00       		.byte	0
 580 01cf 09       		.uleb128 0x9
 581 01d0 77050000 		.4byte	.LASF39
 582 01d4 07       		.byte	0x7
 583 01d5 C5       		.byte	0xc5
 584 01d6 C7020000 		.4byte	0x2c7
 585 01da 04       		.byte	0x4
 586 01db 09       		.uleb128 0x9
 587 01dc 59020000 		.4byte	.LASF40
 588 01e0 07       		.byte	0x7
 589 01e1 C7       		.byte	0xc7
 590 01e2 18010000 		.4byte	0x118
 591 01e6 08       		.byte	0x8
 592 01e7 09       		.uleb128 0x9
 593 01e8 68080000 		.4byte	.LASF41
 594 01ec 07       		.byte	0x7
 595 01ed C8       		.byte	0xc8
 596 01ee 89050000 		.4byte	0x589
 597 01f2 0C       		.byte	0xc
 598 01f3 09       		.uleb128 0x9
 599 01f4 2F030000 		.4byte	.LASF42
 600 01f8 07       		.byte	0x7
 601 01f9 CA       		.byte	0xca
 602 01fa C7020000 		.4byte	0x2c7
 603 01fe 10       		.byte	0x10
 604 01ff 09       		.uleb128 0x9
 605 0200 0A050000 		.4byte	.LASF43
 606 0204 07       		.byte	0x7
 607 0205 CB       		.byte	0xcb
 608 0206 C7020000 		.4byte	0x2c7
 609 020a 14       		.byte	0x14
 610 020b 09       		.uleb128 0x9
 611 020c 1B080000 		.4byte	.LASF44
 612 0210 07       		.byte	0x7
 613 0211 D2       		.byte	0xd2
 614 0212 7E070000 		.4byte	0x77e
 615 0216 18       		.byte	0x18
 616 0217 09       		.uleb128 0x9
 617 0218 EE050000 		.4byte	.LASF45
 618 021c 07       		.byte	0x7
 619 021d DD       		.byte	0xdd
 620 021e F7000000 		.4byte	0xf7
 621 0222 1C       		.byte	0x1c
 622 0223 09       		.uleb128 0x9
 623 0224 2F060000 		.4byte	.LASF46
 624 0228 07       		.byte	0x7
 625 0229 E1       		.byte	0xe1
 626 022a EC000000 		.4byte	0xec
 627 022e 1D       		.byte	0x1d
ARM GAS  /var/folders/m4/4md61f0s1_g0rzfghffqnxvr0000gn/T//cchTdfYZ.s 			page 12


 628 022f 09       		.uleb128 0x9
 629 0230 C5070000 		.4byte	.LASF47
 630 0234 07       		.byte	0x7
 631 0235 E6       		.byte	0xe6
 632 0236 02010000 		.4byte	0x102
 633 023a 1E       		.byte	0x1e
 634 023b 09       		.uleb128 0x9
 635 023c FE050000 		.4byte	.LASF48
 636 0240 07       		.byte	0x7
 637 0241 EC       		.byte	0xec
 638 0242 0D010000 		.4byte	0x10d
 639 0246 1F       		.byte	0x1f
 640 0247 09       		.uleb128 0x9
 641 0248 C1030000 		.4byte	.LASF49
 642 024c 07       		.byte	0x7
 643 024d F3       		.byte	0xf3
 644 024e 90070000 		.4byte	0x790
 645 0252 20       		.byte	0x20
 646 0253 0A       		.uleb128 0xa
 647 0254 705F7500 		.ascii	"p_u\000"
 648 0258 07       		.byte	0x7
 649 0259 3101     		.2byte	0x131
 650 025b 66010000 		.4byte	0x166
 651 025f 24       		.byte	0x24
 652 0260 0B       		.uleb128 0xb
 653 0261 6E080000 		.4byte	.LASF50
 654 0265 07       		.byte	0x7
 655 0266 3601     		.2byte	0x136
 656 0268 CD020000 		.4byte	0x2cd
 657 026c 28       		.byte	0x28
 658 026d 0B       		.uleb128 0xb
 659 026e 84070000 		.4byte	.LASF51
 660 0272 07       		.byte	0x7
 661 0273 3C01     		.2byte	0x13c
 662 0275 F1020000 		.4byte	0x2f1
 663 0279 2C       		.byte	0x2c
 664 027a 0B       		.uleb128 0xb
 665 027b 48080000 		.4byte	.LASF52
 666 027f 07       		.byte	0x7
 667 0280 4001     		.2byte	0x140
 668 0282 23010000 		.4byte	0x123
 669 0286 34       		.byte	0x34
 670 0287 0B       		.uleb128 0xb
 671 0288 62060000 		.4byte	.LASF53
 672 028c 07       		.byte	0x7
 673 028d 4601     		.2byte	0x146
 674 028f 2E010000 		.4byte	0x12e
 675 0293 38       		.byte	0x38
 676 0294 0B       		.uleb128 0xb
 677 0295 DA050000 		.4byte	.LASF54
 678 0299 07       		.byte	0x7
 679 029a 4D01     		.2byte	0x14d
 680 029c 78070000 		.4byte	0x778
 681 02a0 3C       		.byte	0x3c
 682 02a1 0B       		.uleb128 0xb
 683 02a2 18070000 		.4byte	.LASF55
 684 02a6 07       		.byte	0x7
ARM GAS  /var/folders/m4/4md61f0s1_g0rzfghffqnxvr0000gn/T//cchTdfYZ.s 			page 13


 685 02a7 5101     		.2byte	0x151
 686 02a9 18010000 		.4byte	0x118
 687 02ad 40       		.byte	0x40
 688 02ae 0B       		.uleb128 0xb
 689 02af BC020000 		.4byte	.LASF56
 690 02b3 07       		.byte	0x7
 691 02b4 5801     		.2byte	0x158
 692 02b6 A4030000 		.4byte	0x3a4
 693 02ba 44       		.byte	0x44
 694 02bb 00       		.byte	0
 695 02bc 04       		.uleb128 0x4
 696 02bd B0040000 		.4byte	.LASF57
 697 02c1 06       		.byte	0x6
 698 02c2 44       		.byte	0x44
 699 02c3 C7020000 		.4byte	0x2c7
 700 02c7 0C       		.uleb128 0xc
 701 02c8 04       		.byte	0x4
 702 02c9 4F010000 		.4byte	0x14f
 703 02cd 04       		.uleb128 0x4
 704 02ce 33080000 		.4byte	.LASF58
 705 02d2 06       		.byte	0x6
 706 02d3 49       		.byte	0x49
 707 02d4 D8020000 		.4byte	0x2d8
 708 02d8 06       		.uleb128 0x6
 709 02d9 A9060000 		.4byte	.LASF60
 710 02dd 04       		.byte	0x4
 711 02de 07       		.byte	0x7
 712 02df B0       		.byte	0xb0
 713 02e0 F1020000 		.4byte	0x2f1
 714 02e4 09       		.uleb128 0x9
 715 02e5 1C060000 		.4byte	.LASF38
 716 02e9 07       		.byte	0x7
 717 02ea B1       		.byte	0xb1
 718 02eb C7020000 		.4byte	0x2c7
 719 02ef 00       		.byte	0
 720 02f0 00       		.byte	0
 721 02f1 04       		.uleb128 0x4
 722 02f2 AE070000 		.4byte	.LASF61
 723 02f6 06       		.byte	0x6
 724 02f7 50       		.byte	0x50
 725 02f8 FC020000 		.4byte	0x2fc
 726 02fc 06       		.uleb128 0x6
 727 02fd 40020000 		.4byte	.LASF62
 728 0301 08       		.byte	0x8
 729 0302 07       		.byte	0x7
 730 0303 B7       		.byte	0xb7
 731 0304 21030000 		.4byte	0x321
 732 0308 09       		.uleb128 0x9
 733 0309 1C060000 		.4byte	.LASF38
 734 030d 07       		.byte	0x7
 735 030e B8       		.byte	0xb8
 736 030f C7020000 		.4byte	0x2c7
 737 0313 00       		.byte	0
 738 0314 09       		.uleb128 0x9
 739 0315 77050000 		.4byte	.LASF39
 740 0319 07       		.byte	0x7
 741 031a B9       		.byte	0xb9
ARM GAS  /var/folders/m4/4md61f0s1_g0rzfghffqnxvr0000gn/T//cchTdfYZ.s 			page 14


 742 031b C7020000 		.4byte	0x2c7
 743 031f 04       		.byte	0x4
 744 0320 00       		.byte	0
 745 0321 04       		.uleb128 0x4
 746 0322 41000000 		.4byte	.LASF63
 747 0326 06       		.byte	0x6
 748 0327 57       		.byte	0x57
 749 0328 2C030000 		.4byte	0x32c
 750 032c 0D       		.uleb128 0xd
 751 032d 63040000 		.4byte	.LASF64
 752 0331 1C       		.byte	0x1c
 753 0332 07       		.byte	0x7
 754 0333 9001     		.2byte	0x190
 755 0335 88030000 		.4byte	0x388
 756 0339 0B       		.uleb128 0xb
 757 033a F1040000 		.4byte	.LASF65
 758 033e 07       		.byte	0x7
 759 033f 9101     		.2byte	0x191
 760 0341 F1020000 		.4byte	0x2f1
 761 0345 00       		.byte	0
 762 0346 0B       		.uleb128 0xb
 763 0347 0E060000 		.4byte	.LASF66
 764 034b 07       		.byte	0x7
 765 034c 9201     		.2byte	0x192
 766 034e 18010000 		.4byte	0x118
 767 0352 08       		.byte	0x8
 768 0353 0B       		.uleb128 0xb
 769 0354 12050000 		.4byte	.LASF67
 770 0358 07       		.byte	0x7
 771 0359 9401     		.2byte	0x194
 772 035b 89050000 		.4byte	0x589
 773 035f 0C       		.byte	0xc
 774 0360 0B       		.uleb128 0xb
 775 0361 59030000 		.4byte	.LASF68
 776 0365 07       		.byte	0x7
 777 0366 9701     		.2byte	0x197
 778 0368 C7020000 		.4byte	0x2c7
 779 036c 10       		.byte	0x10
 780 036d 0B       		.uleb128 0xb
 781 036e 3A050000 		.4byte	.LASF69
 782 0372 07       		.byte	0x7
 783 0373 9801     		.2byte	0x198
 784 0375 C7020000 		.4byte	0x2c7
 785 0379 14       		.byte	0x14
 786 037a 0B       		.uleb128 0xb
 787 037b 30050000 		.4byte	.LASF70
 788 037f 07       		.byte	0x7
 789 0380 9B01     		.2byte	0x19b
 790 0382 C7020000 		.4byte	0x2c7
 791 0386 18       		.byte	0x18
 792 0387 00       		.byte	0
 793 0388 04       		.uleb128 0x4
 794 0389 23070000 		.4byte	.LASF71
 795 038d 06       		.byte	0x6
 796 038e 5C       		.byte	0x5c
 797 038f 93030000 		.4byte	0x393
 798 0393 0C       		.uleb128 0xc
ARM GAS  /var/folders/m4/4md61f0s1_g0rzfghffqnxvr0000gn/T//cchTdfYZ.s 			page 15


 799 0394 04       		.byte	0x4
 800 0395 99030000 		.4byte	0x399
 801 0399 0E       		.uleb128 0xe
 802 039a A4030000 		.4byte	0x3a4
 803 039e 0F       		.uleb128 0xf
 804 039f A4030000 		.4byte	0x3a4
 805 03a3 00       		.byte	0
 806 03a4 10       		.uleb128 0x10
 807 03a5 04       		.byte	0x4
 808 03a6 04       		.uleb128 0x4
 809 03a7 67050000 		.4byte	.LASF72
 810 03ab 06       		.byte	0x6
 811 03ac 61       		.byte	0x61
 812 03ad B1030000 		.4byte	0x3b1
 813 03b1 0D       		.uleb128 0xd
 814 03b2 3F060000 		.4byte	.LASF73
 815 03b6 14       		.byte	0x14
 816 03b7 07       		.byte	0x7
 817 03b8 6B01     		.2byte	0x16b
 818 03ba 00040000 		.4byte	0x400
 819 03be 0B       		.uleb128 0xb
 820 03bf B9030000 		.4byte	.LASF74
 821 03c3 07       		.byte	0x7
 822 03c4 6C01     		.2byte	0x16c
 823 03c6 95070000 		.4byte	0x795
 824 03ca 00       		.byte	0
 825 03cb 0B       		.uleb128 0xb
 826 03cc 6D030000 		.4byte	.LASF75
 827 03d0 07       		.byte	0x7
 828 03d1 6D01     		.2byte	0x16d
 829 03d3 95070000 		.4byte	0x795
 830 03d7 04       		.byte	0x4
 831 03d8 0B       		.uleb128 0xb
 832 03d9 CF030000 		.4byte	.LASF76
 833 03dd 07       		.byte	0x7
 834 03de 6E01     		.2byte	0x16e
 835 03e0 44010000 		.4byte	0x144
 836 03e4 08       		.byte	0x8
 837 03e5 0B       		.uleb128 0xb
 838 03e6 28050000 		.4byte	.LASF77
 839 03ea 07       		.byte	0x7
 840 03eb 6F01     		.2byte	0x16f
 841 03ed 88030000 		.4byte	0x388
 842 03f1 0C       		.byte	0xc
 843 03f2 0B       		.uleb128 0xb
 844 03f3 96070000 		.4byte	.LASF78
 845 03f7 07       		.byte	0x7
 846 03f8 7101     		.2byte	0x171
 847 03fa A4030000 		.4byte	0x3a4
 848 03fe 10       		.byte	0x10
 849 03ff 00       		.byte	0
 850 0400 04       		.uleb128 0x4
 851 0401 18020000 		.4byte	.LASF79
 852 0405 06       		.byte	0x6
 853 0406 66       		.byte	0x66
 854 0407 0B040000 		.4byte	0x40b
 855 040b 0D       		.uleb128 0xd
ARM GAS  /var/folders/m4/4md61f0s1_g0rzfghffqnxvr0000gn/T//cchTdfYZ.s 			page 16


 856 040c C3040000 		.4byte	.LASF80
 857 0410 10       		.byte	0x10
 858 0411 07       		.byte	0x7
 859 0412 7B01     		.2byte	0x17b
 860 0414 4D040000 		.4byte	0x44d
 861 0418 0B       		.uleb128 0xb
 862 0419 B9030000 		.4byte	.LASF74
 863 041d 07       		.byte	0x7
 864 041e 7C01     		.2byte	0x17c
 865 0420 95070000 		.4byte	0x795
 866 0424 00       		.byte	0
 867 0425 0B       		.uleb128 0xb
 868 0426 6D030000 		.4byte	.LASF75
 869 042a 07       		.byte	0x7
 870 042b 7E01     		.2byte	0x17e
 871 042d 95070000 		.4byte	0x795
 872 0431 04       		.byte	0x4
 873 0432 0B       		.uleb128 0xb
 874 0433 CF030000 		.4byte	.LASF76
 875 0437 07       		.byte	0x7
 876 0438 8001     		.2byte	0x180
 877 043a 44010000 		.4byte	0x144
 878 043e 08       		.byte	0x8
 879 043f 0B       		.uleb128 0xb
 880 0440 94060000 		.4byte	.LASF81
 881 0444 07       		.byte	0x7
 882 0445 8201     		.2byte	0x182
 883 0447 90070000 		.4byte	0x790
 884 044b 0C       		.byte	0xc
 885 044c 00       		.byte	0
 886 044d 04       		.uleb128 0x4
 887 044e D8030000 		.4byte	.LASF82
 888 0452 06       		.byte	0x6
 889 0453 6B       		.byte	0x6b
 890 0454 58040000 		.4byte	0x458
 891 0458 0D       		.uleb128 0xd
 892 0459 A1050000 		.4byte	.LASF83
 893 045d 04       		.byte	0x4
 894 045e 07       		.byte	0x7
 895 045f A201     		.2byte	0x1a2
 896 0461 73040000 		.4byte	0x473
 897 0465 0B       		.uleb128 0xb
 898 0466 3E070000 		.4byte	.LASF84
 899 046a 07       		.byte	0x7
 900 046b AA01     		.2byte	0x1aa
 901 046d 9B070000 		.4byte	0x79b
 902 0471 00       		.byte	0
 903 0472 00       		.byte	0
 904 0473 04       		.uleb128 0x4
 905 0474 41040000 		.4byte	.LASF85
 906 0478 06       		.byte	0x6
 907 0479 70       		.byte	0x70
 908 047a 7E040000 		.4byte	0x47e
 909 047e 11       		.uleb128 0x11
 910 047f F1020000 		.4byte	.LASF86
 911 0483 5802     		.2byte	0x258
 912 0485 07       		.byte	0x7
ARM GAS  /var/folders/m4/4md61f0s1_g0rzfghffqnxvr0000gn/T//cchTdfYZ.s 			page 17


 913 0486 C201     		.2byte	0x1c2
 914 0488 DA040000 		.4byte	0x4da
 915 048c 0B       		.uleb128 0xb
 916 048d D5070000 		.4byte	.LASF87
 917 0491 07       		.byte	0x7
 918 0492 C601     		.2byte	0x1c6
 919 0494 21030000 		.4byte	0x321
 920 0498 00       		.byte	0
 921 0499 0B       		.uleb128 0xb
 922 049a CD010000 		.4byte	.LASF88
 923 049e 07       		.byte	0x7
 924 049f CA01     		.2byte	0x1ca
 925 04a1 00040000 		.4byte	0x400
 926 04a5 1C       		.byte	0x1c
 927 04a6 0A       		.uleb128 0xa
 928 04a7 64626700 		.ascii	"dbg\000"
 929 04ab 07       		.byte	0x7
 930 04ac CE01     		.2byte	0x1ce
 931 04ae 4D040000 		.4byte	0x44d
 932 04b2 2C       		.byte	0x2c
 933 04b3 0B       		.uleb128 0xb
 934 04b4 0D020000 		.4byte	.LASF89
 935 04b8 07       		.byte	0x7
 936 04b9 D201     		.2byte	0x1d2
 937 04bb 4F010000 		.4byte	0x14f
 938 04bf 30       		.byte	0x30
 939 04c0 0A       		.uleb128 0xa
 940 04c1 746D00   		.ascii	"tm\000"
 941 04c4 07       		.byte	0x7
 942 04c5 D701     		.2byte	0x1d7
 943 04c7 0B070000 		.4byte	0x70b
 944 04cb 78       		.byte	0x78
 945 04cc 0B       		.uleb128 0xb
 946 04cd 97030000 		.4byte	.LASF90
 947 04d1 07       		.byte	0x7
 948 04d2 E301     		.2byte	0x1e3
 949 04d4 A0070000 		.4byte	0x7a0
 950 04d8 80       		.byte	0x80
 951 04d9 00       		.byte	0
 952 04da 02       		.uleb128 0x2
 953 04db 04       		.byte	0x4
 954 04dc 07       		.byte	0x7
 955 04dd 00080000 		.4byte	.LASF91
 956 04e1 12       		.uleb128 0x12
 957 04e2 D6000000 		.4byte	0xd6
 958 04e6 13       		.uleb128 0x13
 959 04e7 A7000000 		.4byte	0xa7
 960 04eb F6040000 		.4byte	0x4f6
 961 04ef 14       		.uleb128 0x14
 962 04f0 DA040000 		.4byte	0x4da
 963 04f4 01       		.byte	0x1
 964 04f5 00       		.byte	0
 965 04f6 13       		.uleb128 0x13
 966 04f7 A7000000 		.4byte	0xa7
 967 04fb 06050000 		.4byte	0x506
 968 04ff 14       		.uleb128 0x14
 969 0500 DA040000 		.4byte	0x4da
ARM GAS  /var/folders/m4/4md61f0s1_g0rzfghffqnxvr0000gn/T//cchTdfYZ.s 			page 18


 970 0504 03       		.byte	0x3
 971 0505 00       		.byte	0
 972 0506 15       		.uleb128 0x15
 973 0507 01       		.byte	0x1
 974 0508 6A000000 		.4byte	0x6a
 975 050c 08       		.byte	0x8
 976 050d B8       		.byte	0xb8
 977 050e 34040000 		.4byte	.LASF94
 978 0512 23050000 		.4byte	0x523
 979 0516 16       		.uleb128 0x16
 980 0517 8A050000 		.4byte	.LASF92
 981 051b 00       		.byte	0
 982 051c 17       		.uleb128 0x17
 983 051d 53455400 		.ascii	"SET\000"
 984 0521 01       		.byte	0x1
 985 0522 00       		.byte	0
 986 0523 04       		.uleb128 0x4
 987 0524 73000000 		.4byte	.LASF93
 988 0528 08       		.byte	0x8
 989 0529 BB       		.byte	0xbb
 990 052a 06050000 		.4byte	0x506
 991 052e 15       		.uleb128 0x15
 992 052f 01       		.byte	0x1
 993 0530 6A000000 		.4byte	0x6a
 994 0534 08       		.byte	0x8
 995 0535 BE       		.byte	0xbe
 996 0536 1D030000 		.4byte	.LASF95
 997 053a 4B050000 		.4byte	0x54b
 998 053e 16       		.uleb128 0x16
 999 053f EE010000 		.4byte	.LASF96
 1000 0543 00       		.byte	0
 1001 0544 16       		.uleb128 0x16
 1002 0545 04030000 		.4byte	.LASF97
 1003 0549 01       		.byte	0x1
 1004 054a 00       		.byte	0
 1005 054b 04       		.uleb128 0x4
 1006 054c 18050000 		.4byte	.LASF98
 1007 0550 08       		.byte	0x8
 1008 0551 C1       		.byte	0xc1
 1009 0552 2E050000 		.4byte	0x52e
 1010 0556 15       		.uleb128 0x15
 1011 0557 01       		.byte	0x1
 1012 0558 6A000000 		.4byte	0x6a
 1013 055c 08       		.byte	0x8
 1014 055d C5       		.byte	0xc5
 1015 055e 53000000 		.4byte	.LASF99
 1016 0562 73050000 		.4byte	0x573
 1017 0566 16       		.uleb128 0x16
 1018 0567 E0040000 		.4byte	.LASF100
 1019 056b 00       		.byte	0
 1020 056c 16       		.uleb128 0x16
 1021 056d ED070000 		.4byte	.LASF101
 1022 0571 01       		.byte	0x1
 1023 0572 00       		.byte	0
 1024 0573 04       		.uleb128 0x4
 1025 0574 61030000 		.4byte	.LASF102
 1026 0578 08       		.byte	0x8
ARM GAS  /var/folders/m4/4md61f0s1_g0rzfghffqnxvr0000gn/T//cchTdfYZ.s 			page 19


 1027 0579 C8       		.byte	0xc8
 1028 057a 56050000 		.4byte	0x556
 1029 057e 04       		.uleb128 0x4
 1030 057f 7E060000 		.4byte	.LASF103
 1031 0583 09       		.byte	0x9
 1032 0584 65       		.byte	0x65
 1033 0585 A4030000 		.4byte	0x3a4
 1034 0589 06       		.uleb128 0x6
 1035 058a FC030000 		.4byte	.LASF104
 1036 058e 04       		.byte	0x4
 1037 058f 09       		.byte	0x9
 1038 0590 89       		.byte	0x89
 1039 0591 A2050000 		.4byte	0x5a2
 1040 0595 18       		.uleb128 0x18
 1041 0596 72313300 		.ascii	"r13\000"
 1042 059a 09       		.byte	0x9
 1043 059b 8A       		.byte	0x8a
 1044 059c EC060000 		.4byte	0x6ec
 1045 05a0 00       		.byte	0
 1046 05a1 00       		.byte	0
 1047 05a2 06       		.uleb128 0x6
 1048 05a3 C1010000 		.4byte	.LASF105
 1049 05a7 64       		.byte	0x64
 1050 05a8 0A       		.byte	0xa
 1051 05a9 FD       		.byte	0xfd
 1052 05aa EC060000 		.4byte	0x6ec
 1053 05ae 18       		.uleb128 0x18
 1054 05af 73313600 		.ascii	"s16\000"
 1055 05b3 0A       		.byte	0xa
 1056 05b4 FF       		.byte	0xff
 1057 05b5 7E050000 		.4byte	0x57e
 1058 05b9 00       		.byte	0
 1059 05ba 0A       		.uleb128 0xa
 1060 05bb 73313700 		.ascii	"s17\000"
 1061 05bf 0A       		.byte	0xa
 1062 05c0 0001     		.2byte	0x100
 1063 05c2 7E050000 		.4byte	0x57e
 1064 05c6 04       		.byte	0x4
 1065 05c7 0A       		.uleb128 0xa
 1066 05c8 73313800 		.ascii	"s18\000"
 1067 05cc 0A       		.byte	0xa
 1068 05cd 0101     		.2byte	0x101
 1069 05cf 7E050000 		.4byte	0x57e
 1070 05d3 08       		.byte	0x8
 1071 05d4 0A       		.uleb128 0xa
 1072 05d5 73313900 		.ascii	"s19\000"
 1073 05d9 0A       		.byte	0xa
 1074 05da 0201     		.2byte	0x102
 1075 05dc 7E050000 		.4byte	0x57e
 1076 05e0 0C       		.byte	0xc
 1077 05e1 0A       		.uleb128 0xa
 1078 05e2 73323000 		.ascii	"s20\000"
 1079 05e6 0A       		.byte	0xa
 1080 05e7 0301     		.2byte	0x103
 1081 05e9 7E050000 		.4byte	0x57e
 1082 05ed 10       		.byte	0x10
 1083 05ee 0A       		.uleb128 0xa
ARM GAS  /var/folders/m4/4md61f0s1_g0rzfghffqnxvr0000gn/T//cchTdfYZ.s 			page 20


 1084 05ef 73323100 		.ascii	"s21\000"
 1085 05f3 0A       		.byte	0xa
 1086 05f4 0401     		.2byte	0x104
 1087 05f6 7E050000 		.4byte	0x57e
 1088 05fa 14       		.byte	0x14
 1089 05fb 0A       		.uleb128 0xa
 1090 05fc 73323200 		.ascii	"s22\000"
 1091 0600 0A       		.byte	0xa
 1092 0601 0501     		.2byte	0x105
 1093 0603 7E050000 		.4byte	0x57e
 1094 0607 18       		.byte	0x18
 1095 0608 0A       		.uleb128 0xa
 1096 0609 73323300 		.ascii	"s23\000"
 1097 060d 0A       		.byte	0xa
 1098 060e 0601     		.2byte	0x106
 1099 0610 7E050000 		.4byte	0x57e
 1100 0614 1C       		.byte	0x1c
 1101 0615 0A       		.uleb128 0xa
 1102 0616 73323400 		.ascii	"s24\000"
 1103 061a 0A       		.byte	0xa
 1104 061b 0701     		.2byte	0x107
 1105 061d 7E050000 		.4byte	0x57e
 1106 0621 20       		.byte	0x20
 1107 0622 0A       		.uleb128 0xa
 1108 0623 73323500 		.ascii	"s25\000"
 1109 0627 0A       		.byte	0xa
 1110 0628 0801     		.2byte	0x108
 1111 062a 7E050000 		.4byte	0x57e
 1112 062e 24       		.byte	0x24
 1113 062f 0A       		.uleb128 0xa
 1114 0630 73323600 		.ascii	"s26\000"
 1115 0634 0A       		.byte	0xa
 1116 0635 0901     		.2byte	0x109
 1117 0637 7E050000 		.4byte	0x57e
 1118 063b 28       		.byte	0x28
 1119 063c 0A       		.uleb128 0xa
 1120 063d 73323700 		.ascii	"s27\000"
 1121 0641 0A       		.byte	0xa
 1122 0642 0A01     		.2byte	0x10a
 1123 0644 7E050000 		.4byte	0x57e
 1124 0648 2C       		.byte	0x2c
 1125 0649 0A       		.uleb128 0xa
 1126 064a 73323800 		.ascii	"s28\000"
 1127 064e 0A       		.byte	0xa
 1128 064f 0B01     		.2byte	0x10b
 1129 0651 7E050000 		.4byte	0x57e
 1130 0655 30       		.byte	0x30
 1131 0656 0A       		.uleb128 0xa
 1132 0657 73323900 		.ascii	"s29\000"
 1133 065b 0A       		.byte	0xa
 1134 065c 0C01     		.2byte	0x10c
 1135 065e 7E050000 		.4byte	0x57e
 1136 0662 34       		.byte	0x34
 1137 0663 0A       		.uleb128 0xa
 1138 0664 73333000 		.ascii	"s30\000"
 1139 0668 0A       		.byte	0xa
 1140 0669 0D01     		.2byte	0x10d
ARM GAS  /var/folders/m4/4md61f0s1_g0rzfghffqnxvr0000gn/T//cchTdfYZ.s 			page 21


 1141 066b 7E050000 		.4byte	0x57e
 1142 066f 38       		.byte	0x38
 1143 0670 0A       		.uleb128 0xa
 1144 0671 73333100 		.ascii	"s31\000"
 1145 0675 0A       		.byte	0xa
 1146 0676 0E01     		.2byte	0x10e
 1147 0678 7E050000 		.4byte	0x57e
 1148 067c 3C       		.byte	0x3c
 1149 067d 0A       		.uleb128 0xa
 1150 067e 723400   		.ascii	"r4\000"
 1151 0681 0A       		.byte	0xa
 1152 0682 1001     		.2byte	0x110
 1153 0684 7E050000 		.4byte	0x57e
 1154 0688 40       		.byte	0x40
 1155 0689 0A       		.uleb128 0xa
 1156 068a 723500   		.ascii	"r5\000"
 1157 068d 0A       		.byte	0xa
 1158 068e 1101     		.2byte	0x111
 1159 0690 7E050000 		.4byte	0x57e
 1160 0694 44       		.byte	0x44
 1161 0695 0A       		.uleb128 0xa
 1162 0696 723600   		.ascii	"r6\000"
 1163 0699 0A       		.byte	0xa
 1164 069a 1201     		.2byte	0x112
 1165 069c 7E050000 		.4byte	0x57e
 1166 06a0 48       		.byte	0x48
 1167 06a1 0A       		.uleb128 0xa
 1168 06a2 723700   		.ascii	"r7\000"
 1169 06a5 0A       		.byte	0xa
 1170 06a6 1301     		.2byte	0x113
 1171 06a8 7E050000 		.4byte	0x57e
 1172 06ac 4C       		.byte	0x4c
 1173 06ad 0A       		.uleb128 0xa
 1174 06ae 723800   		.ascii	"r8\000"
 1175 06b1 0A       		.byte	0xa
 1176 06b2 1401     		.2byte	0x114
 1177 06b4 7E050000 		.4byte	0x57e
 1178 06b8 50       		.byte	0x50
 1179 06b9 0A       		.uleb128 0xa
 1180 06ba 723900   		.ascii	"r9\000"
 1181 06bd 0A       		.byte	0xa
 1182 06be 1501     		.2byte	0x115
 1183 06c0 7E050000 		.4byte	0x57e
 1184 06c4 54       		.byte	0x54
 1185 06c5 0A       		.uleb128 0xa
 1186 06c6 72313000 		.ascii	"r10\000"
 1187 06ca 0A       		.byte	0xa
 1188 06cb 1601     		.2byte	0x116
 1189 06cd 7E050000 		.4byte	0x57e
 1190 06d1 58       		.byte	0x58
 1191 06d2 0A       		.uleb128 0xa
 1192 06d3 72313100 		.ascii	"r11\000"
 1193 06d7 0A       		.byte	0xa
 1194 06d8 1701     		.2byte	0x117
 1195 06da 7E050000 		.4byte	0x57e
 1196 06de 5C       		.byte	0x5c
 1197 06df 0A       		.uleb128 0xa
ARM GAS  /var/folders/m4/4md61f0s1_g0rzfghffqnxvr0000gn/T//cchTdfYZ.s 			page 22


 1198 06e0 6C7200   		.ascii	"lr\000"
 1199 06e3 0A       		.byte	0xa
 1200 06e4 1801     		.2byte	0x118
 1201 06e6 7E050000 		.4byte	0x57e
 1202 06ea 60       		.byte	0x60
 1203 06eb 00       		.byte	0
 1204 06ec 0C       		.uleb128 0xc
 1205 06ed 04       		.byte	0x4
 1206 06ee A2050000 		.4byte	0x5a2
 1207 06f2 19       		.uleb128 0x19
 1208 06f3 04       		.byte	0x4
 1209 06f4 0B       		.byte	0xb
 1210 06f5 38       		.byte	0x38
 1211 06f6 EF060000 		.4byte	.LASF118
 1212 06fa 0B070000 		.4byte	0x70b
 1213 06fe 09       		.uleb128 0x9
 1214 06ff 48070000 		.4byte	.LASF106
 1215 0703 0B       		.byte	0xb
 1216 0704 3C       		.byte	0x3c
 1217 0705 E1000000 		.4byte	0xe1
 1218 0709 00       		.byte	0
 1219 070a 00       		.byte	0
 1220 070b 04       		.uleb128 0x4
 1221 070c F9040000 		.4byte	.LASF107
 1222 0710 0B       		.byte	0xb
 1223 0711 3D       		.byte	0x3d
 1224 0712 F2060000 		.4byte	0x6f2
 1225 0716 0C       		.uleb128 0xc
 1226 0717 04       		.byte	0x4
 1227 0718 BC020000 		.4byte	0x2bc
 1228 071c 06       		.uleb128 0x6
 1229 071d 50060000 		.4byte	.LASF108
 1230 0721 0C       		.byte	0xc
 1231 0722 0C       		.byte	0xc
 1232 0723 34       		.byte	0x34
 1233 0724 41070000 		.4byte	0x741
 1234 0728 09       		.uleb128 0x9
 1235 0729 37030000 		.4byte	.LASF109
 1236 072d 0C       		.byte	0xc
 1237 072e 35       		.byte	0x35
 1238 072f F1020000 		.4byte	0x2f1
 1239 0733 00       		.byte	0
 1240 0734 09       		.uleb128 0x9
 1241 0735 F6030000 		.4byte	.LASF110
 1242 0739 0C       		.byte	0xc
 1243 073a 37       		.byte	0x37
 1244 073b 39010000 		.4byte	0x139
 1245 073f 08       		.byte	0x8
 1246 0740 00       		.byte	0
 1247 0741 0C       		.uleb128 0xc
 1248 0742 04       		.byte	0x4
 1249 0743 1C070000 		.4byte	0x71c
 1250 0747 06       		.uleb128 0x6
 1251 0748 12080000 		.4byte	.LASF111
 1252 074c 10       		.byte	0x10
 1253 074d 0D       		.byte	0xd
 1254 074e 39       		.byte	0x39
ARM GAS  /var/folders/m4/4md61f0s1_g0rzfghffqnxvr0000gn/T//cchTdfYZ.s 			page 23


 1255 074f 78070000 		.4byte	0x778
 1256 0753 09       		.uleb128 0x9
 1257 0754 51020000 		.4byte	.LASF112
 1258 0758 0D       		.byte	0xd
 1259 0759 3A       		.byte	0x3a
 1260 075a F1020000 		.4byte	0x2f1
 1261 075e 00       		.byte	0
 1262 075f 09       		.uleb128 0x9
 1263 0760 59080000 		.4byte	.LASF113
 1264 0764 0D       		.byte	0xd
 1265 0765 3C       		.byte	0x3c
 1266 0766 C7020000 		.4byte	0x2c7
 1267 076a 08       		.byte	0x8
 1268 076b 09       		.uleb128 0x9
 1269 076c 07070000 		.4byte	.LASF114
 1270 0770 0D       		.byte	0xd
 1271 0771 3E       		.byte	0x3e
 1272 0772 BB070000 		.4byte	0x7bb
 1273 0776 0C       		.byte	0xc
 1274 0777 00       		.byte	0
 1275 0778 0C       		.uleb128 0xc
 1276 0779 04       		.byte	0x4
 1277 077a 47070000 		.4byte	0x747
 1278 077e 0C       		.uleb128 0xc
 1279 077f 04       		.byte	0x4
 1280 0780 8B070000 		.4byte	0x78b
 1281 0784 02       		.uleb128 0x2
 1282 0785 01       		.byte	0x1
 1283 0786 08       		.byte	0x8
 1284 0787 CE060000 		.4byte	.LASF115
 1285 078b 1A       		.uleb128 0x1a
 1286 078c 84070000 		.4byte	0x784
 1287 0790 12       		.uleb128 0x12
 1288 0791 44010000 		.4byte	0x144
 1289 0795 0C       		.uleb128 0xc
 1290 0796 04       		.byte	0x4
 1291 0797 A6030000 		.4byte	0x3a6
 1292 079b 12       		.uleb128 0x12
 1293 079c 7E070000 		.4byte	0x77e
 1294 07a0 13       		.uleb128 0x13
 1295 07a1 AE000000 		.4byte	0xae
 1296 07a5 B0070000 		.4byte	0x7b0
 1297 07a9 14       		.uleb128 0x14
 1298 07aa DA040000 		.4byte	0x4da
 1299 07ae 3A       		.byte	0x3a
 1300 07af 00       		.byte	0
 1301 07b0 04       		.uleb128 0x4
 1302 07b1 8F030000 		.4byte	.LASF116
 1303 07b5 0D       		.byte	0xd
 1304 07b6 34       		.byte	0x34
 1305 07b7 47070000 		.4byte	0x747
 1306 07bb 0C       		.uleb128 0xc
 1307 07bc 04       		.byte	0x4
 1308 07bd B0070000 		.4byte	0x7b0
 1309 07c1 02       		.uleb128 0x2
 1310 07c2 01       		.byte	0x1
 1311 07c3 02       		.byte	0x2
ARM GAS  /var/folders/m4/4md61f0s1_g0rzfghffqnxvr0000gn/T//cchTdfYZ.s 			page 24


 1312 07c4 5E040000 		.4byte	.LASF117
 1313 07c8 19       		.uleb128 0x19
 1314 07c9 2C       		.byte	0x2c
 1315 07ca 0E       		.byte	0xe
 1316 07cb DD       		.byte	0xdd
 1317 07cc 99040000 		.4byte	.LASF119
 1318 07d0 9A080000 		.4byte	0x89a
 1319 07d4 07       		.uleb128 0x7
 1320 07d5 04       		.byte	0x4
 1321 07d6 0E       		.byte	0xe
 1322 07d7 E5       		.byte	0xe5
 1323 07d8 10080000 		.4byte	0x810
 1324 07dc 1B       		.uleb128 0x1b
 1325 07dd 04       		.byte	0x4
 1326 07de 0E       		.byte	0xe
 1327 07df E7       		.byte	0xe7
 1328 07e0 FD070000 		.4byte	0x7fd
 1329 07e4 18       		.uleb128 0x18
 1330 07e5 73657400 		.ascii	"set\000"
 1331 07e9 0E       		.byte	0xe
 1332 07ea E8       		.byte	0xe8
 1333 07eb C0000000 		.4byte	0xc0
 1334 07ef 00       		.byte	0
 1335 07f0 09       		.uleb128 0x9
 1336 07f1 DA040000 		.4byte	.LASF120
 1337 07f5 0E       		.byte	0xe
 1338 07f6 E9       		.byte	0xe9
 1339 07f7 C0000000 		.4byte	0xc0
 1340 07fb 02       		.byte	0x2
 1341 07fc 00       		.byte	0
 1342 07fd 1C       		.uleb128 0x1c
 1343 07fe 5700     		.ascii	"W\000"
 1344 0800 0E       		.byte	0xe
 1345 0801 E6       		.byte	0xe6
 1346 0802 D6000000 		.4byte	0xd6
 1347 0806 1C       		.uleb128 0x1c
 1348 0807 4800     		.ascii	"H\000"
 1349 0809 0E       		.byte	0xe
 1350 080a EA       		.byte	0xea
 1351 080b DC070000 		.4byte	0x7dc
 1352 080f 00       		.byte	0
 1353 0810 09       		.uleb128 0x9
 1354 0811 4F070000 		.4byte	.LASF121
 1355 0815 0E       		.byte	0xe
 1356 0816 DF       		.byte	0xdf
 1357 0817 E1040000 		.4byte	0x4e1
 1358 081b 00       		.byte	0
 1359 081c 09       		.uleb128 0x9
 1360 081d B0010000 		.4byte	.LASF122
 1361 0821 0E       		.byte	0xe
 1362 0822 E0       		.byte	0xe0
 1363 0823 E1040000 		.4byte	0x4e1
 1364 0827 04       		.byte	0x4
 1365 0828 09       		.uleb128 0x9
 1366 0829 51030000 		.4byte	.LASF123
 1367 082d 0E       		.byte	0xe
 1368 082e E1       		.byte	0xe1
ARM GAS  /var/folders/m4/4md61f0s1_g0rzfghffqnxvr0000gn/T//cchTdfYZ.s 			page 25


 1369 082f E1040000 		.4byte	0x4e1
 1370 0833 08       		.byte	0x8
 1371 0834 09       		.uleb128 0x9
 1372 0835 E5020000 		.4byte	.LASF124
 1373 0839 0E       		.byte	0xe
 1374 083a E2       		.byte	0xe2
 1375 083b E1040000 		.4byte	0x4e1
 1376 083f 0C       		.byte	0xc
 1377 0840 18       		.uleb128 0x18
 1378 0841 49445200 		.ascii	"IDR\000"
 1379 0845 0E       		.byte	0xe
 1380 0846 E3       		.byte	0xe3
 1381 0847 E1040000 		.4byte	0x4e1
 1382 084b 10       		.byte	0x10
 1383 084c 18       		.uleb128 0x18
 1384 084d 4F445200 		.ascii	"ODR\000"
 1385 0851 0E       		.byte	0xe
 1386 0852 E4       		.byte	0xe4
 1387 0853 E1040000 		.4byte	0x4e1
 1388 0857 14       		.byte	0x14
 1389 0858 09       		.uleb128 0x9
 1390 0859 99020000 		.4byte	.LASF125
 1391 085d 0E       		.byte	0xe
 1392 085e EB       		.byte	0xeb
 1393 085f 64080000 		.4byte	0x864
 1394 0863 18       		.byte	0x18
 1395 0864 12       		.uleb128 0x12
 1396 0865 D4070000 		.4byte	0x7d4
 1397 0869 09       		.uleb128 0x9
 1398 086a F1030000 		.4byte	.LASF126
 1399 086e 0E       		.byte	0xe
 1400 086f EC       		.byte	0xec
 1401 0870 E1040000 		.4byte	0x4e1
 1402 0874 1C       		.byte	0x1c
 1403 0875 09       		.uleb128 0x9
 1404 0876 4C050000 		.4byte	.LASF127
 1405 087a 0E       		.byte	0xe
 1406 087b ED       		.byte	0xed
 1407 087c E1040000 		.4byte	0x4e1
 1408 0880 20       		.byte	0x20
 1409 0881 09       		.uleb128 0x9
 1410 0882 47050000 		.4byte	.LASF128
 1411 0886 0E       		.byte	0xe
 1412 0887 EE       		.byte	0xee
 1413 0888 E1040000 		.4byte	0x4e1
 1414 088c 24       		.byte	0x24
 1415 088d 18       		.uleb128 0x18
 1416 088e 42525200 		.ascii	"BRR\000"
 1417 0892 0E       		.byte	0xe
 1418 0893 EF       		.byte	0xef
 1419 0894 E1040000 		.4byte	0x4e1
 1420 0898 28       		.byte	0x28
 1421 0899 00       		.byte	0
 1422 089a 04       		.uleb128 0x4
 1423 089b 82030000 		.4byte	.LASF129
 1424 089f 0E       		.byte	0xe
 1425 08a0 F0       		.byte	0xf0
ARM GAS  /var/folders/m4/4md61f0s1_g0rzfghffqnxvr0000gn/T//cchTdfYZ.s 			page 26


 1426 08a1 C8070000 		.4byte	0x7c8
 1427 08a5 1D       		.uleb128 0x1d
 1428 08a6 DA010000 		.4byte	.LASF130
 1429 08aa 0E       		.byte	0xe
 1430 08ab 3F01     		.2byte	0x13f
 1431 08ad D6000000 		.4byte	0xd6
 1432 08b1 15       		.uleb128 0x15
 1433 08b2 01       		.byte	0x1
 1434 08b3 6A000000 		.4byte	0x6a
 1435 08b7 0F       		.byte	0xf
 1436 08b8 4A       		.byte	0x4a
 1437 08b9 75030000 		.4byte	.LASF131
 1438 08bd D4080000 		.4byte	0x8d4
 1439 08c1 16       		.uleb128 0x16
 1440 08c2 4E080000 		.4byte	.LASF132
 1441 08c6 00       		.byte	0
 1442 08c7 16       		.uleb128 0x16
 1443 08c8 C5060000 		.4byte	.LASF133
 1444 08cc 01       		.byte	0x1
 1445 08cd 16       		.uleb128 0x16
 1446 08ce 60020000 		.4byte	.LASF134
 1447 08d2 02       		.byte	0x2
 1448 08d3 00       		.byte	0
 1449 08d4 04       		.uleb128 0x4
 1450 08d5 F5070000 		.4byte	.LASF135
 1451 08d9 0F       		.byte	0xf
 1452 08da 4E       		.byte	0x4e
 1453 08db B1080000 		.4byte	0x8b1
 1454 08df 04       		.uleb128 0x4
 1455 08e0 E3070000 		.4byte	.LASF136
 1456 08e4 0F       		.byte	0xf
 1457 08e5 53       		.byte	0x53
 1458 08e6 EA080000 		.4byte	0x8ea
 1459 08ea 0D       		.uleb128 0xd
 1460 08eb E3070000 		.4byte	.LASF136
 1461 08ef 1C       		.byte	0x1c
 1462 08f0 10       		.byte	0x10
 1463 08f1 B301     		.2byte	0x1b3
 1464 08f3 53090000 		.4byte	0x953
 1465 08f7 0B       		.uleb128 0xb
 1466 08f8 EB020000 		.4byte	.LASF137
 1467 08fc 10       		.byte	0x10
 1468 08fd B701     		.2byte	0x1b7
 1469 08ff D4080000 		.4byte	0x8d4
 1470 0903 00       		.byte	0
 1471 0904 0B       		.uleb128 0xb
 1472 0905 DD060000 		.4byte	.LASF138
 1473 0909 10       		.byte	0x10
 1474 090a BB01     		.2byte	0x1bb
 1475 090c 770B0000 		.4byte	0xb77
 1476 0910 04       		.byte	0x4
 1477 0911 0B       		.uleb128 0xb
 1478 0912 E7010000 		.4byte	.LASF139
 1479 0916 10       		.byte	0x10
 1480 0917 BF01     		.2byte	0x1bf
 1481 0919 BF0A0000 		.4byte	0xabf
 1482 091d 08       		.byte	0x8
ARM GAS  /var/folders/m4/4md61f0s1_g0rzfghffqnxvr0000gn/T//cchTdfYZ.s 			page 27


 1483 091e 0B       		.uleb128 0xb
 1484 091f 55070000 		.4byte	.LASF140
 1485 0923 10       		.byte	0x10
 1486 0924 C301     		.2byte	0x1c3
 1487 0926 B30A0000 		.4byte	0xab3
 1488 092a 0C       		.byte	0xc
 1489 092b 0B       		.uleb128 0xb
 1490 092c 98050000 		.4byte	.LASF141
 1491 0930 10       		.byte	0x10
 1492 0931 C701     		.2byte	0x1c7
 1493 0933 A70A0000 		.4byte	0xaa7
 1494 0937 10       		.byte	0x10
 1495 0938 0B       		.uleb128 0xb
 1496 0939 42080000 		.4byte	.LASF142
 1497 093d 10       		.byte	0x10
 1498 093e CF01     		.2byte	0x1cf
 1499 0940 D6000000 		.4byte	0xd6
 1500 0944 14       		.byte	0x14
 1501 0945 0A       		.uleb128 0xa
 1502 0946 74696D00 		.ascii	"tim\000"
 1503 094a 10       		.byte	0x10
 1504 094b D301     		.2byte	0x1d3
 1505 094d 820B0000 		.4byte	0xb82
 1506 0951 18       		.byte	0x18
 1507 0952 00       		.byte	0
 1508 0953 04       		.uleb128 0x4
 1509 0954 51050000 		.4byte	.LASF143
 1510 0958 0F       		.byte	0xf
 1511 0959 5A       		.byte	0x5a
 1512 095a 5E090000 		.4byte	0x95e
 1513 095e 0C       		.uleb128 0xc
 1514 095f 04       		.byte	0x4
 1515 0960 64090000 		.4byte	0x964
 1516 0964 0E       		.uleb128 0xe
 1517 0965 6F090000 		.4byte	0x96f
 1518 0969 0F       		.uleb128 0xf
 1519 096a 6F090000 		.4byte	0x96f
 1520 096e 00       		.byte	0
 1521 096f 0C       		.uleb128 0xc
 1522 0970 04       		.byte	0x4
 1523 0971 DF080000 		.4byte	0x8df
 1524 0975 1E       		.uleb128 0x1e
 1525 0976 60       		.byte	0x60
 1526 0977 11       		.byte	0x11
 1527 0978 A101     		.2byte	0x1a1
 1528 097a A2010000 		.4byte	.LASF158
 1529 097e 850A0000 		.4byte	0xa85
 1530 0982 0A       		.uleb128 0xa
 1531 0983 43523100 		.ascii	"CR1\000"
 1532 0987 11       		.byte	0x11
 1533 0988 A201     		.2byte	0x1a2
 1534 098a E1040000 		.4byte	0x4e1
 1535 098e 00       		.byte	0
 1536 098f 0A       		.uleb128 0xa
 1537 0990 43523200 		.ascii	"CR2\000"
 1538 0994 11       		.byte	0x11
 1539 0995 A301     		.2byte	0x1a3
ARM GAS  /var/folders/m4/4md61f0s1_g0rzfghffqnxvr0000gn/T//cchTdfYZ.s 			page 28


 1540 0997 E1040000 		.4byte	0x4e1
 1541 099b 04       		.byte	0x4
 1542 099c 0B       		.uleb128 0xb
 1543 099d D8060000 		.4byte	.LASF144
 1544 09a1 11       		.byte	0x11
 1545 09a2 A401     		.2byte	0x1a4
 1546 09a4 E1040000 		.4byte	0x4e1
 1547 09a8 08       		.byte	0x8
 1548 09a9 0B       		.uleb128 0xb
 1549 09aa 4E000000 		.4byte	.LASF145
 1550 09ae 11       		.byte	0x11
 1551 09af A501     		.2byte	0x1a5
 1552 09b1 E1040000 		.4byte	0x4e1
 1553 09b5 0C       		.byte	0xc
 1554 09b6 0A       		.uleb128 0xa
 1555 09b7 535200   		.ascii	"SR\000"
 1556 09ba 11       		.byte	0x11
 1557 09bb A601     		.2byte	0x1a6
 1558 09bd E1040000 		.4byte	0x4e1
 1559 09c1 10       		.byte	0x10
 1560 09c2 0A       		.uleb128 0xa
 1561 09c3 45475200 		.ascii	"EGR\000"
 1562 09c7 11       		.byte	0x11
 1563 09c8 A701     		.2byte	0x1a7
 1564 09ca E1040000 		.4byte	0x4e1
 1565 09ce 14       		.byte	0x14
 1566 09cf 0B       		.uleb128 0xb
 1567 09d0 73020000 		.4byte	.LASF146
 1568 09d4 11       		.byte	0x11
 1569 09d5 A801     		.2byte	0x1a8
 1570 09d7 E1040000 		.4byte	0x4e1
 1571 09db 18       		.byte	0x18
 1572 09dc 0B       		.uleb128 0xb
 1573 09dd 79020000 		.4byte	.LASF147
 1574 09e1 11       		.byte	0x11
 1575 09e2 A901     		.2byte	0x1a9
 1576 09e4 E1040000 		.4byte	0x4e1
 1577 09e8 1C       		.byte	0x1c
 1578 09e9 0B       		.uleb128 0xb
 1579 09ea 02070000 		.4byte	.LASF148
 1580 09ee 11       		.byte	0x11
 1581 09ef AA01     		.2byte	0x1aa
 1582 09f1 E1040000 		.4byte	0x4e1
 1583 09f5 20       		.byte	0x20
 1584 09f6 0A       		.uleb128 0xa
 1585 09f7 434E5400 		.ascii	"CNT\000"
 1586 09fb 11       		.byte	0x11
 1587 09fc AB01     		.2byte	0x1ab
 1588 09fe E1040000 		.4byte	0x4e1
 1589 0a02 24       		.byte	0x24
 1590 0a03 0A       		.uleb128 0xa
 1591 0a04 50534300 		.ascii	"PSC\000"
 1592 0a08 11       		.byte	0x11
 1593 0a09 AC01     		.2byte	0x1ac
 1594 0a0b E1040000 		.4byte	0x4e1
 1595 0a0f 28       		.byte	0x28
 1596 0a10 0A       		.uleb128 0xa
ARM GAS  /var/folders/m4/4md61f0s1_g0rzfghffqnxvr0000gn/T//cchTdfYZ.s 			page 29


 1597 0a11 41525200 		.ascii	"ARR\000"
 1598 0a15 11       		.byte	0x11
 1599 0a16 AD01     		.2byte	0x1ad
 1600 0a18 E1040000 		.4byte	0x4e1
 1601 0a1c 2C       		.byte	0x2c
 1602 0a1d 0A       		.uleb128 0xa
 1603 0a1e 52435200 		.ascii	"RCR\000"
 1604 0a22 11       		.byte	0x11
 1605 0a23 AE01     		.2byte	0x1ae
 1606 0a25 E1040000 		.4byte	0x4e1
 1607 0a29 30       		.byte	0x30
 1608 0a2a 0A       		.uleb128 0xa
 1609 0a2b 43435200 		.ascii	"CCR\000"
 1610 0a2f 11       		.byte	0x11
 1611 0a30 AF01     		.2byte	0x1af
 1612 0a32 850A0000 		.4byte	0xa85
 1613 0a36 34       		.byte	0x34
 1614 0a37 0B       		.uleb128 0xb
 1615 0a38 3B020000 		.4byte	.LASF149
 1616 0a3c 11       		.byte	0x11
 1617 0a3d B001     		.2byte	0x1b0
 1618 0a3f E1040000 		.4byte	0x4e1
 1619 0a43 44       		.byte	0x44
 1620 0a44 0A       		.uleb128 0xa
 1621 0a45 44435200 		.ascii	"DCR\000"
 1622 0a49 11       		.byte	0x11
 1623 0a4a B101     		.2byte	0x1b1
 1624 0a4c E1040000 		.4byte	0x4e1
 1625 0a50 48       		.byte	0x48
 1626 0a51 0B       		.uleb128 0xb
 1627 0a52 42050000 		.4byte	.LASF150
 1628 0a56 11       		.byte	0x11
 1629 0a57 B201     		.2byte	0x1b2
 1630 0a59 E1040000 		.4byte	0x4e1
 1631 0a5d 4C       		.byte	0x4c
 1632 0a5e 0A       		.uleb128 0xa
 1633 0a5f 4F5200   		.ascii	"OR\000"
 1634 0a62 11       		.byte	0x11
 1635 0a63 B301     		.2byte	0x1b3
 1636 0a65 E1040000 		.4byte	0x4e1
 1637 0a69 50       		.byte	0x50
 1638 0a6a 0B       		.uleb128 0xb
 1639 0a6b D4010000 		.4byte	.LASF151
 1640 0a6f 11       		.byte	0x11
 1641 0a70 B401     		.2byte	0x1b4
 1642 0a72 E1040000 		.4byte	0x4e1
 1643 0a76 54       		.byte	0x54
 1644 0a77 0B       		.uleb128 0xb
 1645 0a78 5D060000 		.4byte	.LASF152
 1646 0a7c 11       		.byte	0x11
 1647 0a7d B501     		.2byte	0x1b5
 1648 0a7f 8A0A0000 		.4byte	0xa8a
 1649 0a83 58       		.byte	0x58
 1650 0a84 00       		.byte	0
 1651 0a85 12       		.uleb128 0x12
 1652 0a86 F6040000 		.4byte	0x4f6
 1653 0a8a 12       		.uleb128 0x12
ARM GAS  /var/folders/m4/4md61f0s1_g0rzfghffqnxvr0000gn/T//cchTdfYZ.s 			page 30


 1654 0a8b E6040000 		.4byte	0x4e6
 1655 0a8f 1D       		.uleb128 0x1d
 1656 0a90 9E020000 		.4byte	.LASF153
 1657 0a94 11       		.byte	0x11
 1658 0a95 B601     		.2byte	0x1b6
 1659 0a97 75090000 		.4byte	0x975
 1660 0a9b 1D       		.uleb128 0x1d
 1661 0a9c C4020000 		.4byte	.LASF154
 1662 0aa0 10       		.byte	0x10
 1663 0aa1 5F01     		.2byte	0x15f
 1664 0aa3 D6000000 		.4byte	0xd6
 1665 0aa7 1D       		.uleb128 0x1d
 1666 0aa8 34000000 		.4byte	.LASF155
 1667 0aac 10       		.byte	0x10
 1668 0aad 6401     		.2byte	0x164
 1669 0aaf B5000000 		.4byte	0xb5
 1670 0ab3 1D       		.uleb128 0x1d
 1671 0ab4 23060000 		.4byte	.LASF156
 1672 0ab8 10       		.byte	0x10
 1673 0ab9 6901     		.2byte	0x169
 1674 0abb D6000000 		.4byte	0xd6
 1675 0abf 1D       		.uleb128 0x1d
 1676 0ac0 09080000 		.4byte	.LASF157
 1677 0ac4 10       		.byte	0x10
 1678 0ac5 6E01     		.2byte	0x16e
 1679 0ac7 D6000000 		.4byte	0xd6
 1680 0acb 1E       		.uleb128 0x1e
 1681 0acc 08       		.byte	0x8
 1682 0acd 10       		.byte	0x10
 1683 0ace 7301     		.2byte	0x173
 1684 0ad0 C7050000 		.4byte	.LASF159
 1685 0ad4 F30A0000 		.4byte	0xaf3
 1686 0ad8 0B       		.uleb128 0xb
 1687 0ad9 D3060000 		.4byte	.LASF160
 1688 0add 10       		.byte	0x10
 1689 0ade 7701     		.2byte	0x177
 1690 0ae0 9B0A0000 		.4byte	0xa9b
 1691 0ae4 00       		.byte	0
 1692 0ae5 0B       		.uleb128 0xb
 1693 0ae6 4D040000 		.4byte	.LASF161
 1694 0aea 10       		.byte	0x10
 1695 0aeb 7D01     		.2byte	0x17d
 1696 0aed 53090000 		.4byte	0x953
 1697 0af1 04       		.byte	0x4
 1698 0af2 00       		.byte	0
 1699 0af3 1D       		.uleb128 0x1d
 1700 0af4 73070000 		.4byte	.LASF162
 1701 0af8 10       		.byte	0x10
 1702 0af9 7F01     		.2byte	0x17f
 1703 0afb CB0A0000 		.4byte	0xacb
 1704 0aff 1E       		.uleb128 0x1e
 1705 0b00 34       		.byte	0x34
 1706 0b01 10       		.byte	0x10
 1707 0b02 8401     		.2byte	0x184
 1708 0b04 68000000 		.4byte	.LASF163
 1709 0b08 5B0B0000 		.4byte	0xb5b
 1710 0b0c 0B       		.uleb128 0xb
ARM GAS  /var/folders/m4/4md61f0s1_g0rzfghffqnxvr0000gn/T//cchTdfYZ.s 			page 31


 1711 0b0d 2A040000 		.4byte	.LASF164
 1712 0b11 10       		.byte	0x10
 1713 0b12 8A01     		.2byte	0x18a
 1714 0b14 D6000000 		.4byte	0xd6
 1715 0b18 00       		.byte	0
 1716 0b19 0B       		.uleb128 0xb
 1717 0b1a E7010000 		.4byte	.LASF139
 1718 0b1e 10       		.byte	0x10
 1719 0b1f 9001     		.2byte	0x190
 1720 0b21 BF0A0000 		.4byte	0xabf
 1721 0b25 04       		.byte	0x4
 1722 0b26 0B       		.uleb128 0xb
 1723 0b27 4D040000 		.4byte	.LASF161
 1724 0b2b 10       		.byte	0x10
 1725 0b2c 9601     		.2byte	0x196
 1726 0b2e 53090000 		.4byte	0x953
 1727 0b32 08       		.byte	0x8
 1728 0b33 0B       		.uleb128 0xb
 1729 0b34 98050000 		.4byte	.LASF141
 1730 0b38 10       		.byte	0x10
 1731 0b39 9A01     		.2byte	0x19a
 1732 0b3b 5B0B0000 		.4byte	0xb5b
 1733 0b3f 0C       		.byte	0xc
 1734 0b40 0A       		.uleb128 0xa
 1735 0b41 63723200 		.ascii	"cr2\000"
 1736 0b45 10       		.byte	0x10
 1737 0b46 A001     		.2byte	0x1a0
 1738 0b48 D6000000 		.4byte	0xd6
 1739 0b4c 2C       		.byte	0x2c
 1740 0b4d 0B       		.uleb128 0xb
 1741 0b4e 78080000 		.4byte	.LASF165
 1742 0b52 10       		.byte	0x10
 1743 0b53 AD01     		.2byte	0x1ad
 1744 0b55 D6000000 		.4byte	0xd6
 1745 0b59 30       		.byte	0x30
 1746 0b5a 00       		.byte	0
 1747 0b5b 13       		.uleb128 0x13
 1748 0b5c F30A0000 		.4byte	0xaf3
 1749 0b60 6B0B0000 		.4byte	0xb6b
 1750 0b64 14       		.uleb128 0x14
 1751 0b65 DA040000 		.4byte	0x4da
 1752 0b69 03       		.byte	0x3
 1753 0b6a 00       		.byte	0
 1754 0b6b 1D       		.uleb128 0x1d
 1755 0b6c 9F060000 		.4byte	.LASF166
 1756 0b70 10       		.byte	0x10
 1757 0b71 AE01     		.2byte	0x1ae
 1758 0b73 FF0A0000 		.4byte	0xaff
 1759 0b77 0C       		.uleb128 0xc
 1760 0b78 04       		.byte	0x4
 1761 0b79 7D0B0000 		.4byte	0xb7d
 1762 0b7d 1A       		.uleb128 0x1a
 1763 0b7e 6B0B0000 		.4byte	0xb6b
 1764 0b82 0C       		.uleb128 0xc
 1765 0b83 04       		.byte	0x4
 1766 0b84 8F0A0000 		.4byte	0xa8f
 1767 0b88 1F       		.uleb128 0x1f
ARM GAS  /var/folders/m4/4md61f0s1_g0rzfghffqnxvr0000gn/T//cchTdfYZ.s 			page 32


 1768 0b89 7E050000 		.4byte	.LASF182
 1769 0b8d 01       		.byte	0x1
 1770 0b8e 65       		.byte	0x65
 1771 0b8f 9D070000 		.4byte	.LASF183
 1772 0b93 01       		.byte	0x1
 1773 0b94 A40B0000 		.4byte	0xba4
 1774 0b98 20       		.uleb128 0x20
 1775 0b99 E6040000 		.4byte	.LASF168
 1776 0b9d 01       		.byte	0x1
 1777 0b9e 65       		.byte	0x65
 1778 0b9f 25000000 		.4byte	0x25
 1779 0ba3 00       		.byte	0
 1780 0ba4 21       		.uleb128 0x21
 1781 0ba5 2C000000 		.4byte	.LASF169
 1782 0ba9 01       		.byte	0x1
 1783 0baa 3F       		.byte	0x3f
 1784 0bab 1D040000 		.4byte	.LASF171
 1785 0baf 00000000 		.4byte	.LFB269
 1786 0bb3 B8000000 		.4byte	.LFE269-.LFB269
 1787 0bb7 01       		.uleb128 0x1
 1788 0bb8 9C       		.byte	0x9c
 1789 0bb9 4A0C0000 		.4byte	0xc4a
 1790 0bbd 22       		.uleb128 0x22
 1791 0bbe 37060000 		.4byte	.LASF167
 1792 0bc2 01       		.byte	0x1
 1793 0bc3 3F       		.byte	0x3f
 1794 0bc4 B5000000 		.4byte	0xb5
 1795 0bc8 00000000 		.4byte	.LLST0
 1796 0bcc 22       		.uleb128 0x22
 1797 0bcd E6040000 		.4byte	.LASF168
 1798 0bd1 01       		.byte	0x1
 1799 0bd2 3F       		.byte	0x3f
 1800 0bd3 25000000 		.4byte	0x25
 1801 0bd7 21000000 		.4byte	.LLST1
 1802 0bdb 23       		.uleb128 0x23
 1803 0bdc F6050000 		.4byte	.LASF184
 1804 0be0 01       		.byte	0x1
 1805 0be1 40       		.byte	0x40
 1806 0be2 D6000000 		.4byte	0xd6
 1807 0be6 24       		.uleb128 0x24
 1808 0be7 44000000 		.4byte	.LVL5
 1809 0beb 370E0000 		.4byte	0xe37
 1810 0bef 25       		.uleb128 0x25
 1811 0bf0 56000000 		.4byte	.LVL6
 1812 0bf4 370E0000 		.4byte	0xe37
 1813 0bf8 080C0000 		.4byte	0xc08
 1814 0bfc 26       		.uleb128 0x26
 1815 0bfd 01       		.uleb128 0x1
 1816 0bfe 51       		.byte	0x51
 1817 0bff 01       		.uleb128 0x1
 1818 0c00 30       		.byte	0x30
 1819 0c01 26       		.uleb128 0x26
 1820 0c02 01       		.uleb128 0x1
 1821 0c03 52       		.byte	0x52
 1822 0c04 02       		.uleb128 0x2
 1823 0c05 75       		.byte	0x75
 1824 0c06 00       		.sleb128 0
ARM GAS  /var/folders/m4/4md61f0s1_g0rzfghffqnxvr0000gn/T//cchTdfYZ.s 			page 33


 1825 0c07 00       		.byte	0
 1826 0c08 25       		.uleb128 0x25
 1827 0c09 60000000 		.4byte	.LVL7
 1828 0c0d 370E0000 		.4byte	0xe37
 1829 0c11 210C0000 		.4byte	0xc21
 1830 0c15 26       		.uleb128 0x26
 1831 0c16 01       		.uleb128 0x1
 1832 0c17 51       		.byte	0x51
 1833 0c18 01       		.uleb128 0x1
 1834 0c19 31       		.byte	0x31
 1835 0c1a 26       		.uleb128 0x26
 1836 0c1b 01       		.uleb128 0x1
 1837 0c1c 52       		.byte	0x52
 1838 0c1d 02       		.uleb128 0x2
 1839 0c1e 75       		.byte	0x75
 1840 0c1f 00       		.sleb128 0
 1841 0c20 00       		.byte	0
 1842 0c21 25       		.uleb128 0x25
 1843 0c22 6A000000 		.4byte	.LVL8
 1844 0c26 370E0000 		.4byte	0xe37
 1845 0c2a 3A0C0000 		.4byte	0xc3a
 1846 0c2e 26       		.uleb128 0x26
 1847 0c2f 01       		.uleb128 0x1
 1848 0c30 51       		.byte	0x51
 1849 0c31 01       		.uleb128 0x1
 1850 0c32 32       		.byte	0x32
 1851 0c33 26       		.uleb128 0x26
 1852 0c34 01       		.uleb128 0x1
 1853 0c35 52       		.byte	0x52
 1854 0c36 02       		.uleb128 0x2
 1855 0c37 75       		.byte	0x75
 1856 0c38 00       		.sleb128 0
 1857 0c39 00       		.byte	0
 1858 0c3a 27       		.uleb128 0x27
 1859 0c3b 78000000 		.4byte	.LVL9
 1860 0c3f 370E0000 		.4byte	0xe37
 1861 0c43 26       		.uleb128 0x26
 1862 0c44 01       		.uleb128 0x1
 1863 0c45 51       		.byte	0x51
 1864 0c46 01       		.uleb128 0x1
 1865 0c47 33       		.byte	0x33
 1866 0c48 00       		.byte	0
 1867 0c49 00       		.byte	0
 1868 0c4a 28       		.uleb128 0x28
 1869 0c4b 3F030000 		.4byte	.LASF170
 1870 0c4f 01       		.byte	0x1
 1871 0c50 18       		.byte	0x18
 1872 0c51 87060000 		.4byte	.LASF172
 1873 0c55 00000000 		.4byte	.LFB268
 1874 0c59 A8000000 		.4byte	.LFE268-.LFB268
 1875 0c5d 01       		.uleb128 0x1
 1876 0c5e 9C       		.byte	0x9c
 1877 0c5f BD0D0000 		.4byte	0xdbd
 1878 0c63 29       		.uleb128 0x29
 1879 0c64 880B0000 		.4byte	0xb88
 1880 0c68 7E000000 		.4byte	.LBB4
 1881 0c6c 00000000 		.4byte	.Ldebug_ranges0+0
ARM GAS  /var/folders/m4/4md61f0s1_g0rzfghffqnxvr0000gn/T//cchTdfYZ.s 			page 34


 1882 0c70 01       		.byte	0x1
 1883 0c71 3C       		.byte	0x3c
 1884 0c72 AB0C0000 		.4byte	0xcab
 1885 0c76 2A       		.uleb128 0x2a
 1886 0c77 980B0000 		.4byte	0xb98
 1887 0c7b 08       		.byte	0x8
 1888 0c7c 00000000 		.4byte	0
 1889 0c80 00000000 		.4byte	0
 1890 0c84 27       		.uleb128 0x27
 1891 0c85 8C000000 		.4byte	.LVL25
 1892 0c89 A40B0000 		.4byte	0xba4
 1893 0c8d 26       		.uleb128 0x26
 1894 0c8e 01       		.uleb128 0x1
 1895 0c8f 50       		.byte	0x50
 1896 0c90 02       		.uleb128 0x2
 1897 0c91 09       		.byte	0x9
 1898 0c92 FF       		.byte	0xff
 1899 0c93 26       		.uleb128 0x26
 1900 0c94 08       		.uleb128 0x8
 1901 0c95 90       		.byte	0x90
 1902 0c96 40       		.uleb128 0x40
 1903 0c97 93       		.byte	0x93
 1904 0c98 04       		.uleb128 0x4
 1905 0c99 90       		.byte	0x90
 1906 0c9a 41       		.uleb128 0x41
 1907 0c9b 93       		.byte	0x93
 1908 0c9c 04       		.uleb128 0x4
 1909 0c9d 0B       		.uleb128 0xb
 1910 0c9e F4       		.byte	0xf4
 1911 0c9f 25       		.uleb128 0x25
 1912 0ca0 08       		.byte	0x8
 1913 0ca1 00000000 		.4byte	0
 1914 0ca5 00000000 		.4byte	0
 1915 0ca9 00       		.byte	0
 1916 0caa 00       		.byte	0
 1917 0cab 25       		.uleb128 0x25
 1918 0cac 0E000000 		.4byte	.LVL15
 1919 0cb0 430E0000 		.4byte	0xe43
 1920 0cb4 C20C0000 		.4byte	0xcc2
 1921 0cb8 26       		.uleb128 0x26
 1922 0cb9 01       		.uleb128 0x1
 1923 0cba 51       		.byte	0x51
 1924 0cbb 05       		.uleb128 0x5
 1925 0cbc 03       		.byte	0x3
 1926 0cbd 00000000 		.4byte	.LANCHOR0
 1927 0cc1 00       		.byte	0
 1928 0cc2 25       		.uleb128 0x25
 1929 0cc3 1A000000 		.4byte	.LVL16
 1930 0cc7 4F0E0000 		.4byte	0xe4f
 1931 0ccb E20C0000 		.4byte	0xce2
 1932 0ccf 26       		.uleb128 0x26
 1933 0cd0 01       		.uleb128 0x1
 1934 0cd1 50       		.byte	0x50
 1935 0cd2 02       		.uleb128 0x2
 1936 0cd3 75       		.byte	0x75
 1937 0cd4 00       		.sleb128 0
 1938 0cd5 26       		.uleb128 0x26
ARM GAS  /var/folders/m4/4md61f0s1_g0rzfghffqnxvr0000gn/T//cchTdfYZ.s 			page 35


 1939 0cd6 01       		.uleb128 0x1
 1940 0cd7 51       		.byte	0x51
 1941 0cd8 01       		.uleb128 0x1
 1942 0cd9 31       		.byte	0x31
 1943 0cda 26       		.uleb128 0x26
 1944 0cdb 01       		.uleb128 0x1
 1945 0cdc 52       		.byte	0x52
 1946 0cdd 03       		.uleb128 0x3
 1947 0cde 0A       		.byte	0xa
 1948 0cdf 0A01     		.2byte	0x10a
 1949 0ce1 00       		.byte	0
 1950 0ce2 25       		.uleb128 0x25
 1951 0ce3 26000000 		.4byte	.LVL17
 1952 0ce7 4F0E0000 		.4byte	0xe4f
 1953 0ceb 020D0000 		.4byte	0xd02
 1954 0cef 26       		.uleb128 0x26
 1955 0cf0 01       		.uleb128 0x1
 1956 0cf1 50       		.byte	0x50
 1957 0cf2 02       		.uleb128 0x2
 1958 0cf3 75       		.byte	0x75
 1959 0cf4 00       		.sleb128 0
 1960 0cf5 26       		.uleb128 0x26
 1961 0cf6 01       		.uleb128 0x1
 1962 0cf7 51       		.byte	0x51
 1963 0cf8 01       		.uleb128 0x1
 1964 0cf9 32       		.byte	0x32
 1965 0cfa 26       		.uleb128 0x26
 1966 0cfb 01       		.uleb128 0x1
 1967 0cfc 52       		.byte	0x52
 1968 0cfd 03       		.uleb128 0x3
 1969 0cfe 0A       		.byte	0xa
 1970 0cff 0A01     		.2byte	0x10a
 1971 0d01 00       		.byte	0
 1972 0d02 25       		.uleb128 0x25
 1973 0d03 32000000 		.4byte	.LVL18
 1974 0d07 4F0E0000 		.4byte	0xe4f
 1975 0d0b 220D0000 		.4byte	0xd22
 1976 0d0f 26       		.uleb128 0x26
 1977 0d10 01       		.uleb128 0x1
 1978 0d11 50       		.byte	0x50
 1979 0d12 02       		.uleb128 0x2
 1980 0d13 75       		.byte	0x75
 1981 0d14 00       		.sleb128 0
 1982 0d15 26       		.uleb128 0x26
 1983 0d16 01       		.uleb128 0x1
 1984 0d17 51       		.byte	0x51
 1985 0d18 01       		.uleb128 0x1
 1986 0d19 34       		.byte	0x34
 1987 0d1a 26       		.uleb128 0x26
 1988 0d1b 01       		.uleb128 0x1
 1989 0d1c 52       		.byte	0x52
 1990 0d1d 03       		.uleb128 0x3
 1991 0d1e 0A       		.byte	0xa
 1992 0d1f 0A01     		.2byte	0x10a
 1993 0d21 00       		.byte	0
 1994 0d22 25       		.uleb128 0x25
 1995 0d23 3E000000 		.4byte	.LVL19
ARM GAS  /var/folders/m4/4md61f0s1_g0rzfghffqnxvr0000gn/T//cchTdfYZ.s 			page 36


 1996 0d27 4F0E0000 		.4byte	0xe4f
 1997 0d2b 420D0000 		.4byte	0xd42
 1998 0d2f 26       		.uleb128 0x26
 1999 0d30 01       		.uleb128 0x1
 2000 0d31 50       		.byte	0x50
 2001 0d32 02       		.uleb128 0x2
 2002 0d33 75       		.byte	0x75
 2003 0d34 00       		.sleb128 0
 2004 0d35 26       		.uleb128 0x26
 2005 0d36 01       		.uleb128 0x1
 2006 0d37 51       		.byte	0x51
 2007 0d38 01       		.uleb128 0x1
 2008 0d39 38       		.byte	0x38
 2009 0d3a 26       		.uleb128 0x26
 2010 0d3b 01       		.uleb128 0x1
 2011 0d3c 52       		.byte	0x52
 2012 0d3d 03       		.uleb128 0x3
 2013 0d3e 0A       		.byte	0xa
 2014 0d3f 0A01     		.2byte	0x10a
 2015 0d41 00       		.byte	0
 2016 0d42 25       		.uleb128 0x25
 2017 0d43 48000000 		.4byte	.LVL20
 2018 0d47 4F0E0000 		.4byte	0xe4f
 2019 0d4b 610D0000 		.4byte	0xd61
 2020 0d4f 26       		.uleb128 0x26
 2021 0d50 01       		.uleb128 0x1
 2022 0d51 50       		.byte	0x50
 2023 0d52 02       		.uleb128 0x2
 2024 0d53 74       		.byte	0x74
 2025 0d54 00       		.sleb128 0
 2026 0d55 26       		.uleb128 0x26
 2027 0d56 01       		.uleb128 0x1
 2028 0d57 51       		.byte	0x51
 2029 0d58 02       		.uleb128 0x2
 2030 0d59 08       		.byte	0x8
 2031 0d5a 40       		.byte	0x40
 2032 0d5b 26       		.uleb128 0x26
 2033 0d5c 01       		.uleb128 0x1
 2034 0d5d 52       		.byte	0x52
 2035 0d5e 01       		.uleb128 0x1
 2036 0d5f 49       		.byte	0x49
 2037 0d60 00       		.byte	0
 2038 0d61 25       		.uleb128 0x25
 2039 0d62 52000000 		.4byte	.LVL21
 2040 0d66 4F0E0000 		.4byte	0xe4f
 2041 0d6a 800D0000 		.4byte	0xd80
 2042 0d6e 26       		.uleb128 0x26
 2043 0d6f 01       		.uleb128 0x1
 2044 0d70 50       		.byte	0x50
 2045 0d71 02       		.uleb128 0x2
 2046 0d72 74       		.byte	0x74
 2047 0d73 00       		.sleb128 0
 2048 0d74 26       		.uleb128 0x26
 2049 0d75 01       		.uleb128 0x1
 2050 0d76 51       		.byte	0x51
 2051 0d77 02       		.uleb128 0x2
 2052 0d78 08       		.byte	0x8
ARM GAS  /var/folders/m4/4md61f0s1_g0rzfghffqnxvr0000gn/T//cchTdfYZ.s 			page 37


 2053 0d79 80       		.byte	0x80
 2054 0d7a 26       		.uleb128 0x26
 2055 0d7b 01       		.uleb128 0x1
 2056 0d7c 52       		.byte	0x52
 2057 0d7d 01       		.uleb128 0x1
 2058 0d7e 49       		.byte	0x49
 2059 0d7f 00       		.byte	0
 2060 0d80 25       		.uleb128 0x25
 2061 0d81 5E000000 		.4byte	.LVL22
 2062 0d85 4F0E0000 		.4byte	0xe4f
 2063 0d89 A00D0000 		.4byte	0xda0
 2064 0d8d 26       		.uleb128 0x26
 2065 0d8e 01       		.uleb128 0x1
 2066 0d8f 50       		.byte	0x50
 2067 0d90 02       		.uleb128 0x2
 2068 0d91 74       		.byte	0x74
 2069 0d92 00       		.sleb128 0
 2070 0d93 26       		.uleb128 0x26
 2071 0d94 01       		.uleb128 0x1
 2072 0d95 51       		.byte	0x51
 2073 0d96 03       		.uleb128 0x3
 2074 0d97 0A       		.byte	0xa
 2075 0d98 0001     		.2byte	0x100
 2076 0d9a 26       		.uleb128 0x26
 2077 0d9b 01       		.uleb128 0x1
 2078 0d9c 52       		.byte	0x52
 2079 0d9d 01       		.uleb128 0x1
 2080 0d9e 49       		.byte	0x49
 2081 0d9f 00       		.byte	0
 2082 0da0 2B       		.uleb128 0x2b
 2083 0da1 6A000000 		.4byte	.LVL23
 2084 0da5 4F0E0000 		.4byte	0xe4f
 2085 0da9 26       		.uleb128 0x26
 2086 0daa 01       		.uleb128 0x1
 2087 0dab 50       		.byte	0x50
 2088 0dac 02       		.uleb128 0x2
 2089 0dad 74       		.byte	0x74
 2090 0dae 00       		.sleb128 0
 2091 0daf 26       		.uleb128 0x26
 2092 0db0 01       		.uleb128 0x1
 2093 0db1 51       		.byte	0x51
 2094 0db2 03       		.uleb128 0x3
 2095 0db3 0A       		.byte	0xa
 2096 0db4 0002     		.2byte	0x200
 2097 0db6 26       		.uleb128 0x26
 2098 0db7 01       		.uleb128 0x1
 2099 0db8 52       		.byte	0x52
 2100 0db9 01       		.uleb128 0x1
 2101 0dba 49       		.byte	0x49
 2102 0dbb 00       		.byte	0
 2103 0dbc 00       		.byte	0
 2104 0dbd 2C       		.uleb128 0x2c
 2105 0dbe 880B0000 		.4byte	0xb88
 2106 0dc2 9D070000 		.4byte	.LASF183
 2107 0dc6 00000000 		.4byte	.LFB270
 2108 0dca 06000000 		.4byte	.LFE270-.LFB270
 2109 0dce 01       		.uleb128 0x1
ARM GAS  /var/folders/m4/4md61f0s1_g0rzfghffqnxvr0000gn/T//cchTdfYZ.s 			page 38


 2110 0dcf 9C       		.byte	0x9c
 2111 0dd0 FE0D0000 		.4byte	0xdfe
 2112 0dd4 2D       		.uleb128 0x2d
 2113 0dd5 980B0000 		.4byte	0xb98
 2114 0dd9 6B000000 		.4byte	.LLST2
 2115 0ddd 27       		.uleb128 0x27
 2116 0dde 06000000 		.4byte	.LVL27
 2117 0de2 A40B0000 		.4byte	0xba4
 2118 0de6 26       		.uleb128 0x26
 2119 0de7 01       		.uleb128 0x1
 2120 0de8 50       		.byte	0x50
 2121 0de9 02       		.uleb128 0x2
 2122 0dea 09       		.byte	0x9
 2123 0deb FF       		.byte	0xff
 2124 0dec 26       		.uleb128 0x26
 2125 0ded 08       		.uleb128 0x8
 2126 0dee 90       		.byte	0x90
 2127 0def 40       		.uleb128 0x40
 2128 0df0 93       		.byte	0x93
 2129 0df1 04       		.uleb128 0x4
 2130 0df2 90       		.byte	0x90
 2131 0df3 41       		.uleb128 0x41
 2132 0df4 93       		.byte	0x93
 2133 0df5 04       		.uleb128 0x4
 2134 0df6 05       		.uleb128 0x5
 2135 0df7 F3       		.byte	0xf3
 2136 0df8 03       		.uleb128 0x3
 2137 0df9 F5       		.byte	0xf5
 2138 0dfa 40       		.uleb128 0x40
 2139 0dfb 25       		.uleb128 0x25
 2140 0dfc 00       		.byte	0
 2141 0dfd 00       		.byte	0
 2142 0dfe 2E       		.uleb128 0x2e
 2143 0dff 2E020000 		.4byte	.LASF173
 2144 0e03 12       		.byte	0x12
 2145 0e04 FA06     		.2byte	0x6fa
 2146 0e06 0A0E0000 		.4byte	0xe0a
 2147 0e0a 12       		.uleb128 0x12
 2148 0e0b CB000000 		.4byte	0xcb
 2149 0e0f 2F       		.uleb128 0x2f
 2150 0e10 636800   		.ascii	"ch\000"
 2151 0e13 07       		.byte	0x7
 2152 0e14 0902     		.2byte	0x209
 2153 0e16 73040000 		.4byte	0x473
 2154 0e1a 2E       		.uleb128 0x2e
 2155 0e1b DF020000 		.4byte	.LASF174
 2156 0e1f 10       		.byte	0x10
 2157 0e20 0202     		.2byte	0x202
 2158 0e22 DF080000 		.4byte	0x8df
 2159 0e26 30       		.uleb128 0x30
 2160 0e27 8F070000 		.4byte	.LASF185
 2161 0e2b 01       		.byte	0x1
 2162 0e2c 0A       		.byte	0xa
 2163 0e2d 6B0B0000 		.4byte	0xb6b
 2164 0e31 05       		.uleb128 0x5
 2165 0e32 03       		.byte	0x3
 2166 0e33 00000000 		.4byte	_ZL6pwmcfg
ARM GAS  /var/folders/m4/4md61f0s1_g0rzfghffqnxvr0000gn/T//cchTdfYZ.s 			page 39


 2167 0e37 31       		.uleb128 0x31
 2168 0e38 22080000 		.4byte	.LASF175
 2169 0e3c 22080000 		.4byte	.LASF175
 2170 0e40 0F       		.byte	0xf
 2171 0e41 2401     		.2byte	0x124
 2172 0e43 31       		.uleb128 0x31
 2173 0e44 6A020000 		.4byte	.LASF176
 2174 0e48 6A020000 		.4byte	.LASF176
 2175 0e4c 0F       		.byte	0xf
 2176 0e4d 2101     		.2byte	0x121
 2177 0e4f 31       		.uleb128 0x31
 2178 0e50 5D070000 		.4byte	.LASF177
 2179 0e54 5D070000 		.4byte	.LASF177
 2180 0e58 0E       		.byte	0xe
 2181 0e59 2402     		.2byte	0x224
 2182 0e5b 00       		.byte	0
 2183              		.section	.debug_abbrev,"",%progbits
 2184              	.Ldebug_abbrev0:
 2185 0000 01       		.uleb128 0x1
 2186 0001 11       		.uleb128 0x11
 2187 0002 01       		.byte	0x1
 2188 0003 25       		.uleb128 0x25
 2189 0004 0E       		.uleb128 0xe
 2190 0005 13       		.uleb128 0x13
 2191 0006 0B       		.uleb128 0xb
 2192 0007 03       		.uleb128 0x3
 2193 0008 0E       		.uleb128 0xe
 2194 0009 1B       		.uleb128 0x1b
 2195 000a 0E       		.uleb128 0xe
 2196 000b 55       		.uleb128 0x55
 2197 000c 17       		.uleb128 0x17
 2198 000d 11       		.uleb128 0x11
 2199 000e 01       		.uleb128 0x1
 2200 000f 10       		.uleb128 0x10
 2201 0010 17       		.uleb128 0x17
 2202 0011 00       		.byte	0
 2203 0012 00       		.byte	0
 2204 0013 02       		.uleb128 0x2
 2205 0014 24       		.uleb128 0x24
 2206 0015 00       		.byte	0
 2207 0016 0B       		.uleb128 0xb
 2208 0017 0B       		.uleb128 0xb
 2209 0018 3E       		.uleb128 0x3e
 2210 0019 0B       		.uleb128 0xb
 2211 001a 03       		.uleb128 0x3
 2212 001b 0E       		.uleb128 0xe
 2213 001c 00       		.byte	0
 2214 001d 00       		.byte	0
 2215 001e 03       		.uleb128 0x3
 2216 001f 24       		.uleb128 0x24
 2217 0020 00       		.byte	0
 2218 0021 0B       		.uleb128 0xb
 2219 0022 0B       		.uleb128 0xb
 2220 0023 3E       		.uleb128 0x3e
 2221 0024 0B       		.uleb128 0xb
 2222 0025 03       		.uleb128 0x3
 2223 0026 08       		.uleb128 0x8
ARM GAS  /var/folders/m4/4md61f0s1_g0rzfghffqnxvr0000gn/T//cchTdfYZ.s 			page 40


 2224 0027 00       		.byte	0
 2225 0028 00       		.byte	0
 2226 0029 04       		.uleb128 0x4
 2227 002a 16       		.uleb128 0x16
 2228 002b 00       		.byte	0
 2229 002c 03       		.uleb128 0x3
 2230 002d 0E       		.uleb128 0xe
 2231 002e 3A       		.uleb128 0x3a
 2232 002f 0B       		.uleb128 0xb
 2233 0030 3B       		.uleb128 0x3b
 2234 0031 0B       		.uleb128 0xb
 2235 0032 49       		.uleb128 0x49
 2236 0033 13       		.uleb128 0x13
 2237 0034 00       		.byte	0
 2238 0035 00       		.byte	0
 2239 0036 05       		.uleb128 0x5
 2240 0037 3B       		.uleb128 0x3b
 2241 0038 00       		.byte	0
 2242 0039 03       		.uleb128 0x3
 2243 003a 0E       		.uleb128 0xe
 2244 003b 00       		.byte	0
 2245 003c 00       		.byte	0
 2246 003d 06       		.uleb128 0x6
 2247 003e 13       		.uleb128 0x13
 2248 003f 01       		.byte	0x1
 2249 0040 03       		.uleb128 0x3
 2250 0041 0E       		.uleb128 0xe
 2251 0042 0B       		.uleb128 0xb
 2252 0043 0B       		.uleb128 0xb
 2253 0044 3A       		.uleb128 0x3a
 2254 0045 0B       		.uleb128 0xb
 2255 0046 3B       		.uleb128 0x3b
 2256 0047 0B       		.uleb128 0xb
 2257 0048 01       		.uleb128 0x1
 2258 0049 13       		.uleb128 0x13
 2259 004a 00       		.byte	0
 2260 004b 00       		.byte	0
 2261 004c 07       		.uleb128 0x7
 2262 004d 17       		.uleb128 0x17
 2263 004e 01       		.byte	0x1
 2264 004f 0B       		.uleb128 0xb
 2265 0050 0B       		.uleb128 0xb
 2266 0051 3A       		.uleb128 0x3a
 2267 0052 0B       		.uleb128 0xb
 2268 0053 3B       		.uleb128 0x3b
 2269 0054 0B       		.uleb128 0xb
 2270 0055 01       		.uleb128 0x1
 2271 0056 13       		.uleb128 0x13
 2272 0057 00       		.byte	0
 2273 0058 00       		.byte	0
 2274 0059 08       		.uleb128 0x8
 2275 005a 0D       		.uleb128 0xd
 2276 005b 00       		.byte	0
 2277 005c 03       		.uleb128 0x3
 2278 005d 0E       		.uleb128 0xe
 2279 005e 3A       		.uleb128 0x3a
 2280 005f 0B       		.uleb128 0xb
ARM GAS  /var/folders/m4/4md61f0s1_g0rzfghffqnxvr0000gn/T//cchTdfYZ.s 			page 41


 2281 0060 3B       		.uleb128 0x3b
 2282 0061 05       		.uleb128 0x5
 2283 0062 49       		.uleb128 0x49
 2284 0063 13       		.uleb128 0x13
 2285 0064 00       		.byte	0
 2286 0065 00       		.byte	0
 2287 0066 09       		.uleb128 0x9
 2288 0067 0D       		.uleb128 0xd
 2289 0068 00       		.byte	0
 2290 0069 03       		.uleb128 0x3
 2291 006a 0E       		.uleb128 0xe
 2292 006b 3A       		.uleb128 0x3a
 2293 006c 0B       		.uleb128 0xb
 2294 006d 3B       		.uleb128 0x3b
 2295 006e 0B       		.uleb128 0xb
 2296 006f 49       		.uleb128 0x49
 2297 0070 13       		.uleb128 0x13
 2298 0071 38       		.uleb128 0x38
 2299 0072 0B       		.uleb128 0xb
 2300 0073 00       		.byte	0
 2301 0074 00       		.byte	0
 2302 0075 0A       		.uleb128 0xa
 2303 0076 0D       		.uleb128 0xd
 2304 0077 00       		.byte	0
 2305 0078 03       		.uleb128 0x3
 2306 0079 08       		.uleb128 0x8
 2307 007a 3A       		.uleb128 0x3a
 2308 007b 0B       		.uleb128 0xb
 2309 007c 3B       		.uleb128 0x3b
 2310 007d 05       		.uleb128 0x5
 2311 007e 49       		.uleb128 0x49
 2312 007f 13       		.uleb128 0x13
 2313 0080 38       		.uleb128 0x38
 2314 0081 0B       		.uleb128 0xb
 2315 0082 00       		.byte	0
 2316 0083 00       		.byte	0
 2317 0084 0B       		.uleb128 0xb
 2318 0085 0D       		.uleb128 0xd
 2319 0086 00       		.byte	0
 2320 0087 03       		.uleb128 0x3
 2321 0088 0E       		.uleb128 0xe
 2322 0089 3A       		.uleb128 0x3a
 2323 008a 0B       		.uleb128 0xb
 2324 008b 3B       		.uleb128 0x3b
 2325 008c 05       		.uleb128 0x5
 2326 008d 49       		.uleb128 0x49
 2327 008e 13       		.uleb128 0x13
 2328 008f 38       		.uleb128 0x38
 2329 0090 0B       		.uleb128 0xb
 2330 0091 00       		.byte	0
 2331 0092 00       		.byte	0
 2332 0093 0C       		.uleb128 0xc
 2333 0094 0F       		.uleb128 0xf
 2334 0095 00       		.byte	0
 2335 0096 0B       		.uleb128 0xb
 2336 0097 0B       		.uleb128 0xb
 2337 0098 49       		.uleb128 0x49
ARM GAS  /var/folders/m4/4md61f0s1_g0rzfghffqnxvr0000gn/T//cchTdfYZ.s 			page 42


 2338 0099 13       		.uleb128 0x13
 2339 009a 00       		.byte	0
 2340 009b 00       		.byte	0
 2341 009c 0D       		.uleb128 0xd
 2342 009d 13       		.uleb128 0x13
 2343 009e 01       		.byte	0x1
 2344 009f 03       		.uleb128 0x3
 2345 00a0 0E       		.uleb128 0xe
 2346 00a1 0B       		.uleb128 0xb
 2347 00a2 0B       		.uleb128 0xb
 2348 00a3 3A       		.uleb128 0x3a
 2349 00a4 0B       		.uleb128 0xb
 2350 00a5 3B       		.uleb128 0x3b
 2351 00a6 05       		.uleb128 0x5
 2352 00a7 01       		.uleb128 0x1
 2353 00a8 13       		.uleb128 0x13
 2354 00a9 00       		.byte	0
 2355 00aa 00       		.byte	0
 2356 00ab 0E       		.uleb128 0xe
 2357 00ac 15       		.uleb128 0x15
 2358 00ad 01       		.byte	0x1
 2359 00ae 01       		.uleb128 0x1
 2360 00af 13       		.uleb128 0x13
 2361 00b0 00       		.byte	0
 2362 00b1 00       		.byte	0
 2363 00b2 0F       		.uleb128 0xf
 2364 00b3 05       		.uleb128 0x5
 2365 00b4 00       		.byte	0
 2366 00b5 49       		.uleb128 0x49
 2367 00b6 13       		.uleb128 0x13
 2368 00b7 00       		.byte	0
 2369 00b8 00       		.byte	0
 2370 00b9 10       		.uleb128 0x10
 2371 00ba 0F       		.uleb128 0xf
 2372 00bb 00       		.byte	0
 2373 00bc 0B       		.uleb128 0xb
 2374 00bd 0B       		.uleb128 0xb
 2375 00be 00       		.byte	0
 2376 00bf 00       		.byte	0
 2377 00c0 11       		.uleb128 0x11
 2378 00c1 13       		.uleb128 0x13
 2379 00c2 01       		.byte	0x1
 2380 00c3 03       		.uleb128 0x3
 2381 00c4 0E       		.uleb128 0xe
 2382 00c5 0B       		.uleb128 0xb
 2383 00c6 05       		.uleb128 0x5
 2384 00c7 3A       		.uleb128 0x3a
 2385 00c8 0B       		.uleb128 0xb
 2386 00c9 3B       		.uleb128 0x3b
 2387 00ca 05       		.uleb128 0x5
 2388 00cb 01       		.uleb128 0x1
 2389 00cc 13       		.uleb128 0x13
 2390 00cd 00       		.byte	0
 2391 00ce 00       		.byte	0
 2392 00cf 12       		.uleb128 0x12
 2393 00d0 35       		.uleb128 0x35
 2394 00d1 00       		.byte	0
ARM GAS  /var/folders/m4/4md61f0s1_g0rzfghffqnxvr0000gn/T//cchTdfYZ.s 			page 43


 2395 00d2 49       		.uleb128 0x49
 2396 00d3 13       		.uleb128 0x13
 2397 00d4 00       		.byte	0
 2398 00d5 00       		.byte	0
 2399 00d6 13       		.uleb128 0x13
 2400 00d7 01       		.uleb128 0x1
 2401 00d8 01       		.byte	0x1
 2402 00d9 49       		.uleb128 0x49
 2403 00da 13       		.uleb128 0x13
 2404 00db 01       		.uleb128 0x1
 2405 00dc 13       		.uleb128 0x13
 2406 00dd 00       		.byte	0
 2407 00de 00       		.byte	0
 2408 00df 14       		.uleb128 0x14
 2409 00e0 21       		.uleb128 0x21
 2410 00e1 00       		.byte	0
 2411 00e2 49       		.uleb128 0x49
 2412 00e3 13       		.uleb128 0x13
 2413 00e4 2F       		.uleb128 0x2f
 2414 00e5 0B       		.uleb128 0xb
 2415 00e6 00       		.byte	0
 2416 00e7 00       		.byte	0
 2417 00e8 15       		.uleb128 0x15
 2418 00e9 04       		.uleb128 0x4
 2419 00ea 01       		.byte	0x1
 2420 00eb 0B       		.uleb128 0xb
 2421 00ec 0B       		.uleb128 0xb
 2422 00ed 49       		.uleb128 0x49
 2423 00ee 13       		.uleb128 0x13
 2424 00ef 3A       		.uleb128 0x3a
 2425 00f0 0B       		.uleb128 0xb
 2426 00f1 3B       		.uleb128 0x3b
 2427 00f2 0B       		.uleb128 0xb
 2428 00f3 6E       		.uleb128 0x6e
 2429 00f4 0E       		.uleb128 0xe
 2430 00f5 01       		.uleb128 0x1
 2431 00f6 13       		.uleb128 0x13
 2432 00f7 00       		.byte	0
 2433 00f8 00       		.byte	0
 2434 00f9 16       		.uleb128 0x16
 2435 00fa 28       		.uleb128 0x28
 2436 00fb 00       		.byte	0
 2437 00fc 03       		.uleb128 0x3
 2438 00fd 0E       		.uleb128 0xe
 2439 00fe 1C       		.uleb128 0x1c
 2440 00ff 0B       		.uleb128 0xb
 2441 0100 00       		.byte	0
 2442 0101 00       		.byte	0
 2443 0102 17       		.uleb128 0x17
 2444 0103 28       		.uleb128 0x28
 2445 0104 00       		.byte	0
 2446 0105 03       		.uleb128 0x3
 2447 0106 08       		.uleb128 0x8
 2448 0107 1C       		.uleb128 0x1c
 2449 0108 0B       		.uleb128 0xb
 2450 0109 00       		.byte	0
 2451 010a 00       		.byte	0
ARM GAS  /var/folders/m4/4md61f0s1_g0rzfghffqnxvr0000gn/T//cchTdfYZ.s 			page 44


 2452 010b 18       		.uleb128 0x18
 2453 010c 0D       		.uleb128 0xd
 2454 010d 00       		.byte	0
 2455 010e 03       		.uleb128 0x3
 2456 010f 08       		.uleb128 0x8
 2457 0110 3A       		.uleb128 0x3a
 2458 0111 0B       		.uleb128 0xb
 2459 0112 3B       		.uleb128 0x3b
 2460 0113 0B       		.uleb128 0xb
 2461 0114 49       		.uleb128 0x49
 2462 0115 13       		.uleb128 0x13
 2463 0116 38       		.uleb128 0x38
 2464 0117 0B       		.uleb128 0xb
 2465 0118 00       		.byte	0
 2466 0119 00       		.byte	0
 2467 011a 19       		.uleb128 0x19
 2468 011b 13       		.uleb128 0x13
 2469 011c 01       		.byte	0x1
 2470 011d 0B       		.uleb128 0xb
 2471 011e 0B       		.uleb128 0xb
 2472 011f 3A       		.uleb128 0x3a
 2473 0120 0B       		.uleb128 0xb
 2474 0121 3B       		.uleb128 0x3b
 2475 0122 0B       		.uleb128 0xb
 2476 0123 6E       		.uleb128 0x6e
 2477 0124 0E       		.uleb128 0xe
 2478 0125 01       		.uleb128 0x1
 2479 0126 13       		.uleb128 0x13
 2480 0127 00       		.byte	0
 2481 0128 00       		.byte	0
 2482 0129 1A       		.uleb128 0x1a
 2483 012a 26       		.uleb128 0x26
 2484 012b 00       		.byte	0
 2485 012c 49       		.uleb128 0x49
 2486 012d 13       		.uleb128 0x13
 2487 012e 00       		.byte	0
 2488 012f 00       		.byte	0
 2489 0130 1B       		.uleb128 0x1b
 2490 0131 13       		.uleb128 0x13
 2491 0132 01       		.byte	0x1
 2492 0133 0B       		.uleb128 0xb
 2493 0134 0B       		.uleb128 0xb
 2494 0135 3A       		.uleb128 0x3a
 2495 0136 0B       		.uleb128 0xb
 2496 0137 3B       		.uleb128 0x3b
 2497 0138 0B       		.uleb128 0xb
 2498 0139 01       		.uleb128 0x1
 2499 013a 13       		.uleb128 0x13
 2500 013b 00       		.byte	0
 2501 013c 00       		.byte	0
 2502 013d 1C       		.uleb128 0x1c
 2503 013e 0D       		.uleb128 0xd
 2504 013f 00       		.byte	0
 2505 0140 03       		.uleb128 0x3
 2506 0141 08       		.uleb128 0x8
 2507 0142 3A       		.uleb128 0x3a
 2508 0143 0B       		.uleb128 0xb
ARM GAS  /var/folders/m4/4md61f0s1_g0rzfghffqnxvr0000gn/T//cchTdfYZ.s 			page 45


 2509 0144 3B       		.uleb128 0x3b
 2510 0145 0B       		.uleb128 0xb
 2511 0146 49       		.uleb128 0x49
 2512 0147 13       		.uleb128 0x13
 2513 0148 00       		.byte	0
 2514 0149 00       		.byte	0
 2515 014a 1D       		.uleb128 0x1d
 2516 014b 16       		.uleb128 0x16
 2517 014c 00       		.byte	0
 2518 014d 03       		.uleb128 0x3
 2519 014e 0E       		.uleb128 0xe
 2520 014f 3A       		.uleb128 0x3a
 2521 0150 0B       		.uleb128 0xb
 2522 0151 3B       		.uleb128 0x3b
 2523 0152 05       		.uleb128 0x5
 2524 0153 49       		.uleb128 0x49
 2525 0154 13       		.uleb128 0x13
 2526 0155 00       		.byte	0
 2527 0156 00       		.byte	0
 2528 0157 1E       		.uleb128 0x1e
 2529 0158 13       		.uleb128 0x13
 2530 0159 01       		.byte	0x1
 2531 015a 0B       		.uleb128 0xb
 2532 015b 0B       		.uleb128 0xb
 2533 015c 3A       		.uleb128 0x3a
 2534 015d 0B       		.uleb128 0xb
 2535 015e 3B       		.uleb128 0x3b
 2536 015f 05       		.uleb128 0x5
 2537 0160 6E       		.uleb128 0x6e
 2538 0161 0E       		.uleb128 0xe
 2539 0162 01       		.uleb128 0x1
 2540 0163 13       		.uleb128 0x13
 2541 0164 00       		.byte	0
 2542 0165 00       		.byte	0
 2543 0166 1F       		.uleb128 0x1f
 2544 0167 2E       		.uleb128 0x2e
 2545 0168 01       		.byte	0x1
 2546 0169 3F       		.uleb128 0x3f
 2547 016a 19       		.uleb128 0x19
 2548 016b 03       		.uleb128 0x3
 2549 016c 0E       		.uleb128 0xe
 2550 016d 3A       		.uleb128 0x3a
 2551 016e 0B       		.uleb128 0xb
 2552 016f 3B       		.uleb128 0x3b
 2553 0170 0B       		.uleb128 0xb
 2554 0171 6E       		.uleb128 0x6e
 2555 0172 0E       		.uleb128 0xe
 2556 0173 20       		.uleb128 0x20
 2557 0174 0B       		.uleb128 0xb
 2558 0175 01       		.uleb128 0x1
 2559 0176 13       		.uleb128 0x13
 2560 0177 00       		.byte	0
 2561 0178 00       		.byte	0
 2562 0179 20       		.uleb128 0x20
 2563 017a 05       		.uleb128 0x5
 2564 017b 00       		.byte	0
 2565 017c 03       		.uleb128 0x3
ARM GAS  /var/folders/m4/4md61f0s1_g0rzfghffqnxvr0000gn/T//cchTdfYZ.s 			page 46


 2566 017d 0E       		.uleb128 0xe
 2567 017e 3A       		.uleb128 0x3a
 2568 017f 0B       		.uleb128 0xb
 2569 0180 3B       		.uleb128 0x3b
 2570 0181 0B       		.uleb128 0xb
 2571 0182 49       		.uleb128 0x49
 2572 0183 13       		.uleb128 0x13
 2573 0184 00       		.byte	0
 2574 0185 00       		.byte	0
 2575 0186 21       		.uleb128 0x21
 2576 0187 2E       		.uleb128 0x2e
 2577 0188 01       		.byte	0x1
 2578 0189 3F       		.uleb128 0x3f
 2579 018a 19       		.uleb128 0x19
 2580 018b 03       		.uleb128 0x3
 2581 018c 0E       		.uleb128 0xe
 2582 018d 3A       		.uleb128 0x3a
 2583 018e 0B       		.uleb128 0xb
 2584 018f 3B       		.uleb128 0x3b
 2585 0190 0B       		.uleb128 0xb
 2586 0191 6E       		.uleb128 0x6e
 2587 0192 0E       		.uleb128 0xe
 2588 0193 11       		.uleb128 0x11
 2589 0194 01       		.uleb128 0x1
 2590 0195 12       		.uleb128 0x12
 2591 0196 06       		.uleb128 0x6
 2592 0197 40       		.uleb128 0x40
 2593 0198 18       		.uleb128 0x18
 2594 0199 9642     		.uleb128 0x2116
 2595 019b 19       		.uleb128 0x19
 2596 019c 01       		.uleb128 0x1
 2597 019d 13       		.uleb128 0x13
 2598 019e 00       		.byte	0
 2599 019f 00       		.byte	0
 2600 01a0 22       		.uleb128 0x22
 2601 01a1 05       		.uleb128 0x5
 2602 01a2 00       		.byte	0
 2603 01a3 03       		.uleb128 0x3
 2604 01a4 0E       		.uleb128 0xe
 2605 01a5 3A       		.uleb128 0x3a
 2606 01a6 0B       		.uleb128 0xb
 2607 01a7 3B       		.uleb128 0x3b
 2608 01a8 0B       		.uleb128 0xb
 2609 01a9 49       		.uleb128 0x49
 2610 01aa 13       		.uleb128 0x13
 2611 01ab 02       		.uleb128 0x2
 2612 01ac 17       		.uleb128 0x17
 2613 01ad 00       		.byte	0
 2614 01ae 00       		.byte	0
 2615 01af 23       		.uleb128 0x23
 2616 01b0 34       		.uleb128 0x34
 2617 01b1 00       		.byte	0
 2618 01b2 03       		.uleb128 0x3
 2619 01b3 0E       		.uleb128 0xe
 2620 01b4 3A       		.uleb128 0x3a
 2621 01b5 0B       		.uleb128 0xb
 2622 01b6 3B       		.uleb128 0x3b
ARM GAS  /var/folders/m4/4md61f0s1_g0rzfghffqnxvr0000gn/T//cchTdfYZ.s 			page 47


 2623 01b7 0B       		.uleb128 0xb
 2624 01b8 49       		.uleb128 0x49
 2625 01b9 13       		.uleb128 0x13
 2626 01ba 00       		.byte	0
 2627 01bb 00       		.byte	0
 2628 01bc 24       		.uleb128 0x24
 2629 01bd 898201   		.uleb128 0x4109
 2630 01c0 00       		.byte	0
 2631 01c1 11       		.uleb128 0x11
 2632 01c2 01       		.uleb128 0x1
 2633 01c3 9542     		.uleb128 0x2115
 2634 01c5 19       		.uleb128 0x19
 2635 01c6 31       		.uleb128 0x31
 2636 01c7 13       		.uleb128 0x13
 2637 01c8 00       		.byte	0
 2638 01c9 00       		.byte	0
 2639 01ca 25       		.uleb128 0x25
 2640 01cb 898201   		.uleb128 0x4109
 2641 01ce 01       		.byte	0x1
 2642 01cf 11       		.uleb128 0x11
 2643 01d0 01       		.uleb128 0x1
 2644 01d1 31       		.uleb128 0x31
 2645 01d2 13       		.uleb128 0x13
 2646 01d3 01       		.uleb128 0x1
 2647 01d4 13       		.uleb128 0x13
 2648 01d5 00       		.byte	0
 2649 01d6 00       		.byte	0
 2650 01d7 26       		.uleb128 0x26
 2651 01d8 8A8201   		.uleb128 0x410a
 2652 01db 00       		.byte	0
 2653 01dc 02       		.uleb128 0x2
 2654 01dd 18       		.uleb128 0x18
 2655 01de 9142     		.uleb128 0x2111
 2656 01e0 18       		.uleb128 0x18
 2657 01e1 00       		.byte	0
 2658 01e2 00       		.byte	0
 2659 01e3 27       		.uleb128 0x27
 2660 01e4 898201   		.uleb128 0x4109
 2661 01e7 01       		.byte	0x1
 2662 01e8 11       		.uleb128 0x11
 2663 01e9 01       		.uleb128 0x1
 2664 01ea 9542     		.uleb128 0x2115
 2665 01ec 19       		.uleb128 0x19
 2666 01ed 31       		.uleb128 0x31
 2667 01ee 13       		.uleb128 0x13
 2668 01ef 00       		.byte	0
 2669 01f0 00       		.byte	0
 2670 01f1 28       		.uleb128 0x28
 2671 01f2 2E       		.uleb128 0x2e
 2672 01f3 01       		.byte	0x1
 2673 01f4 3F       		.uleb128 0x3f
 2674 01f5 19       		.uleb128 0x19
 2675 01f6 03       		.uleb128 0x3
 2676 01f7 0E       		.uleb128 0xe
 2677 01f8 3A       		.uleb128 0x3a
 2678 01f9 0B       		.uleb128 0xb
 2679 01fa 3B       		.uleb128 0x3b
ARM GAS  /var/folders/m4/4md61f0s1_g0rzfghffqnxvr0000gn/T//cchTdfYZ.s 			page 48


 2680 01fb 0B       		.uleb128 0xb
 2681 01fc 6E       		.uleb128 0x6e
 2682 01fd 0E       		.uleb128 0xe
 2683 01fe 11       		.uleb128 0x11
 2684 01ff 01       		.uleb128 0x1
 2685 0200 12       		.uleb128 0x12
 2686 0201 06       		.uleb128 0x6
 2687 0202 40       		.uleb128 0x40
 2688 0203 18       		.uleb128 0x18
 2689 0204 9742     		.uleb128 0x2117
 2690 0206 19       		.uleb128 0x19
 2691 0207 01       		.uleb128 0x1
 2692 0208 13       		.uleb128 0x13
 2693 0209 00       		.byte	0
 2694 020a 00       		.byte	0
 2695 020b 29       		.uleb128 0x29
 2696 020c 1D       		.uleb128 0x1d
 2697 020d 01       		.byte	0x1
 2698 020e 31       		.uleb128 0x31
 2699 020f 13       		.uleb128 0x13
 2700 0210 52       		.uleb128 0x52
 2701 0211 01       		.uleb128 0x1
 2702 0212 55       		.uleb128 0x55
 2703 0213 17       		.uleb128 0x17
 2704 0214 58       		.uleb128 0x58
 2705 0215 0B       		.uleb128 0xb
 2706 0216 59       		.uleb128 0x59
 2707 0217 0B       		.uleb128 0xb
 2708 0218 01       		.uleb128 0x1
 2709 0219 13       		.uleb128 0x13
 2710 021a 00       		.byte	0
 2711 021b 00       		.byte	0
 2712 021c 2A       		.uleb128 0x2a
 2713 021d 05       		.uleb128 0x5
 2714 021e 00       		.byte	0
 2715 021f 31       		.uleb128 0x31
 2716 0220 13       		.uleb128 0x13
 2717 0221 1C       		.uleb128 0x1c
 2718 0222 0A       		.uleb128 0xa
 2719 0223 00       		.byte	0
 2720 0224 00       		.byte	0
 2721 0225 2B       		.uleb128 0x2b
 2722 0226 898201   		.uleb128 0x4109
 2723 0229 01       		.byte	0x1
 2724 022a 11       		.uleb128 0x11
 2725 022b 01       		.uleb128 0x1
 2726 022c 31       		.uleb128 0x31
 2727 022d 13       		.uleb128 0x13
 2728 022e 00       		.byte	0
 2729 022f 00       		.byte	0
 2730 0230 2C       		.uleb128 0x2c
 2731 0231 2E       		.uleb128 0x2e
 2732 0232 01       		.byte	0x1
 2733 0233 31       		.uleb128 0x31
 2734 0234 13       		.uleb128 0x13
 2735 0235 6E       		.uleb128 0x6e
 2736 0236 0E       		.uleb128 0xe
ARM GAS  /var/folders/m4/4md61f0s1_g0rzfghffqnxvr0000gn/T//cchTdfYZ.s 			page 49


 2737 0237 11       		.uleb128 0x11
 2738 0238 01       		.uleb128 0x1
 2739 0239 12       		.uleb128 0x12
 2740 023a 06       		.uleb128 0x6
 2741 023b 40       		.uleb128 0x40
 2742 023c 18       		.uleb128 0x18
 2743 023d 9742     		.uleb128 0x2117
 2744 023f 19       		.uleb128 0x19
 2745 0240 01       		.uleb128 0x1
 2746 0241 13       		.uleb128 0x13
 2747 0242 00       		.byte	0
 2748 0243 00       		.byte	0
 2749 0244 2D       		.uleb128 0x2d
 2750 0245 05       		.uleb128 0x5
 2751 0246 00       		.byte	0
 2752 0247 31       		.uleb128 0x31
 2753 0248 13       		.uleb128 0x13
 2754 0249 02       		.uleb128 0x2
 2755 024a 17       		.uleb128 0x17
 2756 024b 00       		.byte	0
 2757 024c 00       		.byte	0
 2758 024d 2E       		.uleb128 0x2e
 2759 024e 34       		.uleb128 0x34
 2760 024f 00       		.byte	0
 2761 0250 03       		.uleb128 0x3
 2762 0251 0E       		.uleb128 0xe
 2763 0252 3A       		.uleb128 0x3a
 2764 0253 0B       		.uleb128 0xb
 2765 0254 3B       		.uleb128 0x3b
 2766 0255 05       		.uleb128 0x5
 2767 0256 49       		.uleb128 0x49
 2768 0257 13       		.uleb128 0x13
 2769 0258 3F       		.uleb128 0x3f
 2770 0259 19       		.uleb128 0x19
 2771 025a 3C       		.uleb128 0x3c
 2772 025b 19       		.uleb128 0x19
 2773 025c 00       		.byte	0
 2774 025d 00       		.byte	0
 2775 025e 2F       		.uleb128 0x2f
 2776 025f 34       		.uleb128 0x34
 2777 0260 00       		.byte	0
 2778 0261 03       		.uleb128 0x3
 2779 0262 08       		.uleb128 0x8
 2780 0263 3A       		.uleb128 0x3a
 2781 0264 0B       		.uleb128 0xb
 2782 0265 3B       		.uleb128 0x3b
 2783 0266 05       		.uleb128 0x5
 2784 0267 49       		.uleb128 0x49
 2785 0268 13       		.uleb128 0x13
 2786 0269 3F       		.uleb128 0x3f
 2787 026a 19       		.uleb128 0x19
 2788 026b 3C       		.uleb128 0x3c
 2789 026c 19       		.uleb128 0x19
 2790 026d 00       		.byte	0
 2791 026e 00       		.byte	0
 2792 026f 30       		.uleb128 0x30
 2793 0270 34       		.uleb128 0x34
ARM GAS  /var/folders/m4/4md61f0s1_g0rzfghffqnxvr0000gn/T//cchTdfYZ.s 			page 50


 2794 0271 00       		.byte	0
 2795 0272 03       		.uleb128 0x3
 2796 0273 0E       		.uleb128 0xe
 2797 0274 3A       		.uleb128 0x3a
 2798 0275 0B       		.uleb128 0xb
 2799 0276 3B       		.uleb128 0x3b
 2800 0277 0B       		.uleb128 0xb
 2801 0278 49       		.uleb128 0x49
 2802 0279 13       		.uleb128 0x13
 2803 027a 02       		.uleb128 0x2
 2804 027b 18       		.uleb128 0x18
 2805 027c 00       		.byte	0
 2806 027d 00       		.byte	0
 2807 027e 31       		.uleb128 0x31
 2808 027f 2E       		.uleb128 0x2e
 2809 0280 00       		.byte	0
 2810 0281 3F       		.uleb128 0x3f
 2811 0282 19       		.uleb128 0x19
 2812 0283 3C       		.uleb128 0x3c
 2813 0284 19       		.uleb128 0x19
 2814 0285 6E       		.uleb128 0x6e
 2815 0286 0E       		.uleb128 0xe
 2816 0287 03       		.uleb128 0x3
 2817 0288 0E       		.uleb128 0xe
 2818 0289 3A       		.uleb128 0x3a
 2819 028a 0B       		.uleb128 0xb
 2820 028b 3B       		.uleb128 0x3b
 2821 028c 05       		.uleb128 0x5
 2822 028d 00       		.byte	0
 2823 028e 00       		.byte	0
 2824 028f 00       		.byte	0
 2825              		.section	.debug_loc,"",%progbits
 2826              	.Ldebug_loc0:
 2827              	.LLST0:
 2828 0000 00000000 		.4byte	.LVL0
 2829 0004 10000000 		.4byte	.LVL1
 2830 0008 0100     		.2byte	0x1
 2831 000a 50       		.byte	0x50
 2832 000b 10000000 		.4byte	.LVL1
 2833 000f B8000000 		.4byte	.LFE269
 2834 0013 0400     		.2byte	0x4
 2835 0015 F3       		.byte	0xf3
 2836 0016 01       		.uleb128 0x1
 2837 0017 50       		.byte	0x50
 2838 0018 9F       		.byte	0x9f
 2839 0019 00000000 		.4byte	0
 2840 001d 00000000 		.4byte	0
 2841              	.LLST1:
 2842 0021 00000000 		.4byte	.LVL0
 2843 0025 15000000 		.4byte	.LVL2-1
 2844 0029 0800     		.2byte	0x8
 2845 002b 90       		.byte	0x90
 2846 002c 40       		.uleb128 0x40
 2847 002d 93       		.byte	0x93
 2848 002e 04       		.uleb128 0x4
 2849 002f 90       		.byte	0x90
 2850 0030 41       		.uleb128 0x41
ARM GAS  /var/folders/m4/4md61f0s1_g0rzfghffqnxvr0000gn/T//cchTdfYZ.s 			page 51


 2851 0031 93       		.byte	0x93
 2852 0032 04       		.uleb128 0x4
 2853 0033 15000000 		.4byte	.LVL2-1
 2854 0037 2A000000 		.4byte	.LVL4
 2855 003b 0600     		.2byte	0x6
 2856 003d 56       		.byte	0x56
 2857 003e 93       		.byte	0x93
 2858 003f 04       		.uleb128 0x4
 2859 0040 57       		.byte	0x57
 2860 0041 93       		.byte	0x93
 2861 0042 04       		.uleb128 0x4
 2862 0043 78000000 		.4byte	.LVL9
 2863 0047 7C000000 		.4byte	.LVL10
 2864 004b 0600     		.2byte	0x6
 2865 004d 56       		.byte	0x56
 2866 004e 93       		.byte	0x93
 2867 004f 04       		.uleb128 0x4
 2868 0050 57       		.byte	0x57
 2869 0051 93       		.byte	0x93
 2870 0052 04       		.uleb128 0x4
 2871 0053 80000000 		.4byte	.LVL11
 2872 0057 B8000000 		.4byte	.LFE269
 2873 005b 0600     		.2byte	0x6
 2874 005d 56       		.byte	0x56
 2875 005e 93       		.byte	0x93
 2876 005f 04       		.uleb128 0x4
 2877 0060 57       		.byte	0x57
 2878 0061 93       		.byte	0x93
 2879 0062 04       		.uleb128 0x4
 2880 0063 00000000 		.4byte	0
 2881 0067 00000000 		.4byte	0
 2882              	.LLST2:
 2883 006b 00000000 		.4byte	.LVL26
 2884 006f 05000000 		.4byte	.LVL27-1
 2885 0073 0800     		.2byte	0x8
 2886 0075 90       		.byte	0x90
 2887 0076 40       		.uleb128 0x40
 2888 0077 93       		.byte	0x93
 2889 0078 04       		.uleb128 0x4
 2890 0079 90       		.byte	0x90
 2891 007a 41       		.uleb128 0x41
 2892 007b 93       		.byte	0x93
 2893 007c 04       		.uleb128 0x4
 2894 007d 05000000 		.4byte	.LVL27-1
 2895 0081 06000000 		.4byte	.LFE270
 2896 0085 0600     		.2byte	0x6
 2897 0087 F3       		.byte	0xf3
 2898 0088 03       		.uleb128 0x3
 2899 0089 F5       		.byte	0xf5
 2900 008a 40       		.uleb128 0x40
 2901 008b 25       		.uleb128 0x25
 2902 008c 9F       		.byte	0x9f
 2903 008d 00000000 		.4byte	0
 2904 0091 00000000 		.4byte	0
 2905              		.section	.debug_aranges,"",%progbits
 2906 0000 2C000000 		.4byte	0x2c
 2907 0004 0200     		.2byte	0x2
ARM GAS  /var/folders/m4/4md61f0s1_g0rzfghffqnxvr0000gn/T//cchTdfYZ.s 			page 52


 2908 0006 00000000 		.4byte	.Ldebug_info0
 2909 000a 04       		.byte	0x4
 2910 000b 00       		.byte	0
 2911 000c 0000     		.2byte	0
 2912 000e 0000     		.2byte	0
 2913 0010 00000000 		.4byte	.LFB269
 2914 0014 B8000000 		.4byte	.LFE269-.LFB269
 2915 0018 00000000 		.4byte	.LFB268
 2916 001c A8000000 		.4byte	.LFE268-.LFB268
 2917 0020 00000000 		.4byte	.LFB270
 2918 0024 06000000 		.4byte	.LFE270-.LFB270
 2919 0028 00000000 		.4byte	0
 2920 002c 00000000 		.4byte	0
 2921              		.section	.debug_ranges,"",%progbits
 2922              	.Ldebug_ranges0:
 2923 0000 7E000000 		.4byte	.LBB4
 2924 0004 84000000 		.4byte	.LBE4
 2925 0008 88000000 		.4byte	.LBB7
 2926 000c A8000000 		.4byte	.LBE7
 2927 0010 00000000 		.4byte	0
 2928 0014 00000000 		.4byte	0
 2929 0018 00000000 		.4byte	.LFB269
 2930 001c B8000000 		.4byte	.LFE269
 2931 0020 00000000 		.4byte	.LFB268
 2932 0024 A8000000 		.4byte	.LFE268
 2933 0028 00000000 		.4byte	.LFB270
 2934 002c 06000000 		.4byte	.LFE270
 2935 0030 00000000 		.4byte	0
 2936 0034 00000000 		.4byte	0
 2937              		.section	.debug_line,"",%progbits
 2938              	.Ldebug_line0:
 2939 0000 18040000 		.section	.debug_str,"MS",%progbits,1
 2939      0200A803 
 2939      00000201 
 2939      FB0E0D00 
 2939      01010101 
 2940              	.LASF180:
 2941 0000 2F557365 		.ascii	"/Users/raphael/Documents/pcb-quadrotor/code\000"
 2941      72732F72 
 2941      61706861 
 2941      656C2F44 
 2941      6F63756D 
 2942              	.LASF169:
 2943 002c 6573635F 		.ascii	"esc_set\000"
 2943      73657400 
 2944              	.LASF155:
 2945 0034 70776D63 		.ascii	"pwmchannel_t\000"
 2945      68616E6E 
 2945      656C5F74 
 2945      00
 2946              	.LASF63:
 2947 0041 72656164 		.ascii	"ready_list_t\000"
 2947      795F6C69 
 2947      73745F74 
 2947      00
 2948              	.LASF145:
 2949 004e 44494552 		.ascii	"DIER\000"
ARM GAS  /var/folders/m4/4md61f0s1_g0rzfghffqnxvr0000gn/T//cchTdfYZ.s 			page 53


 2949      00
 2950              	.LASF99:
 2951 0053 31314572 		.ascii	"11ErrorStatus\000"
 2951      726F7253 
 2951      74617475 
 2951      7300
 2952              	.LASF5:
 2953 0061 73697A65 		.ascii	"size_t\000"
 2953      5F7400
 2954              	.LASF163:
 2955 0068 3950574D 		.ascii	"9PWMConfig\000"
 2955      436F6E66 
 2955      696700
 2956              	.LASF93:
 2957 0073 466C6167 		.ascii	"FlagStatus\000"
 2957      53746174 
 2957      757300
 2958              	.LASF178:
 2959 007e 474E5520 		.ascii	"GNU C++11 5.2.1 20151202 (release) [ARM/embedded-5-"
 2959      432B2B31 
 2959      3120352E 
 2959      322E3120 
 2959      32303135 
 2960 00b1 6272616E 		.ascii	"branch revision 231848] -mcpu=cortex-m4 -mfloat-abi"
 2960      63682072 
 2960      65766973 
 2960      696F6E20 
 2960      32333138 
 2961 00e4 3D686172 		.ascii	"=hard -mfpu=fpv4-sp-d16 -mno-thumb-interwork -mthum"
 2961      64202D6D 
 2961      6670753D 
 2961      66707634 
 2961      2D73702D 
 2962 0117 62202D67 		.ascii	"b -ggdb -O2 -std=c++11 -fomit-frame-pointer -falign"
 2962      67646220 
 2962      2D4F3220 
 2962      2D737464 
 2962      3D632B2B 
 2963 014a 2D66756E 		.ascii	"-functions=16 -ffunction-sections -fdata-sections -"
 2963      6374696F 
 2963      6E733D31 
 2963      36202D66 
 2963      66756E63 
 2964 017d 666E6F2D 		.ascii	"fno-common -fno-rtti -fno-exceptions\000"
 2964      636F6D6D 
 2964      6F6E202D 
 2964      666E6F2D 
 2964      72747469 
 2965              	.LASF158:
 2966 01a2 31317374 		.ascii	"11stm32_tim_t\000"
 2966      6D33325F 
 2966      74696D5F 
 2966      7400
 2967              	.LASF122:
 2968 01b0 4F545950 		.ascii	"OTYPER\000"
 2968      455200
 2969              	.LASF6:
ARM GAS  /var/folders/m4/4md61f0s1_g0rzfghffqnxvr0000gn/T//cchTdfYZ.s 			page 54


 2970 01b7 5F5F7569 		.ascii	"__uint8_t\000"
 2970      6E74385F 
 2970      7400
 2971              	.LASF105:
 2972 01c1 706F7274 		.ascii	"port_intctx\000"
 2972      5F696E74 
 2972      63747800 
 2973              	.LASF88:
 2974 01cd 76746C69 		.ascii	"vtlist\000"
 2974      737400
 2975              	.LASF151:
 2976 01d4 43434D52 		.ascii	"CCMR3\000"
 2976      3300
 2977              	.LASF130:
 2978 01da 696F706F 		.ascii	"ioportmask_t\000"
 2978      72746D61 
 2978      736B5F74 
 2978      00
 2979              	.LASF139:
 2980 01e7 70657269 		.ascii	"period\000"
 2980      6F6400
 2981              	.LASF96:
 2982 01ee 44495341 		.ascii	"DISABLE\000"
 2982      424C4500 
 2983              	.LASF15:
 2984 01f6 6C6F6E67 		.ascii	"long long unsigned int\000"
 2984      206C6F6E 
 2984      6720756E 
 2984      7369676E 
 2984      65642069 
 2985              	.LASF89:
 2986 020d 6D61696E 		.ascii	"mainthread\000"
 2986      74687265 
 2986      616400
 2987              	.LASF79:
 2988 0218 76697274 		.ascii	"virtual_timers_list_t\000"
 2988      75616C5F 
 2988      74696D65 
 2988      72735F6C 
 2988      6973745F 
 2989              	.LASF173:
 2990 022e 49544D5F 		.ascii	"ITM_RxBuffer\000"
 2990      52784275 
 2990      66666572 
 2990      00
 2991              	.LASF149:
 2992 023b 42445452 		.ascii	"BDTR\000"
 2992      00
 2993              	.LASF62:
 2994 0240 63685F74 		.ascii	"ch_threads_queue\000"
 2994      68726561 
 2994      64735F71 
 2994      75657565 
 2994      00
 2995              	.LASF112:
 2996 0251 6D5F7175 		.ascii	"m_queue\000"
 2996      65756500 
ARM GAS  /var/folders/m4/4md61f0s1_g0rzfghffqnxvr0000gn/T//cchTdfYZ.s 			page 55


 2997              	.LASF40:
 2998 0259 705F7072 		.ascii	"p_prio\000"
 2998      696F00
 2999              	.LASF134:
 3000 0260 50574D5F 		.ascii	"PWM_READY\000"
 3000      52454144 
 3000      5900
 3001              	.LASF176:
 3002 026a 70776D53 		.ascii	"pwmStart\000"
 3002      74617274 
 3002      00
 3003              	.LASF146:
 3004 0273 43434D52 		.ascii	"CCMR1\000"
 3004      3100
 3005              	.LASF147:
 3006 0279 43434D52 		.ascii	"CCMR2\000"
 3006      3200
 3007              	.LASF2:
 3008 027f 6C6F6E67 		.ascii	"long long int\000"
 3008      206C6F6E 
 3008      6720696E 
 3008      7400
 3009              	.LASF4:
 3010 028d 7369676E 		.ascii	"signed char\000"
 3010      65642063 
 3010      68617200 
 3011              	.LASF125:
 3012 0299 42535252 		.ascii	"BSRR\000"
 3012      00
 3013              	.LASF153:
 3014 029e 73746D33 		.ascii	"stm32_tim_t\000"
 3014      325F7469 
 3014      6D5F7400 
 3015              	.LASF14:
 3016 02aa 6C6F6E67 		.ascii	"long unsigned int\000"
 3016      20756E73 
 3016      69676E65 
 3016      6420696E 
 3016      7400
 3017              	.LASF56:
 3018 02bc 705F6D70 		.ascii	"p_mpool\000"
 3018      6F6F6C00 
 3019              	.LASF154:
 3020 02c4 70776D6D 		.ascii	"pwmmode_t\000"
 3020      6F64655F 
 3020      7400
 3021              	.LASF33:
 3022 02ce 77746F62 		.ascii	"wtobjp\000"
 3022      6A7000
 3023              	.LASF24:
 3024 02d5 74736C69 		.ascii	"tslices_t\000"
 3024      6365735F 
 3024      7400
 3025              	.LASF174:
 3026 02df 50574D44 		.ascii	"PWMD5\000"
 3026      3500
 3027              	.LASF124:
ARM GAS  /var/folders/m4/4md61f0s1_g0rzfghffqnxvr0000gn/T//cchTdfYZ.s 			page 56


 3028 02e5 50555044 		.ascii	"PUPDR\000"
 3028      5200
 3029              	.LASF137:
 3030 02eb 73746174 		.ascii	"state\000"
 3030      6500
 3031              	.LASF86:
 3032 02f1 63685F73 		.ascii	"ch_system\000"
 3032      79737465 
 3032      6D00
 3033              	.LASF12:
 3034 02fb 6C6F6E67 		.ascii	"long int\000"
 3034      20696E74 
 3034      00
 3035              	.LASF97:
 3036 0304 454E4142 		.ascii	"ENABLE\000"
 3036      4C4500
 3037              	.LASF22:
 3038 030b 74737461 		.ascii	"tstate_t\000"
 3038      74655F74 
 3038      00
 3039              	.LASF17:
 3040 0314 75696E74 		.ascii	"uint16_t\000"
 3040      31365F74 
 3040      00
 3041              	.LASF95:
 3042 031d 31354675 		.ascii	"15FunctionalState\000"
 3042      6E637469 
 3042      6F6E616C 
 3042      53746174 
 3042      6500
 3043              	.LASF42:
 3044 032f 705F6E65 		.ascii	"p_newer\000"
 3044      77657200 
 3045              	.LASF109:
 3046 0337 735F7175 		.ascii	"s_queue\000"
 3046      65756500 
 3047              	.LASF170:
 3048 033f 6573635F 		.ascii	"esc_init\000"
 3048      696E6974 
 3048      00
 3049              	.LASF32:
 3050 0348 65786974 		.ascii	"exitcode\000"
 3050      636F6465 
 3050      00
 3051              	.LASF123:
 3052 0351 4F535045 		.ascii	"OSPEEDR\000"
 3052      45445200 
 3053              	.LASF68:
 3054 0359 725F6E65 		.ascii	"r_newer\000"
 3054      77657200 
 3055              	.LASF102:
 3056 0361 4572726F 		.ascii	"ErrorStatus\000"
 3056      72537461 
 3056      74757300 
 3057              	.LASF75:
 3058 036d 76745F70 		.ascii	"vt_prev\000"
 3058      72657600 
ARM GAS  /var/folders/m4/4md61f0s1_g0rzfghffqnxvr0000gn/T//cchTdfYZ.s 			page 57


 3059              	.LASF131:
 3060 0375 31307077 		.ascii	"10pwmstate_t\000"
 3060      6D737461 
 3060      74655F74 
 3060      00
 3061              	.LASF129:
 3062 0382 73746D33 		.ascii	"stm32_gpio_t\000"
 3062      325F6770 
 3062      696F5F74 
 3062      00
 3063              	.LASF116:
 3064 038f 6D757465 		.ascii	"mutex_t\000"
 3064      785F7400 
 3065              	.LASF90:
 3066 0397 69646C65 		.ascii	"idle_thread_wa\000"
 3066      5F746872 
 3066      6561645F 
 3066      776100
 3067              	.LASF28:
 3068 03a6 636E745F 		.ascii	"cnt_t\000"
 3068      7400
 3069              	.LASF1:
 3070 03ac 756E7369 		.ascii	"unsigned int\000"
 3070      676E6564 
 3070      20696E74 
 3070      00
 3071              	.LASF74:
 3072 03b9 76745F6E 		.ascii	"vt_next\000"
 3072      65787400 
 3073              	.LASF49:
 3074 03c1 705F7469 		.ascii	"p_time\000"
 3074      6D6500
 3075              	.LASF35:
 3076 03c8 77747365 		.ascii	"wtsemp\000"
 3076      6D7000
 3077              	.LASF76:
 3078 03cf 76745F64 		.ascii	"vt_delta\000"
 3078      656C7461 
 3078      00
 3079              	.LASF82:
 3080 03d8 73797374 		.ascii	"system_debug_t\000"
 3080      656D5F64 
 3080      65627567 
 3080      5F7400
 3081              	.LASF59:
 3082 03e7 63685F74 		.ascii	"ch_thread\000"
 3082      68726561 
 3082      6400
 3083              	.LASF126:
 3084 03f1 4C434B52 		.ascii	"LCKR\000"
 3084      00
 3085              	.LASF110:
 3086 03f6 735F636E 		.ascii	"s_cnt\000"
 3086      7400
 3087              	.LASF104:
 3088 03fc 636F6E74 		.ascii	"context\000"
 3088      65787400 
ARM GAS  /var/folders/m4/4md61f0s1_g0rzfghffqnxvr0000gn/T//cchTdfYZ.s 			page 58


 3089              	.LASF10:
 3090 0404 73686F72 		.ascii	"short unsigned int\000"
 3090      7420756E 
 3090      7369676E 
 3090      65642069 
 3090      6E7400
 3091              	.LASF26:
 3092 0417 6D73675F 		.ascii	"msg_t\000"
 3092      7400
 3093              	.LASF171:
 3094 041d 5F5A3765 		.ascii	"_Z7esc_sethd\000"
 3094      73635F73 
 3094      65746864 
 3094      00
 3095              	.LASF164:
 3096 042a 66726571 		.ascii	"frequency\000"
 3096      75656E63 
 3096      7900
 3097              	.LASF94:
 3098 0434 3130466C 		.ascii	"10FlagStatus\000"
 3098      61675374 
 3098      61747573 
 3098      00
 3099              	.LASF85:
 3100 0441 63685F73 		.ascii	"ch_system_t\000"
 3100      79737465 
 3100      6D5F7400 
 3101              	.LASF161:
 3102 044d 63616C6C 		.ascii	"callback\000"
 3102      6261636B 
 3102      00
 3103              	.LASF21:
 3104 0456 746D6F64 		.ascii	"tmode_t\000"
 3104      655F7400 
 3105              	.LASF117:
 3106 045e 626F6F6C 		.ascii	"bool\000"
 3106      00
 3107              	.LASF64:
 3108 0463 63685F72 		.ascii	"ch_ready_list\000"
 3108      65616479 
 3108      5F6C6973 
 3108      7400
 3109              	.LASF27:
 3110 0471 6576656E 		.ascii	"eventmask_t\000"
 3110      746D6173 
 3110      6B5F7400 
 3111              	.LASF11:
 3112 047d 5F5F696E 		.ascii	"__int32_t\000"
 3112      7433325F 
 3112      7400
 3113              	.LASF181:
 3114 0487 6465636C 		.ascii	"decltype(nullptr)\000"
 3114      74797065 
 3114      286E756C 
 3114      6C707472 
 3114      2900
 3115              	.LASF119:
ARM GAS  /var/folders/m4/4md61f0s1_g0rzfghffqnxvr0000gn/T//cchTdfYZ.s 			page 59


 3116 0499 31327374 		.ascii	"12stm32_gpio_t\000"
 3116      6D33325F 
 3116      6770696F 
 3116      5F7400
 3117              	.LASF20:
 3118 04a8 7274636E 		.ascii	"rtcnt_t\000"
 3118      745F7400 
 3119              	.LASF57:
 3120 04b0 74687265 		.ascii	"thread_reference_t\000"
 3120      61645F72 
 3120      65666572 
 3120      656E6365 
 3120      5F7400
 3121              	.LASF80:
 3122 04c3 63685F76 		.ascii	"ch_virtual_timers_list\000"
 3122      69727475 
 3122      616C5F74 
 3122      696D6572 
 3122      735F6C69 
 3123              	.LASF120:
 3124 04da 636C6561 		.ascii	"clear\000"
 3124      7200
 3125              	.LASF100:
 3126 04e0 4552524F 		.ascii	"ERROR\000"
 3126      5200
 3127              	.LASF168:
 3128 04e6 64757479 		.ascii	"duty_cycle\000"
 3128      5F637963 
 3128      6C6500
 3129              	.LASF65:
 3130 04f1 725F7175 		.ascii	"r_queue\000"
 3130      65756500 
 3131              	.LASF107:
 3132 04f9 746D5F63 		.ascii	"tm_calibration_t\000"
 3132      616C6962 
 3132      72617469 
 3132      6F6E5F74 
 3132      00
 3133              	.LASF43:
 3134 050a 705F6F6C 		.ascii	"p_older\000"
 3134      64657200 
 3135              	.LASF67:
 3136 0512 725F6374 		.ascii	"r_ctx\000"
 3136      7800
 3137              	.LASF98:
 3138 0518 46756E63 		.ascii	"FunctionalState\000"
 3138      74696F6E 
 3138      616C5374 
 3138      61746500 
 3139              	.LASF77:
 3140 0528 76745F66 		.ascii	"vt_func\000"
 3140      756E6300 
 3141              	.LASF70:
 3142 0530 725F6375 		.ascii	"r_current\000"
 3142      7272656E 
 3142      7400
 3143              	.LASF69:
ARM GAS  /var/folders/m4/4md61f0s1_g0rzfghffqnxvr0000gn/T//cchTdfYZ.s 			page 60


 3144 053a 725F6F6C 		.ascii	"r_older\000"
 3144      64657200 
 3145              	.LASF150:
 3146 0542 444D4152 		.ascii	"DMAR\000"
 3146      00
 3147              	.LASF128:
 3148 0547 41465248 		.ascii	"AFRH\000"
 3148      00
 3149              	.LASF127:
 3150 054c 4146524C 		.ascii	"AFRL\000"
 3150      00
 3151              	.LASF143:
 3152 0551 70776D63 		.ascii	"pwmcallback_t\000"
 3152      616C6C62 
 3152      61636B5F 
 3152      7400
 3153              	.LASF23:
 3154 055f 74726566 		.ascii	"trefs_t\000"
 3154      735F7400 
 3155              	.LASF72:
 3156 0567 76697274 		.ascii	"virtual_timer_t\000"
 3156      75616C5F 
 3156      74696D65 
 3156      725F7400 
 3157              	.LASF39:
 3158 0577 705F7072 		.ascii	"p_prev\000"
 3158      657600
 3159              	.LASF182:
 3160 057e 6573635F 		.ascii	"esc_set_all\000"
 3160      7365745F 
 3160      616C6C00 
 3161              	.LASF92:
 3162 058a 52455345 		.ascii	"RESET\000"
 3162      5400
 3163              	.LASF25:
 3164 0590 74707269 		.ascii	"tprio_t\000"
 3164      6F5F7400 
 3165              	.LASF141:
 3166 0598 6368616E 		.ascii	"channels\000"
 3166      6E656C73 
 3166      00
 3167              	.LASF83:
 3168 05a1 63685F73 		.ascii	"ch_system_debug\000"
 3168      79737465 
 3168      6D5F6465 
 3168      62756700 
 3169              	.LASF18:
 3170 05b1 696E7433 		.ascii	"int32_t\000"
 3170      325F7400 
 3171              	.LASF7:
 3172 05b9 756E7369 		.ascii	"unsigned char\000"
 3172      676E6564 
 3172      20636861 
 3172      7200
 3173              	.LASF159:
 3174 05c7 31365057 		.ascii	"16PWMChannelConfig\000"
 3174      4D436861 
ARM GAS  /var/folders/m4/4md61f0s1_g0rzfghffqnxvr0000gn/T//cchTdfYZ.s 			page 61


 3174      6E6E656C 
 3174      436F6E66 
 3174      696700
 3175              	.LASF54:
 3176 05da 705F6D74 		.ascii	"p_mtxlist\000"
 3176      786C6973 
 3176      7400
 3177              	.LASF8:
 3178 05e4 73686F72 		.ascii	"short int\000"
 3178      7420696E 
 3178      7400
 3179              	.LASF45:
 3180 05ee 705F7374 		.ascii	"p_state\000"
 3180      61746500 
 3181              	.LASF184:
 3182 05f6 636E745F 		.ascii	"cnt_val\000"
 3182      76616C00 
 3183              	.LASF48:
 3184 05fe 705F7072 		.ascii	"p_preempt\000"
 3184      65656D70 
 3184      7400
 3185              	.LASF34:
 3186 0608 77747472 		.ascii	"wttrp\000"
 3186      7000
 3187              	.LASF66:
 3188 060e 725F7072 		.ascii	"r_prio\000"
 3188      696F00
 3189              	.LASF37:
 3190 0615 65776D61 		.ascii	"ewmask\000"
 3190      736B00
 3191              	.LASF38:
 3192 061c 705F6E65 		.ascii	"p_next\000"
 3192      787400
 3193              	.LASF156:
 3194 0623 70776D63 		.ascii	"pwmchnmsk_t\000"
 3194      686E6D73 
 3194      6B5F7400 
 3195              	.LASF46:
 3196 062f 705F666C 		.ascii	"p_flags\000"
 3196      61677300 
 3197              	.LASF167:
 3198 0637 6368616E 		.ascii	"channel\000"
 3198      6E656C00 
 3199              	.LASF73:
 3200 063f 63685F76 		.ascii	"ch_virtual_timer\000"
 3200      69727475 
 3200      616C5F74 
 3200      696D6572 
 3200      00
 3201              	.LASF108:
 3202 0650 63685F73 		.ascii	"ch_semaphore\000"
 3202      656D6170 
 3202      686F7265 
 3202      00
 3203              	.LASF152:
 3204 065d 43435852 		.ascii	"CCXR\000"
 3204      00
ARM GAS  /var/folders/m4/4md61f0s1_g0rzfghffqnxvr0000gn/T//cchTdfYZ.s 			page 62


 3205              	.LASF53:
 3206 0662 705F6570 		.ascii	"p_epending\000"
 3206      656E6469 
 3206      6E6700
 3207              	.LASF179:
 3208 066d 6573632E 		.ascii	"esc.cpp\000"
 3208      63707000 
 3209              	.LASF19:
 3210 0675 75696E74 		.ascii	"uint32_t\000"
 3210      33325F74 
 3210      00
 3211              	.LASF103:
 3212 067e 72656761 		.ascii	"regarm_t\000"
 3212      726D5F74 
 3212      00
 3213              	.LASF172:
 3214 0687 5F5A3865 		.ascii	"_Z8esc_initv\000"
 3214      73635F69 
 3214      6E697476 
 3214      00
 3215              	.LASF81:
 3216 0694 76745F73 		.ascii	"vt_systime\000"
 3216      79737469 
 3216      6D6500
 3217              	.LASF166:
 3218 069f 50574D43 		.ascii	"PWMConfig\000"
 3218      6F6E6669 
 3218      6700
 3219              	.LASF60:
 3220 06a9 63685F74 		.ascii	"ch_threads_list\000"
 3220      68726561 
 3220      64735F6C 
 3220      69737400 
 3221              	.LASF3:
 3222 06b9 6C6F6E67 		.ascii	"long double\000"
 3222      20646F75 
 3222      626C6500 
 3223              	.LASF133:
 3224 06c5 50574D5F 		.ascii	"PWM_STOP\000"
 3224      53544F50 
 3224      00
 3225              	.LASF115:
 3226 06ce 63686172 		.ascii	"char\000"
 3226      00
 3227              	.LASF160:
 3228 06d3 6D6F6465 		.ascii	"mode\000"
 3228      00
 3229              	.LASF144:
 3230 06d8 534D4352 		.ascii	"SMCR\000"
 3230      00
 3231              	.LASF138:
 3232 06dd 636F6E66 		.ascii	"config\000"
 3232      696700
 3233              	.LASF9:
 3234 06e4 5F5F7569 		.ascii	"__uint16_t\000"
 3234      6E743136 
 3234      5F7400
ARM GAS  /var/folders/m4/4md61f0s1_g0rzfghffqnxvr0000gn/T//cchTdfYZ.s 			page 63


 3235              	.LASF118:
 3236 06ef 3136746D 		.ascii	"16tm_calibration_t\000"
 3236      5F63616C 
 3236      69627261 
 3236      74696F6E 
 3236      5F7400
 3237              	.LASF148:
 3238 0702 43434552 		.ascii	"CCER\000"
 3238      00
 3239              	.LASF114:
 3240 0707 6D5F6E65 		.ascii	"m_next\000"
 3240      787400
 3241              	.LASF29:
 3242 070e 73797374 		.ascii	"systime_t\000"
 3242      696D655F 
 3242      7400
 3243              	.LASF55:
 3244 0718 705F7265 		.ascii	"p_realprio\000"
 3244      616C7072 
 3244      696F00
 3245              	.LASF71:
 3246 0723 76746675 		.ascii	"vtfunc_t\000"
 3246      6E635F74 
 3246      00
 3247              	.LASF13:
 3248 072c 5F5F7569 		.ascii	"__uint32_t\000"
 3248      6E743332 
 3248      5F7400
 3249              	.LASF36:
 3250 0737 77746D74 		.ascii	"wtmtxp\000"
 3250      787000
 3251              	.LASF84:
 3252 073e 70616E69 		.ascii	"panic_msg\000"
 3252      635F6D73 
 3252      6700
 3253              	.LASF106:
 3254 0748 6F666673 		.ascii	"offset\000"
 3254      657400
 3255              	.LASF121:
 3256 074f 4D4F4445 		.ascii	"MODER\000"
 3256      5200
 3257              	.LASF140:
 3258 0755 656E6162 		.ascii	"enabled\000"
 3258      6C656400 
 3259              	.LASF177:
 3260 075d 5F70616C 		.ascii	"_pal_lld_setgroupmode\000"
 3260      5F6C6C64 
 3260      5F736574 
 3260      67726F75 
 3260      706D6F64 
 3261              	.LASF162:
 3262 0773 50574D43 		.ascii	"PWMChannelConfig\000"
 3262      68616E6E 
 3262      656C436F 
 3262      6E666967 
 3262      00
 3263              	.LASF51:
ARM GAS  /var/folders/m4/4md61f0s1_g0rzfghffqnxvr0000gn/T//cchTdfYZ.s 			page 64


 3264 0784 705F6D73 		.ascii	"p_msgqueue\000"
 3264      67717565 
 3264      756500
 3265              	.LASF185:
 3266 078f 70776D63 		.ascii	"pwmcfg\000"
 3266      666700
 3267              	.LASF78:
 3268 0796 76745F70 		.ascii	"vt_par\000"
 3268      617200
 3269              	.LASF183:
 3270 079d 5F5A3131 		.ascii	"_Z11esc_set_alld\000"
 3270      6573635F 
 3270      7365745F 
 3270      616C6C64 
 3270      00
 3271              	.LASF61:
 3272 07ae 74687265 		.ascii	"threads_queue_t\000"
 3272      6164735F 
 3272      71756575 
 3272      655F7400 
 3273              	.LASF31:
 3274 07be 7264796D 		.ascii	"rdymsg\000"
 3274      736700
 3275              	.LASF47:
 3276 07c5 705F7265 		.ascii	"p_refs\000"
 3276      667300
 3277              	.LASF30:
 3278 07cc 74687265 		.ascii	"thread_t\000"
 3278      61645F74 
 3278      00
 3279              	.LASF87:
 3280 07d5 726C6973 		.ascii	"rlist\000"
 3280      7400
 3281              	.LASF16:
 3282 07db 75696E74 		.ascii	"uint8_t\000"
 3282      385F7400 
 3283              	.LASF136:
 3284 07e3 50574D44 		.ascii	"PWMDriver\000"
 3284      72697665 
 3284      7200
 3285              	.LASF101:
 3286 07ed 53554343 		.ascii	"SUCCESS\000"
 3286      45535300 
 3287              	.LASF135:
 3288 07f5 70776D73 		.ascii	"pwmstate_t\000"
 3288      74617465 
 3288      5F7400
 3289              	.LASF91:
 3290 0800 73697A65 		.ascii	"sizetype\000"
 3290      74797065 
 3290      00
 3291              	.LASF157:
 3292 0809 70776D63 		.ascii	"pwmcnt_t\000"
 3292      6E745F74 
 3292      00
 3293              	.LASF111:
 3294 0812 63685F6D 		.ascii	"ch_mutex\000"
ARM GAS  /var/folders/m4/4md61f0s1_g0rzfghffqnxvr0000gn/T//cchTdfYZ.s 			page 65


 3294      75746578 
 3294      00
 3295              	.LASF44:
 3296 081b 705F6E61 		.ascii	"p_name\000"
 3296      6D6500
 3297              	.LASF175:
 3298 0822 70776D45 		.ascii	"pwmEnableChannel\000"
 3298      6E61626C 
 3298      65436861 
 3298      6E6E656C 
 3298      00
 3299              	.LASF58:
 3300 0833 74687265 		.ascii	"threads_list_t\000"
 3300      6164735F 
 3300      6C697374 
 3300      5F7400
 3301              	.LASF142:
 3302 0842 636C6F63 		.ascii	"clock\000"
 3302      6B00
 3303              	.LASF52:
 3304 0848 705F6D73 		.ascii	"p_msg\000"
 3304      6700
 3305              	.LASF132:
 3306 084e 50574D5F 		.ascii	"PWM_UNINIT\000"
 3306      554E494E 
 3306      495400
 3307              	.LASF113:
 3308 0859 6D5F6F77 		.ascii	"m_owner\000"
 3308      6E657200 
 3309              	.LASF0:
 3310 0861 646F7562 		.ascii	"double\000"
 3310      6C6500
 3311              	.LASF41:
 3312 0868 705F6374 		.ascii	"p_ctx\000"
 3312      7800
 3313              	.LASF50:
 3314 086e 705F7761 		.ascii	"p_waiting\000"
 3314      6974696E 
 3314      6700
 3315              	.LASF165:
 3316 0878 64696572 		.ascii	"dier\000"
 3316      00
 3317              		.ident	"GCC: (GNU Tools for ARM Embedded Processors) 5.2.1 20151202 (release) [ARM/embedded-5-bran
ARM GAS  /var/folders/m4/4md61f0s1_g0rzfghffqnxvr0000gn/T//cchTdfYZ.s 			page 66


DEFINED SYMBOLS
                            *ABS*:0000000000000000 esc.cpp
/var/folders/m4/4md61f0s1_g0rzfghffqnxvr0000gn/T//cchTdfYZ.s:27     .text._Z7esc_sethd:0000000000000000 $t
/var/folders/m4/4md61f0s1_g0rzfghffqnxvr0000gn/T//cchTdfYZ.s:33     .text._Z7esc_sethd:0000000000000000 _Z7esc_sethd
/var/folders/m4/4md61f0s1_g0rzfghffqnxvr0000gn/T//cchTdfYZ.s:167    .text._Z7esc_sethd:00000000000000a0 $d
/var/folders/m4/4md61f0s1_g0rzfghffqnxvr0000gn/T//cchTdfYZ.s:177    .text._Z8esc_initv:0000000000000000 $t
/var/folders/m4/4md61f0s1_g0rzfghffqnxvr0000gn/T//cchTdfYZ.s:183    .text._Z8esc_initv:0000000000000000 _Z8esc_initv
/var/folders/m4/4md61f0s1_g0rzfghffqnxvr0000gn/T//cchTdfYZ.s:292    .text._Z8esc_initv:0000000000000090 $d
/var/folders/m4/4md61f0s1_g0rzfghffqnxvr0000gn/T//cchTdfYZ.s:304    .text._Z11esc_set_alld:0000000000000000 $t
/var/folders/m4/4md61f0s1_g0rzfghffqnxvr0000gn/T//cchTdfYZ.s:310    .text._Z11esc_set_alld:0000000000000000 _Z11esc_set_alld
/var/folders/m4/4md61f0s1_g0rzfghffqnxvr0000gn/T//cchTdfYZ.s:326    .data._ZL6pwmcfg:0000000000000000 $d
/var/folders/m4/4md61f0s1_g0rzfghffqnxvr0000gn/T//cchTdfYZ.s:330    .data._ZL6pwmcfg:0000000000000000 _ZL6pwmcfg
                     .debug_frame:0000000000000010 $d

UNDEFINED SYMBOLS
__aeabi_dcmplt
__aeabi_dcmpgt
__aeabi_dmul
__aeabi_ddiv
__aeabi_d2uiz
pwmEnableChannel
PWMD5
pwmStart
_pal_lld_setgroupmode
