ARM GAS  /var/folders/m4/4md61f0s1_g0rzfghffqnxvr0000gn/T//ccoZmCqg.s 			page 1


   1              		.syntax unified
   2              		.cpu cortex-m4
   3              		.eabi_attribute 27, 1
   4              		.eabi_attribute 28, 1
   5              		.fpu fpv4-sp-d16
   6              		.eabi_attribute 20, 1
   7              		.eabi_attribute 21, 1
   8              		.eabi_attribute 23, 3
   9              		.eabi_attribute 24, 1
  10              		.eabi_attribute 25, 1
  11              		.eabi_attribute 26, 1
  12              		.eabi_attribute 30, 2
  13              		.eabi_attribute 34, 1
  14              		.eabi_attribute 18, 4
  15              		.thumb
  16              		.file	"esc.cpp"
  17              		.text
  18              	.Ltext0:
  19              		.cfi_sections	.debug_frame
  20              		.global	__aeabi_dmul
  21              		.global	__aeabi_ddiv
  22              		.global	__aeabi_d2uiz
  23              		.section	.text._Z7esc_sethd,"ax",%progbits
  24              		.align	2
  25              		.p2align 4,,15
  26              		.global	_Z7esc_sethd
  27              		.thumb
  28              		.thumb_func
  29              		.type	_Z7esc_sethd, %function
  30              	_Z7esc_sethd:
  31              	.LFB269:
  32              		.file 1 "esc.cpp"
  33              		.loc 1 47 0
  34              		.cfi_startproc
  35              		@ args = 0, pretend = 0, frame = 0
  36              		@ frame_needed = 0, uses_anonymous_args = 0
  37              	.LVL0:
  38 0000 38B5     		push	{r3, r4, r5, lr}
  39              		.cfi_def_cfa_offset 16
  40              		.cfi_offset 3, -16
  41              		.cfi_offset 4, -12
  42              		.cfi_offset 5, -8
  43              		.cfi_offset 14, -4
  44              		.loc 1 47 0
  45 0002 0446     		mov	r4, r0
  46              	.LBB4:
  47              		.loc 1 50 0
  48 0004 1DA3     		adr	r3, .L13+4
  49 0006 D3E90023 		ldrd	r2, [r3]
  50 000a 51EC100B 		fmrrd	r0, r1, d0
  51              	.LVL1:
  52 000e FFF7FEFF 		bl	__aeabi_dmul
  53              	.LVL2:
  54 0012 1CA3     		adr	r3, .L13+12
  55 0014 D3E90023 		ldrd	r2, [r3]
  56 0018 FFF7FEFF 		bl	__aeabi_ddiv
  57              	.LVL3:
ARM GAS  /var/folders/m4/4md61f0s1_g0rzfghffqnxvr0000gn/T//ccoZmCqg.s 			page 2


  58 001c FFF7FEFF 		bl	__aeabi_d2uiz
  59              	.LVL4:
  60              		.loc 1 52 0
  61 0020 022C     		cmp	r4, #2
  62              		.loc 1 50 0
  63 0022 0546     		mov	r5, r0
  64              	.LVL5:
  65              		.loc 1 52 0
  66 0024 03D0     		beq	.L7
  67 0026 09D8     		bhi	.L4
  68 0028 0CB1     		cbz	r4, .L7
  69 002a 012C     		cmp	r4, #1
  70 002c 20D1     		bne	.L11
  71              	.L7:
  72              		.loc 1 66 0
  73 002e 2146     		mov	r1, r4
  74 0030 2A46     		mov	r2, r5
  75 0032 1148     		ldr	r0, .L13
  76              	.LVL6:
  77              	.LBE4:
  78              		.loc 1 79 0
  79 0034 BDE83840 		pop	{r3, r4, r5, lr}
  80              		.cfi_remember_state
  81              		.cfi_restore 14
  82              		.cfi_restore 5
  83              		.cfi_restore 4
  84              		.cfi_restore 3
  85              		.cfi_def_cfa_offset 0
  86              	.LVL7:
  87              	.LBB5:
  88              		.loc 1 66 0
  89 0038 FFF7FEBF 		b	pwmEnableChannel
  90              	.LVL8:
  91              	.L4:
  92              		.cfi_restore_state
  93              		.loc 1 52 0
  94 003c 032C     		cmp	r4, #3
  95 003e F6D0     		beq	.L7
  96 0040 FF2C     		cmp	r4, #255
  97 0042 16D1     		bne	.L12
  98              		.loc 1 70 0
  99 0044 2A46     		mov	r2, r5
 100 0046 0C48     		ldr	r0, .L13
 101              	.LVL9:
 102 0048 0021     		movs	r1, #0
 103 004a FFF7FEFF 		bl	pwmEnableChannel
 104              	.LVL10:
 105              		.loc 1 71 0
 106 004e 2A46     		mov	r2, r5
 107 0050 0948     		ldr	r0, .L13
 108 0052 0121     		movs	r1, #1
 109 0054 FFF7FEFF 		bl	pwmEnableChannel
 110              	.LVL11:
 111              		.loc 1 72 0
 112 0058 2A46     		mov	r2, r5
 113 005a 0748     		ldr	r0, .L13
 114 005c 0221     		movs	r1, #2
ARM GAS  /var/folders/m4/4md61f0s1_g0rzfghffqnxvr0000gn/T//ccoZmCqg.s 			page 3


 115 005e FFF7FEFF 		bl	pwmEnableChannel
 116              	.LVL12:
 117              		.loc 1 73 0
 118 0062 2A46     		mov	r2, r5
 119 0064 0448     		ldr	r0, .L13
 120 0066 0321     		movs	r1, #3
 121              	.LBE5:
 122              		.loc 1 79 0
 123 0068 BDE83840 		pop	{r3, r4, r5, lr}
 124              		.cfi_remember_state
 125              		.cfi_restore 14
 126              		.cfi_restore 5
 127              		.cfi_restore 4
 128              		.cfi_restore 3
 129              		.cfi_def_cfa_offset 0
 130              	.LVL13:
 131              	.LBB6:
 132              		.loc 1 73 0
 133 006c FFF7FEBF 		b	pwmEnableChannel
 134              	.LVL14:
 135              	.L11:
 136              		.cfi_restore_state
 137 0070 38BD     		pop	{r3, r4, r5, pc}
 138              	.L12:
 139 0072 38BD     		pop	{r3, r4, r5, pc}
 140              	.L14:
 141 0074 AFF30080 		.align	3
 142              	.L13:
 143 0078 00000000 		.word	PWMD5
 144 007c 00000000 		.word	0
 145 0080 D0126341 		.word	1097011920
 146 0084 00000000 		.word	0
 147 0088 0088C340 		.word	1086556160
 148              	.LBE6:
 149              		.cfi_endproc
 150              	.LFE269:
 151              		.size	_Z7esc_sethd, .-_Z7esc_sethd
 152              		.section	.text._Z8esc_initv,"ax",%progbits
 153              		.align	2
 154              		.p2align 4,,15
 155              		.global	_Z8esc_initv
 156              		.thumb
 157              		.thumb_func
 158              		.type	_Z8esc_initv, %function
 159              	_Z8esc_initv:
 160              	.LFB268:
 161              		.loc 1 24 0
 162              		.cfi_startproc
 163              		@ args = 0, pretend = 0, frame = 0
 164              		@ frame_needed = 0, uses_anonymous_args = 0
 165 0000 10B5     		push	{r4, lr}
 166              		.cfi_def_cfa_offset 8
 167              		.cfi_offset 4, -8
 168              		.cfi_offset 14, -4
 169              		.loc 1 30 0
 170 0002 154C     		ldr	r4, .L17+8
 171              		.loc 1 25 0
ARM GAS  /var/folders/m4/4md61f0s1_g0rzfghffqnxvr0000gn/T//ccoZmCqg.s 			page 4


 172 0004 1548     		ldr	r0, .L17+12
 173 0006 1649     		ldr	r1, .L17+16
 174 0008 FFF7FEFF 		bl	pwmStart
 175              	.LVL15:
 176              		.loc 1 30 0
 177 000c 2046     		mov	r0, r4
 178 000e 0121     		movs	r1, #1
 179 0010 4FF48572 		mov	r2, #266
 180 0014 FFF7FEFF 		bl	_pal_lld_setgroupmode
 181              	.LVL16:
 182              		.loc 1 34 0
 183 0018 2046     		mov	r0, r4
 184 001a 0221     		movs	r1, #2
 185 001c 4FF48572 		mov	r2, #266
 186 0020 FFF7FEFF 		bl	_pal_lld_setgroupmode
 187              	.LVL17:
 188              		.loc 1 38 0
 189 0024 2046     		mov	r0, r4
 190 0026 0421     		movs	r1, #4
 191 0028 4FF48572 		mov	r2, #266
 192 002c FFF7FEFF 		bl	_pal_lld_setgroupmode
 193              	.LVL18:
 194              		.loc 1 42 0
 195 0030 2046     		mov	r0, r4
 196 0032 0821     		movs	r1, #8
 197 0034 4FF48572 		mov	r2, #266
 198 0038 FFF7FEFF 		bl	_pal_lld_setgroupmode
 199              	.LVL19:
 200              	.LBB7:
 201              	.LBB8:
 202              		.loc 1 82 0
 203 003c FF20     		movs	r0, #255
 204 003e 9FED040B 		fldd	d0, .L17
 205              	.LBE8:
 206              	.LBE7:
 207              		.loc 1 45 0
 208 0042 BDE81040 		pop	{r4, lr}
 209              		.cfi_restore 14
 210              		.cfi_restore 4
 211              		.cfi_def_cfa_offset 0
 212              	.LBB10:
 213              	.LBB9:
 214              		.loc 1 82 0
 215 0046 FFF7FEBF 		b	_Z7esc_sethd
 216              	.LVL20:
 217              	.L18:
 218 004a 00BFAFF3 		.align	3
 218      0080
 219              	.L17:
 220 0050 00000000 		.word	0
 221 0054 00000000 		.word	0
 222 0058 00000240 		.word	1073872896
 223 005c 00000000 		.word	PWMD5
 224 0060 00000000 		.word	.LANCHOR0
 225              	.LBE9:
 226              	.LBE10:
 227              		.cfi_endproc
ARM GAS  /var/folders/m4/4md61f0s1_g0rzfghffqnxvr0000gn/T//ccoZmCqg.s 			page 5


 228              	.LFE268:
 229              		.size	_Z8esc_initv, .-_Z8esc_initv
 230              		.section	.text._Z11esc_set_alld,"ax",%progbits
 231              		.align	2
 232              		.p2align 4,,15
 233              		.global	_Z11esc_set_alld
 234              		.thumb
 235              		.thumb_func
 236              		.type	_Z11esc_set_alld, %function
 237              	_Z11esc_set_alld:
 238              	.LFB270:
 239              		.loc 1 81 0
 240              		.cfi_startproc
 241              		@ args = 0, pretend = 0, frame = 0
 242              		@ frame_needed = 0, uses_anonymous_args = 0
 243              		@ link register save eliminated.
 244              	.LVL21:
 245              		.loc 1 82 0
 246 0000 FF20     		movs	r0, #255
 247 0002 FFF7FEBF 		b	_Z7esc_sethd
 248              	.LVL22:
 249              		.cfi_endproc
 250              	.LFE270:
 251              		.size	_Z11esc_set_alld, .-_Z11esc_set_alld
 252 0006 00BF     		.section	.data._ZL6pwmcfg,"aw",%progbits
 253              		.align	2
 254              		.set	.LANCHOR0,. + 0
 255              		.type	_ZL6pwmcfg, %object
 256              		.size	_ZL6pwmcfg, 52
 257              	_ZL6pwmcfg:
 258 0000 80969800 		.word	10000000
 259 0004 E8030000 		.word	1000
 260 0008 00000000 		.word	0
 261 000c 01000000 		.word	1
 262 0010 00000000 		.word	0
 263 0014 01000000 		.word	1
 264 0018 00000000 		.word	0
 265 001c 01000000 		.word	1
 266 0020 00000000 		.word	0
 267 0024 01000000 		.word	1
 268 0028 00000000 		.word	0
 269 002c 00000000 		.word	0
 270 0030 00000000 		.word	0
 271              		.text
 272              	.Letext0:
 273              		.file 2 "/usr/local/Cellar/gcc-arm-none-eabi-49/20150609/lib/gcc/arm-none-eabi/4.9.3/include/stdde
 274              		.file 3 "/usr/local/Cellar/gcc-arm-none-eabi-49/20150609/arm-none-eabi/include/machine/_default_ty
 275              		.file 4 "/usr/local/Cellar/gcc-arm-none-eabi-49/20150609/arm-none-eabi/include/sys/_stdint.h"
 276              		.file 5 "ChibiOS_16.1.4/os/rt/ports/ARMCMx/compilers/GCC/chtypes.h"
 277              		.file 6 "ChibiOS_16.1.4/os/rt/include/chsystypes.h"
 278              		.file 7 "ChibiOS_16.1.4/os/rt/include/chschd.h"
 279              		.file 8 "ChibiOS_16.1.4/os/ext/CMSIS/ST/STM32F4xx/stm32f4xx.h"
 280              		.file 9 "ChibiOS_16.1.4/os/rt/ports/ARMCMx/chcore.h"
 281              		.file 10 "ChibiOS_16.1.4/os/rt/ports/ARMCMx/chcore_v7m.h"
 282              		.file 11 "ChibiOS_16.1.4/os/rt/include/chtm.h"
 283              		.file 12 "ChibiOS_16.1.4/os/rt/include/chsem.h"
 284              		.file 13 "ChibiOS_16.1.4/os/rt/include/chmtx.h"
ARM GAS  /var/folders/m4/4md61f0s1_g0rzfghffqnxvr0000gn/T//ccoZmCqg.s 			page 6


 285              		.file 14 "ChibiOS_16.1.4/os/hal/ports/STM32/LLD/GPIOv2/pal_lld.h"
 286              		.file 15 "ChibiOS_16.1.4/os/hal/include/pwm.h"
 287              		.file 16 "ChibiOS_16.1.4/os/hal/ports/STM32/LLD/TIMv1/pwm_lld.h"
 288              		.file 17 "ChibiOS_16.1.4/os/hal/ports/STM32/LLD/TIMv1/stm32_tim.h"
 289              		.file 18 "ChibiOS_16.1.4/os/ext/CMSIS/include/core_cm4.h"
 290              		.section	.debug_info,"",%progbits
 291              	.Ldebug_info0:
 292 0000 150E0000 		.4byte	0xe15
 293 0004 0400     		.2byte	0x4
 294 0006 00000000 		.4byte	.Ldebug_abbrev0
 295 000a 04       		.byte	0x4
 296 000b 01       		.uleb128 0x1
 297 000c E7010000 		.4byte	.LASF182
 298 0010 04       		.byte	0x4
 299 0011 98060000 		.4byte	.LASF183
 300 0015 00000000 		.4byte	.LASF184
 301 0019 38000000 		.4byte	.Ldebug_ranges0+0x38
 302 001d 00000000 		.4byte	0
 303 0021 00000000 		.4byte	.Ldebug_line0
 304 0025 02       		.uleb128 0x2
 305 0026 08       		.byte	0x8
 306 0027 04       		.byte	0x4
 307 0028 91080000 		.4byte	.LASF0
 308 002c 03       		.uleb128 0x3
 309 002d 04       		.byte	0x4
 310 002e 05       		.byte	0x5
 311 002f 696E7400 		.ascii	"int\000"
 312 0033 04       		.uleb128 0x4
 313 0034 61000000 		.4byte	.LASF5
 314 0038 02       		.byte	0x2
 315 0039 D4       		.byte	0xd4
 316 003a 3E000000 		.4byte	0x3e
 317 003e 02       		.uleb128 0x2
 318 003f 04       		.byte	0x4
 319 0040 07       		.byte	0x7
 320 0041 CE030000 		.4byte	.LASF1
 321 0045 02       		.uleb128 0x2
 322 0046 08       		.byte	0x8
 323 0047 05       		.byte	0x5
 324 0048 5B010000 		.4byte	.LASF2
 325 004c 02       		.uleb128 0x2
 326 004d 08       		.byte	0x8
 327 004e 04       		.byte	0x4
 328 004f E4060000 		.4byte	.LASF3
 329 0053 05       		.uleb128 0x5
 330 0054 A9040000 		.4byte	.LASF185
 331 0058 02       		.uleb128 0x2
 332 0059 01       		.byte	0x1
 333 005a 06       		.byte	0x6
 334 005b 69010000 		.4byte	.LASF4
 335 005f 04       		.uleb128 0x4
 336 0060 93000000 		.4byte	.LASF6
 337 0064 03       		.byte	0x3
 338 0065 1D       		.byte	0x1d
 339 0066 6A000000 		.4byte	0x6a
 340 006a 02       		.uleb128 0x2
 341 006b 01       		.byte	0x1
ARM GAS  /var/folders/m4/4md61f0s1_g0rzfghffqnxvr0000gn/T//ccoZmCqg.s 			page 7


 342 006c 08       		.byte	0x8
 343 006d E4050000 		.4byte	.LASF7
 344 0071 02       		.uleb128 0x2
 345 0072 02       		.byte	0x2
 346 0073 05       		.byte	0x5
 347 0074 0F060000 		.4byte	.LASF8
 348 0078 04       		.uleb128 0x4
 349 0079 0F070000 		.4byte	.LASF9
 350 007d 03       		.byte	0x3
 351 007e 2B       		.byte	0x2b
 352 007f 83000000 		.4byte	0x83
 353 0083 02       		.uleb128 0x2
 354 0084 02       		.byte	0x2
 355 0085 07       		.byte	0x7
 356 0086 26040000 		.4byte	.LASF10
 357 008a 04       		.uleb128 0x4
 358 008b 9F040000 		.4byte	.LASF11
 359 008f 03       		.byte	0x3
 360 0090 3F       		.byte	0x3f
 361 0091 95000000 		.4byte	0x95
 362 0095 02       		.uleb128 0x2
 363 0096 04       		.byte	0x4
 364 0097 05       		.byte	0x5
 365 0098 D7010000 		.4byte	.LASF12
 366 009c 04       		.uleb128 0x4
 367 009d 57070000 		.4byte	.LASF13
 368 00a1 03       		.byte	0x3
 369 00a2 41       		.byte	0x41
 370 00a3 A7000000 		.4byte	0xa7
 371 00a7 02       		.uleb128 0x2
 372 00a8 04       		.byte	0x4
 373 00a9 07       		.byte	0x7
 374 00aa 86010000 		.4byte	.LASF14
 375 00ae 02       		.uleb128 0x2
 376 00af 08       		.byte	0x8
 377 00b0 07       		.byte	0x7
 378 00b1 D2000000 		.4byte	.LASF15
 379 00b5 04       		.uleb128 0x4
 380 00b6 0B080000 		.4byte	.LASF16
 381 00ba 04       		.byte	0x4
 382 00bb 14       		.byte	0x14
 383 00bc 5F000000 		.4byte	0x5f
 384 00c0 04       		.uleb128 0x4
 385 00c1 30030000 		.4byte	.LASF17
 386 00c5 04       		.byte	0x4
 387 00c6 1A       		.byte	0x1a
 388 00c7 78000000 		.4byte	0x78
 389 00cb 04       		.uleb128 0x4
 390 00cc DC050000 		.4byte	.LASF18
 391 00d0 04       		.byte	0x4
 392 00d1 1F       		.byte	0x1f
 393 00d2 8A000000 		.4byte	0x8a
 394 00d6 04       		.uleb128 0x4
 395 00d7 A0060000 		.4byte	.LASF19
 396 00db 04       		.byte	0x4
 397 00dc 20       		.byte	0x20
 398 00dd 9C000000 		.4byte	0x9c
ARM GAS  /var/folders/m4/4md61f0s1_g0rzfghffqnxvr0000gn/T//ccoZmCqg.s 			page 8


 399 00e1 04       		.uleb128 0x4
 400 00e2 CA040000 		.4byte	.LASF20
 401 00e6 05       		.byte	0x5
 402 00e7 39       		.byte	0x39
 403 00e8 D6000000 		.4byte	0xd6
 404 00ec 04       		.uleb128 0x4
 405 00ed 78040000 		.4byte	.LASF21
 406 00f1 05       		.byte	0x5
 407 00f2 3C       		.byte	0x3c
 408 00f3 B5000000 		.4byte	0xb5
 409 00f7 04       		.uleb128 0x4
 410 00f8 27030000 		.4byte	.LASF22
 411 00fc 05       		.byte	0x5
 412 00fd 3D       		.byte	0x3d
 413 00fe B5000000 		.4byte	0xb5
 414 0102 04       		.uleb128 0x4
 415 0103 8A050000 		.4byte	.LASF23
 416 0107 05       		.byte	0x5
 417 0108 3E       		.byte	0x3e
 418 0109 B5000000 		.4byte	0xb5
 419 010d 04       		.uleb128 0x4
 420 010e B1010000 		.4byte	.LASF24
 421 0112 05       		.byte	0x5
 422 0113 3F       		.byte	0x3f
 423 0114 B5000000 		.4byte	0xb5
 424 0118 04       		.uleb128 0x4
 425 0119 BB050000 		.4byte	.LASF25
 426 011d 05       		.byte	0x5
 427 011e 40       		.byte	0x40
 428 011f D6000000 		.4byte	0xd6
 429 0123 04       		.uleb128 0x4
 430 0124 39040000 		.4byte	.LASF26
 431 0128 05       		.byte	0x5
 432 0129 41       		.byte	0x41
 433 012a CB000000 		.4byte	0xcb
 434 012e 04       		.uleb128 0x4
 435 012f 93040000 		.4byte	.LASF27
 436 0133 05       		.byte	0x5
 437 0134 43       		.byte	0x43
 438 0135 D6000000 		.4byte	0xd6
 439 0139 04       		.uleb128 0x4
 440 013a C8030000 		.4byte	.LASF28
 441 013e 05       		.byte	0x5
 442 013f 45       		.byte	0x45
 443 0140 CB000000 		.4byte	0xcb
 444 0144 04       		.uleb128 0x4
 445 0145 39070000 		.4byte	.LASF29
 446 0149 06       		.byte	0x6
 447 014a 33       		.byte	0x33
 448 014b D6000000 		.4byte	0xd6
 449 014f 04       		.uleb128 0x4
 450 0150 FC070000 		.4byte	.LASF30
 451 0154 06       		.byte	0x6
 452 0155 3F       		.byte	0x3f
 453 0156 5A010000 		.4byte	0x15a
 454 015a 06       		.uleb128 0x6
 455 015b 09040000 		.4byte	.LASF59
ARM GAS  /var/folders/m4/4md61f0s1_g0rzfghffqnxvr0000gn/T//ccoZmCqg.s 			page 9


 456 015f 48       		.byte	0x48
 457 0160 07       		.byte	0x7
 458 0161 C2       		.byte	0xc2
 459 0162 BC020000 		.4byte	0x2bc
 460 0166 07       		.uleb128 0x7
 461 0167 04       		.byte	0x4
 462 0168 07       		.byte	0x7
 463 0169 FA       		.byte	0xfa
 464 016a C3010000 		.4byte	0x1c3
 465 016e 08       		.uleb128 0x8
 466 016f EE070000 		.4byte	.LASF31
 467 0173 07       		.byte	0x7
 468 0174 0101     		.2byte	0x101
 469 0176 23010000 		.4byte	0x123
 470 017a 08       		.uleb128 0x8
 471 017b 64030000 		.4byte	.LASF32
 472 017f 07       		.byte	0x7
 473 0180 0801     		.2byte	0x108
 474 0182 23010000 		.4byte	0x123
 475 0186 08       		.uleb128 0x8
 476 0187 AA010000 		.4byte	.LASF33
 477 018b 07       		.byte	0x7
 478 018c 0F01     		.2byte	0x10f
 479 018e A4030000 		.4byte	0x3a4
 480 0192 08       		.uleb128 0x8
 481 0193 33060000 		.4byte	.LASF34
 482 0197 07       		.byte	0x7
 483 0198 1601     		.2byte	0x116
 484 019a 0A070000 		.4byte	0x70a
 485 019e 08       		.uleb128 0x8
 486 019f EA030000 		.4byte	.LASF35
 487 01a3 07       		.byte	0x7
 488 01a4 1E01     		.2byte	0x11e
 489 01a6 35070000 		.4byte	0x735
 490 01aa 08       		.uleb128 0x8
 491 01ab 62070000 		.4byte	.LASF36
 492 01af 07       		.byte	0x7
 493 01b0 2701     		.2byte	0x127
 494 01b2 6C070000 		.4byte	0x76c
 495 01b6 08       		.uleb128 0x8
 496 01b7 40060000 		.4byte	.LASF37
 497 01bb 07       		.byte	0x7
 498 01bc 2F01     		.2byte	0x12f
 499 01be 2E010000 		.4byte	0x12e
 500 01c2 00       		.byte	0
 501 01c3 09       		.uleb128 0x9
 502 01c4 47060000 		.4byte	.LASF38
 503 01c8 07       		.byte	0x7
 504 01c9 C3       		.byte	0xc3
 505 01ca C7020000 		.4byte	0x2c7
 506 01ce 00       		.byte	0
 507 01cf 09       		.uleb128 0x9
 508 01d0 A2050000 		.4byte	.LASF39
 509 01d4 07       		.byte	0x7
 510 01d5 C5       		.byte	0xc5
 511 01d6 C7020000 		.4byte	0x2c7
 512 01da 04       		.byte	0x4
ARM GAS  /var/folders/m4/4md61f0s1_g0rzfghffqnxvr0000gn/T//ccoZmCqg.s 			page 10


 513 01db 09       		.uleb128 0x9
 514 01dc 35010000 		.4byte	.LASF40
 515 01e0 07       		.byte	0x7
 516 01e1 C7       		.byte	0xc7
 517 01e2 18010000 		.4byte	0x118
 518 01e6 08       		.byte	0x8
 519 01e7 09       		.uleb128 0x9
 520 01e8 98080000 		.4byte	.LASF41
 521 01ec 07       		.byte	0x7
 522 01ed C8       		.byte	0xc8
 523 01ee 7D050000 		.4byte	0x57d
 524 01f2 0C       		.byte	0xc
 525 01f3 09       		.uleb128 0x9
 526 01f4 4B030000 		.4byte	.LASF42
 527 01f8 07       		.byte	0x7
 528 01f9 CA       		.byte	0xca
 529 01fa C7020000 		.4byte	0x2c7
 530 01fe 10       		.byte	0x10
 531 01ff 09       		.uleb128 0x9
 532 0200 35050000 		.4byte	.LASF43
 533 0204 07       		.byte	0x7
 534 0205 CB       		.byte	0xcb
 535 0206 C7020000 		.4byte	0x2c7
 536 020a 14       		.byte	0x14
 537 020b 09       		.uleb128 0x9
 538 020c 4B080000 		.4byte	.LASF44
 539 0210 07       		.byte	0x7
 540 0211 D2       		.byte	0xd2
 541 0212 72070000 		.4byte	0x772
 542 0216 18       		.byte	0x18
 543 0217 09       		.uleb128 0x9
 544 0218 19060000 		.4byte	.LASF45
 545 021c 07       		.byte	0x7
 546 021d DD       		.byte	0xdd
 547 021e F7000000 		.4byte	0xf7
 548 0222 1C       		.byte	0x1c
 549 0223 09       		.uleb128 0x9
 550 0224 5A060000 		.4byte	.LASF46
 551 0228 07       		.byte	0x7
 552 0229 E1       		.byte	0xe1
 553 022a EC000000 		.4byte	0xec
 554 022e 1D       		.byte	0x1d
 555 022f 09       		.uleb128 0x9
 556 0230 F5070000 		.4byte	.LASF47
 557 0234 07       		.byte	0x7
 558 0235 E6       		.byte	0xe6
 559 0236 02010000 		.4byte	0x102
 560 023a 1E       		.byte	0x1e
 561 023b 09       		.uleb128 0x9
 562 023c 29060000 		.4byte	.LASF48
 563 0240 07       		.byte	0x7
 564 0241 EC       		.byte	0xec
 565 0242 0D010000 		.4byte	0x10d
 566 0246 1F       		.byte	0x1f
 567 0247 09       		.uleb128 0x9
 568 0248 E3030000 		.4byte	.LASF49
 569 024c 07       		.byte	0x7
ARM GAS  /var/folders/m4/4md61f0s1_g0rzfghffqnxvr0000gn/T//ccoZmCqg.s 			page 11


 570 024d F3       		.byte	0xf3
 571 024e 84070000 		.4byte	0x784
 572 0252 20       		.byte	0x20
 573 0253 0A       		.uleb128 0xa
 574 0254 705F7500 		.ascii	"p_u\000"
 575 0258 07       		.byte	0x7
 576 0259 3101     		.2byte	0x131
 577 025b 66010000 		.4byte	0x166
 578 025f 24       		.byte	0x24
 579 0260 0B       		.uleb128 0xb
 580 0261 9E080000 		.4byte	.LASF50
 581 0265 07       		.byte	0x7
 582 0266 3601     		.2byte	0x136
 583 0268 CD020000 		.4byte	0x2cd
 584 026c 28       		.byte	0x28
 585 026d 0B       		.uleb128 0xb
 586 026e B4070000 		.4byte	.LASF51
 587 0272 07       		.byte	0x7
 588 0273 3C01     		.2byte	0x13c
 589 0275 F1020000 		.4byte	0x2f1
 590 0279 2C       		.byte	0x2c
 591 027a 0B       		.uleb128 0xb
 592 027b 78080000 		.4byte	.LASF52
 593 027f 07       		.byte	0x7
 594 0280 4001     		.2byte	0x140
 595 0282 23010000 		.4byte	0x123
 596 0286 34       		.byte	0x34
 597 0287 0B       		.uleb128 0xb
 598 0288 8D060000 		.4byte	.LASF53
 599 028c 07       		.byte	0x7
 600 028d 4601     		.2byte	0x146
 601 028f 2E010000 		.4byte	0x12e
 602 0293 38       		.byte	0x38
 603 0294 0B       		.uleb128 0xb
 604 0295 05060000 		.4byte	.LASF54
 605 0299 07       		.byte	0x7
 606 029a 4D01     		.2byte	0x14d
 607 029c 6C070000 		.4byte	0x76c
 608 02a0 3C       		.byte	0x3c
 609 02a1 0B       		.uleb128 0xb
 610 02a2 43070000 		.4byte	.LASF55
 611 02a6 07       		.byte	0x7
 612 02a7 5101     		.2byte	0x151
 613 02a9 18010000 		.4byte	0x118
 614 02ad 40       		.byte	0x40
 615 02ae 0B       		.uleb128 0xb
 616 02af 98010000 		.4byte	.LASF56
 617 02b3 07       		.byte	0x7
 618 02b4 5801     		.2byte	0x158
 619 02b6 A4030000 		.4byte	0x3a4
 620 02ba 44       		.byte	0x44
 621 02bb 00       		.byte	0
 622 02bc 04       		.uleb128 0x4
 623 02bd D2040000 		.4byte	.LASF57
 624 02c1 06       		.byte	0x6
 625 02c2 44       		.byte	0x44
 626 02c3 C7020000 		.4byte	0x2c7
ARM GAS  /var/folders/m4/4md61f0s1_g0rzfghffqnxvr0000gn/T//ccoZmCqg.s 			page 12


 627 02c7 0C       		.uleb128 0xc
 628 02c8 04       		.byte	0x4
 629 02c9 4F010000 		.4byte	0x14f
 630 02cd 04       		.uleb128 0x4
 631 02ce 63080000 		.4byte	.LASF58
 632 02d2 06       		.byte	0x6
 633 02d3 49       		.byte	0x49
 634 02d4 D8020000 		.4byte	0x2d8
 635 02d8 06       		.uleb128 0x6
 636 02d9 D4060000 		.4byte	.LASF60
 637 02dd 04       		.byte	0x4
 638 02de 07       		.byte	0x7
 639 02df B0       		.byte	0xb0
 640 02e0 F1020000 		.4byte	0x2f1
 641 02e4 09       		.uleb128 0x9
 642 02e5 47060000 		.4byte	.LASF38
 643 02e9 07       		.byte	0x7
 644 02ea B1       		.byte	0xb1
 645 02eb C7020000 		.4byte	0x2c7
 646 02ef 00       		.byte	0
 647 02f0 00       		.byte	0
 648 02f1 04       		.uleb128 0x4
 649 02f2 DE070000 		.4byte	.LASF61
 650 02f6 06       		.byte	0x6
 651 02f7 50       		.byte	0x50
 652 02f8 FC020000 		.4byte	0x2fc
 653 02fc 06       		.uleb128 0x6
 654 02fd 1C010000 		.4byte	.LASF62
 655 0301 08       		.byte	0x8
 656 0302 07       		.byte	0x7
 657 0303 B7       		.byte	0xb7
 658 0304 21030000 		.4byte	0x321
 659 0308 09       		.uleb128 0x9
 660 0309 47060000 		.4byte	.LASF38
 661 030d 07       		.byte	0x7
 662 030e B8       		.byte	0xb8
 663 030f C7020000 		.4byte	0x2c7
 664 0313 00       		.byte	0
 665 0314 09       		.uleb128 0x9
 666 0315 A2050000 		.4byte	.LASF39
 667 0319 07       		.byte	0x7
 668 031a B9       		.byte	0xb9
 669 031b C7020000 		.4byte	0x2c7
 670 031f 04       		.byte	0x4
 671 0320 00       		.byte	0
 672 0321 04       		.uleb128 0x4
 673 0322 41000000 		.4byte	.LASF63
 674 0326 06       		.byte	0x6
 675 0327 57       		.byte	0x57
 676 0328 2C030000 		.4byte	0x32c
 677 032c 0D       		.uleb128 0xd
 678 032d 85040000 		.4byte	.LASF64
 679 0331 1C       		.byte	0x1c
 680 0332 07       		.byte	0x7
 681 0333 9001     		.2byte	0x190
 682 0335 88030000 		.4byte	0x388
 683 0339 0B       		.uleb128 0xb
ARM GAS  /var/folders/m4/4md61f0s1_g0rzfghffqnxvr0000gn/T//ccoZmCqg.s 			page 13


 684 033a 1C050000 		.4byte	.LASF65
 685 033e 07       		.byte	0x7
 686 033f 9101     		.2byte	0x191
 687 0341 F1020000 		.4byte	0x2f1
 688 0345 00       		.byte	0
 689 0346 0B       		.uleb128 0xb
 690 0347 39060000 		.4byte	.LASF66
 691 034b 07       		.byte	0x7
 692 034c 9201     		.2byte	0x192
 693 034e 18010000 		.4byte	0x118
 694 0352 08       		.byte	0x8
 695 0353 0B       		.uleb128 0xb
 696 0354 3D050000 		.4byte	.LASF67
 697 0358 07       		.byte	0x7
 698 0359 9401     		.2byte	0x194
 699 035b 7D050000 		.4byte	0x57d
 700 035f 0C       		.byte	0xc
 701 0360 0B       		.uleb128 0xb
 702 0361 75030000 		.4byte	.LASF68
 703 0365 07       		.byte	0x7
 704 0366 9701     		.2byte	0x197
 705 0368 C7020000 		.4byte	0x2c7
 706 036c 10       		.byte	0x10
 707 036d 0B       		.uleb128 0xb
 708 036e 65050000 		.4byte	.LASF69
 709 0372 07       		.byte	0x7
 710 0373 9801     		.2byte	0x198
 711 0375 C7020000 		.4byte	0x2c7
 712 0379 14       		.byte	0x14
 713 037a 0B       		.uleb128 0xb
 714 037b 5B050000 		.4byte	.LASF70
 715 037f 07       		.byte	0x7
 716 0380 9B01     		.2byte	0x19b
 717 0382 C7020000 		.4byte	0x2c7
 718 0386 18       		.byte	0x18
 719 0387 00       		.byte	0
 720 0388 04       		.uleb128 0x4
 721 0389 4E070000 		.4byte	.LASF71
 722 038d 06       		.byte	0x6
 723 038e 5C       		.byte	0x5c
 724 038f 93030000 		.4byte	0x393
 725 0393 0C       		.uleb128 0xc
 726 0394 04       		.byte	0x4
 727 0395 99030000 		.4byte	0x399
 728 0399 0E       		.uleb128 0xe
 729 039a A4030000 		.4byte	0x3a4
 730 039e 0F       		.uleb128 0xf
 731 039f A4030000 		.4byte	0x3a4
 732 03a3 00       		.byte	0
 733 03a4 10       		.uleb128 0x10
 734 03a5 04       		.byte	0x4
 735 03a6 04       		.uleb128 0x4
 736 03a7 92050000 		.4byte	.LASF72
 737 03ab 06       		.byte	0x6
 738 03ac 61       		.byte	0x61
 739 03ad B1030000 		.4byte	0x3b1
 740 03b1 0D       		.uleb128 0xd
ARM GAS  /var/folders/m4/4md61f0s1_g0rzfghffqnxvr0000gn/T//ccoZmCqg.s 			page 14


 741 03b2 6A060000 		.4byte	.LASF73
 742 03b6 14       		.byte	0x14
 743 03b7 07       		.byte	0x7
 744 03b8 6B01     		.2byte	0x16b
 745 03ba 00040000 		.4byte	0x400
 746 03be 0B       		.uleb128 0xb
 747 03bf DB030000 		.4byte	.LASF74
 748 03c3 07       		.byte	0x7
 749 03c4 6C01     		.2byte	0x16c
 750 03c6 89070000 		.4byte	0x789
 751 03ca 00       		.byte	0
 752 03cb 0B       		.uleb128 0xb
 753 03cc 89030000 		.4byte	.LASF75
 754 03d0 07       		.byte	0x7
 755 03d1 6D01     		.2byte	0x16d
 756 03d3 89070000 		.4byte	0x789
 757 03d7 04       		.byte	0x4
 758 03d8 0B       		.uleb128 0xb
 759 03d9 F1030000 		.4byte	.LASF76
 760 03dd 07       		.byte	0x7
 761 03de 6E01     		.2byte	0x16e
 762 03e0 44010000 		.4byte	0x144
 763 03e4 08       		.byte	0x8
 764 03e5 0B       		.uleb128 0xb
 765 03e6 53050000 		.4byte	.LASF77
 766 03ea 07       		.byte	0x7
 767 03eb 6F01     		.2byte	0x16f
 768 03ed 88030000 		.4byte	0x388
 769 03f1 0C       		.byte	0xc
 770 03f2 0B       		.uleb128 0xb
 771 03f3 C6070000 		.4byte	.LASF78
 772 03f7 07       		.byte	0x7
 773 03f8 7101     		.2byte	0x171
 774 03fa A4030000 		.4byte	0x3a4
 775 03fe 10       		.byte	0x10
 776 03ff 00       		.byte	0
 777 0400 04       		.uleb128 0x4
 778 0401 F4000000 		.4byte	.LASF79
 779 0405 06       		.byte	0x6
 780 0406 66       		.byte	0x66
 781 0407 0B040000 		.4byte	0x40b
 782 040b 0D       		.uleb128 0xd
 783 040c EE040000 		.4byte	.LASF80
 784 0410 10       		.byte	0x10
 785 0411 07       		.byte	0x7
 786 0412 7B01     		.2byte	0x17b
 787 0414 4D040000 		.4byte	0x44d
 788 0418 0B       		.uleb128 0xb
 789 0419 DB030000 		.4byte	.LASF74
 790 041d 07       		.byte	0x7
 791 041e 7C01     		.2byte	0x17c
 792 0420 89070000 		.4byte	0x789
 793 0424 00       		.byte	0
 794 0425 0B       		.uleb128 0xb
 795 0426 89030000 		.4byte	.LASF75
 796 042a 07       		.byte	0x7
 797 042b 7E01     		.2byte	0x17e
ARM GAS  /var/folders/m4/4md61f0s1_g0rzfghffqnxvr0000gn/T//ccoZmCqg.s 			page 15


 798 042d 89070000 		.4byte	0x789
 799 0431 04       		.byte	0x4
 800 0432 0B       		.uleb128 0xb
 801 0433 F1030000 		.4byte	.LASF76
 802 0437 07       		.byte	0x7
 803 0438 8001     		.2byte	0x180
 804 043a 44010000 		.4byte	0x144
 805 043e 08       		.byte	0x8
 806 043f 0B       		.uleb128 0xb
 807 0440 BF060000 		.4byte	.LASF81
 808 0444 07       		.byte	0x7
 809 0445 8201     		.2byte	0x182
 810 0447 84070000 		.4byte	0x784
 811 044b 0C       		.byte	0xc
 812 044c 00       		.byte	0
 813 044d 04       		.uleb128 0x4
 814 044e FA030000 		.4byte	.LASF82
 815 0452 06       		.byte	0x6
 816 0453 6B       		.byte	0x6b
 817 0454 58040000 		.4byte	0x458
 818 0458 0D       		.uleb128 0xd
 819 0459 CC050000 		.4byte	.LASF83
 820 045d 04       		.byte	0x4
 821 045e 07       		.byte	0x7
 822 045f A201     		.2byte	0x1a2
 823 0461 73040000 		.4byte	0x473
 824 0465 0B       		.uleb128 0xb
 825 0466 69070000 		.4byte	.LASF84
 826 046a 07       		.byte	0x7
 827 046b AA01     		.2byte	0x1aa
 828 046d 8F070000 		.4byte	0x78f
 829 0471 00       		.byte	0
 830 0472 00       		.byte	0
 831 0473 04       		.uleb128 0x4
 832 0474 63040000 		.4byte	.LASF85
 833 0478 06       		.byte	0x6
 834 0479 70       		.byte	0x70
 835 047a 7E040000 		.4byte	0x47e
 836 047e 11       		.uleb128 0x11
 837 047f CD010000 		.4byte	.LASF86
 838 0483 5802     		.2byte	0x258
 839 0485 07       		.byte	0x7
 840 0486 C201     		.2byte	0x1c2
 841 0488 DA040000 		.4byte	0x4da
 842 048c 0B       		.uleb128 0xb
 843 048d 05080000 		.4byte	.LASF87
 844 0491 07       		.byte	0x7
 845 0492 C601     		.2byte	0x1c6
 846 0494 21030000 		.4byte	0x321
 847 0498 00       		.byte	0
 848 0499 0B       		.uleb128 0xb
 849 049a A9000000 		.4byte	.LASF88
 850 049e 07       		.byte	0x7
 851 049f CA01     		.2byte	0x1ca
 852 04a1 00040000 		.4byte	0x400
 853 04a5 1C       		.byte	0x1c
 854 04a6 0A       		.uleb128 0xa
ARM GAS  /var/folders/m4/4md61f0s1_g0rzfghffqnxvr0000gn/T//ccoZmCqg.s 			page 16


 855 04a7 64626700 		.ascii	"dbg\000"
 856 04ab 07       		.byte	0x7
 857 04ac CE01     		.2byte	0x1ce
 858 04ae 4D040000 		.4byte	0x44d
 859 04b2 2C       		.byte	0x2c
 860 04b3 0B       		.uleb128 0xb
 861 04b4 E9000000 		.4byte	.LASF89
 862 04b8 07       		.byte	0x7
 863 04b9 D201     		.2byte	0x1d2
 864 04bb 4F010000 		.4byte	0x14f
 865 04bf 30       		.byte	0x30
 866 04c0 0A       		.uleb128 0xa
 867 04c1 746D00   		.ascii	"tm\000"
 868 04c4 07       		.byte	0x7
 869 04c5 D701     		.2byte	0x1d7
 870 04c7 FF060000 		.4byte	0x6ff
 871 04cb 78       		.byte	0x78
 872 04cc 0B       		.uleb128 0xb
 873 04cd B9030000 		.4byte	.LASF90
 874 04d1 07       		.byte	0x7
 875 04d2 E301     		.2byte	0x1e3
 876 04d4 94070000 		.4byte	0x794
 877 04d8 80       		.byte	0x80
 878 04d9 00       		.byte	0
 879 04da 02       		.uleb128 0x2
 880 04db 04       		.byte	0x4
 881 04dc 07       		.byte	0x7
 882 04dd 30080000 		.4byte	.LASF91
 883 04e1 12       		.uleb128 0x12
 884 04e2 D6000000 		.4byte	0xd6
 885 04e6 13       		.uleb128 0x13
 886 04e7 A7000000 		.4byte	0xa7
 887 04eb F6040000 		.4byte	0x4f6
 888 04ef 14       		.uleb128 0x14
 889 04f0 DA040000 		.4byte	0x4da
 890 04f4 01       		.byte	0x1
 891 04f5 00       		.byte	0
 892 04f6 13       		.uleb128 0x13
 893 04f7 A7000000 		.4byte	0xa7
 894 04fb 06050000 		.4byte	0x506
 895 04ff 14       		.uleb128 0x14
 896 0500 DA040000 		.4byte	0x4da
 897 0504 03       		.byte	0x3
 898 0505 00       		.byte	0
 899 0506 15       		.uleb128 0x15
 900 0507 01       		.byte	0x1
 901 0508 08       		.byte	0x8
 902 0509 B8       		.byte	0xb8
 903 050a 56040000 		.4byte	.LASF94
 904 050e 1F050000 		.4byte	0x51f
 905 0512 16       		.uleb128 0x16
 906 0513 B5050000 		.4byte	.LASF92
 907 0517 00       		.sleb128 0
 908 0518 17       		.uleb128 0x17
 909 0519 53455400 		.ascii	"SET\000"
 910 051d 01       		.sleb128 1
 911 051e 00       		.byte	0
ARM GAS  /var/folders/m4/4md61f0s1_g0rzfghffqnxvr0000gn/T//ccoZmCqg.s 			page 17


 912 051f 04       		.uleb128 0x4
 913 0520 73000000 		.4byte	.LASF93
 914 0524 08       		.byte	0x8
 915 0525 BB       		.byte	0xbb
 916 0526 06050000 		.4byte	0x506
 917 052a 15       		.uleb128 0x15
 918 052b 01       		.byte	0x1
 919 052c 08       		.byte	0x8
 920 052d BE       		.byte	0xbe
 921 052e 39030000 		.4byte	.LASF95
 922 0532 43050000 		.4byte	0x543
 923 0536 16       		.uleb128 0x16
 924 0537 CA000000 		.4byte	.LASF96
 925 053b 00       		.sleb128 0
 926 053c 16       		.uleb128 0x16
 927 053d E0010000 		.4byte	.LASF97
 928 0541 01       		.sleb128 1
 929 0542 00       		.byte	0
 930 0543 04       		.uleb128 0x4
 931 0544 43050000 		.4byte	.LASF98
 932 0548 08       		.byte	0x8
 933 0549 C1       		.byte	0xc1
 934 054a 2A050000 		.4byte	0x52a
 935 054e 15       		.uleb128 0x15
 936 054f 01       		.byte	0x1
 937 0550 08       		.byte	0x8
 938 0551 C5       		.byte	0xc5
 939 0552 53000000 		.4byte	.LASF99
 940 0556 67050000 		.4byte	0x567
 941 055a 16       		.uleb128 0x16
 942 055b 0B050000 		.4byte	.LASF100
 943 055f 00       		.sleb128 0
 944 0560 16       		.uleb128 0x16
 945 0561 1D080000 		.4byte	.LASF101
 946 0565 01       		.sleb128 1
 947 0566 00       		.byte	0
 948 0567 04       		.uleb128 0x4
 949 0568 7D030000 		.4byte	.LASF102
 950 056c 08       		.byte	0x8
 951 056d C8       		.byte	0xc8
 952 056e 4E050000 		.4byte	0x54e
 953 0572 04       		.uleb128 0x4
 954 0573 A9060000 		.4byte	.LASF103
 955 0577 09       		.byte	0x9
 956 0578 65       		.byte	0x65
 957 0579 A4030000 		.4byte	0x3a4
 958 057d 06       		.uleb128 0x6
 959 057e 1E040000 		.4byte	.LASF104
 960 0582 04       		.byte	0x4
 961 0583 09       		.byte	0x9
 962 0584 89       		.byte	0x89
 963 0585 96050000 		.4byte	0x596
 964 0589 18       		.uleb128 0x18
 965 058a 72313300 		.ascii	"r13\000"
 966 058e 09       		.byte	0x9
 967 058f 8A       		.byte	0x8a
 968 0590 E0060000 		.4byte	0x6e0
ARM GAS  /var/folders/m4/4md61f0s1_g0rzfghffqnxvr0000gn/T//ccoZmCqg.s 			page 18


 969 0594 00       		.byte	0
 970 0595 00       		.byte	0
 971 0596 06       		.uleb128 0x6
 972 0597 9D000000 		.4byte	.LASF105
 973 059b 64       		.byte	0x64
 974 059c 0A       		.byte	0xa
 975 059d FD       		.byte	0xfd
 976 059e E0060000 		.4byte	0x6e0
 977 05a2 18       		.uleb128 0x18
 978 05a3 73313600 		.ascii	"s16\000"
 979 05a7 0A       		.byte	0xa
 980 05a8 FF       		.byte	0xff
 981 05a9 72050000 		.4byte	0x572
 982 05ad 00       		.byte	0
 983 05ae 0A       		.uleb128 0xa
 984 05af 73313700 		.ascii	"s17\000"
 985 05b3 0A       		.byte	0xa
 986 05b4 0001     		.2byte	0x100
 987 05b6 72050000 		.4byte	0x572
 988 05ba 04       		.byte	0x4
 989 05bb 0A       		.uleb128 0xa
 990 05bc 73313800 		.ascii	"s18\000"
 991 05c0 0A       		.byte	0xa
 992 05c1 0101     		.2byte	0x101
 993 05c3 72050000 		.4byte	0x572
 994 05c7 08       		.byte	0x8
 995 05c8 0A       		.uleb128 0xa
 996 05c9 73313900 		.ascii	"s19\000"
 997 05cd 0A       		.byte	0xa
 998 05ce 0201     		.2byte	0x102
 999 05d0 72050000 		.4byte	0x572
 1000 05d4 0C       		.byte	0xc
 1001 05d5 0A       		.uleb128 0xa
 1002 05d6 73323000 		.ascii	"s20\000"
 1003 05da 0A       		.byte	0xa
 1004 05db 0301     		.2byte	0x103
 1005 05dd 72050000 		.4byte	0x572
 1006 05e1 10       		.byte	0x10
 1007 05e2 0A       		.uleb128 0xa
 1008 05e3 73323100 		.ascii	"s21\000"
 1009 05e7 0A       		.byte	0xa
 1010 05e8 0401     		.2byte	0x104
 1011 05ea 72050000 		.4byte	0x572
 1012 05ee 14       		.byte	0x14
 1013 05ef 0A       		.uleb128 0xa
 1014 05f0 73323200 		.ascii	"s22\000"
 1015 05f4 0A       		.byte	0xa
 1016 05f5 0501     		.2byte	0x105
 1017 05f7 72050000 		.4byte	0x572
 1018 05fb 18       		.byte	0x18
 1019 05fc 0A       		.uleb128 0xa
 1020 05fd 73323300 		.ascii	"s23\000"
 1021 0601 0A       		.byte	0xa
 1022 0602 0601     		.2byte	0x106
 1023 0604 72050000 		.4byte	0x572
 1024 0608 1C       		.byte	0x1c
 1025 0609 0A       		.uleb128 0xa
ARM GAS  /var/folders/m4/4md61f0s1_g0rzfghffqnxvr0000gn/T//ccoZmCqg.s 			page 19


 1026 060a 73323400 		.ascii	"s24\000"
 1027 060e 0A       		.byte	0xa
 1028 060f 0701     		.2byte	0x107
 1029 0611 72050000 		.4byte	0x572
 1030 0615 20       		.byte	0x20
 1031 0616 0A       		.uleb128 0xa
 1032 0617 73323500 		.ascii	"s25\000"
 1033 061b 0A       		.byte	0xa
 1034 061c 0801     		.2byte	0x108
 1035 061e 72050000 		.4byte	0x572
 1036 0622 24       		.byte	0x24
 1037 0623 0A       		.uleb128 0xa
 1038 0624 73323600 		.ascii	"s26\000"
 1039 0628 0A       		.byte	0xa
 1040 0629 0901     		.2byte	0x109
 1041 062b 72050000 		.4byte	0x572
 1042 062f 28       		.byte	0x28
 1043 0630 0A       		.uleb128 0xa
 1044 0631 73323700 		.ascii	"s27\000"
 1045 0635 0A       		.byte	0xa
 1046 0636 0A01     		.2byte	0x10a
 1047 0638 72050000 		.4byte	0x572
 1048 063c 2C       		.byte	0x2c
 1049 063d 0A       		.uleb128 0xa
 1050 063e 73323800 		.ascii	"s28\000"
 1051 0642 0A       		.byte	0xa
 1052 0643 0B01     		.2byte	0x10b
 1053 0645 72050000 		.4byte	0x572
 1054 0649 30       		.byte	0x30
 1055 064a 0A       		.uleb128 0xa
 1056 064b 73323900 		.ascii	"s29\000"
 1057 064f 0A       		.byte	0xa
 1058 0650 0C01     		.2byte	0x10c
 1059 0652 72050000 		.4byte	0x572
 1060 0656 34       		.byte	0x34
 1061 0657 0A       		.uleb128 0xa
 1062 0658 73333000 		.ascii	"s30\000"
 1063 065c 0A       		.byte	0xa
 1064 065d 0D01     		.2byte	0x10d
 1065 065f 72050000 		.4byte	0x572
 1066 0663 38       		.byte	0x38
 1067 0664 0A       		.uleb128 0xa
 1068 0665 73333100 		.ascii	"s31\000"
 1069 0669 0A       		.byte	0xa
 1070 066a 0E01     		.2byte	0x10e
 1071 066c 72050000 		.4byte	0x572
 1072 0670 3C       		.byte	0x3c
 1073 0671 0A       		.uleb128 0xa
 1074 0672 723400   		.ascii	"r4\000"
 1075 0675 0A       		.byte	0xa
 1076 0676 1001     		.2byte	0x110
 1077 0678 72050000 		.4byte	0x572
 1078 067c 40       		.byte	0x40
 1079 067d 0A       		.uleb128 0xa
 1080 067e 723500   		.ascii	"r5\000"
 1081 0681 0A       		.byte	0xa
 1082 0682 1101     		.2byte	0x111
ARM GAS  /var/folders/m4/4md61f0s1_g0rzfghffqnxvr0000gn/T//ccoZmCqg.s 			page 20


 1083 0684 72050000 		.4byte	0x572
 1084 0688 44       		.byte	0x44
 1085 0689 0A       		.uleb128 0xa
 1086 068a 723600   		.ascii	"r6\000"
 1087 068d 0A       		.byte	0xa
 1088 068e 1201     		.2byte	0x112
 1089 0690 72050000 		.4byte	0x572
 1090 0694 48       		.byte	0x48
 1091 0695 0A       		.uleb128 0xa
 1092 0696 723700   		.ascii	"r7\000"
 1093 0699 0A       		.byte	0xa
 1094 069a 1301     		.2byte	0x113
 1095 069c 72050000 		.4byte	0x572
 1096 06a0 4C       		.byte	0x4c
 1097 06a1 0A       		.uleb128 0xa
 1098 06a2 723800   		.ascii	"r8\000"
 1099 06a5 0A       		.byte	0xa
 1100 06a6 1401     		.2byte	0x114
 1101 06a8 72050000 		.4byte	0x572
 1102 06ac 50       		.byte	0x50
 1103 06ad 0A       		.uleb128 0xa
 1104 06ae 723900   		.ascii	"r9\000"
 1105 06b1 0A       		.byte	0xa
 1106 06b2 1501     		.2byte	0x115
 1107 06b4 72050000 		.4byte	0x572
 1108 06b8 54       		.byte	0x54
 1109 06b9 0A       		.uleb128 0xa
 1110 06ba 72313000 		.ascii	"r10\000"
 1111 06be 0A       		.byte	0xa
 1112 06bf 1601     		.2byte	0x116
 1113 06c1 72050000 		.4byte	0x572
 1114 06c5 58       		.byte	0x58
 1115 06c6 0A       		.uleb128 0xa
 1116 06c7 72313100 		.ascii	"r11\000"
 1117 06cb 0A       		.byte	0xa
 1118 06cc 1701     		.2byte	0x117
 1119 06ce 72050000 		.4byte	0x572
 1120 06d2 5C       		.byte	0x5c
 1121 06d3 0A       		.uleb128 0xa
 1122 06d4 6C7200   		.ascii	"lr\000"
 1123 06d7 0A       		.byte	0xa
 1124 06d8 1801     		.2byte	0x118
 1125 06da 72050000 		.4byte	0x572
 1126 06de 60       		.byte	0x60
 1127 06df 00       		.byte	0
 1128 06e0 0C       		.uleb128 0xc
 1129 06e1 04       		.byte	0x4
 1130 06e2 96050000 		.4byte	0x596
 1131 06e6 19       		.uleb128 0x19
 1132 06e7 04       		.byte	0x4
 1133 06e8 0B       		.byte	0xb
 1134 06e9 38       		.byte	0x38
 1135 06ea 1A070000 		.4byte	.LASF118
 1136 06ee FF060000 		.4byte	0x6ff
 1137 06f2 09       		.uleb128 0x9
 1138 06f3 73070000 		.4byte	.LASF106
 1139 06f7 0B       		.byte	0xb
ARM GAS  /var/folders/m4/4md61f0s1_g0rzfghffqnxvr0000gn/T//ccoZmCqg.s 			page 21


 1140 06f8 3C       		.byte	0x3c
 1141 06f9 E1000000 		.4byte	0xe1
 1142 06fd 00       		.byte	0
 1143 06fe 00       		.byte	0
 1144 06ff 04       		.uleb128 0x4
 1145 0700 24050000 		.4byte	.LASF107
 1146 0704 0B       		.byte	0xb
 1147 0705 3D       		.byte	0x3d
 1148 0706 E6060000 		.4byte	0x6e6
 1149 070a 0C       		.uleb128 0xc
 1150 070b 04       		.byte	0x4
 1151 070c BC020000 		.4byte	0x2bc
 1152 0710 06       		.uleb128 0x6
 1153 0711 7B060000 		.4byte	.LASF108
 1154 0715 0C       		.byte	0xc
 1155 0716 0C       		.byte	0xc
 1156 0717 34       		.byte	0x34
 1157 0718 35070000 		.4byte	0x735
 1158 071c 09       		.uleb128 0x9
 1159 071d 53030000 		.4byte	.LASF109
 1160 0721 0C       		.byte	0xc
 1161 0722 35       		.byte	0x35
 1162 0723 F1020000 		.4byte	0x2f1
 1163 0727 00       		.byte	0
 1164 0728 09       		.uleb128 0x9
 1165 0729 18040000 		.4byte	.LASF110
 1166 072d 0C       		.byte	0xc
 1167 072e 37       		.byte	0x37
 1168 072f 39010000 		.4byte	0x139
 1169 0733 08       		.byte	0x8
 1170 0734 00       		.byte	0
 1171 0735 0C       		.uleb128 0xc
 1172 0736 04       		.byte	0x4
 1173 0737 10070000 		.4byte	0x710
 1174 073b 06       		.uleb128 0x6
 1175 073c 42080000 		.4byte	.LASF111
 1176 0740 10       		.byte	0x10
 1177 0741 0D       		.byte	0xd
 1178 0742 39       		.byte	0x39
 1179 0743 6C070000 		.4byte	0x76c
 1180 0747 09       		.uleb128 0x9
 1181 0748 2D010000 		.4byte	.LASF112
 1182 074c 0D       		.byte	0xd
 1183 074d 3A       		.byte	0x3a
 1184 074e F1020000 		.4byte	0x2f1
 1185 0752 00       		.byte	0
 1186 0753 09       		.uleb128 0x9
 1187 0754 89080000 		.4byte	.LASF113
 1188 0758 0D       		.byte	0xd
 1189 0759 3C       		.byte	0x3c
 1190 075a C7020000 		.4byte	0x2c7
 1191 075e 08       		.byte	0x8
 1192 075f 09       		.uleb128 0x9
 1193 0760 32070000 		.4byte	.LASF114
 1194 0764 0D       		.byte	0xd
 1195 0765 3E       		.byte	0x3e
 1196 0766 AF070000 		.4byte	0x7af
ARM GAS  /var/folders/m4/4md61f0s1_g0rzfghffqnxvr0000gn/T//ccoZmCqg.s 			page 22


 1197 076a 0C       		.byte	0xc
 1198 076b 00       		.byte	0
 1199 076c 0C       		.uleb128 0xc
 1200 076d 04       		.byte	0x4
 1201 076e 3B070000 		.4byte	0x73b
 1202 0772 0C       		.uleb128 0xc
 1203 0773 04       		.byte	0x4
 1204 0774 78070000 		.4byte	0x778
 1205 0778 1A       		.uleb128 0x1a
 1206 0779 7D070000 		.4byte	0x77d
 1207 077d 02       		.uleb128 0x2
 1208 077e 01       		.byte	0x1
 1209 077f 08       		.byte	0x8
 1210 0780 F9060000 		.4byte	.LASF115
 1211 0784 12       		.uleb128 0x12
 1212 0785 44010000 		.4byte	0x144
 1213 0789 0C       		.uleb128 0xc
 1214 078a 04       		.byte	0x4
 1215 078b A6030000 		.4byte	0x3a6
 1216 078f 12       		.uleb128 0x12
 1217 0790 72070000 		.4byte	0x772
 1218 0794 13       		.uleb128 0x13
 1219 0795 AE000000 		.4byte	0xae
 1220 0799 A4070000 		.4byte	0x7a4
 1221 079d 14       		.uleb128 0x14
 1222 079e DA040000 		.4byte	0x4da
 1223 07a2 3A       		.byte	0x3a
 1224 07a3 00       		.byte	0
 1225 07a4 04       		.uleb128 0x4
 1226 07a5 B1030000 		.4byte	.LASF116
 1227 07a9 0D       		.byte	0xd
 1228 07aa 34       		.byte	0x34
 1229 07ab 3B070000 		.4byte	0x73b
 1230 07af 0C       		.uleb128 0xc
 1231 07b0 04       		.byte	0x4
 1232 07b1 A4070000 		.4byte	0x7a4
 1233 07b5 02       		.uleb128 0x2
 1234 07b6 01       		.byte	0x1
 1235 07b7 02       		.byte	0x2
 1236 07b8 80040000 		.4byte	.LASF117
 1237 07bc 19       		.uleb128 0x19
 1238 07bd 2C       		.byte	0x2c
 1239 07be 0E       		.byte	0xe
 1240 07bf DD       		.byte	0xdd
 1241 07c0 BB040000 		.4byte	.LASF119
 1242 07c4 8E080000 		.4byte	0x88e
 1243 07c8 07       		.uleb128 0x7
 1244 07c9 04       		.byte	0x4
 1245 07ca 0E       		.byte	0xe
 1246 07cb E5       		.byte	0xe5
 1247 07cc 04080000 		.4byte	0x804
 1248 07d0 1B       		.uleb128 0x1b
 1249 07d1 04       		.byte	0x4
 1250 07d2 0E       		.byte	0xe
 1251 07d3 E7       		.byte	0xe7
 1252 07d4 F1070000 		.4byte	0x7f1
 1253 07d8 18       		.uleb128 0x18
ARM GAS  /var/folders/m4/4md61f0s1_g0rzfghffqnxvr0000gn/T//ccoZmCqg.s 			page 23


 1254 07d9 73657400 		.ascii	"set\000"
 1255 07dd 0E       		.byte	0xe
 1256 07de E8       		.byte	0xe8
 1257 07df C0000000 		.4byte	0xc0
 1258 07e3 00       		.byte	0
 1259 07e4 09       		.uleb128 0x9
 1260 07e5 05050000 		.4byte	.LASF120
 1261 07e9 0E       		.byte	0xe
 1262 07ea E9       		.byte	0xe9
 1263 07eb C0000000 		.4byte	0xc0
 1264 07ef 02       		.byte	0x2
 1265 07f0 00       		.byte	0
 1266 07f1 1C       		.uleb128 0x1c
 1267 07f2 5700     		.ascii	"W\000"
 1268 07f4 0E       		.byte	0xe
 1269 07f5 E6       		.byte	0xe6
 1270 07f6 D6000000 		.4byte	0xd6
 1271 07fa 1C       		.uleb128 0x1c
 1272 07fb 4800     		.ascii	"H\000"
 1273 07fd 0E       		.byte	0xe
 1274 07fe EA       		.byte	0xea
 1275 07ff D0070000 		.4byte	0x7d0
 1276 0803 00       		.byte	0
 1277 0804 09       		.uleb128 0x9
 1278 0805 AB030000 		.4byte	.LASF121
 1279 0809 0E       		.byte	0xe
 1280 080a DF       		.byte	0xdf
 1281 080b E1040000 		.4byte	0x4e1
 1282 080f 00       		.byte	0
 1283 0810 09       		.uleb128 0x9
 1284 0811 8C000000 		.4byte	.LASF122
 1285 0815 0E       		.byte	0xe
 1286 0816 E0       		.byte	0xe0
 1287 0817 E1040000 		.4byte	0x4e1
 1288 081b 04       		.byte	0x4
 1289 081c 09       		.uleb128 0x9
 1290 081d 6D030000 		.4byte	.LASF123
 1291 0821 0E       		.byte	0xe
 1292 0822 E1       		.byte	0xe1
 1293 0823 E1040000 		.4byte	0x4e1
 1294 0827 08       		.byte	0x8
 1295 0828 09       		.uleb128 0x9
 1296 0829 C1010000 		.4byte	.LASF124
 1297 082d 0E       		.byte	0xe
 1298 082e E2       		.byte	0xe2
 1299 082f E1040000 		.4byte	0x4e1
 1300 0833 0C       		.byte	0xc
 1301 0834 18       		.uleb128 0x18
 1302 0835 49445200 		.ascii	"IDR\000"
 1303 0839 0E       		.byte	0xe
 1304 083a E3       		.byte	0xe3
 1305 083b E1040000 		.4byte	0x4e1
 1306 083f 10       		.byte	0x10
 1307 0840 18       		.uleb128 0x18
 1308 0841 4F445200 		.ascii	"ODR\000"
 1309 0845 0E       		.byte	0xe
 1310 0846 E4       		.byte	0xe4
ARM GAS  /var/folders/m4/4md61f0s1_g0rzfghffqnxvr0000gn/T//ccoZmCqg.s 			page 24


 1311 0847 E1040000 		.4byte	0x4e1
 1312 084b 14       		.byte	0x14
 1313 084c 09       		.uleb128 0x9
 1314 084d 75010000 		.4byte	.LASF125
 1315 0851 0E       		.byte	0xe
 1316 0852 EB       		.byte	0xeb
 1317 0853 58080000 		.4byte	0x858
 1318 0857 18       		.byte	0x18
 1319 0858 12       		.uleb128 0x12
 1320 0859 C8070000 		.4byte	0x7c8
 1321 085d 09       		.uleb128 0x9
 1322 085e 13040000 		.4byte	.LASF126
 1323 0862 0E       		.byte	0xe
 1324 0863 EC       		.byte	0xec
 1325 0864 E1040000 		.4byte	0x4e1
 1326 0868 1C       		.byte	0x1c
 1327 0869 09       		.uleb128 0x9
 1328 086a 77050000 		.4byte	.LASF127
 1329 086e 0E       		.byte	0xe
 1330 086f ED       		.byte	0xed
 1331 0870 E1040000 		.4byte	0x4e1
 1332 0874 20       		.byte	0x20
 1333 0875 09       		.uleb128 0x9
 1334 0876 72050000 		.4byte	.LASF128
 1335 087a 0E       		.byte	0xe
 1336 087b EE       		.byte	0xee
 1337 087c E1040000 		.4byte	0x4e1
 1338 0880 24       		.byte	0x24
 1339 0881 18       		.uleb128 0x18
 1340 0882 42525200 		.ascii	"BRR\000"
 1341 0886 0E       		.byte	0xe
 1342 0887 EF       		.byte	0xef
 1343 0888 E1040000 		.4byte	0x4e1
 1344 088c 28       		.byte	0x28
 1345 088d 00       		.byte	0
 1346 088e 04       		.uleb128 0x4
 1347 088f 9E030000 		.4byte	.LASF129
 1348 0893 0E       		.byte	0xe
 1349 0894 F0       		.byte	0xf0
 1350 0895 BC070000 		.4byte	0x7bc
 1351 0899 1D       		.uleb128 0x1d
 1352 089a B6000000 		.4byte	.LASF130
 1353 089e 0E       		.byte	0xe
 1354 089f 3F01     		.2byte	0x13f
 1355 08a1 D6000000 		.4byte	0xd6
 1356 08a5 1D       		.uleb128 0x1d
 1357 08a6 E5040000 		.4byte	.LASF131
 1358 08aa 0E       		.byte	0xe
 1359 08ab 4401     		.2byte	0x144
 1360 08ad D6000000 		.4byte	0xd6
 1361 08b1 1D       		.uleb128 0x1d
 1362 08b2 7A070000 		.4byte	.LASF132
 1363 08b6 0E       		.byte	0xe
 1364 08b7 5101     		.2byte	0x151
 1365 08b9 BD080000 		.4byte	0x8bd
 1366 08bd 0C       		.uleb128 0xc
 1367 08be 04       		.byte	0x4
ARM GAS  /var/folders/m4/4md61f0s1_g0rzfghffqnxvr0000gn/T//ccoZmCqg.s 			page 25


 1368 08bf 8E080000 		.4byte	0x88e
 1369 08c3 15       		.uleb128 0x15
 1370 08c4 01       		.byte	0x1
 1371 08c5 0F       		.byte	0xf
 1372 08c6 4A       		.byte	0x4a
 1373 08c7 91030000 		.4byte	.LASF133
 1374 08cb E2080000 		.4byte	0x8e2
 1375 08cf 16       		.uleb128 0x16
 1376 08d0 7E080000 		.4byte	.LASF134
 1377 08d4 00       		.sleb128 0
 1378 08d5 16       		.uleb128 0x16
 1379 08d6 F0060000 		.4byte	.LASF135
 1380 08da 01       		.sleb128 1
 1381 08db 16       		.uleb128 0x16
 1382 08dc 3C010000 		.4byte	.LASF136
 1383 08e0 02       		.sleb128 2
 1384 08e1 00       		.byte	0
 1385 08e2 04       		.uleb128 0x4
 1386 08e3 25080000 		.4byte	.LASF137
 1387 08e7 0F       		.byte	0xf
 1388 08e8 4E       		.byte	0x4e
 1389 08e9 C3080000 		.4byte	0x8c3
 1390 08ed 04       		.uleb128 0x4
 1391 08ee 13080000 		.4byte	.LASF138
 1392 08f2 0F       		.byte	0xf
 1393 08f3 53       		.byte	0x53
 1394 08f4 F8080000 		.4byte	0x8f8
 1395 08f8 0D       		.uleb128 0xd
 1396 08f9 13080000 		.4byte	.LASF138
 1397 08fd 1C       		.byte	0x1c
 1398 08fe 10       		.byte	0x10
 1399 08ff B301     		.2byte	0x1b3
 1400 0901 61090000 		.4byte	0x961
 1401 0905 0B       		.uleb128 0xb
 1402 0906 C7010000 		.4byte	.LASF139
 1403 090a 10       		.byte	0x10
 1404 090b B701     		.2byte	0x1b7
 1405 090d E2080000 		.4byte	0x8e2
 1406 0911 00       		.byte	0
 1407 0912 0B       		.uleb128 0xb
 1408 0913 08070000 		.4byte	.LASF140
 1409 0917 10       		.byte	0x10
 1410 0918 BB01     		.2byte	0x1bb
 1411 091a 850B0000 		.4byte	0xb85
 1412 091e 04       		.byte	0x4
 1413 091f 0B       		.uleb128 0xb
 1414 0920 C3000000 		.4byte	.LASF141
 1415 0924 10       		.byte	0x10
 1416 0925 BF01     		.2byte	0x1bf
 1417 0927 CD0A0000 		.4byte	0xacd
 1418 092b 08       		.byte	0x8
 1419 092c 0B       		.uleb128 0xb
 1420 092d 85070000 		.4byte	.LASF142
 1421 0931 10       		.byte	0x10
 1422 0932 C301     		.2byte	0x1c3
 1423 0934 C10A0000 		.4byte	0xac1
 1424 0938 0C       		.byte	0xc
ARM GAS  /var/folders/m4/4md61f0s1_g0rzfghffqnxvr0000gn/T//ccoZmCqg.s 			page 26


 1425 0939 0B       		.uleb128 0xb
 1426 093a C3050000 		.4byte	.LASF143
 1427 093e 10       		.byte	0x10
 1428 093f C701     		.2byte	0x1c7
 1429 0941 B50A0000 		.4byte	0xab5
 1430 0945 10       		.byte	0x10
 1431 0946 0B       		.uleb128 0xb
 1432 0947 72080000 		.4byte	.LASF144
 1433 094b 10       		.byte	0x10
 1434 094c CF01     		.2byte	0x1cf
 1435 094e D6000000 		.4byte	0xd6
 1436 0952 14       		.byte	0x14
 1437 0953 0A       		.uleb128 0xa
 1438 0954 74696D00 		.ascii	"tim\000"
 1439 0958 10       		.byte	0x10
 1440 0959 D301     		.2byte	0x1d3
 1441 095b 900B0000 		.4byte	0xb90
 1442 095f 18       		.byte	0x18
 1443 0960 00       		.byte	0
 1444 0961 04       		.uleb128 0x4
 1445 0962 7C050000 		.4byte	.LASF145
 1446 0966 0F       		.byte	0xf
 1447 0967 5A       		.byte	0x5a
 1448 0968 6C090000 		.4byte	0x96c
 1449 096c 0C       		.uleb128 0xc
 1450 096d 04       		.byte	0x4
 1451 096e 72090000 		.4byte	0x972
 1452 0972 0E       		.uleb128 0xe
 1453 0973 7D090000 		.4byte	0x97d
 1454 0977 0F       		.uleb128 0xf
 1455 0978 7D090000 		.4byte	0x97d
 1456 097c 00       		.byte	0
 1457 097d 0C       		.uleb128 0xc
 1458 097e 04       		.byte	0x4
 1459 097f ED080000 		.4byte	0x8ed
 1460 0983 1E       		.uleb128 0x1e
 1461 0984 60       		.byte	0x60
 1462 0985 11       		.byte	0x11
 1463 0986 A101     		.2byte	0x1a1
 1464 0988 7E000000 		.4byte	.LASF160
 1465 098c 930A0000 		.4byte	0xa93
 1466 0990 0A       		.uleb128 0xa
 1467 0991 43523100 		.ascii	"CR1\000"
 1468 0995 11       		.byte	0x11
 1469 0996 A201     		.2byte	0x1a2
 1470 0998 E1040000 		.4byte	0x4e1
 1471 099c 00       		.byte	0
 1472 099d 0A       		.uleb128 0xa
 1473 099e 43523200 		.ascii	"CR2\000"
 1474 09a2 11       		.byte	0x11
 1475 09a3 A301     		.2byte	0x1a3
 1476 09a5 E1040000 		.4byte	0x4e1
 1477 09a9 04       		.byte	0x4
 1478 09aa 0B       		.uleb128 0xb
 1479 09ab 03070000 		.4byte	.LASF146
 1480 09af 11       		.byte	0x11
 1481 09b0 A401     		.2byte	0x1a4
ARM GAS  /var/folders/m4/4md61f0s1_g0rzfghffqnxvr0000gn/T//ccoZmCqg.s 			page 27


 1482 09b2 E1040000 		.4byte	0x4e1
 1483 09b6 08       		.byte	0x8
 1484 09b7 0B       		.uleb128 0xb
 1485 09b8 4E000000 		.4byte	.LASF147
 1486 09bc 11       		.byte	0x11
 1487 09bd A501     		.2byte	0x1a5
 1488 09bf E1040000 		.4byte	0x4e1
 1489 09c3 0C       		.byte	0xc
 1490 09c4 0A       		.uleb128 0xa
 1491 09c5 535200   		.ascii	"SR\000"
 1492 09c8 11       		.byte	0x11
 1493 09c9 A601     		.2byte	0x1a6
 1494 09cb E1040000 		.4byte	0x4e1
 1495 09cf 10       		.byte	0x10
 1496 09d0 0A       		.uleb128 0xa
 1497 09d1 45475200 		.ascii	"EGR\000"
 1498 09d5 11       		.byte	0x11
 1499 09d6 A701     		.2byte	0x1a7
 1500 09d8 E1040000 		.4byte	0x4e1
 1501 09dc 14       		.byte	0x14
 1502 09dd 0B       		.uleb128 0xb
 1503 09de 4F010000 		.4byte	.LASF148
 1504 09e2 11       		.byte	0x11
 1505 09e3 A801     		.2byte	0x1a8
 1506 09e5 E1040000 		.4byte	0x4e1
 1507 09e9 18       		.byte	0x18
 1508 09ea 0B       		.uleb128 0xb
 1509 09eb 55010000 		.4byte	.LASF149
 1510 09ef 11       		.byte	0x11
 1511 09f0 A901     		.2byte	0x1a9
 1512 09f2 E1040000 		.4byte	0x4e1
 1513 09f6 1C       		.byte	0x1c
 1514 09f7 0B       		.uleb128 0xb
 1515 09f8 2D070000 		.4byte	.LASF150
 1516 09fc 11       		.byte	0x11
 1517 09fd AA01     		.2byte	0x1aa
 1518 09ff E1040000 		.4byte	0x4e1
 1519 0a03 20       		.byte	0x20
 1520 0a04 0A       		.uleb128 0xa
 1521 0a05 434E5400 		.ascii	"CNT\000"
 1522 0a09 11       		.byte	0x11
 1523 0a0a AB01     		.2byte	0x1ab
 1524 0a0c E1040000 		.4byte	0x4e1
 1525 0a10 24       		.byte	0x24
 1526 0a11 0A       		.uleb128 0xa
 1527 0a12 50534300 		.ascii	"PSC\000"
 1528 0a16 11       		.byte	0x11
 1529 0a17 AC01     		.2byte	0x1ac
 1530 0a19 E1040000 		.4byte	0x4e1
 1531 0a1d 28       		.byte	0x28
 1532 0a1e 0A       		.uleb128 0xa
 1533 0a1f 41525200 		.ascii	"ARR\000"
 1534 0a23 11       		.byte	0x11
 1535 0a24 AD01     		.2byte	0x1ad
 1536 0a26 E1040000 		.4byte	0x4e1
 1537 0a2a 2C       		.byte	0x2c
 1538 0a2b 0A       		.uleb128 0xa
ARM GAS  /var/folders/m4/4md61f0s1_g0rzfghffqnxvr0000gn/T//ccoZmCqg.s 			page 28


 1539 0a2c 52435200 		.ascii	"RCR\000"
 1540 0a30 11       		.byte	0x11
 1541 0a31 AE01     		.2byte	0x1ae
 1542 0a33 E1040000 		.4byte	0x4e1
 1543 0a37 30       		.byte	0x30
 1544 0a38 0A       		.uleb128 0xa
 1545 0a39 43435200 		.ascii	"CCR\000"
 1546 0a3d 11       		.byte	0x11
 1547 0a3e AF01     		.2byte	0x1af
 1548 0a40 930A0000 		.4byte	0xa93
 1549 0a44 34       		.byte	0x34
 1550 0a45 0B       		.uleb128 0xb
 1551 0a46 17010000 		.4byte	.LASF151
 1552 0a4a 11       		.byte	0x11
 1553 0a4b B001     		.2byte	0x1b0
 1554 0a4d E1040000 		.4byte	0x4e1
 1555 0a51 44       		.byte	0x44
 1556 0a52 0A       		.uleb128 0xa
 1557 0a53 44435200 		.ascii	"DCR\000"
 1558 0a57 11       		.byte	0x11
 1559 0a58 B101     		.2byte	0x1b1
 1560 0a5a E1040000 		.4byte	0x4e1
 1561 0a5e 48       		.byte	0x48
 1562 0a5f 0B       		.uleb128 0xb
 1563 0a60 6D050000 		.4byte	.LASF152
 1564 0a64 11       		.byte	0x11
 1565 0a65 B201     		.2byte	0x1b2
 1566 0a67 E1040000 		.4byte	0x4e1
 1567 0a6b 4C       		.byte	0x4c
 1568 0a6c 0A       		.uleb128 0xa
 1569 0a6d 4F5200   		.ascii	"OR\000"
 1570 0a70 11       		.byte	0x11
 1571 0a71 B301     		.2byte	0x1b3
 1572 0a73 E1040000 		.4byte	0x4e1
 1573 0a77 50       		.byte	0x50
 1574 0a78 0B       		.uleb128 0xb
 1575 0a79 B0000000 		.4byte	.LASF153
 1576 0a7d 11       		.byte	0x11
 1577 0a7e B401     		.2byte	0x1b4
 1578 0a80 E1040000 		.4byte	0x4e1
 1579 0a84 54       		.byte	0x54
 1580 0a85 0B       		.uleb128 0xb
 1581 0a86 88060000 		.4byte	.LASF154
 1582 0a8a 11       		.byte	0x11
 1583 0a8b B501     		.2byte	0x1b5
 1584 0a8d 980A0000 		.4byte	0xa98
 1585 0a91 58       		.byte	0x58
 1586 0a92 00       		.byte	0
 1587 0a93 12       		.uleb128 0x12
 1588 0a94 F6040000 		.4byte	0x4f6
 1589 0a98 12       		.uleb128 0x12
 1590 0a99 E6040000 		.4byte	0x4e6
 1591 0a9d 1D       		.uleb128 0x1d
 1592 0a9e 7A010000 		.4byte	.LASF155
 1593 0aa2 11       		.byte	0x11
 1594 0aa3 B601     		.2byte	0x1b6
 1595 0aa5 83090000 		.4byte	0x983
ARM GAS  /var/folders/m4/4md61f0s1_g0rzfghffqnxvr0000gn/T//ccoZmCqg.s 			page 29


 1596 0aa9 1D       		.uleb128 0x1d
 1597 0aaa A0010000 		.4byte	.LASF156
 1598 0aae 10       		.byte	0x10
 1599 0aaf 5F01     		.2byte	0x15f
 1600 0ab1 D6000000 		.4byte	0xd6
 1601 0ab5 1D       		.uleb128 0x1d
 1602 0ab6 34000000 		.4byte	.LASF157
 1603 0aba 10       		.byte	0x10
 1604 0abb 6401     		.2byte	0x164
 1605 0abd B5000000 		.4byte	0xb5
 1606 0ac1 1D       		.uleb128 0x1d
 1607 0ac2 4E060000 		.4byte	.LASF158
 1608 0ac6 10       		.byte	0x10
 1609 0ac7 6901     		.2byte	0x169
 1610 0ac9 D6000000 		.4byte	0xd6
 1611 0acd 1D       		.uleb128 0x1d
 1612 0ace 39080000 		.4byte	.LASF159
 1613 0ad2 10       		.byte	0x10
 1614 0ad3 6E01     		.2byte	0x16e
 1615 0ad5 D6000000 		.4byte	0xd6
 1616 0ad9 1E       		.uleb128 0x1e
 1617 0ada 08       		.byte	0x8
 1618 0adb 10       		.byte	0x10
 1619 0adc 7301     		.2byte	0x173
 1620 0ade F2050000 		.4byte	.LASF161
 1621 0ae2 010B0000 		.4byte	0xb01
 1622 0ae6 0B       		.uleb128 0xb
 1623 0ae7 FE060000 		.4byte	.LASF162
 1624 0aeb 10       		.byte	0x10
 1625 0aec 7701     		.2byte	0x177
 1626 0aee A90A0000 		.4byte	0xaa9
 1627 0af2 00       		.byte	0
 1628 0af3 0B       		.uleb128 0xb
 1629 0af4 6F040000 		.4byte	.LASF163
 1630 0af8 10       		.byte	0x10
 1631 0af9 7D01     		.2byte	0x17d
 1632 0afb 61090000 		.4byte	0x961
 1633 0aff 04       		.byte	0x4
 1634 0b00 00       		.byte	0
 1635 0b01 1D       		.uleb128 0x1d
 1636 0b02 A3070000 		.4byte	.LASF164
 1637 0b06 10       		.byte	0x10
 1638 0b07 7F01     		.2byte	0x17f
 1639 0b09 D90A0000 		.4byte	0xad9
 1640 0b0d 1E       		.uleb128 0x1e
 1641 0b0e 34       		.byte	0x34
 1642 0b0f 10       		.byte	0x10
 1643 0b10 8401     		.2byte	0x184
 1644 0b12 68000000 		.4byte	.LASF165
 1645 0b16 690B0000 		.4byte	0xb69
 1646 0b1a 0B       		.uleb128 0xb
 1647 0b1b 4C040000 		.4byte	.LASF166
 1648 0b1f 10       		.byte	0x10
 1649 0b20 8A01     		.2byte	0x18a
 1650 0b22 D6000000 		.4byte	0xd6
 1651 0b26 00       		.byte	0
 1652 0b27 0B       		.uleb128 0xb
ARM GAS  /var/folders/m4/4md61f0s1_g0rzfghffqnxvr0000gn/T//ccoZmCqg.s 			page 30


 1653 0b28 C3000000 		.4byte	.LASF141
 1654 0b2c 10       		.byte	0x10
 1655 0b2d 9001     		.2byte	0x190
 1656 0b2f CD0A0000 		.4byte	0xacd
 1657 0b33 04       		.byte	0x4
 1658 0b34 0B       		.uleb128 0xb
 1659 0b35 6F040000 		.4byte	.LASF163
 1660 0b39 10       		.byte	0x10
 1661 0b3a 9601     		.2byte	0x196
 1662 0b3c 61090000 		.4byte	0x961
 1663 0b40 08       		.byte	0x8
 1664 0b41 0B       		.uleb128 0xb
 1665 0b42 C3050000 		.4byte	.LASF143
 1666 0b46 10       		.byte	0x10
 1667 0b47 9A01     		.2byte	0x19a
 1668 0b49 690B0000 		.4byte	0xb69
 1669 0b4d 0C       		.byte	0xc
 1670 0b4e 0A       		.uleb128 0xa
 1671 0b4f 63723200 		.ascii	"cr2\000"
 1672 0b53 10       		.byte	0x10
 1673 0b54 A001     		.2byte	0x1a0
 1674 0b56 D6000000 		.4byte	0xd6
 1675 0b5a 2C       		.byte	0x2c
 1676 0b5b 0B       		.uleb128 0xb
 1677 0b5c A8080000 		.4byte	.LASF167
 1678 0b60 10       		.byte	0x10
 1679 0b61 AD01     		.2byte	0x1ad
 1680 0b63 D6000000 		.4byte	0xd6
 1681 0b67 30       		.byte	0x30
 1682 0b68 00       		.byte	0
 1683 0b69 13       		.uleb128 0x13
 1684 0b6a 010B0000 		.4byte	0xb01
 1685 0b6e 790B0000 		.4byte	0xb79
 1686 0b72 14       		.uleb128 0x14
 1687 0b73 DA040000 		.4byte	0x4da
 1688 0b77 03       		.byte	0x3
 1689 0b78 00       		.byte	0
 1690 0b79 1D       		.uleb128 0x1d
 1691 0b7a CA060000 		.4byte	.LASF168
 1692 0b7e 10       		.byte	0x10
 1693 0b7f AE01     		.2byte	0x1ae
 1694 0b81 0D0B0000 		.4byte	0xb0d
 1695 0b85 0C       		.uleb128 0xc
 1696 0b86 04       		.byte	0x4
 1697 0b87 8B0B0000 		.4byte	0xb8b
 1698 0b8b 1A       		.uleb128 0x1a
 1699 0b8c 790B0000 		.4byte	0xb79
 1700 0b90 0C       		.uleb128 0xc
 1701 0b91 04       		.byte	0x4
 1702 0b92 9D0A0000 		.4byte	0xa9d
 1703 0b96 1F       		.uleb128 0x1f
 1704 0b97 A9050000 		.4byte	.LASF179
 1705 0b9b 01       		.byte	0x1
 1706 0b9c 51       		.byte	0x51
 1707 0b9d 01       		.byte	0x1
 1708 0b9e AE0B0000 		.4byte	0xbae
 1709 0ba2 20       		.uleb128 0x20
ARM GAS  /var/folders/m4/4md61f0s1_g0rzfghffqnxvr0000gn/T//ccoZmCqg.s 			page 31


 1710 0ba3 11050000 		.4byte	.LASF170
 1711 0ba7 01       		.byte	0x1
 1712 0ba8 51       		.byte	0x51
 1713 0ba9 25000000 		.4byte	0x25
 1714 0bad 00       		.byte	0
 1715 0bae 21       		.uleb128 0x21
 1716 0baf 2C000000 		.4byte	.LASF171
 1717 0bb3 01       		.byte	0x1
 1718 0bb4 2F       		.byte	0x2f
 1719 0bb5 3F040000 		.4byte	.LASF173
 1720 0bb9 00000000 		.4byte	.LFB269
 1721 0bbd 8C000000 		.4byte	.LFE269-.LFB269
 1722 0bc1 01       		.uleb128 0x1
 1723 0bc2 9C       		.byte	0x9c
 1724 0bc3 5E0C0000 		.4byte	0xc5e
 1725 0bc7 22       		.uleb128 0x22
 1726 0bc8 62060000 		.4byte	.LASF169
 1727 0bcc 01       		.byte	0x1
 1728 0bcd 2F       		.byte	0x2f
 1729 0bce B5000000 		.4byte	0xb5
 1730 0bd2 00000000 		.4byte	.LLST0
 1731 0bd6 22       		.uleb128 0x22
 1732 0bd7 11050000 		.4byte	.LASF170
 1733 0bdb 01       		.byte	0x1
 1734 0bdc 2F       		.byte	0x2f
 1735 0bdd 25000000 		.4byte	0x25
 1736 0be1 21000000 		.4byte	.LLST1
 1737 0be5 23       		.uleb128 0x23
 1738 0be6 00000000 		.4byte	.Ldebug_ranges0+0
 1739 0bea 24       		.uleb128 0x24
 1740 0beb 21060000 		.4byte	.LASF177
 1741 0bef 01       		.byte	0x1
 1742 0bf0 30       		.byte	0x30
 1743 0bf1 D6000000 		.4byte	0xd6
 1744 0bf5 4B000000 		.4byte	.LLST2
 1745 0bf9 25       		.uleb128 0x25
 1746 0bfa 3C000000 		.4byte	.LVL8
 1747 0bfe CD0D0000 		.4byte	0xdcd
 1748 0c02 26       		.uleb128 0x26
 1749 0c03 4E000000 		.4byte	.LVL10
 1750 0c07 CD0D0000 		.4byte	0xdcd
 1751 0c0b 1B0C0000 		.4byte	0xc1b
 1752 0c0f 27       		.uleb128 0x27
 1753 0c10 01       		.uleb128 0x1
 1754 0c11 52       		.byte	0x52
 1755 0c12 02       		.uleb128 0x2
 1756 0c13 75       		.byte	0x75
 1757 0c14 00       		.sleb128 0
 1758 0c15 27       		.uleb128 0x27
 1759 0c16 01       		.uleb128 0x1
 1760 0c17 51       		.byte	0x51
 1761 0c18 01       		.uleb128 0x1
 1762 0c19 30       		.byte	0x30
 1763 0c1a 00       		.byte	0
 1764 0c1b 26       		.uleb128 0x26
 1765 0c1c 58000000 		.4byte	.LVL11
 1766 0c20 CD0D0000 		.4byte	0xdcd
ARM GAS  /var/folders/m4/4md61f0s1_g0rzfghffqnxvr0000gn/T//ccoZmCqg.s 			page 32


 1767 0c24 340C0000 		.4byte	0xc34
 1768 0c28 27       		.uleb128 0x27
 1769 0c29 01       		.uleb128 0x1
 1770 0c2a 52       		.byte	0x52
 1771 0c2b 02       		.uleb128 0x2
 1772 0c2c 75       		.byte	0x75
 1773 0c2d 00       		.sleb128 0
 1774 0c2e 27       		.uleb128 0x27
 1775 0c2f 01       		.uleb128 0x1
 1776 0c30 51       		.byte	0x51
 1777 0c31 01       		.uleb128 0x1
 1778 0c32 31       		.byte	0x31
 1779 0c33 00       		.byte	0
 1780 0c34 26       		.uleb128 0x26
 1781 0c35 62000000 		.4byte	.LVL12
 1782 0c39 CD0D0000 		.4byte	0xdcd
 1783 0c3d 4D0C0000 		.4byte	0xc4d
 1784 0c41 27       		.uleb128 0x27
 1785 0c42 01       		.uleb128 0x1
 1786 0c43 52       		.byte	0x52
 1787 0c44 02       		.uleb128 0x2
 1788 0c45 75       		.byte	0x75
 1789 0c46 00       		.sleb128 0
 1790 0c47 27       		.uleb128 0x27
 1791 0c48 01       		.uleb128 0x1
 1792 0c49 51       		.byte	0x51
 1793 0c4a 01       		.uleb128 0x1
 1794 0c4b 32       		.byte	0x32
 1795 0c4c 00       		.byte	0
 1796 0c4d 28       		.uleb128 0x28
 1797 0c4e 70000000 		.4byte	.LVL14
 1798 0c52 CD0D0000 		.4byte	0xdcd
 1799 0c56 27       		.uleb128 0x27
 1800 0c57 01       		.uleb128 0x1
 1801 0c58 51       		.byte	0x51
 1802 0c59 01       		.uleb128 0x1
 1803 0c5a 33       		.byte	0x33
 1804 0c5b 00       		.byte	0
 1805 0c5c 00       		.byte	0
 1806 0c5d 00       		.byte	0
 1807 0c5e 29       		.uleb128 0x29
 1808 0c5f 5B030000 		.4byte	.LASF172
 1809 0c63 01       		.byte	0x1
 1810 0c64 18       		.byte	0x18
 1811 0c65 B2060000 		.4byte	.LASF174
 1812 0c69 00000000 		.4byte	.LFB268
 1813 0c6d 64000000 		.4byte	.LFE268-.LFB268
 1814 0c71 01       		.uleb128 0x1
 1815 0c72 9C       		.byte	0x9c
 1816 0c73 530D0000 		.4byte	0xd53
 1817 0c77 2A       		.uleb128 0x2a
 1818 0c78 960B0000 		.4byte	0xb96
 1819 0c7c 3C000000 		.4byte	.LBB7
 1820 0c80 20000000 		.4byte	.Ldebug_ranges0+0x20
 1821 0c84 01       		.byte	0x1
 1822 0c85 2C       		.byte	0x2c
 1823 0c86 BF0C0000 		.4byte	0xcbf
ARM GAS  /var/folders/m4/4md61f0s1_g0rzfghffqnxvr0000gn/T//ccoZmCqg.s 			page 33


 1824 0c8a 2B       		.uleb128 0x2b
 1825 0c8b A20B0000 		.4byte	0xba2
 1826 0c8f 08       		.byte	0x8
 1827 0c90 00000000 		.4byte	0
 1828 0c94 00000000 		.4byte	0
 1829 0c98 28       		.uleb128 0x28
 1830 0c99 4A000000 		.4byte	.LVL20
 1831 0c9d AE0B0000 		.4byte	0xbae
 1832 0ca1 27       		.uleb128 0x27
 1833 0ca2 08       		.uleb128 0x8
 1834 0ca3 90       		.byte	0x90
 1835 0ca4 40       		.uleb128 0x40
 1836 0ca5 93       		.byte	0x93
 1837 0ca6 04       		.uleb128 0x4
 1838 0ca7 90       		.byte	0x90
 1839 0ca8 41       		.uleb128 0x41
 1840 0ca9 93       		.byte	0x93
 1841 0caa 04       		.uleb128 0x4
 1842 0cab 0B       		.uleb128 0xb
 1843 0cac F4       		.byte	0xf4
 1844 0cad 25       		.uleb128 0x25
 1845 0cae 08       		.byte	0x8
 1846 0caf 00000000 		.4byte	0
 1847 0cb3 00000000 		.4byte	0
 1848 0cb7 27       		.uleb128 0x27
 1849 0cb8 01       		.uleb128 0x1
 1850 0cb9 50       		.byte	0x50
 1851 0cba 02       		.uleb128 0x2
 1852 0cbb 09       		.byte	0x9
 1853 0cbc FF       		.byte	0xff
 1854 0cbd 00       		.byte	0
 1855 0cbe 00       		.byte	0
 1856 0cbf 26       		.uleb128 0x26
 1857 0cc0 0C000000 		.4byte	.LVL15
 1858 0cc4 E90D0000 		.4byte	0xde9
 1859 0cc8 D60C0000 		.4byte	0xcd6
 1860 0ccc 27       		.uleb128 0x27
 1861 0ccd 01       		.uleb128 0x1
 1862 0cce 51       		.byte	0x51
 1863 0ccf 05       		.uleb128 0x5
 1864 0cd0 03       		.byte	0x3
 1865 0cd1 00000000 		.4byte	.LANCHOR0
 1866 0cd5 00       		.byte	0
 1867 0cd6 26       		.uleb128 0x26
 1868 0cd7 18000000 		.4byte	.LVL16
 1869 0cdb 000E0000 		.4byte	0xe00
 1870 0cdf F60C0000 		.4byte	0xcf6
 1871 0ce3 27       		.uleb128 0x27
 1872 0ce4 01       		.uleb128 0x1
 1873 0ce5 52       		.byte	0x52
 1874 0ce6 03       		.uleb128 0x3
 1875 0ce7 0A       		.byte	0xa
 1876 0ce8 0A01     		.2byte	0x10a
 1877 0cea 27       		.uleb128 0x27
 1878 0ceb 01       		.uleb128 0x1
 1879 0cec 51       		.byte	0x51
 1880 0ced 01       		.uleb128 0x1
ARM GAS  /var/folders/m4/4md61f0s1_g0rzfghffqnxvr0000gn/T//ccoZmCqg.s 			page 34


 1881 0cee 31       		.byte	0x31
 1882 0cef 27       		.uleb128 0x27
 1883 0cf0 01       		.uleb128 0x1
 1884 0cf1 50       		.byte	0x50
 1885 0cf2 02       		.uleb128 0x2
 1886 0cf3 74       		.byte	0x74
 1887 0cf4 00       		.sleb128 0
 1888 0cf5 00       		.byte	0
 1889 0cf6 26       		.uleb128 0x26
 1890 0cf7 24000000 		.4byte	.LVL17
 1891 0cfb 000E0000 		.4byte	0xe00
 1892 0cff 160D0000 		.4byte	0xd16
 1893 0d03 27       		.uleb128 0x27
 1894 0d04 01       		.uleb128 0x1
 1895 0d05 52       		.byte	0x52
 1896 0d06 03       		.uleb128 0x3
 1897 0d07 0A       		.byte	0xa
 1898 0d08 0A01     		.2byte	0x10a
 1899 0d0a 27       		.uleb128 0x27
 1900 0d0b 01       		.uleb128 0x1
 1901 0d0c 51       		.byte	0x51
 1902 0d0d 01       		.uleb128 0x1
 1903 0d0e 32       		.byte	0x32
 1904 0d0f 27       		.uleb128 0x27
 1905 0d10 01       		.uleb128 0x1
 1906 0d11 50       		.byte	0x50
 1907 0d12 02       		.uleb128 0x2
 1908 0d13 74       		.byte	0x74
 1909 0d14 00       		.sleb128 0
 1910 0d15 00       		.byte	0
 1911 0d16 26       		.uleb128 0x26
 1912 0d17 30000000 		.4byte	.LVL18
 1913 0d1b 000E0000 		.4byte	0xe00
 1914 0d1f 360D0000 		.4byte	0xd36
 1915 0d23 27       		.uleb128 0x27
 1916 0d24 01       		.uleb128 0x1
 1917 0d25 52       		.byte	0x52
 1918 0d26 03       		.uleb128 0x3
 1919 0d27 0A       		.byte	0xa
 1920 0d28 0A01     		.2byte	0x10a
 1921 0d2a 27       		.uleb128 0x27
 1922 0d2b 01       		.uleb128 0x1
 1923 0d2c 51       		.byte	0x51
 1924 0d2d 01       		.uleb128 0x1
 1925 0d2e 34       		.byte	0x34
 1926 0d2f 27       		.uleb128 0x27
 1927 0d30 01       		.uleb128 0x1
 1928 0d31 50       		.byte	0x50
 1929 0d32 02       		.uleb128 0x2
 1930 0d33 74       		.byte	0x74
 1931 0d34 00       		.sleb128 0
 1932 0d35 00       		.byte	0
 1933 0d36 2C       		.uleb128 0x2c
 1934 0d37 3C000000 		.4byte	.LVL19
 1935 0d3b 000E0000 		.4byte	0xe00
 1936 0d3f 27       		.uleb128 0x27
 1937 0d40 01       		.uleb128 0x1
ARM GAS  /var/folders/m4/4md61f0s1_g0rzfghffqnxvr0000gn/T//ccoZmCqg.s 			page 35


 1938 0d41 52       		.byte	0x52
 1939 0d42 03       		.uleb128 0x3
 1940 0d43 0A       		.byte	0xa
 1941 0d44 0A01     		.2byte	0x10a
 1942 0d46 27       		.uleb128 0x27
 1943 0d47 01       		.uleb128 0x1
 1944 0d48 51       		.byte	0x51
 1945 0d49 01       		.uleb128 0x1
 1946 0d4a 38       		.byte	0x38
 1947 0d4b 27       		.uleb128 0x27
 1948 0d4c 01       		.uleb128 0x1
 1949 0d4d 50       		.byte	0x50
 1950 0d4e 02       		.uleb128 0x2
 1951 0d4f 74       		.byte	0x74
 1952 0d50 00       		.sleb128 0
 1953 0d51 00       		.byte	0
 1954 0d52 00       		.byte	0
 1955 0d53 2D       		.uleb128 0x2d
 1956 0d54 960B0000 		.4byte	0xb96
 1957 0d58 CD070000 		.4byte	.LASF186
 1958 0d5c 00000000 		.4byte	.LFB270
 1959 0d60 06000000 		.4byte	.LFE270-.LFB270
 1960 0d64 01       		.uleb128 0x1
 1961 0d65 9C       		.byte	0x9c
 1962 0d66 940D0000 		.4byte	0xd94
 1963 0d6a 2E       		.uleb128 0x2e
 1964 0d6b A20B0000 		.4byte	0xba2
 1965 0d6f A0000000 		.4byte	.LLST3
 1966 0d73 28       		.uleb128 0x28
 1967 0d74 06000000 		.4byte	.LVL22
 1968 0d78 AE0B0000 		.4byte	0xbae
 1969 0d7c 27       		.uleb128 0x27
 1970 0d7d 08       		.uleb128 0x8
 1971 0d7e 90       		.byte	0x90
 1972 0d7f 40       		.uleb128 0x40
 1973 0d80 93       		.byte	0x93
 1974 0d81 04       		.uleb128 0x4
 1975 0d82 90       		.byte	0x90
 1976 0d83 41       		.uleb128 0x41
 1977 0d84 93       		.byte	0x93
 1978 0d85 04       		.uleb128 0x4
 1979 0d86 05       		.uleb128 0x5
 1980 0d87 F3       		.byte	0xf3
 1981 0d88 03       		.uleb128 0x3
 1982 0d89 F5       		.byte	0xf5
 1983 0d8a 40       		.uleb128 0x40
 1984 0d8b 25       		.uleb128 0x25
 1985 0d8c 27       		.uleb128 0x27
 1986 0d8d 01       		.uleb128 0x1
 1987 0d8e 50       		.byte	0x50
 1988 0d8f 02       		.uleb128 0x2
 1989 0d90 09       		.byte	0x9
 1990 0d91 FF       		.byte	0xff
 1991 0d92 00       		.byte	0
 1992 0d93 00       		.byte	0
 1993 0d94 2F       		.uleb128 0x2f
 1994 0d95 0A010000 		.4byte	.LASF175
ARM GAS  /var/folders/m4/4md61f0s1_g0rzfghffqnxvr0000gn/T//ccoZmCqg.s 			page 36


 1995 0d99 12       		.byte	0x12
 1996 0d9a FA06     		.2byte	0x6fa
 1997 0d9c A00D0000 		.4byte	0xda0
 1998 0da0 12       		.uleb128 0x12
 1999 0da1 CB000000 		.4byte	0xcb
 2000 0da5 30       		.uleb128 0x30
 2001 0da6 636800   		.ascii	"ch\000"
 2002 0da9 07       		.byte	0x7
 2003 0daa 0902     		.2byte	0x209
 2004 0dac 73040000 		.4byte	0x473
 2005 0db0 2F       		.uleb128 0x2f
 2006 0db1 BB010000 		.4byte	.LASF176
 2007 0db5 10       		.byte	0x10
 2008 0db6 0202     		.2byte	0x202
 2009 0db8 ED080000 		.4byte	0x8ed
 2010 0dbc 31       		.uleb128 0x31
 2011 0dbd BF070000 		.4byte	.LASF178
 2012 0dc1 01       		.byte	0x1
 2013 0dc2 0A       		.byte	0xa
 2014 0dc3 790B0000 		.4byte	0xb79
 2015 0dc7 05       		.uleb128 0x5
 2016 0dc8 03       		.byte	0x3
 2017 0dc9 00000000 		.4byte	_ZL6pwmcfg
 2018 0dcd 32       		.uleb128 0x32
 2019 0dce 52080000 		.4byte	.LASF180
 2020 0dd2 0F       		.byte	0xf
 2021 0dd3 2401     		.2byte	0x124
 2022 0dd5 E90D0000 		.4byte	0xde9
 2023 0dd9 0F       		.uleb128 0xf
 2024 0dda 7D090000 		.4byte	0x97d
 2025 0dde 0F       		.uleb128 0xf
 2026 0ddf B50A0000 		.4byte	0xab5
 2027 0de3 0F       		.uleb128 0xf
 2028 0de4 CD0A0000 		.4byte	0xacd
 2029 0de8 00       		.byte	0
 2030 0de9 32       		.uleb128 0x32
 2031 0dea 46010000 		.4byte	.LASF181
 2032 0dee 0F       		.byte	0xf
 2033 0def 2101     		.2byte	0x121
 2034 0df1 000E0000 		.4byte	0xe00
 2035 0df5 0F       		.uleb128 0xf
 2036 0df6 7D090000 		.4byte	0x97d
 2037 0dfa 0F       		.uleb128 0xf
 2038 0dfb 850B0000 		.4byte	0xb85
 2039 0dff 00       		.byte	0
 2040 0e00 33       		.uleb128 0x33
 2041 0e01 8D070000 		.4byte	.LASF187
 2042 0e05 0E       		.byte	0xe
 2043 0e06 2402     		.2byte	0x224
 2044 0e08 0F       		.uleb128 0xf
 2045 0e09 B1080000 		.4byte	0x8b1
 2046 0e0d 0F       		.uleb128 0xf
 2047 0e0e 99080000 		.4byte	0x899
 2048 0e12 0F       		.uleb128 0xf
 2049 0e13 A5080000 		.4byte	0x8a5
 2050 0e17 00       		.byte	0
 2051 0e18 00       		.byte	0
ARM GAS  /var/folders/m4/4md61f0s1_g0rzfghffqnxvr0000gn/T//ccoZmCqg.s 			page 37


 2052              		.section	.debug_abbrev,"",%progbits
 2053              	.Ldebug_abbrev0:
 2054 0000 01       		.uleb128 0x1
 2055 0001 11       		.uleb128 0x11
 2056 0002 01       		.byte	0x1
 2057 0003 25       		.uleb128 0x25
 2058 0004 0E       		.uleb128 0xe
 2059 0005 13       		.uleb128 0x13
 2060 0006 0B       		.uleb128 0xb
 2061 0007 03       		.uleb128 0x3
 2062 0008 0E       		.uleb128 0xe
 2063 0009 1B       		.uleb128 0x1b
 2064 000a 0E       		.uleb128 0xe
 2065 000b 55       		.uleb128 0x55
 2066 000c 17       		.uleb128 0x17
 2067 000d 11       		.uleb128 0x11
 2068 000e 01       		.uleb128 0x1
 2069 000f 10       		.uleb128 0x10
 2070 0010 17       		.uleb128 0x17
 2071 0011 00       		.byte	0
 2072 0012 00       		.byte	0
 2073 0013 02       		.uleb128 0x2
 2074 0014 24       		.uleb128 0x24
 2075 0015 00       		.byte	0
 2076 0016 0B       		.uleb128 0xb
 2077 0017 0B       		.uleb128 0xb
 2078 0018 3E       		.uleb128 0x3e
 2079 0019 0B       		.uleb128 0xb
 2080 001a 03       		.uleb128 0x3
 2081 001b 0E       		.uleb128 0xe
 2082 001c 00       		.byte	0
 2083 001d 00       		.byte	0
 2084 001e 03       		.uleb128 0x3
 2085 001f 24       		.uleb128 0x24
 2086 0020 00       		.byte	0
 2087 0021 0B       		.uleb128 0xb
 2088 0022 0B       		.uleb128 0xb
 2089 0023 3E       		.uleb128 0x3e
 2090 0024 0B       		.uleb128 0xb
 2091 0025 03       		.uleb128 0x3
 2092 0026 08       		.uleb128 0x8
 2093 0027 00       		.byte	0
 2094 0028 00       		.byte	0
 2095 0029 04       		.uleb128 0x4
 2096 002a 16       		.uleb128 0x16
 2097 002b 00       		.byte	0
 2098 002c 03       		.uleb128 0x3
 2099 002d 0E       		.uleb128 0xe
 2100 002e 3A       		.uleb128 0x3a
 2101 002f 0B       		.uleb128 0xb
 2102 0030 3B       		.uleb128 0x3b
 2103 0031 0B       		.uleb128 0xb
 2104 0032 49       		.uleb128 0x49
 2105 0033 13       		.uleb128 0x13
 2106 0034 00       		.byte	0
 2107 0035 00       		.byte	0
 2108 0036 05       		.uleb128 0x5
ARM GAS  /var/folders/m4/4md61f0s1_g0rzfghffqnxvr0000gn/T//ccoZmCqg.s 			page 38


 2109 0037 3B       		.uleb128 0x3b
 2110 0038 00       		.byte	0
 2111 0039 03       		.uleb128 0x3
 2112 003a 0E       		.uleb128 0xe
 2113 003b 00       		.byte	0
 2114 003c 00       		.byte	0
 2115 003d 06       		.uleb128 0x6
 2116 003e 13       		.uleb128 0x13
 2117 003f 01       		.byte	0x1
 2118 0040 03       		.uleb128 0x3
 2119 0041 0E       		.uleb128 0xe
 2120 0042 0B       		.uleb128 0xb
 2121 0043 0B       		.uleb128 0xb
 2122 0044 3A       		.uleb128 0x3a
 2123 0045 0B       		.uleb128 0xb
 2124 0046 3B       		.uleb128 0x3b
 2125 0047 0B       		.uleb128 0xb
 2126 0048 01       		.uleb128 0x1
 2127 0049 13       		.uleb128 0x13
 2128 004a 00       		.byte	0
 2129 004b 00       		.byte	0
 2130 004c 07       		.uleb128 0x7
 2131 004d 17       		.uleb128 0x17
 2132 004e 01       		.byte	0x1
 2133 004f 0B       		.uleb128 0xb
 2134 0050 0B       		.uleb128 0xb
 2135 0051 3A       		.uleb128 0x3a
 2136 0052 0B       		.uleb128 0xb
 2137 0053 3B       		.uleb128 0x3b
 2138 0054 0B       		.uleb128 0xb
 2139 0055 01       		.uleb128 0x1
 2140 0056 13       		.uleb128 0x13
 2141 0057 00       		.byte	0
 2142 0058 00       		.byte	0
 2143 0059 08       		.uleb128 0x8
 2144 005a 0D       		.uleb128 0xd
 2145 005b 00       		.byte	0
 2146 005c 03       		.uleb128 0x3
 2147 005d 0E       		.uleb128 0xe
 2148 005e 3A       		.uleb128 0x3a
 2149 005f 0B       		.uleb128 0xb
 2150 0060 3B       		.uleb128 0x3b
 2151 0061 05       		.uleb128 0x5
 2152 0062 49       		.uleb128 0x49
 2153 0063 13       		.uleb128 0x13
 2154 0064 00       		.byte	0
 2155 0065 00       		.byte	0
 2156 0066 09       		.uleb128 0x9
 2157 0067 0D       		.uleb128 0xd
 2158 0068 00       		.byte	0
 2159 0069 03       		.uleb128 0x3
 2160 006a 0E       		.uleb128 0xe
 2161 006b 3A       		.uleb128 0x3a
 2162 006c 0B       		.uleb128 0xb
 2163 006d 3B       		.uleb128 0x3b
 2164 006e 0B       		.uleb128 0xb
 2165 006f 49       		.uleb128 0x49
ARM GAS  /var/folders/m4/4md61f0s1_g0rzfghffqnxvr0000gn/T//ccoZmCqg.s 			page 39


 2166 0070 13       		.uleb128 0x13
 2167 0071 38       		.uleb128 0x38
 2168 0072 0B       		.uleb128 0xb
 2169 0073 00       		.byte	0
 2170 0074 00       		.byte	0
 2171 0075 0A       		.uleb128 0xa
 2172 0076 0D       		.uleb128 0xd
 2173 0077 00       		.byte	0
 2174 0078 03       		.uleb128 0x3
 2175 0079 08       		.uleb128 0x8
 2176 007a 3A       		.uleb128 0x3a
 2177 007b 0B       		.uleb128 0xb
 2178 007c 3B       		.uleb128 0x3b
 2179 007d 05       		.uleb128 0x5
 2180 007e 49       		.uleb128 0x49
 2181 007f 13       		.uleb128 0x13
 2182 0080 38       		.uleb128 0x38
 2183 0081 0B       		.uleb128 0xb
 2184 0082 00       		.byte	0
 2185 0083 00       		.byte	0
 2186 0084 0B       		.uleb128 0xb
 2187 0085 0D       		.uleb128 0xd
 2188 0086 00       		.byte	0
 2189 0087 03       		.uleb128 0x3
 2190 0088 0E       		.uleb128 0xe
 2191 0089 3A       		.uleb128 0x3a
 2192 008a 0B       		.uleb128 0xb
 2193 008b 3B       		.uleb128 0x3b
 2194 008c 05       		.uleb128 0x5
 2195 008d 49       		.uleb128 0x49
 2196 008e 13       		.uleb128 0x13
 2197 008f 38       		.uleb128 0x38
 2198 0090 0B       		.uleb128 0xb
 2199 0091 00       		.byte	0
 2200 0092 00       		.byte	0
 2201 0093 0C       		.uleb128 0xc
 2202 0094 0F       		.uleb128 0xf
 2203 0095 00       		.byte	0
 2204 0096 0B       		.uleb128 0xb
 2205 0097 0B       		.uleb128 0xb
 2206 0098 49       		.uleb128 0x49
 2207 0099 13       		.uleb128 0x13
 2208 009a 00       		.byte	0
 2209 009b 00       		.byte	0
 2210 009c 0D       		.uleb128 0xd
 2211 009d 13       		.uleb128 0x13
 2212 009e 01       		.byte	0x1
 2213 009f 03       		.uleb128 0x3
 2214 00a0 0E       		.uleb128 0xe
 2215 00a1 0B       		.uleb128 0xb
 2216 00a2 0B       		.uleb128 0xb
 2217 00a3 3A       		.uleb128 0x3a
 2218 00a4 0B       		.uleb128 0xb
 2219 00a5 3B       		.uleb128 0x3b
 2220 00a6 05       		.uleb128 0x5
 2221 00a7 01       		.uleb128 0x1
 2222 00a8 13       		.uleb128 0x13
ARM GAS  /var/folders/m4/4md61f0s1_g0rzfghffqnxvr0000gn/T//ccoZmCqg.s 			page 40


 2223 00a9 00       		.byte	0
 2224 00aa 00       		.byte	0
 2225 00ab 0E       		.uleb128 0xe
 2226 00ac 15       		.uleb128 0x15
 2227 00ad 01       		.byte	0x1
 2228 00ae 01       		.uleb128 0x1
 2229 00af 13       		.uleb128 0x13
 2230 00b0 00       		.byte	0
 2231 00b1 00       		.byte	0
 2232 00b2 0F       		.uleb128 0xf
 2233 00b3 05       		.uleb128 0x5
 2234 00b4 00       		.byte	0
 2235 00b5 49       		.uleb128 0x49
 2236 00b6 13       		.uleb128 0x13
 2237 00b7 00       		.byte	0
 2238 00b8 00       		.byte	0
 2239 00b9 10       		.uleb128 0x10
 2240 00ba 0F       		.uleb128 0xf
 2241 00bb 00       		.byte	0
 2242 00bc 0B       		.uleb128 0xb
 2243 00bd 0B       		.uleb128 0xb
 2244 00be 00       		.byte	0
 2245 00bf 00       		.byte	0
 2246 00c0 11       		.uleb128 0x11
 2247 00c1 13       		.uleb128 0x13
 2248 00c2 01       		.byte	0x1
 2249 00c3 03       		.uleb128 0x3
 2250 00c4 0E       		.uleb128 0xe
 2251 00c5 0B       		.uleb128 0xb
 2252 00c6 05       		.uleb128 0x5
 2253 00c7 3A       		.uleb128 0x3a
 2254 00c8 0B       		.uleb128 0xb
 2255 00c9 3B       		.uleb128 0x3b
 2256 00ca 05       		.uleb128 0x5
 2257 00cb 01       		.uleb128 0x1
 2258 00cc 13       		.uleb128 0x13
 2259 00cd 00       		.byte	0
 2260 00ce 00       		.byte	0
 2261 00cf 12       		.uleb128 0x12
 2262 00d0 35       		.uleb128 0x35
 2263 00d1 00       		.byte	0
 2264 00d2 49       		.uleb128 0x49
 2265 00d3 13       		.uleb128 0x13
 2266 00d4 00       		.byte	0
 2267 00d5 00       		.byte	0
 2268 00d6 13       		.uleb128 0x13
 2269 00d7 01       		.uleb128 0x1
 2270 00d8 01       		.byte	0x1
 2271 00d9 49       		.uleb128 0x49
 2272 00da 13       		.uleb128 0x13
 2273 00db 01       		.uleb128 0x1
 2274 00dc 13       		.uleb128 0x13
 2275 00dd 00       		.byte	0
 2276 00de 00       		.byte	0
 2277 00df 14       		.uleb128 0x14
 2278 00e0 21       		.uleb128 0x21
 2279 00e1 00       		.byte	0
ARM GAS  /var/folders/m4/4md61f0s1_g0rzfghffqnxvr0000gn/T//ccoZmCqg.s 			page 41


 2280 00e2 49       		.uleb128 0x49
 2281 00e3 13       		.uleb128 0x13
 2282 00e4 2F       		.uleb128 0x2f
 2283 00e5 0B       		.uleb128 0xb
 2284 00e6 00       		.byte	0
 2285 00e7 00       		.byte	0
 2286 00e8 15       		.uleb128 0x15
 2287 00e9 04       		.uleb128 0x4
 2288 00ea 01       		.byte	0x1
 2289 00eb 0B       		.uleb128 0xb
 2290 00ec 0B       		.uleb128 0xb
 2291 00ed 3A       		.uleb128 0x3a
 2292 00ee 0B       		.uleb128 0xb
 2293 00ef 3B       		.uleb128 0x3b
 2294 00f0 0B       		.uleb128 0xb
 2295 00f1 6E       		.uleb128 0x6e
 2296 00f2 0E       		.uleb128 0xe
 2297 00f3 01       		.uleb128 0x1
 2298 00f4 13       		.uleb128 0x13
 2299 00f5 00       		.byte	0
 2300 00f6 00       		.byte	0
 2301 00f7 16       		.uleb128 0x16
 2302 00f8 28       		.uleb128 0x28
 2303 00f9 00       		.byte	0
 2304 00fa 03       		.uleb128 0x3
 2305 00fb 0E       		.uleb128 0xe
 2306 00fc 1C       		.uleb128 0x1c
 2307 00fd 0D       		.uleb128 0xd
 2308 00fe 00       		.byte	0
 2309 00ff 00       		.byte	0
 2310 0100 17       		.uleb128 0x17
 2311 0101 28       		.uleb128 0x28
 2312 0102 00       		.byte	0
 2313 0103 03       		.uleb128 0x3
 2314 0104 08       		.uleb128 0x8
 2315 0105 1C       		.uleb128 0x1c
 2316 0106 0D       		.uleb128 0xd
 2317 0107 00       		.byte	0
 2318 0108 00       		.byte	0
 2319 0109 18       		.uleb128 0x18
 2320 010a 0D       		.uleb128 0xd
 2321 010b 00       		.byte	0
 2322 010c 03       		.uleb128 0x3
 2323 010d 08       		.uleb128 0x8
 2324 010e 3A       		.uleb128 0x3a
 2325 010f 0B       		.uleb128 0xb
 2326 0110 3B       		.uleb128 0x3b
 2327 0111 0B       		.uleb128 0xb
 2328 0112 49       		.uleb128 0x49
 2329 0113 13       		.uleb128 0x13
 2330 0114 38       		.uleb128 0x38
 2331 0115 0B       		.uleb128 0xb
 2332 0116 00       		.byte	0
 2333 0117 00       		.byte	0
 2334 0118 19       		.uleb128 0x19
 2335 0119 13       		.uleb128 0x13
 2336 011a 01       		.byte	0x1
ARM GAS  /var/folders/m4/4md61f0s1_g0rzfghffqnxvr0000gn/T//ccoZmCqg.s 			page 42


 2337 011b 0B       		.uleb128 0xb
 2338 011c 0B       		.uleb128 0xb
 2339 011d 3A       		.uleb128 0x3a
 2340 011e 0B       		.uleb128 0xb
 2341 011f 3B       		.uleb128 0x3b
 2342 0120 0B       		.uleb128 0xb
 2343 0121 6E       		.uleb128 0x6e
 2344 0122 0E       		.uleb128 0xe
 2345 0123 01       		.uleb128 0x1
 2346 0124 13       		.uleb128 0x13
 2347 0125 00       		.byte	0
 2348 0126 00       		.byte	0
 2349 0127 1A       		.uleb128 0x1a
 2350 0128 26       		.uleb128 0x26
 2351 0129 00       		.byte	0
 2352 012a 49       		.uleb128 0x49
 2353 012b 13       		.uleb128 0x13
 2354 012c 00       		.byte	0
 2355 012d 00       		.byte	0
 2356 012e 1B       		.uleb128 0x1b
 2357 012f 13       		.uleb128 0x13
 2358 0130 01       		.byte	0x1
 2359 0131 0B       		.uleb128 0xb
 2360 0132 0B       		.uleb128 0xb
 2361 0133 3A       		.uleb128 0x3a
 2362 0134 0B       		.uleb128 0xb
 2363 0135 3B       		.uleb128 0x3b
 2364 0136 0B       		.uleb128 0xb
 2365 0137 01       		.uleb128 0x1
 2366 0138 13       		.uleb128 0x13
 2367 0139 00       		.byte	0
 2368 013a 00       		.byte	0
 2369 013b 1C       		.uleb128 0x1c
 2370 013c 0D       		.uleb128 0xd
 2371 013d 00       		.byte	0
 2372 013e 03       		.uleb128 0x3
 2373 013f 08       		.uleb128 0x8
 2374 0140 3A       		.uleb128 0x3a
 2375 0141 0B       		.uleb128 0xb
 2376 0142 3B       		.uleb128 0x3b
 2377 0143 0B       		.uleb128 0xb
 2378 0144 49       		.uleb128 0x49
 2379 0145 13       		.uleb128 0x13
 2380 0146 00       		.byte	0
 2381 0147 00       		.byte	0
 2382 0148 1D       		.uleb128 0x1d
 2383 0149 16       		.uleb128 0x16
 2384 014a 00       		.byte	0
 2385 014b 03       		.uleb128 0x3
 2386 014c 0E       		.uleb128 0xe
 2387 014d 3A       		.uleb128 0x3a
 2388 014e 0B       		.uleb128 0xb
 2389 014f 3B       		.uleb128 0x3b
 2390 0150 05       		.uleb128 0x5
 2391 0151 49       		.uleb128 0x49
 2392 0152 13       		.uleb128 0x13
 2393 0153 00       		.byte	0
ARM GAS  /var/folders/m4/4md61f0s1_g0rzfghffqnxvr0000gn/T//ccoZmCqg.s 			page 43


 2394 0154 00       		.byte	0
 2395 0155 1E       		.uleb128 0x1e
 2396 0156 13       		.uleb128 0x13
 2397 0157 01       		.byte	0x1
 2398 0158 0B       		.uleb128 0xb
 2399 0159 0B       		.uleb128 0xb
 2400 015a 3A       		.uleb128 0x3a
 2401 015b 0B       		.uleb128 0xb
 2402 015c 3B       		.uleb128 0x3b
 2403 015d 05       		.uleb128 0x5
 2404 015e 6E       		.uleb128 0x6e
 2405 015f 0E       		.uleb128 0xe
 2406 0160 01       		.uleb128 0x1
 2407 0161 13       		.uleb128 0x13
 2408 0162 00       		.byte	0
 2409 0163 00       		.byte	0
 2410 0164 1F       		.uleb128 0x1f
 2411 0165 2E       		.uleb128 0x2e
 2412 0166 01       		.byte	0x1
 2413 0167 3F       		.uleb128 0x3f
 2414 0168 19       		.uleb128 0x19
 2415 0169 03       		.uleb128 0x3
 2416 016a 0E       		.uleb128 0xe
 2417 016b 3A       		.uleb128 0x3a
 2418 016c 0B       		.uleb128 0xb
 2419 016d 3B       		.uleb128 0x3b
 2420 016e 0B       		.uleb128 0xb
 2421 016f 20       		.uleb128 0x20
 2422 0170 0B       		.uleb128 0xb
 2423 0171 01       		.uleb128 0x1
 2424 0172 13       		.uleb128 0x13
 2425 0173 00       		.byte	0
 2426 0174 00       		.byte	0
 2427 0175 20       		.uleb128 0x20
 2428 0176 05       		.uleb128 0x5
 2429 0177 00       		.byte	0
 2430 0178 03       		.uleb128 0x3
 2431 0179 0E       		.uleb128 0xe
 2432 017a 3A       		.uleb128 0x3a
 2433 017b 0B       		.uleb128 0xb
 2434 017c 3B       		.uleb128 0x3b
 2435 017d 0B       		.uleb128 0xb
 2436 017e 49       		.uleb128 0x49
 2437 017f 13       		.uleb128 0x13
 2438 0180 00       		.byte	0
 2439 0181 00       		.byte	0
 2440 0182 21       		.uleb128 0x21
 2441 0183 2E       		.uleb128 0x2e
 2442 0184 01       		.byte	0x1
 2443 0185 3F       		.uleb128 0x3f
 2444 0186 19       		.uleb128 0x19
 2445 0187 03       		.uleb128 0x3
 2446 0188 0E       		.uleb128 0xe
 2447 0189 3A       		.uleb128 0x3a
 2448 018a 0B       		.uleb128 0xb
 2449 018b 3B       		.uleb128 0x3b
 2450 018c 0B       		.uleb128 0xb
ARM GAS  /var/folders/m4/4md61f0s1_g0rzfghffqnxvr0000gn/T//ccoZmCqg.s 			page 44


 2451 018d 6E       		.uleb128 0x6e
 2452 018e 0E       		.uleb128 0xe
 2453 018f 11       		.uleb128 0x11
 2454 0190 01       		.uleb128 0x1
 2455 0191 12       		.uleb128 0x12
 2456 0192 06       		.uleb128 0x6
 2457 0193 40       		.uleb128 0x40
 2458 0194 18       		.uleb128 0x18
 2459 0195 9642     		.uleb128 0x2116
 2460 0197 19       		.uleb128 0x19
 2461 0198 01       		.uleb128 0x1
 2462 0199 13       		.uleb128 0x13
 2463 019a 00       		.byte	0
 2464 019b 00       		.byte	0
 2465 019c 22       		.uleb128 0x22
 2466 019d 05       		.uleb128 0x5
 2467 019e 00       		.byte	0
 2468 019f 03       		.uleb128 0x3
 2469 01a0 0E       		.uleb128 0xe
 2470 01a1 3A       		.uleb128 0x3a
 2471 01a2 0B       		.uleb128 0xb
 2472 01a3 3B       		.uleb128 0x3b
 2473 01a4 0B       		.uleb128 0xb
 2474 01a5 49       		.uleb128 0x49
 2475 01a6 13       		.uleb128 0x13
 2476 01a7 02       		.uleb128 0x2
 2477 01a8 17       		.uleb128 0x17
 2478 01a9 00       		.byte	0
 2479 01aa 00       		.byte	0
 2480 01ab 23       		.uleb128 0x23
 2481 01ac 0B       		.uleb128 0xb
 2482 01ad 01       		.byte	0x1
 2483 01ae 55       		.uleb128 0x55
 2484 01af 17       		.uleb128 0x17
 2485 01b0 00       		.byte	0
 2486 01b1 00       		.byte	0
 2487 01b2 24       		.uleb128 0x24
 2488 01b3 34       		.uleb128 0x34
 2489 01b4 00       		.byte	0
 2490 01b5 03       		.uleb128 0x3
 2491 01b6 0E       		.uleb128 0xe
 2492 01b7 3A       		.uleb128 0x3a
 2493 01b8 0B       		.uleb128 0xb
 2494 01b9 3B       		.uleb128 0x3b
 2495 01ba 0B       		.uleb128 0xb
 2496 01bb 49       		.uleb128 0x49
 2497 01bc 13       		.uleb128 0x13
 2498 01bd 02       		.uleb128 0x2
 2499 01be 17       		.uleb128 0x17
 2500 01bf 00       		.byte	0
 2501 01c0 00       		.byte	0
 2502 01c1 25       		.uleb128 0x25
 2503 01c2 898201   		.uleb128 0x4109
 2504 01c5 00       		.byte	0
 2505 01c6 11       		.uleb128 0x11
 2506 01c7 01       		.uleb128 0x1
 2507 01c8 9542     		.uleb128 0x2115
ARM GAS  /var/folders/m4/4md61f0s1_g0rzfghffqnxvr0000gn/T//ccoZmCqg.s 			page 45


 2508 01ca 19       		.uleb128 0x19
 2509 01cb 31       		.uleb128 0x31
 2510 01cc 13       		.uleb128 0x13
 2511 01cd 00       		.byte	0
 2512 01ce 00       		.byte	0
 2513 01cf 26       		.uleb128 0x26
 2514 01d0 898201   		.uleb128 0x4109
 2515 01d3 01       		.byte	0x1
 2516 01d4 11       		.uleb128 0x11
 2517 01d5 01       		.uleb128 0x1
 2518 01d6 31       		.uleb128 0x31
 2519 01d7 13       		.uleb128 0x13
 2520 01d8 01       		.uleb128 0x1
 2521 01d9 13       		.uleb128 0x13
 2522 01da 00       		.byte	0
 2523 01db 00       		.byte	0
 2524 01dc 27       		.uleb128 0x27
 2525 01dd 8A8201   		.uleb128 0x410a
 2526 01e0 00       		.byte	0
 2527 01e1 02       		.uleb128 0x2
 2528 01e2 18       		.uleb128 0x18
 2529 01e3 9142     		.uleb128 0x2111
 2530 01e5 18       		.uleb128 0x18
 2531 01e6 00       		.byte	0
 2532 01e7 00       		.byte	0
 2533 01e8 28       		.uleb128 0x28
 2534 01e9 898201   		.uleb128 0x4109
 2535 01ec 01       		.byte	0x1
 2536 01ed 11       		.uleb128 0x11
 2537 01ee 01       		.uleb128 0x1
 2538 01ef 9542     		.uleb128 0x2115
 2539 01f1 19       		.uleb128 0x19
 2540 01f2 31       		.uleb128 0x31
 2541 01f3 13       		.uleb128 0x13
 2542 01f4 00       		.byte	0
 2543 01f5 00       		.byte	0
 2544 01f6 29       		.uleb128 0x29
 2545 01f7 2E       		.uleb128 0x2e
 2546 01f8 01       		.byte	0x1
 2547 01f9 3F       		.uleb128 0x3f
 2548 01fa 19       		.uleb128 0x19
 2549 01fb 03       		.uleb128 0x3
 2550 01fc 0E       		.uleb128 0xe
 2551 01fd 3A       		.uleb128 0x3a
 2552 01fe 0B       		.uleb128 0xb
 2553 01ff 3B       		.uleb128 0x3b
 2554 0200 0B       		.uleb128 0xb
 2555 0201 6E       		.uleb128 0x6e
 2556 0202 0E       		.uleb128 0xe
 2557 0203 11       		.uleb128 0x11
 2558 0204 01       		.uleb128 0x1
 2559 0205 12       		.uleb128 0x12
 2560 0206 06       		.uleb128 0x6
 2561 0207 40       		.uleb128 0x40
 2562 0208 18       		.uleb128 0x18
 2563 0209 9742     		.uleb128 0x2117
 2564 020b 19       		.uleb128 0x19
ARM GAS  /var/folders/m4/4md61f0s1_g0rzfghffqnxvr0000gn/T//ccoZmCqg.s 			page 46


 2565 020c 01       		.uleb128 0x1
 2566 020d 13       		.uleb128 0x13
 2567 020e 00       		.byte	0
 2568 020f 00       		.byte	0
 2569 0210 2A       		.uleb128 0x2a
 2570 0211 1D       		.uleb128 0x1d
 2571 0212 01       		.byte	0x1
 2572 0213 31       		.uleb128 0x31
 2573 0214 13       		.uleb128 0x13
 2574 0215 52       		.uleb128 0x52
 2575 0216 01       		.uleb128 0x1
 2576 0217 55       		.uleb128 0x55
 2577 0218 17       		.uleb128 0x17
 2578 0219 58       		.uleb128 0x58
 2579 021a 0B       		.uleb128 0xb
 2580 021b 59       		.uleb128 0x59
 2581 021c 0B       		.uleb128 0xb
 2582 021d 01       		.uleb128 0x1
 2583 021e 13       		.uleb128 0x13
 2584 021f 00       		.byte	0
 2585 0220 00       		.byte	0
 2586 0221 2B       		.uleb128 0x2b
 2587 0222 05       		.uleb128 0x5
 2588 0223 00       		.byte	0
 2589 0224 31       		.uleb128 0x31
 2590 0225 13       		.uleb128 0x13
 2591 0226 1C       		.uleb128 0x1c
 2592 0227 0A       		.uleb128 0xa
 2593 0228 00       		.byte	0
 2594 0229 00       		.byte	0
 2595 022a 2C       		.uleb128 0x2c
 2596 022b 898201   		.uleb128 0x4109
 2597 022e 01       		.byte	0x1
 2598 022f 11       		.uleb128 0x11
 2599 0230 01       		.uleb128 0x1
 2600 0231 31       		.uleb128 0x31
 2601 0232 13       		.uleb128 0x13
 2602 0233 00       		.byte	0
 2603 0234 00       		.byte	0
 2604 0235 2D       		.uleb128 0x2d
 2605 0236 2E       		.uleb128 0x2e
 2606 0237 01       		.byte	0x1
 2607 0238 31       		.uleb128 0x31
 2608 0239 13       		.uleb128 0x13
 2609 023a 6E       		.uleb128 0x6e
 2610 023b 0E       		.uleb128 0xe
 2611 023c 11       		.uleb128 0x11
 2612 023d 01       		.uleb128 0x1
 2613 023e 12       		.uleb128 0x12
 2614 023f 06       		.uleb128 0x6
 2615 0240 40       		.uleb128 0x40
 2616 0241 18       		.uleb128 0x18
 2617 0242 9742     		.uleb128 0x2117
 2618 0244 19       		.uleb128 0x19
 2619 0245 01       		.uleb128 0x1
 2620 0246 13       		.uleb128 0x13
 2621 0247 00       		.byte	0
ARM GAS  /var/folders/m4/4md61f0s1_g0rzfghffqnxvr0000gn/T//ccoZmCqg.s 			page 47


 2622 0248 00       		.byte	0
 2623 0249 2E       		.uleb128 0x2e
 2624 024a 05       		.uleb128 0x5
 2625 024b 00       		.byte	0
 2626 024c 31       		.uleb128 0x31
 2627 024d 13       		.uleb128 0x13
 2628 024e 02       		.uleb128 0x2
 2629 024f 17       		.uleb128 0x17
 2630 0250 00       		.byte	0
 2631 0251 00       		.byte	0
 2632 0252 2F       		.uleb128 0x2f
 2633 0253 34       		.uleb128 0x34
 2634 0254 00       		.byte	0
 2635 0255 03       		.uleb128 0x3
 2636 0256 0E       		.uleb128 0xe
 2637 0257 3A       		.uleb128 0x3a
 2638 0258 0B       		.uleb128 0xb
 2639 0259 3B       		.uleb128 0x3b
 2640 025a 05       		.uleb128 0x5
 2641 025b 49       		.uleb128 0x49
 2642 025c 13       		.uleb128 0x13
 2643 025d 3F       		.uleb128 0x3f
 2644 025e 19       		.uleb128 0x19
 2645 025f 3C       		.uleb128 0x3c
 2646 0260 19       		.uleb128 0x19
 2647 0261 00       		.byte	0
 2648 0262 00       		.byte	0
 2649 0263 30       		.uleb128 0x30
 2650 0264 34       		.uleb128 0x34
 2651 0265 00       		.byte	0
 2652 0266 03       		.uleb128 0x3
 2653 0267 08       		.uleb128 0x8
 2654 0268 3A       		.uleb128 0x3a
 2655 0269 0B       		.uleb128 0xb
 2656 026a 3B       		.uleb128 0x3b
 2657 026b 05       		.uleb128 0x5
 2658 026c 49       		.uleb128 0x49
 2659 026d 13       		.uleb128 0x13
 2660 026e 3F       		.uleb128 0x3f
 2661 026f 19       		.uleb128 0x19
 2662 0270 3C       		.uleb128 0x3c
 2663 0271 19       		.uleb128 0x19
 2664 0272 00       		.byte	0
 2665 0273 00       		.byte	0
 2666 0274 31       		.uleb128 0x31
 2667 0275 34       		.uleb128 0x34
 2668 0276 00       		.byte	0
 2669 0277 03       		.uleb128 0x3
 2670 0278 0E       		.uleb128 0xe
 2671 0279 3A       		.uleb128 0x3a
 2672 027a 0B       		.uleb128 0xb
 2673 027b 3B       		.uleb128 0x3b
 2674 027c 0B       		.uleb128 0xb
 2675 027d 49       		.uleb128 0x49
 2676 027e 13       		.uleb128 0x13
 2677 027f 02       		.uleb128 0x2
 2678 0280 18       		.uleb128 0x18
ARM GAS  /var/folders/m4/4md61f0s1_g0rzfghffqnxvr0000gn/T//ccoZmCqg.s 			page 48


 2679 0281 00       		.byte	0
 2680 0282 00       		.byte	0
 2681 0283 32       		.uleb128 0x32
 2682 0284 2E       		.uleb128 0x2e
 2683 0285 01       		.byte	0x1
 2684 0286 3F       		.uleb128 0x3f
 2685 0287 19       		.uleb128 0x19
 2686 0288 03       		.uleb128 0x3
 2687 0289 0E       		.uleb128 0xe
 2688 028a 3A       		.uleb128 0x3a
 2689 028b 0B       		.uleb128 0xb
 2690 028c 3B       		.uleb128 0x3b
 2691 028d 05       		.uleb128 0x5
 2692 028e 3C       		.uleb128 0x3c
 2693 028f 19       		.uleb128 0x19
 2694 0290 01       		.uleb128 0x1
 2695 0291 13       		.uleb128 0x13
 2696 0292 00       		.byte	0
 2697 0293 00       		.byte	0
 2698 0294 33       		.uleb128 0x33
 2699 0295 2E       		.uleb128 0x2e
 2700 0296 01       		.byte	0x1
 2701 0297 3F       		.uleb128 0x3f
 2702 0298 19       		.uleb128 0x19
 2703 0299 03       		.uleb128 0x3
 2704 029a 0E       		.uleb128 0xe
 2705 029b 3A       		.uleb128 0x3a
 2706 029c 0B       		.uleb128 0xb
 2707 029d 3B       		.uleb128 0x3b
 2708 029e 05       		.uleb128 0x5
 2709 029f 3C       		.uleb128 0x3c
 2710 02a0 19       		.uleb128 0x19
 2711 02a1 00       		.byte	0
 2712 02a2 00       		.byte	0
 2713 02a3 00       		.byte	0
 2714              		.section	.debug_loc,"",%progbits
 2715              	.Ldebug_loc0:
 2716              	.LLST0:
 2717 0000 00000000 		.4byte	.LVL0
 2718 0004 0E000000 		.4byte	.LVL1
 2719 0008 0100     		.2byte	0x1
 2720 000a 50       		.byte	0x50
 2721 000b 0E000000 		.4byte	.LVL1
 2722 000f 8C000000 		.4byte	.LFE269
 2723 0013 0400     		.2byte	0x4
 2724 0015 F3       		.byte	0xf3
 2725 0016 01       		.uleb128 0x1
 2726 0017 50       		.byte	0x50
 2727 0018 9F       		.byte	0x9f
 2728 0019 00000000 		.4byte	0
 2729 001d 00000000 		.4byte	0
 2730              	.LLST1:
 2731 0021 00000000 		.4byte	.LVL0
 2732 0025 11000000 		.4byte	.LVL2-1
 2733 0029 0800     		.2byte	0x8
 2734 002b 90       		.byte	0x90
 2735 002c 40       		.uleb128 0x40
ARM GAS  /var/folders/m4/4md61f0s1_g0rzfghffqnxvr0000gn/T//ccoZmCqg.s 			page 49


 2736 002d 93       		.byte	0x93
 2737 002e 04       		.uleb128 0x4
 2738 002f 90       		.byte	0x90
 2739 0030 41       		.uleb128 0x41
 2740 0031 93       		.byte	0x93
 2741 0032 04       		.uleb128 0x4
 2742 0033 11000000 		.4byte	.LVL2-1
 2743 0037 8C000000 		.4byte	.LFE269
 2744 003b 0600     		.2byte	0x6
 2745 003d F3       		.byte	0xf3
 2746 003e 03       		.uleb128 0x3
 2747 003f F5       		.byte	0xf5
 2748 0040 40       		.uleb128 0x40
 2749 0041 25       		.uleb128 0x25
 2750 0042 9F       		.byte	0x9f
 2751 0043 00000000 		.4byte	0
 2752 0047 00000000 		.4byte	0
 2753              	.LLST2:
 2754 004b 24000000 		.4byte	.LVL5
 2755 004f 34000000 		.4byte	.LVL6
 2756 0053 0100     		.2byte	0x1
 2757 0055 50       		.byte	0x50
 2758 0056 34000000 		.4byte	.LVL6
 2759 005a 38000000 		.4byte	.LVL7
 2760 005e 0100     		.2byte	0x1
 2761 0060 55       		.byte	0x55
 2762 0061 38000000 		.4byte	.LVL7
 2763 0065 3B000000 		.4byte	.LVL8-1
 2764 0069 0100     		.2byte	0x1
 2765 006b 52       		.byte	0x52
 2766 006c 3C000000 		.4byte	.LVL8
 2767 0070 48000000 		.4byte	.LVL9
 2768 0074 0100     		.2byte	0x1
 2769 0076 50       		.byte	0x50
 2770 0077 48000000 		.4byte	.LVL9
 2771 007b 6C000000 		.4byte	.LVL13
 2772 007f 0100     		.2byte	0x1
 2773 0081 55       		.byte	0x55
 2774 0082 6C000000 		.4byte	.LVL13
 2775 0086 6F000000 		.4byte	.LVL14-1
 2776 008a 0100     		.2byte	0x1
 2777 008c 52       		.byte	0x52
 2778 008d 70000000 		.4byte	.LVL14
 2779 0091 8C000000 		.4byte	.LFE269
 2780 0095 0100     		.2byte	0x1
 2781 0097 50       		.byte	0x50
 2782 0098 00000000 		.4byte	0
 2783 009c 00000000 		.4byte	0
 2784              	.LLST3:
 2785 00a0 00000000 		.4byte	.LVL21
 2786 00a4 05000000 		.4byte	.LVL22-1
 2787 00a8 0800     		.2byte	0x8
 2788 00aa 90       		.byte	0x90
 2789 00ab 40       		.uleb128 0x40
 2790 00ac 93       		.byte	0x93
 2791 00ad 04       		.uleb128 0x4
 2792 00ae 90       		.byte	0x90
ARM GAS  /var/folders/m4/4md61f0s1_g0rzfghffqnxvr0000gn/T//ccoZmCqg.s 			page 50


 2793 00af 41       		.uleb128 0x41
 2794 00b0 93       		.byte	0x93
 2795 00b1 04       		.uleb128 0x4
 2796 00b2 05000000 		.4byte	.LVL22-1
 2797 00b6 06000000 		.4byte	.LFE270
 2798 00ba 0600     		.2byte	0x6
 2799 00bc F3       		.byte	0xf3
 2800 00bd 03       		.uleb128 0x3
 2801 00be F5       		.byte	0xf5
 2802 00bf 40       		.uleb128 0x40
 2803 00c0 25       		.uleb128 0x25
 2804 00c1 9F       		.byte	0x9f
 2805 00c2 00000000 		.4byte	0
 2806 00c6 00000000 		.4byte	0
 2807              		.section	.debug_aranges,"",%progbits
 2808 0000 2C000000 		.4byte	0x2c
 2809 0004 0200     		.2byte	0x2
 2810 0006 00000000 		.4byte	.Ldebug_info0
 2811 000a 04       		.byte	0x4
 2812 000b 00       		.byte	0
 2813 000c 0000     		.2byte	0
 2814 000e 0000     		.2byte	0
 2815 0010 00000000 		.4byte	.LFB269
 2816 0014 8C000000 		.4byte	.LFE269-.LFB269
 2817 0018 00000000 		.4byte	.LFB268
 2818 001c 64000000 		.4byte	.LFE268-.LFB268
 2819 0020 00000000 		.4byte	.LFB270
 2820 0024 06000000 		.4byte	.LFE270-.LFB270
 2821 0028 00000000 		.4byte	0
 2822 002c 00000000 		.4byte	0
 2823              		.section	.debug_ranges,"",%progbits
 2824              	.Ldebug_ranges0:
 2825 0000 04000000 		.4byte	.LBB4
 2826 0004 34000000 		.4byte	.LBE4
 2827 0008 38000000 		.4byte	.LBB5
 2828 000c 68000000 		.4byte	.LBE5
 2829 0010 6C000000 		.4byte	.LBB6
 2830 0014 8C000000 		.4byte	.LBE6
 2831 0018 00000000 		.4byte	0
 2832 001c 00000000 		.4byte	0
 2833 0020 3C000000 		.4byte	.LBB7
 2834 0024 42000000 		.4byte	.LBE7
 2835 0028 46000000 		.4byte	.LBB10
 2836 002c 64000000 		.4byte	.LBE10
 2837 0030 00000000 		.4byte	0
 2838 0034 00000000 		.4byte	0
 2839 0038 00000000 		.4byte	.LFB269
 2840 003c 8C000000 		.4byte	.LFE269
 2841 0040 00000000 		.4byte	.LFB268
 2842 0044 64000000 		.4byte	.LFE268
 2843 0048 00000000 		.4byte	.LFB270
 2844 004c 06000000 		.4byte	.LFE270
 2845 0050 00000000 		.4byte	0
 2846 0054 00000000 		.4byte	0
 2847              		.section	.debug_line,"",%progbits
 2848              	.Ldebug_line0:
 2849 0000 7D030000 		.section	.debug_str,"MS",%progbits,1
ARM GAS  /var/folders/m4/4md61f0s1_g0rzfghffqnxvr0000gn/T//ccoZmCqg.s 			page 51


 2849      02001E03 
 2849      00000201 
 2849      FB0E0D00 
 2849      01010101 
 2850              	.LASF184:
 2851 0000 2F557365 		.ascii	"/Users/raphael/Documents/pcb-quadrotor/code\000"
 2851      72732F72 
 2851      61706861 
 2851      656C2F44 
 2851      6F63756D 
 2852              	.LASF171:
 2853 002c 6573635F 		.ascii	"esc_set\000"
 2853      73657400 
 2854              	.LASF157:
 2855 0034 70776D63 		.ascii	"pwmchannel_t\000"
 2855      68616E6E 
 2855      656C5F74 
 2855      00
 2856              	.LASF63:
 2857 0041 72656164 		.ascii	"ready_list_t\000"
 2857      795F6C69 
 2857      73745F74 
 2857      00
 2858              	.LASF147:
 2859 004e 44494552 		.ascii	"DIER\000"
 2859      00
 2860              	.LASF99:
 2861 0053 31314572 		.ascii	"11ErrorStatus\000"
 2861      726F7253 
 2861      74617475 
 2861      7300
 2862              	.LASF5:
 2863 0061 73697A65 		.ascii	"size_t\000"
 2863      5F7400
 2864              	.LASF165:
 2865 0068 3950574D 		.ascii	"9PWMConfig\000"
 2865      436F6E66 
 2865      696700
 2866              	.LASF93:
 2867 0073 466C6167 		.ascii	"FlagStatus\000"
 2867      53746174 
 2867      757300
 2868              	.LASF160:
 2869 007e 31317374 		.ascii	"11stm32_tim_t\000"
 2869      6D33325F 
 2869      74696D5F 
 2869      7400
 2870              	.LASF122:
 2871 008c 4F545950 		.ascii	"OTYPER\000"
 2871      455200
 2872              	.LASF6:
 2873 0093 5F5F7569 		.ascii	"__uint8_t\000"
 2873      6E74385F 
 2873      7400
 2874              	.LASF105:
 2875 009d 706F7274 		.ascii	"port_intctx\000"
 2875      5F696E74 
ARM GAS  /var/folders/m4/4md61f0s1_g0rzfghffqnxvr0000gn/T//ccoZmCqg.s 			page 52


 2875      63747800 
 2876              	.LASF88:
 2877 00a9 76746C69 		.ascii	"vtlist\000"
 2877      737400
 2878              	.LASF153:
 2879 00b0 43434D52 		.ascii	"CCMR3\000"
 2879      3300
 2880              	.LASF130:
 2881 00b6 696F706F 		.ascii	"ioportmask_t\000"
 2881      72746D61 
 2881      736B5F74 
 2881      00
 2882              	.LASF141:
 2883 00c3 70657269 		.ascii	"period\000"
 2883      6F6400
 2884              	.LASF96:
 2885 00ca 44495341 		.ascii	"DISABLE\000"
 2885      424C4500 
 2886              	.LASF15:
 2887 00d2 6C6F6E67 		.ascii	"long long unsigned int\000"
 2887      206C6F6E 
 2887      6720756E 
 2887      7369676E 
 2887      65642069 
 2888              	.LASF89:
 2889 00e9 6D61696E 		.ascii	"mainthread\000"
 2889      74687265 
 2889      616400
 2890              	.LASF79:
 2891 00f4 76697274 		.ascii	"virtual_timers_list_t\000"
 2891      75616C5F 
 2891      74696D65 
 2891      72735F6C 
 2891      6973745F 
 2892              	.LASF175:
 2893 010a 49544D5F 		.ascii	"ITM_RxBuffer\000"
 2893      52784275 
 2893      66666572 
 2893      00
 2894              	.LASF151:
 2895 0117 42445452 		.ascii	"BDTR\000"
 2895      00
 2896              	.LASF62:
 2897 011c 63685F74 		.ascii	"ch_threads_queue\000"
 2897      68726561 
 2897      64735F71 
 2897      75657565 
 2897      00
 2898              	.LASF112:
 2899 012d 6D5F7175 		.ascii	"m_queue\000"
 2899      65756500 
 2900              	.LASF40:
 2901 0135 705F7072 		.ascii	"p_prio\000"
 2901      696F00
 2902              	.LASF136:
 2903 013c 50574D5F 		.ascii	"PWM_READY\000"
 2903      52454144 
ARM GAS  /var/folders/m4/4md61f0s1_g0rzfghffqnxvr0000gn/T//ccoZmCqg.s 			page 53


 2903      5900
 2904              	.LASF181:
 2905 0146 70776D53 		.ascii	"pwmStart\000"
 2905      74617274 
 2905      00
 2906              	.LASF148:
 2907 014f 43434D52 		.ascii	"CCMR1\000"
 2907      3100
 2908              	.LASF149:
 2909 0155 43434D52 		.ascii	"CCMR2\000"
 2909      3200
 2910              	.LASF2:
 2911 015b 6C6F6E67 		.ascii	"long long int\000"
 2911      206C6F6E 
 2911      6720696E 
 2911      7400
 2912              	.LASF4:
 2913 0169 7369676E 		.ascii	"signed char\000"
 2913      65642063 
 2913      68617200 
 2914              	.LASF125:
 2915 0175 42535252 		.ascii	"BSRR\000"
 2915      00
 2916              	.LASF155:
 2917 017a 73746D33 		.ascii	"stm32_tim_t\000"
 2917      325F7469 
 2917      6D5F7400 
 2918              	.LASF14:
 2919 0186 6C6F6E67 		.ascii	"long unsigned int\000"
 2919      20756E73 
 2919      69676E65 
 2919      6420696E 
 2919      7400
 2920              	.LASF56:
 2921 0198 705F6D70 		.ascii	"p_mpool\000"
 2921      6F6F6C00 
 2922              	.LASF156:
 2923 01a0 70776D6D 		.ascii	"pwmmode_t\000"
 2923      6F64655F 
 2923      7400
 2924              	.LASF33:
 2925 01aa 77746F62 		.ascii	"wtobjp\000"
 2925      6A7000
 2926              	.LASF24:
 2927 01b1 74736C69 		.ascii	"tslices_t\000"
 2927      6365735F 
 2927      7400
 2928              	.LASF176:
 2929 01bb 50574D44 		.ascii	"PWMD5\000"
 2929      3500
 2930              	.LASF124:
 2931 01c1 50555044 		.ascii	"PUPDR\000"
 2931      5200
 2932              	.LASF139:
 2933 01c7 73746174 		.ascii	"state\000"
 2933      6500
 2934              	.LASF86:
ARM GAS  /var/folders/m4/4md61f0s1_g0rzfghffqnxvr0000gn/T//ccoZmCqg.s 			page 54


 2935 01cd 63685F73 		.ascii	"ch_system\000"
 2935      79737465 
 2935      6D00
 2936              	.LASF12:
 2937 01d7 6C6F6E67 		.ascii	"long int\000"
 2937      20696E74 
 2937      00
 2938              	.LASF97:
 2939 01e0 454E4142 		.ascii	"ENABLE\000"
 2939      4C4500
 2940              	.LASF182:
 2941 01e7 474E5520 		.ascii	"GNU C++ 4.9.3 20150529 (release) [ARM/embedded-4_9-"
 2941      432B2B20 
 2941      342E392E 
 2941      33203230 
 2941      31353035 
 2942 021a 6272616E 		.ascii	"branch revision 224288] -mcpu=cortex-m4 -mfloat-abi"
 2942      63682072 
 2942      65766973 
 2942      696F6E20 
 2942      32323432 
 2943 024d 3D686172 		.ascii	"=hard -mfpu=fpv4-sp-d16 -mno-thumb-interwork -mthum"
 2943      64202D6D 
 2943      6670753D 
 2943      66707634 
 2943      2D73702D 
 2944 0280 62202D67 		.ascii	"b -ggdb -O2 -std=c++11 -fomit-frame-pointer -falign"
 2944      67646220 
 2944      2D4F3220 
 2944      2D737464 
 2944      3D632B2B 
 2945 02b3 2D66756E 		.ascii	"-functions=16 -ffunction-sections -fdata-sections -"
 2945      6374696F 
 2945      6E733D31 
 2945      36202D66 
 2945      66756E63 
 2946 02e6 666E6F2D 		.ascii	"fno-common -fsingle-precision-constant -fno-rtti -f"
 2946      636F6D6D 
 2946      6F6E202D 
 2946      6673696E 
 2946      676C652D 
 2947 0319 6E6F2D65 		.ascii	"no-exceptions\000"
 2947      78636570 
 2947      74696F6E 
 2947      7300
 2948              	.LASF22:
 2949 0327 74737461 		.ascii	"tstate_t\000"
 2949      74655F74 
 2949      00
 2950              	.LASF17:
 2951 0330 75696E74 		.ascii	"uint16_t\000"
 2951      31365F74 
 2951      00
 2952              	.LASF95:
 2953 0339 31354675 		.ascii	"15FunctionalState\000"
 2953      6E637469 
 2953      6F6E616C 
ARM GAS  /var/folders/m4/4md61f0s1_g0rzfghffqnxvr0000gn/T//ccoZmCqg.s 			page 55


 2953      53746174 
 2953      6500
 2954              	.LASF42:
 2955 034b 705F6E65 		.ascii	"p_newer\000"
 2955      77657200 
 2956              	.LASF109:
 2957 0353 735F7175 		.ascii	"s_queue\000"
 2957      65756500 
 2958              	.LASF172:
 2959 035b 6573635F 		.ascii	"esc_init\000"
 2959      696E6974 
 2959      00
 2960              	.LASF32:
 2961 0364 65786974 		.ascii	"exitcode\000"
 2961      636F6465 
 2961      00
 2962              	.LASF123:
 2963 036d 4F535045 		.ascii	"OSPEEDR\000"
 2963      45445200 
 2964              	.LASF68:
 2965 0375 725F6E65 		.ascii	"r_newer\000"
 2965      77657200 
 2966              	.LASF102:
 2967 037d 4572726F 		.ascii	"ErrorStatus\000"
 2967      72537461 
 2967      74757300 
 2968              	.LASF75:
 2969 0389 76745F70 		.ascii	"vt_prev\000"
 2969      72657600 
 2970              	.LASF133:
 2971 0391 31307077 		.ascii	"10pwmstate_t\000"
 2971      6D737461 
 2971      74655F74 
 2971      00
 2972              	.LASF129:
 2973 039e 73746D33 		.ascii	"stm32_gpio_t\000"
 2973      325F6770 
 2973      696F5F74 
 2973      00
 2974              	.LASF121:
 2975 03ab 4D4F4445 		.ascii	"MODER\000"
 2975      5200
 2976              	.LASF116:
 2977 03b1 6D757465 		.ascii	"mutex_t\000"
 2977      785F7400 
 2978              	.LASF90:
 2979 03b9 69646C65 		.ascii	"idle_thread_wa\000"
 2979      5F746872 
 2979      6561645F 
 2979      776100
 2980              	.LASF28:
 2981 03c8 636E745F 		.ascii	"cnt_t\000"
 2981      7400
 2982              	.LASF1:
 2983 03ce 756E7369 		.ascii	"unsigned int\000"
 2983      676E6564 
 2983      20696E74 
ARM GAS  /var/folders/m4/4md61f0s1_g0rzfghffqnxvr0000gn/T//ccoZmCqg.s 			page 56


 2983      00
 2984              	.LASF74:
 2985 03db 76745F6E 		.ascii	"vt_next\000"
 2985      65787400 
 2986              	.LASF49:
 2987 03e3 705F7469 		.ascii	"p_time\000"
 2987      6D6500
 2988              	.LASF35:
 2989 03ea 77747365 		.ascii	"wtsemp\000"
 2989      6D7000
 2990              	.LASF76:
 2991 03f1 76745F64 		.ascii	"vt_delta\000"
 2991      656C7461 
 2991      00
 2992              	.LASF82:
 2993 03fa 73797374 		.ascii	"system_debug_t\000"
 2993      656D5F64 
 2993      65627567 
 2993      5F7400
 2994              	.LASF59:
 2995 0409 63685F74 		.ascii	"ch_thread\000"
 2995      68726561 
 2995      6400
 2996              	.LASF126:
 2997 0413 4C434B52 		.ascii	"LCKR\000"
 2997      00
 2998              	.LASF110:
 2999 0418 735F636E 		.ascii	"s_cnt\000"
 2999      7400
 3000              	.LASF104:
 3001 041e 636F6E74 		.ascii	"context\000"
 3001      65787400 
 3002              	.LASF10:
 3003 0426 73686F72 		.ascii	"short unsigned int\000"
 3003      7420756E 
 3003      7369676E 
 3003      65642069 
 3003      6E7400
 3004              	.LASF26:
 3005 0439 6D73675F 		.ascii	"msg_t\000"
 3005      7400
 3006              	.LASF173:
 3007 043f 5F5A3765 		.ascii	"_Z7esc_sethd\000"
 3007      73635F73 
 3007      65746864 
 3007      00
 3008              	.LASF166:
 3009 044c 66726571 		.ascii	"frequency\000"
 3009      75656E63 
 3009      7900
 3010              	.LASF94:
 3011 0456 3130466C 		.ascii	"10FlagStatus\000"
 3011      61675374 
 3011      61747573 
 3011      00
 3012              	.LASF85:
 3013 0463 63685F73 		.ascii	"ch_system_t\000"
ARM GAS  /var/folders/m4/4md61f0s1_g0rzfghffqnxvr0000gn/T//ccoZmCqg.s 			page 57


 3013      79737465 
 3013      6D5F7400 
 3014              	.LASF163:
 3015 046f 63616C6C 		.ascii	"callback\000"
 3015      6261636B 
 3015      00
 3016              	.LASF21:
 3017 0478 746D6F64 		.ascii	"tmode_t\000"
 3017      655F7400 
 3018              	.LASF117:
 3019 0480 626F6F6C 		.ascii	"bool\000"
 3019      00
 3020              	.LASF64:
 3021 0485 63685F72 		.ascii	"ch_ready_list\000"
 3021      65616479 
 3021      5F6C6973 
 3021      7400
 3022              	.LASF27:
 3023 0493 6576656E 		.ascii	"eventmask_t\000"
 3023      746D6173 
 3023      6B5F7400 
 3024              	.LASF11:
 3025 049f 5F5F696E 		.ascii	"__int32_t\000"
 3025      7433325F 
 3025      7400
 3026              	.LASF185:
 3027 04a9 6465636C 		.ascii	"decltype(nullptr)\000"
 3027      74797065 
 3027      286E756C 
 3027      6C707472 
 3027      2900
 3028              	.LASF119:
 3029 04bb 31327374 		.ascii	"12stm32_gpio_t\000"
 3029      6D33325F 
 3029      6770696F 
 3029      5F7400
 3030              	.LASF20:
 3031 04ca 7274636E 		.ascii	"rtcnt_t\000"
 3031      745F7400 
 3032              	.LASF57:
 3033 04d2 74687265 		.ascii	"thread_reference_t\000"
 3033      61645F72 
 3033      65666572 
 3033      656E6365 
 3033      5F7400
 3034              	.LASF131:
 3035 04e5 696F6D6F 		.ascii	"iomode_t\000"
 3035      64655F74 
 3035      00
 3036              	.LASF80:
 3037 04ee 63685F76 		.ascii	"ch_virtual_timers_list\000"
 3037      69727475 
 3037      616C5F74 
 3037      696D6572 
 3037      735F6C69 
 3038              	.LASF120:
 3039 0505 636C6561 		.ascii	"clear\000"
ARM GAS  /var/folders/m4/4md61f0s1_g0rzfghffqnxvr0000gn/T//ccoZmCqg.s 			page 58


 3039      7200
 3040              	.LASF100:
 3041 050b 4552524F 		.ascii	"ERROR\000"
 3041      5200
 3042              	.LASF170:
 3043 0511 64757479 		.ascii	"duty_cycle\000"
 3043      5F637963 
 3043      6C6500
 3044              	.LASF65:
 3045 051c 725F7175 		.ascii	"r_queue\000"
 3045      65756500 
 3046              	.LASF107:
 3047 0524 746D5F63 		.ascii	"tm_calibration_t\000"
 3047      616C6962 
 3047      72617469 
 3047      6F6E5F74 
 3047      00
 3048              	.LASF43:
 3049 0535 705F6F6C 		.ascii	"p_older\000"
 3049      64657200 
 3050              	.LASF67:
 3051 053d 725F6374 		.ascii	"r_ctx\000"
 3051      7800
 3052              	.LASF98:
 3053 0543 46756E63 		.ascii	"FunctionalState\000"
 3053      74696F6E 
 3053      616C5374 
 3053      61746500 
 3054              	.LASF77:
 3055 0553 76745F66 		.ascii	"vt_func\000"
 3055      756E6300 
 3056              	.LASF70:
 3057 055b 725F6375 		.ascii	"r_current\000"
 3057      7272656E 
 3057      7400
 3058              	.LASF69:
 3059 0565 725F6F6C 		.ascii	"r_older\000"
 3059      64657200 
 3060              	.LASF152:
 3061 056d 444D4152 		.ascii	"DMAR\000"
 3061      00
 3062              	.LASF128:
 3063 0572 41465248 		.ascii	"AFRH\000"
 3063      00
 3064              	.LASF127:
 3065 0577 4146524C 		.ascii	"AFRL\000"
 3065      00
 3066              	.LASF145:
 3067 057c 70776D63 		.ascii	"pwmcallback_t\000"
 3067      616C6C62 
 3067      61636B5F 
 3067      7400
 3068              	.LASF23:
 3069 058a 74726566 		.ascii	"trefs_t\000"
 3069      735F7400 
 3070              	.LASF72:
 3071 0592 76697274 		.ascii	"virtual_timer_t\000"
ARM GAS  /var/folders/m4/4md61f0s1_g0rzfghffqnxvr0000gn/T//ccoZmCqg.s 			page 59


 3071      75616C5F 
 3071      74696D65 
 3071      725F7400 
 3072              	.LASF39:
 3073 05a2 705F7072 		.ascii	"p_prev\000"
 3073      657600
 3074              	.LASF179:
 3075 05a9 6573635F 		.ascii	"esc_set_all\000"
 3075      7365745F 
 3075      616C6C00 
 3076              	.LASF92:
 3077 05b5 52455345 		.ascii	"RESET\000"
 3077      5400
 3078              	.LASF25:
 3079 05bb 74707269 		.ascii	"tprio_t\000"
 3079      6F5F7400 
 3080              	.LASF143:
 3081 05c3 6368616E 		.ascii	"channels\000"
 3081      6E656C73 
 3081      00
 3082              	.LASF83:
 3083 05cc 63685F73 		.ascii	"ch_system_debug\000"
 3083      79737465 
 3083      6D5F6465 
 3083      62756700 
 3084              	.LASF18:
 3085 05dc 696E7433 		.ascii	"int32_t\000"
 3085      325F7400 
 3086              	.LASF7:
 3087 05e4 756E7369 		.ascii	"unsigned char\000"
 3087      676E6564 
 3087      20636861 
 3087      7200
 3088              	.LASF161:
 3089 05f2 31365057 		.ascii	"16PWMChannelConfig\000"
 3089      4D436861 
 3089      6E6E656C 
 3089      436F6E66 
 3089      696700
 3090              	.LASF54:
 3091 0605 705F6D74 		.ascii	"p_mtxlist\000"
 3091      786C6973 
 3091      7400
 3092              	.LASF8:
 3093 060f 73686F72 		.ascii	"short int\000"
 3093      7420696E 
 3093      7400
 3094              	.LASF45:
 3095 0619 705F7374 		.ascii	"p_state\000"
 3095      61746500 
 3096              	.LASF177:
 3097 0621 636E745F 		.ascii	"cnt_val\000"
 3097      76616C00 
 3098              	.LASF48:
 3099 0629 705F7072 		.ascii	"p_preempt\000"
 3099      65656D70 
 3099      7400
ARM GAS  /var/folders/m4/4md61f0s1_g0rzfghffqnxvr0000gn/T//ccoZmCqg.s 			page 60


 3100              	.LASF34:
 3101 0633 77747472 		.ascii	"wttrp\000"
 3101      7000
 3102              	.LASF66:
 3103 0639 725F7072 		.ascii	"r_prio\000"
 3103      696F00
 3104              	.LASF37:
 3105 0640 65776D61 		.ascii	"ewmask\000"
 3105      736B00
 3106              	.LASF38:
 3107 0647 705F6E65 		.ascii	"p_next\000"
 3107      787400
 3108              	.LASF158:
 3109 064e 70776D63 		.ascii	"pwmchnmsk_t\000"
 3109      686E6D73 
 3109      6B5F7400 
 3110              	.LASF46:
 3111 065a 705F666C 		.ascii	"p_flags\000"
 3111      61677300 
 3112              	.LASF169:
 3113 0662 6368616E 		.ascii	"channel\000"
 3113      6E656C00 
 3114              	.LASF73:
 3115 066a 63685F76 		.ascii	"ch_virtual_timer\000"
 3115      69727475 
 3115      616C5F74 
 3115      696D6572 
 3115      00
 3116              	.LASF108:
 3117 067b 63685F73 		.ascii	"ch_semaphore\000"
 3117      656D6170 
 3117      686F7265 
 3117      00
 3118              	.LASF154:
 3119 0688 43435852 		.ascii	"CCXR\000"
 3119      00
 3120              	.LASF53:
 3121 068d 705F6570 		.ascii	"p_epending\000"
 3121      656E6469 
 3121      6E6700
 3122              	.LASF183:
 3123 0698 6573632E 		.ascii	"esc.cpp\000"
 3123      63707000 
 3124              	.LASF19:
 3125 06a0 75696E74 		.ascii	"uint32_t\000"
 3125      33325F74 
 3125      00
 3126              	.LASF103:
 3127 06a9 72656761 		.ascii	"regarm_t\000"
 3127      726D5F74 
 3127      00
 3128              	.LASF174:
 3129 06b2 5F5A3865 		.ascii	"_Z8esc_initv\000"
 3129      73635F69 
 3129      6E697476 
 3129      00
 3130              	.LASF81:
ARM GAS  /var/folders/m4/4md61f0s1_g0rzfghffqnxvr0000gn/T//ccoZmCqg.s 			page 61


 3131 06bf 76745F73 		.ascii	"vt_systime\000"
 3131      79737469 
 3131      6D6500
 3132              	.LASF168:
 3133 06ca 50574D43 		.ascii	"PWMConfig\000"
 3133      6F6E6669 
 3133      6700
 3134              	.LASF60:
 3135 06d4 63685F74 		.ascii	"ch_threads_list\000"
 3135      68726561 
 3135      64735F6C 
 3135      69737400 
 3136              	.LASF3:
 3137 06e4 6C6F6E67 		.ascii	"long double\000"
 3137      20646F75 
 3137      626C6500 
 3138              	.LASF135:
 3139 06f0 50574D5F 		.ascii	"PWM_STOP\000"
 3139      53544F50 
 3139      00
 3140              	.LASF115:
 3141 06f9 63686172 		.ascii	"char\000"
 3141      00
 3142              	.LASF162:
 3143 06fe 6D6F6465 		.ascii	"mode\000"
 3143      00
 3144              	.LASF146:
 3145 0703 534D4352 		.ascii	"SMCR\000"
 3145      00
 3146              	.LASF140:
 3147 0708 636F6E66 		.ascii	"config\000"
 3147      696700
 3148              	.LASF9:
 3149 070f 5F5F7569 		.ascii	"__uint16_t\000"
 3149      6E743136 
 3149      5F7400
 3150              	.LASF118:
 3151 071a 3136746D 		.ascii	"16tm_calibration_t\000"
 3151      5F63616C 
 3151      69627261 
 3151      74696F6E 
 3151      5F7400
 3152              	.LASF150:
 3153 072d 43434552 		.ascii	"CCER\000"
 3153      00
 3154              	.LASF114:
 3155 0732 6D5F6E65 		.ascii	"m_next\000"
 3155      787400
 3156              	.LASF29:
 3157 0739 73797374 		.ascii	"systime_t\000"
 3157      696D655F 
 3157      7400
 3158              	.LASF55:
 3159 0743 705F7265 		.ascii	"p_realprio\000"
 3159      616C7072 
 3159      696F00
 3160              	.LASF71:
ARM GAS  /var/folders/m4/4md61f0s1_g0rzfghffqnxvr0000gn/T//ccoZmCqg.s 			page 62


 3161 074e 76746675 		.ascii	"vtfunc_t\000"
 3161      6E635F74 
 3161      00
 3162              	.LASF13:
 3163 0757 5F5F7569 		.ascii	"__uint32_t\000"
 3163      6E743332 
 3163      5F7400
 3164              	.LASF36:
 3165 0762 77746D74 		.ascii	"wtmtxp\000"
 3165      787000
 3166              	.LASF84:
 3167 0769 70616E69 		.ascii	"panic_msg\000"
 3167      635F6D73 
 3167      6700
 3168              	.LASF106:
 3169 0773 6F666673 		.ascii	"offset\000"
 3169      657400
 3170              	.LASF132:
 3171 077a 696F706F 		.ascii	"ioportid_t\000"
 3171      72746964 
 3171      5F7400
 3172              	.LASF142:
 3173 0785 656E6162 		.ascii	"enabled\000"
 3173      6C656400 
 3174              	.LASF187:
 3175 078d 5F70616C 		.ascii	"_pal_lld_setgroupmode\000"
 3175      5F6C6C64 
 3175      5F736574 
 3175      67726F75 
 3175      706D6F64 
 3176              	.LASF164:
 3177 07a3 50574D43 		.ascii	"PWMChannelConfig\000"
 3177      68616E6E 
 3177      656C436F 
 3177      6E666967 
 3177      00
 3178              	.LASF51:
 3179 07b4 705F6D73 		.ascii	"p_msgqueue\000"
 3179      67717565 
 3179      756500
 3180              	.LASF178:
 3181 07bf 70776D63 		.ascii	"pwmcfg\000"
 3181      666700
 3182              	.LASF78:
 3183 07c6 76745F70 		.ascii	"vt_par\000"
 3183      617200
 3184              	.LASF186:
 3185 07cd 5F5A3131 		.ascii	"_Z11esc_set_alld\000"
 3185      6573635F 
 3185      7365745F 
 3185      616C6C64 
 3185      00
 3186              	.LASF61:
 3187 07de 74687265 		.ascii	"threads_queue_t\000"
 3187      6164735F 
 3187      71756575 
 3187      655F7400 
ARM GAS  /var/folders/m4/4md61f0s1_g0rzfghffqnxvr0000gn/T//ccoZmCqg.s 			page 63


 3188              	.LASF31:
 3189 07ee 7264796D 		.ascii	"rdymsg\000"
 3189      736700
 3190              	.LASF47:
 3191 07f5 705F7265 		.ascii	"p_refs\000"
 3191      667300
 3192              	.LASF30:
 3193 07fc 74687265 		.ascii	"thread_t\000"
 3193      61645F74 
 3193      00
 3194              	.LASF87:
 3195 0805 726C6973 		.ascii	"rlist\000"
 3195      7400
 3196              	.LASF16:
 3197 080b 75696E74 		.ascii	"uint8_t\000"
 3197      385F7400 
 3198              	.LASF138:
 3199 0813 50574D44 		.ascii	"PWMDriver\000"
 3199      72697665 
 3199      7200
 3200              	.LASF101:
 3201 081d 53554343 		.ascii	"SUCCESS\000"
 3201      45535300 
 3202              	.LASF137:
 3203 0825 70776D73 		.ascii	"pwmstate_t\000"
 3203      74617465 
 3203      5F7400
 3204              	.LASF91:
 3205 0830 73697A65 		.ascii	"sizetype\000"
 3205      74797065 
 3205      00
 3206              	.LASF159:
 3207 0839 70776D63 		.ascii	"pwmcnt_t\000"
 3207      6E745F74 
 3207      00
 3208              	.LASF111:
 3209 0842 63685F6D 		.ascii	"ch_mutex\000"
 3209      75746578 
 3209      00
 3210              	.LASF44:
 3211 084b 705F6E61 		.ascii	"p_name\000"
 3211      6D6500
 3212              	.LASF180:
 3213 0852 70776D45 		.ascii	"pwmEnableChannel\000"
 3213      6E61626C 
 3213      65436861 
 3213      6E6E656C 
 3213      00
 3214              	.LASF58:
 3215 0863 74687265 		.ascii	"threads_list_t\000"
 3215      6164735F 
 3215      6C697374 
 3215      5F7400
 3216              	.LASF144:
 3217 0872 636C6F63 		.ascii	"clock\000"
 3217      6B00
 3218              	.LASF52:
ARM GAS  /var/folders/m4/4md61f0s1_g0rzfghffqnxvr0000gn/T//ccoZmCqg.s 			page 64


 3219 0878 705F6D73 		.ascii	"p_msg\000"
 3219      6700
 3220              	.LASF134:
 3221 087e 50574D5F 		.ascii	"PWM_UNINIT\000"
 3221      554E494E 
 3221      495400
 3222              	.LASF113:
 3223 0889 6D5F6F77 		.ascii	"m_owner\000"
 3223      6E657200 
 3224              	.LASF0:
 3225 0891 646F7562 		.ascii	"double\000"
 3225      6C6500
 3226              	.LASF41:
 3227 0898 705F6374 		.ascii	"p_ctx\000"
 3227      7800
 3228              	.LASF50:
 3229 089e 705F7761 		.ascii	"p_waiting\000"
 3229      6974696E 
 3229      6700
 3230              	.LASF167:
 3231 08a8 64696572 		.ascii	"dier\000"
 3231      00
 3232              		.ident	"GCC: (GNU Tools for ARM Embedded Processors) 4.9.3 20150529 (release) [ARM/embedded-4_9-br
ARM GAS  /var/folders/m4/4md61f0s1_g0rzfghffqnxvr0000gn/T//ccoZmCqg.s 			page 65


DEFINED SYMBOLS
                            *ABS*:0000000000000000 esc.cpp
/var/folders/m4/4md61f0s1_g0rzfghffqnxvr0000gn/T//ccoZmCqg.s:24     .text._Z7esc_sethd:0000000000000000 $t
/var/folders/m4/4md61f0s1_g0rzfghffqnxvr0000gn/T//ccoZmCqg.s:30     .text._Z7esc_sethd:0000000000000000 _Z7esc_sethd
/var/folders/m4/4md61f0s1_g0rzfghffqnxvr0000gn/T//ccoZmCqg.s:143    .text._Z7esc_sethd:0000000000000078 $d
/var/folders/m4/4md61f0s1_g0rzfghffqnxvr0000gn/T//ccoZmCqg.s:153    .text._Z8esc_initv:0000000000000000 $t
/var/folders/m4/4md61f0s1_g0rzfghffqnxvr0000gn/T//ccoZmCqg.s:159    .text._Z8esc_initv:0000000000000000 _Z8esc_initv
/var/folders/m4/4md61f0s1_g0rzfghffqnxvr0000gn/T//ccoZmCqg.s:220    .text._Z8esc_initv:0000000000000050 $d
/var/folders/m4/4md61f0s1_g0rzfghffqnxvr0000gn/T//ccoZmCqg.s:231    .text._Z11esc_set_alld:0000000000000000 $t
/var/folders/m4/4md61f0s1_g0rzfghffqnxvr0000gn/T//ccoZmCqg.s:237    .text._Z11esc_set_alld:0000000000000000 _Z11esc_set_alld
/var/folders/m4/4md61f0s1_g0rzfghffqnxvr0000gn/T//ccoZmCqg.s:253    .data._ZL6pwmcfg:0000000000000000 $d
/var/folders/m4/4md61f0s1_g0rzfghffqnxvr0000gn/T//ccoZmCqg.s:257    .data._ZL6pwmcfg:0000000000000000 _ZL6pwmcfg
                     .debug_frame:0000000000000010 $d

UNDEFINED SYMBOLS
__aeabi_dmul
__aeabi_ddiv
__aeabi_d2uiz
pwmEnableChannel
PWMD5
pwmStart
_pal_lld_setgroupmode
