ARM GAS  /var/folders/m4/4md61f0s1_g0rzfghffqnxvr0000gn/T//cch8PDSP.s 			page 1


   1              		.syntax unified
   2              		.cpu cortex-m4
   3              		.eabi_attribute 27, 1
   4              		.eabi_attribute 28, 1
   5              		.fpu fpv4-sp-d16
   6              		.eabi_attribute 20, 1
   7              		.eabi_attribute 21, 1
   8              		.eabi_attribute 23, 3
   9              		.eabi_attribute 24, 1
  10              		.eabi_attribute 25, 1
  11              		.eabi_attribute 26, 1
  12              		.eabi_attribute 30, 2
  13              		.eabi_attribute 34, 1
  14              		.eabi_attribute 18, 4
  15              		.thumb
  16              		.syntax unified
  17              		.file	"esc.cpp"
  18              		.text
  19              	.Ltext0:
  20              		.cfi_sections	.debug_frame
  21              		.global	__aeabi_dmul
  22              		.global	__aeabi_ddiv
  23              		.global	__aeabi_d2uiz
  24              		.section	.text._Z7esc_sethd,"ax",%progbits
  25              		.align	2
  26              		.p2align 4,,15
  27              		.global	_Z7esc_sethd
  28              		.thumb
  29              		.thumb_func
  30              		.type	_Z7esc_sethd, %function
  31              	_Z7esc_sethd:
  32              	.LFB269:
  33              		.file 1 "esc.cpp"
  34              		.loc 1 47 0
  35              		.cfi_startproc
  36              		@ args = 0, pretend = 0, frame = 0
  37              		@ frame_needed = 0, uses_anonymous_args = 0
  38              	.LVL0:
  39 0000 38B5     		push	{r3, r4, r5, lr}
  40              		.cfi_def_cfa_offset 16
  41              		.cfi_offset 3, -16
  42              		.cfi_offset 4, -12
  43              		.cfi_offset 5, -8
  44              		.cfi_offset 14, -4
  45              		.loc 1 47 0
  46 0002 0446     		mov	r4, r0
  47              		.loc 1 50 0
  48 0004 1DA3     		adr	r3, .L13+4
  49 0006 D3E90023 		ldrd	r2, [r3]
  50 000a 51EC100B 		vmov	r0, r1, d0
  51              	.LVL1:
  52 000e FFF7FEFF 		bl	__aeabi_dmul
  53              	.LVL2:
  54 0012 1CA3     		adr	r3, .L13+12
  55 0014 D3E90023 		ldrd	r2, [r3]
  56 0018 FFF7FEFF 		bl	__aeabi_ddiv
  57              	.LVL3:
ARM GAS  /var/folders/m4/4md61f0s1_g0rzfghffqnxvr0000gn/T//cch8PDSP.s 			page 2


  58 001c FFF7FEFF 		bl	__aeabi_d2uiz
  59              	.LVL4:
  60              		.loc 1 52 0
  61 0020 022C     		cmp	r4, #2
  62              		.loc 1 50 0
  63 0022 0546     		mov	r5, r0
  64              	.LVL5:
  65              		.loc 1 52 0
  66 0024 03D0     		beq	.L7
  67 0026 09D8     		bhi	.L4
  68 0028 0CB1     		cbz	r4, .L7
  69 002a 012C     		cmp	r4, #1
  70 002c 20D1     		bne	.L11
  71              	.L7:
  72              		.loc 1 66 0
  73 002e 2A46     		mov	r2, r5
  74 0030 2146     		mov	r1, r4
  75 0032 1148     		ldr	r0, .L13
  76              	.LVL6:
  77              		.loc 1 79 0
  78 0034 BDE83840 		pop	{r3, r4, r5, lr}
  79              		.cfi_remember_state
  80              		.cfi_restore 14
  81              		.cfi_restore 5
  82              		.cfi_restore 4
  83              		.cfi_restore 3
  84              		.cfi_def_cfa_offset 0
  85              	.LVL7:
  86              		.loc 1 66 0
  87 0038 FFF7FEBF 		b	pwmEnableChannel
  88              	.LVL8:
  89              	.L4:
  90              		.cfi_restore_state
  91              		.loc 1 52 0
  92 003c 032C     		cmp	r4, #3
  93 003e F6D0     		beq	.L7
  94 0040 FF2C     		cmp	r4, #255
  95 0042 16D1     		bne	.L12
  96              		.loc 1 70 0
  97 0044 0246     		mov	r2, r0
  98 0046 0021     		movs	r1, #0
  99 0048 0B48     		ldr	r0, .L13
 100              	.LVL9:
 101 004a FFF7FEFF 		bl	pwmEnableChannel
 102              	.LVL10:
 103              		.loc 1 71 0
 104 004e 2A46     		mov	r2, r5
 105 0050 0121     		movs	r1, #1
 106 0052 0948     		ldr	r0, .L13
 107 0054 FFF7FEFF 		bl	pwmEnableChannel
 108              	.LVL11:
 109              		.loc 1 72 0
 110 0058 2A46     		mov	r2, r5
 111 005a 0221     		movs	r1, #2
 112 005c 0648     		ldr	r0, .L13
 113 005e FFF7FEFF 		bl	pwmEnableChannel
 114              	.LVL12:
ARM GAS  /var/folders/m4/4md61f0s1_g0rzfghffqnxvr0000gn/T//cch8PDSP.s 			page 3


 115              		.loc 1 73 0
 116 0062 2A46     		mov	r2, r5
 117 0064 0321     		movs	r1, #3
 118 0066 0448     		ldr	r0, .L13
 119              		.loc 1 79 0
 120 0068 BDE83840 		pop	{r3, r4, r5, lr}
 121              		.cfi_remember_state
 122              		.cfi_restore 14
 123              		.cfi_restore 5
 124              		.cfi_restore 4
 125              		.cfi_restore 3
 126              		.cfi_def_cfa_offset 0
 127              	.LVL13:
 128              		.loc 1 73 0
 129 006c FFF7FEBF 		b	pwmEnableChannel
 130              	.LVL14:
 131              	.L11:
 132              		.cfi_restore_state
 133 0070 38BD     		pop	{r3, r4, r5, pc}
 134              	.L12:
 135 0072 38BD     		pop	{r3, r4, r5, pc}
 136              	.L14:
 137 0074 AFF30080 		.align	3
 138              	.L13:
 139 0078 00000000 		.word	PWMD5
 140 007c 00000000 		.word	0
 141 0080 D0126341 		.word	1097011920
 142 0084 00000000 		.word	0
 143 0088 0088C340 		.word	1086556160
 144              		.cfi_endproc
 145              	.LFE269:
 146              		.size	_Z7esc_sethd, .-_Z7esc_sethd
 147              		.section	.text._Z8esc_initv,"ax",%progbits
 148              		.align	2
 149              		.p2align 4,,15
 150              		.global	_Z8esc_initv
 151              		.thumb
 152              		.thumb_func
 153              		.type	_Z8esc_initv, %function
 154              	_Z8esc_initv:
 155              	.LFB268:
 156              		.loc 1 24 0
 157              		.cfi_startproc
 158              		@ args = 0, pretend = 0, frame = 0
 159              		@ frame_needed = 0, uses_anonymous_args = 0
 160 0000 10B5     		push	{r4, lr}
 161              		.cfi_def_cfa_offset 8
 162              		.cfi_offset 4, -8
 163              		.cfi_offset 14, -4
 164              		.loc 1 30 0
 165 0002 154C     		ldr	r4, .L17+8
 166              		.loc 1 25 0
 167 0004 1549     		ldr	r1, .L17+12
 168 0006 1648     		ldr	r0, .L17+16
 169 0008 FFF7FEFF 		bl	pwmStart
 170              	.LVL15:
 171              		.loc 1 30 0
ARM GAS  /var/folders/m4/4md61f0s1_g0rzfghffqnxvr0000gn/T//cch8PDSP.s 			page 4


 172 000c 2046     		mov	r0, r4
 173 000e 4FF48572 		mov	r2, #266
 174 0012 0121     		movs	r1, #1
 175 0014 FFF7FEFF 		bl	_pal_lld_setgroupmode
 176              	.LVL16:
 177              		.loc 1 34 0
 178 0018 2046     		mov	r0, r4
 179 001a 4FF48572 		mov	r2, #266
 180 001e 0221     		movs	r1, #2
 181 0020 FFF7FEFF 		bl	_pal_lld_setgroupmode
 182              	.LVL17:
 183              		.loc 1 38 0
 184 0024 2046     		mov	r0, r4
 185 0026 4FF48572 		mov	r2, #266
 186 002a 0421     		movs	r1, #4
 187 002c FFF7FEFF 		bl	_pal_lld_setgroupmode
 188              	.LVL18:
 189              		.loc 1 42 0
 190 0030 2046     		mov	r0, r4
 191 0032 4FF48572 		mov	r2, #266
 192 0036 0821     		movs	r1, #8
 193 0038 FFF7FEFF 		bl	_pal_lld_setgroupmode
 194              	.LVL19:
 195              	.LBB4:
 196              	.LBB5:
 197              		.loc 1 82 0
 198 003c 9FED040B 		vldr.64	d0, .L17
 199 0040 FF20     		movs	r0, #255
 200              	.LBE5:
 201              	.LBE4:
 202              		.loc 1 45 0
 203 0042 BDE81040 		pop	{r4, lr}
 204              		.cfi_restore 14
 205              		.cfi_restore 4
 206              		.cfi_def_cfa_offset 0
 207              	.LBB7:
 208              	.LBB6:
 209              		.loc 1 82 0
 210 0046 FFF7FEBF 		b	_Z7esc_sethd
 211              	.LVL20:
 212              	.L18:
 213 004a 00BFAFF3 		.align	3
 213      0080
 214              	.L17:
 215 0050 00000000 		.word	0
 216 0054 00000000 		.word	0
 217 0058 00000240 		.word	1073872896
 218 005c 00000000 		.word	.LANCHOR0
 219 0060 00000000 		.word	PWMD5
 220              	.LBE6:
 221              	.LBE7:
 222              		.cfi_endproc
 223              	.LFE268:
 224              		.size	_Z8esc_initv, .-_Z8esc_initv
 225              		.section	.text._Z11esc_set_alld,"ax",%progbits
 226              		.align	2
 227              		.p2align 4,,15
ARM GAS  /var/folders/m4/4md61f0s1_g0rzfghffqnxvr0000gn/T//cch8PDSP.s 			page 5


 228              		.global	_Z11esc_set_alld
 229              		.thumb
 230              		.thumb_func
 231              		.type	_Z11esc_set_alld, %function
 232              	_Z11esc_set_alld:
 233              	.LFB270:
 234              		.loc 1 81 0
 235              		.cfi_startproc
 236              		@ args = 0, pretend = 0, frame = 0
 237              		@ frame_needed = 0, uses_anonymous_args = 0
 238              		@ link register save eliminated.
 239              	.LVL21:
 240              		.loc 1 82 0
 241 0000 FF20     		movs	r0, #255
 242 0002 FFF7FEBF 		b	_Z7esc_sethd
 243              	.LVL22:
 244              		.cfi_endproc
 245              	.LFE270:
 246              		.size	_Z11esc_set_alld, .-_Z11esc_set_alld
 247 0006 00BF     		.section	.data._ZL6pwmcfg,"aw",%progbits
 248              		.align	2
 249              		.set	.LANCHOR0,. + 0
 250              		.type	_ZL6pwmcfg, %object
 251              		.size	_ZL6pwmcfg, 52
 252              	_ZL6pwmcfg:
 253 0000 80969800 		.word	10000000
 254 0004 E8030000 		.word	1000
 255 0008 00000000 		.word	0
 256 000c 01000000 		.word	1
 257 0010 00000000 		.word	0
 258 0014 01000000 		.word	1
 259 0018 00000000 		.word	0
 260 001c 01000000 		.word	1
 261 0020 00000000 		.word	0
 262 0024 01000000 		.word	1
 263 0028 00000000 		.word	0
 264 002c 00000000 		.word	0
 265 0030 00000000 		.word	0
 266              		.text
 267              	.Letext0:
 268              		.file 2 "/opt/homebrew-cask/Caskroom/gcc-arm-embedded/5_2-2015q4,20151219/gcc-arm-none-eabi-5_2-20
 269              		.file 3 "/opt/homebrew-cask/Caskroom/gcc-arm-embedded/5_2-2015q4,20151219/gcc-arm-none-eabi-5_2-20
 270              		.file 4 "/opt/homebrew-cask/Caskroom/gcc-arm-embedded/5_2-2015q4,20151219/gcc-arm-none-eabi-5_2-20
 271              		.file 5 "ChibiOS_16.1.4/os/rt/ports/ARMCMx/compilers/GCC/chtypes.h"
 272              		.file 6 "ChibiOS_16.1.4/os/rt/include/chsystypes.h"
 273              		.file 7 "ChibiOS_16.1.4/os/rt/include/chschd.h"
 274              		.file 8 "ChibiOS_16.1.4/os/ext/CMSIS/ST/STM32F4xx/stm32f4xx.h"
 275              		.file 9 "ChibiOS_16.1.4/os/rt/ports/ARMCMx/chcore.h"
 276              		.file 10 "ChibiOS_16.1.4/os/rt/ports/ARMCMx/chcore_v7m.h"
 277              		.file 11 "ChibiOS_16.1.4/os/rt/include/chtm.h"
 278              		.file 12 "ChibiOS_16.1.4/os/rt/include/chsem.h"
 279              		.file 13 "ChibiOS_16.1.4/os/rt/include/chmtx.h"
 280              		.file 14 "ChibiOS_16.1.4/os/hal/ports/STM32/LLD/GPIOv2/pal_lld.h"
 281              		.file 15 "ChibiOS_16.1.4/os/hal/include/pwm.h"
 282              		.file 16 "ChibiOS_16.1.4/os/hal/ports/STM32/LLD/TIMv1/pwm_lld.h"
 283              		.file 17 "ChibiOS_16.1.4/os/hal/ports/STM32/LLD/TIMv1/stm32_tim.h"
 284              		.file 18 "ChibiOS_16.1.4/os/ext/CMSIS/include/core_cm4.h"
ARM GAS  /var/folders/m4/4md61f0s1_g0rzfghffqnxvr0000gn/T//cch8PDSP.s 			page 6

