ARM GAS  /var/folders/m4/4md61f0s1_g0rzfghffqnxvr0000gn/T//ccCjnT2q.s 			page 1


   1              		.syntax unified
   2              		.cpu cortex-m4
   3              		.eabi_attribute 27, 1
   4              		.eabi_attribute 28, 1
   5              		.fpu fpv4-sp-d16
   6              		.eabi_attribute 20, 1
   7              		.eabi_attribute 21, 1
   8              		.eabi_attribute 23, 3
   9              		.eabi_attribute 24, 1
  10              		.eabi_attribute 25, 1
  11              		.eabi_attribute 26, 1
  12              		.eabi_attribute 30, 2
  13              		.eabi_attribute 34, 1
  14              		.eabi_attribute 18, 4
  15              		.thumb
  16              		.file	"esc.c"
  17              		.text
  18              	.Ltext0:
  19              		.cfi_sections	.debug_frame
  20              		.global	__aeabi_dmul
  21              		.global	__aeabi_ddiv
  22              		.global	__aeabi_d2uiz
  23              		.section	.text.esc_set,"ax",%progbits
  24              		.align	2
  25              		.p2align 4,,15
  26              		.global	esc_set
  27              		.thumb
  28              		.thumb_func
  29              		.type	esc_set, %function
  30              	esc_set:
  31              	.LFB269:
  32              		.file 1 "esc.c"
  33              		.loc 1 46 0
  34              		.cfi_startproc
  35              		@ args = 0, pretend = 0, frame = 0
  36              		@ frame_needed = 0, uses_anonymous_args = 0
  37              	.LVL0:
  38 0000 38B5     		push	{r3, r4, r5, lr}
  39              		.cfi_def_cfa_offset 16
  40              		.cfi_offset 3, -16
  41              		.cfi_offset 4, -12
  42              		.cfi_offset 5, -8
  43              		.cfi_offset 14, -4
  44              		.loc 1 46 0
  45 0002 0446     		mov	r4, r0
  46              		.loc 1 49 0
  47 0004 1DA3     		adr	r3, .L13+4
  48 0006 D3E90023 		ldrd	r2, [r3]
  49 000a 51EC100B 		fmrrd	r0, r1, d0
  50              	.LVL1:
  51 000e FFF7FEFF 		bl	__aeabi_dmul
  52              	.LVL2:
  53 0012 1CA3     		adr	r3, .L13+12
  54 0014 D3E90023 		ldrd	r2, [r3]
  55 0018 FFF7FEFF 		bl	__aeabi_ddiv
  56              	.LVL3:
  57 001c FFF7FEFF 		bl	__aeabi_d2uiz
ARM GAS  /var/folders/m4/4md61f0s1_g0rzfghffqnxvr0000gn/T//ccCjnT2q.s 			page 2


  58              	.LVL4:
  59              		.loc 1 51 0
  60 0020 022C     		cmp	r4, #2
  61              		.loc 1 49 0
  62 0022 0546     		mov	r5, r0
  63              	.LVL5:
  64              		.loc 1 51 0
  65 0024 03D0     		beq	.L7
  66 0026 09D8     		bhi	.L4
  67 0028 0CB1     		cbz	r4, .L7
  68 002a 012C     		cmp	r4, #1
  69 002c 20D1     		bne	.L11
  70              	.L7:
  71              		.loc 1 65 0
  72 002e 2146     		mov	r1, r4
  73 0030 2A46     		mov	r2, r5
  74 0032 1148     		ldr	r0, .L13
  75              	.LVL6:
  76              		.loc 1 78 0
  77 0034 BDE83840 		pop	{r3, r4, r5, lr}
  78              		.cfi_remember_state
  79              		.cfi_restore 14
  80              		.cfi_restore 5
  81              		.cfi_restore 4
  82              		.cfi_restore 3
  83              		.cfi_def_cfa_offset 0
  84              	.LVL7:
  85              		.loc 1 65 0
  86 0038 FFF7FEBF 		b	pwmEnableChannel
  87              	.LVL8:
  88              	.L4:
  89              		.cfi_restore_state
  90              		.loc 1 51 0
  91 003c 032C     		cmp	r4, #3
  92 003e F6D0     		beq	.L7
  93 0040 FF2C     		cmp	r4, #255
  94 0042 16D1     		bne	.L12
  95              		.loc 1 69 0
  96 0044 2A46     		mov	r2, r5
  97 0046 0C48     		ldr	r0, .L13
  98              	.LVL9:
  99 0048 0021     		movs	r1, #0
 100 004a FFF7FEFF 		bl	pwmEnableChannel
 101              	.LVL10:
 102              		.loc 1 70 0
 103 004e 2A46     		mov	r2, r5
 104 0050 0948     		ldr	r0, .L13
 105 0052 0121     		movs	r1, #1
 106 0054 FFF7FEFF 		bl	pwmEnableChannel
 107              	.LVL11:
 108              		.loc 1 71 0
 109 0058 2A46     		mov	r2, r5
 110 005a 0748     		ldr	r0, .L13
 111 005c 0221     		movs	r1, #2
 112 005e FFF7FEFF 		bl	pwmEnableChannel
 113              	.LVL12:
 114              		.loc 1 72 0
ARM GAS  /var/folders/m4/4md61f0s1_g0rzfghffqnxvr0000gn/T//ccCjnT2q.s 			page 3


 115 0062 2A46     		mov	r2, r5
 116 0064 0448     		ldr	r0, .L13
 117 0066 0321     		movs	r1, #3
 118              		.loc 1 78 0
 119 0068 BDE83840 		pop	{r3, r4, r5, lr}
 120              		.cfi_remember_state
 121              		.cfi_restore 14
 122              		.cfi_restore 5
 123              		.cfi_restore 4
 124              		.cfi_restore 3
 125              		.cfi_def_cfa_offset 0
 126              	.LVL13:
 127              		.loc 1 72 0
 128 006c FFF7FEBF 		b	pwmEnableChannel
 129              	.LVL14:
 130              	.L11:
 131              		.cfi_restore_state
 132 0070 38BD     		pop	{r3, r4, r5, pc}
 133              	.L12:
 134 0072 38BD     		pop	{r3, r4, r5, pc}
 135              	.L14:
 136 0074 AFF30080 		.align	3
 137              	.L13:
 138 0078 00000000 		.word	PWMD5
 139 007c 00000000 		.word	0
 140 0080 D0126341 		.word	1097011920
 141 0084 00000000 		.word	0
 142 0088 0088C340 		.word	1086556160
 143              		.cfi_endproc
 144              	.LFE269:
 145              		.size	esc_set, .-esc_set
 146              		.section	.text.esc_set_all,"ax",%progbits
 147              		.align	2
 148              		.p2align 4,,15
 149              		.global	esc_set_all
 150              		.thumb
 151              		.thumb_func
 152              		.type	esc_set_all, %function
 153              	esc_set_all:
 154              	.LFB270:
 155              		.loc 1 80 0
 156              		.cfi_startproc
 157              		@ args = 0, pretend = 0, frame = 0
 158              		@ frame_needed = 0, uses_anonymous_args = 0
 159              		@ link register save eliminated.
 160              	.LVL15:
 161              		.loc 1 81 0
 162 0000 FF20     		movs	r0, #255
 163 0002 FFF7FEBF 		b	esc_set
 164              	.LVL16:
 165              		.cfi_endproc
 166              	.LFE270:
 167              		.size	esc_set_all, .-esc_set_all
 168 0006 00BF     		.section	.text.esc_init,"ax",%progbits
 169              		.align	2
 170              		.p2align 4,,15
 171              		.global	esc_init
ARM GAS  /var/folders/m4/4md61f0s1_g0rzfghffqnxvr0000gn/T//ccCjnT2q.s 			page 4


 172              		.thumb
 173              		.thumb_func
 174              		.type	esc_init, %function
 175              	esc_init:
 176              	.LFB268:
 177              		.loc 1 23 0
 178              		.cfi_startproc
 179              		@ args = 0, pretend = 0, frame = 0
 180              		@ frame_needed = 0, uses_anonymous_args = 0
 181 0000 10B5     		push	{r4, lr}
 182              		.cfi_def_cfa_offset 8
 183              		.cfi_offset 4, -8
 184              		.cfi_offset 14, -4
 185              		.loc 1 26 0
 186 0002 114C     		ldr	r4, .L18
 187              		.loc 1 24 0
 188 0004 1148     		ldr	r0, .L18+4
 189 0006 1249     		ldr	r1, .L18+8
 190 0008 FFF7FEFF 		bl	pwmStart
 191              	.LVL17:
 192              		.loc 1 26 0
 193 000c 2046     		mov	r0, r4
 194 000e 0121     		movs	r1, #1
 195 0010 4FF48572 		mov	r2, #266
 196 0014 FFF7FEFF 		bl	_pal_lld_setgroupmode
 197              	.LVL18:
 198              		.loc 1 30 0
 199 0018 2046     		mov	r0, r4
 200 001a 0221     		movs	r1, #2
 201 001c 4FF48572 		mov	r2, #266
 202 0020 FFF7FEFF 		bl	_pal_lld_setgroupmode
 203              	.LVL19:
 204              		.loc 1 34 0
 205 0024 2046     		mov	r0, r4
 206 0026 0421     		movs	r1, #4
 207 0028 4FF48572 		mov	r2, #266
 208 002c FFF7FEFF 		bl	_pal_lld_setgroupmode
 209              	.LVL20:
 210              		.loc 1 38 0
 211 0030 2046     		mov	r0, r4
 212 0032 0821     		movs	r1, #8
 213 0034 4FF48572 		mov	r2, #266
 214 0038 FFF7FEFF 		bl	_pal_lld_setgroupmode
 215              	.LVL21:
 216              		.loc 1 43 0
 217 003c 0020     		movs	r0, #0
 218              		.loc 1 44 0
 219 003e BDE81040 		pop	{r4, lr}
 220              		.cfi_restore 14
 221              		.cfi_restore 4
 222              		.cfi_def_cfa_offset 0
 223              		.loc 1 43 0
 224 0042 FFF7FEBF 		b	esc_set_all
 225              	.LVL22:
 226              	.L19:
 227 0046 00BF     		.align	2
 228              	.L18:
ARM GAS  /var/folders/m4/4md61f0s1_g0rzfghffqnxvr0000gn/T//ccCjnT2q.s 			page 5


 229 0048 00000240 		.word	1073872896
 230 004c 00000000 		.word	PWMD5
 231 0050 00000000 		.word	.LANCHOR0
 232              		.cfi_endproc
 233              	.LFE268:
 234              		.size	esc_init, .-esc_init
 235              		.section	.data.pwmcfg,"aw",%progbits
 236              		.align	2
 237              		.set	.LANCHOR0,. + 0
 238              		.type	pwmcfg, %object
 239              		.size	pwmcfg, 52
 240              	pwmcfg:
 241 0000 80969800 		.word	10000000
 242 0004 E8030000 		.word	1000
 243 0008 00000000 		.word	0
 244 000c 01000000 		.word	1
 245 0010 00000000 		.word	0
 246 0014 01000000 		.word	1
 247 0018 00000000 		.word	0
 248 001c 01000000 		.word	1
 249 0020 00000000 		.word	0
 250 0024 01000000 		.word	1
 251 0028 00000000 		.word	0
 252 002c 00000000 		.word	0
 253 0030 00000000 		.word	0
 254              		.text
 255              	.Letext0:
 256              		.file 2 "/usr/local/Cellar/gcc-arm-none-eabi-49/20150609/lib/gcc/arm-none-eabi/4.9.3/include/stdde
 257              		.file 3 "/usr/local/Cellar/gcc-arm-none-eabi-49/20150609/arm-none-eabi/include/machine/_default_ty
 258              		.file 4 "/usr/local/Cellar/gcc-arm-none-eabi-49/20150609/arm-none-eabi/include/sys/_stdint.h"
 259              		.file 5 "ChibiOS_16.1.4/os/rt/ports/ARMCMx/compilers/GCC/chtypes.h"
 260              		.file 6 "ChibiOS_16.1.4/os/rt/include/chsystypes.h"
 261              		.file 7 "ChibiOS_16.1.4/os/rt/include/chschd.h"
 262              		.file 8 "ChibiOS_16.1.4/os/rt/ports/ARMCMx/chcore.h"
 263              		.file 9 "ChibiOS_16.1.4/os/rt/ports/ARMCMx/chcore_v7m.h"
 264              		.file 10 "ChibiOS_16.1.4/os/rt/include/chtm.h"
 265              		.file 11 "ChibiOS_16.1.4/os/rt/include/chsem.h"
 266              		.file 12 "ChibiOS_16.1.4/os/rt/include/chmtx.h"
 267              		.file 13 "ChibiOS_16.1.4/os/hal/ports/STM32/LLD/GPIOv2/pal_lld.h"
 268              		.file 14 "ChibiOS_16.1.4/os/hal/include/pwm.h"
 269              		.file 15 "ChibiOS_16.1.4/os/hal/ports/STM32/LLD/TIMv1/pwm_lld.h"
 270              		.file 16 "ChibiOS_16.1.4/os/hal/ports/STM32/LLD/TIMv1/stm32_tim.h"
 271              		.file 17 "ChibiOS_16.1.4/os/ext/CMSIS/include/core_cm4.h"
 272              		.section	.debug_info,"",%progbits
 273              	.Ldebug_info0:
 274 0000 600D0000 		.4byte	0xd60
 275 0004 0400     		.2byte	0x4
 276 0006 00000000 		.4byte	.Ldebug_abbrev0
 277 000a 04       		.byte	0x4
 278 000b 01       		.uleb128 0x1
 279 000c 4E050000 		.4byte	.LASF165
 280 0010 01       		.byte	0x1
 281 0011 1D030000 		.4byte	.LASF166
 282 0015 00000000 		.4byte	.LASF167
 283 0019 00000000 		.4byte	.Ldebug_ranges0+0
 284 001d 00000000 		.4byte	0
 285 0021 00000000 		.4byte	.Ldebug_line0
ARM GAS  /var/folders/m4/4md61f0s1_g0rzfghffqnxvr0000gn/T//ccCjnT2q.s 			page 6


 286 0025 02       		.uleb128 0x2
 287 0026 08       		.byte	0x8
 288 0027 04       		.byte	0x4
 289 0028 7A070000 		.4byte	.LASF0
 290 002c 03       		.uleb128 0x3
 291 002d 04       		.byte	0x4
 292 002e 05       		.byte	0x5
 293 002f 696E7400 		.ascii	"int\000"
 294 0033 04       		.uleb128 0x4
 295 0034 62000000 		.4byte	.LASF3
 296 0038 02       		.byte	0x2
 297 0039 D4       		.byte	0xd4
 298 003a 3E000000 		.4byte	0x3e
 299 003e 02       		.uleb128 0x2
 300 003f 04       		.byte	0x4
 301 0040 07       		.byte	0x7
 302 0041 3F020000 		.4byte	.LASF1
 303 0045 02       		.uleb128 0x2
 304 0046 01       		.byte	0x1
 305 0047 06       		.byte	0x6
 306 0048 67010000 		.4byte	.LASF2
 307 004c 04       		.uleb128 0x4
 308 004d 79000000 		.4byte	.LASF4
 309 0051 03       		.byte	0x3
 310 0052 1D       		.byte	0x1d
 311 0053 57000000 		.4byte	0x57
 312 0057 02       		.uleb128 0x2
 313 0058 01       		.byte	0x1
 314 0059 08       		.byte	0x8
 315 005a 0F040000 		.4byte	.LASF5
 316 005e 02       		.uleb128 0x2
 317 005f 02       		.byte	0x2
 318 0060 05       		.byte	0x5
 319 0061 27040000 		.4byte	.LASF6
 320 0065 04       		.uleb128 0x4
 321 0066 F4040000 		.4byte	.LASF7
 322 006a 03       		.byte	0x3
 323 006b 2B       		.byte	0x2b
 324 006c 70000000 		.4byte	0x70
 325 0070 02       		.uleb128 0x2
 326 0071 02       		.byte	0x2
 327 0072 07       		.byte	0x7
 328 0073 CC010000 		.4byte	.LASF8
 329 0077 04       		.uleb128 0x4
 330 0078 F6020000 		.4byte	.LASF9
 331 007c 03       		.byte	0x3
 332 007d 3F       		.byte	0x3f
 333 007e 82000000 		.4byte	0x82
 334 0082 02       		.uleb128 0x2
 335 0083 04       		.byte	0x4
 336 0084 05       		.byte	0x5
 337 0085 A1010000 		.4byte	.LASF10
 338 0089 04       		.uleb128 0x4
 339 008a 43050000 		.4byte	.LASF11
 340 008e 03       		.byte	0x3
 341 008f 41       		.byte	0x41
 342 0090 94000000 		.4byte	0x94
ARM GAS  /var/folders/m4/4md61f0s1_g0rzfghffqnxvr0000gn/T//ccCjnT2q.s 			page 7


 343 0094 02       		.uleb128 0x2
 344 0095 04       		.byte	0x4
 345 0096 07       		.byte	0x7
 346 0097 D4040000 		.4byte	.LASF12
 347 009b 02       		.uleb128 0x2
 348 009c 08       		.byte	0x8
 349 009d 05       		.byte	0x5
 350 009e 1C020000 		.4byte	.LASF13
 351 00a2 04       		.uleb128 0x4
 352 00a3 A7030000 		.4byte	.LASF14
 353 00a7 03       		.byte	0x3
 354 00a8 5B       		.byte	0x5b
 355 00a9 AD000000 		.4byte	0xad
 356 00ad 02       		.uleb128 0x2
 357 00ae 08       		.byte	0x8
 358 00af 07       		.byte	0x7
 359 00b0 D0000000 		.4byte	.LASF15
 360 00b4 04       		.uleb128 0x4
 361 00b5 03070000 		.4byte	.LASF16
 362 00b9 04       		.byte	0x4
 363 00ba 14       		.byte	0x14
 364 00bb 4C000000 		.4byte	0x4c
 365 00bf 04       		.uleb128 0x4
 366 00c0 54020000 		.4byte	.LASF17
 367 00c4 04       		.byte	0x4
 368 00c5 1A       		.byte	0x1a
 369 00c6 65000000 		.4byte	0x65
 370 00ca 04       		.uleb128 0x4
 371 00cb 07040000 		.4byte	.LASF18
 372 00cf 04       		.byte	0x4
 373 00d0 1F       		.byte	0x1f
 374 00d1 77000000 		.4byte	0x77
 375 00d5 04       		.uleb128 0x4
 376 00d6 B4040000 		.4byte	.LASF19
 377 00da 04       		.byte	0x4
 378 00db 20       		.byte	0x20
 379 00dc 89000000 		.4byte	0x89
 380 00e0 04       		.uleb128 0x4
 381 00e1 70000000 		.4byte	.LASF20
 382 00e5 04       		.byte	0x4
 383 00e6 26       		.byte	0x26
 384 00e7 A2000000 		.4byte	0xa2
 385 00eb 04       		.uleb128 0x4
 386 00ec BD060000 		.4byte	.LASF21
 387 00f0 05       		.byte	0x5
 388 00f1 39       		.byte	0x39
 389 00f2 D5000000 		.4byte	0xd5
 390 00f6 04       		.uleb128 0x4
 391 00f7 53070000 		.4byte	.LASF22
 392 00fb 05       		.byte	0x5
 393 00fc 3C       		.byte	0x3c
 394 00fd B4000000 		.4byte	0xb4
 395 0101 04       		.uleb128 0x4
 396 0102 B3010000 		.4byte	.LASF23
 397 0106 05       		.byte	0x5
 398 0107 3D       		.byte	0x3d
 399 0108 B4000000 		.4byte	0xb4
ARM GAS  /var/folders/m4/4md61f0s1_g0rzfghffqnxvr0000gn/T//ccCjnT2q.s 			page 8


 400 010c 04       		.uleb128 0x4
 401 010d CA030000 		.4byte	.LASF24
 402 0111 05       		.byte	0x5
 403 0112 3E       		.byte	0x3e
 404 0113 B4000000 		.4byte	0xb4
 405 0117 04       		.uleb128 0x4
 406 0118 82010000 		.4byte	.LASF25
 407 011c 05       		.byte	0x5
 408 011d 3F       		.byte	0x3f
 409 011e B4000000 		.4byte	0xb4
 410 0122 04       		.uleb128 0x4
 411 0123 E9030000 		.4byte	.LASF26
 412 0127 05       		.byte	0x5
 413 0128 40       		.byte	0x40
 414 0129 D5000000 		.4byte	0xd5
 415 012d 04       		.uleb128 0x4
 416 012e A5020000 		.4byte	.LASF27
 417 0132 05       		.byte	0x5
 418 0133 41       		.byte	0x41
 419 0134 CA000000 		.4byte	0xca
 420 0138 04       		.uleb128 0x4
 421 0139 EA020000 		.4byte	.LASF28
 422 013d 05       		.byte	0x5
 423 013e 43       		.byte	0x43
 424 013f D5000000 		.4byte	0xd5
 425 0143 04       		.uleb128 0x4
 426 0144 39020000 		.4byte	.LASF29
 427 0148 05       		.byte	0x5
 428 0149 45       		.byte	0x45
 429 014a CA000000 		.4byte	0xca
 430 014e 04       		.uleb128 0x4
 431 014f 25050000 		.4byte	.LASF30
 432 0153 06       		.byte	0x6
 433 0154 33       		.byte	0x33
 434 0155 D5000000 		.4byte	0xd5
 435 0159 04       		.uleb128 0x4
 436 015a 10050000 		.4byte	.LASF31
 437 015e 06       		.byte	0x6
 438 015f 3F       		.byte	0x3f
 439 0160 64010000 		.4byte	0x164
 440 0164 05       		.uleb128 0x5
 441 0165 7F020000 		.4byte	.LASF53
 442 0169 48       		.byte	0x48
 443 016a 07       		.byte	0x7
 444 016b C2       		.byte	0xc2
 445 016c 69020000 		.4byte	0x269
 446 0170 06       		.uleb128 0x6
 447 0171 59040000 		.4byte	.LASF32
 448 0175 07       		.byte	0x7
 449 0176 C3       		.byte	0xc3
 450 0177 74020000 		.4byte	0x274
 451 017b 00       		.byte	0
 452 017c 06       		.uleb128 0x6
 453 017d E2030000 		.4byte	.LASF33
 454 0181 07       		.byte	0x7
 455 0182 C5       		.byte	0xc5
 456 0183 74020000 		.4byte	0x274
ARM GAS  /var/folders/m4/4md61f0s1_g0rzfghffqnxvr0000gn/T//ccCjnT2q.s 			page 9


 457 0187 04       		.byte	0x4
 458 0188 06       		.uleb128 0x6
 459 0189 3B010000 		.4byte	.LASF34
 460 018d 07       		.byte	0x7
 461 018e C7       		.byte	0xc7
 462 018f 22010000 		.4byte	0x122
 463 0193 08       		.byte	0x8
 464 0194 06       		.uleb128 0x6
 465 0195 81070000 		.4byte	.LASF35
 466 0199 07       		.byte	0x7
 467 019a C8       		.byte	0xc8
 468 019b C9040000 		.4byte	0x4c9
 469 019f 0C       		.byte	0xc
 470 01a0 06       		.uleb128 0x6
 471 01a1 BC010000 		.4byte	.LASF36
 472 01a5 07       		.byte	0x7
 473 01a6 CA       		.byte	0xca
 474 01a7 74020000 		.4byte	0x274
 475 01ab 10       		.byte	0x10
 476 01ac 06       		.uleb128 0x6
 477 01ad 76030000 		.4byte	.LASF37
 478 01b1 07       		.byte	0x7
 479 01b2 CB       		.byte	0xcb
 480 01b3 74020000 		.4byte	0x274
 481 01b7 14       		.byte	0x14
 482 01b8 06       		.uleb128 0x6
 483 01b9 30070000 		.4byte	.LASF38
 484 01bd 07       		.byte	0x7
 485 01be D2       		.byte	0xd2
 486 01bf 17070000 		.4byte	0x717
 487 01c3 18       		.byte	0x18
 488 01c4 06       		.uleb128 0x6
 489 01c5 31040000 		.4byte	.LASF39
 490 01c9 07       		.byte	0x7
 491 01ca DD       		.byte	0xdd
 492 01cb 01010000 		.4byte	0x101
 493 01cf 1C       		.byte	0x1c
 494 01d0 06       		.uleb128 0x6
 495 01d1 6C040000 		.4byte	.LASF40
 496 01d5 07       		.byte	0x7
 497 01d6 E1       		.byte	0xe1
 498 01d7 F6000000 		.4byte	0xf6
 499 01db 1D       		.byte	0x1d
 500 01dc 06       		.uleb128 0x6
 501 01dd F6060000 		.4byte	.LASF41
 502 01e1 07       		.byte	0x7
 503 01e2 E6       		.byte	0xe6
 504 01e3 0C010000 		.4byte	0x10c
 505 01e7 1E       		.byte	0x1e
 506 01e8 06       		.uleb128 0x6
 507 01e9 41040000 		.4byte	.LASF42
 508 01ed 07       		.byte	0x7
 509 01ee EC       		.byte	0xec
 510 01ef 17010000 		.4byte	0x117
 511 01f3 1F       		.byte	0x1f
 512 01f4 06       		.uleb128 0x6
 513 01f5 5D020000 		.4byte	.LASF43
ARM GAS  /var/folders/m4/4md61f0s1_g0rzfghffqnxvr0000gn/T//ccCjnT2q.s 			page 10


 514 01f9 07       		.byte	0x7
 515 01fa F3       		.byte	0xf3
 516 01fb 29070000 		.4byte	0x729
 517 01ff 20       		.byte	0x20
 518 0200 07       		.uleb128 0x7
 519 0201 705F7500 		.ascii	"p_u\000"
 520 0205 07       		.byte	0x7
 521 0206 3101     		.2byte	0x131
 522 0208 52060000 		.4byte	0x652
 523 020c 24       		.byte	0x24
 524 020d 08       		.uleb128 0x8
 525 020e 13030000 		.4byte	.LASF44
 526 0212 07       		.byte	0x7
 527 0213 3601     		.2byte	0x136
 528 0215 7A020000 		.4byte	0x27a
 529 0219 28       		.byte	0x28
 530 021a 08       		.uleb128 0x8
 531 021b 74020000 		.4byte	.LASF45
 532 021f 07       		.byte	0x7
 533 0220 3C01     		.2byte	0x13c
 534 0222 9E020000 		.4byte	0x29e
 535 0226 2C       		.byte	0x2c
 536 0227 08       		.uleb128 0x8
 537 0228 61070000 		.4byte	.LASF46
 538 022c 07       		.byte	0x7
 539 022d 4001     		.2byte	0x140
 540 022f 2D010000 		.4byte	0x12d
 541 0233 34       		.byte	0x34
 542 0234 08       		.uleb128 0x8
 543 0235 A9040000 		.4byte	.LASF47
 544 0239 07       		.byte	0x7
 545 023a 4601     		.2byte	0x146
 546 023c 38010000 		.4byte	0x138
 547 0240 38       		.byte	0x38
 548 0241 08       		.uleb128 0x8
 549 0242 1D040000 		.4byte	.LASF48
 550 0246 07       		.byte	0x7
 551 0247 4D01     		.2byte	0x14d
 552 0249 11070000 		.4byte	0x711
 553 024d 3C       		.byte	0x3c
 554 024e 08       		.uleb128 0x8
 555 024f 2F050000 		.4byte	.LASF49
 556 0253 07       		.byte	0x7
 557 0254 5101     		.2byte	0x151
 558 0256 22010000 		.4byte	0x122
 559 025a 40       		.byte	0x40
 560 025b 08       		.uleb128 0x8
 561 025c EF010000 		.4byte	.LASF50
 562 0260 07       		.byte	0x7
 563 0261 5801     		.2byte	0x158
 564 0263 51030000 		.4byte	0x351
 565 0267 44       		.byte	0x44
 566 0268 00       		.byte	0
 567 0269 04       		.uleb128 0x4
 568 026a 2C030000 		.4byte	.LASF51
 569 026e 06       		.byte	0x6
 570 026f 44       		.byte	0x44
ARM GAS  /var/folders/m4/4md61f0s1_g0rzfghffqnxvr0000gn/T//ccCjnT2q.s 			page 11


 571 0270 74020000 		.4byte	0x274
 572 0274 09       		.uleb128 0x9
 573 0275 04       		.byte	0x4
 574 0276 59010000 		.4byte	0x159
 575 027a 04       		.uleb128 0x4
 576 027b 2C000000 		.4byte	.LASF52
 577 027f 06       		.byte	0x6
 578 0280 49       		.byte	0x49
 579 0281 85020000 		.4byte	0x285
 580 0285 05       		.uleb128 0x5
 581 0286 AB020000 		.4byte	.LASF54
 582 028a 04       		.byte	0x4
 583 028b 07       		.byte	0x7
 584 028c B0       		.byte	0xb0
 585 028d 9E020000 		.4byte	0x29e
 586 0291 06       		.uleb128 0x6
 587 0292 59040000 		.4byte	.LASF32
 588 0296 07       		.byte	0x7
 589 0297 B1       		.byte	0xb1
 590 0298 74020000 		.4byte	0x274
 591 029c 00       		.byte	0
 592 029d 00       		.byte	0
 593 029e 04       		.uleb128 0x4
 594 029f DD060000 		.4byte	.LASF55
 595 02a3 06       		.byte	0x6
 596 02a4 50       		.byte	0x50
 597 02a5 A9020000 		.4byte	0x2a9
 598 02a9 05       		.uleb128 0x5
 599 02aa 96000000 		.4byte	.LASF56
 600 02ae 08       		.byte	0x8
 601 02af 07       		.byte	0x7
 602 02b0 B7       		.byte	0xb7
 603 02b1 CE020000 		.4byte	0x2ce
 604 02b5 06       		.uleb128 0x6
 605 02b6 59040000 		.4byte	.LASF32
 606 02ba 07       		.byte	0x7
 607 02bb B8       		.byte	0xb8
 608 02bc 74020000 		.4byte	0x274
 609 02c0 00       		.byte	0
 610 02c1 06       		.uleb128 0x6
 611 02c2 E2030000 		.4byte	.LASF33
 612 02c6 07       		.byte	0x7
 613 02c7 B9       		.byte	0xb9
 614 02c8 74020000 		.4byte	0x274
 615 02cc 04       		.byte	0x4
 616 02cd 00       		.byte	0
 617 02ce 04       		.uleb128 0x4
 618 02cf 50000000 		.4byte	.LASF57
 619 02d3 06       		.byte	0x6
 620 02d4 57       		.byte	0x57
 621 02d5 D9020000 		.4byte	0x2d9
 622 02d9 0A       		.uleb128 0xa
 623 02da DC020000 		.4byte	.LASF58
 624 02de 1C       		.byte	0x1c
 625 02df 07       		.byte	0x7
 626 02e0 9001     		.2byte	0x190
 627 02e2 35030000 		.4byte	0x335
ARM GAS  /var/folders/m4/4md61f0s1_g0rzfghffqnxvr0000gn/T//ccCjnT2q.s 			page 12


 628 02e6 08       		.uleb128 0x8
 629 02e7 C4040000 		.4byte	.LASF59
 630 02eb 07       		.byte	0x7
 631 02ec 9101     		.2byte	0x191
 632 02ee 9E020000 		.4byte	0x29e
 633 02f2 00       		.byte	0
 634 02f3 08       		.uleb128 0x8
 635 02f4 4B040000 		.4byte	.LASF60
 636 02f8 07       		.byte	0x7
 637 02f9 9201     		.2byte	0x192
 638 02fb 22010000 		.4byte	0x122
 639 02ff 08       		.byte	0x8
 640 0300 08       		.uleb128 0x8
 641 0301 7E030000 		.4byte	.LASF61
 642 0305 07       		.byte	0x7
 643 0306 9401     		.2byte	0x194
 644 0308 C9040000 		.4byte	0x4c9
 645 030c 0C       		.byte	0xc
 646 030d 08       		.uleb128 0x8
 647 030e E7010000 		.4byte	.LASF62
 648 0312 07       		.byte	0x7
 649 0313 9701     		.2byte	0x197
 650 0315 74020000 		.4byte	0x274
 651 0319 10       		.byte	0x10
 652 031a 08       		.uleb128 0x8
 653 031b 9F030000 		.4byte	.LASF63
 654 031f 07       		.byte	0x7
 655 0320 9801     		.2byte	0x198
 656 0322 74020000 		.4byte	0x274
 657 0326 14       		.byte	0x14
 658 0327 08       		.uleb128 0x8
 659 0328 95030000 		.4byte	.LASF64
 660 032c 07       		.byte	0x7
 661 032d 9B01     		.2byte	0x19b
 662 032f 74020000 		.4byte	0x274
 663 0333 18       		.byte	0x18
 664 0334 00       		.byte	0
 665 0335 04       		.uleb128 0x4
 666 0336 3A050000 		.4byte	.LASF65
 667 033a 06       		.byte	0x6
 668 033b 5C       		.byte	0x5c
 669 033c 40030000 		.4byte	0x340
 670 0340 09       		.uleb128 0x9
 671 0341 04       		.byte	0x4
 672 0342 46030000 		.4byte	0x346
 673 0346 0B       		.uleb128 0xb
 674 0347 51030000 		.4byte	0x351
 675 034b 0C       		.uleb128 0xc
 676 034c 51030000 		.4byte	0x351
 677 0350 00       		.byte	0
 678 0351 0D       		.uleb128 0xd
 679 0352 04       		.byte	0x4
 680 0353 04       		.uleb128 0x4
 681 0354 D2030000 		.4byte	.LASF66
 682 0358 06       		.byte	0x6
 683 0359 61       		.byte	0x61
 684 035a 5E030000 		.4byte	0x35e
ARM GAS  /var/folders/m4/4md61f0s1_g0rzfghffqnxvr0000gn/T//ccCjnT2q.s 			page 13


 685 035e 0A       		.uleb128 0xa
 686 035f 86040000 		.4byte	.LASF67
 687 0363 14       		.byte	0x14
 688 0364 07       		.byte	0x7
 689 0365 6B01     		.2byte	0x16b
 690 0367 AD030000 		.4byte	0x3ad
 691 036b 08       		.uleb128 0x8
 692 036c 4C020000 		.4byte	.LASF68
 693 0370 07       		.byte	0x7
 694 0371 6C01     		.2byte	0x16c
 695 0373 2E070000 		.4byte	0x72e
 696 0377 00       		.byte	0
 697 0378 08       		.uleb128 0x8
 698 0379 00020000 		.4byte	.LASF69
 699 037d 07       		.byte	0x7
 700 037e 6D01     		.2byte	0x16d
 701 0380 2E070000 		.4byte	0x72e
 702 0384 04       		.byte	0x4
 703 0385 08       		.uleb128 0x8
 704 0386 6B020000 		.4byte	.LASF70
 705 038a 07       		.byte	0x7
 706 038b 6E01     		.2byte	0x16e
 707 038d 4E010000 		.4byte	0x14e
 708 0391 08       		.byte	0x8
 709 0392 08       		.uleb128 0x8
 710 0393 87070000 		.4byte	.LASF71
 711 0397 07       		.byte	0x7
 712 0398 6F01     		.2byte	0x16f
 713 039a 35030000 		.4byte	0x335
 714 039e 0C       		.byte	0xc
 715 039f 08       		.uleb128 0x8
 716 03a0 CC060000 		.4byte	.LASF72
 717 03a4 07       		.byte	0x7
 718 03a5 7101     		.2byte	0x171
 719 03a7 51030000 		.4byte	0x351
 720 03ab 10       		.byte	0x10
 721 03ac 00       		.byte	0
 722 03ad 04       		.uleb128 0x4
 723 03ae 01010000 		.4byte	.LASF73
 724 03b2 06       		.byte	0x6
 725 03b3 66       		.byte	0x66
 726 03b4 B8030000 		.4byte	0x3b8
 727 03b8 0A       		.uleb128 0xa
 728 03b9 48030000 		.4byte	.LASF74
 729 03bd 10       		.byte	0x10
 730 03be 07       		.byte	0x7
 731 03bf 7B01     		.2byte	0x17b
 732 03c1 FA030000 		.4byte	0x3fa
 733 03c5 08       		.uleb128 0x8
 734 03c6 4C020000 		.4byte	.LASF68
 735 03ca 07       		.byte	0x7
 736 03cb 7C01     		.2byte	0x17c
 737 03cd 2E070000 		.4byte	0x72e
 738 03d1 00       		.byte	0
 739 03d2 08       		.uleb128 0x8
 740 03d3 00020000 		.4byte	.LASF69
 741 03d7 07       		.byte	0x7
ARM GAS  /var/folders/m4/4md61f0s1_g0rzfghffqnxvr0000gn/T//ccCjnT2q.s 			page 14


 742 03d8 7E01     		.2byte	0x17e
 743 03da 2E070000 		.4byte	0x72e
 744 03de 04       		.byte	0x4
 745 03df 08       		.uleb128 0x8
 746 03e0 6B020000 		.4byte	.LASF70
 747 03e4 07       		.byte	0x7
 748 03e5 8001     		.2byte	0x180
 749 03e7 4E010000 		.4byte	0x14e
 750 03eb 08       		.byte	0x8
 751 03ec 08       		.uleb128 0x8
 752 03ed 48070000 		.4byte	.LASF75
 753 03f1 07       		.byte	0x7
 754 03f2 8201     		.2byte	0x182
 755 03f4 29070000 		.4byte	0x729
 756 03f8 0C       		.byte	0xc
 757 03f9 00       		.byte	0
 758 03fa 04       		.uleb128 0x4
 759 03fb A7000000 		.4byte	.LASF76
 760 03ff 06       		.byte	0x6
 761 0400 6B       		.byte	0x6b
 762 0401 05040000 		.4byte	0x405
 763 0405 0A       		.uleb128 0xa
 764 0406 F1030000 		.4byte	.LASF77
 765 040a 04       		.byte	0x4
 766 040b 07       		.byte	0x7
 767 040c A201     		.2byte	0x1a2
 768 040e 20040000 		.4byte	0x420
 769 0412 08       		.uleb128 0x8
 770 0413 72060000 		.4byte	.LASF78
 771 0417 07       		.byte	0x7
 772 0418 AA01     		.2byte	0x1aa
 773 041a 34070000 		.4byte	0x734
 774 041e 00       		.byte	0
 775 041f 00       		.byte	0
 776 0420 04       		.uleb128 0x4
 777 0421 BB020000 		.4byte	.LASF79
 778 0425 06       		.byte	0x6
 779 0426 70       		.byte	0x70
 780 0427 2B040000 		.4byte	0x42b
 781 042b 0E       		.uleb128 0xe
 782 042c 74040000 		.4byte	.LASF80
 783 0430 5802     		.2byte	0x258
 784 0432 07       		.byte	0x7
 785 0433 C201     		.2byte	0x1c2
 786 0435 87040000 		.4byte	0x487
 787 0439 08       		.uleb128 0x8
 788 043a FD060000 		.4byte	.LASF81
 789 043e 07       		.byte	0x7
 790 043f C601     		.2byte	0x1c6
 791 0441 CE020000 		.4byte	0x2ce
 792 0445 00       		.byte	0
 793 0446 08       		.uleb128 0x8
 794 0447 08020000 		.4byte	.LASF82
 795 044b 07       		.byte	0x7
 796 044c CA01     		.2byte	0x1ca
 797 044e AD030000 		.4byte	0x3ad
 798 0452 1C       		.byte	0x1c
ARM GAS  /var/folders/m4/4md61f0s1_g0rzfghffqnxvr0000gn/T//ccCjnT2q.s 			page 15


 799 0453 07       		.uleb128 0x7
 800 0454 64626700 		.ascii	"dbg\000"
 801 0458 07       		.byte	0x7
 802 0459 CE01     		.2byte	0x1ce
 803 045b FA030000 		.4byte	0x3fa
 804 045f 2C       		.byte	0x2c
 805 0460 08       		.uleb128 0x8
 806 0461 F6000000 		.4byte	.LASF83
 807 0465 07       		.byte	0x7
 808 0466 D201     		.2byte	0x1d2
 809 0468 59010000 		.4byte	0x159
 810 046c 30       		.byte	0x30
 811 046d 07       		.uleb128 0x7
 812 046e 746D00   		.ascii	"tm\000"
 813 0471 07       		.byte	0x7
 814 0472 D701     		.2byte	0x1d7
 815 0474 47060000 		.4byte	0x647
 816 0478 78       		.byte	0x78
 817 0479 08       		.uleb128 0x8
 818 047a 2A020000 		.4byte	.LASF84
 819 047e 07       		.byte	0x7
 820 047f E301     		.2byte	0x1e3
 821 0481 39070000 		.4byte	0x739
 822 0485 80       		.byte	0x80
 823 0486 00       		.byte	0
 824 0487 02       		.uleb128 0x2
 825 0488 04       		.byte	0x4
 826 0489 07       		.byte	0x7
 827 048a 23030000 		.4byte	.LASF85
 828 048e 0F       		.uleb128 0xf
 829 048f D5000000 		.4byte	0xd5
 830 0493 10       		.uleb128 0x10
 831 0494 D5000000 		.4byte	0xd5
 832 0498 A3040000 		.4byte	0x4a3
 833 049c 11       		.uleb128 0x11
 834 049d 87040000 		.4byte	0x487
 835 04a1 01       		.byte	0x1
 836 04a2 00       		.byte	0
 837 04a3 10       		.uleb128 0x10
 838 04a4 D5000000 		.4byte	0xd5
 839 04a8 B3040000 		.4byte	0x4b3
 840 04ac 11       		.uleb128 0x11
 841 04ad 87040000 		.4byte	0x487
 842 04b1 03       		.byte	0x3
 843 04b2 00       		.byte	0
 844 04b3 04       		.uleb128 0x4
 845 04b4 F7010000 		.4byte	.LASF86
 846 04b8 08       		.byte	0x8
 847 04b9 65       		.byte	0x65
 848 04ba 51030000 		.4byte	0x351
 849 04be 04       		.uleb128 0x4
 850 04bf 00030000 		.4byte	.LASF87
 851 04c3 08       		.byte	0x8
 852 04c4 6D       		.byte	0x6d
 853 04c5 E0000000 		.4byte	0xe0
 854 04c9 05       		.uleb128 0x5
 855 04ca 8E060000 		.4byte	.LASF88
ARM GAS  /var/folders/m4/4md61f0s1_g0rzfghffqnxvr0000gn/T//ccCjnT2q.s 			page 16


 856 04ce 04       		.byte	0x4
 857 04cf 08       		.byte	0x8
 858 04d0 89       		.byte	0x89
 859 04d1 E2040000 		.4byte	0x4e2
 860 04d5 12       		.uleb128 0x12
 861 04d6 72313300 		.ascii	"r13\000"
 862 04da 08       		.byte	0x8
 863 04db 8A       		.byte	0x8a
 864 04dc 2C060000 		.4byte	0x62c
 865 04e0 00       		.byte	0
 866 04e1 00       		.byte	0
 867 04e2 05       		.uleb128 0x5
 868 04e3 8A000000 		.4byte	.LASF89
 869 04e7 64       		.byte	0x64
 870 04e8 09       		.byte	0x9
 871 04e9 FD       		.byte	0xfd
 872 04ea 2C060000 		.4byte	0x62c
 873 04ee 12       		.uleb128 0x12
 874 04ef 73313600 		.ascii	"s16\000"
 875 04f3 09       		.byte	0x9
 876 04f4 FF       		.byte	0xff
 877 04f5 B3040000 		.4byte	0x4b3
 878 04f9 00       		.byte	0
 879 04fa 07       		.uleb128 0x7
 880 04fb 73313700 		.ascii	"s17\000"
 881 04ff 09       		.byte	0x9
 882 0500 0001     		.2byte	0x100
 883 0502 B3040000 		.4byte	0x4b3
 884 0506 04       		.byte	0x4
 885 0507 07       		.uleb128 0x7
 886 0508 73313800 		.ascii	"s18\000"
 887 050c 09       		.byte	0x9
 888 050d 0101     		.2byte	0x101
 889 050f B3040000 		.4byte	0x4b3
 890 0513 08       		.byte	0x8
 891 0514 07       		.uleb128 0x7
 892 0515 73313900 		.ascii	"s19\000"
 893 0519 09       		.byte	0x9
 894 051a 0201     		.2byte	0x102
 895 051c B3040000 		.4byte	0x4b3
 896 0520 0C       		.byte	0xc
 897 0521 07       		.uleb128 0x7
 898 0522 73323000 		.ascii	"s20\000"
 899 0526 09       		.byte	0x9
 900 0527 0301     		.2byte	0x103
 901 0529 B3040000 		.4byte	0x4b3
 902 052d 10       		.byte	0x10
 903 052e 07       		.uleb128 0x7
 904 052f 73323100 		.ascii	"s21\000"
 905 0533 09       		.byte	0x9
 906 0534 0401     		.2byte	0x104
 907 0536 B3040000 		.4byte	0x4b3
 908 053a 14       		.byte	0x14
 909 053b 07       		.uleb128 0x7
 910 053c 73323200 		.ascii	"s22\000"
 911 0540 09       		.byte	0x9
 912 0541 0501     		.2byte	0x105
ARM GAS  /var/folders/m4/4md61f0s1_g0rzfghffqnxvr0000gn/T//ccCjnT2q.s 			page 17


 913 0543 B3040000 		.4byte	0x4b3
 914 0547 18       		.byte	0x18
 915 0548 07       		.uleb128 0x7
 916 0549 73323300 		.ascii	"s23\000"
 917 054d 09       		.byte	0x9
 918 054e 0601     		.2byte	0x106
 919 0550 B3040000 		.4byte	0x4b3
 920 0554 1C       		.byte	0x1c
 921 0555 07       		.uleb128 0x7
 922 0556 73323400 		.ascii	"s24\000"
 923 055a 09       		.byte	0x9
 924 055b 0701     		.2byte	0x107
 925 055d B3040000 		.4byte	0x4b3
 926 0561 20       		.byte	0x20
 927 0562 07       		.uleb128 0x7
 928 0563 73323500 		.ascii	"s25\000"
 929 0567 09       		.byte	0x9
 930 0568 0801     		.2byte	0x108
 931 056a B3040000 		.4byte	0x4b3
 932 056e 24       		.byte	0x24
 933 056f 07       		.uleb128 0x7
 934 0570 73323600 		.ascii	"s26\000"
 935 0574 09       		.byte	0x9
 936 0575 0901     		.2byte	0x109
 937 0577 B3040000 		.4byte	0x4b3
 938 057b 28       		.byte	0x28
 939 057c 07       		.uleb128 0x7
 940 057d 73323700 		.ascii	"s27\000"
 941 0581 09       		.byte	0x9
 942 0582 0A01     		.2byte	0x10a
 943 0584 B3040000 		.4byte	0x4b3
 944 0588 2C       		.byte	0x2c
 945 0589 07       		.uleb128 0x7
 946 058a 73323800 		.ascii	"s28\000"
 947 058e 09       		.byte	0x9
 948 058f 0B01     		.2byte	0x10b
 949 0591 B3040000 		.4byte	0x4b3
 950 0595 30       		.byte	0x30
 951 0596 07       		.uleb128 0x7
 952 0597 73323900 		.ascii	"s29\000"
 953 059b 09       		.byte	0x9
 954 059c 0C01     		.2byte	0x10c
 955 059e B3040000 		.4byte	0x4b3
 956 05a2 34       		.byte	0x34
 957 05a3 07       		.uleb128 0x7
 958 05a4 73333000 		.ascii	"s30\000"
 959 05a8 09       		.byte	0x9
 960 05a9 0D01     		.2byte	0x10d
 961 05ab B3040000 		.4byte	0x4b3
 962 05af 38       		.byte	0x38
 963 05b0 07       		.uleb128 0x7
 964 05b1 73333100 		.ascii	"s31\000"
 965 05b5 09       		.byte	0x9
 966 05b6 0E01     		.2byte	0x10e
 967 05b8 B3040000 		.4byte	0x4b3
 968 05bc 3C       		.byte	0x3c
 969 05bd 07       		.uleb128 0x7
ARM GAS  /var/folders/m4/4md61f0s1_g0rzfghffqnxvr0000gn/T//ccCjnT2q.s 			page 18


 970 05be 723400   		.ascii	"r4\000"
 971 05c1 09       		.byte	0x9
 972 05c2 1001     		.2byte	0x110
 973 05c4 B3040000 		.4byte	0x4b3
 974 05c8 40       		.byte	0x40
 975 05c9 07       		.uleb128 0x7
 976 05ca 723500   		.ascii	"r5\000"
 977 05cd 09       		.byte	0x9
 978 05ce 1101     		.2byte	0x111
 979 05d0 B3040000 		.4byte	0x4b3
 980 05d4 44       		.byte	0x44
 981 05d5 07       		.uleb128 0x7
 982 05d6 723600   		.ascii	"r6\000"
 983 05d9 09       		.byte	0x9
 984 05da 1201     		.2byte	0x112
 985 05dc B3040000 		.4byte	0x4b3
 986 05e0 48       		.byte	0x48
 987 05e1 07       		.uleb128 0x7
 988 05e2 723700   		.ascii	"r7\000"
 989 05e5 09       		.byte	0x9
 990 05e6 1301     		.2byte	0x113
 991 05e8 B3040000 		.4byte	0x4b3
 992 05ec 4C       		.byte	0x4c
 993 05ed 07       		.uleb128 0x7
 994 05ee 723800   		.ascii	"r8\000"
 995 05f1 09       		.byte	0x9
 996 05f2 1401     		.2byte	0x114
 997 05f4 B3040000 		.4byte	0x4b3
 998 05f8 50       		.byte	0x50
 999 05f9 07       		.uleb128 0x7
 1000 05fa 723900   		.ascii	"r9\000"
 1001 05fd 09       		.byte	0x9
 1002 05fe 1501     		.2byte	0x115
 1003 0600 B3040000 		.4byte	0x4b3
 1004 0604 54       		.byte	0x54
 1005 0605 07       		.uleb128 0x7
 1006 0606 72313000 		.ascii	"r10\000"
 1007 060a 09       		.byte	0x9
 1008 060b 1601     		.2byte	0x116
 1009 060d B3040000 		.4byte	0x4b3
 1010 0611 58       		.byte	0x58
 1011 0612 07       		.uleb128 0x7
 1012 0613 72313100 		.ascii	"r11\000"
 1013 0617 09       		.byte	0x9
 1014 0618 1701     		.2byte	0x117
 1015 061a B3040000 		.4byte	0x4b3
 1016 061e 5C       		.byte	0x5c
 1017 061f 07       		.uleb128 0x7
 1018 0620 6C7200   		.ascii	"lr\000"
 1019 0623 09       		.byte	0x9
 1020 0624 1801     		.2byte	0x118
 1021 0626 B3040000 		.4byte	0x4b3
 1022 062a 60       		.byte	0x60
 1023 062b 00       		.byte	0
 1024 062c 09       		.uleb128 0x9
 1025 062d 04       		.byte	0x4
 1026 062e E2040000 		.4byte	0x4e2
ARM GAS  /var/folders/m4/4md61f0s1_g0rzfghffqnxvr0000gn/T//ccCjnT2q.s 			page 19


 1027 0632 13       		.uleb128 0x13
 1028 0633 04       		.byte	0x4
 1029 0634 0A       		.byte	0xa
 1030 0635 38       		.byte	0x38
 1031 0636 47060000 		.4byte	0x647
 1032 063a 06       		.uleb128 0x6
 1033 063b 7C060000 		.4byte	.LASF90
 1034 063f 0A       		.byte	0xa
 1035 0640 3C       		.byte	0x3c
 1036 0641 EB000000 		.4byte	0xeb
 1037 0645 00       		.byte	0
 1038 0646 00       		.byte	0
 1039 0647 04       		.uleb128 0x4
 1040 0648 84030000 		.4byte	.LASF91
 1041 064c 0A       		.byte	0xa
 1042 064d 3D       		.byte	0x3d
 1043 064e 32060000 		.4byte	0x632
 1044 0652 14       		.uleb128 0x14
 1045 0653 04       		.byte	0x4
 1046 0654 07       		.byte	0x7
 1047 0655 FA       		.byte	0xfa
 1048 0656 AF060000 		.4byte	0x6af
 1049 065a 15       		.uleb128 0x15
 1050 065b 69000000 		.4byte	.LASF92
 1051 065f 07       		.byte	0x7
 1052 0660 0101     		.2byte	0x101
 1053 0662 2D010000 		.4byte	0x12d
 1054 0666 15       		.uleb128 0x15
 1055 0667 ED000000 		.4byte	.LASF93
 1056 066b 07       		.byte	0x7
 1057 066c 0801     		.2byte	0x108
 1058 066e 2D010000 		.4byte	0x12d
 1059 0672 15       		.uleb128 0x15
 1060 0673 29070000 		.4byte	.LASF94
 1061 0677 07       		.byte	0x7
 1062 0678 0F01     		.2byte	0x10f
 1063 067a 51030000 		.4byte	0x351
 1064 067e 15       		.uleb128 0x15
 1065 067f 65030000 		.4byte	.LASF95
 1066 0683 07       		.byte	0x7
 1067 0684 1601     		.2byte	0x116
 1068 0686 AF060000 		.4byte	0x6af
 1069 068a 15       		.uleb128 0x15
 1070 068b 64020000 		.4byte	.LASF96
 1071 068f 07       		.byte	0x7
 1072 0690 1E01     		.2byte	0x11e
 1073 0692 DA060000 		.4byte	0x6da
 1074 0696 15       		.uleb128 0x15
 1075 0697 BD040000 		.4byte	.LASF97
 1076 069b 07       		.byte	0x7
 1077 069c 2701     		.2byte	0x127
 1078 069e 11070000 		.4byte	0x711
 1079 06a2 15       		.uleb128 0x15
 1080 06a3 52040000 		.4byte	.LASF98
 1081 06a7 07       		.byte	0x7
 1082 06a8 2F01     		.2byte	0x12f
 1083 06aa 38010000 		.4byte	0x138
ARM GAS  /var/folders/m4/4md61f0s1_g0rzfghffqnxvr0000gn/T//ccCjnT2q.s 			page 20


 1084 06ae 00       		.byte	0
 1085 06af 09       		.uleb128 0x9
 1086 06b0 04       		.byte	0x4
 1087 06b1 69020000 		.4byte	0x269
 1088 06b5 05       		.uleb128 0x5
 1089 06b6 97040000 		.4byte	.LASF99
 1090 06ba 0C       		.byte	0xc
 1091 06bb 0B       		.byte	0xb
 1092 06bc 34       		.byte	0x34
 1093 06bd DA060000 		.4byte	0x6da
 1094 06c1 06       		.uleb128 0x6
 1095 06c2 C4010000 		.4byte	.LASF100
 1096 06c6 0B       		.byte	0xb
 1097 06c7 35       		.byte	0x35
 1098 06c8 9E020000 		.4byte	0x29e
 1099 06cc 00       		.byte	0
 1100 06cd 06       		.uleb128 0x6
 1101 06ce 8E020000 		.4byte	.LASF101
 1102 06d2 0B       		.byte	0xb
 1103 06d3 37       		.byte	0x37
 1104 06d4 43010000 		.4byte	0x143
 1105 06d8 08       		.byte	0x8
 1106 06d9 00       		.byte	0
 1107 06da 09       		.uleb128 0x9
 1108 06db 04       		.byte	0x4
 1109 06dc B5060000 		.4byte	0x6b5
 1110 06e0 05       		.uleb128 0x5
 1111 06e1 ED060000 		.4byte	.LASF102
 1112 06e5 10       		.byte	0x10
 1113 06e6 0C       		.byte	0xc
 1114 06e7 39       		.byte	0x39
 1115 06e8 11070000 		.4byte	0x711
 1116 06ec 06       		.uleb128 0x6
 1117 06ed 33010000 		.4byte	.LASF103
 1118 06f1 0C       		.byte	0xc
 1119 06f2 3A       		.byte	0x3a
 1120 06f3 9E020000 		.4byte	0x29e
 1121 06f7 00       		.byte	0
 1122 06f8 06       		.uleb128 0x6
 1123 06f9 72070000 		.4byte	.LASF104
 1124 06fd 0C       		.byte	0xc
 1125 06fe 3C       		.byte	0x3c
 1126 06ff 74020000 		.4byte	0x274
 1127 0703 08       		.byte	0x8
 1128 0704 06       		.uleb128 0x6
 1129 0705 1E050000 		.4byte	.LASF105
 1130 0709 0C       		.byte	0xc
 1131 070a 3E       		.byte	0x3e
 1132 070b 54070000 		.4byte	0x754
 1133 070f 0C       		.byte	0xc
 1134 0710 00       		.byte	0
 1135 0711 09       		.uleb128 0x9
 1136 0712 04       		.byte	0x4
 1137 0713 E0060000 		.4byte	0x6e0
 1138 0717 09       		.uleb128 0x9
 1139 0718 04       		.byte	0x4
 1140 0719 1D070000 		.4byte	0x71d
ARM GAS  /var/folders/m4/4md61f0s1_g0rzfghffqnxvr0000gn/T//ccCjnT2q.s 			page 21


 1141 071d 16       		.uleb128 0x16
 1142 071e 22070000 		.4byte	0x722
 1143 0722 02       		.uleb128 0x2
 1144 0723 01       		.byte	0x1
 1145 0724 08       		.byte	0x8
 1146 0725 EF040000 		.4byte	.LASF106
 1147 0729 0F       		.uleb128 0xf
 1148 072a 4E010000 		.4byte	0x14e
 1149 072e 09       		.uleb128 0x9
 1150 072f 04       		.byte	0x4
 1151 0730 53030000 		.4byte	0x353
 1152 0734 0F       		.uleb128 0xf
 1153 0735 17070000 		.4byte	0x717
 1154 0739 10       		.uleb128 0x10
 1155 073a BE040000 		.4byte	0x4be
 1156 073e 49070000 		.4byte	0x749
 1157 0742 11       		.uleb128 0x11
 1158 0743 87040000 		.4byte	0x487
 1159 0747 3A       		.byte	0x3a
 1160 0748 00       		.byte	0
 1161 0749 04       		.uleb128 0x4
 1162 074a 0B030000 		.4byte	.LASF107
 1163 074e 0C       		.byte	0xc
 1164 074f 34       		.byte	0x34
 1165 0750 E0060000 		.4byte	0x6e0
 1166 0754 09       		.uleb128 0x9
 1167 0755 04       		.byte	0x4
 1168 0756 49070000 		.4byte	0x749
 1169 075a 02       		.uleb128 0x2
 1170 075b 01       		.byte	0x1
 1171 075c 02       		.byte	0x2
 1172 075d 01040000 		.4byte	.LASF108
 1173 0761 13       		.uleb128 0x13
 1174 0762 04       		.byte	0x4
 1175 0763 0D       		.byte	0xd
 1176 0764 E7       		.byte	0xe7
 1177 0765 82070000 		.4byte	0x782
 1178 0769 12       		.uleb128 0x12
 1179 076a 73657400 		.ascii	"set\000"
 1180 076e 0D       		.byte	0xd
 1181 076f E8       		.byte	0xe8
 1182 0770 BF000000 		.4byte	0xbf
 1183 0774 00       		.byte	0
 1184 0775 06       		.uleb128 0x6
 1185 0776 5F030000 		.4byte	.LASF109
 1186 077a 0D       		.byte	0xd
 1187 077b E9       		.byte	0xe9
 1188 077c BF000000 		.4byte	0xbf
 1189 0780 02       		.byte	0x2
 1190 0781 00       		.byte	0
 1191 0782 14       		.uleb128 0x14
 1192 0783 04       		.byte	0x4
 1193 0784 0D       		.byte	0xd
 1194 0785 E5       		.byte	0xe5
 1195 0786 9D070000 		.4byte	0x79d
 1196 078a 17       		.uleb128 0x17
 1197 078b 5700     		.ascii	"W\000"
ARM GAS  /var/folders/m4/4md61f0s1_g0rzfghffqnxvr0000gn/T//ccCjnT2q.s 			page 22


 1198 078d 0D       		.byte	0xd
 1199 078e E6       		.byte	0xe6
 1200 078f D5000000 		.4byte	0xd5
 1201 0793 17       		.uleb128 0x17
 1202 0794 4800     		.ascii	"H\000"
 1203 0796 0D       		.byte	0xd
 1204 0797 EA       		.byte	0xea
 1205 0798 61070000 		.4byte	0x761
 1206 079c 00       		.byte	0
 1207 079d 13       		.uleb128 0x13
 1208 079e 2C       		.byte	0x2c
 1209 079f 0D       		.byte	0xd
 1210 07a0 DD       		.byte	0xdd
 1211 07a1 2A080000 		.4byte	0x82a
 1212 07a5 06       		.uleb128 0x6
 1213 07a6 CA000000 		.4byte	.LASF110
 1214 07aa 0D       		.byte	0xd
 1215 07ab DF       		.byte	0xdf
 1216 07ac 8E040000 		.4byte	0x48e
 1217 07b0 00       		.byte	0
 1218 07b1 06       		.uleb128 0x6
 1219 07b2 83000000 		.4byte	.LASF111
 1220 07b6 0D       		.byte	0xd
 1221 07b7 E0       		.byte	0xe0
 1222 07b8 8E040000 		.4byte	0x48e
 1223 07bc 04       		.byte	0x4
 1224 07bd 06       		.uleb128 0x6
 1225 07be DF010000 		.4byte	.LASF112
 1226 07c2 0D       		.byte	0xd
 1227 07c3 E1       		.byte	0xe1
 1228 07c4 8E040000 		.4byte	0x48e
 1229 07c8 08       		.byte	0x8
 1230 07c9 06       		.uleb128 0x6
 1231 07ca E7000000 		.4byte	.LASF113
 1232 07ce 0D       		.byte	0xd
 1233 07cf E2       		.byte	0xe2
 1234 07d0 8E040000 		.4byte	0x48e
 1235 07d4 0C       		.byte	0xc
 1236 07d5 12       		.uleb128 0x12
 1237 07d6 49445200 		.ascii	"IDR\000"
 1238 07da 0D       		.byte	0xd
 1239 07db E3       		.byte	0xe3
 1240 07dc 8E040000 		.4byte	0x48e
 1241 07e0 10       		.byte	0x10
 1242 07e1 12       		.uleb128 0x12
 1243 07e2 4F445200 		.ascii	"ODR\000"
 1244 07e6 0D       		.byte	0xd
 1245 07e7 E4       		.byte	0xe4
 1246 07e8 8E040000 		.4byte	0x48e
 1247 07ec 14       		.byte	0x14
 1248 07ed 06       		.uleb128 0x6
 1249 07ee 73010000 		.4byte	.LASF114
 1250 07f2 0D       		.byte	0xd
 1251 07f3 EB       		.byte	0xeb
 1252 07f4 2A080000 		.4byte	0x82a
 1253 07f8 18       		.byte	0x18
 1254 07f9 06       		.uleb128 0x6
ARM GAS  /var/folders/m4/4md61f0s1_g0rzfghffqnxvr0000gn/T//ccCjnT2q.s 			page 23


 1255 07fa 89020000 		.4byte	.LASF115
 1256 07fe 0D       		.byte	0xd
 1257 07ff EC       		.byte	0xec
 1258 0800 8E040000 		.4byte	0x48e
 1259 0804 1C       		.byte	0x1c
 1260 0805 06       		.uleb128 0x6
 1261 0806 B7030000 		.4byte	.LASF116
 1262 080a 0D       		.byte	0xd
 1263 080b ED       		.byte	0xed
 1264 080c 8E040000 		.4byte	0x48e
 1265 0810 20       		.byte	0x20
 1266 0811 06       		.uleb128 0x6
 1267 0812 B2030000 		.4byte	.LASF117
 1268 0816 0D       		.byte	0xd
 1269 0817 EE       		.byte	0xee
 1270 0818 8E040000 		.4byte	0x48e
 1271 081c 24       		.byte	0x24
 1272 081d 12       		.uleb128 0x12
 1273 081e 42525200 		.ascii	"BRR\000"
 1274 0822 0D       		.byte	0xd
 1275 0823 EF       		.byte	0xef
 1276 0824 8E040000 		.4byte	0x48e
 1277 0828 28       		.byte	0x28
 1278 0829 00       		.byte	0
 1279 082a 0F       		.uleb128 0xf
 1280 082b 82070000 		.4byte	0x782
 1281 082f 04       		.uleb128 0x4
 1282 0830 0F020000 		.4byte	.LASF118
 1283 0834 0D       		.byte	0xd
 1284 0835 F0       		.byte	0xf0
 1285 0836 9D070000 		.4byte	0x79d
 1286 083a 18       		.uleb128 0x18
 1287 083b B6000000 		.4byte	.LASF119
 1288 083f 0D       		.byte	0xd
 1289 0840 3F01     		.2byte	0x13f
 1290 0842 D5000000 		.4byte	0xd5
 1291 0846 18       		.uleb128 0x18
 1292 0847 3F030000 		.4byte	.LASF120
 1293 084b 0D       		.byte	0xd
 1294 084c 4401     		.2byte	0x144
 1295 084e D5000000 		.4byte	0xd5
 1296 0852 18       		.uleb128 0x18
 1297 0853 83060000 		.4byte	.LASF121
 1298 0857 0D       		.byte	0xd
 1299 0858 5101     		.2byte	0x151
 1300 085a 5E080000 		.4byte	0x85e
 1301 085e 09       		.uleb128 0x9
 1302 085f 04       		.byte	0x4
 1303 0860 2F080000 		.4byte	0x82f
 1304 0864 19       		.uleb128 0x19
 1305 0865 01       		.byte	0x1
 1306 0866 0E       		.byte	0xe
 1307 0867 4A       		.byte	0x4a
 1308 0868 7F080000 		.4byte	0x87f
 1309 086c 1A       		.uleb128 0x1a
 1310 086d 67070000 		.4byte	.LASF122
 1311 0871 00       		.sleb128 0
ARM GAS  /var/folders/m4/4md61f0s1_g0rzfghffqnxvr0000gn/T//ccCjnT2q.s 			page 24


 1312 0872 1A       		.uleb128 0x1a
 1313 0873 E6040000 		.4byte	.LASF123
 1314 0877 01       		.sleb128 1
 1315 0878 1A       		.uleb128 0x1a
 1316 0879 42010000 		.4byte	.LASF124
 1317 087d 02       		.sleb128 2
 1318 087e 00       		.byte	0
 1319 087f 04       		.uleb128 0x4
 1320 0880 15070000 		.4byte	.LASF125
 1321 0884 0E       		.byte	0xe
 1322 0885 4E       		.byte	0x4e
 1323 0886 64080000 		.4byte	0x864
 1324 088a 04       		.uleb128 0x4
 1325 088b 0B070000 		.4byte	.LASF126
 1326 088f 0E       		.byte	0xe
 1327 0890 53       		.byte	0x53
 1328 0891 95080000 		.4byte	0x895
 1329 0895 0A       		.uleb128 0xa
 1330 0896 0B070000 		.4byte	.LASF126
 1331 089a 1C       		.byte	0x1c
 1332 089b 0F       		.byte	0xf
 1333 089c B301     		.2byte	0x1b3
 1334 089e FE080000 		.4byte	0x8fe
 1335 08a2 08       		.uleb128 0x8
 1336 08a3 92010000 		.4byte	.LASF127
 1337 08a7 0F       		.byte	0xf
 1338 08a8 B701     		.2byte	0x1b7
 1339 08aa 7F080000 		.4byte	0x87f
 1340 08ae 00       		.byte	0
 1341 08af 08       		.uleb128 0x8
 1342 08b0 04050000 		.4byte	.LASF128
 1343 08b4 0F       		.byte	0xf
 1344 08b5 BB01     		.2byte	0x1bb
 1345 08b7 160B0000 		.4byte	0xb16
 1346 08bb 04       		.byte	0x4
 1347 08bc 08       		.uleb128 0x8
 1348 08bd C3000000 		.4byte	.LASF129
 1349 08c1 0F       		.byte	0xf
 1350 08c2 BF01     		.2byte	0x1bf
 1351 08c4 660A0000 		.4byte	0xa66
 1352 08c8 08       		.byte	0x8
 1353 08c9 08       		.uleb128 0x8
 1354 08ca CC040000 		.4byte	.LASF130
 1355 08ce 0F       		.byte	0xf
 1356 08cf C301     		.2byte	0x1c3
 1357 08d1 5A0A0000 		.4byte	0xa5a
 1358 08d5 0C       		.byte	0xc
 1359 08d6 08       		.uleb128 0x8
 1360 08d7 98010000 		.4byte	.LASF131
 1361 08db 0F       		.byte	0xf
 1362 08dc C701     		.2byte	0x1c7
 1363 08de 4E0A0000 		.4byte	0xa4e
 1364 08e2 10       		.byte	0x10
 1365 08e3 08       		.uleb128 0x8
 1366 08e4 5B070000 		.4byte	.LASF132
 1367 08e8 0F       		.byte	0xf
 1368 08e9 CF01     		.2byte	0x1cf
ARM GAS  /var/folders/m4/4md61f0s1_g0rzfghffqnxvr0000gn/T//ccCjnT2q.s 			page 25


 1369 08eb D5000000 		.4byte	0xd5
 1370 08ef 14       		.byte	0x14
 1371 08f0 07       		.uleb128 0x7
 1372 08f1 74696D00 		.ascii	"tim\000"
 1373 08f5 0F       		.byte	0xf
 1374 08f6 D301     		.2byte	0x1d3
 1375 08f8 210B0000 		.4byte	0xb21
 1376 08fc 18       		.byte	0x18
 1377 08fd 00       		.byte	0
 1378 08fe 04       		.uleb128 0x4
 1379 08ff BC030000 		.4byte	.LASF133
 1380 0903 0E       		.byte	0xe
 1381 0904 5A       		.byte	0x5a
 1382 0905 09090000 		.4byte	0x909
 1383 0909 09       		.uleb128 0x9
 1384 090a 04       		.byte	0x4
 1385 090b 0F090000 		.4byte	0x90f
 1386 090f 0B       		.uleb128 0xb
 1387 0910 1A090000 		.4byte	0x91a
 1388 0914 0C       		.uleb128 0xc
 1389 0915 1A090000 		.4byte	0x91a
 1390 0919 00       		.byte	0
 1391 091a 09       		.uleb128 0x9
 1392 091b 04       		.byte	0x4
 1393 091c 8A080000 		.4byte	0x88a
 1394 0920 1B       		.uleb128 0x1b
 1395 0921 60       		.byte	0x60
 1396 0922 10       		.byte	0x10
 1397 0923 A101     		.2byte	0x1a1
 1398 0925 2C0A0000 		.4byte	0xa2c
 1399 0929 07       		.uleb128 0x7
 1400 092a 43523100 		.ascii	"CR1\000"
 1401 092e 10       		.byte	0x10
 1402 092f A201     		.2byte	0x1a2
 1403 0931 8E040000 		.4byte	0x48e
 1404 0935 00       		.byte	0
 1405 0936 07       		.uleb128 0x7
 1406 0937 43523200 		.ascii	"CR2\000"
 1407 093b 10       		.byte	0x10
 1408 093c A301     		.2byte	0x1a3
 1409 093e 8E040000 		.4byte	0x48e
 1410 0942 04       		.byte	0x4
 1411 0943 08       		.uleb128 0x8
 1412 0944 94020000 		.4byte	.LASF134
 1413 0948 10       		.byte	0x10
 1414 0949 A401     		.2byte	0x1a4
 1415 094b 8E040000 		.4byte	0x48e
 1416 094f 08       		.byte	0x8
 1417 0950 08       		.uleb128 0x8
 1418 0951 5D000000 		.4byte	.LASF135
 1419 0955 10       		.byte	0x10
 1420 0956 A501     		.2byte	0x1a5
 1421 0958 8E040000 		.4byte	0x48e
 1422 095c 0C       		.byte	0xc
 1423 095d 07       		.uleb128 0x7
 1424 095e 535200   		.ascii	"SR\000"
 1425 0961 10       		.byte	0x10
ARM GAS  /var/folders/m4/4md61f0s1_g0rzfghffqnxvr0000gn/T//ccCjnT2q.s 			page 26


 1426 0962 A601     		.2byte	0x1a6
 1427 0964 8E040000 		.4byte	0x48e
 1428 0968 10       		.byte	0x10
 1429 0969 07       		.uleb128 0x7
 1430 096a 45475200 		.ascii	"EGR\000"
 1431 096e 10       		.byte	0x10
 1432 096f A701     		.2byte	0x1a7
 1433 0971 8E040000 		.4byte	0x48e
 1434 0975 14       		.byte	0x14
 1435 0976 08       		.uleb128 0x8
 1436 0977 55010000 		.4byte	.LASF136
 1437 097b 10       		.byte	0x10
 1438 097c A801     		.2byte	0x1a8
 1439 097e 8E040000 		.4byte	0x48e
 1440 0982 18       		.byte	0x18
 1441 0983 08       		.uleb128 0x8
 1442 0984 5B010000 		.4byte	.LASF137
 1443 0988 10       		.byte	0x10
 1444 0989 A901     		.2byte	0x1a9
 1445 098b 8E040000 		.4byte	0x48e
 1446 098f 1C       		.byte	0x1c
 1447 0990 08       		.uleb128 0x8
 1448 0991 19050000 		.4byte	.LASF138
 1449 0995 10       		.byte	0x10
 1450 0996 AA01     		.2byte	0x1aa
 1451 0998 8E040000 		.4byte	0x48e
 1452 099c 20       		.byte	0x20
 1453 099d 07       		.uleb128 0x7
 1454 099e 434E5400 		.ascii	"CNT\000"
 1455 09a2 10       		.byte	0x10
 1456 09a3 AB01     		.2byte	0x1ab
 1457 09a5 8E040000 		.4byte	0x48e
 1458 09a9 24       		.byte	0x24
 1459 09aa 07       		.uleb128 0x7
 1460 09ab 50534300 		.ascii	"PSC\000"
 1461 09af 10       		.byte	0x10
 1462 09b0 AC01     		.2byte	0x1ac
 1463 09b2 8E040000 		.4byte	0x48e
 1464 09b6 28       		.byte	0x28
 1465 09b7 07       		.uleb128 0x7
 1466 09b8 41525200 		.ascii	"ARR\000"
 1467 09bc 10       		.byte	0x10
 1468 09bd AD01     		.2byte	0x1ad
 1469 09bf 8E040000 		.4byte	0x48e
 1470 09c3 2C       		.byte	0x2c
 1471 09c4 07       		.uleb128 0x7
 1472 09c5 52435200 		.ascii	"RCR\000"
 1473 09c9 10       		.byte	0x10
 1474 09ca AE01     		.2byte	0x1ae
 1475 09cc 8E040000 		.4byte	0x48e
 1476 09d0 30       		.byte	0x30
 1477 09d1 07       		.uleb128 0x7
 1478 09d2 43435200 		.ascii	"CCR\000"
 1479 09d6 10       		.byte	0x10
 1480 09d7 AF01     		.2byte	0x1af
 1481 09d9 2C0A0000 		.4byte	0xa2c
 1482 09dd 34       		.byte	0x34
ARM GAS  /var/folders/m4/4md61f0s1_g0rzfghffqnxvr0000gn/T//ccCjnT2q.s 			page 27


 1483 09de 08       		.uleb128 0x8
 1484 09df 24010000 		.4byte	.LASF139
 1485 09e3 10       		.byte	0x10
 1486 09e4 B001     		.2byte	0x1b0
 1487 09e6 8E040000 		.4byte	0x48e
 1488 09ea 44       		.byte	0x44
 1489 09eb 07       		.uleb128 0x7
 1490 09ec 44435200 		.ascii	"DCR\000"
 1491 09f0 10       		.byte	0x10
 1492 09f1 B101     		.2byte	0x1b1
 1493 09f3 8E040000 		.4byte	0x48e
 1494 09f7 48       		.byte	0x48
 1495 09f8 08       		.uleb128 0x8
 1496 09f9 0B050000 		.4byte	.LASF140
 1497 09fd 10       		.byte	0x10
 1498 09fe B201     		.2byte	0x1b2
 1499 0a00 8E040000 		.4byte	0x48e
 1500 0a04 4C       		.byte	0x4c
 1501 0a05 07       		.uleb128 0x7
 1502 0a06 4F5200   		.ascii	"OR\000"
 1503 0a09 10       		.byte	0x10
 1504 0a0a B301     		.2byte	0x1b3
 1505 0a0c 8E040000 		.4byte	0x48e
 1506 0a10 50       		.byte	0x50
 1507 0a11 08       		.uleb128 0x8
 1508 0a12 61010000 		.4byte	.LASF141
 1509 0a16 10       		.byte	0x10
 1510 0a17 B401     		.2byte	0x1b4
 1511 0a19 8E040000 		.4byte	0x48e
 1512 0a1d 54       		.byte	0x54
 1513 0a1e 08       		.uleb128 0x8
 1514 0a1f A4040000 		.4byte	.LASF142
 1515 0a23 10       		.byte	0x10
 1516 0a24 B501     		.2byte	0x1b5
 1517 0a26 310A0000 		.4byte	0xa31
 1518 0a2a 58       		.byte	0x58
 1519 0a2b 00       		.byte	0
 1520 0a2c 0F       		.uleb128 0xf
 1521 0a2d A3040000 		.4byte	0x4a3
 1522 0a31 0F       		.uleb128 0xf
 1523 0a32 93040000 		.4byte	0x493
 1524 0a36 18       		.uleb128 0x18
 1525 0a37 D0020000 		.4byte	.LASF143
 1526 0a3b 10       		.byte	0x10
 1527 0a3c B601     		.2byte	0x1b6
 1528 0a3e 20090000 		.4byte	0x920
 1529 0a42 18       		.uleb128 0x18
 1530 0a43 78010000 		.4byte	.LASF144
 1531 0a47 0F       		.byte	0xf
 1532 0a48 5F01     		.2byte	0x15f
 1533 0a4a D5000000 		.4byte	0xd5
 1534 0a4e 18       		.uleb128 0x18
 1535 0a4f 43000000 		.4byte	.LASF145
 1536 0a53 0F       		.byte	0xf
 1537 0a54 6401     		.2byte	0x164
 1538 0a56 B4000000 		.4byte	0xb4
 1539 0a5a 18       		.uleb128 0x18
ARM GAS  /var/folders/m4/4md61f0s1_g0rzfghffqnxvr0000gn/T//ccCjnT2q.s 			page 28


 1540 0a5b 60040000 		.4byte	.LASF146
 1541 0a5f 0F       		.byte	0xf
 1542 0a60 6901     		.2byte	0x169
 1543 0a62 D5000000 		.4byte	0xd5
 1544 0a66 18       		.uleb128 0x18
 1545 0a67 20070000 		.4byte	.LASF147
 1546 0a6b 0F       		.byte	0xf
 1547 0a6c 6E01     		.2byte	0x16e
 1548 0a6e D5000000 		.4byte	0xd5
 1549 0a72 1B       		.uleb128 0x1b
 1550 0a73 08       		.byte	0x8
 1551 0a74 0F       		.byte	0xf
 1552 0a75 7301     		.2byte	0x173
 1553 0a77 960A0000 		.4byte	0xa96
 1554 0a7b 08       		.uleb128 0x8
 1555 0a7c FF040000 		.4byte	.LASF148
 1556 0a80 0F       		.byte	0xf
 1557 0a81 7701     		.2byte	0x177
 1558 0a83 420A0000 		.4byte	0xa42
 1559 0a87 00       		.byte	0
 1560 0a88 08       		.uleb128 0x8
 1561 0a89 C7020000 		.4byte	.LASF149
 1562 0a8d 0F       		.byte	0xf
 1563 0a8e 7D01     		.2byte	0x17d
 1564 0a90 FE080000 		.4byte	0x8fe
 1565 0a94 04       		.byte	0x4
 1566 0a95 00       		.byte	0
 1567 0a96 18       		.uleb128 0x18
 1568 0a97 AC060000 		.4byte	.LASF150
 1569 0a9b 0F       		.byte	0xf
 1570 0a9c 7F01     		.2byte	0x17f
 1571 0a9e 720A0000 		.4byte	0xa72
 1572 0aa2 1B       		.uleb128 0x1b
 1573 0aa3 34       		.byte	0x34
 1574 0aa4 0F       		.byte	0xf
 1575 0aa5 8401     		.2byte	0x184
 1576 0aa7 FA0A0000 		.4byte	0xafa
 1577 0aab 08       		.uleb128 0x8
 1578 0aac 29010000 		.4byte	.LASF151
 1579 0ab0 0F       		.byte	0xf
 1580 0ab1 8A01     		.2byte	0x18a
 1581 0ab3 D5000000 		.4byte	0xd5
 1582 0ab7 00       		.byte	0
 1583 0ab8 08       		.uleb128 0x8
 1584 0ab9 C3000000 		.4byte	.LASF129
 1585 0abd 0F       		.byte	0xf
 1586 0abe 9001     		.2byte	0x190
 1587 0ac0 660A0000 		.4byte	0xa66
 1588 0ac4 04       		.byte	0x4
 1589 0ac5 08       		.uleb128 0x8
 1590 0ac6 C7020000 		.4byte	.LASF149
 1591 0aca 0F       		.byte	0xf
 1592 0acb 9601     		.2byte	0x196
 1593 0acd FE080000 		.4byte	0x8fe
 1594 0ad1 08       		.byte	0x8
 1595 0ad2 08       		.uleb128 0x8
 1596 0ad3 98010000 		.4byte	.LASF131
ARM GAS  /var/folders/m4/4md61f0s1_g0rzfghffqnxvr0000gn/T//ccCjnT2q.s 			page 29


 1597 0ad7 0F       		.byte	0xf
 1598 0ad8 9A01     		.2byte	0x19a
 1599 0ada FA0A0000 		.4byte	0xafa
 1600 0ade 0C       		.byte	0xc
 1601 0adf 07       		.uleb128 0x7
 1602 0ae0 63723200 		.ascii	"cr2\000"
 1603 0ae4 0F       		.byte	0xf
 1604 0ae5 A001     		.2byte	0x1a0
 1605 0ae7 D5000000 		.4byte	0xd5
 1606 0aeb 2C       		.byte	0x2c
 1607 0aec 08       		.uleb128 0x8
 1608 0aed 8F070000 		.4byte	.LASF152
 1609 0af1 0F       		.byte	0xf
 1610 0af2 AD01     		.2byte	0x1ad
 1611 0af4 D5000000 		.4byte	0xd5
 1612 0af8 30       		.byte	0x30
 1613 0af9 00       		.byte	0
 1614 0afa 10       		.uleb128 0x10
 1615 0afb 960A0000 		.4byte	0xa96
 1616 0aff 0A0B0000 		.4byte	0xb0a
 1617 0b03 11       		.uleb128 0x11
 1618 0b04 87040000 		.4byte	0x487
 1619 0b08 03       		.byte	0x3
 1620 0b09 00       		.byte	0
 1621 0b0a 18       		.uleb128 0x18
 1622 0b0b D3060000 		.4byte	.LASF153
 1623 0b0f 0F       		.byte	0xf
 1624 0b10 AE01     		.2byte	0x1ae
 1625 0b12 A20A0000 		.4byte	0xaa2
 1626 0b16 09       		.uleb128 0x9
 1627 0b17 04       		.byte	0x4
 1628 0b18 1C0B0000 		.4byte	0xb1c
 1629 0b1c 16       		.uleb128 0x16
 1630 0b1d 0A0B0000 		.4byte	0xb0a
 1631 0b21 09       		.uleb128 0x9
 1632 0b22 04       		.byte	0x4
 1633 0b23 360A0000 		.4byte	0xa36
 1634 0b27 1C       		.uleb128 0x1c
 1635 0b28 3B000000 		.4byte	.LASF156
 1636 0b2c 01       		.byte	0x1
 1637 0b2d 2E       		.byte	0x2e
 1638 0b2e 00000000 		.4byte	.LFB269
 1639 0b32 8C000000 		.4byte	.LFE269-.LFB269
 1640 0b36 01       		.uleb128 0x1
 1641 0b37 9C       		.byte	0x9c
 1642 0b38 CD0B0000 		.4byte	0xbcd
 1643 0b3c 1D       		.uleb128 0x1d
 1644 0b3d 7E040000 		.4byte	.LASF154
 1645 0b41 01       		.byte	0x1
 1646 0b42 2E       		.byte	0x2e
 1647 0b43 B4000000 		.4byte	0xb4
 1648 0b47 00000000 		.4byte	.LLST0
 1649 0b4b 1D       		.uleb128 0x1d
 1650 0b4c 6B030000 		.4byte	.LASF155
 1651 0b50 01       		.byte	0x1
 1652 0b51 2E       		.byte	0x2e
 1653 0b52 25000000 		.4byte	0x25
ARM GAS  /var/folders/m4/4md61f0s1_g0rzfghffqnxvr0000gn/T//ccCjnT2q.s 			page 30


 1654 0b56 21000000 		.4byte	.LLST1
 1655 0b5a 1E       		.uleb128 0x1e
 1656 0b5b 39040000 		.4byte	.LASF159
 1657 0b5f 01       		.byte	0x1
 1658 0b60 2F       		.byte	0x2f
 1659 0b61 D5000000 		.4byte	0xd5
 1660 0b65 4B000000 		.4byte	.LLST2
 1661 0b69 1F       		.uleb128 0x1f
 1662 0b6a 3C000000 		.4byte	.LVL8
 1663 0b6e 180D0000 		.4byte	0xd18
 1664 0b72 20       		.uleb128 0x20
 1665 0b73 4E000000 		.4byte	.LVL10
 1666 0b77 180D0000 		.4byte	0xd18
 1667 0b7b 8B0B0000 		.4byte	0xb8b
 1668 0b7f 21       		.uleb128 0x21
 1669 0b80 01       		.uleb128 0x1
 1670 0b81 52       		.byte	0x52
 1671 0b82 02       		.uleb128 0x2
 1672 0b83 75       		.byte	0x75
 1673 0b84 00       		.sleb128 0
 1674 0b85 21       		.uleb128 0x21
 1675 0b86 01       		.uleb128 0x1
 1676 0b87 51       		.byte	0x51
 1677 0b88 01       		.uleb128 0x1
 1678 0b89 30       		.byte	0x30
 1679 0b8a 00       		.byte	0
 1680 0b8b 20       		.uleb128 0x20
 1681 0b8c 58000000 		.4byte	.LVL11
 1682 0b90 180D0000 		.4byte	0xd18
 1683 0b94 A40B0000 		.4byte	0xba4
 1684 0b98 21       		.uleb128 0x21
 1685 0b99 01       		.uleb128 0x1
 1686 0b9a 52       		.byte	0x52
 1687 0b9b 02       		.uleb128 0x2
 1688 0b9c 75       		.byte	0x75
 1689 0b9d 00       		.sleb128 0
 1690 0b9e 21       		.uleb128 0x21
 1691 0b9f 01       		.uleb128 0x1
 1692 0ba0 51       		.byte	0x51
 1693 0ba1 01       		.uleb128 0x1
 1694 0ba2 31       		.byte	0x31
 1695 0ba3 00       		.byte	0
 1696 0ba4 20       		.uleb128 0x20
 1697 0ba5 62000000 		.4byte	.LVL12
 1698 0ba9 180D0000 		.4byte	0xd18
 1699 0bad BD0B0000 		.4byte	0xbbd
 1700 0bb1 21       		.uleb128 0x21
 1701 0bb2 01       		.uleb128 0x1
 1702 0bb3 52       		.byte	0x52
 1703 0bb4 02       		.uleb128 0x2
 1704 0bb5 75       		.byte	0x75
 1705 0bb6 00       		.sleb128 0
 1706 0bb7 21       		.uleb128 0x21
 1707 0bb8 01       		.uleb128 0x1
 1708 0bb9 51       		.byte	0x51
 1709 0bba 01       		.uleb128 0x1
 1710 0bbb 32       		.byte	0x32
ARM GAS  /var/folders/m4/4md61f0s1_g0rzfghffqnxvr0000gn/T//ccCjnT2q.s 			page 31


 1711 0bbc 00       		.byte	0
 1712 0bbd 22       		.uleb128 0x22
 1713 0bbe 70000000 		.4byte	.LVL14
 1714 0bc2 180D0000 		.4byte	0xd18
 1715 0bc6 21       		.uleb128 0x21
 1716 0bc7 01       		.uleb128 0x1
 1717 0bc8 51       		.byte	0x51
 1718 0bc9 01       		.uleb128 0x1
 1719 0bca 33       		.byte	0x33
 1720 0bcb 00       		.byte	0
 1721 0bcc 00       		.byte	0
 1722 0bcd 23       		.uleb128 0x23
 1723 0bce 99020000 		.4byte	.LASF157
 1724 0bd2 01       		.byte	0x1
 1725 0bd3 50       		.byte	0x50
 1726 0bd4 00000000 		.4byte	.LFB270
 1727 0bd8 06000000 		.4byte	.LFE270-.LFB270
 1728 0bdc 01       		.uleb128 0x1
 1729 0bdd 9C       		.byte	0x9c
 1730 0bde 120C0000 		.4byte	0xc12
 1731 0be2 1D       		.uleb128 0x1d
 1732 0be3 6B030000 		.4byte	.LASF155
 1733 0be7 01       		.byte	0x1
 1734 0be8 50       		.byte	0x50
 1735 0be9 25000000 		.4byte	0x25
 1736 0bed A0000000 		.4byte	.LLST3
 1737 0bf1 22       		.uleb128 0x22
 1738 0bf2 06000000 		.4byte	.LVL16
 1739 0bf6 270B0000 		.4byte	0xb27
 1740 0bfa 21       		.uleb128 0x21
 1741 0bfb 08       		.uleb128 0x8
 1742 0bfc 90       		.byte	0x90
 1743 0bfd 40       		.uleb128 0x40
 1744 0bfe 93       		.byte	0x93
 1745 0bff 04       		.uleb128 0x4
 1746 0c00 90       		.byte	0x90
 1747 0c01 41       		.uleb128 0x41
 1748 0c02 93       		.byte	0x93
 1749 0c03 04       		.uleb128 0x4
 1750 0c04 05       		.uleb128 0x5
 1751 0c05 F3       		.byte	0xf3
 1752 0c06 03       		.uleb128 0x3
 1753 0c07 F5       		.byte	0xf5
 1754 0c08 40       		.uleb128 0x40
 1755 0c09 25       		.uleb128 0x25
 1756 0c0a 21       		.uleb128 0x21
 1757 0c0b 01       		.uleb128 0x1
 1758 0c0c 50       		.byte	0x50
 1759 0c0d 02       		.uleb128 0x2
 1760 0c0e 09       		.byte	0x9
 1761 0c0f FF       		.byte	0xff
 1762 0c10 00       		.byte	0
 1763 0c11 00       		.byte	0
 1764 0c12 23       		.uleb128 0x23
 1765 0c13 AA010000 		.4byte	.LASF158
 1766 0c17 01       		.byte	0x1
 1767 0c18 17       		.byte	0x17
ARM GAS  /var/folders/m4/4md61f0s1_g0rzfghffqnxvr0000gn/T//ccCjnT2q.s 			page 32


 1768 0c19 00000000 		.4byte	.LFB268
 1769 0c1d 54000000 		.4byte	.LFE268-.LFB268
 1770 0c21 01       		.uleb128 0x1
 1771 0c22 9C       		.byte	0x9c
 1772 0c23 DF0C0000 		.4byte	0xcdf
 1773 0c27 24       		.uleb128 0x24
 1774 0c28 99020000 		.4byte	.LASF157
 1775 0c2c 01       		.byte	0x1
 1776 0c2d 2B       		.byte	0x2b
 1777 0c2e 2C000000 		.4byte	0x2c
 1778 0c32 380C0000 		.4byte	0xc38
 1779 0c36 25       		.uleb128 0x25
 1780 0c37 00       		.byte	0
 1781 0c38 20       		.uleb128 0x20
 1782 0c39 0C000000 		.4byte	.LVL17
 1783 0c3d 340D0000 		.4byte	0xd34
 1784 0c41 4F0C0000 		.4byte	0xc4f
 1785 0c45 21       		.uleb128 0x21
 1786 0c46 01       		.uleb128 0x1
 1787 0c47 51       		.byte	0x51
 1788 0c48 05       		.uleb128 0x5
 1789 0c49 03       		.byte	0x3
 1790 0c4a 00000000 		.4byte	.LANCHOR0
 1791 0c4e 00       		.byte	0
 1792 0c4f 20       		.uleb128 0x20
 1793 0c50 18000000 		.4byte	.LVL18
 1794 0c54 4B0D0000 		.4byte	0xd4b
 1795 0c58 6F0C0000 		.4byte	0xc6f
 1796 0c5c 21       		.uleb128 0x21
 1797 0c5d 01       		.uleb128 0x1
 1798 0c5e 52       		.byte	0x52
 1799 0c5f 03       		.uleb128 0x3
 1800 0c60 0A       		.byte	0xa
 1801 0c61 0A01     		.2byte	0x10a
 1802 0c63 21       		.uleb128 0x21
 1803 0c64 01       		.uleb128 0x1
 1804 0c65 51       		.byte	0x51
 1805 0c66 01       		.uleb128 0x1
 1806 0c67 31       		.byte	0x31
 1807 0c68 21       		.uleb128 0x21
 1808 0c69 01       		.uleb128 0x1
 1809 0c6a 50       		.byte	0x50
 1810 0c6b 02       		.uleb128 0x2
 1811 0c6c 74       		.byte	0x74
 1812 0c6d 00       		.sleb128 0
 1813 0c6e 00       		.byte	0
 1814 0c6f 20       		.uleb128 0x20
 1815 0c70 24000000 		.4byte	.LVL19
 1816 0c74 4B0D0000 		.4byte	0xd4b
 1817 0c78 8F0C0000 		.4byte	0xc8f
 1818 0c7c 21       		.uleb128 0x21
 1819 0c7d 01       		.uleb128 0x1
 1820 0c7e 52       		.byte	0x52
 1821 0c7f 03       		.uleb128 0x3
 1822 0c80 0A       		.byte	0xa
 1823 0c81 0A01     		.2byte	0x10a
 1824 0c83 21       		.uleb128 0x21
ARM GAS  /var/folders/m4/4md61f0s1_g0rzfghffqnxvr0000gn/T//ccCjnT2q.s 			page 33


 1825 0c84 01       		.uleb128 0x1
 1826 0c85 51       		.byte	0x51
 1827 0c86 01       		.uleb128 0x1
 1828 0c87 32       		.byte	0x32
 1829 0c88 21       		.uleb128 0x21
 1830 0c89 01       		.uleb128 0x1
 1831 0c8a 50       		.byte	0x50
 1832 0c8b 02       		.uleb128 0x2
 1833 0c8c 74       		.byte	0x74
 1834 0c8d 00       		.sleb128 0
 1835 0c8e 00       		.byte	0
 1836 0c8f 20       		.uleb128 0x20
 1837 0c90 30000000 		.4byte	.LVL20
 1838 0c94 4B0D0000 		.4byte	0xd4b
 1839 0c98 AF0C0000 		.4byte	0xcaf
 1840 0c9c 21       		.uleb128 0x21
 1841 0c9d 01       		.uleb128 0x1
 1842 0c9e 52       		.byte	0x52
 1843 0c9f 03       		.uleb128 0x3
 1844 0ca0 0A       		.byte	0xa
 1845 0ca1 0A01     		.2byte	0x10a
 1846 0ca3 21       		.uleb128 0x21
 1847 0ca4 01       		.uleb128 0x1
 1848 0ca5 51       		.byte	0x51
 1849 0ca6 01       		.uleb128 0x1
 1850 0ca7 34       		.byte	0x34
 1851 0ca8 21       		.uleb128 0x21
 1852 0ca9 01       		.uleb128 0x1
 1853 0caa 50       		.byte	0x50
 1854 0cab 02       		.uleb128 0x2
 1855 0cac 74       		.byte	0x74
 1856 0cad 00       		.sleb128 0
 1857 0cae 00       		.byte	0
 1858 0caf 20       		.uleb128 0x20
 1859 0cb0 3C000000 		.4byte	.LVL21
 1860 0cb4 4B0D0000 		.4byte	0xd4b
 1861 0cb8 CF0C0000 		.4byte	0xccf
 1862 0cbc 21       		.uleb128 0x21
 1863 0cbd 01       		.uleb128 0x1
 1864 0cbe 52       		.byte	0x52
 1865 0cbf 03       		.uleb128 0x3
 1866 0cc0 0A       		.byte	0xa
 1867 0cc1 0A01     		.2byte	0x10a
 1868 0cc3 21       		.uleb128 0x21
 1869 0cc4 01       		.uleb128 0x1
 1870 0cc5 51       		.byte	0x51
 1871 0cc6 01       		.uleb128 0x1
 1872 0cc7 38       		.byte	0x38
 1873 0cc8 21       		.uleb128 0x21
 1874 0cc9 01       		.uleb128 0x1
 1875 0cca 50       		.byte	0x50
 1876 0ccb 02       		.uleb128 0x2
 1877 0ccc 74       		.byte	0x74
 1878 0ccd 00       		.sleb128 0
 1879 0cce 00       		.byte	0
 1880 0ccf 22       		.uleb128 0x22
 1881 0cd0 46000000 		.4byte	.LVL22
ARM GAS  /var/folders/m4/4md61f0s1_g0rzfghffqnxvr0000gn/T//ccCjnT2q.s 			page 34


 1882 0cd4 CD0B0000 		.4byte	0xbcd
 1883 0cd8 21       		.uleb128 0x21
 1884 0cd9 01       		.uleb128 0x1
 1885 0cda 50       		.byte	0x50
 1886 0cdb 01       		.uleb128 0x1
 1887 0cdc 30       		.byte	0x30
 1888 0cdd 00       		.byte	0
 1889 0cde 00       		.byte	0
 1890 0cdf 26       		.uleb128 0x26
 1891 0ce0 C5060000 		.4byte	.LASF160
 1892 0ce4 01       		.byte	0x1
 1893 0ce5 09       		.byte	0x9
 1894 0ce6 0A0B0000 		.4byte	0xb0a
 1895 0cea 05       		.uleb128 0x5
 1896 0ceb 03       		.byte	0x3
 1897 0cec 00000000 		.4byte	pwmcfg
 1898 0cf0 27       		.uleb128 0x27
 1899 0cf1 17010000 		.4byte	.LASF161
 1900 0cf5 11       		.byte	0x11
 1901 0cf6 FA06     		.2byte	0x6fa
 1902 0cf8 FC0C0000 		.4byte	0xcfc
 1903 0cfc 0F       		.uleb128 0xf
 1904 0cfd CA000000 		.4byte	0xca
 1905 0d01 28       		.uleb128 0x28
 1906 0d02 636800   		.ascii	"ch\000"
 1907 0d05 07       		.byte	0x7
 1908 0d06 0902     		.2byte	0x209
 1909 0d08 20040000 		.4byte	0x420
 1910 0d0c 27       		.uleb128 0x27
 1911 0d0d 8C010000 		.4byte	.LASF162
 1912 0d11 0F       		.byte	0xf
 1913 0d12 0202     		.2byte	0x202
 1914 0d14 8A080000 		.4byte	0x88a
 1915 0d18 29       		.uleb128 0x29
 1916 0d19 37070000 		.4byte	.LASF163
 1917 0d1d 0E       		.byte	0xe
 1918 0d1e 2401     		.2byte	0x124
 1919 0d20 340D0000 		.4byte	0xd34
 1920 0d24 0C       		.uleb128 0xc
 1921 0d25 1A090000 		.4byte	0x91a
 1922 0d29 0C       		.uleb128 0xc
 1923 0d2a 4E0A0000 		.4byte	0xa4e
 1924 0d2e 0C       		.uleb128 0xc
 1925 0d2f 660A0000 		.4byte	0xa66
 1926 0d33 00       		.byte	0
 1927 0d34 29       		.uleb128 0x29
 1928 0d35 4C010000 		.4byte	.LASF164
 1929 0d39 0E       		.byte	0xe
 1930 0d3a 2101     		.2byte	0x121
 1931 0d3c 4B0D0000 		.4byte	0xd4b
 1932 0d40 0C       		.uleb128 0xc
 1933 0d41 1A090000 		.4byte	0x91a
 1934 0d45 0C       		.uleb128 0xc
 1935 0d46 160B0000 		.4byte	0xb16
 1936 0d4a 00       		.byte	0
 1937 0d4b 2A       		.uleb128 0x2a
 1938 0d4c 96060000 		.4byte	.LASF168
ARM GAS  /var/folders/m4/4md61f0s1_g0rzfghffqnxvr0000gn/T//ccCjnT2q.s 			page 35


 1939 0d50 0D       		.byte	0xd
 1940 0d51 2402     		.2byte	0x224
 1941 0d53 0C       		.uleb128 0xc
 1942 0d54 52080000 		.4byte	0x852
 1943 0d58 0C       		.uleb128 0xc
 1944 0d59 3A080000 		.4byte	0x83a
 1945 0d5d 0C       		.uleb128 0xc
 1946 0d5e 46080000 		.4byte	0x846
 1947 0d62 00       		.byte	0
 1948 0d63 00       		.byte	0
 1949              		.section	.debug_abbrev,"",%progbits
 1950              	.Ldebug_abbrev0:
 1951 0000 01       		.uleb128 0x1
 1952 0001 11       		.uleb128 0x11
 1953 0002 01       		.byte	0x1
 1954 0003 25       		.uleb128 0x25
 1955 0004 0E       		.uleb128 0xe
 1956 0005 13       		.uleb128 0x13
 1957 0006 0B       		.uleb128 0xb
 1958 0007 03       		.uleb128 0x3
 1959 0008 0E       		.uleb128 0xe
 1960 0009 1B       		.uleb128 0x1b
 1961 000a 0E       		.uleb128 0xe
 1962 000b 55       		.uleb128 0x55
 1963 000c 17       		.uleb128 0x17
 1964 000d 11       		.uleb128 0x11
 1965 000e 01       		.uleb128 0x1
 1966 000f 10       		.uleb128 0x10
 1967 0010 17       		.uleb128 0x17
 1968 0011 00       		.byte	0
 1969 0012 00       		.byte	0
 1970 0013 02       		.uleb128 0x2
 1971 0014 24       		.uleb128 0x24
 1972 0015 00       		.byte	0
 1973 0016 0B       		.uleb128 0xb
 1974 0017 0B       		.uleb128 0xb
 1975 0018 3E       		.uleb128 0x3e
 1976 0019 0B       		.uleb128 0xb
 1977 001a 03       		.uleb128 0x3
 1978 001b 0E       		.uleb128 0xe
 1979 001c 00       		.byte	0
 1980 001d 00       		.byte	0
 1981 001e 03       		.uleb128 0x3
 1982 001f 24       		.uleb128 0x24
 1983 0020 00       		.byte	0
 1984 0021 0B       		.uleb128 0xb
 1985 0022 0B       		.uleb128 0xb
 1986 0023 3E       		.uleb128 0x3e
 1987 0024 0B       		.uleb128 0xb
 1988 0025 03       		.uleb128 0x3
 1989 0026 08       		.uleb128 0x8
 1990 0027 00       		.byte	0
 1991 0028 00       		.byte	0
 1992 0029 04       		.uleb128 0x4
 1993 002a 16       		.uleb128 0x16
 1994 002b 00       		.byte	0
 1995 002c 03       		.uleb128 0x3
ARM GAS  /var/folders/m4/4md61f0s1_g0rzfghffqnxvr0000gn/T//ccCjnT2q.s 			page 36


 1996 002d 0E       		.uleb128 0xe
 1997 002e 3A       		.uleb128 0x3a
 1998 002f 0B       		.uleb128 0xb
 1999 0030 3B       		.uleb128 0x3b
 2000 0031 0B       		.uleb128 0xb
 2001 0032 49       		.uleb128 0x49
 2002 0033 13       		.uleb128 0x13
 2003 0034 00       		.byte	0
 2004 0035 00       		.byte	0
 2005 0036 05       		.uleb128 0x5
 2006 0037 13       		.uleb128 0x13
 2007 0038 01       		.byte	0x1
 2008 0039 03       		.uleb128 0x3
 2009 003a 0E       		.uleb128 0xe
 2010 003b 0B       		.uleb128 0xb
 2011 003c 0B       		.uleb128 0xb
 2012 003d 3A       		.uleb128 0x3a
 2013 003e 0B       		.uleb128 0xb
 2014 003f 3B       		.uleb128 0x3b
 2015 0040 0B       		.uleb128 0xb
 2016 0041 01       		.uleb128 0x1
 2017 0042 13       		.uleb128 0x13
 2018 0043 00       		.byte	0
 2019 0044 00       		.byte	0
 2020 0045 06       		.uleb128 0x6
 2021 0046 0D       		.uleb128 0xd
 2022 0047 00       		.byte	0
 2023 0048 03       		.uleb128 0x3
 2024 0049 0E       		.uleb128 0xe
 2025 004a 3A       		.uleb128 0x3a
 2026 004b 0B       		.uleb128 0xb
 2027 004c 3B       		.uleb128 0x3b
 2028 004d 0B       		.uleb128 0xb
 2029 004e 49       		.uleb128 0x49
 2030 004f 13       		.uleb128 0x13
 2031 0050 38       		.uleb128 0x38
 2032 0051 0B       		.uleb128 0xb
 2033 0052 00       		.byte	0
 2034 0053 00       		.byte	0
 2035 0054 07       		.uleb128 0x7
 2036 0055 0D       		.uleb128 0xd
 2037 0056 00       		.byte	0
 2038 0057 03       		.uleb128 0x3
 2039 0058 08       		.uleb128 0x8
 2040 0059 3A       		.uleb128 0x3a
 2041 005a 0B       		.uleb128 0xb
 2042 005b 3B       		.uleb128 0x3b
 2043 005c 05       		.uleb128 0x5
 2044 005d 49       		.uleb128 0x49
 2045 005e 13       		.uleb128 0x13
 2046 005f 38       		.uleb128 0x38
 2047 0060 0B       		.uleb128 0xb
 2048 0061 00       		.byte	0
 2049 0062 00       		.byte	0
 2050 0063 08       		.uleb128 0x8
 2051 0064 0D       		.uleb128 0xd
 2052 0065 00       		.byte	0
ARM GAS  /var/folders/m4/4md61f0s1_g0rzfghffqnxvr0000gn/T//ccCjnT2q.s 			page 37


 2053 0066 03       		.uleb128 0x3
 2054 0067 0E       		.uleb128 0xe
 2055 0068 3A       		.uleb128 0x3a
 2056 0069 0B       		.uleb128 0xb
 2057 006a 3B       		.uleb128 0x3b
 2058 006b 05       		.uleb128 0x5
 2059 006c 49       		.uleb128 0x49
 2060 006d 13       		.uleb128 0x13
 2061 006e 38       		.uleb128 0x38
 2062 006f 0B       		.uleb128 0xb
 2063 0070 00       		.byte	0
 2064 0071 00       		.byte	0
 2065 0072 09       		.uleb128 0x9
 2066 0073 0F       		.uleb128 0xf
 2067 0074 00       		.byte	0
 2068 0075 0B       		.uleb128 0xb
 2069 0076 0B       		.uleb128 0xb
 2070 0077 49       		.uleb128 0x49
 2071 0078 13       		.uleb128 0x13
 2072 0079 00       		.byte	0
 2073 007a 00       		.byte	0
 2074 007b 0A       		.uleb128 0xa
 2075 007c 13       		.uleb128 0x13
 2076 007d 01       		.byte	0x1
 2077 007e 03       		.uleb128 0x3
 2078 007f 0E       		.uleb128 0xe
 2079 0080 0B       		.uleb128 0xb
 2080 0081 0B       		.uleb128 0xb
 2081 0082 3A       		.uleb128 0x3a
 2082 0083 0B       		.uleb128 0xb
 2083 0084 3B       		.uleb128 0x3b
 2084 0085 05       		.uleb128 0x5
 2085 0086 01       		.uleb128 0x1
 2086 0087 13       		.uleb128 0x13
 2087 0088 00       		.byte	0
 2088 0089 00       		.byte	0
 2089 008a 0B       		.uleb128 0xb
 2090 008b 15       		.uleb128 0x15
 2091 008c 01       		.byte	0x1
 2092 008d 27       		.uleb128 0x27
 2093 008e 19       		.uleb128 0x19
 2094 008f 01       		.uleb128 0x1
 2095 0090 13       		.uleb128 0x13
 2096 0091 00       		.byte	0
 2097 0092 00       		.byte	0
 2098 0093 0C       		.uleb128 0xc
 2099 0094 05       		.uleb128 0x5
 2100 0095 00       		.byte	0
 2101 0096 49       		.uleb128 0x49
 2102 0097 13       		.uleb128 0x13
 2103 0098 00       		.byte	0
 2104 0099 00       		.byte	0
 2105 009a 0D       		.uleb128 0xd
 2106 009b 0F       		.uleb128 0xf
 2107 009c 00       		.byte	0
 2108 009d 0B       		.uleb128 0xb
 2109 009e 0B       		.uleb128 0xb
ARM GAS  /var/folders/m4/4md61f0s1_g0rzfghffqnxvr0000gn/T//ccCjnT2q.s 			page 38


 2110 009f 00       		.byte	0
 2111 00a0 00       		.byte	0
 2112 00a1 0E       		.uleb128 0xe
 2113 00a2 13       		.uleb128 0x13
 2114 00a3 01       		.byte	0x1
 2115 00a4 03       		.uleb128 0x3
 2116 00a5 0E       		.uleb128 0xe
 2117 00a6 0B       		.uleb128 0xb
 2118 00a7 05       		.uleb128 0x5
 2119 00a8 3A       		.uleb128 0x3a
 2120 00a9 0B       		.uleb128 0xb
 2121 00aa 3B       		.uleb128 0x3b
 2122 00ab 05       		.uleb128 0x5
 2123 00ac 01       		.uleb128 0x1
 2124 00ad 13       		.uleb128 0x13
 2125 00ae 00       		.byte	0
 2126 00af 00       		.byte	0
 2127 00b0 0F       		.uleb128 0xf
 2128 00b1 35       		.uleb128 0x35
 2129 00b2 00       		.byte	0
 2130 00b3 49       		.uleb128 0x49
 2131 00b4 13       		.uleb128 0x13
 2132 00b5 00       		.byte	0
 2133 00b6 00       		.byte	0
 2134 00b7 10       		.uleb128 0x10
 2135 00b8 01       		.uleb128 0x1
 2136 00b9 01       		.byte	0x1
 2137 00ba 49       		.uleb128 0x49
 2138 00bb 13       		.uleb128 0x13
 2139 00bc 01       		.uleb128 0x1
 2140 00bd 13       		.uleb128 0x13
 2141 00be 00       		.byte	0
 2142 00bf 00       		.byte	0
 2143 00c0 11       		.uleb128 0x11
 2144 00c1 21       		.uleb128 0x21
 2145 00c2 00       		.byte	0
 2146 00c3 49       		.uleb128 0x49
 2147 00c4 13       		.uleb128 0x13
 2148 00c5 2F       		.uleb128 0x2f
 2149 00c6 0B       		.uleb128 0xb
 2150 00c7 00       		.byte	0
 2151 00c8 00       		.byte	0
 2152 00c9 12       		.uleb128 0x12
 2153 00ca 0D       		.uleb128 0xd
 2154 00cb 00       		.byte	0
 2155 00cc 03       		.uleb128 0x3
 2156 00cd 08       		.uleb128 0x8
 2157 00ce 3A       		.uleb128 0x3a
 2158 00cf 0B       		.uleb128 0xb
 2159 00d0 3B       		.uleb128 0x3b
 2160 00d1 0B       		.uleb128 0xb
 2161 00d2 49       		.uleb128 0x49
 2162 00d3 13       		.uleb128 0x13
 2163 00d4 38       		.uleb128 0x38
 2164 00d5 0B       		.uleb128 0xb
 2165 00d6 00       		.byte	0
 2166 00d7 00       		.byte	0
ARM GAS  /var/folders/m4/4md61f0s1_g0rzfghffqnxvr0000gn/T//ccCjnT2q.s 			page 39


 2167 00d8 13       		.uleb128 0x13
 2168 00d9 13       		.uleb128 0x13
 2169 00da 01       		.byte	0x1
 2170 00db 0B       		.uleb128 0xb
 2171 00dc 0B       		.uleb128 0xb
 2172 00dd 3A       		.uleb128 0x3a
 2173 00de 0B       		.uleb128 0xb
 2174 00df 3B       		.uleb128 0x3b
 2175 00e0 0B       		.uleb128 0xb
 2176 00e1 01       		.uleb128 0x1
 2177 00e2 13       		.uleb128 0x13
 2178 00e3 00       		.byte	0
 2179 00e4 00       		.byte	0
 2180 00e5 14       		.uleb128 0x14
 2181 00e6 17       		.uleb128 0x17
 2182 00e7 01       		.byte	0x1
 2183 00e8 0B       		.uleb128 0xb
 2184 00e9 0B       		.uleb128 0xb
 2185 00ea 3A       		.uleb128 0x3a
 2186 00eb 0B       		.uleb128 0xb
 2187 00ec 3B       		.uleb128 0x3b
 2188 00ed 0B       		.uleb128 0xb
 2189 00ee 01       		.uleb128 0x1
 2190 00ef 13       		.uleb128 0x13
 2191 00f0 00       		.byte	0
 2192 00f1 00       		.byte	0
 2193 00f2 15       		.uleb128 0x15
 2194 00f3 0D       		.uleb128 0xd
 2195 00f4 00       		.byte	0
 2196 00f5 03       		.uleb128 0x3
 2197 00f6 0E       		.uleb128 0xe
 2198 00f7 3A       		.uleb128 0x3a
 2199 00f8 0B       		.uleb128 0xb
 2200 00f9 3B       		.uleb128 0x3b
 2201 00fa 05       		.uleb128 0x5
 2202 00fb 49       		.uleb128 0x49
 2203 00fc 13       		.uleb128 0x13
 2204 00fd 00       		.byte	0
 2205 00fe 00       		.byte	0
 2206 00ff 16       		.uleb128 0x16
 2207 0100 26       		.uleb128 0x26
 2208 0101 00       		.byte	0
 2209 0102 49       		.uleb128 0x49
 2210 0103 13       		.uleb128 0x13
 2211 0104 00       		.byte	0
 2212 0105 00       		.byte	0
 2213 0106 17       		.uleb128 0x17
 2214 0107 0D       		.uleb128 0xd
 2215 0108 00       		.byte	0
 2216 0109 03       		.uleb128 0x3
 2217 010a 08       		.uleb128 0x8
 2218 010b 3A       		.uleb128 0x3a
 2219 010c 0B       		.uleb128 0xb
 2220 010d 3B       		.uleb128 0x3b
 2221 010e 0B       		.uleb128 0xb
 2222 010f 49       		.uleb128 0x49
 2223 0110 13       		.uleb128 0x13
ARM GAS  /var/folders/m4/4md61f0s1_g0rzfghffqnxvr0000gn/T//ccCjnT2q.s 			page 40


 2224 0111 00       		.byte	0
 2225 0112 00       		.byte	0
 2226 0113 18       		.uleb128 0x18
 2227 0114 16       		.uleb128 0x16
 2228 0115 00       		.byte	0
 2229 0116 03       		.uleb128 0x3
 2230 0117 0E       		.uleb128 0xe
 2231 0118 3A       		.uleb128 0x3a
 2232 0119 0B       		.uleb128 0xb
 2233 011a 3B       		.uleb128 0x3b
 2234 011b 05       		.uleb128 0x5
 2235 011c 49       		.uleb128 0x49
 2236 011d 13       		.uleb128 0x13
 2237 011e 00       		.byte	0
 2238 011f 00       		.byte	0
 2239 0120 19       		.uleb128 0x19
 2240 0121 04       		.uleb128 0x4
 2241 0122 01       		.byte	0x1
 2242 0123 0B       		.uleb128 0xb
 2243 0124 0B       		.uleb128 0xb
 2244 0125 3A       		.uleb128 0x3a
 2245 0126 0B       		.uleb128 0xb
 2246 0127 3B       		.uleb128 0x3b
 2247 0128 0B       		.uleb128 0xb
 2248 0129 01       		.uleb128 0x1
 2249 012a 13       		.uleb128 0x13
 2250 012b 00       		.byte	0
 2251 012c 00       		.byte	0
 2252 012d 1A       		.uleb128 0x1a
 2253 012e 28       		.uleb128 0x28
 2254 012f 00       		.byte	0
 2255 0130 03       		.uleb128 0x3
 2256 0131 0E       		.uleb128 0xe
 2257 0132 1C       		.uleb128 0x1c
 2258 0133 0D       		.uleb128 0xd
 2259 0134 00       		.byte	0
 2260 0135 00       		.byte	0
 2261 0136 1B       		.uleb128 0x1b
 2262 0137 13       		.uleb128 0x13
 2263 0138 01       		.byte	0x1
 2264 0139 0B       		.uleb128 0xb
 2265 013a 0B       		.uleb128 0xb
 2266 013b 3A       		.uleb128 0x3a
 2267 013c 0B       		.uleb128 0xb
 2268 013d 3B       		.uleb128 0x3b
 2269 013e 05       		.uleb128 0x5
 2270 013f 01       		.uleb128 0x1
 2271 0140 13       		.uleb128 0x13
 2272 0141 00       		.byte	0
 2273 0142 00       		.byte	0
 2274 0143 1C       		.uleb128 0x1c
 2275 0144 2E       		.uleb128 0x2e
 2276 0145 01       		.byte	0x1
 2277 0146 3F       		.uleb128 0x3f
 2278 0147 19       		.uleb128 0x19
 2279 0148 03       		.uleb128 0x3
 2280 0149 0E       		.uleb128 0xe
ARM GAS  /var/folders/m4/4md61f0s1_g0rzfghffqnxvr0000gn/T//ccCjnT2q.s 			page 41


 2281 014a 3A       		.uleb128 0x3a
 2282 014b 0B       		.uleb128 0xb
 2283 014c 3B       		.uleb128 0x3b
 2284 014d 0B       		.uleb128 0xb
 2285 014e 27       		.uleb128 0x27
 2286 014f 19       		.uleb128 0x19
 2287 0150 11       		.uleb128 0x11
 2288 0151 01       		.uleb128 0x1
 2289 0152 12       		.uleb128 0x12
 2290 0153 06       		.uleb128 0x6
 2291 0154 40       		.uleb128 0x40
 2292 0155 18       		.uleb128 0x18
 2293 0156 9642     		.uleb128 0x2116
 2294 0158 19       		.uleb128 0x19
 2295 0159 01       		.uleb128 0x1
 2296 015a 13       		.uleb128 0x13
 2297 015b 00       		.byte	0
 2298 015c 00       		.byte	0
 2299 015d 1D       		.uleb128 0x1d
 2300 015e 05       		.uleb128 0x5
 2301 015f 00       		.byte	0
 2302 0160 03       		.uleb128 0x3
 2303 0161 0E       		.uleb128 0xe
 2304 0162 3A       		.uleb128 0x3a
 2305 0163 0B       		.uleb128 0xb
 2306 0164 3B       		.uleb128 0x3b
 2307 0165 0B       		.uleb128 0xb
 2308 0166 49       		.uleb128 0x49
 2309 0167 13       		.uleb128 0x13
 2310 0168 02       		.uleb128 0x2
 2311 0169 17       		.uleb128 0x17
 2312 016a 00       		.byte	0
 2313 016b 00       		.byte	0
 2314 016c 1E       		.uleb128 0x1e
 2315 016d 34       		.uleb128 0x34
 2316 016e 00       		.byte	0
 2317 016f 03       		.uleb128 0x3
 2318 0170 0E       		.uleb128 0xe
 2319 0171 3A       		.uleb128 0x3a
 2320 0172 0B       		.uleb128 0xb
 2321 0173 3B       		.uleb128 0x3b
 2322 0174 0B       		.uleb128 0xb
 2323 0175 49       		.uleb128 0x49
 2324 0176 13       		.uleb128 0x13
 2325 0177 02       		.uleb128 0x2
 2326 0178 17       		.uleb128 0x17
 2327 0179 00       		.byte	0
 2328 017a 00       		.byte	0
 2329 017b 1F       		.uleb128 0x1f
 2330 017c 898201   		.uleb128 0x4109
 2331 017f 00       		.byte	0
 2332 0180 11       		.uleb128 0x11
 2333 0181 01       		.uleb128 0x1
 2334 0182 9542     		.uleb128 0x2115
 2335 0184 19       		.uleb128 0x19
 2336 0185 31       		.uleb128 0x31
 2337 0186 13       		.uleb128 0x13
ARM GAS  /var/folders/m4/4md61f0s1_g0rzfghffqnxvr0000gn/T//ccCjnT2q.s 			page 42


 2338 0187 00       		.byte	0
 2339 0188 00       		.byte	0
 2340 0189 20       		.uleb128 0x20
 2341 018a 898201   		.uleb128 0x4109
 2342 018d 01       		.byte	0x1
 2343 018e 11       		.uleb128 0x11
 2344 018f 01       		.uleb128 0x1
 2345 0190 31       		.uleb128 0x31
 2346 0191 13       		.uleb128 0x13
 2347 0192 01       		.uleb128 0x1
 2348 0193 13       		.uleb128 0x13
 2349 0194 00       		.byte	0
 2350 0195 00       		.byte	0
 2351 0196 21       		.uleb128 0x21
 2352 0197 8A8201   		.uleb128 0x410a
 2353 019a 00       		.byte	0
 2354 019b 02       		.uleb128 0x2
 2355 019c 18       		.uleb128 0x18
 2356 019d 9142     		.uleb128 0x2111
 2357 019f 18       		.uleb128 0x18
 2358 01a0 00       		.byte	0
 2359 01a1 00       		.byte	0
 2360 01a2 22       		.uleb128 0x22
 2361 01a3 898201   		.uleb128 0x4109
 2362 01a6 01       		.byte	0x1
 2363 01a7 11       		.uleb128 0x11
 2364 01a8 01       		.uleb128 0x1
 2365 01a9 9542     		.uleb128 0x2115
 2366 01ab 19       		.uleb128 0x19
 2367 01ac 31       		.uleb128 0x31
 2368 01ad 13       		.uleb128 0x13
 2369 01ae 00       		.byte	0
 2370 01af 00       		.byte	0
 2371 01b0 23       		.uleb128 0x23
 2372 01b1 2E       		.uleb128 0x2e
 2373 01b2 01       		.byte	0x1
 2374 01b3 3F       		.uleb128 0x3f
 2375 01b4 19       		.uleb128 0x19
 2376 01b5 03       		.uleb128 0x3
 2377 01b6 0E       		.uleb128 0xe
 2378 01b7 3A       		.uleb128 0x3a
 2379 01b8 0B       		.uleb128 0xb
 2380 01b9 3B       		.uleb128 0x3b
 2381 01ba 0B       		.uleb128 0xb
 2382 01bb 27       		.uleb128 0x27
 2383 01bc 19       		.uleb128 0x19
 2384 01bd 11       		.uleb128 0x11
 2385 01be 01       		.uleb128 0x1
 2386 01bf 12       		.uleb128 0x12
 2387 01c0 06       		.uleb128 0x6
 2388 01c1 40       		.uleb128 0x40
 2389 01c2 18       		.uleb128 0x18
 2390 01c3 9742     		.uleb128 0x2117
 2391 01c5 19       		.uleb128 0x19
 2392 01c6 01       		.uleb128 0x1
 2393 01c7 13       		.uleb128 0x13
 2394 01c8 00       		.byte	0
ARM GAS  /var/folders/m4/4md61f0s1_g0rzfghffqnxvr0000gn/T//ccCjnT2q.s 			page 43


 2395 01c9 00       		.byte	0
 2396 01ca 24       		.uleb128 0x24
 2397 01cb 2E       		.uleb128 0x2e
 2398 01cc 01       		.byte	0x1
 2399 01cd 3F       		.uleb128 0x3f
 2400 01ce 19       		.uleb128 0x19
 2401 01cf 03       		.uleb128 0x3
 2402 01d0 0E       		.uleb128 0xe
 2403 01d1 3A       		.uleb128 0x3a
 2404 01d2 0B       		.uleb128 0xb
 2405 01d3 3B       		.uleb128 0x3b
 2406 01d4 0B       		.uleb128 0xb
 2407 01d5 49       		.uleb128 0x49
 2408 01d6 13       		.uleb128 0x13
 2409 01d7 3C       		.uleb128 0x3c
 2410 01d8 19       		.uleb128 0x19
 2411 01d9 01       		.uleb128 0x1
 2412 01da 13       		.uleb128 0x13
 2413 01db 00       		.byte	0
 2414 01dc 00       		.byte	0
 2415 01dd 25       		.uleb128 0x25
 2416 01de 18       		.uleb128 0x18
 2417 01df 00       		.byte	0
 2418 01e0 00       		.byte	0
 2419 01e1 00       		.byte	0
 2420 01e2 26       		.uleb128 0x26
 2421 01e3 34       		.uleb128 0x34
 2422 01e4 00       		.byte	0
 2423 01e5 03       		.uleb128 0x3
 2424 01e6 0E       		.uleb128 0xe
 2425 01e7 3A       		.uleb128 0x3a
 2426 01e8 0B       		.uleb128 0xb
 2427 01e9 3B       		.uleb128 0x3b
 2428 01ea 0B       		.uleb128 0xb
 2429 01eb 49       		.uleb128 0x49
 2430 01ec 13       		.uleb128 0x13
 2431 01ed 02       		.uleb128 0x2
 2432 01ee 18       		.uleb128 0x18
 2433 01ef 00       		.byte	0
 2434 01f0 00       		.byte	0
 2435 01f1 27       		.uleb128 0x27
 2436 01f2 34       		.uleb128 0x34
 2437 01f3 00       		.byte	0
 2438 01f4 03       		.uleb128 0x3
 2439 01f5 0E       		.uleb128 0xe
 2440 01f6 3A       		.uleb128 0x3a
 2441 01f7 0B       		.uleb128 0xb
 2442 01f8 3B       		.uleb128 0x3b
 2443 01f9 05       		.uleb128 0x5
 2444 01fa 49       		.uleb128 0x49
 2445 01fb 13       		.uleb128 0x13
 2446 01fc 3F       		.uleb128 0x3f
 2447 01fd 19       		.uleb128 0x19
 2448 01fe 3C       		.uleb128 0x3c
 2449 01ff 19       		.uleb128 0x19
 2450 0200 00       		.byte	0
 2451 0201 00       		.byte	0
ARM GAS  /var/folders/m4/4md61f0s1_g0rzfghffqnxvr0000gn/T//ccCjnT2q.s 			page 44


 2452 0202 28       		.uleb128 0x28
 2453 0203 34       		.uleb128 0x34
 2454 0204 00       		.byte	0
 2455 0205 03       		.uleb128 0x3
 2456 0206 08       		.uleb128 0x8
 2457 0207 3A       		.uleb128 0x3a
 2458 0208 0B       		.uleb128 0xb
 2459 0209 3B       		.uleb128 0x3b
 2460 020a 05       		.uleb128 0x5
 2461 020b 49       		.uleb128 0x49
 2462 020c 13       		.uleb128 0x13
 2463 020d 3F       		.uleb128 0x3f
 2464 020e 19       		.uleb128 0x19
 2465 020f 3C       		.uleb128 0x3c
 2466 0210 19       		.uleb128 0x19
 2467 0211 00       		.byte	0
 2468 0212 00       		.byte	0
 2469 0213 29       		.uleb128 0x29
 2470 0214 2E       		.uleb128 0x2e
 2471 0215 01       		.byte	0x1
 2472 0216 3F       		.uleb128 0x3f
 2473 0217 19       		.uleb128 0x19
 2474 0218 03       		.uleb128 0x3
 2475 0219 0E       		.uleb128 0xe
 2476 021a 3A       		.uleb128 0x3a
 2477 021b 0B       		.uleb128 0xb
 2478 021c 3B       		.uleb128 0x3b
 2479 021d 05       		.uleb128 0x5
 2480 021e 27       		.uleb128 0x27
 2481 021f 19       		.uleb128 0x19
 2482 0220 3C       		.uleb128 0x3c
 2483 0221 19       		.uleb128 0x19
 2484 0222 01       		.uleb128 0x1
 2485 0223 13       		.uleb128 0x13
 2486 0224 00       		.byte	0
 2487 0225 00       		.byte	0
 2488 0226 2A       		.uleb128 0x2a
 2489 0227 2E       		.uleb128 0x2e
 2490 0228 01       		.byte	0x1
 2491 0229 3F       		.uleb128 0x3f
 2492 022a 19       		.uleb128 0x19
 2493 022b 03       		.uleb128 0x3
 2494 022c 0E       		.uleb128 0xe
 2495 022d 3A       		.uleb128 0x3a
 2496 022e 0B       		.uleb128 0xb
 2497 022f 3B       		.uleb128 0x3b
 2498 0230 05       		.uleb128 0x5
 2499 0231 27       		.uleb128 0x27
 2500 0232 19       		.uleb128 0x19
 2501 0233 3C       		.uleb128 0x3c
 2502 0234 19       		.uleb128 0x19
 2503 0235 00       		.byte	0
 2504 0236 00       		.byte	0
 2505 0237 00       		.byte	0
 2506              		.section	.debug_loc,"",%progbits
 2507              	.Ldebug_loc0:
 2508              	.LLST0:
ARM GAS  /var/folders/m4/4md61f0s1_g0rzfghffqnxvr0000gn/T//ccCjnT2q.s 			page 45


 2509 0000 00000000 		.4byte	.LVL0
 2510 0004 0E000000 		.4byte	.LVL1
 2511 0008 0100     		.2byte	0x1
 2512 000a 50       		.byte	0x50
 2513 000b 0E000000 		.4byte	.LVL1
 2514 000f 8C000000 		.4byte	.LFE269
 2515 0013 0400     		.2byte	0x4
 2516 0015 F3       		.byte	0xf3
 2517 0016 01       		.uleb128 0x1
 2518 0017 50       		.byte	0x50
 2519 0018 9F       		.byte	0x9f
 2520 0019 00000000 		.4byte	0
 2521 001d 00000000 		.4byte	0
 2522              	.LLST1:
 2523 0021 00000000 		.4byte	.LVL0
 2524 0025 11000000 		.4byte	.LVL2-1
 2525 0029 0800     		.2byte	0x8
 2526 002b 90       		.byte	0x90
 2527 002c 40       		.uleb128 0x40
 2528 002d 93       		.byte	0x93
 2529 002e 04       		.uleb128 0x4
 2530 002f 90       		.byte	0x90
 2531 0030 41       		.uleb128 0x41
 2532 0031 93       		.byte	0x93
 2533 0032 04       		.uleb128 0x4
 2534 0033 11000000 		.4byte	.LVL2-1
 2535 0037 8C000000 		.4byte	.LFE269
 2536 003b 0600     		.2byte	0x6
 2537 003d F3       		.byte	0xf3
 2538 003e 03       		.uleb128 0x3
 2539 003f F5       		.byte	0xf5
 2540 0040 40       		.uleb128 0x40
 2541 0041 25       		.uleb128 0x25
 2542 0042 9F       		.byte	0x9f
 2543 0043 00000000 		.4byte	0
 2544 0047 00000000 		.4byte	0
 2545              	.LLST2:
 2546 004b 24000000 		.4byte	.LVL5
 2547 004f 34000000 		.4byte	.LVL6
 2548 0053 0100     		.2byte	0x1
 2549 0055 50       		.byte	0x50
 2550 0056 34000000 		.4byte	.LVL6
 2551 005a 38000000 		.4byte	.LVL7
 2552 005e 0100     		.2byte	0x1
 2553 0060 55       		.byte	0x55
 2554 0061 38000000 		.4byte	.LVL7
 2555 0065 3B000000 		.4byte	.LVL8-1
 2556 0069 0100     		.2byte	0x1
 2557 006b 52       		.byte	0x52
 2558 006c 3C000000 		.4byte	.LVL8
 2559 0070 48000000 		.4byte	.LVL9
 2560 0074 0100     		.2byte	0x1
 2561 0076 50       		.byte	0x50
 2562 0077 48000000 		.4byte	.LVL9
 2563 007b 6C000000 		.4byte	.LVL13
 2564 007f 0100     		.2byte	0x1
 2565 0081 55       		.byte	0x55
ARM GAS  /var/folders/m4/4md61f0s1_g0rzfghffqnxvr0000gn/T//ccCjnT2q.s 			page 46


 2566 0082 6C000000 		.4byte	.LVL13
 2567 0086 6F000000 		.4byte	.LVL14-1
 2568 008a 0100     		.2byte	0x1
 2569 008c 52       		.byte	0x52
 2570 008d 70000000 		.4byte	.LVL14
 2571 0091 8C000000 		.4byte	.LFE269
 2572 0095 0100     		.2byte	0x1
 2573 0097 50       		.byte	0x50
 2574 0098 00000000 		.4byte	0
 2575 009c 00000000 		.4byte	0
 2576              	.LLST3:
 2577 00a0 00000000 		.4byte	.LVL15
 2578 00a4 05000000 		.4byte	.LVL16-1
 2579 00a8 0800     		.2byte	0x8
 2580 00aa 90       		.byte	0x90
 2581 00ab 40       		.uleb128 0x40
 2582 00ac 93       		.byte	0x93
 2583 00ad 04       		.uleb128 0x4
 2584 00ae 90       		.byte	0x90
 2585 00af 41       		.uleb128 0x41
 2586 00b0 93       		.byte	0x93
 2587 00b1 04       		.uleb128 0x4
 2588 00b2 05000000 		.4byte	.LVL16-1
 2589 00b6 06000000 		.4byte	.LFE270
 2590 00ba 0600     		.2byte	0x6
 2591 00bc F3       		.byte	0xf3
 2592 00bd 03       		.uleb128 0x3
 2593 00be F5       		.byte	0xf5
 2594 00bf 40       		.uleb128 0x40
 2595 00c0 25       		.uleb128 0x25
 2596 00c1 9F       		.byte	0x9f
 2597 00c2 00000000 		.4byte	0
 2598 00c6 00000000 		.4byte	0
 2599              		.section	.debug_aranges,"",%progbits
 2600 0000 2C000000 		.4byte	0x2c
 2601 0004 0200     		.2byte	0x2
 2602 0006 00000000 		.4byte	.Ldebug_info0
 2603 000a 04       		.byte	0x4
 2604 000b 00       		.byte	0
 2605 000c 0000     		.2byte	0
 2606 000e 0000     		.2byte	0
 2607 0010 00000000 		.4byte	.LFB269
 2608 0014 8C000000 		.4byte	.LFE269-.LFB269
 2609 0018 00000000 		.4byte	.LFB270
 2610 001c 06000000 		.4byte	.LFE270-.LFB270
 2611 0020 00000000 		.4byte	.LFB268
 2612 0024 54000000 		.4byte	.LFE268-.LFB268
 2613 0028 00000000 		.4byte	0
 2614 002c 00000000 		.4byte	0
 2615              		.section	.debug_ranges,"",%progbits
 2616              	.Ldebug_ranges0:
 2617 0000 00000000 		.4byte	.LFB269
 2618 0004 8C000000 		.4byte	.LFE269
 2619 0008 00000000 		.4byte	.LFB270
 2620 000c 06000000 		.4byte	.LFE270
 2621 0010 00000000 		.4byte	.LFB268
 2622 0014 54000000 		.4byte	.LFE268
ARM GAS  /var/folders/m4/4md61f0s1_g0rzfghffqnxvr0000gn/T//ccCjnT2q.s 			page 47


 2623 0018 00000000 		.4byte	0
 2624 001c 00000000 		.4byte	0
 2625              		.section	.debug_line,"",%progbits
 2626              	.Ldebug_line0:
 2627 0000 3D030000 		.section	.debug_str,"MS",%progbits,1
 2627      0200E402 
 2627      00000201 
 2627      FB0E0D00 
 2627      01010101 
 2628              	.LASF167:
 2629 0000 2F557365 		.ascii	"/Users/raphael/Documents/pcb-quadrotor/code\000"
 2629      72732F72 
 2629      61706861 
 2629      656C2F44 
 2629      6F63756D 
 2630              	.LASF52:
 2631 002c 74687265 		.ascii	"threads_list_t\000"
 2631      6164735F 
 2631      6C697374 
 2631      5F7400
 2632              	.LASF156:
 2633 003b 6573635F 		.ascii	"esc_set\000"
 2633      73657400 
 2634              	.LASF145:
 2635 0043 70776D63 		.ascii	"pwmchannel_t\000"
 2635      68616E6E 
 2635      656C5F74 
 2635      00
 2636              	.LASF57:
 2637 0050 72656164 		.ascii	"ready_list_t\000"
 2637      795F6C69 
 2637      73745F74 
 2637      00
 2638              	.LASF135:
 2639 005d 44494552 		.ascii	"DIER\000"
 2639      00
 2640              	.LASF3:
 2641 0062 73697A65 		.ascii	"size_t\000"
 2641      5F7400
 2642              	.LASF92:
 2643 0069 7264796D 		.ascii	"rdymsg\000"
 2643      736700
 2644              	.LASF20:
 2645 0070 75696E74 		.ascii	"uint64_t\000"
 2645      36345F74 
 2645      00
 2646              	.LASF4:
 2647 0079 5F5F7569 		.ascii	"__uint8_t\000"
 2647      6E74385F 
 2647      7400
 2648              	.LASF111:
 2649 0083 4F545950 		.ascii	"OTYPER\000"
 2649      455200
 2650              	.LASF89:
 2651 008a 706F7274 		.ascii	"port_intctx\000"
 2651      5F696E74 
 2651      63747800 
ARM GAS  /var/folders/m4/4md61f0s1_g0rzfghffqnxvr0000gn/T//ccCjnT2q.s 			page 48


 2652              	.LASF56:
 2653 0096 63685F74 		.ascii	"ch_threads_queue\000"
 2653      68726561 
 2653      64735F71 
 2653      75657565 
 2653      00
 2654              	.LASF76:
 2655 00a7 73797374 		.ascii	"system_debug_t\000"
 2655      656D5F64 
 2655      65627567 
 2655      5F7400
 2656              	.LASF119:
 2657 00b6 696F706F 		.ascii	"ioportmask_t\000"
 2657      72746D61 
 2657      736B5F74 
 2657      00
 2658              	.LASF129:
 2659 00c3 70657269 		.ascii	"period\000"
 2659      6F6400
 2660              	.LASF110:
 2661 00ca 4D4F4445 		.ascii	"MODER\000"
 2661      5200
 2662              	.LASF15:
 2663 00d0 6C6F6E67 		.ascii	"long long unsigned int\000"
 2663      206C6F6E 
 2663      6720756E 
 2663      7369676E 
 2663      65642069 
 2664              	.LASF113:
 2665 00e7 50555044 		.ascii	"PUPDR\000"
 2665      5200
 2666              	.LASF93:
 2667 00ed 65786974 		.ascii	"exitcode\000"
 2667      636F6465 
 2667      00
 2668              	.LASF83:
 2669 00f6 6D61696E 		.ascii	"mainthread\000"
 2669      74687265 
 2669      616400
 2670              	.LASF73:
 2671 0101 76697274 		.ascii	"virtual_timers_list_t\000"
 2671      75616C5F 
 2671      74696D65 
 2671      72735F6C 
 2671      6973745F 
 2672              	.LASF161:
 2673 0117 49544D5F 		.ascii	"ITM_RxBuffer\000"
 2673      52784275 
 2673      66666572 
 2673      00
 2674              	.LASF139:
 2675 0124 42445452 		.ascii	"BDTR\000"
 2675      00
 2676              	.LASF151:
 2677 0129 66726571 		.ascii	"frequency\000"
 2677      75656E63 
 2677      7900
ARM GAS  /var/folders/m4/4md61f0s1_g0rzfghffqnxvr0000gn/T//ccCjnT2q.s 			page 49


 2678              	.LASF103:
 2679 0133 6D5F7175 		.ascii	"m_queue\000"
 2679      65756500 
 2680              	.LASF34:
 2681 013b 705F7072 		.ascii	"p_prio\000"
 2681      696F00
 2682              	.LASF124:
 2683 0142 50574D5F 		.ascii	"PWM_READY\000"
 2683      52454144 
 2683      5900
 2684              	.LASF164:
 2685 014c 70776D53 		.ascii	"pwmStart\000"
 2685      74617274 
 2685      00
 2686              	.LASF136:
 2687 0155 43434D52 		.ascii	"CCMR1\000"
 2687      3100
 2688              	.LASF137:
 2689 015b 43434D52 		.ascii	"CCMR2\000"
 2689      3200
 2690              	.LASF141:
 2691 0161 43434D52 		.ascii	"CCMR3\000"
 2691      3300
 2692              	.LASF2:
 2693 0167 7369676E 		.ascii	"signed char\000"
 2693      65642063 
 2693      68617200 
 2694              	.LASF114:
 2695 0173 42535252 		.ascii	"BSRR\000"
 2695      00
 2696              	.LASF144:
 2697 0178 70776D6D 		.ascii	"pwmmode_t\000"
 2697      6F64655F 
 2697      7400
 2698              	.LASF25:
 2699 0182 74736C69 		.ascii	"tslices_t\000"
 2699      6365735F 
 2699      7400
 2700              	.LASF162:
 2701 018c 50574D44 		.ascii	"PWMD5\000"
 2701      3500
 2702              	.LASF127:
 2703 0192 73746174 		.ascii	"state\000"
 2703      6500
 2704              	.LASF131:
 2705 0198 6368616E 		.ascii	"channels\000"
 2705      6E656C73 
 2705      00
 2706              	.LASF10:
 2707 01a1 6C6F6E67 		.ascii	"long int\000"
 2707      20696E74 
 2707      00
 2708              	.LASF158:
 2709 01aa 6573635F 		.ascii	"esc_init\000"
 2709      696E6974 
 2709      00
 2710              	.LASF23:
ARM GAS  /var/folders/m4/4md61f0s1_g0rzfghffqnxvr0000gn/T//ccCjnT2q.s 			page 50


 2711 01b3 74737461 		.ascii	"tstate_t\000"
 2711      74655F74 
 2711      00
 2712              	.LASF36:
 2713 01bc 705F6E65 		.ascii	"p_newer\000"
 2713      77657200 
 2714              	.LASF100:
 2715 01c4 735F7175 		.ascii	"s_queue\000"
 2715      65756500 
 2716              	.LASF8:
 2717 01cc 73686F72 		.ascii	"short unsigned int\000"
 2717      7420756E 
 2717      7369676E 
 2717      65642069 
 2717      6E7400
 2718              	.LASF112:
 2719 01df 4F535045 		.ascii	"OSPEEDR\000"
 2719      45445200 
 2720              	.LASF62:
 2721 01e7 725F6E65 		.ascii	"r_newer\000"
 2721      77657200 
 2722              	.LASF50:
 2723 01ef 705F6D70 		.ascii	"p_mpool\000"
 2723      6F6F6C00 
 2724              	.LASF86:
 2725 01f7 72656761 		.ascii	"regarm_t\000"
 2725      726D5F74 
 2725      00
 2726              	.LASF69:
 2727 0200 76745F70 		.ascii	"vt_prev\000"
 2727      72657600 
 2728              	.LASF82:
 2729 0208 76746C69 		.ascii	"vtlist\000"
 2729      737400
 2730              	.LASF118:
 2731 020f 73746D33 		.ascii	"stm32_gpio_t\000"
 2731      325F6770 
 2731      696F5F74 
 2731      00
 2732              	.LASF13:
 2733 021c 6C6F6E67 		.ascii	"long long int\000"
 2733      206C6F6E 
 2733      6720696E 
 2733      7400
 2734              	.LASF84:
 2735 022a 69646C65 		.ascii	"idle_thread_wa\000"
 2735      5F746872 
 2735      6561645F 
 2735      776100
 2736              	.LASF29:
 2737 0239 636E745F 		.ascii	"cnt_t\000"
 2737      7400
 2738              	.LASF1:
 2739 023f 756E7369 		.ascii	"unsigned int\000"
 2739      676E6564 
 2739      20696E74 
 2739      00
ARM GAS  /var/folders/m4/4md61f0s1_g0rzfghffqnxvr0000gn/T//ccCjnT2q.s 			page 51


 2740              	.LASF68:
 2741 024c 76745F6E 		.ascii	"vt_next\000"
 2741      65787400 
 2742              	.LASF17:
 2743 0254 75696E74 		.ascii	"uint16_t\000"
 2743      31365F74 
 2743      00
 2744              	.LASF43:
 2745 025d 705F7469 		.ascii	"p_time\000"
 2745      6D6500
 2746              	.LASF96:
 2747 0264 77747365 		.ascii	"wtsemp\000"
 2747      6D7000
 2748              	.LASF70:
 2749 026b 76745F64 		.ascii	"vt_delta\000"
 2749      656C7461 
 2749      00
 2750              	.LASF45:
 2751 0274 705F6D73 		.ascii	"p_msgqueue\000"
 2751      67717565 
 2751      756500
 2752              	.LASF53:
 2753 027f 63685F74 		.ascii	"ch_thread\000"
 2753      68726561 
 2753      6400
 2754              	.LASF115:
 2755 0289 4C434B52 		.ascii	"LCKR\000"
 2755      00
 2756              	.LASF101:
 2757 028e 735F636E 		.ascii	"s_cnt\000"
 2757      7400
 2758              	.LASF134:
 2759 0294 534D4352 		.ascii	"SMCR\000"
 2759      00
 2760              	.LASF157:
 2761 0299 6573635F 		.ascii	"esc_set_all\000"
 2761      7365745F 
 2761      616C6C00 
 2762              	.LASF27:
 2763 02a5 6D73675F 		.ascii	"msg_t\000"
 2763      7400
 2764              	.LASF54:
 2765 02ab 63685F74 		.ascii	"ch_threads_list\000"
 2765      68726561 
 2765      64735F6C 
 2765      69737400 
 2766              	.LASF79:
 2767 02bb 63685F73 		.ascii	"ch_system_t\000"
 2767      79737465 
 2767      6D5F7400 
 2768              	.LASF149:
 2769 02c7 63616C6C 		.ascii	"callback\000"
 2769      6261636B 
 2769      00
 2770              	.LASF143:
 2771 02d0 73746D33 		.ascii	"stm32_tim_t\000"
 2771      325F7469 
ARM GAS  /var/folders/m4/4md61f0s1_g0rzfghffqnxvr0000gn/T//ccCjnT2q.s 			page 52


 2771      6D5F7400 
 2772              	.LASF58:
 2773 02dc 63685F72 		.ascii	"ch_ready_list\000"
 2773      65616479 
 2773      5F6C6973 
 2773      7400
 2774              	.LASF28:
 2775 02ea 6576656E 		.ascii	"eventmask_t\000"
 2775      746D6173 
 2775      6B5F7400 
 2776              	.LASF9:
 2777 02f6 5F5F696E 		.ascii	"__int32_t\000"
 2777      7433325F 
 2777      7400
 2778              	.LASF87:
 2779 0300 73746B61 		.ascii	"stkalign_t\000"
 2779      6C69676E 
 2779      5F7400
 2780              	.LASF107:
 2781 030b 6D757465 		.ascii	"mutex_t\000"
 2781      785F7400 
 2782              	.LASF44:
 2783 0313 705F7761 		.ascii	"p_waiting\000"
 2783      6974696E 
 2783      6700
 2784              	.LASF166:
 2785 031d 6573632E 		.ascii	"esc.c\000"
 2785      6300
 2786              	.LASF85:
 2787 0323 73697A65 		.ascii	"sizetype\000"
 2787      74797065 
 2787      00
 2788              	.LASF51:
 2789 032c 74687265 		.ascii	"thread_reference_t\000"
 2789      61645F72 
 2789      65666572 
 2789      656E6365 
 2789      5F7400
 2790              	.LASF120:
 2791 033f 696F6D6F 		.ascii	"iomode_t\000"
 2791      64655F74 
 2791      00
 2792              	.LASF74:
 2793 0348 63685F76 		.ascii	"ch_virtual_timers_list\000"
 2793      69727475 
 2793      616C5F74 
 2793      696D6572 
 2793      735F6C69 
 2794              	.LASF109:
 2795 035f 636C6561 		.ascii	"clear\000"
 2795      7200
 2796              	.LASF95:
 2797 0365 77747472 		.ascii	"wttrp\000"
 2797      7000
 2798              	.LASF155:
 2799 036b 64757479 		.ascii	"duty_cycle\000"
 2799      5F637963 
ARM GAS  /var/folders/m4/4md61f0s1_g0rzfghffqnxvr0000gn/T//ccCjnT2q.s 			page 53


 2799      6C6500
 2800              	.LASF37:
 2801 0376 705F6F6C 		.ascii	"p_older\000"
 2801      64657200 
 2802              	.LASF61:
 2803 037e 725F6374 		.ascii	"r_ctx\000"
 2803      7800
 2804              	.LASF91:
 2805 0384 746D5F63 		.ascii	"tm_calibration_t\000"
 2805      616C6962 
 2805      72617469 
 2805      6F6E5F74 
 2805      00
 2806              	.LASF64:
 2807 0395 725F6375 		.ascii	"r_current\000"
 2807      7272656E 
 2807      7400
 2808              	.LASF63:
 2809 039f 725F6F6C 		.ascii	"r_older\000"
 2809      64657200 
 2810              	.LASF14:
 2811 03a7 5F5F7569 		.ascii	"__uint64_t\000"
 2811      6E743634 
 2811      5F7400
 2812              	.LASF117:
 2813 03b2 41465248 		.ascii	"AFRH\000"
 2813      00
 2814              	.LASF116:
 2815 03b7 4146524C 		.ascii	"AFRL\000"
 2815      00
 2816              	.LASF133:
 2817 03bc 70776D63 		.ascii	"pwmcallback_t\000"
 2817      616C6C62 
 2817      61636B5F 
 2817      7400
 2818              	.LASF24:
 2819 03ca 74726566 		.ascii	"trefs_t\000"
 2819      735F7400 
 2820              	.LASF66:
 2821 03d2 76697274 		.ascii	"virtual_timer_t\000"
 2821      75616C5F 
 2821      74696D65 
 2821      725F7400 
 2822              	.LASF33:
 2823 03e2 705F7072 		.ascii	"p_prev\000"
 2823      657600
 2824              	.LASF26:
 2825 03e9 74707269 		.ascii	"tprio_t\000"
 2825      6F5F7400 
 2826              	.LASF77:
 2827 03f1 63685F73 		.ascii	"ch_system_debug\000"
 2827      79737465 
 2827      6D5F6465 
 2827      62756700 
 2828              	.LASF108:
 2829 0401 5F426F6F 		.ascii	"_Bool\000"
 2829      6C00
ARM GAS  /var/folders/m4/4md61f0s1_g0rzfghffqnxvr0000gn/T//ccCjnT2q.s 			page 54


 2830              	.LASF18:
 2831 0407 696E7433 		.ascii	"int32_t\000"
 2831      325F7400 
 2832              	.LASF5:
 2833 040f 756E7369 		.ascii	"unsigned char\000"
 2833      676E6564 
 2833      20636861 
 2833      7200
 2834              	.LASF48:
 2835 041d 705F6D74 		.ascii	"p_mtxlist\000"
 2835      786C6973 
 2835      7400
 2836              	.LASF6:
 2837 0427 73686F72 		.ascii	"short int\000"
 2837      7420696E 
 2837      7400
 2838              	.LASF39:
 2839 0431 705F7374 		.ascii	"p_state\000"
 2839      61746500 
 2840              	.LASF159:
 2841 0439 636E745F 		.ascii	"cnt_val\000"
 2841      76616C00 
 2842              	.LASF42:
 2843 0441 705F7072 		.ascii	"p_preempt\000"
 2843      65656D70 
 2843      7400
 2844              	.LASF60:
 2845 044b 725F7072 		.ascii	"r_prio\000"
 2845      696F00
 2846              	.LASF98:
 2847 0452 65776D61 		.ascii	"ewmask\000"
 2847      736B00
 2848              	.LASF32:
 2849 0459 705F6E65 		.ascii	"p_next\000"
 2849      787400
 2850              	.LASF146:
 2851 0460 70776D63 		.ascii	"pwmchnmsk_t\000"
 2851      686E6D73 
 2851      6B5F7400 
 2852              	.LASF40:
 2853 046c 705F666C 		.ascii	"p_flags\000"
 2853      61677300 
 2854              	.LASF80:
 2855 0474 63685F73 		.ascii	"ch_system\000"
 2855      79737465 
 2855      6D00
 2856              	.LASF154:
 2857 047e 6368616E 		.ascii	"channel\000"
 2857      6E656C00 
 2858              	.LASF67:
 2859 0486 63685F76 		.ascii	"ch_virtual_timer\000"
 2859      69727475 
 2859      616C5F74 
 2859      696D6572 
 2859      00
 2860              	.LASF99:
 2861 0497 63685F73 		.ascii	"ch_semaphore\000"
ARM GAS  /var/folders/m4/4md61f0s1_g0rzfghffqnxvr0000gn/T//ccCjnT2q.s 			page 55


 2861      656D6170 
 2861      686F7265 
 2861      00
 2862              	.LASF142:
 2863 04a4 43435852 		.ascii	"CCXR\000"
 2863      00
 2864              	.LASF47:
 2865 04a9 705F6570 		.ascii	"p_epending\000"
 2865      656E6469 
 2865      6E6700
 2866              	.LASF19:
 2867 04b4 75696E74 		.ascii	"uint32_t\000"
 2867      33325F74 
 2867      00
 2868              	.LASF97:
 2869 04bd 77746D74 		.ascii	"wtmtxp\000"
 2869      787000
 2870              	.LASF59:
 2871 04c4 725F7175 		.ascii	"r_queue\000"
 2871      65756500 
 2872              	.LASF130:
 2873 04cc 656E6162 		.ascii	"enabled\000"
 2873      6C656400 
 2874              	.LASF12:
 2875 04d4 6C6F6E67 		.ascii	"long unsigned int\000"
 2875      20756E73 
 2875      69676E65 
 2875      6420696E 
 2875      7400
 2876              	.LASF123:
 2877 04e6 50574D5F 		.ascii	"PWM_STOP\000"
 2877      53544F50 
 2877      00
 2878              	.LASF106:
 2879 04ef 63686172 		.ascii	"char\000"
 2879      00
 2880              	.LASF7:
 2881 04f4 5F5F7569 		.ascii	"__uint16_t\000"
 2881      6E743136 
 2881      5F7400
 2882              	.LASF148:
 2883 04ff 6D6F6465 		.ascii	"mode\000"
 2883      00
 2884              	.LASF128:
 2885 0504 636F6E66 		.ascii	"config\000"
 2885      696700
 2886              	.LASF140:
 2887 050b 444D4152 		.ascii	"DMAR\000"
 2887      00
 2888              	.LASF31:
 2889 0510 74687265 		.ascii	"thread_t\000"
 2889      61645F74 
 2889      00
 2890              	.LASF138:
 2891 0519 43434552 		.ascii	"CCER\000"
 2891      00
 2892              	.LASF105:
ARM GAS  /var/folders/m4/4md61f0s1_g0rzfghffqnxvr0000gn/T//ccCjnT2q.s 			page 56


 2893 051e 6D5F6E65 		.ascii	"m_next\000"
 2893      787400
 2894              	.LASF30:
 2895 0525 73797374 		.ascii	"systime_t\000"
 2895      696D655F 
 2895      7400
 2896              	.LASF49:
 2897 052f 705F7265 		.ascii	"p_realprio\000"
 2897      616C7072 
 2897      696F00
 2898              	.LASF65:
 2899 053a 76746675 		.ascii	"vtfunc_t\000"
 2899      6E635F74 
 2899      00
 2900              	.LASF11:
 2901 0543 5F5F7569 		.ascii	"__uint32_t\000"
 2901      6E743332 
 2901      5F7400
 2902              	.LASF165:
 2903 054e 474E5520 		.ascii	"GNU C 4.9.3 20150529 (release) [ARM/embedded-4_9-br"
 2903      4320342E 
 2903      392E3320 
 2903      32303135 
 2903      30353239 
 2904 0581 616E6368 		.ascii	"anch revision 224288] -mcpu=cortex-m4 -mfloat-abi=h"
 2904      20726576 
 2904      6973696F 
 2904      6E203232 
 2904      34323838 
 2905 05b4 61726420 		.ascii	"ard -mfpu=fpv4-sp-d16 -mno-thumb-interwork -mthumb "
 2905      2D6D6670 
 2905      753D6670 
 2905      76342D73 
 2905      702D6431 
 2906 05e7 2D676764 		.ascii	"-ggdb -O2 -std=gnu99 -fomit-frame-pointer -falign-f"
 2906      62202D4F 
 2906      32202D73 
 2906      74643D67 
 2906      6E753939 
 2907 061a 756E6374 		.ascii	"unctions=16 -ffunction-sections -fdata-sections -fn"
 2907      696F6E73 
 2907      3D313620 
 2907      2D666675 
 2907      6E637469 
 2908 064d 6F2D636F 		.ascii	"o-common -fsingle-precision-constant\000"
 2908      6D6D6F6E 
 2908      202D6673 
 2908      696E676C 
 2908      652D7072 
 2909              	.LASF78:
 2910 0672 70616E69 		.ascii	"panic_msg\000"
 2910      635F6D73 
 2910      6700
 2911              	.LASF90:
 2912 067c 6F666673 		.ascii	"offset\000"
 2912      657400
 2913              	.LASF121:
ARM GAS  /var/folders/m4/4md61f0s1_g0rzfghffqnxvr0000gn/T//ccCjnT2q.s 			page 57


 2914 0683 696F706F 		.ascii	"ioportid_t\000"
 2914      72746964 
 2914      5F7400
 2915              	.LASF88:
 2916 068e 636F6E74 		.ascii	"context\000"
 2916      65787400 
 2917              	.LASF168:
 2918 0696 5F70616C 		.ascii	"_pal_lld_setgroupmode\000"
 2918      5F6C6C64 
 2918      5F736574 
 2918      67726F75 
 2918      706D6F64 
 2919              	.LASF150:
 2920 06ac 50574D43 		.ascii	"PWMChannelConfig\000"
 2920      68616E6E 
 2920      656C436F 
 2920      6E666967 
 2920      00
 2921              	.LASF21:
 2922 06bd 7274636E 		.ascii	"rtcnt_t\000"
 2922      745F7400 
 2923              	.LASF160:
 2924 06c5 70776D63 		.ascii	"pwmcfg\000"
 2924      666700
 2925              	.LASF72:
 2926 06cc 76745F70 		.ascii	"vt_par\000"
 2926      617200
 2927              	.LASF153:
 2928 06d3 50574D43 		.ascii	"PWMConfig\000"
 2928      6F6E6669 
 2928      6700
 2929              	.LASF55:
 2930 06dd 74687265 		.ascii	"threads_queue_t\000"
 2930      6164735F 
 2930      71756575 
 2930      655F7400 
 2931              	.LASF102:
 2932 06ed 63685F6D 		.ascii	"ch_mutex\000"
 2932      75746578 
 2932      00
 2933              	.LASF41:
 2934 06f6 705F7265 		.ascii	"p_refs\000"
 2934      667300
 2935              	.LASF81:
 2936 06fd 726C6973 		.ascii	"rlist\000"
 2936      7400
 2937              	.LASF16:
 2938 0703 75696E74 		.ascii	"uint8_t\000"
 2938      385F7400 
 2939              	.LASF126:
 2940 070b 50574D44 		.ascii	"PWMDriver\000"
 2940      72697665 
 2940      7200
 2941              	.LASF125:
 2942 0715 70776D73 		.ascii	"pwmstate_t\000"
 2942      74617465 
 2942      5F7400
ARM GAS  /var/folders/m4/4md61f0s1_g0rzfghffqnxvr0000gn/T//ccCjnT2q.s 			page 58


 2943              	.LASF147:
 2944 0720 70776D63 		.ascii	"pwmcnt_t\000"
 2944      6E745F74 
 2944      00
 2945              	.LASF94:
 2946 0729 77746F62 		.ascii	"wtobjp\000"
 2946      6A7000
 2947              	.LASF38:
 2948 0730 705F6E61 		.ascii	"p_name\000"
 2948      6D6500
 2949              	.LASF163:
 2950 0737 70776D45 		.ascii	"pwmEnableChannel\000"
 2950      6E61626C 
 2950      65436861 
 2950      6E6E656C 
 2950      00
 2951              	.LASF75:
 2952 0748 76745F73 		.ascii	"vt_systime\000"
 2952      79737469 
 2952      6D6500
 2953              	.LASF22:
 2954 0753 746D6F64 		.ascii	"tmode_t\000"
 2954      655F7400 
 2955              	.LASF132:
 2956 075b 636C6F63 		.ascii	"clock\000"
 2956      6B00
 2957              	.LASF46:
 2958 0761 705F6D73 		.ascii	"p_msg\000"
 2958      6700
 2959              	.LASF122:
 2960 0767 50574D5F 		.ascii	"PWM_UNINIT\000"
 2960      554E494E 
 2960      495400
 2961              	.LASF104:
 2962 0772 6D5F6F77 		.ascii	"m_owner\000"
 2962      6E657200 
 2963              	.LASF0:
 2964 077a 646F7562 		.ascii	"double\000"
 2964      6C6500
 2965              	.LASF35:
 2966 0781 705F6374 		.ascii	"p_ctx\000"
 2966      7800
 2967              	.LASF71:
 2968 0787 76745F66 		.ascii	"vt_func\000"
 2968      756E6300 
 2969              	.LASF152:
 2970 078f 64696572 		.ascii	"dier\000"
 2970      00
 2971              		.ident	"GCC: (GNU Tools for ARM Embedded Processors) 4.9.3 20150529 (release) [ARM/embedded-4_9-br
ARM GAS  /var/folders/m4/4md61f0s1_g0rzfghffqnxvr0000gn/T//ccCjnT2q.s 			page 59


DEFINED SYMBOLS
                            *ABS*:0000000000000000 esc.c
/var/folders/m4/4md61f0s1_g0rzfghffqnxvr0000gn/T//ccCjnT2q.s:24     .text.esc_set:0000000000000000 $t
/var/folders/m4/4md61f0s1_g0rzfghffqnxvr0000gn/T//ccCjnT2q.s:30     .text.esc_set:0000000000000000 esc_set
/var/folders/m4/4md61f0s1_g0rzfghffqnxvr0000gn/T//ccCjnT2q.s:138    .text.esc_set:0000000000000078 $d
/var/folders/m4/4md61f0s1_g0rzfghffqnxvr0000gn/T//ccCjnT2q.s:147    .text.esc_set_all:0000000000000000 $t
/var/folders/m4/4md61f0s1_g0rzfghffqnxvr0000gn/T//ccCjnT2q.s:153    .text.esc_set_all:0000000000000000 esc_set_all
/var/folders/m4/4md61f0s1_g0rzfghffqnxvr0000gn/T//ccCjnT2q.s:169    .text.esc_init:0000000000000000 $t
/var/folders/m4/4md61f0s1_g0rzfghffqnxvr0000gn/T//ccCjnT2q.s:175    .text.esc_init:0000000000000000 esc_init
/var/folders/m4/4md61f0s1_g0rzfghffqnxvr0000gn/T//ccCjnT2q.s:229    .text.esc_init:0000000000000048 $d
/var/folders/m4/4md61f0s1_g0rzfghffqnxvr0000gn/T//ccCjnT2q.s:236    .data.pwmcfg:0000000000000000 $d
/var/folders/m4/4md61f0s1_g0rzfghffqnxvr0000gn/T//ccCjnT2q.s:240    .data.pwmcfg:0000000000000000 pwmcfg
                     .debug_frame:0000000000000010 $d

UNDEFINED SYMBOLS
__aeabi_dmul
__aeabi_ddiv
__aeabi_d2uiz
pwmEnableChannel
PWMD5
pwmStart
_pal_lld_setgroupmode
