ARM GAS  /var/folders/m4/4md61f0s1_g0rzfghffqnxvr0000gn/T//ccikS1yW.s 			page 1


   1              		.syntax unified
   2              		.cpu cortex-m4
   3              		.eabi_attribute 27, 1
   4              		.eabi_attribute 28, 1
   5              		.fpu fpv4-sp-d16
   6              		.eabi_attribute 20, 1
   7              		.eabi_attribute 21, 1
   8              		.eabi_attribute 23, 3
   9              		.eabi_attribute 24, 1
  10              		.eabi_attribute 25, 1
  11              		.eabi_attribute 26, 1
  12              		.eabi_attribute 30, 2
  13              		.eabi_attribute 34, 1
  14              		.eabi_attribute 18, 4
  15              		.thumb
  16              		.file	"ext.c"
  17              		.text
  18              	.Ltext0:
  19              		.cfi_sections	.debug_frame
  20              		.section	.text.extInit,"ax",%progbits
  21              		.align	2
  22              		.p2align 4,,15
  23              		.global	extInit
  24              		.thumb
  25              		.thumb_func
  26              		.type	extInit, %function
  27              	extInit:
  28              	.LFB268:
  29              		.file 1 "ChibiOS_16.1.4/os/hal/src/ext.c"
  30              		.loc 1 56 0
  31              		.cfi_startproc
  32              		@ args = 0, pretend = 0, frame = 0
  33              		@ frame_needed = 0, uses_anonymous_args = 0
  34              		@ link register save eliminated.
  35              		.loc 1 58 0
  36 0000 FFF7FEBF 		b	ext_lld_init
  37              	.LVL0:
  38              		.cfi_endproc
  39              	.LFE268:
  40              		.size	extInit, .-extInit
  41              		.section	.text.extObjectInit,"ax",%progbits
  42              		.align	2
  43              		.p2align 4,,15
  44              		.global	extObjectInit
  45              		.thumb
  46              		.thumb_func
  47              		.type	extObjectInit, %function
  48              	extObjectInit:
  49              	.LFB269:
  50              		.loc 1 68 0
  51              		.cfi_startproc
  52              		@ args = 0, pretend = 0, frame = 0
  53              		@ frame_needed = 0, uses_anonymous_args = 0
  54              		@ link register save eliminated.
  55              	.LVL1:
  56              		.loc 1 70 0
  57 0000 0122     		movs	r2, #1
ARM GAS  /var/folders/m4/4md61f0s1_g0rzfghffqnxvr0000gn/T//ccikS1yW.s 			page 2


  58              		.loc 1 71 0
  59 0002 0023     		movs	r3, #0
  60              		.loc 1 70 0
  61 0004 0270     		strb	r2, [r0]
  62              		.loc 1 71 0
  63 0006 4360     		str	r3, [r0, #4]
  64 0008 7047     		bx	lr
  65              		.cfi_endproc
  66              	.LFE269:
  67              		.size	extObjectInit, .-extObjectInit
  68 000a 00BF     		.section	.text.extStart,"ax",%progbits
  69              		.align	2
  70              		.p2align 4,,15
  71              		.global	extStart
  72              		.thumb
  73              		.thumb_func
  74              		.type	extStart, %function
  75              	extStart:
  76              	.LFB270:
  77              		.loc 1 84 0
  78              		.cfi_startproc
  79              		@ args = 0, pretend = 0, frame = 0
  80              		@ frame_needed = 0, uses_anonymous_args = 0
  81              	.LVL2:
  82 0000 10B5     		push	{r4, lr}
  83              		.cfi_def_cfa_offset 8
  84              		.cfi_offset 4, -8
  85              		.cfi_offset 14, -4
  86              	.LBB76:
  87              	.LBB77:
  88              	.LBB78:
  89              	.LBB79:
  90              	.LBB80:
  91              		.file 2 "ChibiOS_16.1.4/os/ext/CMSIS/include/core_cmFunc.h"
  92              		.loc 2 548 0
  93 0002 2023     		movs	r3, #32
  94              	.LBE80:
  95              	.LBE79:
  96              	.LBE78:
  97              	.LBE77:
  98              	.LBE76:
  99              		.loc 1 84 0
 100 0004 0446     		mov	r4, r0
 101              	.LBB85:
 102              	.LBB84:
 103              	.LBB83:
 104              	.LBB82:
 105              	.LBB81:
 106              		.loc 2 548 0
 107              	@ 548 "ChibiOS_16.1.4/os/ext/CMSIS/include/core_cmFunc.h" 1
 108 0006 83F31188 		MSR basepri, r3
 109              	@ 0 "" 2
 110              		.thumb
 111              	.LBE81:
 112              	.LBE82:
 113              	.LBE83:
 114              	.LBE84:
ARM GAS  /var/folders/m4/4md61f0s1_g0rzfghffqnxvr0000gn/T//ccikS1yW.s 			page 3


 115              	.LBE85:
 116              		.loc 1 91 0
 117 000a 4160     		str	r1, [r0, #4]
 118              		.loc 1 92 0
 119 000c FFF7FEFF 		bl	ext_lld_start
 120              	.LVL3:
 121              		.loc 1 93 0
 122 0010 0223     		movs	r3, #2
 123 0012 2370     		strb	r3, [r4]
 124              	.LVL4:
 125              	.LBB86:
 126              	.LBB87:
 127              	.LBB88:
 128              	.LBB89:
 129              	.LBB90:
 130              	.LBB91:
 131              		.loc 2 548 0
 132 0014 0023     		movs	r3, #0
 133              	@ 548 "ChibiOS_16.1.4/os/ext/CMSIS/include/core_cmFunc.h" 1
 134 0016 83F31188 		MSR basepri, r3
 135              	@ 0 "" 2
 136              		.thumb
 137 001a 10BD     		pop	{r4, pc}
 138              	.LBE91:
 139              	.LBE90:
 140              	.LBE89:
 141              	.LBE88:
 142              	.LBE87:
 143              	.LBE86:
 144              		.cfi_endproc
 145              	.LFE270:
 146              		.size	extStart, .-extStart
 147              		.section	.text.extStop,"ax",%progbits
 148              		.align	2
 149              		.p2align 4,,15
 150              		.global	extStop
 151              		.thumb
 152              		.thumb_func
 153              		.type	extStop, %function
 154              	extStop:
 155              	.LFB271:
 156              		.loc 1 104 0
 157              		.cfi_startproc
 158              		@ args = 0, pretend = 0, frame = 0
 159              		@ frame_needed = 0, uses_anonymous_args = 0
 160              	.LVL5:
 161 0000 10B5     		push	{r4, lr}
 162              		.cfi_def_cfa_offset 8
 163              		.cfi_offset 4, -8
 164              		.cfi_offset 14, -4
 165              	.LBB92:
 166              	.LBB93:
 167              	.LBB94:
 168              	.LBB95:
 169              	.LBB96:
 170              		.loc 2 548 0
 171 0002 2023     		movs	r3, #32
ARM GAS  /var/folders/m4/4md61f0s1_g0rzfghffqnxvr0000gn/T//ccikS1yW.s 			page 4


 172              	.LBE96:
 173              	.LBE95:
 174              	.LBE94:
 175              	.LBE93:
 176              	.LBE92:
 177              		.loc 1 104 0
 178 0004 0446     		mov	r4, r0
 179              	.LBB101:
 180              	.LBB100:
 181              	.LBB99:
 182              	.LBB98:
 183              	.LBB97:
 184              		.loc 2 548 0
 185              	@ 548 "ChibiOS_16.1.4/os/ext/CMSIS/include/core_cmFunc.h" 1
 186 0006 83F31188 		MSR basepri, r3
 187              	@ 0 "" 2
 188              		.thumb
 189              	.LBE97:
 190              	.LBE98:
 191              	.LBE99:
 192              	.LBE100:
 193              	.LBE101:
 194              		.loc 1 111 0
 195 000a FFF7FEFF 		bl	ext_lld_stop
 196              	.LVL6:
 197              		.loc 1 112 0
 198 000e 0123     		movs	r3, #1
 199 0010 2370     		strb	r3, [r4]
 200              	.LVL7:
 201              	.LBB102:
 202              	.LBB103:
 203              	.LBB104:
 204              	.LBB105:
 205              	.LBB106:
 206              	.LBB107:
 207              		.loc 2 548 0
 208 0012 0023     		movs	r3, #0
 209              	@ 548 "ChibiOS_16.1.4/os/ext/CMSIS/include/core_cmFunc.h" 1
 210 0014 83F31188 		MSR basepri, r3
 211              	@ 0 "" 2
 212              		.thumb
 213 0018 10BD     		pop	{r4, pc}
 214              	.LBE107:
 215              	.LBE106:
 216              	.LBE105:
 217              	.LBE104:
 218              	.LBE103:
 219              	.LBE102:
 220              		.cfi_endproc
 221              	.LFE271:
 222              		.size	extStop, .-extStop
 223 001a 00BF     		.section	.text.extChannelEnable,"ax",%progbits
 224              		.align	2
 225              		.p2align 4,,15
 226              		.global	extChannelEnable
 227              		.thumb
 228              		.thumb_func
ARM GAS  /var/folders/m4/4md61f0s1_g0rzfghffqnxvr0000gn/T//ccikS1yW.s 			page 5


 229              		.type	extChannelEnable, %function
 230              	extChannelEnable:
 231              	.LFB272:
 232              		.loc 1 125 0
 233              		.cfi_startproc
 234              		@ args = 0, pretend = 0, frame = 0
 235              		@ frame_needed = 0, uses_anonymous_args = 0
 236              	.LVL8:
 237 0000 08B5     		push	{r3, lr}
 238              		.cfi_def_cfa_offset 8
 239              		.cfi_offset 3, -8
 240              		.cfi_offset 14, -4
 241              	.LBB108:
 242              	.LBB109:
 243              	.LBB110:
 244              	.LBB111:
 245              	.LBB112:
 246              		.loc 2 548 0
 247 0002 2023     		movs	r3, #32
 248              	@ 548 "ChibiOS_16.1.4/os/ext/CMSIS/include/core_cmFunc.h" 1
 249 0004 83F31188 		MSR basepri, r3
 250              	@ 0 "" 2
 251              		.thumb
 252              	.LBE112:
 253              	.LBE111:
 254              	.LBE110:
 255              	.LBE109:
 256              	.LBE108:
 257              		.loc 1 134 0
 258 0008 FFF7FEFF 		bl	ext_lld_channel_enable
 259              	.LVL9:
 260              	.LBB113:
 261              	.LBB114:
 262              	.LBB115:
 263              	.LBB116:
 264              	.LBB117:
 265              	.LBB118:
 266              		.loc 2 548 0
 267 000c 0023     		movs	r3, #0
 268              	@ 548 "ChibiOS_16.1.4/os/ext/CMSIS/include/core_cmFunc.h" 1
 269 000e 83F31188 		MSR basepri, r3
 270              	@ 0 "" 2
 271              		.thumb
 272 0012 08BD     		pop	{r3, pc}
 273              	.LBE118:
 274              	.LBE117:
 275              	.LBE116:
 276              	.LBE115:
 277              	.LBE114:
 278              	.LBE113:
 279              		.cfi_endproc
 280              	.LFE272:
 281              		.size	extChannelEnable, .-extChannelEnable
 282              		.section	.text.extChannelDisable,"ax",%progbits
 283              		.align	2
 284              		.p2align 4,,15
 285              		.global	extChannelDisable
ARM GAS  /var/folders/m4/4md61f0s1_g0rzfghffqnxvr0000gn/T//ccikS1yW.s 			page 6


 286              		.thumb
 287              		.thumb_func
 288              		.type	extChannelDisable, %function
 289              	extChannelDisable:
 290              	.LFB273:
 291              		.loc 1 147 0
 292              		.cfi_startproc
 293              		@ args = 0, pretend = 0, frame = 0
 294              		@ frame_needed = 0, uses_anonymous_args = 0
 295              	.LVL10:
 296 0000 08B5     		push	{r3, lr}
 297              		.cfi_def_cfa_offset 8
 298              		.cfi_offset 3, -8
 299              		.cfi_offset 14, -4
 300              	.LBB119:
 301              	.LBB120:
 302              	.LBB121:
 303              	.LBB122:
 304              	.LBB123:
 305              		.loc 2 548 0
 306 0002 2023     		movs	r3, #32
 307              	@ 548 "ChibiOS_16.1.4/os/ext/CMSIS/include/core_cmFunc.h" 1
 308 0004 83F31188 		MSR basepri, r3
 309              	@ 0 "" 2
 310              		.thumb
 311              	.LBE123:
 312              	.LBE122:
 313              	.LBE121:
 314              	.LBE120:
 315              	.LBE119:
 316              		.loc 1 156 0
 317 0008 FFF7FEFF 		bl	ext_lld_channel_disable
 318              	.LVL11:
 319              	.LBB124:
 320              	.LBB125:
 321              	.LBB126:
 322              	.LBB127:
 323              	.LBB128:
 324              	.LBB129:
 325              		.loc 2 548 0
 326 000c 0023     		movs	r3, #0
 327              	@ 548 "ChibiOS_16.1.4/os/ext/CMSIS/include/core_cmFunc.h" 1
 328 000e 83F31188 		MSR basepri, r3
 329              	@ 0 "" 2
 330              		.thumb
 331 0012 08BD     		pop	{r3, pc}
 332              	.LBE129:
 333              	.LBE128:
 334              	.LBE127:
 335              	.LBE126:
 336              	.LBE125:
 337              	.LBE124:
 338              		.cfi_endproc
 339              	.LFE273:
 340              		.size	extChannelDisable, .-extChannelDisable
 341              		.section	.text.extSetChannelModeI,"ax",%progbits
 342              		.align	2
ARM GAS  /var/folders/m4/4md61f0s1_g0rzfghffqnxvr0000gn/T//ccikS1yW.s 			page 7


 343              		.p2align 4,,15
 344              		.global	extSetChannelModeI
 345              		.thumb
 346              		.thumb_func
 347              		.type	extSetChannelModeI, %function
 348              	extSetChannelModeI:
 349              	.LFB274:
 350              		.loc 1 179 0
 351              		.cfi_startproc
 352              		@ args = 0, pretend = 0, frame = 0
 353              		@ frame_needed = 0, uses_anonymous_args = 0
 354              		@ link register save eliminated.
 355              	.LVL12:
 356 0000 30B4     		push	{r4, r5}
 357              		.cfi_def_cfa_offset 8
 358              		.cfi_offset 4, -8
 359              		.cfi_offset 5, -4
 360              		.loc 1 196 0
 361 0002 4368     		ldr	r3, [r0, #4]
 362              		.loc 1 179 0
 363 0004 0C46     		mov	r4, r1
 364              	.LVL13:
 365 0006 0546     		mov	r5, r0
 366              		.loc 1 196 0
 367 0008 92E80300 		ldmia	r2, {r0, r1}
 368              	.LVL14:
 369 000c 03EBC403 		add	r3, r3, r4, lsl #3
 370              	.LVL15:
 371 0010 83E80300 		stmia	r3, {r0, r1}
 372              		.loc 1 197 0
 373 0014 2846     		mov	r0, r5
 374 0016 2146     		mov	r1, r4
 375              		.loc 1 198 0
 376 0018 30BC     		pop	{r4, r5}
 377              		.cfi_restore 5
 378              		.cfi_restore 4
 379              		.cfi_def_cfa_offset 0
 380              	.LVL16:
 381              		.loc 1 197 0
 382 001a FFF7FEBF 		b	ext_lld_channel_enable
 383              	.LVL17:
 384              		.cfi_endproc
 385              	.LFE274:
 386              		.size	extSetChannelModeI, .-extSetChannelModeI
 387 001e 00BF     		.text
 388              	.Letext0:
 389              		.file 3 "/usr/local/Cellar/gcc-arm-none-eabi-49/20150609/arm-none-eabi/include/machine/_default_ty
 390              		.file 4 "/usr/local/Cellar/gcc-arm-none-eabi-49/20150609/arm-none-eabi/include/sys/_stdint.h"
 391              		.file 5 "ChibiOS_16.1.4/os/rt/ports/ARMCMx/compilers/GCC/chtypes.h"
 392              		.file 6 "ChibiOS_16.1.4/os/rt/include/chsystypes.h"
 393              		.file 7 "ChibiOS_16.1.4/os/rt/include/chschd.h"
 394              		.file 8 "ChibiOS_16.1.4/os/rt/ports/ARMCMx/chcore.h"
 395              		.file 9 "ChibiOS_16.1.4/os/rt/ports/ARMCMx/chcore_v7m.h"
 396              		.file 10 "ChibiOS_16.1.4/os/rt/include/chtm.h"
 397              		.file 11 "ChibiOS_16.1.4/os/rt/include/chsem.h"
 398              		.file 12 "ChibiOS_16.1.4/os/rt/include/chmtx.h"
 399              		.file 13 "ChibiOS_16.1.4/os/hal/include/ext.h"
ARM GAS  /var/folders/m4/4md61f0s1_g0rzfghffqnxvr0000gn/T//ccikS1yW.s 			page 8


 400              		.file 14 "ChibiOS_16.1.4/os/hal/ports/STM32/LLD/EXTIv1/ext_lld.h"
 401              		.file 15 "ChibiOS_16.1.4/os/rt/include/chsys.h"
 402              		.file 16 "ChibiOS_16.1.4/os/hal/osal/rt/osal.h"
 403              		.file 17 "ChibiOS_16.1.4/os/ext/CMSIS/include/core_cm4.h"