ARM GAS  /var/folders/m4/4md61f0s1_g0rzfghffqnxvr0000gn/T//ccikS1yW.s 			page 1


   1              		.syntax unified
   2              		.cpu cortex-m4
   3              		.eabi_attribute 27, 1
   4              		.eabi_attribute 28, 1
   5              		.fpu fpv4-sp-d16
   6              		.eabi_attribute 20, 1
   7              		.eabi_attribute 21, 1
   8              		.eabi_attribute 23, 3
   9              		.eabi_attribute 24, 1
  10              		.eabi_attribute 25, 1
  11              		.eabi_attribute 26, 1
  12              		.eabi_attribute 30, 2
  13              		.eabi_attribute 34, 1
  14              		.eabi_attribute 18, 4
  15              		.thumb
  16              		.file	"ext.c"
  17              		.text
  18              	.Ltext0:
  19              		.cfi_sections	.debug_frame
  20              		.section	.text.extInit,"ax",%progbits
  21              		.align	2
  22              		.p2align 4,,15
  23              		.global	extInit
  24              		.thumb
  25              		.thumb_func
  26              		.type	extInit, %function
  27              	extInit:
  28              	.LFB268:
  29              		.file 1 "ChibiOS_16.1.4/os/hal/src/ext.c"
  30              		.loc 1 56 0
  31              		.cfi_startproc
  32              		@ args = 0, pretend = 0, frame = 0
  33              		@ frame_needed = 0, uses_anonymous_args = 0
  34              		@ link register save eliminated.
  35              		.loc 1 58 0
  36 0000 FFF7FEBF 		b	ext_lld_init
  37              	.LVL0:
  38              		.cfi_endproc
  39              	.LFE268:
  40              		.size	extInit, .-extInit
  41              		.section	.text.extObjectInit,"ax",%progbits
  42              		.align	2
  43              		.p2align 4,,15
  44              		.global	extObjectInit
  45              		.thumb
  46              		.thumb_func
  47              		.type	extObjectInit, %function
  48              	extObjectInit:
  49              	.LFB269:
  50              		.loc 1 68 0
  51              		.cfi_startproc
  52              		@ args = 0, pretend = 0, frame = 0
  53              		@ frame_needed = 0, uses_anonymous_args = 0
  54              		@ link register save eliminated.
  55              	.LVL1:
  56              		.loc 1 70 0
  57 0000 0122     		movs	r2, #1
ARM GAS  /var/folders/m4/4md61f0s1_g0rzfghffqnxvr0000gn/T//ccikS1yW.s 			page 2


  58              		.loc 1 71 0
  59 0002 0023     		movs	r3, #0
  60              		.loc 1 70 0
  61 0004 0270     		strb	r2, [r0]
  62              		.loc 1 71 0
  63 0006 4360     		str	r3, [r0, #4]
  64 0008 7047     		bx	lr
  65              		.cfi_endproc
  66              	.LFE269:
  67              		.size	extObjectInit, .-extObjectInit
  68 000a 00BF     		.section	.text.extStart,"ax",%progbits
  69              		.align	2
  70              		.p2align 4,,15
  71              		.global	extStart
  72              		.thumb
  73              		.thumb_func
  74              		.type	extStart, %function
  75              	extStart:
  76              	.LFB270:
  77              		.loc 1 84 0
  78              		.cfi_startproc
  79              		@ args = 0, pretend = 0, frame = 0
  80              		@ frame_needed = 0, uses_anonymous_args = 0
  81              	.LVL2:
  82 0000 10B5     		push	{r4, lr}
  83              		.cfi_def_cfa_offset 8
  84              		.cfi_offset 4, -8
  85              		.cfi_offset 14, -4
  86              	.LBB76:
  87              	.LBB77:
  88              	.LBB78:
  89              	.LBB79:
  90              	.LBB80:
  91              		.file 2 "ChibiOS_16.1.4/os/ext/CMSIS/include/core_cmFunc.h"
  92              		.loc 2 548 0
  93 0002 2023     		movs	r3, #32
  94              	.LBE80:
  95              	.LBE79:
  96              	.LBE78:
  97              	.LBE77:
  98              	.LBE76:
  99              		.loc 1 84 0
 100 0004 0446     		mov	r4, r0
 101              	.LBB85:
 102              	.LBB84:
 103              	.LBB83:
 104              	.LBB82:
 105              	.LBB81:
 106              		.loc 2 548 0
 107              	@ 548 "ChibiOS_16.1.4/os/ext/CMSIS/include/core_cmFunc.h" 1
 108 0006 83F31188 		MSR basepri, r3
 109              	@ 0 "" 2
 110              		.thumb
 111              	.LBE81:
 112              	.LBE82:
 113              	.LBE83:
 114              	.LBE84:
ARM GAS  /var/folders/m4/4md61f0s1_g0rzfghffqnxvr0000gn/T//ccikS1yW.s 			page 3


 115              	.LBE85:
 116              		.loc 1 91 0
 117 000a 4160     		str	r1, [r0, #4]
 118              		.loc 1 92 0
 119 000c FFF7FEFF 		bl	ext_lld_start
 120              	.LVL3:
 121              		.loc 1 93 0
 122 0010 0223     		movs	r3, #2
 123 0012 2370     		strb	r3, [r4]
 124              	.LVL4:
 125              	.LBB86:
 126              	.LBB87:
 127              	.LBB88:
 128              	.LBB89:
 129              	.LBB90:
 130              	.LBB91:
 131              		.loc 2 548 0
 132 0014 0023     		movs	r3, #0
 133              	@ 548 "ChibiOS_16.1.4/os/ext/CMSIS/include/core_cmFunc.h" 1
 134 0016 83F31188 		MSR basepri, r3
 135              	@ 0 "" 2
 136              		.thumb
 137 001a 10BD     		pop	{r4, pc}
 138              	.LBE91:
 139              	.LBE90:
 140              	.LBE89:
 141              	.LBE88:
 142              	.LBE87:
 143              	.LBE86:
 144              		.cfi_endproc
 145              	.LFE270:
 146              		.size	extStart, .-extStart
 147              		.section	.text.extStop,"ax",%progbits
 148              		.align	2
 149              		.p2align 4,,15
 150              		.global	extStop
 151              		.thumb
 152              		.thumb_func
 153              		.type	extStop, %function
 154              	extStop:
 155              	.LFB271:
 156              		.loc 1 104 0
 157              		.cfi_startproc
 158              		@ args = 0, pretend = 0, frame = 0
 159              		@ frame_needed = 0, uses_anonymous_args = 0
 160              	.LVL5:
 161 0000 10B5     		push	{r4, lr}
 162              		.cfi_def_cfa_offset 8
 163              		.cfi_offset 4, -8
 164              		.cfi_offset 14, -4
 165              	.LBB92:
 166              	.LBB93:
 167              	.LBB94:
 168              	.LBB95:
 169              	.LBB96:
 170              		.loc 2 548 0
 171 0002 2023     		movs	r3, #32
ARM GAS  /var/folders/m4/4md61f0s1_g0rzfghffqnxvr0000gn/T//ccikS1yW.s 			page 4


 172              	.LBE96:
 173              	.LBE95:
 174              	.LBE94:
 175              	.LBE93:
 176              	.LBE92:
 177              		.loc 1 104 0
 178 0004 0446     		mov	r4, r0
 179              	.LBB101:
 180              	.LBB100:
 181              	.LBB99:
 182              	.LBB98:
 183              	.LBB97:
 184              		.loc 2 548 0
 185              	@ 548 "ChibiOS_16.1.4/os/ext/CMSIS/include/core_cmFunc.h" 1
 186 0006 83F31188 		MSR basepri, r3
 187              	@ 0 "" 2
 188              		.thumb
 189              	.LBE97:
 190              	.LBE98:
 191              	.LBE99:
 192              	.LBE100:
 193              	.LBE101:
 194              		.loc 1 111 0
 195 000a FFF7FEFF 		bl	ext_lld_stop
 196              	.LVL6:
 197              		.loc 1 112 0
 198 000e 0123     		movs	r3, #1
 199 0010 2370     		strb	r3, [r4]
 200              	.LVL7:
 201              	.LBB102:
 202              	.LBB103:
 203              	.LBB104:
 204              	.LBB105:
 205              	.LBB106:
 206              	.LBB107:
 207              		.loc 2 548 0
 208 0012 0023     		movs	r3, #0
 209              	@ 548 "ChibiOS_16.1.4/os/ext/CMSIS/include/core_cmFunc.h" 1
 210 0014 83F31188 		MSR basepri, r3
 211              	@ 0 "" 2
 212              		.thumb
 213 0018 10BD     		pop	{r4, pc}
 214              	.LBE107:
 215              	.LBE106:
 216              	.LBE105:
 217              	.LBE104:
 218              	.LBE103:
 219              	.LBE102:
 220              		.cfi_endproc
 221              	.LFE271:
 222              		.size	extStop, .-extStop
 223 001a 00BF     		.section	.text.extChannelEnable,"ax",%progbits
 224              		.align	2
 225              		.p2align 4,,15
 226              		.global	extChannelEnable
 227              		.thumb
 228              		.thumb_func
ARM GAS  /var/folders/m4/4md61f0s1_g0rzfghffqnxvr0000gn/T//ccikS1yW.s 			page 5


 229              		.type	extChannelEnable, %function
 230              	extChannelEnable:
 231              	.LFB272:
 232              		.loc 1 125 0
 233              		.cfi_startproc
 234              		@ args = 0, pretend = 0, frame = 0
 235              		@ frame_needed = 0, uses_anonymous_args = 0
 236              	.LVL8:
 237 0000 08B5     		push	{r3, lr}
 238              		.cfi_def_cfa_offset 8
 239              		.cfi_offset 3, -8
 240              		.cfi_offset 14, -4
 241              	.LBB108:
 242              	.LBB109:
 243              	.LBB110:
 244              	.LBB111:
 245              	.LBB112:
 246              		.loc 2 548 0
 247 0002 2023     		movs	r3, #32
 248              	@ 548 "ChibiOS_16.1.4/os/ext/CMSIS/include/core_cmFunc.h" 1
 249 0004 83F31188 		MSR basepri, r3
 250              	@ 0 "" 2
 251              		.thumb
 252              	.LBE112:
 253              	.LBE111:
 254              	.LBE110:
 255              	.LBE109:
 256              	.LBE108:
 257              		.loc 1 134 0
 258 0008 FFF7FEFF 		bl	ext_lld_channel_enable
 259              	.LVL9:
 260              	.LBB113:
 261              	.LBB114:
 262              	.LBB115:
 263              	.LBB116:
 264              	.LBB117:
 265              	.LBB118:
 266              		.loc 2 548 0
 267 000c 0023     		movs	r3, #0
 268              	@ 548 "ChibiOS_16.1.4/os/ext/CMSIS/include/core_cmFunc.h" 1
 269 000e 83F31188 		MSR basepri, r3
 270              	@ 0 "" 2
 271              		.thumb
 272 0012 08BD     		pop	{r3, pc}
 273              	.LBE118:
 274              	.LBE117:
 275              	.LBE116:
 276              	.LBE115:
 277              	.LBE114:
 278              	.LBE113:
 279              		.cfi_endproc
 280              	.LFE272:
 281              		.size	extChannelEnable, .-extChannelEnable
 282              		.section	.text.extChannelDisable,"ax",%progbits
 283              		.align	2
 284              		.p2align 4,,15
 285              		.global	extChannelDisable
ARM GAS  /var/folders/m4/4md61f0s1_g0rzfghffqnxvr0000gn/T//ccikS1yW.s 			page 6


 286              		.thumb
 287              		.thumb_func
 288              		.type	extChannelDisable, %function
 289              	extChannelDisable:
 290              	.LFB273:
 291              		.loc 1 147 0
 292              		.cfi_startproc
 293              		@ args = 0, pretend = 0, frame = 0
 294              		@ frame_needed = 0, uses_anonymous_args = 0
 295              	.LVL10:
 296 0000 08B5     		push	{r3, lr}
 297              		.cfi_def_cfa_offset 8
 298              		.cfi_offset 3, -8
 299              		.cfi_offset 14, -4
 300              	.LBB119:
 301              	.LBB120:
 302              	.LBB121:
 303              	.LBB122:
 304              	.LBB123:
 305              		.loc 2 548 0
 306 0002 2023     		movs	r3, #32
 307              	@ 548 "ChibiOS_16.1.4/os/ext/CMSIS/include/core_cmFunc.h" 1
 308 0004 83F31188 		MSR basepri, r3
 309              	@ 0 "" 2
 310              		.thumb
 311              	.LBE123:
 312              	.LBE122:
 313              	.LBE121:
 314              	.LBE120:
 315              	.LBE119:
 316              		.loc 1 156 0
 317 0008 FFF7FEFF 		bl	ext_lld_channel_disable
 318              	.LVL11:
 319              	.LBB124:
 320              	.LBB125:
 321              	.LBB126:
 322              	.LBB127:
 323              	.LBB128:
 324              	.LBB129:
 325              		.loc 2 548 0
 326 000c 0023     		movs	r3, #0
 327              	@ 548 "ChibiOS_16.1.4/os/ext/CMSIS/include/core_cmFunc.h" 1
 328 000e 83F31188 		MSR basepri, r3
 329              	@ 0 "" 2
 330              		.thumb
 331 0012 08BD     		pop	{r3, pc}
 332              	.LBE129:
 333              	.LBE128:
 334              	.LBE127:
 335              	.LBE126:
 336              	.LBE125:
 337              	.LBE124:
 338              		.cfi_endproc
 339              	.LFE273:
 340              		.size	extChannelDisable, .-extChannelDisable
 341              		.section	.text.extSetChannelModeI,"ax",%progbits
 342              		.align	2
ARM GAS  /var/folders/m4/4md61f0s1_g0rzfghffqnxvr0000gn/T//ccikS1yW.s 			page 7


 343              		.p2align 4,,15
 344              		.global	extSetChannelModeI
 345              		.thumb
 346              		.thumb_func
 347              		.type	extSetChannelModeI, %function
 348              	extSetChannelModeI:
 349              	.LFB274:
 350              		.loc 1 179 0
 351              		.cfi_startproc
 352              		@ args = 0, pretend = 0, frame = 0
 353              		@ frame_needed = 0, uses_anonymous_args = 0
 354              		@ link register save eliminated.
 355              	.LVL12:
 356 0000 30B4     		push	{r4, r5}
 357              		.cfi_def_cfa_offset 8
 358              		.cfi_offset 4, -8
 359              		.cfi_offset 5, -4
 360              		.loc 1 196 0
 361 0002 4368     		ldr	r3, [r0, #4]
 362              		.loc 1 179 0
 363 0004 0C46     		mov	r4, r1
 364              	.LVL13:
 365 0006 0546     		mov	r5, r0
 366              		.loc 1 196 0
 367 0008 92E80300 		ldmia	r2, {r0, r1}
 368              	.LVL14:
 369 000c 03EBC403 		add	r3, r3, r4, lsl #3
 370              	.LVL15:
 371 0010 83E80300 		stmia	r3, {r0, r1}
 372              		.loc 1 197 0
 373 0014 2846     		mov	r0, r5
 374 0016 2146     		mov	r1, r4
 375              		.loc 1 198 0
 376 0018 30BC     		pop	{r4, r5}
 377              		.cfi_restore 5
 378              		.cfi_restore 4
 379              		.cfi_def_cfa_offset 0
 380              	.LVL16:
 381              		.loc 1 197 0
 382 001a FFF7FEBF 		b	ext_lld_channel_enable
 383              	.LVL17:
 384              		.cfi_endproc
 385              	.LFE274:
 386              		.size	extSetChannelModeI, .-extSetChannelModeI
 387 001e 00BF     		.text
 388              	.Letext0:
 389              		.file 3 "/usr/local/Cellar/gcc-arm-none-eabi-49/20150609/arm-none-eabi/include/machine/_default_ty
 390              		.file 4 "/usr/local/Cellar/gcc-arm-none-eabi-49/20150609/arm-none-eabi/include/sys/_stdint.h"
 391              		.file 5 "ChibiOS_16.1.4/os/rt/ports/ARMCMx/compilers/GCC/chtypes.h"
 392              		.file 6 "ChibiOS_16.1.4/os/rt/include/chsystypes.h"
 393              		.file 7 "ChibiOS_16.1.4/os/rt/include/chschd.h"
 394              		.file 8 "ChibiOS_16.1.4/os/rt/ports/ARMCMx/chcore.h"
 395              		.file 9 "ChibiOS_16.1.4/os/rt/ports/ARMCMx/chcore_v7m.h"
 396              		.file 10 "ChibiOS_16.1.4/os/rt/include/chtm.h"
 397              		.file 11 "ChibiOS_16.1.4/os/rt/include/chsem.h"
 398              		.file 12 "ChibiOS_16.1.4/os/rt/include/chmtx.h"
 399              		.file 13 "ChibiOS_16.1.4/os/hal/include/ext.h"
ARM GAS  /var/folders/m4/4md61f0s1_g0rzfghffqnxvr0000gn/T//ccikS1yW.s 			page 8


 400              		.file 14 "ChibiOS_16.1.4/os/hal/ports/STM32/LLD/EXTIv1/ext_lld.h"
 401              		.file 15 "ChibiOS_16.1.4/os/rt/include/chsys.h"
 402              		.file 16 "ChibiOS_16.1.4/os/hal/osal/rt/osal.h"
 403              		.file 17 "ChibiOS_16.1.4/os/ext/CMSIS/include/core_cm4.h"
 404              		.section	.debug_info,"",%progbits
 405              	.Ldebug_info0:
 406 0000 EB0D0000 		.4byte	0xdeb
 407 0004 0400     		.2byte	0x4
 408 0006 00000000 		.4byte	.Ldebug_abbrev0
 409 000a 04       		.byte	0x4
 410 000b 01       		.uleb128 0x1
 411 000c 89050000 		.4byte	.LASF140
 412 0010 01       		.byte	0x1
 413 0011 E5030000 		.4byte	.LASF141
 414 0015 00000000 		.4byte	.LASF142
 415 0019 30000000 		.4byte	.Ldebug_ranges0+0x30
 416 001d 00000000 		.4byte	0
 417 0021 00000000 		.4byte	.Ldebug_line0
 418 0025 02       		.uleb128 0x2
 419 0026 04       		.byte	0x4
 420 0027 05       		.byte	0x5
 421 0028 696E7400 		.ascii	"int\000"
 422 002c 03       		.uleb128 0x3
 423 002d 04       		.byte	0x4
 424 002e 07       		.byte	0x7
 425 002f 25020000 		.4byte	.LASF0
 426 0033 03       		.uleb128 0x3
 427 0034 01       		.byte	0x1
 428 0035 06       		.byte	0x6
 429 0036 5E000000 		.4byte	.LASF1
 430 003a 04       		.uleb128 0x4
 431 003b 6A000000 		.4byte	.LASF5
 432 003f 03       		.byte	0x3
 433 0040 1D       		.byte	0x1d
 434 0041 45000000 		.4byte	0x45
 435 0045 03       		.uleb128 0x3
 436 0046 01       		.byte	0x1
 437 0047 08       		.byte	0x8
 438 0048 2B040000 		.4byte	.LASF2
 439 004c 03       		.uleb128 0x3
 440 004d 02       		.byte	0x2
 441 004e 05       		.byte	0x5
 442 004f 4B040000 		.4byte	.LASF3
 443 0053 03       		.uleb128 0x3
 444 0054 02       		.byte	0x2
 445 0055 07       		.byte	0x7
 446 0056 80020000 		.4byte	.LASF4
 447 005a 04       		.uleb128 0x4
 448 005b E8020000 		.4byte	.LASF6
 449 005f 03       		.byte	0x3
 450 0060 3F       		.byte	0x3f
 451 0061 65000000 		.4byte	0x65
 452 0065 03       		.uleb128 0x3
 453 0066 04       		.byte	0x4
 454 0067 05       		.byte	0x5
 455 0068 AA010000 		.4byte	.LASF7
 456 006c 04       		.uleb128 0x4
ARM GAS  /var/folders/m4/4md61f0s1_g0rzfghffqnxvr0000gn/T//ccikS1yW.s 			page 9


 457 006d 70050000 		.4byte	.LASF8
 458 0071 03       		.byte	0x3
 459 0072 41       		.byte	0x41
 460 0073 77000000 		.4byte	0x77
 461 0077 03       		.uleb128 0x3
 462 0078 04       		.byte	0x4
 463 0079 07       		.byte	0x7
 464 007a 08050000 		.4byte	.LASF9
 465 007e 03       		.uleb128 0x3
 466 007f 08       		.byte	0x8
 467 0080 05       		.byte	0x5
 468 0081 40010000 		.4byte	.LASF10
 469 0085 04       		.uleb128 0x4
 470 0086 BB030000 		.4byte	.LASF11
 471 008a 03       		.byte	0x3
 472 008b 5B       		.byte	0x5b
 473 008c 90000000 		.4byte	0x90
 474 0090 03       		.uleb128 0x3
 475 0091 08       		.byte	0x8
 476 0092 07       		.byte	0x7
 477 0093 B9000000 		.4byte	.LASF12
 478 0097 04       		.uleb128 0x4
 479 0098 0E070000 		.4byte	.LASF13
 480 009c 04       		.byte	0x4
 481 009d 14       		.byte	0x14
 482 009e 3A000000 		.4byte	0x3a
 483 00a2 04       		.uleb128 0x4
 484 00a3 23040000 		.4byte	.LASF14
 485 00a7 04       		.byte	0x4
 486 00a8 1F       		.byte	0x1f
 487 00a9 5A000000 		.4byte	0x5a
 488 00ad 04       		.uleb128 0x4
 489 00ae E0040000 		.4byte	.LASF15
 490 00b2 04       		.byte	0x4
 491 00b3 20       		.byte	0x20
 492 00b4 6C000000 		.4byte	0x6c
 493 00b8 04       		.uleb128 0x4
 494 00b9 55000000 		.4byte	.LASF16
 495 00bd 04       		.byte	0x4
 496 00be 26       		.byte	0x26
 497 00bf 85000000 		.4byte	0x85
 498 00c3 04       		.uleb128 0x4
 499 00c4 BE060000 		.4byte	.LASF17
 500 00c8 05       		.byte	0x5
 501 00c9 39       		.byte	0x39
 502 00ca AD000000 		.4byte	0xad
 503 00ce 04       		.uleb128 0x4
 504 00cf C6020000 		.4byte	.LASF18
 505 00d3 05       		.byte	0x5
 506 00d4 3C       		.byte	0x3c
 507 00d5 97000000 		.4byte	0x97
 508 00d9 04       		.uleb128 0x4
 509 00da B3010000 		.4byte	.LASF19
 510 00de 05       		.byte	0x5
 511 00df 3D       		.byte	0x3d
 512 00e0 97000000 		.4byte	0x97
 513 00e4 04       		.uleb128 0x4
ARM GAS  /var/folders/m4/4md61f0s1_g0rzfghffqnxvr0000gn/T//ccikS1yW.s 			page 10


 514 00e5 C6030000 		.4byte	.LASF20
 515 00e9 05       		.byte	0x5
 516 00ea 3E       		.byte	0x3e
 517 00eb 97000000 		.4byte	0x97
 518 00ef 04       		.uleb128 0x4
 519 00f0 84010000 		.4byte	.LASF21
 520 00f4 05       		.byte	0x5
 521 00f5 3F       		.byte	0x3f
 522 00f6 97000000 		.4byte	0x97
 523 00fa 04       		.uleb128 0x4
 524 00fb 05040000 		.4byte	.LASF22
 525 00ff 05       		.byte	0x5
 526 0100 40       		.byte	0x40
 527 0101 AD000000 		.4byte	0xad
 528 0105 04       		.uleb128 0x4
 529 0106 A7020000 		.4byte	.LASF23
 530 010a 05       		.byte	0x5
 531 010b 41       		.byte	0x41
 532 010c A2000000 		.4byte	0xa2
 533 0110 04       		.uleb128 0x4
 534 0111 DC020000 		.4byte	.LASF24
 535 0115 05       		.byte	0x5
 536 0116 43       		.byte	0x43
 537 0117 AD000000 		.4byte	0xad
 538 011b 04       		.uleb128 0x4
 539 011c 1F020000 		.4byte	.LASF25
 540 0120 05       		.byte	0x5
 541 0121 45       		.byte	0x45
 542 0122 A2000000 		.4byte	0xa2
 543 0126 04       		.uleb128 0x4
 544 0127 52050000 		.4byte	.LASF26
 545 012b 06       		.byte	0x6
 546 012c 33       		.byte	0x33
 547 012d AD000000 		.4byte	0xad
 548 0131 04       		.uleb128 0x4
 549 0132 42050000 		.4byte	.LASF27
 550 0136 06       		.byte	0x6
 551 0137 3F       		.byte	0x3f
 552 0138 3C010000 		.4byte	0x13c
 553 013c 05       		.uleb128 0x5
 554 013d 93020000 		.4byte	.LASF49
 555 0141 48       		.byte	0x48
 556 0142 07       		.byte	0x7
 557 0143 C2       		.byte	0xc2
 558 0144 41020000 		.4byte	0x241
 559 0148 06       		.uleb128 0x6
 560 0149 75040000 		.4byte	.LASF28
 561 014d 07       		.byte	0x7
 562 014e C3       		.byte	0xc3
 563 014f 4C020000 		.4byte	0x24c
 564 0153 00       		.byte	0
 565 0154 06       		.uleb128 0x6
 566 0155 DE030000 		.4byte	.LASF29
 567 0159 07       		.byte	0x7
 568 015a C5       		.byte	0xc5
 569 015b 4C020000 		.4byte	0x24c
 570 015f 04       		.byte	0x4
ARM GAS  /var/folders/m4/4md61f0s1_g0rzfghffqnxvr0000gn/T//ccikS1yW.s 			page 11


 571 0160 06       		.uleb128 0x6
 572 0161 30010000 		.4byte	.LASF30
 573 0165 07       		.byte	0x7
 574 0166 C7       		.byte	0xc7
 575 0167 FA000000 		.4byte	0xfa
 576 016b 08       		.byte	0x8
 577 016c 06       		.uleb128 0x6
 578 016d 49070000 		.4byte	.LASF31
 579 0171 07       		.byte	0x7
 580 0172 C8       		.byte	0xc8
 581 0173 7C040000 		.4byte	0x47c
 582 0177 0C       		.byte	0xc
 583 0178 06       		.uleb128 0x6
 584 0179 BC010000 		.4byte	.LASF32
 585 017d 07       		.byte	0x7
 586 017e CA       		.byte	0xca
 587 017f 4C020000 		.4byte	0x24c
 588 0183 10       		.byte	0x10
 589 0184 06       		.uleb128 0x6
 590 0185 68030000 		.4byte	.LASF33
 591 0189 07       		.byte	0x7
 592 018a CB       		.byte	0xcb
 593 018b 4C020000 		.4byte	0x24c
 594 018f 14       		.byte	0x14
 595 0190 06       		.uleb128 0x6
 596 0191 1D070000 		.4byte	.LASF34
 597 0195 07       		.byte	0x7
 598 0196 D2       		.byte	0xd2
 599 0197 CA060000 		.4byte	0x6ca
 600 019b 18       		.byte	0x18
 601 019c 06       		.uleb128 0x6
 602 019d 55040000 		.4byte	.LASF35
 603 01a1 07       		.byte	0x7
 604 01a2 DD       		.byte	0xdd
 605 01a3 D9000000 		.4byte	0xd9
 606 01a7 1C       		.byte	0x1c
 607 01a8 06       		.uleb128 0x6
 608 01a9 7C040000 		.4byte	.LASF36
 609 01ad 07       		.byte	0x7
 610 01ae E1       		.byte	0xe1
 611 01af CE000000 		.4byte	0xce
 612 01b3 1D       		.byte	0x1d
 613 01b4 06       		.uleb128 0x6
 614 01b5 01070000 		.4byte	.LASF37
 615 01b9 07       		.byte	0x7
 616 01ba E6       		.byte	0xe6
 617 01bb E4000000 		.4byte	0xe4
 618 01bf 1E       		.byte	0x1e
 619 01c0 06       		.uleb128 0x6
 620 01c1 5D040000 		.4byte	.LASF38
 621 01c5 07       		.byte	0x7
 622 01c6 EC       		.byte	0xec
 623 01c7 EF000000 		.4byte	0xef
 624 01cb 1F       		.byte	0x1f
 625 01cc 06       		.uleb128 0x6
 626 01cd 3A020000 		.4byte	.LASF39
 627 01d1 07       		.byte	0x7
ARM GAS  /var/folders/m4/4md61f0s1_g0rzfghffqnxvr0000gn/T//ccikS1yW.s 			page 12


 628 01d2 F3       		.byte	0xf3
 629 01d3 DC060000 		.4byte	0x6dc
 630 01d7 20       		.byte	0x20
 631 01d8 07       		.uleb128 0x7
 632 01d9 705F7500 		.ascii	"p_u\000"
 633 01dd 07       		.byte	0x7
 634 01de 3101     		.2byte	0x131
 635 01e0 05060000 		.4byte	0x605
 636 01e4 24       		.byte	0x24
 637 01e5 08       		.uleb128 0x8
 638 01e6 08030000 		.4byte	.LASF40
 639 01ea 07       		.byte	0x7
 640 01eb 3601     		.2byte	0x136
 641 01ed 52020000 		.4byte	0x252
 642 01f1 28       		.byte	0x28
 643 01f2 08       		.uleb128 0x8
 644 01f3 51020000 		.4byte	.LASF41
 645 01f7 07       		.byte	0x7
 646 01f8 3C01     		.2byte	0x13c
 647 01fa 76020000 		.4byte	0x276
 648 01fe 2C       		.byte	0x2c
 649 01ff 08       		.uleb128 0x8
 650 0200 3B070000 		.4byte	.LASF42
 651 0204 07       		.byte	0x7
 652 0205 4001     		.2byte	0x140
 653 0207 05010000 		.4byte	0x105
 654 020b 34       		.byte	0x34
 655 020c 08       		.uleb128 0x8
 656 020d D5040000 		.4byte	.LASF43
 657 0211 07       		.byte	0x7
 658 0212 4601     		.2byte	0x146
 659 0214 10010000 		.4byte	0x110
 660 0218 38       		.byte	0x38
 661 0219 08       		.uleb128 0x8
 662 021a 41040000 		.4byte	.LASF44
 663 021e 07       		.byte	0x7
 664 021f 4D01     		.2byte	0x14d
 665 0221 C4060000 		.4byte	0x6c4
 666 0225 3C       		.byte	0x3c
 667 0226 08       		.uleb128 0x8
 668 0227 5C050000 		.4byte	.LASF45
 669 022b 07       		.byte	0x7
 670 022c 5101     		.2byte	0x151
 671 022e FA000000 		.4byte	0xfa
 672 0232 40       		.byte	0x40
 673 0233 08       		.uleb128 0x8
 674 0234 61010000 		.4byte	.LASF46
 675 0238 07       		.byte	0x7
 676 0239 5801     		.2byte	0x158
 677 023b 29030000 		.4byte	0x329
 678 023f 44       		.byte	0x44
 679 0240 00       		.byte	0
 680 0241 04       		.uleb128 0x4
 681 0242 21030000 		.4byte	.LASF47
 682 0246 06       		.byte	0x6
 683 0247 44       		.byte	0x44
 684 0248 4C020000 		.4byte	0x24c
ARM GAS  /var/folders/m4/4md61f0s1_g0rzfghffqnxvr0000gn/T//ccikS1yW.s 			page 13


 685 024c 09       		.uleb128 0x9
 686 024d 04       		.byte	0x4
 687 024e 31010000 		.4byte	0x131
 688 0252 04       		.uleb128 0x4
 689 0253 2C000000 		.4byte	.LASF48
 690 0257 06       		.byte	0x6
 691 0258 49       		.byte	0x49
 692 0259 5D020000 		.4byte	0x25d
 693 025d 05       		.uleb128 0x5
 694 025e F8040000 		.4byte	.LASF50
 695 0262 04       		.byte	0x4
 696 0263 07       		.byte	0x7
 697 0264 B0       		.byte	0xb0
 698 0265 76020000 		.4byte	0x276
 699 0269 06       		.uleb128 0x6
 700 026a 75040000 		.4byte	.LASF28
 701 026e 07       		.byte	0x7
 702 026f B1       		.byte	0xb1
 703 0270 4C020000 		.4byte	0x24c
 704 0274 00       		.byte	0
 705 0275 00       		.byte	0
 706 0276 04       		.uleb128 0x4
 707 0277 E8060000 		.4byte	.LASF51
 708 027b 06       		.byte	0x6
 709 027c 50       		.byte	0x50
 710 027d 81020000 		.4byte	0x281
 711 0281 05       		.uleb128 0x5
 712 0282 07010000 		.4byte	.LASF52
 713 0286 08       		.byte	0x8
 714 0287 07       		.byte	0x7
 715 0288 B7       		.byte	0xb7
 716 0289 A6020000 		.4byte	0x2a6
 717 028d 06       		.uleb128 0x6
 718 028e 75040000 		.4byte	.LASF28
 719 0292 07       		.byte	0x7
 720 0293 B8       		.byte	0xb8
 721 0294 4C020000 		.4byte	0x24c
 722 0298 00       		.byte	0
 723 0299 06       		.uleb128 0x6
 724 029a DE030000 		.4byte	.LASF29
 725 029e 07       		.byte	0x7
 726 029f B9       		.byte	0xb9
 727 02a0 4C020000 		.4byte	0x24c
 728 02a4 04       		.byte	0x4
 729 02a5 00       		.byte	0
 730 02a6 04       		.uleb128 0x4
 731 02a7 3B000000 		.4byte	.LASF53
 732 02ab 06       		.byte	0x6
 733 02ac 57       		.byte	0x57
 734 02ad B1020000 		.4byte	0x2b1
 735 02b1 0A       		.uleb128 0xa
 736 02b2 CE020000 		.4byte	.LASF54
 737 02b6 1C       		.byte	0x1c
 738 02b7 07       		.byte	0x7
 739 02b8 9001     		.2byte	0x190
 740 02ba 0D030000 		.4byte	0x30d
 741 02be 08       		.uleb128 0x8
ARM GAS  /var/folders/m4/4md61f0s1_g0rzfghffqnxvr0000gn/T//ccikS1yW.s 			page 14


 742 02bf F0040000 		.4byte	.LASF55
 743 02c3 07       		.byte	0x7
 744 02c4 9101     		.2byte	0x191
 745 02c6 76020000 		.4byte	0x276
 746 02ca 00       		.byte	0
 747 02cb 08       		.uleb128 0x8
 748 02cc 67040000 		.4byte	.LASF56
 749 02d0 07       		.byte	0x7
 750 02d1 9201     		.2byte	0x192
 751 02d3 FA000000 		.4byte	0xfa
 752 02d7 08       		.byte	0x8
 753 02d8 08       		.uleb128 0x8
 754 02d9 70030000 		.4byte	.LASF57
 755 02dd 07       		.byte	0x7
 756 02de 9401     		.2byte	0x194
 757 02e0 7C040000 		.4byte	0x47c
 758 02e4 0C       		.byte	0xc
 759 02e5 08       		.uleb128 0x8
 760 02e6 DD010000 		.4byte	.LASF58
 761 02ea 07       		.byte	0x7
 762 02eb 9701     		.2byte	0x197
 763 02ed 4C020000 		.4byte	0x24c
 764 02f1 10       		.byte	0x10
 765 02f2 08       		.uleb128 0x8
 766 02f3 B3030000 		.4byte	.LASF59
 767 02f7 07       		.byte	0x7
 768 02f8 9801     		.2byte	0x198
 769 02fa 4C020000 		.4byte	0x24c
 770 02fe 14       		.byte	0x14
 771 02ff 08       		.uleb128 0x8
 772 0300 A9030000 		.4byte	.LASF60
 773 0304 07       		.byte	0x7
 774 0305 9B01     		.2byte	0x19b
 775 0307 4C020000 		.4byte	0x24c
 776 030b 18       		.byte	0x18
 777 030c 00       		.byte	0
 778 030d 04       		.uleb128 0x4
 779 030e 67050000 		.4byte	.LASF61
 780 0312 06       		.byte	0x6
 781 0313 5C       		.byte	0x5c
 782 0314 18030000 		.4byte	0x318
 783 0318 09       		.uleb128 0x9
 784 0319 04       		.byte	0x4
 785 031a 1E030000 		.4byte	0x31e
 786 031e 0B       		.uleb128 0xb
 787 031f 29030000 		.4byte	0x329
 788 0323 0C       		.uleb128 0xc
 789 0324 29030000 		.4byte	0x329
 790 0328 00       		.byte	0
 791 0329 0D       		.uleb128 0xd
 792 032a 04       		.byte	0x4
 793 032b 04       		.uleb128 0x4
 794 032c CE030000 		.4byte	.LASF62
 795 0330 06       		.byte	0x6
 796 0331 61       		.byte	0x61
 797 0332 36030000 		.4byte	0x336
 798 0336 0A       		.uleb128 0xa
ARM GAS  /var/folders/m4/4md61f0s1_g0rzfghffqnxvr0000gn/T//ccikS1yW.s 			page 15


 799 0337 B7040000 		.4byte	.LASF63
 800 033b 14       		.byte	0x14
 801 033c 07       		.byte	0x7
 802 033d 6B01     		.2byte	0x16b
 803 033f 85030000 		.4byte	0x385
 804 0343 08       		.uleb128 0x8
 805 0344 32020000 		.4byte	.LASF64
 806 0348 07       		.byte	0x7
 807 0349 6C01     		.2byte	0x16c
 808 034b E1060000 		.4byte	0x6e1
 809 034f 00       		.byte	0
 810 0350 08       		.uleb128 0x8
 811 0351 EE010000 		.4byte	.LASF65
 812 0355 07       		.byte	0x7
 813 0356 6D01     		.2byte	0x16d
 814 0358 E1060000 		.4byte	0x6e1
 815 035c 04       		.byte	0x4
 816 035d 08       		.uleb128 0x8
 817 035e 48020000 		.4byte	.LASF66
 818 0362 07       		.byte	0x7
 819 0363 6E01     		.2byte	0x16e
 820 0365 26010000 		.4byte	0x126
 821 0369 08       		.byte	0x8
 822 036a 08       		.uleb128 0x8
 823 036b 4F070000 		.4byte	.LASF67
 824 036f 07       		.byte	0x7
 825 0370 6F01     		.2byte	0x16f
 826 0372 0D030000 		.4byte	0x30d
 827 0376 0C       		.byte	0xc
 828 0377 08       		.uleb128 0x8
 829 0378 C6060000 		.4byte	.LASF68
 830 037c 07       		.byte	0x7
 831 037d 7101     		.2byte	0x171
 832 037f 29030000 		.4byte	0x329
 833 0383 10       		.byte	0x10
 834 0384 00       		.byte	0
 835 0385 04       		.uleb128 0x4
 836 0386 E4000000 		.4byte	.LASF69
 837 038a 06       		.byte	0x6
 838 038b 66       		.byte	0x66
 839 038c 90030000 		.4byte	0x390
 840 0390 0A       		.uleb128 0xa
 841 0391 3F030000 		.4byte	.LASF70
 842 0395 10       		.byte	0x10
 843 0396 07       		.byte	0x7
 844 0397 7B01     		.2byte	0x17b
 845 0399 D2030000 		.4byte	0x3d2
 846 039d 08       		.uleb128 0x8
 847 039e 32020000 		.4byte	.LASF64
 848 03a2 07       		.byte	0x7
 849 03a3 7C01     		.2byte	0x17c
 850 03a5 E1060000 		.4byte	0x6e1
 851 03a9 00       		.byte	0
 852 03aa 08       		.uleb128 0x8
 853 03ab EE010000 		.4byte	.LASF65
 854 03af 07       		.byte	0x7
 855 03b0 7E01     		.2byte	0x17e
ARM GAS  /var/folders/m4/4md61f0s1_g0rzfghffqnxvr0000gn/T//ccikS1yW.s 			page 16


 856 03b2 E1060000 		.4byte	0x6e1
 857 03b6 04       		.byte	0x4
 858 03b7 08       		.uleb128 0x8
 859 03b8 48020000 		.4byte	.LASF66
 860 03bc 07       		.byte	0x7
 861 03bd 8001     		.2byte	0x180
 862 03bf 26010000 		.4byte	0x126
 863 03c3 08       		.byte	0x8
 864 03c4 08       		.uleb128 0x8
 865 03c5 24070000 		.4byte	.LASF71
 866 03c9 07       		.byte	0x7
 867 03ca 8201     		.2byte	0x182
 868 03cc DC060000 		.4byte	0x6dc
 869 03d0 0C       		.byte	0xc
 870 03d1 00       		.byte	0
 871 03d2 04       		.uleb128 0x4
 872 03d3 8D000000 		.4byte	.LASF72
 873 03d7 06       		.byte	0x6
 874 03d8 6B       		.byte	0x6b
 875 03d9 DD030000 		.4byte	0x3dd
 876 03dd 0A       		.uleb128 0xa
 877 03de 0D040000 		.4byte	.LASF73
 878 03e2 04       		.byte	0x4
 879 03e3 07       		.byte	0x7
 880 03e4 A201     		.2byte	0x1a2
 881 03e6 F8030000 		.4byte	0x3f8
 882 03ea 08       		.uleb128 0x8
 883 03eb AD060000 		.4byte	.LASF74
 884 03ef 07       		.byte	0x7
 885 03f0 AA01     		.2byte	0x1aa
 886 03f2 E7060000 		.4byte	0x6e7
 887 03f6 00       		.byte	0
 888 03f7 00       		.byte	0
 889 03f8 04       		.uleb128 0x4
 890 03f9 BA020000 		.4byte	.LASF75
 891 03fd 06       		.byte	0x6
 892 03fe 70       		.byte	0x70
 893 03ff 03040000 		.4byte	0x403
 894 0403 0E       		.uleb128 0xe
 895 0404 97040000 		.4byte	.LASF76
 896 0408 5802     		.2byte	0x258
 897 040a 07       		.byte	0x7
 898 040b C201     		.2byte	0x1c2
 899 040d 5F040000 		.4byte	0x45f
 900 0411 08       		.uleb128 0x8
 901 0412 08070000 		.4byte	.LASF77
 902 0416 07       		.byte	0x7
 903 0417 C601     		.2byte	0x1c6
 904 0419 A6020000 		.4byte	0x2a6
 905 041d 00       		.byte	0
 906 041e 08       		.uleb128 0x8
 907 041f 71010000 		.4byte	.LASF78
 908 0423 07       		.byte	0x7
 909 0424 CA01     		.2byte	0x1ca
 910 0426 85030000 		.4byte	0x385
 911 042a 1C       		.byte	0x1c
 912 042b 07       		.uleb128 0x7
ARM GAS  /var/folders/m4/4md61f0s1_g0rzfghffqnxvr0000gn/T//ccikS1yW.s 			page 17


 913 042c 64626700 		.ascii	"dbg\000"
 914 0430 07       		.byte	0x7
 915 0431 CE01     		.2byte	0x1ce
 916 0433 D2030000 		.4byte	0x3d2
 917 0437 2C       		.byte	0x2c
 918 0438 08       		.uleb128 0x8
 919 0439 D9000000 		.4byte	.LASF79
 920 043d 07       		.byte	0x7
 921 043e D201     		.2byte	0x1d2
 922 0440 31010000 		.4byte	0x131
 923 0444 30       		.byte	0x30
 924 0445 07       		.uleb128 0x7
 925 0446 746D00   		.ascii	"tm\000"
 926 0449 07       		.byte	0x7
 927 044a D701     		.2byte	0x1d7
 928 044c FA050000 		.4byte	0x5fa
 929 0450 78       		.byte	0x78
 930 0451 08       		.uleb128 0x8
 931 0452 10020000 		.4byte	.LASF80
 932 0456 07       		.byte	0x7
 933 0457 E301     		.2byte	0x1e3
 934 0459 EC060000 		.4byte	0x6ec
 935 045d 80       		.byte	0x80
 936 045e 00       		.byte	0
 937 045f 03       		.uleb128 0x3
 938 0460 04       		.byte	0x4
 939 0461 07       		.byte	0x7
 940 0462 18030000 		.4byte	.LASF81
 941 0466 04       		.uleb128 0x4
 942 0467 E5010000 		.4byte	.LASF82
 943 046b 08       		.byte	0x8
 944 046c 65       		.byte	0x65
 945 046d 29030000 		.4byte	0x329
 946 0471 04       		.uleb128 0x4
 947 0472 F2020000 		.4byte	.LASF83
 948 0476 08       		.byte	0x8
 949 0477 6D       		.byte	0x6d
 950 0478 B8000000 		.4byte	0xb8
 951 047c 05       		.uleb128 0x5
 952 047d 78020000 		.4byte	.LASF84
 953 0481 04       		.byte	0x4
 954 0482 08       		.byte	0x8
 955 0483 89       		.byte	0x89
 956 0484 95040000 		.4byte	0x495
 957 0488 0F       		.uleb128 0xf
 958 0489 72313300 		.ascii	"r13\000"
 959 048d 08       		.byte	0x8
 960 048e 8A       		.byte	0x8a
 961 048f DF050000 		.4byte	0x5df
 962 0493 00       		.byte	0
 963 0494 00       		.byte	0
 964 0495 05       		.uleb128 0x5
 965 0496 81000000 		.4byte	.LASF85
 966 049a 64       		.byte	0x64
 967 049b 09       		.byte	0x9
 968 049c FD       		.byte	0xfd
 969 049d DF050000 		.4byte	0x5df
ARM GAS  /var/folders/m4/4md61f0s1_g0rzfghffqnxvr0000gn/T//ccikS1yW.s 			page 18


 970 04a1 0F       		.uleb128 0xf
 971 04a2 73313600 		.ascii	"s16\000"
 972 04a6 09       		.byte	0x9
 973 04a7 FF       		.byte	0xff
 974 04a8 66040000 		.4byte	0x466
 975 04ac 00       		.byte	0
 976 04ad 07       		.uleb128 0x7
 977 04ae 73313700 		.ascii	"s17\000"
 978 04b2 09       		.byte	0x9
 979 04b3 0001     		.2byte	0x100
 980 04b5 66040000 		.4byte	0x466
 981 04b9 04       		.byte	0x4
 982 04ba 07       		.uleb128 0x7
 983 04bb 73313800 		.ascii	"s18\000"
 984 04bf 09       		.byte	0x9
 985 04c0 0101     		.2byte	0x101
 986 04c2 66040000 		.4byte	0x466
 987 04c6 08       		.byte	0x8
 988 04c7 07       		.uleb128 0x7
 989 04c8 73313900 		.ascii	"s19\000"
 990 04cc 09       		.byte	0x9
 991 04cd 0201     		.2byte	0x102
 992 04cf 66040000 		.4byte	0x466
 993 04d3 0C       		.byte	0xc
 994 04d4 07       		.uleb128 0x7
 995 04d5 73323000 		.ascii	"s20\000"
 996 04d9 09       		.byte	0x9
 997 04da 0301     		.2byte	0x103
 998 04dc 66040000 		.4byte	0x466
 999 04e0 10       		.byte	0x10
 1000 04e1 07       		.uleb128 0x7
 1001 04e2 73323100 		.ascii	"s21\000"
 1002 04e6 09       		.byte	0x9
 1003 04e7 0401     		.2byte	0x104
 1004 04e9 66040000 		.4byte	0x466
 1005 04ed 14       		.byte	0x14
 1006 04ee 07       		.uleb128 0x7
 1007 04ef 73323200 		.ascii	"s22\000"
 1008 04f3 09       		.byte	0x9
 1009 04f4 0501     		.2byte	0x105
 1010 04f6 66040000 		.4byte	0x466
 1011 04fa 18       		.byte	0x18
 1012 04fb 07       		.uleb128 0x7
 1013 04fc 73323300 		.ascii	"s23\000"
 1014 0500 09       		.byte	0x9
 1015 0501 0601     		.2byte	0x106
 1016 0503 66040000 		.4byte	0x466
 1017 0507 1C       		.byte	0x1c
 1018 0508 07       		.uleb128 0x7
 1019 0509 73323400 		.ascii	"s24\000"
 1020 050d 09       		.byte	0x9
 1021 050e 0701     		.2byte	0x107
 1022 0510 66040000 		.4byte	0x466
 1023 0514 20       		.byte	0x20
 1024 0515 07       		.uleb128 0x7
 1025 0516 73323500 		.ascii	"s25\000"
 1026 051a 09       		.byte	0x9
ARM GAS  /var/folders/m4/4md61f0s1_g0rzfghffqnxvr0000gn/T//ccikS1yW.s 			page 19


 1027 051b 0801     		.2byte	0x108
 1028 051d 66040000 		.4byte	0x466
 1029 0521 24       		.byte	0x24
 1030 0522 07       		.uleb128 0x7
 1031 0523 73323600 		.ascii	"s26\000"
 1032 0527 09       		.byte	0x9
 1033 0528 0901     		.2byte	0x109
 1034 052a 66040000 		.4byte	0x466
 1035 052e 28       		.byte	0x28
 1036 052f 07       		.uleb128 0x7
 1037 0530 73323700 		.ascii	"s27\000"
 1038 0534 09       		.byte	0x9
 1039 0535 0A01     		.2byte	0x10a
 1040 0537 66040000 		.4byte	0x466
 1041 053b 2C       		.byte	0x2c
 1042 053c 07       		.uleb128 0x7
 1043 053d 73323800 		.ascii	"s28\000"
 1044 0541 09       		.byte	0x9
 1045 0542 0B01     		.2byte	0x10b
 1046 0544 66040000 		.4byte	0x466
 1047 0548 30       		.byte	0x30
 1048 0549 07       		.uleb128 0x7
 1049 054a 73323900 		.ascii	"s29\000"
 1050 054e 09       		.byte	0x9
 1051 054f 0C01     		.2byte	0x10c
 1052 0551 66040000 		.4byte	0x466
 1053 0555 34       		.byte	0x34
 1054 0556 07       		.uleb128 0x7
 1055 0557 73333000 		.ascii	"s30\000"
 1056 055b 09       		.byte	0x9
 1057 055c 0D01     		.2byte	0x10d
 1058 055e 66040000 		.4byte	0x466
 1059 0562 38       		.byte	0x38
 1060 0563 07       		.uleb128 0x7
 1061 0564 73333100 		.ascii	"s31\000"
 1062 0568 09       		.byte	0x9
 1063 0569 0E01     		.2byte	0x10e
 1064 056b 66040000 		.4byte	0x466
 1065 056f 3C       		.byte	0x3c
 1066 0570 07       		.uleb128 0x7
 1067 0571 723400   		.ascii	"r4\000"
 1068 0574 09       		.byte	0x9
 1069 0575 1001     		.2byte	0x110
 1070 0577 66040000 		.4byte	0x466
 1071 057b 40       		.byte	0x40
 1072 057c 07       		.uleb128 0x7
 1073 057d 723500   		.ascii	"r5\000"
 1074 0580 09       		.byte	0x9
 1075 0581 1101     		.2byte	0x111
 1076 0583 66040000 		.4byte	0x466
 1077 0587 44       		.byte	0x44
 1078 0588 07       		.uleb128 0x7
 1079 0589 723600   		.ascii	"r6\000"
 1080 058c 09       		.byte	0x9
 1081 058d 1201     		.2byte	0x112
 1082 058f 66040000 		.4byte	0x466
 1083 0593 48       		.byte	0x48
ARM GAS  /var/folders/m4/4md61f0s1_g0rzfghffqnxvr0000gn/T//ccikS1yW.s 			page 20


 1084 0594 07       		.uleb128 0x7
 1085 0595 723700   		.ascii	"r7\000"
 1086 0598 09       		.byte	0x9
 1087 0599 1301     		.2byte	0x113
 1088 059b 66040000 		.4byte	0x466
 1089 059f 4C       		.byte	0x4c
 1090 05a0 07       		.uleb128 0x7
 1091 05a1 723800   		.ascii	"r8\000"
 1092 05a4 09       		.byte	0x9
 1093 05a5 1401     		.2byte	0x114
 1094 05a7 66040000 		.4byte	0x466
 1095 05ab 50       		.byte	0x50
 1096 05ac 07       		.uleb128 0x7
 1097 05ad 723900   		.ascii	"r9\000"
 1098 05b0 09       		.byte	0x9
 1099 05b1 1501     		.2byte	0x115
 1100 05b3 66040000 		.4byte	0x466
 1101 05b7 54       		.byte	0x54
 1102 05b8 07       		.uleb128 0x7
 1103 05b9 72313000 		.ascii	"r10\000"
 1104 05bd 09       		.byte	0x9
 1105 05be 1601     		.2byte	0x116
 1106 05c0 66040000 		.4byte	0x466
 1107 05c4 58       		.byte	0x58
 1108 05c5 07       		.uleb128 0x7
 1109 05c6 72313100 		.ascii	"r11\000"
 1110 05ca 09       		.byte	0x9
 1111 05cb 1701     		.2byte	0x117
 1112 05cd 66040000 		.4byte	0x466
 1113 05d1 5C       		.byte	0x5c
 1114 05d2 07       		.uleb128 0x7
 1115 05d3 6C7200   		.ascii	"lr\000"
 1116 05d6 09       		.byte	0x9
 1117 05d7 1801     		.2byte	0x118
 1118 05d9 66040000 		.4byte	0x466
 1119 05dd 60       		.byte	0x60
 1120 05de 00       		.byte	0
 1121 05df 09       		.uleb128 0x9
 1122 05e0 04       		.byte	0x4
 1123 05e1 95040000 		.4byte	0x495
 1124 05e5 10       		.uleb128 0x10
 1125 05e6 04       		.byte	0x4
 1126 05e7 0A       		.byte	0xa
 1127 05e8 38       		.byte	0x38
 1128 05e9 FA050000 		.4byte	0x5fa
 1129 05ed 06       		.uleb128 0x6
 1130 05ee B7060000 		.4byte	.LASF86
 1131 05f2 0A       		.byte	0xa
 1132 05f3 3C       		.byte	0x3c
 1133 05f4 C3000000 		.4byte	0xc3
 1134 05f8 00       		.byte	0
 1135 05f9 00       		.byte	0
 1136 05fa 04       		.uleb128 0x4
 1137 05fb 8D030000 		.4byte	.LASF87
 1138 05ff 0A       		.byte	0xa
 1139 0600 3D       		.byte	0x3d
 1140 0601 E5050000 		.4byte	0x5e5
ARM GAS  /var/folders/m4/4md61f0s1_g0rzfghffqnxvr0000gn/T//ccikS1yW.s 			page 21


 1141 0605 11       		.uleb128 0x11
 1142 0606 04       		.byte	0x4
 1143 0607 07       		.byte	0x7
 1144 0608 FA       		.byte	0xfa
 1145 0609 62060000 		.4byte	0x662
 1146 060d 12       		.uleb128 0x12
 1147 060e 4E000000 		.4byte	.LASF88
 1148 0612 07       		.byte	0x7
 1149 0613 0101     		.2byte	0x101
 1150 0615 05010000 		.4byte	0x105
 1151 0619 12       		.uleb128 0x12
 1152 061a D0000000 		.4byte	.LASF89
 1153 061e 07       		.byte	0x7
 1154 061f 0801     		.2byte	0x108
 1155 0621 05010000 		.4byte	0x105
 1156 0625 12       		.uleb128 0x12
 1157 0626 16070000 		.4byte	.LASF90
 1158 062a 07       		.byte	0x7
 1159 062b 0F01     		.2byte	0x10f
 1160 062d 29030000 		.4byte	0x329
 1161 0631 12       		.uleb128 0x12
 1162 0632 48000000 		.4byte	.LASF91
 1163 0636 07       		.byte	0x7
 1164 0637 1601     		.2byte	0x116
 1165 0639 62060000 		.4byte	0x662
 1166 063d 12       		.uleb128 0x12
 1167 063e 41020000 		.4byte	.LASF92
 1168 0642 07       		.byte	0x7
 1169 0643 1E01     		.2byte	0x11e
 1170 0645 8D060000 		.4byte	0x68d
 1171 0649 12       		.uleb128 0x12
 1172 064a E9040000 		.4byte	.LASF93
 1173 064e 07       		.byte	0x7
 1174 064f 2701     		.2byte	0x127
 1175 0651 C4060000 		.4byte	0x6c4
 1176 0655 12       		.uleb128 0x12
 1177 0656 6E040000 		.4byte	.LASF94
 1178 065a 07       		.byte	0x7
 1179 065b 2F01     		.2byte	0x12f
 1180 065d 10010000 		.4byte	0x110
 1181 0661 00       		.byte	0
 1182 0662 09       		.uleb128 0x9
 1183 0663 04       		.byte	0x4
 1184 0664 41020000 		.4byte	0x241
 1185 0668 05       		.uleb128 0x5
 1186 0669 C8040000 		.4byte	.LASF95
 1187 066d 0C       		.byte	0xc
 1188 066e 0B       		.byte	0xb
 1189 066f 34       		.byte	0x34
 1190 0670 8D060000 		.4byte	0x68d
 1191 0674 06       		.uleb128 0x6
 1192 0675 C4010000 		.4byte	.LASF96
 1193 0679 0B       		.byte	0xb
 1194 067a 35       		.byte	0x35
 1195 067b 76020000 		.4byte	0x276
 1196 067f 00       		.byte	0
 1197 0680 06       		.uleb128 0x6
ARM GAS  /var/folders/m4/4md61f0s1_g0rzfghffqnxvr0000gn/T//ccikS1yW.s 			page 22


 1198 0681 72020000 		.4byte	.LASF97
 1199 0685 0B       		.byte	0xb
 1200 0686 37       		.byte	0x37
 1201 0687 1B010000 		.4byte	0x11b
 1202 068b 08       		.byte	0x8
 1203 068c 00       		.byte	0
 1204 068d 09       		.uleb128 0x9
 1205 068e 04       		.byte	0x4
 1206 068f 68060000 		.4byte	0x668
 1207 0693 05       		.uleb128 0x5
 1208 0694 F8060000 		.4byte	.LASF98
 1209 0698 10       		.byte	0x10
 1210 0699 0C       		.byte	0xc
 1211 069a 39       		.byte	0x39
 1212 069b C4060000 		.4byte	0x6c4
 1213 069f 06       		.uleb128 0x6
 1214 06a0 69010000 		.4byte	.LASF99
 1215 06a4 0C       		.byte	0xc
 1216 06a5 3A       		.byte	0x3a
 1217 06a6 76020000 		.4byte	0x276
 1218 06aa 00       		.byte	0
 1219 06ab 06       		.uleb128 0x6
 1220 06ac 41070000 		.4byte	.LASF100
 1221 06b0 0C       		.byte	0xc
 1222 06b1 3C       		.byte	0x3c
 1223 06b2 4C020000 		.4byte	0x24c
 1224 06b6 08       		.byte	0x8
 1225 06b7 06       		.uleb128 0x6
 1226 06b8 4B050000 		.4byte	.LASF101
 1227 06bc 0C       		.byte	0xc
 1228 06bd 3E       		.byte	0x3e
 1229 06be 07070000 		.4byte	0x707
 1230 06c2 0C       		.byte	0xc
 1231 06c3 00       		.byte	0
 1232 06c4 09       		.uleb128 0x9
 1233 06c5 04       		.byte	0x4
 1234 06c6 93060000 		.4byte	0x693
 1235 06ca 09       		.uleb128 0x9
 1236 06cb 04       		.byte	0x4
 1237 06cc D0060000 		.4byte	0x6d0
 1238 06d0 13       		.uleb128 0x13
 1239 06d1 D5060000 		.4byte	0x6d5
 1240 06d5 03       		.uleb128 0x3
 1241 06d6 01       		.byte	0x1
 1242 06d7 08       		.byte	0x8
 1243 06d8 23050000 		.4byte	.LASF102
 1244 06dc 14       		.uleb128 0x14
 1245 06dd 26010000 		.4byte	0x126
 1246 06e1 09       		.uleb128 0x9
 1247 06e2 04       		.byte	0x4
 1248 06e3 2B030000 		.4byte	0x32b
 1249 06e7 14       		.uleb128 0x14
 1250 06e8 CA060000 		.4byte	0x6ca
 1251 06ec 15       		.uleb128 0x15
 1252 06ed 71040000 		.4byte	0x471
 1253 06f1 FC060000 		.4byte	0x6fc
 1254 06f5 16       		.uleb128 0x16
ARM GAS  /var/folders/m4/4md61f0s1_g0rzfghffqnxvr0000gn/T//ccikS1yW.s 			page 23


 1255 06f6 5F040000 		.4byte	0x45f
 1256 06fa 3A       		.byte	0x3a
 1257 06fb 00       		.byte	0
 1258 06fc 04       		.uleb128 0x4
 1259 06fd 02020000 		.4byte	.LASF103
 1260 0701 0C       		.byte	0xc
 1261 0702 34       		.byte	0x34
 1262 0703 93060000 		.4byte	0x693
 1263 0707 09       		.uleb128 0x9
 1264 0708 04       		.byte	0x4
 1265 0709 FC060000 		.4byte	0x6fc
 1266 070d 03       		.uleb128 0x3
 1267 070e 01       		.byte	0x1
 1268 070f 02       		.byte	0x2
 1269 0710 1D040000 		.4byte	.LASF104
 1270 0714 17       		.uleb128 0x17
 1271 0715 01       		.byte	0x1
 1272 0716 0D       		.byte	0xd
 1273 0717 3F       		.byte	0x3f
 1274 0718 2F070000 		.4byte	0x72f
 1275 071c 18       		.uleb128 0x18
 1276 071d 9E030000 		.4byte	.LASF105
 1277 0721 00       		.sleb128 0
 1278 0722 18       		.uleb128 0x18
 1279 0723 1A050000 		.4byte	.LASF106
 1280 0727 01       		.sleb128 1
 1281 0728 18       		.uleb128 0x18
 1282 0729 FD020000 		.4byte	.LASF107
 1283 072d 02       		.sleb128 2
 1284 072e 00       		.byte	0
 1285 072f 04       		.uleb128 0x4
 1286 0730 34030000 		.4byte	.LASF108
 1287 0734 0D       		.byte	0xd
 1288 0735 43       		.byte	0x43
 1289 0736 14070000 		.4byte	0x714
 1290 073a 04       		.uleb128 0x4
 1291 073b DE060000 		.4byte	.LASF109
 1292 073f 0D       		.byte	0xd
 1293 0740 48       		.byte	0x48
 1294 0741 45070000 		.4byte	0x745
 1295 0745 05       		.uleb128 0x5
 1296 0746 DE060000 		.4byte	.LASF109
 1297 074a 08       		.byte	0x8
 1298 074b 0E       		.byte	0xe
 1299 074c 73       		.byte	0x73
 1300 074d 6A070000 		.4byte	0x76a
 1301 0751 06       		.uleb128 0x6
 1302 0752 9B010000 		.4byte	.LASF110
 1303 0756 0E       		.byte	0xe
 1304 0757 77       		.byte	0x77
 1305 0758 2F070000 		.4byte	0x72f
 1306 075c 00       		.byte	0
 1307 075d 06       		.uleb128 0x6
 1308 075e 2D050000 		.4byte	.LASF111
 1309 0762 0E       		.byte	0xe
 1310 0763 7B       		.byte	0x7b
 1311 0764 F7070000 		.4byte	0x7f7
ARM GAS  /var/folders/m4/4md61f0s1_g0rzfghffqnxvr0000gn/T//ccikS1yW.s 			page 24


 1312 0768 04       		.byte	0x4
 1313 0769 00       		.byte	0
 1314 076a 04       		.uleb128 0x4
 1315 076b 74000000 		.4byte	.LASF112
 1316 076f 0E       		.byte	0xe
 1317 0770 49       		.byte	0x49
 1318 0771 AD000000 		.4byte	0xad
 1319 0775 04       		.uleb128 0x4
 1320 0776 34050000 		.4byte	.LASF113
 1321 077a 0E       		.byte	0xe
 1322 077b 51       		.byte	0x51
 1323 077c 80070000 		.4byte	0x780
 1324 0780 09       		.uleb128 0x9
 1325 0781 04       		.byte	0x4
 1326 0782 86070000 		.4byte	0x786
 1327 0786 0B       		.uleb128 0xb
 1328 0787 96070000 		.4byte	0x796
 1329 078b 0C       		.uleb128 0xc
 1330 078c 96070000 		.4byte	0x796
 1331 0790 0C       		.uleb128 0xc
 1332 0791 6A070000 		.4byte	0x76a
 1333 0795 00       		.byte	0
 1334 0796 09       		.uleb128 0x9
 1335 0797 04       		.byte	0x4
 1336 0798 3A070000 		.4byte	0x73a
 1337 079c 10       		.uleb128 0x10
 1338 079d 08       		.byte	0x8
 1339 079e 0E       		.byte	0xe
 1340 079f 56       		.byte	0x56
 1341 07a0 BC070000 		.4byte	0x7bc
 1342 07a4 06       		.uleb128 0x6
 1343 07a5 28050000 		.4byte	.LASF114
 1344 07a9 0E       		.byte	0xe
 1345 07aa 5A       		.byte	0x5a
 1346 07ab AD000000 		.4byte	0xad
 1347 07af 00       		.byte	0
 1348 07b0 0F       		.uleb128 0xf
 1349 07b1 636200   		.ascii	"cb\000"
 1350 07b4 0E       		.byte	0xe
 1351 07b5 61       		.byte	0x61
 1352 07b6 75070000 		.4byte	0x775
 1353 07ba 04       		.byte	0x4
 1354 07bb 00       		.byte	0
 1355 07bc 04       		.uleb128 0x4
 1356 07bd CC010000 		.4byte	.LASF115
 1357 07c1 0E       		.byte	0xe
 1358 07c2 62       		.byte	0x62
 1359 07c3 9C070000 		.4byte	0x79c
 1360 07c7 10       		.uleb128 0x10
 1361 07c8 B8       		.byte	0xb8
 1362 07c9 0E       		.byte	0xe
 1363 07ca 68       		.byte	0x68
 1364 07cb DC070000 		.4byte	0x7dc
 1365 07cf 06       		.uleb128 0x6
 1366 07d0 A1010000 		.4byte	.LASF116
 1367 07d4 0E       		.byte	0xe
 1368 07d5 6C       		.byte	0x6c
ARM GAS  /var/folders/m4/4md61f0s1_g0rzfghffqnxvr0000gn/T//ccikS1yW.s 			page 25


 1369 07d6 DC070000 		.4byte	0x7dc
 1370 07da 00       		.byte	0
 1371 07db 00       		.byte	0
 1372 07dc 15       		.uleb128 0x15
 1373 07dd BC070000 		.4byte	0x7bc
 1374 07e1 EC070000 		.4byte	0x7ec
 1375 07e5 16       		.uleb128 0x16
 1376 07e6 5F040000 		.4byte	0x45f
 1377 07ea 16       		.byte	0x16
 1378 07eb 00       		.byte	0
 1379 07ec 04       		.uleb128 0x4
 1380 07ed 9D020000 		.4byte	.LASF117
 1381 07f1 0E       		.byte	0xe
 1382 07f2 6E       		.byte	0x6e
 1383 07f3 C7070000 		.4byte	0x7c7
 1384 07f7 09       		.uleb128 0x9
 1385 07f8 04       		.byte	0x4
 1386 07f9 FD070000 		.4byte	0x7fd
 1387 07fd 13       		.uleb128 0x13
 1388 07fe EC070000 		.4byte	0x7ec
 1389 0802 19       		.uleb128 0x19
 1390 0803 7B050000 		.4byte	.LASF121
 1391 0807 02       		.byte	0x2
 1392 0808 2202     		.2byte	0x222
 1393 080a 03       		.byte	0x3
 1394 080b 1C080000 		.4byte	0x81c
 1395 080f 1A       		.uleb128 0x1a
 1396 0810 0A020000 		.4byte	.LASF143
 1397 0814 02       		.byte	0x2
 1398 0815 2202     		.2byte	0x222
 1399 0817 AD000000 		.4byte	0xad
 1400 081b 00       		.byte	0
 1401 081c 1B       		.uleb128 0x1b
 1402 081d 9C000000 		.4byte	.LASF118
 1403 0821 09       		.byte	0x9
 1404 0822 C801     		.2byte	0x1c8
 1405 0824 03       		.byte	0x3
 1406 0825 1B       		.uleb128 0x1b
 1407 0826 78010000 		.4byte	.LASF119
 1408 082a 09       		.byte	0x9
 1409 082b E001     		.2byte	0x1e0
 1410 082d 03       		.byte	0x3
 1411 082e 1B       		.uleb128 0x1b
 1412 082f 8D040000 		.4byte	.LASF120
 1413 0833 0F       		.byte	0xf
 1414 0834 5A01     		.2byte	0x15a
 1415 0836 03       		.byte	0x3
 1416 0837 19       		.uleb128 0x19
 1417 0838 2F070000 		.4byte	.LASF122
 1418 083c 0F       		.byte	0xf
 1419 083d 6601     		.2byte	0x166
 1420 083f 03       		.byte	0x3
 1421 0840 52080000 		.4byte	0x852
 1422 0844 1C       		.uleb128 0x1c
 1423 0845 84040000 		.4byte	.LASF130
 1424 0849 62080000 		.4byte	0x862
 1425 084d 2F070000 		.4byte	.LASF122
ARM GAS  /var/folders/m4/4md61f0s1_g0rzfghffqnxvr0000gn/T//ccikS1yW.s 			page 26


 1426 0851 00       		.byte	0
 1427 0852 15       		.uleb128 0x15
 1428 0853 D5060000 		.4byte	0x6d5
 1429 0857 62080000 		.4byte	0x862
 1430 085b 16       		.uleb128 0x16
 1431 085c 5F040000 		.4byte	0x45f
 1432 0860 0B       		.byte	0xb
 1433 0861 00       		.byte	0
 1434 0862 13       		.uleb128 0x13
 1435 0863 52080000 		.4byte	0x852
 1436 0867 1B       		.uleb128 0x1b
 1437 0868 F6010000 		.4byte	.LASF123
 1438 086c 10       		.byte	0x10
 1439 086d EB01     		.2byte	0x1eb
 1440 086f 03       		.byte	0x3
 1441 0870 1B       		.uleb128 0x1b
 1442 0871 A1040000 		.4byte	.LASF124
 1443 0875 10       		.byte	0x10
 1444 0876 F601     		.2byte	0x1f6
 1445 0878 03       		.byte	0x3
 1446 0879 1D       		.uleb128 0x1d
 1447 087a 39040000 		.4byte	.LASF125
 1448 087e 01       		.byte	0x1
 1449 087f 38       		.byte	0x38
 1450 0880 00000000 		.4byte	.LFB268
 1451 0884 04000000 		.4byte	.LFE268-.LFB268
 1452 0888 01       		.uleb128 0x1
 1453 0889 9C       		.byte	0x9c
 1454 088a 98080000 		.4byte	0x898
 1455 088e 1E       		.uleb128 0x1e
 1456 088f 04000000 		.4byte	.LVL0
 1457 0893 9D0D0000 		.4byte	0xd9d
 1458 0897 00       		.byte	0
 1459 0898 1D       		.uleb128 0x1d
 1460 0899 53010000 		.4byte	.LASF126
 1461 089d 01       		.byte	0x1
 1462 089e 44       		.byte	0x44
 1463 089f 00000000 		.4byte	.LFB269
 1464 08a3 0A000000 		.4byte	.LFE269-.LFB269
 1465 08a7 01       		.uleb128 0x1
 1466 08a8 9C       		.byte	0x9c
 1467 08a9 BB080000 		.4byte	0x8bb
 1468 08ad 1F       		.uleb128 0x1f
 1469 08ae 4E010000 		.4byte	.LASF128
 1470 08b2 01       		.byte	0x1
 1471 08b3 44       		.byte	0x44
 1472 08b4 96070000 		.4byte	0x796
 1473 08b8 01       		.uleb128 0x1
 1474 08b9 50       		.byte	0x50
 1475 08ba 00       		.byte	0
 1476 08bb 1D       		.uleb128 0x1d
 1477 08bc 37010000 		.4byte	.LASF127
 1478 08c0 01       		.byte	0x1
 1479 08c1 54       		.byte	0x54
 1480 08c2 00000000 		.4byte	.LFB270
 1481 08c6 1C000000 		.4byte	.LFE270-.LFB270
 1482 08ca 01       		.uleb128 0x1
ARM GAS  /var/folders/m4/4md61f0s1_g0rzfghffqnxvr0000gn/T//ccikS1yW.s 			page 27


 1483 08cb 9C       		.byte	0x9c
 1484 08cc B1090000 		.4byte	0x9b1
 1485 08d0 20       		.uleb128 0x20
 1486 08d1 4E010000 		.4byte	.LASF128
 1487 08d5 01       		.byte	0x1
 1488 08d6 54       		.byte	0x54
 1489 08d7 96070000 		.4byte	0x796
 1490 08db 00000000 		.4byte	.LLST0
 1491 08df 20       		.uleb128 0x20
 1492 08e0 2D050000 		.4byte	.LASF111
 1493 08e4 01       		.byte	0x1
 1494 08e5 54       		.byte	0x54
 1495 08e6 F7070000 		.4byte	0x7f7
 1496 08ea 1E000000 		.4byte	.LLST1
 1497 08ee 21       		.uleb128 0x21
 1498 08ef 84040000 		.4byte	.LASF130
 1499 08f3 C1090000 		.4byte	0x9c1
 1500 08f7 22       		.uleb128 0x22
 1501 08f8 67080000 		.4byte	0x867
 1502 08fc 02000000 		.4byte	.LBB76
 1503 0900 00000000 		.4byte	.Ldebug_ranges0+0
 1504 0904 01       		.byte	0x1
 1505 0905 58       		.byte	0x58
 1506 0906 44090000 		.4byte	0x944
 1507 090a 23       		.uleb128 0x23
 1508 090b 2E080000 		.4byte	0x82e
 1509 090f 02000000 		.4byte	.LBB77
 1510 0913 00000000 		.4byte	.Ldebug_ranges0+0
 1511 0917 10       		.byte	0x10
 1512 0918 ED01     		.2byte	0x1ed
 1513 091a 23       		.uleb128 0x23
 1514 091b 1C080000 		.4byte	0x81c
 1515 091f 02000000 		.4byte	.LBB78
 1516 0923 00000000 		.4byte	.Ldebug_ranges0+0
 1517 0927 0F       		.byte	0xf
 1518 0928 5C01     		.2byte	0x15c
 1519 092a 23       		.uleb128 0x23
 1520 092b 02080000 		.4byte	0x802
 1521 092f 02000000 		.4byte	.LBB79
 1522 0933 00000000 		.4byte	.Ldebug_ranges0+0
 1523 0937 09       		.byte	0x9
 1524 0938 D001     		.2byte	0x1d0
 1525 093a 24       		.uleb128 0x24
 1526 093b 0F080000 		.4byte	0x80f
 1527 093f 20       		.byte	0x20
 1528 0940 00       		.byte	0
 1529 0941 00       		.byte	0
 1530 0942 00       		.byte	0
 1531 0943 00       		.byte	0
 1532 0944 25       		.uleb128 0x25
 1533 0945 70080000 		.4byte	0x870
 1534 0949 14000000 		.4byte	.LBB86
 1535 094d 08000000 		.4byte	.LBE86-.LBB86
 1536 0951 01       		.byte	0x1
 1537 0952 5E       		.byte	0x5e
 1538 0953 A0090000 		.4byte	0x9a0
 1539 0957 26       		.uleb128 0x26
ARM GAS  /var/folders/m4/4md61f0s1_g0rzfghffqnxvr0000gn/T//ccikS1yW.s 			page 28


 1540 0958 37080000 		.4byte	0x837
 1541 095c 14000000 		.4byte	.LBB87
 1542 0960 08000000 		.4byte	.LBE87-.LBB87
 1543 0964 10       		.byte	0x10
 1544 0965 F801     		.2byte	0x1f8
 1545 0967 27       		.uleb128 0x27
 1546 0968 14000000 		.4byte	.LBB88
 1547 096c 08000000 		.4byte	.LBE88-.LBB88
 1548 0970 28       		.uleb128 0x28
 1549 0971 44080000 		.4byte	0x844
 1550 0975 26       		.uleb128 0x26
 1551 0976 25080000 		.4byte	0x825
 1552 097a 14000000 		.4byte	.LBB89
 1553 097e 08000000 		.4byte	.LBE89-.LBB89
 1554 0982 0F       		.byte	0xf
 1555 0983 7301     		.2byte	0x173
 1556 0985 26       		.uleb128 0x26
 1557 0986 02080000 		.4byte	0x802
 1558 098a 14000000 		.4byte	.LBB90
 1559 098e 08000000 		.4byte	.LBE90-.LBB90
 1560 0992 09       		.byte	0x9
 1561 0993 E301     		.2byte	0x1e3
 1562 0995 24       		.uleb128 0x24
 1563 0996 0F080000 		.4byte	0x80f
 1564 099a 00       		.byte	0
 1565 099b 00       		.byte	0
 1566 099c 00       		.byte	0
 1567 099d 00       		.byte	0
 1568 099e 00       		.byte	0
 1569 099f 00       		.byte	0
 1570 09a0 29       		.uleb128 0x29
 1571 09a1 10000000 		.4byte	.LVL3
 1572 09a5 A40D0000 		.4byte	0xda4
 1573 09a9 2A       		.uleb128 0x2a
 1574 09aa 01       		.uleb128 0x1
 1575 09ab 50       		.byte	0x50
 1576 09ac 02       		.uleb128 0x2
 1577 09ad 74       		.byte	0x74
 1578 09ae 00       		.sleb128 0
 1579 09af 00       		.byte	0
 1580 09b0 00       		.byte	0
 1581 09b1 15       		.uleb128 0x15
 1582 09b2 D5060000 		.4byte	0x6d5
 1583 09b6 C1090000 		.4byte	0x9c1
 1584 09ba 16       		.uleb128 0x16
 1585 09bb 5F040000 		.4byte	0x45f
 1586 09bf 08       		.byte	0x8
 1587 09c0 00       		.byte	0
 1588 09c1 13       		.uleb128 0x13
 1589 09c2 B1090000 		.4byte	0x9b1
 1590 09c6 1D       		.uleb128 0x1d
 1591 09c7 5C020000 		.4byte	.LASF129
 1592 09cb 01       		.byte	0x1
 1593 09cc 68       		.byte	0x68
 1594 09cd 00000000 		.4byte	.LFB271
 1595 09d1 1A000000 		.4byte	.LFE271-.LFB271
 1596 09d5 01       		.uleb128 0x1
ARM GAS  /var/folders/m4/4md61f0s1_g0rzfghffqnxvr0000gn/T//ccikS1yW.s 			page 29


 1597 09d6 9C       		.byte	0x9c
 1598 09d7 AD0A0000 		.4byte	0xaad
 1599 09db 20       		.uleb128 0x20
 1600 09dc 4E010000 		.4byte	.LASF128
 1601 09e0 01       		.byte	0x1
 1602 09e1 68       		.byte	0x68
 1603 09e2 96070000 		.4byte	0x796
 1604 09e6 3F000000 		.4byte	.LLST2
 1605 09ea 21       		.uleb128 0x21
 1606 09eb 84040000 		.4byte	.LASF130
 1607 09ef BD0A0000 		.4byte	0xabd
 1608 09f3 22       		.uleb128 0x22
 1609 09f4 67080000 		.4byte	0x867
 1610 09f8 02000000 		.4byte	.LBB92
 1611 09fc 18000000 		.4byte	.Ldebug_ranges0+0x18
 1612 0a00 01       		.byte	0x1
 1613 0a01 6C       		.byte	0x6c
 1614 0a02 400A0000 		.4byte	0xa40
 1615 0a06 23       		.uleb128 0x23
 1616 0a07 2E080000 		.4byte	0x82e
 1617 0a0b 02000000 		.4byte	.LBB93
 1618 0a0f 18000000 		.4byte	.Ldebug_ranges0+0x18
 1619 0a13 10       		.byte	0x10
 1620 0a14 ED01     		.2byte	0x1ed
 1621 0a16 23       		.uleb128 0x23
 1622 0a17 1C080000 		.4byte	0x81c
 1623 0a1b 02000000 		.4byte	.LBB94
 1624 0a1f 18000000 		.4byte	.Ldebug_ranges0+0x18
 1625 0a23 0F       		.byte	0xf
 1626 0a24 5C01     		.2byte	0x15c
 1627 0a26 23       		.uleb128 0x23
 1628 0a27 02080000 		.4byte	0x802
 1629 0a2b 02000000 		.4byte	.LBB95
 1630 0a2f 18000000 		.4byte	.Ldebug_ranges0+0x18
 1631 0a33 09       		.byte	0x9
 1632 0a34 D001     		.2byte	0x1d0
 1633 0a36 24       		.uleb128 0x24
 1634 0a37 0F080000 		.4byte	0x80f
 1635 0a3b 20       		.byte	0x20
 1636 0a3c 00       		.byte	0
 1637 0a3d 00       		.byte	0
 1638 0a3e 00       		.byte	0
 1639 0a3f 00       		.byte	0
 1640 0a40 25       		.uleb128 0x25
 1641 0a41 70080000 		.4byte	0x870
 1642 0a45 12000000 		.4byte	.LBB102
 1643 0a49 08000000 		.4byte	.LBE102-.LBB102
 1644 0a4d 01       		.byte	0x1
 1645 0a4e 71       		.byte	0x71
 1646 0a4f 9C0A0000 		.4byte	0xa9c
 1647 0a53 26       		.uleb128 0x26
 1648 0a54 37080000 		.4byte	0x837
 1649 0a58 12000000 		.4byte	.LBB103
 1650 0a5c 08000000 		.4byte	.LBE103-.LBB103
 1651 0a60 10       		.byte	0x10
 1652 0a61 F801     		.2byte	0x1f8
 1653 0a63 27       		.uleb128 0x27
ARM GAS  /var/folders/m4/4md61f0s1_g0rzfghffqnxvr0000gn/T//ccikS1yW.s 			page 30


 1654 0a64 12000000 		.4byte	.LBB104
 1655 0a68 08000000 		.4byte	.LBE104-.LBB104
 1656 0a6c 28       		.uleb128 0x28
 1657 0a6d 44080000 		.4byte	0x844
 1658 0a71 26       		.uleb128 0x26
 1659 0a72 25080000 		.4byte	0x825
 1660 0a76 12000000 		.4byte	.LBB105
 1661 0a7a 08000000 		.4byte	.LBE105-.LBB105
 1662 0a7e 0F       		.byte	0xf
 1663 0a7f 7301     		.2byte	0x173
 1664 0a81 26       		.uleb128 0x26
 1665 0a82 02080000 		.4byte	0x802
 1666 0a86 12000000 		.4byte	.LBB106
 1667 0a8a 08000000 		.4byte	.LBE106-.LBB106
 1668 0a8e 09       		.byte	0x9
 1669 0a8f E301     		.2byte	0x1e3
 1670 0a91 24       		.uleb128 0x24
 1671 0a92 0F080000 		.4byte	0x80f
 1672 0a96 00       		.byte	0
 1673 0a97 00       		.byte	0
 1674 0a98 00       		.byte	0
 1675 0a99 00       		.byte	0
 1676 0a9a 00       		.byte	0
 1677 0a9b 00       		.byte	0
 1678 0a9c 29       		.uleb128 0x29
 1679 0a9d 0E000000 		.4byte	.LVL6
 1680 0aa1 B50D0000 		.4byte	0xdb5
 1681 0aa5 2A       		.uleb128 0x2a
 1682 0aa6 01       		.uleb128 0x1
 1683 0aa7 50       		.byte	0x50
 1684 0aa8 02       		.uleb128 0x2
 1685 0aa9 74       		.byte	0x74
 1686 0aaa 00       		.sleb128 0
 1687 0aab 00       		.byte	0
 1688 0aac 00       		.byte	0
 1689 0aad 15       		.uleb128 0x15
 1690 0aae D5060000 		.4byte	0x6d5
 1691 0ab2 BD0A0000 		.4byte	0xabd
 1692 0ab6 16       		.uleb128 0x16
 1693 0ab7 5F040000 		.4byte	0x45f
 1694 0abb 07       		.byte	0x7
 1695 0abc 00       		.byte	0
 1696 0abd 13       		.uleb128 0x13
 1697 0abe AD0A0000 		.4byte	0xaad
 1698 0ac2 1D       		.uleb128 0x1d
 1699 0ac3 CD060000 		.4byte	.LASF131
 1700 0ac7 01       		.byte	0x1
 1701 0ac8 7D       		.byte	0x7d
 1702 0ac9 00000000 		.4byte	.LFB272
 1703 0acd 14000000 		.4byte	.LFE272-.LFB272
 1704 0ad1 01       		.uleb128 0x1
 1705 0ad2 9C       		.byte	0x9c
 1706 0ad3 C00B0000 		.4byte	0xbc0
 1707 0ad7 20       		.uleb128 0x20
 1708 0ad8 4E010000 		.4byte	.LASF128
 1709 0adc 01       		.byte	0x1
 1710 0add 7D       		.byte	0x7d
ARM GAS  /var/folders/m4/4md61f0s1_g0rzfghffqnxvr0000gn/T//ccikS1yW.s 			page 31


 1711 0ade 96070000 		.4byte	0x796
 1712 0ae2 5D000000 		.4byte	.LLST3
 1713 0ae6 20       		.uleb128 0x20
 1714 0ae7 AF040000 		.4byte	.LASF132
 1715 0aeb 01       		.byte	0x1
 1716 0aec 7D       		.byte	0x7d
 1717 0aed 6A070000 		.4byte	0x76a
 1718 0af1 7E000000 		.4byte	.LLST4
 1719 0af5 21       		.uleb128 0x21
 1720 0af6 84040000 		.4byte	.LASF130
 1721 0afa D00B0000 		.4byte	0xbd0
 1722 0afe 25       		.uleb128 0x25
 1723 0aff 67080000 		.4byte	0x867
 1724 0b03 02000000 		.4byte	.LBB108
 1725 0b07 06000000 		.4byte	.LBE108-.LBB108
 1726 0b0b 01       		.byte	0x1
 1727 0b0c 81       		.byte	0x81
 1728 0b0d 4B0B0000 		.4byte	0xb4b
 1729 0b11 26       		.uleb128 0x26
 1730 0b12 2E080000 		.4byte	0x82e
 1731 0b16 02000000 		.4byte	.LBB109
 1732 0b1a 06000000 		.4byte	.LBE109-.LBB109
 1733 0b1e 10       		.byte	0x10
 1734 0b1f ED01     		.2byte	0x1ed
 1735 0b21 26       		.uleb128 0x26
 1736 0b22 1C080000 		.4byte	0x81c
 1737 0b26 02000000 		.4byte	.LBB110
 1738 0b2a 06000000 		.4byte	.LBE110-.LBB110
 1739 0b2e 0F       		.byte	0xf
 1740 0b2f 5C01     		.2byte	0x15c
 1741 0b31 26       		.uleb128 0x26
 1742 0b32 02080000 		.4byte	0x802
 1743 0b36 02000000 		.4byte	.LBB111
 1744 0b3a 06000000 		.4byte	.LBE111-.LBB111
 1745 0b3e 09       		.byte	0x9
 1746 0b3f D001     		.2byte	0x1d0
 1747 0b41 24       		.uleb128 0x24
 1748 0b42 0F080000 		.4byte	0x80f
 1749 0b46 20       		.byte	0x20
 1750 0b47 00       		.byte	0
 1751 0b48 00       		.byte	0
 1752 0b49 00       		.byte	0
 1753 0b4a 00       		.byte	0
 1754 0b4b 25       		.uleb128 0x25
 1755 0b4c 70080000 		.4byte	0x870
 1756 0b50 0C000000 		.4byte	.LBB113
 1757 0b54 08000000 		.4byte	.LBE113-.LBB113
 1758 0b58 01       		.byte	0x1
 1759 0b59 87       		.byte	0x87
 1760 0b5a A70B0000 		.4byte	0xba7
 1761 0b5e 26       		.uleb128 0x26
 1762 0b5f 37080000 		.4byte	0x837
 1763 0b63 0C000000 		.4byte	.LBB114
 1764 0b67 08000000 		.4byte	.LBE114-.LBB114
 1765 0b6b 10       		.byte	0x10
 1766 0b6c F801     		.2byte	0x1f8
 1767 0b6e 27       		.uleb128 0x27
ARM GAS  /var/folders/m4/4md61f0s1_g0rzfghffqnxvr0000gn/T//ccikS1yW.s 			page 32


 1768 0b6f 0C000000 		.4byte	.LBB115
 1769 0b73 08000000 		.4byte	.LBE115-.LBB115
 1770 0b77 28       		.uleb128 0x28
 1771 0b78 44080000 		.4byte	0x844
 1772 0b7c 26       		.uleb128 0x26
 1773 0b7d 25080000 		.4byte	0x825
 1774 0b81 0C000000 		.4byte	.LBB116
 1775 0b85 08000000 		.4byte	.LBE116-.LBB116
 1776 0b89 0F       		.byte	0xf
 1777 0b8a 7301     		.2byte	0x173
 1778 0b8c 26       		.uleb128 0x26
 1779 0b8d 02080000 		.4byte	0x802
 1780 0b91 0C000000 		.4byte	.LBB117
 1781 0b95 08000000 		.4byte	.LBE117-.LBB117
 1782 0b99 09       		.byte	0x9
 1783 0b9a E301     		.2byte	0x1e3
 1784 0b9c 24       		.uleb128 0x24
 1785 0b9d 0F080000 		.4byte	0x80f
 1786 0ba1 00       		.byte	0
 1787 0ba2 00       		.byte	0
 1788 0ba3 00       		.byte	0
 1789 0ba4 00       		.byte	0
 1790 0ba5 00       		.byte	0
 1791 0ba6 00       		.byte	0
 1792 0ba7 29       		.uleb128 0x29
 1793 0ba8 0C000000 		.4byte	.LVL9
 1794 0bac C60D0000 		.4byte	0xdc6
 1795 0bb0 2A       		.uleb128 0x2a
 1796 0bb1 01       		.uleb128 0x1
 1797 0bb2 51       		.byte	0x51
 1798 0bb3 03       		.uleb128 0x3
 1799 0bb4 F3       		.byte	0xf3
 1800 0bb5 01       		.uleb128 0x1
 1801 0bb6 51       		.byte	0x51
 1802 0bb7 2A       		.uleb128 0x2a
 1803 0bb8 01       		.uleb128 0x1
 1804 0bb9 50       		.byte	0x50
 1805 0bba 03       		.uleb128 0x3
 1806 0bbb F3       		.byte	0xf3
 1807 0bbc 01       		.uleb128 0x1
 1808 0bbd 50       		.byte	0x50
 1809 0bbe 00       		.byte	0
 1810 0bbf 00       		.byte	0
 1811 0bc0 15       		.uleb128 0x15
 1812 0bc1 D5060000 		.4byte	0x6d5
 1813 0bc5 D00B0000 		.4byte	0xbd0
 1814 0bc9 16       		.uleb128 0x16
 1815 0bca 5F040000 		.4byte	0x45f
 1816 0bce 10       		.byte	0x10
 1817 0bcf 00       		.byte	0
 1818 0bd0 13       		.uleb128 0x13
 1819 0bd1 C00B0000 		.4byte	0xbc0
 1820 0bd5 1D       		.uleb128 0x1d
 1821 0bd6 56030000 		.4byte	.LASF133
 1822 0bda 01       		.byte	0x1
 1823 0bdb 93       		.byte	0x93
 1824 0bdc 00000000 		.4byte	.LFB273
ARM GAS  /var/folders/m4/4md61f0s1_g0rzfghffqnxvr0000gn/T//ccikS1yW.s 			page 33


 1825 0be0 14000000 		.4byte	.LFE273-.LFB273
 1826 0be4 01       		.uleb128 0x1
 1827 0be5 9C       		.byte	0x9c
 1828 0be6 D30C0000 		.4byte	0xcd3
 1829 0bea 20       		.uleb128 0x20
 1830 0beb 4E010000 		.4byte	.LASF128
 1831 0bef 01       		.byte	0x1
 1832 0bf0 93       		.byte	0x93
 1833 0bf1 96070000 		.4byte	0x796
 1834 0bf5 9F000000 		.4byte	.LLST5
 1835 0bf9 20       		.uleb128 0x20
 1836 0bfa AF040000 		.4byte	.LASF132
 1837 0bfe 01       		.byte	0x1
 1838 0bff 93       		.byte	0x93
 1839 0c00 6A070000 		.4byte	0x76a
 1840 0c04 C0000000 		.4byte	.LLST6
 1841 0c08 21       		.uleb128 0x21
 1842 0c09 84040000 		.4byte	.LASF130
 1843 0c0d E30C0000 		.4byte	0xce3
 1844 0c11 25       		.uleb128 0x25
 1845 0c12 67080000 		.4byte	0x867
 1846 0c16 02000000 		.4byte	.LBB119
 1847 0c1a 06000000 		.4byte	.LBE119-.LBB119
 1848 0c1e 01       		.byte	0x1
 1849 0c1f 97       		.byte	0x97
 1850 0c20 5E0C0000 		.4byte	0xc5e
 1851 0c24 26       		.uleb128 0x26
 1852 0c25 2E080000 		.4byte	0x82e
 1853 0c29 02000000 		.4byte	.LBB120
 1854 0c2d 06000000 		.4byte	.LBE120-.LBB120
 1855 0c31 10       		.byte	0x10
 1856 0c32 ED01     		.2byte	0x1ed
 1857 0c34 26       		.uleb128 0x26
 1858 0c35 1C080000 		.4byte	0x81c
 1859 0c39 02000000 		.4byte	.LBB121
 1860 0c3d 06000000 		.4byte	.LBE121-.LBB121
 1861 0c41 0F       		.byte	0xf
 1862 0c42 5C01     		.2byte	0x15c
 1863 0c44 26       		.uleb128 0x26
 1864 0c45 02080000 		.4byte	0x802
 1865 0c49 02000000 		.4byte	.LBB122
 1866 0c4d 06000000 		.4byte	.LBE122-.LBB122
 1867 0c51 09       		.byte	0x9
 1868 0c52 D001     		.2byte	0x1d0
 1869 0c54 24       		.uleb128 0x24
 1870 0c55 0F080000 		.4byte	0x80f
 1871 0c59 20       		.byte	0x20
 1872 0c5a 00       		.byte	0
 1873 0c5b 00       		.byte	0
 1874 0c5c 00       		.byte	0
 1875 0c5d 00       		.byte	0
 1876 0c5e 25       		.uleb128 0x25
 1877 0c5f 70080000 		.4byte	0x870
 1878 0c63 0C000000 		.4byte	.LBB124
 1879 0c67 08000000 		.4byte	.LBE124-.LBB124
 1880 0c6b 01       		.byte	0x1
 1881 0c6c 9D       		.byte	0x9d
ARM GAS  /var/folders/m4/4md61f0s1_g0rzfghffqnxvr0000gn/T//ccikS1yW.s 			page 34


 1882 0c6d BA0C0000 		.4byte	0xcba
 1883 0c71 26       		.uleb128 0x26
 1884 0c72 37080000 		.4byte	0x837
 1885 0c76 0C000000 		.4byte	.LBB125
 1886 0c7a 08000000 		.4byte	.LBE125-.LBB125
 1887 0c7e 10       		.byte	0x10
 1888 0c7f F801     		.2byte	0x1f8
 1889 0c81 27       		.uleb128 0x27
 1890 0c82 0C000000 		.4byte	.LBB126
 1891 0c86 08000000 		.4byte	.LBE126-.LBB126
 1892 0c8a 28       		.uleb128 0x28
 1893 0c8b 44080000 		.4byte	0x844
 1894 0c8f 26       		.uleb128 0x26
 1895 0c90 25080000 		.4byte	0x825
 1896 0c94 0C000000 		.4byte	.LBB127
 1897 0c98 08000000 		.4byte	.LBE127-.LBB127
 1898 0c9c 0F       		.byte	0xf
 1899 0c9d 7301     		.2byte	0x173
 1900 0c9f 26       		.uleb128 0x26
 1901 0ca0 02080000 		.4byte	0x802
 1902 0ca4 0C000000 		.4byte	.LBB128
 1903 0ca8 08000000 		.4byte	.LBE128-.LBB128
 1904 0cac 09       		.byte	0x9
 1905 0cad E301     		.2byte	0x1e3
 1906 0caf 24       		.uleb128 0x24
 1907 0cb0 0F080000 		.4byte	0x80f
 1908 0cb4 00       		.byte	0
 1909 0cb5 00       		.byte	0
 1910 0cb6 00       		.byte	0
 1911 0cb7 00       		.byte	0
 1912 0cb8 00       		.byte	0
 1913 0cb9 00       		.byte	0
 1914 0cba 29       		.uleb128 0x29
 1915 0cbb 0C000000 		.4byte	.LVL11
 1916 0cbf DC0D0000 		.4byte	0xddc
 1917 0cc3 2A       		.uleb128 0x2a
 1918 0cc4 01       		.uleb128 0x1
 1919 0cc5 51       		.byte	0x51
 1920 0cc6 03       		.uleb128 0x3
 1921 0cc7 F3       		.byte	0xf3
 1922 0cc8 01       		.uleb128 0x1
 1923 0cc9 51       		.byte	0x51
 1924 0cca 2A       		.uleb128 0x2a
 1925 0ccb 01       		.uleb128 0x1
 1926 0ccc 50       		.byte	0x50
 1927 0ccd 03       		.uleb128 0x3
 1928 0cce F3       		.byte	0xf3
 1929 0ccf 01       		.uleb128 0x1
 1930 0cd0 50       		.byte	0x50
 1931 0cd1 00       		.byte	0
 1932 0cd2 00       		.byte	0
 1933 0cd3 15       		.uleb128 0x15
 1934 0cd4 D5060000 		.4byte	0x6d5
 1935 0cd8 E30C0000 		.4byte	0xce3
 1936 0cdc 16       		.uleb128 0x16
 1937 0cdd 5F040000 		.4byte	0x45f
 1938 0ce1 11       		.byte	0x11
ARM GAS  /var/folders/m4/4md61f0s1_g0rzfghffqnxvr0000gn/T//ccikS1yW.s 			page 35


 1939 0ce2 00       		.byte	0
 1940 0ce3 13       		.uleb128 0x13
 1941 0ce4 D30C0000 		.4byte	0xcd3
 1942 0ce8 1D       		.uleb128 0x1d
 1943 0ce9 A6000000 		.4byte	.LASF134
 1944 0ced 01       		.byte	0x1
 1945 0cee B1       		.byte	0xb1
 1946 0cef 00000000 		.4byte	.LFB274
 1947 0cf3 1E000000 		.4byte	.LFE274-.LFB274
 1948 0cf7 01       		.uleb128 0x1
 1949 0cf8 9C       		.byte	0x9c
 1950 0cf9 5B0D0000 		.4byte	0xd5b
 1951 0cfd 20       		.uleb128 0x20
 1952 0cfe 4E010000 		.4byte	.LASF128
 1953 0d02 01       		.byte	0x1
 1954 0d03 B1       		.byte	0xb1
 1955 0d04 96070000 		.4byte	0x796
 1956 0d08 E1000000 		.4byte	.LLST7
 1957 0d0c 20       		.uleb128 0x20
 1958 0d0d AF040000 		.4byte	.LASF132
 1959 0d11 01       		.byte	0x1
 1960 0d12 B2       		.byte	0xb2
 1961 0d13 6A070000 		.4byte	0x76a
 1962 0d17 18010000 		.4byte	.LLST8
 1963 0d1b 20       		.uleb128 0x20
 1964 0d1c 57070000 		.4byte	.LASF135
 1965 0d20 01       		.byte	0x1
 1966 0d21 B3       		.byte	0xb3
 1967 0d22 5B0D0000 		.4byte	0xd5b
 1968 0d26 4F010000 		.4byte	.LLST9
 1969 0d2a 2B       		.uleb128 0x2b
 1970 0d2b 12030000 		.4byte	.LASF144
 1971 0d2f 01       		.byte	0x1
 1972 0d30 B4       		.byte	0xb4
 1973 0d31 660D0000 		.4byte	0xd66
 1974 0d35 70010000 		.4byte	.LLST10
 1975 0d39 21       		.uleb128 0x21
 1976 0d3a 84040000 		.4byte	.LASF130
 1977 0d3e 7C0D0000 		.4byte	0xd7c
 1978 0d42 2C       		.uleb128 0x2c
 1979 0d43 1E000000 		.4byte	.LVL17
 1980 0d47 C60D0000 		.4byte	0xdc6
 1981 0d4b 2A       		.uleb128 0x2a
 1982 0d4c 01       		.uleb128 0x1
 1983 0d4d 51       		.byte	0x51
 1984 0d4e 03       		.uleb128 0x3
 1985 0d4f F3       		.byte	0xf3
 1986 0d50 01       		.uleb128 0x1
 1987 0d51 51       		.byte	0x51
 1988 0d52 2A       		.uleb128 0x2a
 1989 0d53 01       		.uleb128 0x1
 1990 0d54 50       		.byte	0x50
 1991 0d55 03       		.uleb128 0x3
 1992 0d56 F3       		.byte	0xf3
 1993 0d57 01       		.uleb128 0x1
 1994 0d58 50       		.byte	0x50
 1995 0d59 00       		.byte	0
ARM GAS  /var/folders/m4/4md61f0s1_g0rzfghffqnxvr0000gn/T//ccikS1yW.s 			page 36


 1996 0d5a 00       		.byte	0
 1997 0d5b 09       		.uleb128 0x9
 1998 0d5c 04       		.byte	0x4
 1999 0d5d 610D0000 		.4byte	0xd61
 2000 0d61 13       		.uleb128 0x13
 2001 0d62 BC070000 		.4byte	0x7bc
 2002 0d66 09       		.uleb128 0x9
 2003 0d67 04       		.byte	0x4
 2004 0d68 BC070000 		.4byte	0x7bc
 2005 0d6c 15       		.uleb128 0x15
 2006 0d6d D5060000 		.4byte	0x6d5
 2007 0d71 7C0D0000 		.4byte	0xd7c
 2008 0d75 16       		.uleb128 0x16
 2009 0d76 5F040000 		.4byte	0x45f
 2010 0d7a 12       		.byte	0x12
 2011 0d7b 00       		.byte	0
 2012 0d7c 13       		.uleb128 0x13
 2013 0d7d 6C0D0000 		.4byte	0xd6c
 2014 0d81 2D       		.uleb128 0x2d
 2015 0d82 FA000000 		.4byte	.LASF136
 2016 0d86 11       		.byte	0x11
 2017 0d87 FA06     		.2byte	0x6fa
 2018 0d89 8D0D0000 		.4byte	0xd8d
 2019 0d8d 14       		.uleb128 0x14
 2020 0d8e A2000000 		.4byte	0xa2
 2021 0d92 2E       		.uleb128 0x2e
 2022 0d93 636800   		.ascii	"ch\000"
 2023 0d96 07       		.byte	0x7
 2024 0d97 0902     		.2byte	0x209
 2025 0d99 F8030000 		.4byte	0x3f8
 2026 0d9d 2F       		.uleb128 0x2f
 2027 0d9e 8E010000 		.4byte	.LASF145
 2028 0da2 0E       		.byte	0xe
 2029 0da3 8E       		.byte	0x8e
 2030 0da4 30       		.uleb128 0x30
 2031 0da5 64020000 		.4byte	.LASF137
 2032 0da9 0E       		.byte	0xe
 2033 0daa 8F       		.byte	0x8f
 2034 0dab B50D0000 		.4byte	0xdb5
 2035 0daf 0C       		.uleb128 0xc
 2036 0db0 96070000 		.4byte	0x796
 2037 0db4 00       		.byte	0
 2038 0db5 30       		.uleb128 0x30
 2039 0db6 AD020000 		.4byte	.LASF138
 2040 0dba 0E       		.byte	0xe
 2041 0dbb 90       		.byte	0x90
 2042 0dbc C60D0000 		.4byte	0xdc6
 2043 0dc0 0C       		.uleb128 0xc
 2044 0dc1 96070000 		.4byte	0x796
 2045 0dc5 00       		.byte	0
 2046 0dc6 30       		.uleb128 0x30
 2047 0dc7 76030000 		.4byte	.LASF139
 2048 0dcb 0E       		.byte	0xe
 2049 0dcc 91       		.byte	0x91
 2050 0dcd DC0D0000 		.4byte	0xddc
 2051 0dd1 0C       		.uleb128 0xc
 2052 0dd2 96070000 		.4byte	0x796
ARM GAS  /var/folders/m4/4md61f0s1_g0rzfghffqnxvr0000gn/T//ccikS1yW.s 			page 37


 2053 0dd6 0C       		.uleb128 0xc
 2054 0dd7 6A070000 		.4byte	0x76a
 2055 0ddb 00       		.byte	0
 2056 0ddc 31       		.uleb128 0x31
 2057 0ddd 18010000 		.4byte	.LASF146
 2058 0de1 0E       		.byte	0xe
 2059 0de2 92       		.byte	0x92
 2060 0de3 0C       		.uleb128 0xc
 2061 0de4 96070000 		.4byte	0x796
 2062 0de8 0C       		.uleb128 0xc
 2063 0de9 6A070000 		.4byte	0x76a
 2064 0ded 00       		.byte	0
 2065 0dee 00       		.byte	0
 2066              		.section	.debug_abbrev,"",%progbits
 2067              	.Ldebug_abbrev0:
 2068 0000 01       		.uleb128 0x1
 2069 0001 11       		.uleb128 0x11
 2070 0002 01       		.byte	0x1
 2071 0003 25       		.uleb128 0x25
 2072 0004 0E       		.uleb128 0xe
 2073 0005 13       		.uleb128 0x13
 2074 0006 0B       		.uleb128 0xb
 2075 0007 03       		.uleb128 0x3
 2076 0008 0E       		.uleb128 0xe
 2077 0009 1B       		.uleb128 0x1b
 2078 000a 0E       		.uleb128 0xe
 2079 000b 55       		.uleb128 0x55
 2080 000c 17       		.uleb128 0x17
 2081 000d 11       		.uleb128 0x11
 2082 000e 01       		.uleb128 0x1
 2083 000f 10       		.uleb128 0x10
 2084 0010 17       		.uleb128 0x17
 2085 0011 00       		.byte	0
 2086 0012 00       		.byte	0
 2087 0013 02       		.uleb128 0x2
 2088 0014 24       		.uleb128 0x24
 2089 0015 00       		.byte	0
 2090 0016 0B       		.uleb128 0xb
 2091 0017 0B       		.uleb128 0xb
 2092 0018 3E       		.uleb128 0x3e
 2093 0019 0B       		.uleb128 0xb
 2094 001a 03       		.uleb128 0x3
 2095 001b 08       		.uleb128 0x8
 2096 001c 00       		.byte	0
 2097 001d 00       		.byte	0
 2098 001e 03       		.uleb128 0x3
 2099 001f 24       		.uleb128 0x24
 2100 0020 00       		.byte	0
 2101 0021 0B       		.uleb128 0xb
 2102 0022 0B       		.uleb128 0xb
 2103 0023 3E       		.uleb128 0x3e
 2104 0024 0B       		.uleb128 0xb
 2105 0025 03       		.uleb128 0x3
 2106 0026 0E       		.uleb128 0xe
 2107 0027 00       		.byte	0
 2108 0028 00       		.byte	0
 2109 0029 04       		.uleb128 0x4
ARM GAS  /var/folders/m4/4md61f0s1_g0rzfghffqnxvr0000gn/T//ccikS1yW.s 			page 38


 2110 002a 16       		.uleb128 0x16
 2111 002b 00       		.byte	0
 2112 002c 03       		.uleb128 0x3
 2113 002d 0E       		.uleb128 0xe
 2114 002e 3A       		.uleb128 0x3a
 2115 002f 0B       		.uleb128 0xb
 2116 0030 3B       		.uleb128 0x3b
 2117 0031 0B       		.uleb128 0xb
 2118 0032 49       		.uleb128 0x49
 2119 0033 13       		.uleb128 0x13
 2120 0034 00       		.byte	0
 2121 0035 00       		.byte	0
 2122 0036 05       		.uleb128 0x5
 2123 0037 13       		.uleb128 0x13
 2124 0038 01       		.byte	0x1
 2125 0039 03       		.uleb128 0x3
 2126 003a 0E       		.uleb128 0xe
 2127 003b 0B       		.uleb128 0xb
 2128 003c 0B       		.uleb128 0xb
 2129 003d 3A       		.uleb128 0x3a
 2130 003e 0B       		.uleb128 0xb
 2131 003f 3B       		.uleb128 0x3b
 2132 0040 0B       		.uleb128 0xb
 2133 0041 01       		.uleb128 0x1
 2134 0042 13       		.uleb128 0x13
 2135 0043 00       		.byte	0
 2136 0044 00       		.byte	0
 2137 0045 06       		.uleb128 0x6
 2138 0046 0D       		.uleb128 0xd
 2139 0047 00       		.byte	0
 2140 0048 03       		.uleb128 0x3
 2141 0049 0E       		.uleb128 0xe
 2142 004a 3A       		.uleb128 0x3a
 2143 004b 0B       		.uleb128 0xb
 2144 004c 3B       		.uleb128 0x3b
 2145 004d 0B       		.uleb128 0xb
 2146 004e 49       		.uleb128 0x49
 2147 004f 13       		.uleb128 0x13
 2148 0050 38       		.uleb128 0x38
 2149 0051 0B       		.uleb128 0xb
 2150 0052 00       		.byte	0
 2151 0053 00       		.byte	0
 2152 0054 07       		.uleb128 0x7
 2153 0055 0D       		.uleb128 0xd
 2154 0056 00       		.byte	0
 2155 0057 03       		.uleb128 0x3
 2156 0058 08       		.uleb128 0x8
 2157 0059 3A       		.uleb128 0x3a
 2158 005a 0B       		.uleb128 0xb
 2159 005b 3B       		.uleb128 0x3b
 2160 005c 05       		.uleb128 0x5
 2161 005d 49       		.uleb128 0x49
 2162 005e 13       		.uleb128 0x13
 2163 005f 38       		.uleb128 0x38
 2164 0060 0B       		.uleb128 0xb
 2165 0061 00       		.byte	0
 2166 0062 00       		.byte	0
ARM GAS  /var/folders/m4/4md61f0s1_g0rzfghffqnxvr0000gn/T//ccikS1yW.s 			page 39


 2167 0063 08       		.uleb128 0x8
 2168 0064 0D       		.uleb128 0xd
 2169 0065 00       		.byte	0
 2170 0066 03       		.uleb128 0x3
 2171 0067 0E       		.uleb128 0xe
 2172 0068 3A       		.uleb128 0x3a
 2173 0069 0B       		.uleb128 0xb
 2174 006a 3B       		.uleb128 0x3b
 2175 006b 05       		.uleb128 0x5
 2176 006c 49       		.uleb128 0x49
 2177 006d 13       		.uleb128 0x13
 2178 006e 38       		.uleb128 0x38
 2179 006f 0B       		.uleb128 0xb
 2180 0070 00       		.byte	0
 2181 0071 00       		.byte	0
 2182 0072 09       		.uleb128 0x9
 2183 0073 0F       		.uleb128 0xf
 2184 0074 00       		.byte	0
 2185 0075 0B       		.uleb128 0xb
 2186 0076 0B       		.uleb128 0xb
 2187 0077 49       		.uleb128 0x49
 2188 0078 13       		.uleb128 0x13
 2189 0079 00       		.byte	0
 2190 007a 00       		.byte	0
 2191 007b 0A       		.uleb128 0xa
 2192 007c 13       		.uleb128 0x13
 2193 007d 01       		.byte	0x1
 2194 007e 03       		.uleb128 0x3
 2195 007f 0E       		.uleb128 0xe
 2196 0080 0B       		.uleb128 0xb
 2197 0081 0B       		.uleb128 0xb
 2198 0082 3A       		.uleb128 0x3a
 2199 0083 0B       		.uleb128 0xb
 2200 0084 3B       		.uleb128 0x3b
 2201 0085 05       		.uleb128 0x5
 2202 0086 01       		.uleb128 0x1
 2203 0087 13       		.uleb128 0x13
 2204 0088 00       		.byte	0
 2205 0089 00       		.byte	0
 2206 008a 0B       		.uleb128 0xb
 2207 008b 15       		.uleb128 0x15
 2208 008c 01       		.byte	0x1
 2209 008d 27       		.uleb128 0x27
 2210 008e 19       		.uleb128 0x19
 2211 008f 01       		.uleb128 0x1
 2212 0090 13       		.uleb128 0x13
 2213 0091 00       		.byte	0
 2214 0092 00       		.byte	0
 2215 0093 0C       		.uleb128 0xc
 2216 0094 05       		.uleb128 0x5
 2217 0095 00       		.byte	0
 2218 0096 49       		.uleb128 0x49
 2219 0097 13       		.uleb128 0x13
 2220 0098 00       		.byte	0
 2221 0099 00       		.byte	0
 2222 009a 0D       		.uleb128 0xd
 2223 009b 0F       		.uleb128 0xf
ARM GAS  /var/folders/m4/4md61f0s1_g0rzfghffqnxvr0000gn/T//ccikS1yW.s 			page 40


 2224 009c 00       		.byte	0
 2225 009d 0B       		.uleb128 0xb
 2226 009e 0B       		.uleb128 0xb
 2227 009f 00       		.byte	0
 2228 00a0 00       		.byte	0
 2229 00a1 0E       		.uleb128 0xe
 2230 00a2 13       		.uleb128 0x13
 2231 00a3 01       		.byte	0x1
 2232 00a4 03       		.uleb128 0x3
 2233 00a5 0E       		.uleb128 0xe
 2234 00a6 0B       		.uleb128 0xb
 2235 00a7 05       		.uleb128 0x5
 2236 00a8 3A       		.uleb128 0x3a
 2237 00a9 0B       		.uleb128 0xb
 2238 00aa 3B       		.uleb128 0x3b
 2239 00ab 05       		.uleb128 0x5
 2240 00ac 01       		.uleb128 0x1
 2241 00ad 13       		.uleb128 0x13
 2242 00ae 00       		.byte	0
 2243 00af 00       		.byte	0
 2244 00b0 0F       		.uleb128 0xf
 2245 00b1 0D       		.uleb128 0xd
 2246 00b2 00       		.byte	0
 2247 00b3 03       		.uleb128 0x3
 2248 00b4 08       		.uleb128 0x8
 2249 00b5 3A       		.uleb128 0x3a
 2250 00b6 0B       		.uleb128 0xb
 2251 00b7 3B       		.uleb128 0x3b
 2252 00b8 0B       		.uleb128 0xb
 2253 00b9 49       		.uleb128 0x49
 2254 00ba 13       		.uleb128 0x13
 2255 00bb 38       		.uleb128 0x38
 2256 00bc 0B       		.uleb128 0xb
 2257 00bd 00       		.byte	0
 2258 00be 00       		.byte	0
 2259 00bf 10       		.uleb128 0x10
 2260 00c0 13       		.uleb128 0x13
 2261 00c1 01       		.byte	0x1
 2262 00c2 0B       		.uleb128 0xb
 2263 00c3 0B       		.uleb128 0xb
 2264 00c4 3A       		.uleb128 0x3a
 2265 00c5 0B       		.uleb128 0xb
 2266 00c6 3B       		.uleb128 0x3b
 2267 00c7 0B       		.uleb128 0xb
 2268 00c8 01       		.uleb128 0x1
 2269 00c9 13       		.uleb128 0x13
 2270 00ca 00       		.byte	0
 2271 00cb 00       		.byte	0
 2272 00cc 11       		.uleb128 0x11
 2273 00cd 17       		.uleb128 0x17
 2274 00ce 01       		.byte	0x1
 2275 00cf 0B       		.uleb128 0xb
 2276 00d0 0B       		.uleb128 0xb
 2277 00d1 3A       		.uleb128 0x3a
 2278 00d2 0B       		.uleb128 0xb
 2279 00d3 3B       		.uleb128 0x3b
 2280 00d4 0B       		.uleb128 0xb
ARM GAS  /var/folders/m4/4md61f0s1_g0rzfghffqnxvr0000gn/T//ccikS1yW.s 			page 41


 2281 00d5 01       		.uleb128 0x1
 2282 00d6 13       		.uleb128 0x13
 2283 00d7 00       		.byte	0
 2284 00d8 00       		.byte	0
 2285 00d9 12       		.uleb128 0x12
 2286 00da 0D       		.uleb128 0xd
 2287 00db 00       		.byte	0
 2288 00dc 03       		.uleb128 0x3
 2289 00dd 0E       		.uleb128 0xe
 2290 00de 3A       		.uleb128 0x3a
 2291 00df 0B       		.uleb128 0xb
 2292 00e0 3B       		.uleb128 0x3b
 2293 00e1 05       		.uleb128 0x5
 2294 00e2 49       		.uleb128 0x49
 2295 00e3 13       		.uleb128 0x13
 2296 00e4 00       		.byte	0
 2297 00e5 00       		.byte	0
 2298 00e6 13       		.uleb128 0x13
 2299 00e7 26       		.uleb128 0x26
 2300 00e8 00       		.byte	0
 2301 00e9 49       		.uleb128 0x49
 2302 00ea 13       		.uleb128 0x13
 2303 00eb 00       		.byte	0
 2304 00ec 00       		.byte	0
 2305 00ed 14       		.uleb128 0x14
 2306 00ee 35       		.uleb128 0x35
 2307 00ef 00       		.byte	0
 2308 00f0 49       		.uleb128 0x49
 2309 00f1 13       		.uleb128 0x13
 2310 00f2 00       		.byte	0
 2311 00f3 00       		.byte	0
 2312 00f4 15       		.uleb128 0x15
 2313 00f5 01       		.uleb128 0x1
 2314 00f6 01       		.byte	0x1
 2315 00f7 49       		.uleb128 0x49
 2316 00f8 13       		.uleb128 0x13
 2317 00f9 01       		.uleb128 0x1
 2318 00fa 13       		.uleb128 0x13
 2319 00fb 00       		.byte	0
 2320 00fc 00       		.byte	0
 2321 00fd 16       		.uleb128 0x16
 2322 00fe 21       		.uleb128 0x21
 2323 00ff 00       		.byte	0
 2324 0100 49       		.uleb128 0x49
 2325 0101 13       		.uleb128 0x13
 2326 0102 2F       		.uleb128 0x2f
 2327 0103 0B       		.uleb128 0xb
 2328 0104 00       		.byte	0
 2329 0105 00       		.byte	0
 2330 0106 17       		.uleb128 0x17
 2331 0107 04       		.uleb128 0x4
 2332 0108 01       		.byte	0x1
 2333 0109 0B       		.uleb128 0xb
 2334 010a 0B       		.uleb128 0xb
 2335 010b 3A       		.uleb128 0x3a
 2336 010c 0B       		.uleb128 0xb
 2337 010d 3B       		.uleb128 0x3b
ARM GAS  /var/folders/m4/4md61f0s1_g0rzfghffqnxvr0000gn/T//ccikS1yW.s 			page 42


 2338 010e 0B       		.uleb128 0xb
 2339 010f 01       		.uleb128 0x1
 2340 0110 13       		.uleb128 0x13
 2341 0111 00       		.byte	0
 2342 0112 00       		.byte	0
 2343 0113 18       		.uleb128 0x18
 2344 0114 28       		.uleb128 0x28
 2345 0115 00       		.byte	0
 2346 0116 03       		.uleb128 0x3
 2347 0117 0E       		.uleb128 0xe
 2348 0118 1C       		.uleb128 0x1c
 2349 0119 0D       		.uleb128 0xd
 2350 011a 00       		.byte	0
 2351 011b 00       		.byte	0
 2352 011c 19       		.uleb128 0x19
 2353 011d 2E       		.uleb128 0x2e
 2354 011e 01       		.byte	0x1
 2355 011f 03       		.uleb128 0x3
 2356 0120 0E       		.uleb128 0xe
 2357 0121 3A       		.uleb128 0x3a
 2358 0122 0B       		.uleb128 0xb
 2359 0123 3B       		.uleb128 0x3b
 2360 0124 05       		.uleb128 0x5
 2361 0125 27       		.uleb128 0x27
 2362 0126 19       		.uleb128 0x19
 2363 0127 20       		.uleb128 0x20
 2364 0128 0B       		.uleb128 0xb
 2365 0129 01       		.uleb128 0x1
 2366 012a 13       		.uleb128 0x13
 2367 012b 00       		.byte	0
 2368 012c 00       		.byte	0
 2369 012d 1A       		.uleb128 0x1a
 2370 012e 05       		.uleb128 0x5
 2371 012f 00       		.byte	0
 2372 0130 03       		.uleb128 0x3
 2373 0131 0E       		.uleb128 0xe
 2374 0132 3A       		.uleb128 0x3a
 2375 0133 0B       		.uleb128 0xb
 2376 0134 3B       		.uleb128 0x3b
 2377 0135 05       		.uleb128 0x5
 2378 0136 49       		.uleb128 0x49
 2379 0137 13       		.uleb128 0x13
 2380 0138 00       		.byte	0
 2381 0139 00       		.byte	0
 2382 013a 1B       		.uleb128 0x1b
 2383 013b 2E       		.uleb128 0x2e
 2384 013c 00       		.byte	0
 2385 013d 03       		.uleb128 0x3
 2386 013e 0E       		.uleb128 0xe
 2387 013f 3A       		.uleb128 0x3a
 2388 0140 0B       		.uleb128 0xb
 2389 0141 3B       		.uleb128 0x3b
 2390 0142 05       		.uleb128 0x5
 2391 0143 27       		.uleb128 0x27
 2392 0144 19       		.uleb128 0x19
 2393 0145 20       		.uleb128 0x20
 2394 0146 0B       		.uleb128 0xb
ARM GAS  /var/folders/m4/4md61f0s1_g0rzfghffqnxvr0000gn/T//ccikS1yW.s 			page 43


 2395 0147 00       		.byte	0
 2396 0148 00       		.byte	0
 2397 0149 1C       		.uleb128 0x1c
 2398 014a 34       		.uleb128 0x34
 2399 014b 00       		.byte	0
 2400 014c 03       		.uleb128 0x3
 2401 014d 0E       		.uleb128 0xe
 2402 014e 49       		.uleb128 0x49
 2403 014f 13       		.uleb128 0x13
 2404 0150 34       		.uleb128 0x34
 2405 0151 19       		.uleb128 0x19
 2406 0152 1C       		.uleb128 0x1c
 2407 0153 0E       		.uleb128 0xe
 2408 0154 00       		.byte	0
 2409 0155 00       		.byte	0
 2410 0156 1D       		.uleb128 0x1d
 2411 0157 2E       		.uleb128 0x2e
 2412 0158 01       		.byte	0x1
 2413 0159 3F       		.uleb128 0x3f
 2414 015a 19       		.uleb128 0x19
 2415 015b 03       		.uleb128 0x3
 2416 015c 0E       		.uleb128 0xe
 2417 015d 3A       		.uleb128 0x3a
 2418 015e 0B       		.uleb128 0xb
 2419 015f 3B       		.uleb128 0x3b
 2420 0160 0B       		.uleb128 0xb
 2421 0161 27       		.uleb128 0x27
 2422 0162 19       		.uleb128 0x19
 2423 0163 11       		.uleb128 0x11
 2424 0164 01       		.uleb128 0x1
 2425 0165 12       		.uleb128 0x12
 2426 0166 06       		.uleb128 0x6
 2427 0167 40       		.uleb128 0x40
 2428 0168 18       		.uleb128 0x18
 2429 0169 9742     		.uleb128 0x2117
 2430 016b 19       		.uleb128 0x19
 2431 016c 01       		.uleb128 0x1
 2432 016d 13       		.uleb128 0x13
 2433 016e 00       		.byte	0
 2434 016f 00       		.byte	0
 2435 0170 1E       		.uleb128 0x1e
 2436 0171 898201   		.uleb128 0x4109
 2437 0174 00       		.byte	0
 2438 0175 11       		.uleb128 0x11
 2439 0176 01       		.uleb128 0x1
 2440 0177 9542     		.uleb128 0x2115
 2441 0179 19       		.uleb128 0x19
 2442 017a 31       		.uleb128 0x31
 2443 017b 13       		.uleb128 0x13
 2444 017c 00       		.byte	0
 2445 017d 00       		.byte	0
 2446 017e 1F       		.uleb128 0x1f
 2447 017f 05       		.uleb128 0x5
 2448 0180 00       		.byte	0
 2449 0181 03       		.uleb128 0x3
 2450 0182 0E       		.uleb128 0xe
 2451 0183 3A       		.uleb128 0x3a
ARM GAS  /var/folders/m4/4md61f0s1_g0rzfghffqnxvr0000gn/T//ccikS1yW.s 			page 44


 2452 0184 0B       		.uleb128 0xb
 2453 0185 3B       		.uleb128 0x3b
 2454 0186 0B       		.uleb128 0xb
 2455 0187 49       		.uleb128 0x49
 2456 0188 13       		.uleb128 0x13
 2457 0189 02       		.uleb128 0x2
 2458 018a 18       		.uleb128 0x18
 2459 018b 00       		.byte	0
 2460 018c 00       		.byte	0
 2461 018d 20       		.uleb128 0x20
 2462 018e 05       		.uleb128 0x5
 2463 018f 00       		.byte	0
 2464 0190 03       		.uleb128 0x3
 2465 0191 0E       		.uleb128 0xe
 2466 0192 3A       		.uleb128 0x3a
 2467 0193 0B       		.uleb128 0xb
 2468 0194 3B       		.uleb128 0x3b
 2469 0195 0B       		.uleb128 0xb
 2470 0196 49       		.uleb128 0x49
 2471 0197 13       		.uleb128 0x13
 2472 0198 02       		.uleb128 0x2
 2473 0199 17       		.uleb128 0x17
 2474 019a 00       		.byte	0
 2475 019b 00       		.byte	0
 2476 019c 21       		.uleb128 0x21
 2477 019d 34       		.uleb128 0x34
 2478 019e 00       		.byte	0
 2479 019f 03       		.uleb128 0x3
 2480 01a0 0E       		.uleb128 0xe
 2481 01a1 49       		.uleb128 0x49
 2482 01a2 13       		.uleb128 0x13
 2483 01a3 34       		.uleb128 0x34
 2484 01a4 19       		.uleb128 0x19
 2485 01a5 00       		.byte	0
 2486 01a6 00       		.byte	0
 2487 01a7 22       		.uleb128 0x22
 2488 01a8 1D       		.uleb128 0x1d
 2489 01a9 01       		.byte	0x1
 2490 01aa 31       		.uleb128 0x31
 2491 01ab 13       		.uleb128 0x13
 2492 01ac 52       		.uleb128 0x52
 2493 01ad 01       		.uleb128 0x1
 2494 01ae 55       		.uleb128 0x55
 2495 01af 17       		.uleb128 0x17
 2496 01b0 58       		.uleb128 0x58
 2497 01b1 0B       		.uleb128 0xb
 2498 01b2 59       		.uleb128 0x59
 2499 01b3 0B       		.uleb128 0xb
 2500 01b4 01       		.uleb128 0x1
 2501 01b5 13       		.uleb128 0x13
 2502 01b6 00       		.byte	0
 2503 01b7 00       		.byte	0
 2504 01b8 23       		.uleb128 0x23
 2505 01b9 1D       		.uleb128 0x1d
 2506 01ba 01       		.byte	0x1
 2507 01bb 31       		.uleb128 0x31
 2508 01bc 13       		.uleb128 0x13
ARM GAS  /var/folders/m4/4md61f0s1_g0rzfghffqnxvr0000gn/T//ccikS1yW.s 			page 45


 2509 01bd 52       		.uleb128 0x52
 2510 01be 01       		.uleb128 0x1
 2511 01bf 55       		.uleb128 0x55
 2512 01c0 17       		.uleb128 0x17
 2513 01c1 58       		.uleb128 0x58
 2514 01c2 0B       		.uleb128 0xb
 2515 01c3 59       		.uleb128 0x59
 2516 01c4 05       		.uleb128 0x5
 2517 01c5 00       		.byte	0
 2518 01c6 00       		.byte	0
 2519 01c7 24       		.uleb128 0x24
 2520 01c8 05       		.uleb128 0x5
 2521 01c9 00       		.byte	0
 2522 01ca 31       		.uleb128 0x31
 2523 01cb 13       		.uleb128 0x13
 2524 01cc 1C       		.uleb128 0x1c
 2525 01cd 0B       		.uleb128 0xb
 2526 01ce 00       		.byte	0
 2527 01cf 00       		.byte	0
 2528 01d0 25       		.uleb128 0x25
 2529 01d1 1D       		.uleb128 0x1d
 2530 01d2 01       		.byte	0x1
 2531 01d3 31       		.uleb128 0x31
 2532 01d4 13       		.uleb128 0x13
 2533 01d5 11       		.uleb128 0x11
 2534 01d6 01       		.uleb128 0x1
 2535 01d7 12       		.uleb128 0x12
 2536 01d8 06       		.uleb128 0x6
 2537 01d9 58       		.uleb128 0x58
 2538 01da 0B       		.uleb128 0xb
 2539 01db 59       		.uleb128 0x59
 2540 01dc 0B       		.uleb128 0xb
 2541 01dd 01       		.uleb128 0x1
 2542 01de 13       		.uleb128 0x13
 2543 01df 00       		.byte	0
 2544 01e0 00       		.byte	0
 2545 01e1 26       		.uleb128 0x26
 2546 01e2 1D       		.uleb128 0x1d
 2547 01e3 01       		.byte	0x1
 2548 01e4 31       		.uleb128 0x31
 2549 01e5 13       		.uleb128 0x13
 2550 01e6 11       		.uleb128 0x11
 2551 01e7 01       		.uleb128 0x1
 2552 01e8 12       		.uleb128 0x12
 2553 01e9 06       		.uleb128 0x6
 2554 01ea 58       		.uleb128 0x58
 2555 01eb 0B       		.uleb128 0xb
 2556 01ec 59       		.uleb128 0x59
 2557 01ed 05       		.uleb128 0x5
 2558 01ee 00       		.byte	0
 2559 01ef 00       		.byte	0
 2560 01f0 27       		.uleb128 0x27
 2561 01f1 0B       		.uleb128 0xb
 2562 01f2 01       		.byte	0x1
 2563 01f3 11       		.uleb128 0x11
 2564 01f4 01       		.uleb128 0x1
 2565 01f5 12       		.uleb128 0x12
ARM GAS  /var/folders/m4/4md61f0s1_g0rzfghffqnxvr0000gn/T//ccikS1yW.s 			page 46


 2566 01f6 06       		.uleb128 0x6
 2567 01f7 00       		.byte	0
 2568 01f8 00       		.byte	0
 2569 01f9 28       		.uleb128 0x28
 2570 01fa 34       		.uleb128 0x34
 2571 01fb 00       		.byte	0
 2572 01fc 31       		.uleb128 0x31
 2573 01fd 13       		.uleb128 0x13
 2574 01fe 00       		.byte	0
 2575 01ff 00       		.byte	0
 2576 0200 29       		.uleb128 0x29
 2577 0201 898201   		.uleb128 0x4109
 2578 0204 01       		.byte	0x1
 2579 0205 11       		.uleb128 0x11
 2580 0206 01       		.uleb128 0x1
 2581 0207 31       		.uleb128 0x31
 2582 0208 13       		.uleb128 0x13
 2583 0209 00       		.byte	0
 2584 020a 00       		.byte	0
 2585 020b 2A       		.uleb128 0x2a
 2586 020c 8A8201   		.uleb128 0x410a
 2587 020f 00       		.byte	0
 2588 0210 02       		.uleb128 0x2
 2589 0211 18       		.uleb128 0x18
 2590 0212 9142     		.uleb128 0x2111
 2591 0214 18       		.uleb128 0x18
 2592 0215 00       		.byte	0
 2593 0216 00       		.byte	0
 2594 0217 2B       		.uleb128 0x2b
 2595 0218 34       		.uleb128 0x34
 2596 0219 00       		.byte	0
 2597 021a 03       		.uleb128 0x3
 2598 021b 0E       		.uleb128 0xe
 2599 021c 3A       		.uleb128 0x3a
 2600 021d 0B       		.uleb128 0xb
 2601 021e 3B       		.uleb128 0x3b
 2602 021f 0B       		.uleb128 0xb
 2603 0220 49       		.uleb128 0x49
 2604 0221 13       		.uleb128 0x13
 2605 0222 02       		.uleb128 0x2
 2606 0223 17       		.uleb128 0x17
 2607 0224 00       		.byte	0
 2608 0225 00       		.byte	0
 2609 0226 2C       		.uleb128 0x2c
 2610 0227 898201   		.uleb128 0x4109
 2611 022a 01       		.byte	0x1
 2612 022b 11       		.uleb128 0x11
 2613 022c 01       		.uleb128 0x1
 2614 022d 9542     		.uleb128 0x2115
 2615 022f 19       		.uleb128 0x19
 2616 0230 31       		.uleb128 0x31
 2617 0231 13       		.uleb128 0x13
 2618 0232 00       		.byte	0
 2619 0233 00       		.byte	0
 2620 0234 2D       		.uleb128 0x2d
 2621 0235 34       		.uleb128 0x34
 2622 0236 00       		.byte	0
ARM GAS  /var/folders/m4/4md61f0s1_g0rzfghffqnxvr0000gn/T//ccikS1yW.s 			page 47


 2623 0237 03       		.uleb128 0x3
 2624 0238 0E       		.uleb128 0xe
 2625 0239 3A       		.uleb128 0x3a
 2626 023a 0B       		.uleb128 0xb
 2627 023b 3B       		.uleb128 0x3b
 2628 023c 05       		.uleb128 0x5
 2629 023d 49       		.uleb128 0x49
 2630 023e 13       		.uleb128 0x13
 2631 023f 3F       		.uleb128 0x3f
 2632 0240 19       		.uleb128 0x19
 2633 0241 3C       		.uleb128 0x3c
 2634 0242 19       		.uleb128 0x19
 2635 0243 00       		.byte	0
 2636 0244 00       		.byte	0
 2637 0245 2E       		.uleb128 0x2e
 2638 0246 34       		.uleb128 0x34
 2639 0247 00       		.byte	0
 2640 0248 03       		.uleb128 0x3
 2641 0249 08       		.uleb128 0x8
 2642 024a 3A       		.uleb128 0x3a
 2643 024b 0B       		.uleb128 0xb
 2644 024c 3B       		.uleb128 0x3b
 2645 024d 05       		.uleb128 0x5
 2646 024e 49       		.uleb128 0x49
 2647 024f 13       		.uleb128 0x13
 2648 0250 3F       		.uleb128 0x3f
 2649 0251 19       		.uleb128 0x19
 2650 0252 3C       		.uleb128 0x3c
 2651 0253 19       		.uleb128 0x19
 2652 0254 00       		.byte	0
 2653 0255 00       		.byte	0
 2654 0256 2F       		.uleb128 0x2f
 2655 0257 2E       		.uleb128 0x2e
 2656 0258 00       		.byte	0
 2657 0259 3F       		.uleb128 0x3f
 2658 025a 19       		.uleb128 0x19
 2659 025b 03       		.uleb128 0x3
 2660 025c 0E       		.uleb128 0xe
 2661 025d 3A       		.uleb128 0x3a
 2662 025e 0B       		.uleb128 0xb
 2663 025f 3B       		.uleb128 0x3b
 2664 0260 0B       		.uleb128 0xb
 2665 0261 27       		.uleb128 0x27
 2666 0262 19       		.uleb128 0x19
 2667 0263 3C       		.uleb128 0x3c
 2668 0264 19       		.uleb128 0x19
 2669 0265 00       		.byte	0
 2670 0266 00       		.byte	0
 2671 0267 30       		.uleb128 0x30
 2672 0268 2E       		.uleb128 0x2e
 2673 0269 01       		.byte	0x1
 2674 026a 3F       		.uleb128 0x3f
 2675 026b 19       		.uleb128 0x19
 2676 026c 03       		.uleb128 0x3
 2677 026d 0E       		.uleb128 0xe
 2678 026e 3A       		.uleb128 0x3a
 2679 026f 0B       		.uleb128 0xb
ARM GAS  /var/folders/m4/4md61f0s1_g0rzfghffqnxvr0000gn/T//ccikS1yW.s 			page 48


 2680 0270 3B       		.uleb128 0x3b
 2681 0271 0B       		.uleb128 0xb
 2682 0272 27       		.uleb128 0x27
 2683 0273 19       		.uleb128 0x19
 2684 0274 3C       		.uleb128 0x3c
 2685 0275 19       		.uleb128 0x19
 2686 0276 01       		.uleb128 0x1
 2687 0277 13       		.uleb128 0x13
 2688 0278 00       		.byte	0
 2689 0279 00       		.byte	0
 2690 027a 31       		.uleb128 0x31
 2691 027b 2E       		.uleb128 0x2e
 2692 027c 01       		.byte	0x1
 2693 027d 3F       		.uleb128 0x3f
 2694 027e 19       		.uleb128 0x19
 2695 027f 03       		.uleb128 0x3
 2696 0280 0E       		.uleb128 0xe
 2697 0281 3A       		.uleb128 0x3a
 2698 0282 0B       		.uleb128 0xb
 2699 0283 3B       		.uleb128 0x3b
 2700 0284 0B       		.uleb128 0xb
 2701 0285 27       		.uleb128 0x27
 2702 0286 19       		.uleb128 0x19
 2703 0287 3C       		.uleb128 0x3c
 2704 0288 19       		.uleb128 0x19
 2705 0289 00       		.byte	0
 2706 028a 00       		.byte	0
 2707 028b 00       		.byte	0
 2708              		.section	.debug_loc,"",%progbits
 2709              	.Ldebug_loc0:
 2710              	.LLST0:
 2711 0000 00000000 		.4byte	.LVL2
 2712 0004 0F000000 		.4byte	.LVL3-1
 2713 0008 0100     		.2byte	0x1
 2714 000a 50       		.byte	0x50
 2715 000b 0F000000 		.4byte	.LVL3-1
 2716 000f 1C000000 		.4byte	.LFE270
 2717 0013 0100     		.2byte	0x1
 2718 0015 54       		.byte	0x54
 2719 0016 00000000 		.4byte	0
 2720 001a 00000000 		.4byte	0
 2721              	.LLST1:
 2722 001e 00000000 		.4byte	.LVL2
 2723 0022 0F000000 		.4byte	.LVL3-1
 2724 0026 0100     		.2byte	0x1
 2725 0028 51       		.byte	0x51
 2726 0029 0F000000 		.4byte	.LVL3-1
 2727 002d 1C000000 		.4byte	.LFE270
 2728 0031 0400     		.2byte	0x4
 2729 0033 F3       		.byte	0xf3
 2730 0034 01       		.uleb128 0x1
 2731 0035 51       		.byte	0x51
 2732 0036 9F       		.byte	0x9f
 2733 0037 00000000 		.4byte	0
 2734 003b 00000000 		.4byte	0
 2735              	.LLST2:
 2736 003f 00000000 		.4byte	.LVL5
ARM GAS  /var/folders/m4/4md61f0s1_g0rzfghffqnxvr0000gn/T//ccikS1yW.s 			page 49


 2737 0043 0D000000 		.4byte	.LVL6-1
 2738 0047 0100     		.2byte	0x1
 2739 0049 50       		.byte	0x50
 2740 004a 0D000000 		.4byte	.LVL6-1
 2741 004e 1A000000 		.4byte	.LFE271
 2742 0052 0100     		.2byte	0x1
 2743 0054 54       		.byte	0x54
 2744 0055 00000000 		.4byte	0
 2745 0059 00000000 		.4byte	0
 2746              	.LLST3:
 2747 005d 00000000 		.4byte	.LVL8
 2748 0061 0B000000 		.4byte	.LVL9-1
 2749 0065 0100     		.2byte	0x1
 2750 0067 50       		.byte	0x50
 2751 0068 0B000000 		.4byte	.LVL9-1
 2752 006c 14000000 		.4byte	.LFE272
 2753 0070 0400     		.2byte	0x4
 2754 0072 F3       		.byte	0xf3
 2755 0073 01       		.uleb128 0x1
 2756 0074 50       		.byte	0x50
 2757 0075 9F       		.byte	0x9f
 2758 0076 00000000 		.4byte	0
 2759 007a 00000000 		.4byte	0
 2760              	.LLST4:
 2761 007e 00000000 		.4byte	.LVL8
 2762 0082 0B000000 		.4byte	.LVL9-1
 2763 0086 0100     		.2byte	0x1
 2764 0088 51       		.byte	0x51
 2765 0089 0B000000 		.4byte	.LVL9-1
 2766 008d 14000000 		.4byte	.LFE272
 2767 0091 0400     		.2byte	0x4
 2768 0093 F3       		.byte	0xf3
 2769 0094 01       		.uleb128 0x1
 2770 0095 51       		.byte	0x51
 2771 0096 9F       		.byte	0x9f
 2772 0097 00000000 		.4byte	0
 2773 009b 00000000 		.4byte	0
 2774              	.LLST5:
 2775 009f 00000000 		.4byte	.LVL10
 2776 00a3 0B000000 		.4byte	.LVL11-1
 2777 00a7 0100     		.2byte	0x1
 2778 00a9 50       		.byte	0x50
 2779 00aa 0B000000 		.4byte	.LVL11-1
 2780 00ae 14000000 		.4byte	.LFE273
 2781 00b2 0400     		.2byte	0x4
 2782 00b4 F3       		.byte	0xf3
 2783 00b5 01       		.uleb128 0x1
 2784 00b6 50       		.byte	0x50
 2785 00b7 9F       		.byte	0x9f
 2786 00b8 00000000 		.4byte	0
 2787 00bc 00000000 		.4byte	0
 2788              	.LLST6:
 2789 00c0 00000000 		.4byte	.LVL10
 2790 00c4 0B000000 		.4byte	.LVL11-1
 2791 00c8 0100     		.2byte	0x1
 2792 00ca 51       		.byte	0x51
 2793 00cb 0B000000 		.4byte	.LVL11-1
ARM GAS  /var/folders/m4/4md61f0s1_g0rzfghffqnxvr0000gn/T//ccikS1yW.s 			page 50


 2794 00cf 14000000 		.4byte	.LFE273
 2795 00d3 0400     		.2byte	0x4
 2796 00d5 F3       		.byte	0xf3
 2797 00d6 01       		.uleb128 0x1
 2798 00d7 51       		.byte	0x51
 2799 00d8 9F       		.byte	0x9f
 2800 00d9 00000000 		.4byte	0
 2801 00dd 00000000 		.4byte	0
 2802              	.LLST7:
 2803 00e1 00000000 		.4byte	.LVL12
 2804 00e5 0C000000 		.4byte	.LVL14
 2805 00e9 0100     		.2byte	0x1
 2806 00eb 50       		.byte	0x50
 2807 00ec 0C000000 		.4byte	.LVL14
 2808 00f0 1A000000 		.4byte	.LVL16
 2809 00f4 0100     		.2byte	0x1
 2810 00f6 55       		.byte	0x55
 2811 00f7 1A000000 		.4byte	.LVL16
 2812 00fb 1D000000 		.4byte	.LVL17-1
 2813 00ff 0100     		.2byte	0x1
 2814 0101 50       		.byte	0x50
 2815 0102 1D000000 		.4byte	.LVL17-1
 2816 0106 1E000000 		.4byte	.LFE274
 2817 010a 0400     		.2byte	0x4
 2818 010c F3       		.byte	0xf3
 2819 010d 01       		.uleb128 0x1
 2820 010e 50       		.byte	0x50
 2821 010f 9F       		.byte	0x9f
 2822 0110 00000000 		.4byte	0
 2823 0114 00000000 		.4byte	0
 2824              	.LLST8:
 2825 0118 00000000 		.4byte	.LVL12
 2826 011c 0C000000 		.4byte	.LVL14
 2827 0120 0100     		.2byte	0x1
 2828 0122 51       		.byte	0x51
 2829 0123 0C000000 		.4byte	.LVL14
 2830 0127 1A000000 		.4byte	.LVL16
 2831 012b 0100     		.2byte	0x1
 2832 012d 54       		.byte	0x54
 2833 012e 1A000000 		.4byte	.LVL16
 2834 0132 1D000000 		.4byte	.LVL17-1
 2835 0136 0100     		.2byte	0x1
 2836 0138 51       		.byte	0x51
 2837 0139 1D000000 		.4byte	.LVL17-1
 2838 013d 1E000000 		.4byte	.LFE274
 2839 0141 0400     		.2byte	0x4
 2840 0143 F3       		.byte	0xf3
 2841 0144 01       		.uleb128 0x1
 2842 0145 51       		.byte	0x51
 2843 0146 9F       		.byte	0x9f
 2844 0147 00000000 		.4byte	0
 2845 014b 00000000 		.4byte	0
 2846              	.LLST9:
 2847 014f 00000000 		.4byte	.LVL12
 2848 0153 1D000000 		.4byte	.LVL17-1
 2849 0157 0100     		.2byte	0x1
 2850 0159 52       		.byte	0x52
ARM GAS  /var/folders/m4/4md61f0s1_g0rzfghffqnxvr0000gn/T//ccikS1yW.s 			page 51


 2851 015a 1D000000 		.4byte	.LVL17-1
 2852 015e 1E000000 		.4byte	.LFE274
 2853 0162 0400     		.2byte	0x4
 2854 0164 F3       		.byte	0xf3
 2855 0165 01       		.uleb128 0x1
 2856 0166 52       		.byte	0x52
 2857 0167 9F       		.byte	0x9f
 2858 0168 00000000 		.4byte	0
 2859 016c 00000000 		.4byte	0
 2860              	.LLST10:
 2861 0170 06000000 		.4byte	.LVL13
 2862 0174 0C000000 		.4byte	.LVL14
 2863 0178 0800     		.2byte	0x8
 2864 017a 71       		.byte	0x71
 2865 017b 00       		.sleb128 0
 2866 017c 33       		.byte	0x33
 2867 017d 24       		.byte	0x24
 2868 017e 73       		.byte	0x73
 2869 017f 00       		.sleb128 0
 2870 0180 22       		.byte	0x22
 2871 0181 9F       		.byte	0x9f
 2872 0182 0C000000 		.4byte	.LVL14
 2873 0186 10000000 		.4byte	.LVL15
 2874 018a 0800     		.2byte	0x8
 2875 018c 74       		.byte	0x74
 2876 018d 00       		.sleb128 0
 2877 018e 33       		.byte	0x33
 2878 018f 24       		.byte	0x24
 2879 0190 73       		.byte	0x73
 2880 0191 00       		.sleb128 0
 2881 0192 22       		.byte	0x22
 2882 0193 9F       		.byte	0x9f
 2883 0194 10000000 		.4byte	.LVL15
 2884 0198 1A000000 		.4byte	.LVL16
 2885 019c 0900     		.2byte	0x9
 2886 019e 74       		.byte	0x74
 2887 019f 00       		.sleb128 0
 2888 01a0 33       		.byte	0x33
 2889 01a1 24       		.byte	0x24
 2890 01a2 75       		.byte	0x75
 2891 01a3 04       		.sleb128 4
 2892 01a4 06       		.byte	0x6
 2893 01a5 22       		.byte	0x22
 2894 01a6 9F       		.byte	0x9f
 2895 01a7 1A000000 		.4byte	.LVL16
 2896 01ab 1D000000 		.4byte	.LVL17-1
 2897 01af 0900     		.2byte	0x9
 2898 01b1 71       		.byte	0x71
 2899 01b2 00       		.sleb128 0
 2900 01b3 33       		.byte	0x33
 2901 01b4 24       		.byte	0x24
 2902 01b5 70       		.byte	0x70
 2903 01b6 04       		.sleb128 4
 2904 01b7 06       		.byte	0x6
 2905 01b8 22       		.byte	0x22
 2906 01b9 9F       		.byte	0x9f
 2907 01ba 00000000 		.4byte	0
ARM GAS  /var/folders/m4/4md61f0s1_g0rzfghffqnxvr0000gn/T//ccikS1yW.s 			page 52


 2908 01be 00000000 		.4byte	0
 2909              		.section	.debug_aranges,"",%progbits
 2910 0000 4C000000 		.4byte	0x4c
 2911 0004 0200     		.2byte	0x2
 2912 0006 00000000 		.4byte	.Ldebug_info0
 2913 000a 04       		.byte	0x4
 2914 000b 00       		.byte	0
 2915 000c 0000     		.2byte	0
 2916 000e 0000     		.2byte	0
 2917 0010 00000000 		.4byte	.LFB268
 2918 0014 04000000 		.4byte	.LFE268-.LFB268
 2919 0018 00000000 		.4byte	.LFB269
 2920 001c 0A000000 		.4byte	.LFE269-.LFB269
 2921 0020 00000000 		.4byte	.LFB270
 2922 0024 1C000000 		.4byte	.LFE270-.LFB270
 2923 0028 00000000 		.4byte	.LFB271
 2924 002c 1A000000 		.4byte	.LFE271-.LFB271
 2925 0030 00000000 		.4byte	.LFB272
 2926 0034 14000000 		.4byte	.LFE272-.LFB272
 2927 0038 00000000 		.4byte	.LFB273
 2928 003c 14000000 		.4byte	.LFE273-.LFB273
 2929 0040 00000000 		.4byte	.LFB274
 2930 0044 1E000000 		.4byte	.LFE274-.LFB274
 2931 0048 00000000 		.4byte	0
 2932 004c 00000000 		.4byte	0
 2933              		.section	.debug_ranges,"",%progbits
 2934              	.Ldebug_ranges0:
 2935 0000 02000000 		.4byte	.LBB76
 2936 0004 04000000 		.4byte	.LBE76
 2937 0008 06000000 		.4byte	.LBB85
 2938 000c 0A000000 		.4byte	.LBE85
 2939 0010 00000000 		.4byte	0
 2940 0014 00000000 		.4byte	0
 2941 0018 02000000 		.4byte	.LBB92
 2942 001c 04000000 		.4byte	.LBE92
 2943 0020 06000000 		.4byte	.LBB101
 2944 0024 0A000000 		.4byte	.LBE101
 2945 0028 00000000 		.4byte	0
 2946 002c 00000000 		.4byte	0
 2947 0030 00000000 		.4byte	.LFB268
 2948 0034 04000000 		.4byte	.LFE268
 2949 0038 00000000 		.4byte	.LFB269
 2950 003c 0A000000 		.4byte	.LFE269
 2951 0040 00000000 		.4byte	.LFB270
 2952 0044 1C000000 		.4byte	.LFE270
 2953 0048 00000000 		.4byte	.LFB271
 2954 004c 1A000000 		.4byte	.LFE271
 2955 0050 00000000 		.4byte	.LFB272
 2956 0054 14000000 		.4byte	.LFE272
 2957 0058 00000000 		.4byte	.LFB273
 2958 005c 14000000 		.4byte	.LFE273
 2959 0060 00000000 		.4byte	.LFB274
 2960 0064 1E000000 		.4byte	.LFE274
 2961 0068 00000000 		.4byte	0
 2962 006c 00000000 		.4byte	0
 2963              		.section	.debug_line,"",%progbits
 2964              	.Ldebug_line0:
ARM GAS  /var/folders/m4/4md61f0s1_g0rzfghffqnxvr0000gn/T//ccikS1yW.s 			page 53


 2965 0000 83030000 		.section	.debug_str,"MS",%progbits,1
 2965      02009A02 
 2965      00000201 
 2965      FB0E0D00 
 2965      01010101 
 2966              	.LASF142:
 2967 0000 2F557365 		.ascii	"/Users/raphael/Documents/pcb-quadrotor/code\000"
 2967      72732F72 
 2967      61706861 
 2967      656C2F44 
 2967      6F63756D 
 2968              	.LASF48:
 2969 002c 74687265 		.ascii	"threads_list_t\000"
 2969      6164735F 
 2969      6C697374 
 2969      5F7400
 2970              	.LASF53:
 2971 003b 72656164 		.ascii	"ready_list_t\000"
 2971      795F6C69 
 2971      73745F74 
 2971      00
 2972              	.LASF91:
 2973 0048 77747472 		.ascii	"wttrp\000"
 2973      7000
 2974              	.LASF88:
 2975 004e 7264796D 		.ascii	"rdymsg\000"
 2975      736700
 2976              	.LASF16:
 2977 0055 75696E74 		.ascii	"uint64_t\000"
 2977      36345F74 
 2977      00
 2978              	.LASF1:
 2979 005e 7369676E 		.ascii	"signed char\000"
 2979      65642063 
 2979      68617200 
 2980              	.LASF5:
 2981 006a 5F5F7569 		.ascii	"__uint8_t\000"
 2981      6E74385F 
 2981      7400
 2982              	.LASF112:
 2983 0074 65787063 		.ascii	"expchannel_t\000"
 2983      68616E6E 
 2983      656C5F74 
 2983      00
 2984              	.LASF85:
 2985 0081 706F7274 		.ascii	"port_intctx\000"
 2985      5F696E74 
 2985      63747800 
 2986              	.LASF72:
 2987 008d 73797374 		.ascii	"system_debug_t\000"
 2987      656D5F64 
 2987      65627567 
 2987      5F7400
 2988              	.LASF118:
 2989 009c 706F7274 		.ascii	"port_lock\000"
 2989      5F6C6F63 
 2989      6B00
ARM GAS  /var/folders/m4/4md61f0s1_g0rzfghffqnxvr0000gn/T//ccikS1yW.s 			page 54


 2990              	.LASF134:
 2991 00a6 65787453 		.ascii	"extSetChannelModeI\000"
 2991      65744368 
 2991      616E6E65 
 2991      6C4D6F64 
 2991      654900
 2992              	.LASF12:
 2993 00b9 6C6F6E67 		.ascii	"long long unsigned int\000"
 2993      206C6F6E 
 2993      6720756E 
 2993      7369676E 
 2993      65642069 
 2994              	.LASF89:
 2995 00d0 65786974 		.ascii	"exitcode\000"
 2995      636F6465 
 2995      00
 2996              	.LASF79:
 2997 00d9 6D61696E 		.ascii	"mainthread\000"
 2997      74687265 
 2997      616400
 2998              	.LASF69:
 2999 00e4 76697274 		.ascii	"virtual_timers_list_t\000"
 2999      75616C5F 
 2999      74696D65 
 2999      72735F6C 
 2999      6973745F 
 3000              	.LASF136:
 3001 00fa 49544D5F 		.ascii	"ITM_RxBuffer\000"
 3001      52784275 
 3001      66666572 
 3001      00
 3002              	.LASF52:
 3003 0107 63685F74 		.ascii	"ch_threads_queue\000"
 3003      68726561 
 3003      64735F71 
 3003      75657565 
 3003      00
 3004              	.LASF146:
 3005 0118 6578745F 		.ascii	"ext_lld_channel_disable\000"
 3005      6C6C645F 
 3005      6368616E 
 3005      6E656C5F 
 3005      64697361 
 3006              	.LASF30:
 3007 0130 705F7072 		.ascii	"p_prio\000"
 3007      696F00
 3008              	.LASF127:
 3009 0137 65787453 		.ascii	"extStart\000"
 3009      74617274 
 3009      00
 3010              	.LASF10:
 3011 0140 6C6F6E67 		.ascii	"long long int\000"
 3011      206C6F6E 
 3011      6720696E 
 3011      7400
 3012              	.LASF128:
 3013 014e 65787470 		.ascii	"extp\000"
ARM GAS  /var/folders/m4/4md61f0s1_g0rzfghffqnxvr0000gn/T//ccikS1yW.s 			page 55


 3013      00
 3014              	.LASF126:
 3015 0153 6578744F 		.ascii	"extObjectInit\000"
 3015      626A6563 
 3015      74496E69 
 3015      7400
 3016              	.LASF46:
 3017 0161 705F6D70 		.ascii	"p_mpool\000"
 3017      6F6F6C00 
 3018              	.LASF99:
 3019 0169 6D5F7175 		.ascii	"m_queue\000"
 3019      65756500 
 3020              	.LASF78:
 3021 0171 76746C69 		.ascii	"vtlist\000"
 3021      737400
 3022              	.LASF119:
 3023 0178 706F7274 		.ascii	"port_unlock\000"
 3023      5F756E6C 
 3023      6F636B00 
 3024              	.LASF21:
 3025 0184 74736C69 		.ascii	"tslices_t\000"
 3025      6365735F 
 3025      7400
 3026              	.LASF145:
 3027 018e 6578745F 		.ascii	"ext_lld_init\000"
 3027      6C6C645F 
 3027      696E6974 
 3027      00
 3028              	.LASF110:
 3029 019b 73746174 		.ascii	"state\000"
 3029      6500
 3030              	.LASF116:
 3031 01a1 6368616E 		.ascii	"channels\000"
 3031      6E656C73 
 3031      00
 3032              	.LASF7:
 3033 01aa 6C6F6E67 		.ascii	"long int\000"
 3033      20696E74 
 3033      00
 3034              	.LASF19:
 3035 01b3 74737461 		.ascii	"tstate_t\000"
 3035      74655F74 
 3035      00
 3036              	.LASF32:
 3037 01bc 705F6E65 		.ascii	"p_newer\000"
 3037      77657200 
 3038              	.LASF96:
 3039 01c4 735F7175 		.ascii	"s_queue\000"
 3039      65756500 
 3040              	.LASF115:
 3041 01cc 45585443 		.ascii	"EXTChannelConfig\000"
 3041      68616E6E 
 3041      656C436F 
 3041      6E666967 
 3041      00
 3042              	.LASF58:
 3043 01dd 725F6E65 		.ascii	"r_newer\000"
ARM GAS  /var/folders/m4/4md61f0s1_g0rzfghffqnxvr0000gn/T//ccikS1yW.s 			page 56


 3043      77657200 
 3044              	.LASF82:
 3045 01e5 72656761 		.ascii	"regarm_t\000"
 3045      726D5F74 
 3045      00
 3046              	.LASF65:
 3047 01ee 76745F70 		.ascii	"vt_prev\000"
 3047      72657600 
 3048              	.LASF123:
 3049 01f6 6F73616C 		.ascii	"osalSysLock\000"
 3049      5379734C 
 3049      6F636B00 
 3050              	.LASF103:
 3051 0202 6D757465 		.ascii	"mutex_t\000"
 3051      785F7400 
 3052              	.LASF143:
 3053 020a 76616C75 		.ascii	"value\000"
 3053      6500
 3054              	.LASF80:
 3055 0210 69646C65 		.ascii	"idle_thread_wa\000"
 3055      5F746872 
 3055      6561645F 
 3055      776100
 3056              	.LASF25:
 3057 021f 636E745F 		.ascii	"cnt_t\000"
 3057      7400
 3058              	.LASF0:
 3059 0225 756E7369 		.ascii	"unsigned int\000"
 3059      676E6564 
 3059      20696E74 
 3059      00
 3060              	.LASF64:
 3061 0232 76745F6E 		.ascii	"vt_next\000"
 3061      65787400 
 3062              	.LASF39:
 3063 023a 705F7469 		.ascii	"p_time\000"
 3063      6D6500
 3064              	.LASF92:
 3065 0241 77747365 		.ascii	"wtsemp\000"
 3065      6D7000
 3066              	.LASF66:
 3067 0248 76745F64 		.ascii	"vt_delta\000"
 3067      656C7461 
 3067      00
 3068              	.LASF41:
 3069 0251 705F6D73 		.ascii	"p_msgqueue\000"
 3069      67717565 
 3069      756500
 3070              	.LASF129:
 3071 025c 65787453 		.ascii	"extStop\000"
 3071      746F7000 
 3072              	.LASF137:
 3073 0264 6578745F 		.ascii	"ext_lld_start\000"
 3073      6C6C645F 
 3073      73746172 
 3073      7400
 3074              	.LASF97:
ARM GAS  /var/folders/m4/4md61f0s1_g0rzfghffqnxvr0000gn/T//ccikS1yW.s 			page 57


 3075 0272 735F636E 		.ascii	"s_cnt\000"
 3075      7400
 3076              	.LASF84:
 3077 0278 636F6E74 		.ascii	"context\000"
 3077      65787400 
 3078              	.LASF4:
 3079 0280 73686F72 		.ascii	"short unsigned int\000"
 3079      7420756E 
 3079      7369676E 
 3079      65642069 
 3079      6E7400
 3080              	.LASF49:
 3081 0293 63685F74 		.ascii	"ch_thread\000"
 3081      68726561 
 3081      6400
 3082              	.LASF117:
 3083 029d 45585443 		.ascii	"EXTConfig\000"
 3083      6F6E6669 
 3083      6700
 3084              	.LASF23:
 3085 02a7 6D73675F 		.ascii	"msg_t\000"
 3085      7400
 3086              	.LASF138:
 3087 02ad 6578745F 		.ascii	"ext_lld_stop\000"
 3087      6C6C645F 
 3087      73746F70 
 3087      00
 3088              	.LASF75:
 3089 02ba 63685F73 		.ascii	"ch_system_t\000"
 3089      79737465 
 3089      6D5F7400 
 3090              	.LASF18:
 3091 02c6 746D6F64 		.ascii	"tmode_t\000"
 3091      655F7400 
 3092              	.LASF54:
 3093 02ce 63685F72 		.ascii	"ch_ready_list\000"
 3093      65616479 
 3093      5F6C6973 
 3093      7400
 3094              	.LASF24:
 3095 02dc 6576656E 		.ascii	"eventmask_t\000"
 3095      746D6173 
 3095      6B5F7400 
 3096              	.LASF6:
 3097 02e8 5F5F696E 		.ascii	"__int32_t\000"
 3097      7433325F 
 3097      7400
 3098              	.LASF83:
 3099 02f2 73746B61 		.ascii	"stkalign_t\000"
 3099      6C69676E 
 3099      5F7400
 3100              	.LASF107:
 3101 02fd 4558545F 		.ascii	"EXT_ACTIVE\000"
 3101      41435449 
 3101      564500
 3102              	.LASF40:
 3103 0308 705F7761 		.ascii	"p_waiting\000"
ARM GAS  /var/folders/m4/4md61f0s1_g0rzfghffqnxvr0000gn/T//ccikS1yW.s 			page 58


 3103      6974696E 
 3103      6700
 3104              	.LASF144:
 3105 0312 6F6C6463 		.ascii	"oldcp\000"
 3105      7000
 3106              	.LASF81:
 3107 0318 73697A65 		.ascii	"sizetype\000"
 3107      74797065 
 3107      00
 3108              	.LASF47:
 3109 0321 74687265 		.ascii	"thread_reference_t\000"
 3109      61645F72 
 3109      65666572 
 3109      656E6365 
 3109      5F7400
 3110              	.LASF108:
 3111 0334 65787473 		.ascii	"extstate_t\000"
 3111      74617465 
 3111      5F7400
 3112              	.LASF70:
 3113 033f 63685F76 		.ascii	"ch_virtual_timers_list\000"
 3113      69727475 
 3113      616C5F74 
 3113      696D6572 
 3113      735F6C69 
 3114              	.LASF133:
 3115 0356 65787443 		.ascii	"extChannelDisable\000"
 3115      68616E6E 
 3115      656C4469 
 3115      7361626C 
 3115      6500
 3116              	.LASF33:
 3117 0368 705F6F6C 		.ascii	"p_older\000"
 3117      64657200 
 3118              	.LASF57:
 3119 0370 725F6374 		.ascii	"r_ctx\000"
 3119      7800
 3120              	.LASF139:
 3121 0376 6578745F 		.ascii	"ext_lld_channel_enable\000"
 3121      6C6C645F 
 3121      6368616E 
 3121      6E656C5F 
 3121      656E6162 
 3122              	.LASF87:
 3123 038d 746D5F63 		.ascii	"tm_calibration_t\000"
 3123      616C6962 
 3123      72617469 
 3123      6F6E5F74 
 3123      00
 3124              	.LASF105:
 3125 039e 4558545F 		.ascii	"EXT_UNINIT\000"
 3125      554E494E 
 3125      495400
 3126              	.LASF60:
 3127 03a9 725F6375 		.ascii	"r_current\000"
 3127      7272656E 
 3127      7400
ARM GAS  /var/folders/m4/4md61f0s1_g0rzfghffqnxvr0000gn/T//ccikS1yW.s 			page 59


 3128              	.LASF59:
 3129 03b3 725F6F6C 		.ascii	"r_older\000"
 3129      64657200 
 3130              	.LASF11:
 3131 03bb 5F5F7569 		.ascii	"__uint64_t\000"
 3131      6E743634 
 3131      5F7400
 3132              	.LASF20:
 3133 03c6 74726566 		.ascii	"trefs_t\000"
 3133      735F7400 
 3134              	.LASF62:
 3135 03ce 76697274 		.ascii	"virtual_timer_t\000"
 3135      75616C5F 
 3135      74696D65 
 3135      725F7400 
 3136              	.LASF29:
 3137 03de 705F7072 		.ascii	"p_prev\000"
 3137      657600
 3138              	.LASF141:
 3139 03e5 43686962 		.ascii	"ChibiOS_16.1.4/os/hal/src/ext.c\000"
 3139      694F535F 
 3139      31362E31 
 3139      2E342F6F 
 3139      732F6861 
 3140              	.LASF22:
 3141 0405 74707269 		.ascii	"tprio_t\000"
 3141      6F5F7400 
 3142              	.LASF73:
 3143 040d 63685F73 		.ascii	"ch_system_debug\000"
 3143      79737465 
 3143      6D5F6465 
 3143      62756700 
 3144              	.LASF104:
 3145 041d 5F426F6F 		.ascii	"_Bool\000"
 3145      6C00
 3146              	.LASF14:
 3147 0423 696E7433 		.ascii	"int32_t\000"
 3147      325F7400 
 3148              	.LASF2:
 3149 042b 756E7369 		.ascii	"unsigned char\000"
 3149      676E6564 
 3149      20636861 
 3149      7200
 3150              	.LASF125:
 3151 0439 65787449 		.ascii	"extInit\000"
 3151      6E697400 
 3152              	.LASF44:
 3153 0441 705F6D74 		.ascii	"p_mtxlist\000"
 3153      786C6973 
 3153      7400
 3154              	.LASF3:
 3155 044b 73686F72 		.ascii	"short int\000"
 3155      7420696E 
 3155      7400
 3156              	.LASF35:
 3157 0455 705F7374 		.ascii	"p_state\000"
 3157      61746500 
ARM GAS  /var/folders/m4/4md61f0s1_g0rzfghffqnxvr0000gn/T//ccikS1yW.s 			page 60


 3158              	.LASF38:
 3159 045d 705F7072 		.ascii	"p_preempt\000"
 3159      65656D70 
 3159      7400
 3160              	.LASF56:
 3161 0467 725F7072 		.ascii	"r_prio\000"
 3161      696F00
 3162              	.LASF94:
 3163 046e 65776D61 		.ascii	"ewmask\000"
 3163      736B00
 3164              	.LASF28:
 3165 0475 705F6E65 		.ascii	"p_next\000"
 3165      787400
 3166              	.LASF36:
 3167 047c 705F666C 		.ascii	"p_flags\000"
 3167      61677300 
 3168              	.LASF130:
 3169 0484 5F5F6675 		.ascii	"__func__\000"
 3169      6E635F5F 
 3169      00
 3170              	.LASF120:
 3171 048d 63685379 		.ascii	"chSysLock\000"
 3171      734C6F63 
 3171      6B00
 3172              	.LASF76:
 3173 0497 63685F73 		.ascii	"ch_system\000"
 3173      79737465 
 3173      6D00
 3174              	.LASF124:
 3175 04a1 6F73616C 		.ascii	"osalSysUnlock\000"
 3175      53797355 
 3175      6E6C6F63 
 3175      6B00
 3176              	.LASF132:
 3177 04af 6368616E 		.ascii	"channel\000"
 3177      6E656C00 
 3178              	.LASF63:
 3179 04b7 63685F76 		.ascii	"ch_virtual_timer\000"
 3179      69727475 
 3179      616C5F74 
 3179      696D6572 
 3179      00
 3180              	.LASF95:
 3181 04c8 63685F73 		.ascii	"ch_semaphore\000"
 3181      656D6170 
 3181      686F7265 
 3181      00
 3182              	.LASF43:
 3183 04d5 705F6570 		.ascii	"p_epending\000"
 3183      656E6469 
 3183      6E6700
 3184              	.LASF15:
 3185 04e0 75696E74 		.ascii	"uint32_t\000"
 3185      33325F74 
 3185      00
 3186              	.LASF93:
 3187 04e9 77746D74 		.ascii	"wtmtxp\000"
ARM GAS  /var/folders/m4/4md61f0s1_g0rzfghffqnxvr0000gn/T//ccikS1yW.s 			page 61


 3187      787000
 3188              	.LASF55:
 3189 04f0 725F7175 		.ascii	"r_queue\000"
 3189      65756500 
 3190              	.LASF50:
 3191 04f8 63685F74 		.ascii	"ch_threads_list\000"
 3191      68726561 
 3191      64735F6C 
 3191      69737400 
 3192              	.LASF9:
 3193 0508 6C6F6E67 		.ascii	"long unsigned int\000"
 3193      20756E73 
 3193      69676E65 
 3193      6420696E 
 3193      7400
 3194              	.LASF106:
 3195 051a 4558545F 		.ascii	"EXT_STOP\000"
 3195      53544F50 
 3195      00
 3196              	.LASF102:
 3197 0523 63686172 		.ascii	"char\000"
 3197      00
 3198              	.LASF114:
 3199 0528 6D6F6465 		.ascii	"mode\000"
 3199      00
 3200              	.LASF111:
 3201 052d 636F6E66 		.ascii	"config\000"
 3201      696700
 3202              	.LASF113:
 3203 0534 65787463 		.ascii	"extcallback_t\000"
 3203      616C6C62 
 3203      61636B5F 
 3203      7400
 3204              	.LASF27:
 3205 0542 74687265 		.ascii	"thread_t\000"
 3205      61645F74 
 3205      00
 3206              	.LASF101:
 3207 054b 6D5F6E65 		.ascii	"m_next\000"
 3207      787400
 3208              	.LASF26:
 3209 0552 73797374 		.ascii	"systime_t\000"
 3209      696D655F 
 3209      7400
 3210              	.LASF45:
 3211 055c 705F7265 		.ascii	"p_realprio\000"
 3211      616C7072 
 3211      696F00
 3212              	.LASF61:
 3213 0567 76746675 		.ascii	"vtfunc_t\000"
 3213      6E635F74 
 3213      00
 3214              	.LASF8:
 3215 0570 5F5F7569 		.ascii	"__uint32_t\000"
 3215      6E743332 
 3215      5F7400
 3216              	.LASF121:
ARM GAS  /var/folders/m4/4md61f0s1_g0rzfghffqnxvr0000gn/T//ccikS1yW.s 			page 62


 3217 057b 5F5F7365 		.ascii	"__set_BASEPRI\000"
 3217      745F4241 
 3217      53455052 
 3217      4900
 3218              	.LASF140:
 3219 0589 474E5520 		.ascii	"GNU C 4.9.3 20150529 (release) [ARM/embedded-4_9-br"
 3219      4320342E 
 3219      392E3320 
 3219      32303135 
 3219      30353239 
 3220 05bc 616E6368 		.ascii	"anch revision 224288] -mcpu=cortex-m4 -mfloat-abi=h"
 3220      20726576 
 3220      6973696F 
 3220      6E203232 
 3220      34323838 
 3221 05ef 61726420 		.ascii	"ard -mfpu=fpv4-sp-d16 -mno-thumb-interwork -mthumb "
 3221      2D6D6670 
 3221      753D6670 
 3221      76342D73 
 3221      702D6431 
 3222 0622 2D676764 		.ascii	"-ggdb -O2 -std=gnu99 -fomit-frame-pointer -falign-f"
 3222      62202D4F 
 3222      32202D73 
 3222      74643D67 
 3222      6E753939 
 3223 0655 756E6374 		.ascii	"unctions=16 -ffunction-sections -fdata-sections -fn"
 3223      696F6E73 
 3223      3D313620 
 3223      2D666675 
 3223      6E637469 
 3224 0688 6F2D636F 		.ascii	"o-common -fsingle-precision-constant\000"
 3224      6D6D6F6E 
 3224      202D6673 
 3224      696E676C 
 3224      652D7072 
 3225              	.LASF74:
 3226 06ad 70616E69 		.ascii	"panic_msg\000"
 3226      635F6D73 
 3226      6700
 3227              	.LASF86:
 3228 06b7 6F666673 		.ascii	"offset\000"
 3228      657400
 3229              	.LASF17:
 3230 06be 7274636E 		.ascii	"rtcnt_t\000"
 3230      745F7400 
 3231              	.LASF68:
 3232 06c6 76745F70 		.ascii	"vt_par\000"
 3232      617200
 3233              	.LASF131:
 3234 06cd 65787443 		.ascii	"extChannelEnable\000"
 3234      68616E6E 
 3234      656C456E 
 3234      61626C65 
 3234      00
 3235              	.LASF109:
 3236 06de 45585444 		.ascii	"EXTDriver\000"
 3236      72697665 
ARM GAS  /var/folders/m4/4md61f0s1_g0rzfghffqnxvr0000gn/T//ccikS1yW.s 			page 63


 3236      7200
 3237              	.LASF51:
 3238 06e8 74687265 		.ascii	"threads_queue_t\000"
 3238      6164735F 
 3238      71756575 
 3238      655F7400 
 3239              	.LASF98:
 3240 06f8 63685F6D 		.ascii	"ch_mutex\000"
 3240      75746578 
 3240      00
 3241              	.LASF37:
 3242 0701 705F7265 		.ascii	"p_refs\000"
 3242      667300
 3243              	.LASF77:
 3244 0708 726C6973 		.ascii	"rlist\000"
 3244      7400
 3245              	.LASF13:
 3246 070e 75696E74 		.ascii	"uint8_t\000"
 3246      385F7400 
 3247              	.LASF90:
 3248 0716 77746F62 		.ascii	"wtobjp\000"
 3248      6A7000
 3249              	.LASF34:
 3250 071d 705F6E61 		.ascii	"p_name\000"
 3250      6D6500
 3251              	.LASF71:
 3252 0724 76745F73 		.ascii	"vt_systime\000"
 3252      79737469 
 3252      6D6500
 3253              	.LASF122:
 3254 072f 63685379 		.ascii	"chSysUnlock\000"
 3254      73556E6C 
 3254      6F636B00 
 3255              	.LASF42:
 3256 073b 705F6D73 		.ascii	"p_msg\000"
 3256      6700
 3257              	.LASF100:
 3258 0741 6D5F6F77 		.ascii	"m_owner\000"
 3258      6E657200 
 3259              	.LASF31:
 3260 0749 705F6374 		.ascii	"p_ctx\000"
 3260      7800
 3261              	.LASF67:
 3262 074f 76745F66 		.ascii	"vt_func\000"
 3262      756E6300 
 3263              	.LASF135:
 3264 0757 65787463 		.ascii	"extcp\000"
 3264      7000
 3265              		.ident	"GCC: (GNU Tools for ARM Embedded Processors) 4.9.3 20150529 (release) [ARM/embedded-4_9-br
ARM GAS  /var/folders/m4/4md61f0s1_g0rzfghffqnxvr0000gn/T//ccikS1yW.s 			page 64


DEFINED SYMBOLS
                            *ABS*:0000000000000000 ext.c
/var/folders/m4/4md61f0s1_g0rzfghffqnxvr0000gn/T//ccikS1yW.s:21     .text.extInit:0000000000000000 $t
/var/folders/m4/4md61f0s1_g0rzfghffqnxvr0000gn/T//ccikS1yW.s:27     .text.extInit:0000000000000000 extInit
/var/folders/m4/4md61f0s1_g0rzfghffqnxvr0000gn/T//ccikS1yW.s:42     .text.extObjectInit:0000000000000000 $t
/var/folders/m4/4md61f0s1_g0rzfghffqnxvr0000gn/T//ccikS1yW.s:48     .text.extObjectInit:0000000000000000 extObjectInit
/var/folders/m4/4md61f0s1_g0rzfghffqnxvr0000gn/T//ccikS1yW.s:69     .text.extStart:0000000000000000 $t
/var/folders/m4/4md61f0s1_g0rzfghffqnxvr0000gn/T//ccikS1yW.s:75     .text.extStart:0000000000000000 extStart
/var/folders/m4/4md61f0s1_g0rzfghffqnxvr0000gn/T//ccikS1yW.s:148    .text.extStop:0000000000000000 $t
/var/folders/m4/4md61f0s1_g0rzfghffqnxvr0000gn/T//ccikS1yW.s:154    .text.extStop:0000000000000000 extStop
/var/folders/m4/4md61f0s1_g0rzfghffqnxvr0000gn/T//ccikS1yW.s:224    .text.extChannelEnable:0000000000000000 $t
/var/folders/m4/4md61f0s1_g0rzfghffqnxvr0000gn/T//ccikS1yW.s:230    .text.extChannelEnable:0000000000000000 extChannelEnable
/var/folders/m4/4md61f0s1_g0rzfghffqnxvr0000gn/T//ccikS1yW.s:283    .text.extChannelDisable:0000000000000000 $t
/var/folders/m4/4md61f0s1_g0rzfghffqnxvr0000gn/T//ccikS1yW.s:289    .text.extChannelDisable:0000000000000000 extChannelDisable
/var/folders/m4/4md61f0s1_g0rzfghffqnxvr0000gn/T//ccikS1yW.s:342    .text.extSetChannelModeI:0000000000000000 $t
/var/folders/m4/4md61f0s1_g0rzfghffqnxvr0000gn/T//ccikS1yW.s:348    .text.extSetChannelModeI:0000000000000000 extSetChannelModeI
                     .debug_frame:0000000000000010 $d

UNDEFINED SYMBOLS
ext_lld_init
ext_lld_start
ext_lld_stop
ext_lld_channel_enable
ext_lld_channel_disable
