ARM GAS  /var/folders/m4/4md61f0s1_g0rzfghffqnxvr0000gn/T//cckSPLlQ.s 			page 1


   1              		.syntax unified
   2              		.cpu cortex-m4
   3              		.eabi_attribute 27, 1
   4              		.eabi_attribute 28, 1
   5              		.fpu fpv4-sp-d16
   6              		.eabi_attribute 20, 1
   7              		.eabi_attribute 21, 1
   8              		.eabi_attribute 23, 3
   9              		.eabi_attribute 24, 1
  10              		.eabi_attribute 25, 1
  11              		.eabi_attribute 26, 1
  12              		.eabi_attribute 30, 2
  13              		.eabi_attribute 34, 1
  14              		.eabi_attribute 18, 4
  15              		.thumb
  16              		.file	"ext_lld_isr.c"
  17              		.text
  18              	.Ltext0:
  19              		.cfi_sections	.debug_frame
  20              		.section	.text.Vector58,"ax",%progbits
  21              		.align	2
  22              		.p2align 4,,15
  23              		.global	Vector58
  24              		.thumb
  25              		.thumb_func
  26              		.type	Vector58, %function
  27              	Vector58:
  28              	.LFB268:
  29              		.file 1 "ChibiOS_16.1.4/os/hal/ports/STM32/STM32F4xx/ext_lld_isr.c"
  30              		.loc 1 56 0
  31              		.cfi_startproc
  32              		@ args = 0, pretend = 0, frame = 0
  33              		@ frame_needed = 0, uses_anonymous_args = 0
  34              		.loc 1 61 0
  35 0000 084A     		ldr	r2, .L8
  36              		.loc 1 56 0
  37 0002 08B5     		push	{r3, lr}
  38              		.cfi_def_cfa_offset 8
  39              		.cfi_offset 3, -8
  40              		.cfi_offset 14, -4
  41              		.loc 1 61 0
  42 0004 5169     		ldr	r1, [r2, #20]
  43              	.LVL0:
  44              		.loc 1 62 0
  45 0006 1368     		ldr	r3, [r2]
  46 0008 0B40     		ands	r3, r3, r1
  47 000a 03F00103 		and	r3, r3, #1
  48              	.LVL1:
  49              		.loc 1 63 0
  50 000e 5361     		str	r3, [r2, #20]
  51              		.loc 1 64 0
  52 0010 23B1     		cbz	r3, .L2
  53              		.loc 1 65 0
  54 0012 0548     		ldr	r0, .L8+4
  55 0014 4368     		ldr	r3, [r0, #4]
  56              	.LVL2:
  57 0016 0021     		movs	r1, #0
ARM GAS  /var/folders/m4/4md61f0s1_g0rzfghffqnxvr0000gn/T//cckSPLlQ.s 			page 2


  58 0018 5B68     		ldr	r3, [r3, #4]
  59 001a 9847     		blx	r3
  60              	.LVL3:
  61              	.L2:
  62              		.loc 1 68 0
  63 001c BDE80840 		pop	{r3, lr}
  64              		.cfi_restore 14
  65              		.cfi_restore 3
  66              		.cfi_def_cfa_offset 0
  67              		.loc 1 67 0
  68 0020 FFF7FEBF 		b	_port_irq_epilogue
  69              	.LVL4:
  70              	.L9:
  71              		.align	2
  72              	.L8:
  73 0024 003C0140 		.word	1073822720
  74 0028 00000000 		.word	EXTD1
  75              		.cfi_endproc
  76              	.LFE268:
  77              		.size	Vector58, .-Vector58
  78              		.section	.text.Vector5C,"ax",%progbits
  79              		.align	2
  80              		.p2align 4,,15
  81              		.global	Vector5C
  82              		.thumb
  83              		.thumb_func
  84              		.type	Vector5C, %function
  85              	Vector5C:
  86              	.LFB269:
  87              		.loc 1 75 0
  88              		.cfi_startproc
  89              		@ args = 0, pretend = 0, frame = 0
  90              		@ frame_needed = 0, uses_anonymous_args = 0
  91              		.loc 1 80 0
  92 0000 084A     		ldr	r2, .L16
  93              		.loc 1 75 0
  94 0002 08B5     		push	{r3, lr}
  95              		.cfi_def_cfa_offset 8
  96              		.cfi_offset 3, -8
  97              		.cfi_offset 14, -4
  98              		.loc 1 80 0
  99 0004 5169     		ldr	r1, [r2, #20]
 100              	.LVL5:
 101              		.loc 1 81 0
 102 0006 1368     		ldr	r3, [r2]
 103 0008 0B40     		ands	r3, r3, r1
 104 000a 03F00203 		and	r3, r3, #2
 105              	.LVL6:
 106              		.loc 1 82 0
 107 000e 5361     		str	r3, [r2, #20]
 108              		.loc 1 83 0
 109 0010 23B1     		cbz	r3, .L11
 110              		.loc 1 84 0
 111 0012 0548     		ldr	r0, .L16+4
 112 0014 4368     		ldr	r3, [r0, #4]
 113              	.LVL7:
 114 0016 0121     		movs	r1, #1
ARM GAS  /var/folders/m4/4md61f0s1_g0rzfghffqnxvr0000gn/T//cckSPLlQ.s 			page 3


 115 0018 DB68     		ldr	r3, [r3, #12]
 116 001a 9847     		blx	r3
 117              	.LVL8:
 118              	.L11:
 119              		.loc 1 87 0
 120 001c BDE80840 		pop	{r3, lr}
 121              		.cfi_restore 14
 122              		.cfi_restore 3
 123              		.cfi_def_cfa_offset 0
 124              		.loc 1 86 0
 125 0020 FFF7FEBF 		b	_port_irq_epilogue
 126              	.LVL9:
 127              	.L17:
 128              		.align	2
 129              	.L16:
 130 0024 003C0140 		.word	1073822720
 131 0028 00000000 		.word	EXTD1
 132              		.cfi_endproc
 133              	.LFE269:
 134              		.size	Vector5C, .-Vector5C
 135              		.section	.text.Vector60,"ax",%progbits
 136              		.align	2
 137              		.p2align 4,,15
 138              		.global	Vector60
 139              		.thumb
 140              		.thumb_func
 141              		.type	Vector60, %function
 142              	Vector60:
 143              	.LFB270:
 144              		.loc 1 94 0
 145              		.cfi_startproc
 146              		@ args = 0, pretend = 0, frame = 0
 147              		@ frame_needed = 0, uses_anonymous_args = 0
 148              		.loc 1 99 0
 149 0000 084A     		ldr	r2, .L24
 150              		.loc 1 94 0
 151 0002 08B5     		push	{r3, lr}
 152              		.cfi_def_cfa_offset 8
 153              		.cfi_offset 3, -8
 154              		.cfi_offset 14, -4
 155              		.loc 1 99 0
 156 0004 5169     		ldr	r1, [r2, #20]
 157              	.LVL10:
 158              		.loc 1 100 0
 159 0006 1368     		ldr	r3, [r2]
 160 0008 0B40     		ands	r3, r3, r1
 161 000a 03F00403 		and	r3, r3, #4
 162              	.LVL11:
 163              		.loc 1 101 0
 164 000e 5361     		str	r3, [r2, #20]
 165              		.loc 1 102 0
 166 0010 23B1     		cbz	r3, .L19
 167              		.loc 1 103 0
 168 0012 0548     		ldr	r0, .L24+4
 169 0014 4368     		ldr	r3, [r0, #4]
 170              	.LVL12:
 171 0016 0221     		movs	r1, #2
ARM GAS  /var/folders/m4/4md61f0s1_g0rzfghffqnxvr0000gn/T//cckSPLlQ.s 			page 4


 172 0018 5B69     		ldr	r3, [r3, #20]
 173 001a 9847     		blx	r3
 174              	.LVL13:
 175              	.L19:
 176              		.loc 1 106 0
 177 001c BDE80840 		pop	{r3, lr}
 178              		.cfi_restore 14
 179              		.cfi_restore 3
 180              		.cfi_def_cfa_offset 0
 181              		.loc 1 105 0
 182 0020 FFF7FEBF 		b	_port_irq_epilogue
 183              	.LVL14:
 184              	.L25:
 185              		.align	2
 186              	.L24:
 187 0024 003C0140 		.word	1073822720
 188 0028 00000000 		.word	EXTD1
 189              		.cfi_endproc
 190              	.LFE270:
 191              		.size	Vector60, .-Vector60
 192              		.section	.text.Vector64,"ax",%progbits
 193              		.align	2
 194              		.p2align 4,,15
 195              		.global	Vector64
 196              		.thumb
 197              		.thumb_func
 198              		.type	Vector64, %function
 199              	Vector64:
 200              	.LFB271:
 201              		.loc 1 113 0
 202              		.cfi_startproc
 203              		@ args = 0, pretend = 0, frame = 0
 204              		@ frame_needed = 0, uses_anonymous_args = 0
 205              		.loc 1 118 0
 206 0000 084A     		ldr	r2, .L32
 207              		.loc 1 113 0
 208 0002 08B5     		push	{r3, lr}
 209              		.cfi_def_cfa_offset 8
 210              		.cfi_offset 3, -8
 211              		.cfi_offset 14, -4
 212              		.loc 1 118 0
 213 0004 5169     		ldr	r1, [r2, #20]
 214              	.LVL15:
 215              		.loc 1 119 0
 216 0006 1368     		ldr	r3, [r2]
 217 0008 0B40     		ands	r3, r3, r1
 218 000a 03F00803 		and	r3, r3, #8
 219              	.LVL16:
 220              		.loc 1 120 0
 221 000e 5361     		str	r3, [r2, #20]
 222              		.loc 1 121 0
 223 0010 23B1     		cbz	r3, .L27
 224              		.loc 1 122 0
 225 0012 0548     		ldr	r0, .L32+4
 226 0014 4368     		ldr	r3, [r0, #4]
 227              	.LVL17:
 228 0016 0321     		movs	r1, #3
ARM GAS  /var/folders/m4/4md61f0s1_g0rzfghffqnxvr0000gn/T//cckSPLlQ.s 			page 5


 229 0018 DB69     		ldr	r3, [r3, #28]
 230 001a 9847     		blx	r3
 231              	.LVL18:
 232              	.L27:
 233              		.loc 1 125 0
 234 001c BDE80840 		pop	{r3, lr}
 235              		.cfi_restore 14
 236              		.cfi_restore 3
 237              		.cfi_def_cfa_offset 0
 238              		.loc 1 124 0
 239 0020 FFF7FEBF 		b	_port_irq_epilogue
 240              	.LVL19:
 241              	.L33:
 242              		.align	2
 243              	.L32:
 244 0024 003C0140 		.word	1073822720
 245 0028 00000000 		.word	EXTD1
 246              		.cfi_endproc
 247              	.LFE271:
 248              		.size	Vector64, .-Vector64
 249              		.section	.text.Vector68,"ax",%progbits
 250              		.align	2
 251              		.p2align 4,,15
 252              		.global	Vector68
 253              		.thumb
 254              		.thumb_func
 255              		.type	Vector68, %function
 256              	Vector68:
 257              	.LFB272:
 258              		.loc 1 132 0
 259              		.cfi_startproc
 260              		@ args = 0, pretend = 0, frame = 0
 261              		@ frame_needed = 0, uses_anonymous_args = 0
 262              		.loc 1 137 0
 263 0000 084A     		ldr	r2, .L40
 264              		.loc 1 132 0
 265 0002 08B5     		push	{r3, lr}
 266              		.cfi_def_cfa_offset 8
 267              		.cfi_offset 3, -8
 268              		.cfi_offset 14, -4
 269              		.loc 1 137 0
 270 0004 5169     		ldr	r1, [r2, #20]
 271              	.LVL20:
 272              		.loc 1 138 0
 273 0006 1368     		ldr	r3, [r2]
 274 0008 0B40     		ands	r3, r3, r1
 275 000a 03F01003 		and	r3, r3, #16
 276              	.LVL21:
 277              		.loc 1 139 0
 278 000e 5361     		str	r3, [r2, #20]
 279              		.loc 1 140 0
 280 0010 23B1     		cbz	r3, .L35
 281              		.loc 1 141 0
 282 0012 0548     		ldr	r0, .L40+4
 283 0014 4368     		ldr	r3, [r0, #4]
 284              	.LVL22:
 285 0016 0421     		movs	r1, #4
ARM GAS  /var/folders/m4/4md61f0s1_g0rzfghffqnxvr0000gn/T//cckSPLlQ.s 			page 6


 286 0018 5B6A     		ldr	r3, [r3, #36]
 287 001a 9847     		blx	r3
 288              	.LVL23:
 289              	.L35:
 290              		.loc 1 144 0
 291 001c BDE80840 		pop	{r3, lr}
 292              		.cfi_restore 14
 293              		.cfi_restore 3
 294              		.cfi_def_cfa_offset 0
 295              		.loc 1 143 0
 296 0020 FFF7FEBF 		b	_port_irq_epilogue
 297              	.LVL24:
 298              	.L41:
 299              		.align	2
 300              	.L40:
 301 0024 003C0140 		.word	1073822720
 302 0028 00000000 		.word	EXTD1
 303              		.cfi_endproc
 304              	.LFE272:
 305              		.size	Vector68, .-Vector68
 306              		.section	.text.Vector9C,"ax",%progbits
 307              		.align	2
 308              		.p2align 4,,15
 309              		.global	Vector9C
 310              		.thumb
 311              		.thumb_func
 312              		.type	Vector9C, %function
 313              	Vector9C:
 314              	.LFB273:
 315              		.loc 1 151 0
 316              		.cfi_startproc
 317              		@ args = 0, pretend = 0, frame = 0
 318              		@ frame_needed = 0, uses_anonymous_args = 0
 319              		.loc 1 156 0
 320 0000 194B     		ldr	r3, .L68
 321              		.loc 1 151 0
 322 0002 10B5     		push	{r4, lr}
 323              		.cfi_def_cfa_offset 8
 324              		.cfi_offset 4, -8
 325              		.cfi_offset 14, -4
 326              		.loc 1 156 0
 327 0004 5A69     		ldr	r2, [r3, #20]
 328              	.LVL25:
 329              		.loc 1 157 0
 330 0006 1C68     		ldr	r4, [r3]
 331 0008 1440     		ands	r4, r4, r2
 332 000a 04F47872 		and	r2, r4, #992
 333              	.LVL26:
 334              		.loc 1 159 0
 335 000e 5A61     		str	r2, [r3, #20]
 336              		.loc 1 160 0
 337 0010 A306     		lsls	r3, r4, #26
 338 0012 22D4     		bmi	.L64
 339              	.LVL27:
 340              	.L43:
 341              		.loc 1 162 0
 342 0014 6006     		lsls	r0, r4, #25
ARM GAS  /var/folders/m4/4md61f0s1_g0rzfghffqnxvr0000gn/T//cckSPLlQ.s 			page 7


 343 0016 1AD4     		bmi	.L65
 344              	.L44:
 345              		.loc 1 164 0
 346 0018 2106     		lsls	r1, r4, #24
 347 001a 12D4     		bmi	.L66
 348              	.L45:
 349              		.loc 1 166 0
 350 001c E205     		lsls	r2, r4, #23
 351 001e 0AD4     		bmi	.L67
 352              	.L46:
 353              		.loc 1 168 0
 354 0020 A305     		lsls	r3, r4, #22
 355 0022 04D5     		bpl	.L47
 356              		.loc 1 169 0
 357 0024 1148     		ldr	r0, .L68+4
 358 0026 4368     		ldr	r3, [r0, #4]
 359 0028 0921     		movs	r1, #9
 360 002a DB6C     		ldr	r3, [r3, #76]
 361 002c 9847     		blx	r3
 362              	.LVL28:
 363              	.L47:
 364              		.loc 1 172 0
 365 002e BDE81040 		pop	{r4, lr}
 366              		.cfi_remember_state
 367              		.cfi_restore 14
 368              		.cfi_restore 4
 369              		.cfi_def_cfa_offset 0
 370              	.LVL29:
 371              		.loc 1 171 0
 372 0032 FFF7FEBF 		b	_port_irq_epilogue
 373              	.LVL30:
 374              	.L67:
 375              		.cfi_restore_state
 376              		.loc 1 167 0
 377 0036 0D48     		ldr	r0, .L68+4
 378 0038 4368     		ldr	r3, [r0, #4]
 379 003a 0821     		movs	r1, #8
 380 003c 5B6C     		ldr	r3, [r3, #68]
 381 003e 9847     		blx	r3
 382              	.LVL31:
 383 0040 EEE7     		b	.L46
 384              	.L66:
 385              		.loc 1 165 0
 386 0042 0A48     		ldr	r0, .L68+4
 387 0044 4368     		ldr	r3, [r0, #4]
 388 0046 0721     		movs	r1, #7
 389 0048 DB6B     		ldr	r3, [r3, #60]
 390 004a 9847     		blx	r3
 391              	.LVL32:
 392 004c E6E7     		b	.L45
 393              	.L65:
 394              		.loc 1 163 0
 395 004e 0748     		ldr	r0, .L68+4
 396 0050 4368     		ldr	r3, [r0, #4]
 397 0052 0621     		movs	r1, #6
 398 0054 5B6B     		ldr	r3, [r3, #52]
 399 0056 9847     		blx	r3
ARM GAS  /var/folders/m4/4md61f0s1_g0rzfghffqnxvr0000gn/T//cckSPLlQ.s 			page 8


 400              	.LVL33:
 401 0058 DEE7     		b	.L44
 402              	.LVL34:
 403              	.L64:
 404              		.loc 1 161 0
 405 005a 0448     		ldr	r0, .L68+4
 406 005c 4368     		ldr	r3, [r0, #4]
 407 005e 0521     		movs	r1, #5
 408 0060 DB6A     		ldr	r3, [r3, #44]
 409 0062 9847     		blx	r3
 410              	.LVL35:
 411 0064 D6E7     		b	.L43
 412              	.L69:
 413 0066 00BF     		.align	2
 414              	.L68:
 415 0068 003C0140 		.word	1073822720
 416 006c 00000000 		.word	EXTD1
 417              		.cfi_endproc
 418              	.LFE273:
 419              		.size	Vector9C, .-Vector9C
 420              		.section	.text.VectorE0,"ax",%progbits
 421              		.align	2
 422              		.p2align 4,,15
 423              		.global	VectorE0
 424              		.thumb
 425              		.thumb_func
 426              		.type	VectorE0, %function
 427              	VectorE0:
 428              	.LFB274:
 429              		.loc 1 179 0
 430              		.cfi_startproc
 431              		@ args = 0, pretend = 0, frame = 0
 432              		@ frame_needed = 0, uses_anonymous_args = 0
 433              		.loc 1 184 0
 434 0000 1D4B     		ldr	r3, .L101
 435              		.loc 1 179 0
 436 0002 10B5     		push	{r4, lr}
 437              		.cfi_def_cfa_offset 8
 438              		.cfi_offset 4, -8
 439              		.cfi_offset 14, -4
 440              		.loc 1 184 0
 441 0004 5A69     		ldr	r2, [r3, #20]
 442              	.LVL36:
 443              		.loc 1 185 0
 444 0006 1C68     		ldr	r4, [r3]
 445 0008 1440     		ands	r4, r4, r2
 446 000a 04F47C42 		and	r2, r4, #64512
 447              	.LVL37:
 448              		.loc 1 187 0
 449 000e 5A61     		str	r2, [r3, #20]
 450              		.loc 1 188 0
 451 0010 6205     		lsls	r2, r4, #21
 452              	.LVL38:
 453 0012 2AD4     		bmi	.L96
 454              	.LVL39:
 455              	.L71:
 456              		.loc 1 190 0
ARM GAS  /var/folders/m4/4md61f0s1_g0rzfghffqnxvr0000gn/T//cckSPLlQ.s 			page 9


 457 0014 2305     		lsls	r3, r4, #20
 458 0016 22D4     		bmi	.L97
 459              	.L72:
 460              		.loc 1 192 0
 461 0018 E004     		lsls	r0, r4, #19
 462 001a 1AD4     		bmi	.L98
 463              	.L73:
 464              		.loc 1 194 0
 465 001c A104     		lsls	r1, r4, #18
 466 001e 12D4     		bmi	.L99
 467              	.L74:
 468              		.loc 1 196 0
 469 0020 6204     		lsls	r2, r4, #17
 470 0022 0AD4     		bmi	.L100
 471              	.L75:
 472              		.loc 1 198 0
 473 0024 2304     		lsls	r3, r4, #16
 474 0026 04D5     		bpl	.L76
 475              		.loc 1 199 0
 476 0028 1448     		ldr	r0, .L101+4
 477 002a 4368     		ldr	r3, [r0, #4]
 478 002c 0F21     		movs	r1, #15
 479 002e DB6F     		ldr	r3, [r3, #124]
 480 0030 9847     		blx	r3
 481              	.LVL40:
 482              	.L76:
 483              		.loc 1 202 0
 484 0032 BDE81040 		pop	{r4, lr}
 485              		.cfi_remember_state
 486              		.cfi_restore 14
 487              		.cfi_restore 4
 488              		.cfi_def_cfa_offset 0
 489              	.LVL41:
 490              		.loc 1 201 0
 491 0036 FFF7FEBF 		b	_port_irq_epilogue
 492              	.LVL42:
 493              	.L100:
 494              		.cfi_restore_state
 495              		.loc 1 197 0
 496 003a 1048     		ldr	r0, .L101+4
 497 003c 4368     		ldr	r3, [r0, #4]
 498 003e 0E21     		movs	r1, #14
 499 0040 5B6F     		ldr	r3, [r3, #116]
 500 0042 9847     		blx	r3
 501              	.LVL43:
 502 0044 EEE7     		b	.L75
 503              	.L99:
 504              		.loc 1 195 0
 505 0046 0D48     		ldr	r0, .L101+4
 506 0048 4368     		ldr	r3, [r0, #4]
 507 004a 0D21     		movs	r1, #13
 508 004c DB6E     		ldr	r3, [r3, #108]
 509 004e 9847     		blx	r3
 510              	.LVL44:
 511 0050 E6E7     		b	.L74
 512              	.L98:
 513              		.loc 1 193 0
ARM GAS  /var/folders/m4/4md61f0s1_g0rzfghffqnxvr0000gn/T//cckSPLlQ.s 			page 10


 514 0052 0A48     		ldr	r0, .L101+4
 515 0054 4368     		ldr	r3, [r0, #4]
 516 0056 0C21     		movs	r1, #12
 517 0058 5B6E     		ldr	r3, [r3, #100]
 518 005a 9847     		blx	r3
 519              	.LVL45:
 520 005c DEE7     		b	.L73
 521              	.L97:
 522              		.loc 1 191 0
 523 005e 0748     		ldr	r0, .L101+4
 524 0060 4368     		ldr	r3, [r0, #4]
 525 0062 0B21     		movs	r1, #11
 526 0064 DB6D     		ldr	r3, [r3, #92]
 527 0066 9847     		blx	r3
 528              	.LVL46:
 529 0068 D6E7     		b	.L72
 530              	.LVL47:
 531              	.L96:
 532              		.loc 1 189 0
 533 006a 0448     		ldr	r0, .L101+4
 534 006c 4368     		ldr	r3, [r0, #4]
 535              	.LVL48:
 536 006e 0A21     		movs	r1, #10
 537 0070 5B6D     		ldr	r3, [r3, #84]
 538 0072 9847     		blx	r3
 539              	.LVL49:
 540 0074 CEE7     		b	.L71
 541              	.L102:
 542 0076 00BF     		.align	2
 543              	.L101:
 544 0078 003C0140 		.word	1073822720
 545 007c 00000000 		.word	EXTD1
 546              		.cfi_endproc
 547              	.LFE274:
 548              		.size	VectorE0, .-VectorE0
 549              		.section	.text.Vector44,"ax",%progbits
 550              		.align	2
 551              		.p2align 4,,15
 552              		.global	Vector44
 553              		.thumb
 554              		.thumb_func
 555              		.type	Vector44, %function
 556              	Vector44:
 557              	.LFB275:
 558              		.loc 1 209 0
 559              		.cfi_startproc
 560              		@ args = 0, pretend = 0, frame = 0
 561              		@ frame_needed = 0, uses_anonymous_args = 0
 562              		.loc 1 214 0
 563 0000 084A     		ldr	r2, .L109
 564              		.loc 1 209 0
 565 0002 08B5     		push	{r3, lr}
 566              		.cfi_def_cfa_offset 8
 567              		.cfi_offset 3, -8
 568              		.cfi_offset 14, -4
 569              		.loc 1 214 0
 570 0004 5369     		ldr	r3, [r2, #20]
ARM GAS  /var/folders/m4/4md61f0s1_g0rzfghffqnxvr0000gn/T//cckSPLlQ.s 			page 11


 571              		.loc 1 215 0
 572 0006 1368     		ldr	r3, [r2]
 573 0008 03F48033 		and	r3, r3, #65536
 574              	.LVL50:
 575              		.loc 1 216 0
 576 000c 5361     		str	r3, [r2, #20]
 577              		.loc 1 217 0
 578 000e 2BB1     		cbz	r3, .L104
 579              		.loc 1 218 0
 580 0010 0548     		ldr	r0, .L109+4
 581 0012 4368     		ldr	r3, [r0, #4]
 582              	.LVL51:
 583 0014 1021     		movs	r1, #16
 584 0016 D3F88430 		ldr	r3, [r3, #132]
 585 001a 9847     		blx	r3
 586              	.LVL52:
 587              	.L104:
 588              		.loc 1 221 0
 589 001c BDE80840 		pop	{r3, lr}
 590              		.cfi_restore 14
 591              		.cfi_restore 3
 592              		.cfi_def_cfa_offset 0
 593              		.loc 1 220 0
 594 0020 FFF7FEBF 		b	_port_irq_epilogue
 595              	.LVL53:
 596              	.L110:
 597              		.align	2
 598              	.L109:
 599 0024 003C0140 		.word	1073822720
 600 0028 00000000 		.word	EXTD1
 601              		.cfi_endproc
 602              	.LFE275:
 603              		.size	Vector44, .-Vector44
 604              		.section	.text.VectorE4,"ax",%progbits
 605              		.align	2
 606              		.p2align 4,,15
 607              		.global	VectorE4
 608              		.thumb
 609              		.thumb_func
 610              		.type	VectorE4, %function
 611              	VectorE4:
 612              	.LFB276:
 613              		.loc 1 228 0
 614              		.cfi_startproc
 615              		@ args = 0, pretend = 0, frame = 0
 616              		@ frame_needed = 0, uses_anonymous_args = 0
 617              		.loc 1 233 0
 618 0000 084A     		ldr	r2, .L117
 619              		.loc 1 228 0
 620 0002 08B5     		push	{r3, lr}
 621              		.cfi_def_cfa_offset 8
 622              		.cfi_offset 3, -8
 623              		.cfi_offset 14, -4
 624              		.loc 1 233 0
 625 0004 5369     		ldr	r3, [r2, #20]
 626              		.loc 1 234 0
 627 0006 1368     		ldr	r3, [r2]
ARM GAS  /var/folders/m4/4md61f0s1_g0rzfghffqnxvr0000gn/T//cckSPLlQ.s 			page 12


 628 0008 03F40033 		and	r3, r3, #131072
 629              	.LVL54:
 630              		.loc 1 235 0
 631 000c 5361     		str	r3, [r2, #20]
 632              		.loc 1 236 0
 633 000e 2BB1     		cbz	r3, .L112
 634              		.loc 1 237 0
 635 0010 0548     		ldr	r0, .L117+4
 636 0012 4368     		ldr	r3, [r0, #4]
 637              	.LVL55:
 638 0014 1121     		movs	r1, #17
 639 0016 D3F88C30 		ldr	r3, [r3, #140]
 640 001a 9847     		blx	r3
 641              	.LVL56:
 642              	.L112:
 643              		.loc 1 240 0
 644 001c BDE80840 		pop	{r3, lr}
 645              		.cfi_restore 14
 646              		.cfi_restore 3
 647              		.cfi_def_cfa_offset 0
 648              		.loc 1 239 0
 649 0020 FFF7FEBF 		b	_port_irq_epilogue
 650              	.LVL57:
 651              	.L118:
 652              		.align	2
 653              	.L117:
 654 0024 003C0140 		.word	1073822720
 655 0028 00000000 		.word	EXTD1
 656              		.cfi_endproc
 657              	.LFE276:
 658              		.size	VectorE4, .-VectorE4
 659              		.section	.text.VectorE8,"ax",%progbits
 660              		.align	2
 661              		.p2align 4,,15
 662              		.global	VectorE8
 663              		.thumb
 664              		.thumb_func
 665              		.type	VectorE8, %function
 666              	VectorE8:
 667              	.LFB277:
 668              		.loc 1 247 0
 669              		.cfi_startproc
 670              		@ args = 0, pretend = 0, frame = 0
 671              		@ frame_needed = 0, uses_anonymous_args = 0
 672              		.loc 1 252 0
 673 0000 094A     		ldr	r2, .L125
 674              		.loc 1 247 0
 675 0002 08B5     		push	{r3, lr}
 676              		.cfi_def_cfa_offset 8
 677              		.cfi_offset 3, -8
 678              		.cfi_offset 14, -4
 679              		.loc 1 252 0
 680 0004 5169     		ldr	r1, [r2, #20]
 681              	.LVL58:
 682              		.loc 1 253 0
 683 0006 1368     		ldr	r3, [r2]
 684 0008 0B40     		ands	r3, r3, r1
ARM GAS  /var/folders/m4/4md61f0s1_g0rzfghffqnxvr0000gn/T//cckSPLlQ.s 			page 13


 685 000a 03F48023 		and	r3, r3, #262144
 686              	.LVL59:
 687              		.loc 1 254 0
 688 000e 5361     		str	r3, [r2, #20]
 689              		.loc 1 255 0
 690 0010 2BB1     		cbz	r3, .L120
 691              		.loc 1 256 0
 692 0012 0648     		ldr	r0, .L125+4
 693 0014 4368     		ldr	r3, [r0, #4]
 694              	.LVL60:
 695 0016 1221     		movs	r1, #18
 696 0018 D3F89430 		ldr	r3, [r3, #148]
 697 001c 9847     		blx	r3
 698              	.LVL61:
 699              	.L120:
 700              		.loc 1 259 0
 701 001e BDE80840 		pop	{r3, lr}
 702              		.cfi_restore 14
 703              		.cfi_restore 3
 704              		.cfi_def_cfa_offset 0
 705              		.loc 1 258 0
 706 0022 FFF7FEBF 		b	_port_irq_epilogue
 707              	.LVL62:
 708              	.L126:
 709 0026 00BF     		.align	2
 710              	.L125:
 711 0028 003C0140 		.word	1073822720
 712 002c 00000000 		.word	EXTD1
 713              		.cfi_endproc
 714              	.LFE277:
 715              		.size	VectorE8, .-VectorE8
 716              		.section	.text.Vector170,"ax",%progbits
 717              		.align	2
 718              		.p2align 4,,15
 719              		.global	Vector170
 720              		.thumb
 721              		.thumb_func
 722              		.type	Vector170, %function
 723              	Vector170:
 724              	.LFB278:
 725              		.loc 1 288 0
 726              		.cfi_startproc
 727              		@ args = 0, pretend = 0, frame = 0
 728              		@ frame_needed = 0, uses_anonymous_args = 0
 729              		.loc 1 293 0
 730 0000 094A     		ldr	r2, .L133
 731              		.loc 1 288 0
 732 0002 08B5     		push	{r3, lr}
 733              		.cfi_def_cfa_offset 8
 734              		.cfi_offset 3, -8
 735              		.cfi_offset 14, -4
 736              		.loc 1 293 0
 737 0004 5169     		ldr	r1, [r2, #20]
 738              	.LVL63:
 739              		.loc 1 294 0
 740 0006 1368     		ldr	r3, [r2]
 741 0008 0B40     		ands	r3, r3, r1
ARM GAS  /var/folders/m4/4md61f0s1_g0rzfghffqnxvr0000gn/T//cckSPLlQ.s 			page 14


 742 000a 03F48013 		and	r3, r3, #1048576
 743              	.LVL64:
 744              		.loc 1 295 0
 745 000e 5361     		str	r3, [r2, #20]
 746              		.loc 1 296 0
 747 0010 2BB1     		cbz	r3, .L128
 748              		.loc 1 297 0
 749 0012 0648     		ldr	r0, .L133+4
 750 0014 4368     		ldr	r3, [r0, #4]
 751              	.LVL65:
 752 0016 1421     		movs	r1, #20
 753 0018 D3F8A430 		ldr	r3, [r3, #164]
 754 001c 9847     		blx	r3
 755              	.LVL66:
 756              	.L128:
 757              		.loc 1 300 0
 758 001e BDE80840 		pop	{r3, lr}
 759              		.cfi_restore 14
 760              		.cfi_restore 3
 761              		.cfi_def_cfa_offset 0
 762              		.loc 1 299 0
 763 0022 FFF7FEBF 		b	_port_irq_epilogue
 764              	.LVL67:
 765              	.L134:
 766 0026 00BF     		.align	2
 767              	.L133:
 768 0028 003C0140 		.word	1073822720
 769 002c 00000000 		.word	EXTD1
 770              		.cfi_endproc
 771              	.LFE278:
 772              		.size	Vector170, .-Vector170
 773              		.section	.text.Vector48,"ax",%progbits
 774              		.align	2
 775              		.p2align 4,,15
 776              		.global	Vector48
 777              		.thumb
 778              		.thumb_func
 779              		.type	Vector48, %function
 780              	Vector48:
 781              	.LFB279:
 782              		.loc 1 309 0
 783              		.cfi_startproc
 784              		@ args = 0, pretend = 0, frame = 0
 785              		@ frame_needed = 0, uses_anonymous_args = 0
 786              		.loc 1 314 0
 787 0000 094A     		ldr	r2, .L141
 788              		.loc 1 309 0
 789 0002 08B5     		push	{r3, lr}
 790              		.cfi_def_cfa_offset 8
 791              		.cfi_offset 3, -8
 792              		.cfi_offset 14, -4
 793              		.loc 1 314 0
 794 0004 5169     		ldr	r1, [r2, #20]
 795              	.LVL68:
 796              		.loc 1 315 0
 797 0006 1368     		ldr	r3, [r2]
 798 0008 0B40     		ands	r3, r3, r1
ARM GAS  /var/folders/m4/4md61f0s1_g0rzfghffqnxvr0000gn/T//cckSPLlQ.s 			page 15


 799 000a 03F40013 		and	r3, r3, #2097152
 800              	.LVL69:
 801              		.loc 1 316 0
 802 000e 5361     		str	r3, [r2, #20]
 803              		.loc 1 317 0
 804 0010 2BB1     		cbz	r3, .L136
 805              		.loc 1 318 0
 806 0012 0648     		ldr	r0, .L141+4
 807 0014 4368     		ldr	r3, [r0, #4]
 808              	.LVL70:
 809 0016 1521     		movs	r1, #21
 810 0018 D3F8AC30 		ldr	r3, [r3, #172]
 811 001c 9847     		blx	r3
 812              	.LVL71:
 813              	.L136:
 814              		.loc 1 321 0
 815 001e BDE80840 		pop	{r3, lr}
 816              		.cfi_restore 14
 817              		.cfi_restore 3
 818              		.cfi_def_cfa_offset 0
 819              		.loc 1 320 0
 820 0022 FFF7FEBF 		b	_port_irq_epilogue
 821              	.LVL72:
 822              	.L142:
 823 0026 00BF     		.align	2
 824              	.L141:
 825 0028 003C0140 		.word	1073822720
 826 002c 00000000 		.word	EXTD1
 827              		.cfi_endproc
 828              	.LFE279:
 829              		.size	Vector48, .-Vector48
 830              		.section	.text.Vector4C,"ax",%progbits
 831              		.align	2
 832              		.p2align 4,,15
 833              		.global	Vector4C
 834              		.thumb
 835              		.thumb_func
 836              		.type	Vector4C, %function
 837              	Vector4C:
 838              	.LFB280:
 839              		.loc 1 329 0
 840              		.cfi_startproc
 841              		@ args = 0, pretend = 0, frame = 0
 842              		@ frame_needed = 0, uses_anonymous_args = 0
 843              		.loc 1 334 0
 844 0000 094A     		ldr	r2, .L149
 845              		.loc 1 329 0
 846 0002 08B5     		push	{r3, lr}
 847              		.cfi_def_cfa_offset 8
 848              		.cfi_offset 3, -8
 849              		.cfi_offset 14, -4
 850              		.loc 1 334 0
 851 0004 5169     		ldr	r1, [r2, #20]
 852              	.LVL73:
 853              		.loc 1 335 0
 854 0006 1368     		ldr	r3, [r2]
 855 0008 0B40     		ands	r3, r3, r1
ARM GAS  /var/folders/m4/4md61f0s1_g0rzfghffqnxvr0000gn/T//cckSPLlQ.s 			page 16


 856 000a 03F48003 		and	r3, r3, #4194304
 857              	.LVL74:
 858              		.loc 1 336 0
 859 000e 5361     		str	r3, [r2, #20]
 860              		.loc 1 337 0
 861 0010 2BB1     		cbz	r3, .L144
 862              		.loc 1 338 0
 863 0012 0648     		ldr	r0, .L149+4
 864 0014 4368     		ldr	r3, [r0, #4]
 865              	.LVL75:
 866 0016 1621     		movs	r1, #22
 867 0018 D3F8B430 		ldr	r3, [r3, #180]
 868 001c 9847     		blx	r3
 869              	.LVL76:
 870              	.L144:
 871              		.loc 1 341 0
 872 001e BDE80840 		pop	{r3, lr}
 873              		.cfi_restore 14
 874              		.cfi_restore 3
 875              		.cfi_def_cfa_offset 0
 876              		.loc 1 340 0
 877 0022 FFF7FEBF 		b	_port_irq_epilogue
 878              	.LVL77:
 879              	.L150:
 880 0026 00BF     		.align	2
 881              	.L149:
 882 0028 003C0140 		.word	1073822720
 883 002c 00000000 		.word	EXTD1
 884              		.cfi_endproc
 885              	.LFE280:
 886              		.size	Vector4C, .-Vector4C
 887              		.section	.text.ext_lld_exti_irq_enable,"ax",%progbits
 888              		.align	2
 889              		.p2align 4,,15
 890              		.global	ext_lld_exti_irq_enable
 891              		.thumb
 892              		.thumb_func
 893              		.type	ext_lld_exti_irq_enable, %function
 894              	ext_lld_exti_irq_enable:
 895              	.LFB281:
 896              		.loc 1 352 0
 897              		.cfi_startproc
 898              		@ args = 0, pretend = 0, frame = 0
 899              		@ frame_needed = 0, uses_anonymous_args = 0
 900              		.loc 1 354 0
 901 0000 0620     		movs	r0, #6
 902              		.loc 1 352 0
 903 0002 08B5     		push	{r3, lr}
 904              		.cfi_def_cfa_offset 8
 905              		.cfi_offset 3, -8
 906              		.cfi_offset 14, -4
 907              		.loc 1 354 0
 908 0004 0146     		mov	r1, r0
 909 0006 FFF7FEFF 		bl	nvicEnableVector
 910              	.LVL78:
 911              		.loc 1 355 0
 912 000a 0720     		movs	r0, #7
ARM GAS  /var/folders/m4/4md61f0s1_g0rzfghffqnxvr0000gn/T//cckSPLlQ.s 			page 17


 913 000c 0621     		movs	r1, #6
 914 000e FFF7FEFF 		bl	nvicEnableVector
 915              	.LVL79:
 916              		.loc 1 356 0
 917 0012 0820     		movs	r0, #8
 918 0014 0621     		movs	r1, #6
 919 0016 FFF7FEFF 		bl	nvicEnableVector
 920              	.LVL80:
 921              		.loc 1 357 0
 922 001a 0920     		movs	r0, #9
 923 001c 0621     		movs	r1, #6
 924 001e FFF7FEFF 		bl	nvicEnableVector
 925              	.LVL81:
 926              		.loc 1 358 0
 927 0022 0A20     		movs	r0, #10
 928 0024 0621     		movs	r1, #6
 929 0026 FFF7FEFF 		bl	nvicEnableVector
 930              	.LVL82:
 931              		.loc 1 359 0
 932 002a 1720     		movs	r0, #23
 933 002c 0621     		movs	r1, #6
 934 002e FFF7FEFF 		bl	nvicEnableVector
 935              	.LVL83:
 936              		.loc 1 360 0
 937 0032 2820     		movs	r0, #40
 938 0034 0621     		movs	r1, #6
 939 0036 FFF7FEFF 		bl	nvicEnableVector
 940              	.LVL84:
 941              		.loc 1 361 0
 942 003a 0120     		movs	r0, #1
 943 003c 0621     		movs	r1, #6
 944 003e FFF7FEFF 		bl	nvicEnableVector
 945              	.LVL85:
 946              		.loc 1 362 0
 947 0042 2920     		movs	r0, #41
 948 0044 0F21     		movs	r1, #15
 949 0046 FFF7FEFF 		bl	nvicEnableVector
 950              	.LVL86:
 951              		.loc 1 363 0
 952 004a 2A20     		movs	r0, #42
 953 004c 0621     		movs	r1, #6
 954 004e FFF7FEFF 		bl	nvicEnableVector
 955              	.LVL87:
 956              		.loc 1 368 0
 957 0052 4C20     		movs	r0, #76
 958 0054 0621     		movs	r1, #6
 959 0056 FFF7FEFF 		bl	nvicEnableVector
 960              	.LVL88:
 961              		.loc 1 371 0
 962 005a 0220     		movs	r0, #2
 963 005c 0F21     		movs	r1, #15
 964 005e FFF7FEFF 		bl	nvicEnableVector
 965              	.LVL89:
 966              		.loc 1 373 0
 967 0062 0320     		movs	r0, #3
 968 0064 0F21     		movs	r1, #15
 969              		.loc 1 374 0
ARM GAS  /var/folders/m4/4md61f0s1_g0rzfghffqnxvr0000gn/T//cckSPLlQ.s 			page 18


 970 0066 BDE80840 		pop	{r3, lr}
 971              		.cfi_restore 14
 972              		.cfi_restore 3
 973              		.cfi_def_cfa_offset 0
 974              		.loc 1 373 0
 975 006a FFF7FEBF 		b	nvicEnableVector
 976              	.LVL90:
 977              		.cfi_endproc
 978              	.LFE281:
 979              		.size	ext_lld_exti_irq_enable, .-ext_lld_exti_irq_enable
 980 006e 00BF     		.section	.text.ext_lld_exti_irq_disable,"ax",%progbits
 981              		.align	2
 982              		.p2align 4,,15
 983              		.global	ext_lld_exti_irq_disable
 984              		.thumb
 985              		.thumb_func
 986              		.type	ext_lld_exti_irq_disable, %function
 987              	ext_lld_exti_irq_disable:
 988              	.LFB282:
 989              		.loc 1 381 0
 990              		.cfi_startproc
 991              		@ args = 0, pretend = 0, frame = 0
 992              		@ frame_needed = 0, uses_anonymous_args = 0
 993 0000 08B5     		push	{r3, lr}
 994              		.cfi_def_cfa_offset 8
 995              		.cfi_offset 3, -8
 996              		.cfi_offset 14, -4
 997              		.loc 1 383 0
 998 0002 0620     		movs	r0, #6
 999 0004 FFF7FEFF 		bl	nvicDisableVector
 1000              	.LVL91:
 1001              		.loc 1 384 0
 1002 0008 0720     		movs	r0, #7
 1003 000a FFF7FEFF 		bl	nvicDisableVector
 1004              	.LVL92:
 1005              		.loc 1 385 0
 1006 000e 0820     		movs	r0, #8
 1007 0010 FFF7FEFF 		bl	nvicDisableVector
 1008              	.LVL93:
 1009              		.loc 1 386 0
 1010 0014 0920     		movs	r0, #9
 1011 0016 FFF7FEFF 		bl	nvicDisableVector
 1012              	.LVL94:
 1013              		.loc 1 387 0
 1014 001a 0A20     		movs	r0, #10
 1015 001c FFF7FEFF 		bl	nvicDisableVector
 1016              	.LVL95:
 1017              		.loc 1 388 0
 1018 0020 1720     		movs	r0, #23
 1019 0022 FFF7FEFF 		bl	nvicDisableVector
 1020              	.LVL96:
 1021              		.loc 1 389 0
 1022 0026 2820     		movs	r0, #40
 1023 0028 FFF7FEFF 		bl	nvicDisableVector
 1024              	.LVL97:
 1025              		.loc 1 390 0
 1026 002c 0120     		movs	r0, #1
ARM GAS  /var/folders/m4/4md61f0s1_g0rzfghffqnxvr0000gn/T//cckSPLlQ.s 			page 19


 1027 002e FFF7FEFF 		bl	nvicDisableVector
 1028              	.LVL98:
 1029              		.loc 1 391 0
 1030 0032 2920     		movs	r0, #41
 1031 0034 FFF7FEFF 		bl	nvicDisableVector
 1032              	.LVL99:
 1033              		.loc 1 392 0
 1034 0038 2A20     		movs	r0, #42
 1035 003a FFF7FEFF 		bl	nvicDisableVector
 1036              	.LVL100:
 1037              		.loc 1 397 0
 1038 003e 4C20     		movs	r0, #76
 1039 0040 FFF7FEFF 		bl	nvicDisableVector
 1040              	.LVL101:
 1041              		.loc 1 400 0
 1042 0044 0220     		movs	r0, #2
 1043 0046 FFF7FEFF 		bl	nvicDisableVector
 1044              	.LVL102:
 1045              		.loc 1 402 0
 1046 004a 0320     		movs	r0, #3
 1047              		.loc 1 403 0
 1048 004c BDE80840 		pop	{r3, lr}
 1049              		.cfi_restore 14
 1050              		.cfi_restore 3
 1051              		.cfi_def_cfa_offset 0
 1052              		.loc 1 402 0
 1053 0050 FFF7FEBF 		b	nvicDisableVector
 1054              	.LVL103:
 1055              		.cfi_endproc
 1056              	.LFE282:
 1057              		.size	ext_lld_exti_irq_disable, .-ext_lld_exti_irq_disable
 1058              		.text
 1059              	.Letext0:
 1060              		.file 2 "/usr/local/Cellar/gcc-arm-none-eabi-49/20150609/arm-none-eabi/include/machine/_default_ty
 1061              		.file 3 "/usr/local/Cellar/gcc-arm-none-eabi-49/20150609/arm-none-eabi/include/sys/_stdint.h"
 1062              		.file 4 "ChibiOS_16.1.4/os/rt/ports/ARMCMx/compilers/GCC/chtypes.h"
 1063              		.file 5 "ChibiOS_16.1.4/os/rt/include/chsystypes.h"
 1064              		.file 6 "ChibiOS_16.1.4/os/rt/include/chschd.h"
 1065              		.file 7 "ChibiOS_16.1.4/os/ext/CMSIS/ST/STM32F4xx/stm32f446xx.h"
 1066              		.file 8 "ChibiOS_16.1.4/os/rt/ports/ARMCMx/chcore.h"
 1067              		.file 9 "ChibiOS_16.1.4/os/rt/ports/ARMCMx/chcore_v7m.h"
 1068              		.file 10 "ChibiOS_16.1.4/os/rt/include/chtm.h"
 1069              		.file 11 "ChibiOS_16.1.4/os/rt/include/chsem.h"
 1070              		.file 12 "ChibiOS_16.1.4/os/rt/include/chmtx.h"
 1071              		.file 13 "ChibiOS_16.1.4/os/hal/include/ext.h"
 1072              		.file 14 "ChibiOS_16.1.4/os/hal/ports/STM32/LLD/EXTIv1/ext_lld.h"
 1073              		.file 15 "ChibiOS_16.1.4/os/ext/CMSIS/include/core_cm4.h"
 1074              		.file 16 "ChibiOS_16.1.4/os/hal/ports/common/ARMCMx/nvic.h"