ARM GAS  /var/folders/m4/4md61f0s1_g0rzfghffqnxvr0000gn/T//ccH9XwHA.s 			page 1


   1              		.syntax unified
   2              		.cpu cortex-m4
   3              		.eabi_attribute 27, 1
   4              		.eabi_attribute 28, 1
   5              		.fpu fpv4-sp-d16
   6              		.eabi_attribute 20, 1
   7              		.eabi_attribute 21, 1
   8              		.eabi_attribute 23, 3
   9              		.eabi_attribute 24, 1
  10              		.eabi_attribute 25, 1
  11              		.eabi_attribute 26, 1
  12              		.eabi_attribute 30, 2
  13              		.eabi_attribute 34, 1
  14              		.eabi_attribute 18, 4
  15              		.thumb
  16              		.file	"ext_lld.c"
  17              		.text
  18              	.Ltext0:
  19              		.cfi_sections	.debug_frame
  20              		.section	.text.ext_lld_init,"ax",%progbits
  21              		.align	2
  22              		.p2align 4,,15
  23              		.global	ext_lld_init
  24              		.thumb
  25              		.thumb_func
  26              		.type	ext_lld_init, %function
  27              	ext_lld_init:
  28              	.LFB268:
  29              		.file 1 "ChibiOS_16.1.4/os/hal/ports/STM32/LLD/EXTIv1/ext_lld.c"
  30              		.loc 1 72 0
  31              		.cfi_startproc
  32              		@ args = 0, pretend = 0, frame = 0
  33              		@ frame_needed = 0, uses_anonymous_args = 0
  34              		@ link register save eliminated.
  35              		.loc 1 75 0
  36 0000 0148     		ldr	r0, .L2
  37 0002 FFF7FEBF 		b	extObjectInit
  38              	.LVL0:
  39              	.L3:
  40 0006 00BF     		.align	2
  41              	.L2:
  42 0008 00000000 		.word	.LANCHOR0
  43              		.cfi_endproc
  44              	.LFE268:
  45              		.size	ext_lld_init, .-ext_lld_init
  46              		.section	.text.ext_lld_stop,"ax",%progbits
  47              		.align	2
  48              		.p2align 4,,15
  49              		.global	ext_lld_stop
  50              		.thumb
  51              		.thumb_func
  52              		.type	ext_lld_stop, %function
  53              	ext_lld_stop:
  54              	.LFB270:
  55              		.loc 1 106 0
  56              		.cfi_startproc
  57              		@ args = 0, pretend = 0, frame = 0
ARM GAS  /var/folders/m4/4md61f0s1_g0rzfghffqnxvr0000gn/T//ccH9XwHA.s 			page 2


  58              		@ frame_needed = 0, uses_anonymous_args = 0
  59              	.LVL1:
  60 0000 08B5     		push	{r3, lr}
  61              		.cfi_def_cfa_offset 8
  62              		.cfi_offset 3, -8
  63              		.cfi_offset 14, -4
  64              		.loc 1 108 0
  65 0002 0378     		ldrb	r3, [r0]	@ zero_extendqisi2
  66 0004 022B     		cmp	r3, #2
  67 0006 07D0     		beq	.L8
  68              	.LVL2:
  69              	.L5:
  70              		.loc 1 111 0
  71 0008 054B     		ldr	r3, .L9
  72 000a 0022     		movs	r2, #0
  73              		.loc 1 113 0
  74 000c 4FF0FF31 		mov	r1, #-1
  75              		.loc 1 111 0
  76 0010 5A60     		str	r2, [r3, #4]
  77              		.loc 1 112 0
  78 0012 1A60     		str	r2, [r3]
  79              		.loc 1 113 0
  80 0014 5961     		str	r1, [r3, #20]
  81 0016 08BD     		pop	{r3, pc}
  82              	.LVL3:
  83              	.L8:
  84              		.loc 1 109 0
  85 0018 FFF7FEFF 		bl	ext_lld_exti_irq_disable
  86              	.LVL4:
  87 001c F4E7     		b	.L5
  88              	.L10:
  89 001e 00BF     		.align	2
  90              	.L9:
  91 0020 003C0140 		.word	1073822720
  92              		.cfi_endproc
  93              	.LFE270:
  94              		.size	ext_lld_stop, .-ext_lld_stop
  95              		.section	.text.ext_lld_channel_enable,"ax",%progbits
  96              		.align	2
  97              		.p2align 4,,15
  98              		.global	ext_lld_channel_enable
  99              		.thumb
 100              		.thumb_func
 101              		.type	ext_lld_channel_enable, %function
 102              	ext_lld_channel_enable:
 103              	.LFB271:
 104              		.loc 1 128 0
 105              		.cfi_startproc
 106              		@ args = 0, pretend = 0, frame = 0
 107              		@ frame_needed = 0, uses_anonymous_args = 0
 108              	.LVL5:
 109              		.loc 1 129 0
 110 0000 01F01F02 		and	r2, r1, #31
 111 0004 0123     		movs	r3, #1
 112              		.loc 1 132 0
 113 0006 0F29     		cmp	r1, #15
 114              		.loc 1 128 0
ARM GAS  /var/folders/m4/4md61f0s1_g0rzfghffqnxvr0000gn/T//ccH9XwHA.s 			page 3


 115 0008 F0B5     		push	{r4, r5, r6, r7, lr}
 116              		.cfi_def_cfa_offset 20
 117              		.cfi_offset 4, -20
 118              		.cfi_offset 5, -16
 119              		.cfi_offset 6, -12
 120              		.cfi_offset 7, -8
 121              		.cfi_offset 14, -4
 122              		.loc 1 129 0
 123 000a 03FA02F3 		lsl	r3, r3, r2
 124              	.LVL6:
 125              		.loc 1 132 0
 126 000e 1DD9     		bls	.L12
 127 0010 4268     		ldr	r2, [r0, #4]
 128 0012 52F83100 		ldr	r0, [r2, r1, lsl #3]
 129              	.LVL7:
 130              		.loc 1 155 0
 131 0016 C407     		lsls	r4, r0, #31
 132 0018 33D5     		bpl	.L14
 133              	.L21:
 134              		.loc 1 156 0
 135 001a 214D     		ldr	r5, .L22
 136 001c AC68     		ldr	r4, [r5, #8]
 137 001e 1C43     		orrs	r4, r4, r3
 138 0020 AC60     		str	r4, [r5, #8]
 139 0022 DC43     		mvns	r4, r3
 140              	.L15:
 141              		.loc 1 160 0
 142 0024 1E4D     		ldr	r5, .L22
 143              		.loc 1 165 0
 144 0026 02EBC101 		add	r1, r2, r1, lsl #3
 145              	.LVL8:
 146              		.loc 1 159 0
 147 002a 10F0020F 		tst	r0, #2
 148              		.loc 1 160 0
 149 002e E868     		ldr	r0, [r5, #12]
 150              		.loc 1 165 0
 151 0030 4A68     		ldr	r2, [r1, #4]
 152              		.loc 1 160 0
 153 0032 14BF     		ite	ne
 154 0034 1843     		orrne	r0, r0, r3
 155              		.loc 1 162 0
 156 0036 2040     		andeq	r0, r0, r4
 157 0038 E860     		str	r0, [r5, #12]
 158              		.loc 1 165 0
 159 003a 42B3     		cbz	r2, .L18
 160              		.loc 1 166 0
 161 003c 184A     		ldr	r2, .L22
 162 003e 1168     		ldr	r1, [r2]
 163 0040 0B43     		orrs	r3, r3, r1
 164              	.LVL9:
 165 0042 1360     		str	r3, [r2]
 166              		.loc 1 167 0
 167 0044 5368     		ldr	r3, [r2, #4]
 168 0046 2340     		ands	r3, r3, r4
 169 0048 5360     		str	r3, [r2, #4]
 170 004a F0BD     		pop	{r4, r5, r6, r7, pc}
 171              	.LVL10:
ARM GAS  /var/folders/m4/4md61f0s1_g0rzfghffqnxvr0000gn/T//ccH9XwHA.s 			page 4


 172              	.L12:
 173 004c 21F00304 		bic	r4, r1, #3
 174              	.LBB2:
 175              		.loc 1 135 0
 176 0050 4268     		ldr	r2, [r0, #4]
 177 0052 04F18044 		add	r4, r4, #1073741824
 178 0056 04F59C34 		add	r4, r4, #79872
 179 005a 52F83100 		ldr	r0, [r2, r1, lsl #3]
 180              	.LVL11:
 181              		.loc 1 142 0
 182 005e A768     		ldr	r7, [r4, #8]
 183              		.loc 1 134 0
 184 0060 01F00305 		and	r5, r1, #3
 185 0064 AD00     		lsls	r5, r5, #2
 186              	.LVL12:
 187 0066 4FF00F0E 		mov	lr, #15
 188 006a 0EFA05FE 		lsl	lr, lr, r5
 189              		.loc 1 136 0
 190 006e C0F30316 		ubfx	r6, r0, #4, #4
 191              		.loc 1 142 0
 192 0072 27EA0E07 		bic	r7, r7, lr
 193              		.loc 1 135 0
 194 0076 06FA05F5 		lsl	r5, r6, r5
 195              	.LVL13:
 196              		.loc 1 142 0
 197 007a 3D43     		orrs	r5, r5, r7
 198 007c A560     		str	r5, [r4, #8]
 199              	.LBE2:
 200              		.loc 1 155 0
 201 007e C407     		lsls	r4, r0, #31
 202 0080 CBD4     		bmi	.L21
 203              	.LVL14:
 204              	.L14:
 205              		.loc 1 158 0
 206 0082 074E     		ldr	r6, .L22
 207 0084 B568     		ldr	r5, [r6, #8]
 208 0086 DC43     		mvns	r4, r3
 209 0088 2540     		ands	r5, r5, r4
 210 008a B560     		str	r5, [r6, #8]
 211 008c CAE7     		b	.L15
 212              	.LVL15:
 213              	.L18:
 214              		.loc 1 170 0
 215 008e 044A     		ldr	r2, .L22
 216 0090 5168     		ldr	r1, [r2, #4]
 217 0092 0B43     		orrs	r3, r3, r1
 218              	.LVL16:
 219 0094 5360     		str	r3, [r2, #4]
 220              		.loc 1 171 0
 221 0096 1368     		ldr	r3, [r2]
 222 0098 2340     		ands	r3, r3, r4
 223 009a 1360     		str	r3, [r2]
 224 009c F0BD     		pop	{r4, r5, r6, r7, pc}
 225              	.L23:
 226 009e 00BF     		.align	2
 227              	.L22:
 228 00a0 003C0140 		.word	1073822720
ARM GAS  /var/folders/m4/4md61f0s1_g0rzfghffqnxvr0000gn/T//ccH9XwHA.s 			page 5


 229              		.cfi_endproc
 230              	.LFE271:
 231              		.size	ext_lld_channel_enable, .-ext_lld_channel_enable
 232              		.section	.text.ext_lld_channel_disable,"ax",%progbits
 233              		.align	2
 234              		.p2align 4,,15
 235              		.global	ext_lld_channel_disable
 236              		.thumb
 237              		.thumb_func
 238              		.type	ext_lld_channel_disable, %function
 239              	ext_lld_channel_disable:
 240              	.LFB272:
 241              		.loc 1 212 0
 242              		.cfi_startproc
 243              		@ args = 0, pretend = 0, frame = 0
 244              		@ frame_needed = 0, uses_anonymous_args = 0
 245              		@ link register save eliminated.
 246              	.LVL17:
 247              		.loc 1 220 0
 248 0000 094B     		ldr	r3, .L25
 249              		.loc 1 213 0
 250 0002 01F01F01 		and	r1, r1, #31
 251              	.LVL18:
 252 0006 0122     		movs	r2, #1
 253              		.loc 1 220 0
 254 0008 1868     		ldr	r0, [r3]
 255              	.LVL19:
 256              		.loc 1 213 0
 257 000a 8A40     		lsls	r2, r2, r1
 258              	.LVL20:
 259              		.loc 1 220 0
 260 000c D143     		mvns	r1, r2
 261 000e 0840     		ands	r0, r0, r1
 262 0010 1860     		str	r0, [r3]
 263              		.loc 1 221 0
 264 0012 5868     		ldr	r0, [r3, #4]
 265 0014 0840     		ands	r0, r0, r1
 266 0016 5860     		str	r0, [r3, #4]
 267              		.loc 1 222 0
 268 0018 9868     		ldr	r0, [r3, #8]
 269 001a 0840     		ands	r0, r0, r1
 270 001c 9860     		str	r0, [r3, #8]
 271              		.loc 1 223 0
 272 001e D868     		ldr	r0, [r3, #12]
 273 0020 0140     		ands	r1, r1, r0
 274 0022 D960     		str	r1, [r3, #12]
 275              		.loc 1 224 0
 276 0024 5A61     		str	r2, [r3, #20]
 277 0026 7047     		bx	lr
 278              	.L26:
 279              		.align	2
 280              	.L25:
 281 0028 003C0140 		.word	1073822720
 282              		.cfi_endproc
 283              	.LFE272:
 284              		.size	ext_lld_channel_disable, .-ext_lld_channel_disable
 285              		.section	.text.ext_lld_start,"ax",%progbits
ARM GAS  /var/folders/m4/4md61f0s1_g0rzfghffqnxvr0000gn/T//ccH9XwHA.s 			page 6


 286              		.align	2
 287              		.p2align 4,,15
 288              		.global	ext_lld_start
 289              		.thumb
 290              		.thumb_func
 291              		.type	ext_lld_start, %function
 292              	ext_lld_start:
 293              	.LFB269:
 294              		.loc 1 85 0
 295              		.cfi_startproc
 296              		@ args = 0, pretend = 0, frame = 0
 297              		@ frame_needed = 0, uses_anonymous_args = 0
 298              	.LVL21:
 299 0000 38B5     		push	{r3, r4, r5, lr}
 300              		.cfi_def_cfa_offset 16
 301              		.cfi_offset 3, -16
 302              		.cfi_offset 4, -12
 303              		.cfi_offset 5, -8
 304              		.cfi_offset 14, -4
 305              		.loc 1 88 0
 306 0002 0378     		ldrb	r3, [r0]	@ zero_extendqisi2
 307 0004 012B     		cmp	r3, #1
 308              		.loc 1 85 0
 309 0006 0546     		mov	r5, r0
 310              		.loc 1 88 0
 311 0008 16D0     		beq	.L34
 312              	.LVL22:
 313              	.L28:
 314              		.loc 1 85 0 discriminator 1
 315 000a 0024     		movs	r4, #0
 316 000c 04E0     		b	.L31
 317              	.LVL23:
 318              	.L36:
 319              		.loc 1 92 0
 320 000e 0134     		adds	r4, r4, #1
 321              		.loc 1 94 0
 322 0010 FFF7FEFF 		bl	ext_lld_channel_enable
 323              	.LVL24:
 324              		.loc 1 92 0
 325 0014 172C     		cmp	r4, #23
 326 0016 0ED0     		beq	.L35
 327              	.LVL25:
 328              	.L31:
 329              		.loc 1 93 0
 330 0018 6B68     		ldr	r3, [r5, #4]
 331 001a 53F83430 		ldr	r3, [r3, r4, lsl #3]
 332 001e 13F0040F 		tst	r3, #4
 333              		.loc 1 94 0
 334 0022 2846     		mov	r0, r5
 335 0024 2146     		mov	r1, r4
 336              		.loc 1 93 0
 337 0026 F2D1     		bne	.L36
 338              	.LVL26:
 339              		.loc 1 96 0
 340 0028 2146     		mov	r1, r4
 341 002a 2846     		mov	r0, r5
 342              	.LVL27:
ARM GAS  /var/folders/m4/4md61f0s1_g0rzfghffqnxvr0000gn/T//ccH9XwHA.s 			page 7


 343              		.loc 1 92 0
 344 002c 0134     		adds	r4, r4, #1
 345              	.LVL28:
 346              		.loc 1 96 0
 347 002e FFF7FEFF 		bl	ext_lld_channel_disable
 348              	.LVL29:
 349              		.loc 1 92 0
 350 0032 172C     		cmp	r4, #23
 351 0034 F0D1     		bne	.L31
 352              	.L35:
 353              		.loc 1 97 0
 354 0036 38BD     		pop	{r3, r4, r5, pc}
 355              	.LVL30:
 356              	.L34:
 357              		.loc 1 89 0
 358 0038 FFF7FEFF 		bl	ext_lld_exti_irq_enable
 359              	.LVL31:
 360 003c E5E7     		b	.L28
 361              		.cfi_endproc
 362              	.LFE269:
 363              		.size	ext_lld_start, .-ext_lld_start
 364              		.global	EXTD1
 365 003e 00BF     		.section	.bss.EXTD1,"aw",%nobits
 366              		.align	2
 367              		.set	.LANCHOR0,. + 0
 368              		.type	EXTD1, %object
 369              		.size	EXTD1, 8
 370              	EXTD1:
 371 0000 00000000 		.space	8
 371      00000000 
 372              		.text
 373              	.Letext0:
 374              		.file 2 "/usr/local/Cellar/gcc-arm-none-eabi-49/20150609/lib/gcc/arm-none-eabi/4.9.3/include/stdde
 375              		.file 3 "/usr/local/Cellar/gcc-arm-none-eabi-49/20150609/arm-none-eabi/include/machine/_default_ty
 376              		.file 4 "/usr/local/Cellar/gcc-arm-none-eabi-49/20150609/arm-none-eabi/include/sys/_stdint.h"
 377              		.file 5 "ChibiOS_16.1.4/os/rt/ports/ARMCMx/compilers/GCC/chtypes.h"
 378              		.file 6 "ChibiOS_16.1.4/os/rt/include/chsystypes.h"
 379              		.file 7 "ChibiOS_16.1.4/os/rt/include/chschd.h"
 380              		.file 8 "ChibiOS_16.1.4/os/ext/CMSIS/ST/STM32F4xx/stm32f446xx.h"
 381              		.file 9 "ChibiOS_16.1.4/os/rt/ports/ARMCMx/chcore.h"
 382              		.file 10 "ChibiOS_16.1.4/os/rt/ports/ARMCMx/chcore_v7m.h"
 383              		.file 11 "ChibiOS_16.1.4/os/rt/include/chtm.h"
 384              		.file 12 "ChibiOS_16.1.4/os/rt/include/chsem.h"
 385              		.file 13 "ChibiOS_16.1.4/os/rt/include/chmtx.h"
 386              		.file 14 "ChibiOS_16.1.4/os/hal/include/ext.h"
 387              		.file 15 "ChibiOS_16.1.4/os/hal/ports/STM32/LLD/EXTIv1/ext_lld.h"
 388              		.file 16 "ChibiOS_16.1.4/os/ext/CMSIS/include/core_cm4.h"
 389              		.file 17 "ChibiOS_16.1.4/os/hal/ports/STM32/STM32F4xx/ext_lld_isr.h"