ARM GAS  /var/folders/m4/4md61f0s1_g0rzfghffqnxvr0000gn/T//cc0RGt34.s 			page 1


   1              		.syntax unified
   2              		.cpu cortex-m4
   3              		.eabi_attribute 27, 1
   4              		.eabi_attribute 28, 1
   5              		.fpu fpv4-sp-d16
   6              		.eabi_attribute 20, 1
   7              		.eabi_attribute 21, 1
   8              		.eabi_attribute 23, 3
   9              		.eabi_attribute 24, 1
  10              		.eabi_attribute 25, 1
  11              		.eabi_attribute 26, 1
  12              		.eabi_attribute 30, 2
  13              		.eabi_attribute 34, 1
  14              		.eabi_attribute 18, 4
  15              		.thumb
  16              		.file	"hal.c"
  17              		.text
  18              	.Ltext0:
  19              		.cfi_sections	.debug_frame
  20              		.section	.text.halInit,"ax",%progbits
  21              		.align	2
  22              		.p2align 4,,15
  23              		.global	halInit
  24              		.thumb
  25              		.thumb_func
  26              		.type	halInit, %function
  27              	halInit:
  28              	.LFB268:
  29              		.file 1 "ChibiOS_16.1.4/os/hal/src/hal.c"
  30              		.loc 1 56 0
  31              		.cfi_startproc
  32              		@ args = 0, pretend = 0, frame = 0
  33              		@ frame_needed = 0, uses_anonymous_args = 0
  34 0000 08B5     		push	{r3, lr}
  35              		.cfi_def_cfa_offset 8
  36              		.cfi_offset 3, -8
  37              		.cfi_offset 14, -4
  38              		.loc 1 62 0
  39 0002 FFF7FEFF 		bl	hal_lld_init
  40              	.LVL0:
  41              		.loc 1 65 0
  42 0006 0A48     		ldr	r0, .L3
  43 0008 FFF7FEFF 		bl	_pal_lld_init
  44              	.LVL1:
  45              		.loc 1 68 0
  46 000c FFF7FEFF 		bl	adcInit
  47              	.LVL2:
  48              		.loc 1 83 0
  49 0010 FFF7FEFF 		bl	i2cInit
  50              	.LVL3:
  51              		.loc 1 95 0
  52 0014 FFF7FEFF 		bl	pwmInit
  53              	.LVL4:
  54              		.loc 1 104 0
  55 0018 FFF7FEFF 		bl	spiInit
  56              	.LVL5:
  57              		.loc 1 110 0
ARM GAS  /var/folders/m4/4md61f0s1_g0rzfghffqnxvr0000gn/T//cc0RGt34.s 			page 2


  58 001c FFF7FEFF 		bl	usbInit
  59              	.LVL6:
  60              		.loc 1 116 0
  61 0020 FFF7FEFF 		bl	sduInit
  62              	.LVL7:
  63              		.loc 1 133 0
  64 0024 FFF7FEFF 		bl	boardInit
  65              	.LVL8:
  66              		.loc 1 142 0
  67 0028 BDE80840 		pop	{r3, lr}
  68              		.cfi_restore 14
  69              		.cfi_restore 3
  70              		.cfi_def_cfa_offset 0
  71              		.loc 1 140 0
  72 002c FFF7FEBF 		b	stInit
  73              	.LVL9:
  74              	.L4:
  75              		.align	2
  76              	.L3:
  77 0030 00000000 		.word	pal_default_config
  78              		.cfi_endproc
  79              	.LFE268:
  80              		.size	halInit, .-halInit
  81              		.text
  82              	.Letext0:
  83              		.file 2 "/usr/local/Cellar/gcc-arm-none-eabi-49/20150609/arm-none-eabi/include/machine/_default_ty
  84              		.file 3 "/usr/local/Cellar/gcc-arm-none-eabi-49/20150609/arm-none-eabi/include/sys/_stdint.h"
  85              		.file 4 "ChibiOS_16.1.4/os/rt/ports/ARMCMx/compilers/GCC/chtypes.h"
  86              		.file 5 "ChibiOS_16.1.4/os/rt/include/chsystypes.h"
  87              		.file 6 "ChibiOS_16.1.4/os/rt/include/chschd.h"
  88              		.file 7 "ChibiOS_16.1.4/os/rt/ports/ARMCMx/chcore.h"
  89              		.file 8 "ChibiOS_16.1.4/os/rt/ports/ARMCMx/chcore_v7m.h"
  90              		.file 9 "ChibiOS_16.1.4/os/rt/include/chtm.h"
  91              		.file 10 "ChibiOS_16.1.4/os/rt/include/chsem.h"
  92              		.file 11 "ChibiOS_16.1.4/os/rt/include/chmtx.h"
  93              		.file 12 "ChibiOS_16.1.4/os/hal/ports/STM32/LLD/GPIOv2/pal_lld.h"
  94              		.file 13 "ChibiOS_16.1.4/os/ext/CMSIS/include/core_cm4.h"
  95              		.file 14 "ChibiOS_16.1.4/os/hal/ports/STM32/STM32F4xx/hal_lld.h"
  96              		.file 15 "ChibiOS_16.1.4/os/hal/include/adc.h"
  97              		.file 16 "ChibiOS_16.1.4/os/hal/include/i2c.h"
  98              		.file 17 "ChibiOS_16.1.4/os/hal/include/pwm.h"
  99              		.file 18 "ChibiOS_16.1.4/os/hal/include/spi.h"
 100              		.file 19 "ChibiOS_16.1.4/os/hal/include/usb.h"
 101              		.file 20 "ChibiOS_16.1.4/os/hal/include/serial_usb.h"
 102              		.file 21 "board/board.h"
 103              		.file 22 "ChibiOS_16.1.4/os/hal/include/st.h"
 104              		.file 23 "ChibiOS_16.1.4/os/hal/osal/rt/osal.h"