ARM GAS  /var/folders/m4/4md61f0s1_g0rzfghffqnxvr0000gn/T//ccIPXWhq.s 			page 1


   1              		.syntax unified
   2              		.cpu cortex-m4
   3              		.eabi_attribute 27, 1
   4              		.eabi_attribute 28, 1
   5              		.fpu fpv4-sp-d16
   6              		.eabi_attribute 20, 1
   7              		.eabi_attribute 21, 1
   8              		.eabi_attribute 23, 3
   9              		.eabi_attribute 24, 1
  10              		.eabi_attribute 25, 1
  11              		.eabi_attribute 26, 1
  12              		.eabi_attribute 30, 2
  13              		.eabi_attribute 34, 1
  14              		.eabi_attribute 18, 4
  15              		.thumb
  16              		.file	"hal.c"
  17              		.text
  18              	.Ltext0:
  19              		.cfi_sections	.debug_frame
  20              		.section	.text.halInit,"ax",%progbits
  21              		.align	2
  22              		.p2align 4,,15
  23              		.global	halInit
  24              		.thumb
  25              		.thumb_func
  26              		.type	halInit, %function
  27              	halInit:
  28              	.LFB268:
  29              		.file 1 "ChibiOS_16.1.4/os/hal/src/hal.c"
  30              		.loc 1 56 0
  31              		.cfi_startproc
  32              		@ args = 0, pretend = 0, frame = 0
  33              		@ frame_needed = 0, uses_anonymous_args = 0
  34 0000 08B5     		push	{r3, lr}
  35              		.cfi_def_cfa_offset 8
  36              		.cfi_offset 3, -8
  37              		.cfi_offset 14, -4
  38              		.loc 1 62 0
  39 0002 FFF7FEFF 		bl	hal_lld_init
  40              	.LVL0:
  41              		.loc 1 65 0
  42 0006 0B48     		ldr	r0, .L3
  43 0008 FFF7FEFF 		bl	_pal_lld_init
  44              	.LVL1:
  45              		.loc 1 68 0
  46 000c FFF7FEFF 		bl	adcInit
  47              	.LVL2:
  48              		.loc 1 77 0
  49 0010 FFF7FEFF 		bl	extInit
  50              	.LVL3:
  51              		.loc 1 83 0
  52 0014 FFF7FEFF 		bl	i2cInit
  53              	.LVL4:
  54              		.loc 1 95 0
  55 0018 FFF7FEFF 		bl	pwmInit
  56              	.LVL5:
  57              		.loc 1 104 0
ARM GAS  /var/folders/m4/4md61f0s1_g0rzfghffqnxvr0000gn/T//ccIPXWhq.s 			page 2


  58 001c FFF7FEFF 		bl	spiInit
  59              	.LVL6:
  60              		.loc 1 110 0
  61 0020 FFF7FEFF 		bl	usbInit
  62              	.LVL7:
  63              		.loc 1 116 0
  64 0024 FFF7FEFF 		bl	sduInit
  65              	.LVL8:
  66              		.loc 1 133 0
  67 0028 FFF7FEFF 		bl	boardInit
  68              	.LVL9:
  69              		.loc 1 142 0
  70 002c BDE80840 		pop	{r3, lr}
  71              		.cfi_restore 14
  72              		.cfi_restore 3
  73              		.cfi_def_cfa_offset 0
  74              		.loc 1 140 0
  75 0030 FFF7FEBF 		b	stInit
  76              	.LVL10:
  77              	.L4:
  78              		.align	2
  79              	.L3:
  80 0034 00000000 		.word	pal_default_config
  81              		.cfi_endproc
  82              	.LFE268:
  83              		.size	halInit, .-halInit
  84              		.text
  85              	.Letext0:
  86              		.file 2 "/usr/local/Cellar/gcc-arm-none-eabi-49/20150609/arm-none-eabi/include/machine/_default_ty
  87              		.file 3 "/usr/local/Cellar/gcc-arm-none-eabi-49/20150609/arm-none-eabi/include/sys/_stdint.h"
  88              		.file 4 "ChibiOS_16.1.4/os/rt/ports/ARMCMx/compilers/GCC/chtypes.h"
  89              		.file 5 "ChibiOS_16.1.4/os/rt/include/chsystypes.h"
  90              		.file 6 "ChibiOS_16.1.4/os/rt/include/chschd.h"
  91              		.file 7 "ChibiOS_16.1.4/os/rt/ports/ARMCMx/chcore.h"
  92              		.file 8 "ChibiOS_16.1.4/os/rt/ports/ARMCMx/chcore_v7m.h"
  93              		.file 9 "ChibiOS_16.1.4/os/rt/include/chtm.h"
  94              		.file 10 "ChibiOS_16.1.4/os/rt/include/chsem.h"
  95              		.file 11 "ChibiOS_16.1.4/os/rt/include/chmtx.h"
  96              		.file 12 "ChibiOS_16.1.4/os/hal/ports/STM32/LLD/GPIOv2/pal_lld.h"
  97              		.file 13 "ChibiOS_16.1.4/os/ext/CMSIS/include/core_cm4.h"
  98              		.file 14 "ChibiOS_16.1.4/os/hal/ports/STM32/STM32F4xx/hal_lld.h"
  99              		.file 15 "ChibiOS_16.1.4/os/hal/include/adc.h"
 100              		.file 16 "ChibiOS_16.1.4/os/hal/include/ext.h"
 101              		.file 17 "ChibiOS_16.1.4/os/hal/include/i2c.h"
 102              		.file 18 "ChibiOS_16.1.4/os/hal/include/pwm.h"
 103              		.file 19 "ChibiOS_16.1.4/os/hal/include/spi.h"
 104              		.file 20 "ChibiOS_16.1.4/os/hal/include/usb.h"
 105              		.file 21 "ChibiOS_16.1.4/os/hal/include/serial_usb.h"
 106              		.file 22 "board/board.h"
 107              		.file 23 "ChibiOS_16.1.4/os/hal/include/st.h"
 108              		.file 24 "ChibiOS_16.1.4/os/hal/osal/rt/osal.h"
 109              		.section	.debug_info,"",%progbits
 110              	.Ldebug_info0:
 111 0000 0C090000 		.4byte	0x90c
 112 0004 0400     		.2byte	0x4
 113 0006 00000000 		.4byte	.Ldebug_abbrev0
 114 000a 04       		.byte	0x4
ARM GAS  /var/folders/m4/4md61f0s1_g0rzfghffqnxvr0000gn/T//ccIPXWhq.s 			page 3


 115 000b 01       		.uleb128 0x1
 116 000c BB020000 		.4byte	.LASF133
 117 0010 01       		.byte	0x1
 118 0011 9B020000 		.4byte	.LASF134
 119 0015 00000000 		.4byte	.LASF135
 120 0019 00000000 		.4byte	.Ldebug_ranges0+0
 121 001d 00000000 		.4byte	0
 122 0021 00000000 		.4byte	.Ldebug_line0
 123 0025 02       		.uleb128 0x2
 124 0026 04       		.byte	0x4
 125 0027 05       		.byte	0x5
 126 0028 696E7400 		.ascii	"int\000"
 127 002c 03       		.uleb128 0x3
 128 002d 04       		.byte	0x4
 129 002e 07       		.byte	0x7
 130 002f BA010000 		.4byte	.LASF0
 131 0033 03       		.uleb128 0x3
 132 0034 01       		.byte	0x1
 133 0035 06       		.byte	0x6
 134 0036 0F010000 		.4byte	.LASF1
 135 003a 04       		.uleb128 0x4
 136 003b 69000000 		.4byte	.LASF5
 137 003f 02       		.byte	0x2
 138 0040 1D       		.byte	0x1d
 139 0041 45000000 		.4byte	0x45
 140 0045 03       		.uleb128 0x3
 141 0046 01       		.byte	0x1
 142 0047 08       		.byte	0x8
 143 0048 B0040000 		.4byte	.LASF2
 144 004c 03       		.uleb128 0x3
 145 004d 02       		.byte	0x2
 146 004e 05       		.byte	0x5
 147 004f DD040000 		.4byte	.LASF3
 148 0053 03       		.uleb128 0x3
 149 0054 02       		.byte	0x2
 150 0055 07       		.byte	0x7
 151 0056 08020000 		.4byte	.LASF4
 152 005a 04       		.uleb128 0x4
 153 005b 60020000 		.4byte	.LASF6
 154 005f 02       		.byte	0x2
 155 0060 3F       		.byte	0x3f
 156 0061 65000000 		.4byte	0x65
 157 0065 03       		.uleb128 0x3
 158 0066 04       		.byte	0x4
 159 0067 05       		.byte	0x5
 160 0068 45010000 		.4byte	.LASF7
 161 006c 04       		.uleb128 0x4
 162 006d BB050000 		.4byte	.LASF8
 163 0071 02       		.byte	0x2
 164 0072 41       		.byte	0x41
 165 0073 77000000 		.4byte	0x77
 166 0077 03       		.uleb128 0x3
 167 0078 04       		.byte	0x4
 168 0079 07       		.byte	0x7
 169 007a 6E050000 		.4byte	.LASF9
 170 007e 03       		.uleb128 0x3
 171 007f 08       		.byte	0x8
ARM GAS  /var/folders/m4/4md61f0s1_g0rzfghffqnxvr0000gn/T//ccIPXWhq.s 			page 4


 172 0080 05       		.byte	0x5
 173 0081 01010000 		.4byte	.LASF10
 174 0085 04       		.uleb128 0x4
 175 0086 57040000 		.4byte	.LASF11
 176 008a 02       		.byte	0x2
 177 008b 5B       		.byte	0x5b
 178 008c 90000000 		.4byte	0x90
 179 0090 03       		.uleb128 0x3
 180 0091 08       		.byte	0x8
 181 0092 07       		.byte	0x7
 182 0093 95000000 		.4byte	.LASF12
 183 0097 04       		.uleb128 0x4
 184 0098 39060000 		.4byte	.LASF13
 185 009c 03       		.byte	0x3
 186 009d 14       		.byte	0x14
 187 009e 3A000000 		.4byte	0x3a
 188 00a2 04       		.uleb128 0x4
 189 00a3 A8040000 		.4byte	.LASF14
 190 00a7 03       		.byte	0x3
 191 00a8 1F       		.byte	0x1f
 192 00a9 5A000000 		.4byte	0x5a
 193 00ad 04       		.uleb128 0x4
 194 00ae 46050000 		.4byte	.LASF15
 195 00b2 03       		.byte	0x3
 196 00b3 20       		.byte	0x20
 197 00b4 6C000000 		.4byte	0x6c
 198 00b8 04       		.uleb128 0x4
 199 00b9 60000000 		.4byte	.LASF16
 200 00bd 03       		.byte	0x3
 201 00be 26       		.byte	0x26
 202 00bf 85000000 		.4byte	0x85
 203 00c3 04       		.uleb128 0x4
 204 00c4 EC050000 		.4byte	.LASF17
 205 00c8 04       		.byte	0x4
 206 00c9 39       		.byte	0x39
 207 00ca AD000000 		.4byte	0xad
 208 00ce 04       		.uleb128 0x4
 209 00cf 3E020000 		.4byte	.LASF18
 210 00d3 04       		.byte	0x4
 211 00d4 3C       		.byte	0x3c
 212 00d5 97000000 		.4byte	0x97
 213 00d9 04       		.uleb128 0x4
 214 00da 55010000 		.4byte	.LASF19
 215 00de 04       		.byte	0x4
 216 00df 3D       		.byte	0x3d
 217 00e0 97000000 		.4byte	0x97
 218 00e4 04       		.uleb128 0x4
 219 00e5 62040000 		.4byte	.LASF20
 220 00e9 04       		.byte	0x4
 221 00ea 3E       		.byte	0x3e
 222 00eb 97000000 		.4byte	0x97
 223 00ef 04       		.uleb128 0x4
 224 00f0 31010000 		.4byte	.LASF21
 225 00f4 04       		.byte	0x4
 226 00f5 3F       		.byte	0x3f
 227 00f6 97000000 		.4byte	0x97
 228 00fa 04       		.uleb128 0x4
ARM GAS  /var/folders/m4/4md61f0s1_g0rzfghffqnxvr0000gn/T//ccIPXWhq.s 			page 5


 229 00fb 8A040000 		.4byte	.LASF22
 230 00ff 04       		.byte	0x4
 231 0100 40       		.byte	0x40
 232 0101 AD000000 		.4byte	0xad
 233 0105 04       		.uleb128 0x4
 234 0106 2C020000 		.4byte	.LASF23
 235 010a 04       		.byte	0x4
 236 010b 41       		.byte	0x41
 237 010c A2000000 		.4byte	0xa2
 238 0110 04       		.uleb128 0x4
 239 0111 54020000 		.4byte	.LASF24
 240 0115 04       		.byte	0x4
 241 0116 43       		.byte	0x43
 242 0117 AD000000 		.4byte	0xad
 243 011b 04       		.uleb128 0x4
 244 011c B4010000 		.4byte	.LASF25
 245 0120 04       		.byte	0x4
 246 0121 45       		.byte	0x45
 247 0122 A2000000 		.4byte	0xa2
 248 0126 04       		.uleb128 0x4
 249 0127 9D050000 		.4byte	.LASF26
 250 012b 05       		.byte	0x5
 251 012c 33       		.byte	0x33
 252 012d AD000000 		.4byte	0xad
 253 0131 04       		.uleb128 0x4
 254 0132 8D050000 		.4byte	.LASF27
 255 0136 05       		.byte	0x5
 256 0137 3F       		.byte	0x3f
 257 0138 3C010000 		.4byte	0x13c
 258 013c 05       		.uleb128 0x5
 259 013d 22020000 		.4byte	.LASF49
 260 0141 48       		.byte	0x48
 261 0142 06       		.byte	0x6
 262 0143 C2       		.byte	0xc2
 263 0144 41020000 		.4byte	0x241
 264 0148 06       		.uleb128 0x6
 265 0149 0E050000 		.4byte	.LASF28
 266 014d 06       		.byte	0x6
 267 014e C3       		.byte	0xc3
 268 014f 4C020000 		.4byte	0x24c
 269 0153 00       		.byte	0
 270 0154 06       		.uleb128 0x6
 271 0155 7A040000 		.4byte	.LASF29
 272 0159 06       		.byte	0x6
 273 015a C5       		.byte	0xc5
 274 015b 4C020000 		.4byte	0x24c
 275 015f 04       		.byte	0x4
 276 0160 06       		.uleb128 0x6
 277 0161 FA000000 		.4byte	.LASF30
 278 0165 06       		.byte	0x6
 279 0166 C7       		.byte	0xc7
 280 0167 FA000000 		.4byte	0xfa
 281 016b 08       		.byte	0x8
 282 016c 06       		.uleb128 0x6
 283 016d 9A060000 		.4byte	.LASF31
 284 0171 06       		.byte	0x6
 285 0172 C8       		.byte	0xc8
ARM GAS  /var/folders/m4/4md61f0s1_g0rzfghffqnxvr0000gn/T//ccIPXWhq.s 			page 6


 286 0173 7C040000 		.4byte	0x47c
 287 0177 0C       		.byte	0xc
 288 0178 06       		.uleb128 0x6
 289 0179 66010000 		.4byte	.LASF32
 290 017d 06       		.byte	0x6
 291 017e CA       		.byte	0xca
 292 017f 4C020000 		.4byte	0x24c
 293 0183 10       		.byte	0x10
 294 0184 06       		.uleb128 0x6
 295 0185 1A040000 		.4byte	.LASF33
 296 0189 06       		.byte	0x6
 297 018a CB       		.byte	0xcb
 298 018b 4C020000 		.4byte	0x24c
 299 018f 14       		.byte	0x14
 300 0190 06       		.uleb128 0x6
 301 0191 48060000 		.4byte	.LASF34
 302 0195 06       		.byte	0x6
 303 0196 D2       		.byte	0xd2
 304 0197 CA060000 		.4byte	0x6ca
 305 019b 18       		.byte	0x18
 306 019c 06       		.uleb128 0x6
 307 019d E7040000 		.4byte	.LASF35
 308 01a1 06       		.byte	0x6
 309 01a2 DD       		.byte	0xdd
 310 01a3 D9000000 		.4byte	0xd9
 311 01a7 1C       		.byte	0x1c
 312 01a8 06       		.uleb128 0x6
 313 01a9 15050000 		.4byte	.LASF36
 314 01ad 06       		.byte	0x6
 315 01ae E1       		.byte	0xe1
 316 01af CE000000 		.4byte	0xce
 317 01b3 1D       		.byte	0x1d
 318 01b4 06       		.uleb128 0x6
 319 01b5 14060000 		.4byte	.LASF37
 320 01b9 06       		.byte	0x6
 321 01ba E6       		.byte	0xe6
 322 01bb E4000000 		.4byte	0xe4
 323 01bf 1E       		.byte	0x1e
 324 01c0 06       		.uleb128 0x6
 325 01c1 EF040000 		.4byte	.LASF38
 326 01c5 06       		.byte	0x6
 327 01c6 EC       		.byte	0xec
 328 01c7 EF000000 		.4byte	0xef
 329 01cb 1F       		.byte	0x1f
 330 01cc 06       		.uleb128 0x6
 331 01cd CF010000 		.4byte	.LASF39
 332 01d1 06       		.byte	0x6
 333 01d2 F3       		.byte	0xf3
 334 01d3 DC060000 		.4byte	0x6dc
 335 01d7 20       		.byte	0x20
 336 01d8 07       		.uleb128 0x7
 337 01d9 705F7500 		.ascii	"p_u\000"
 338 01dd 06       		.byte	0x6
 339 01de 3101     		.2byte	0x131
 340 01e0 05060000 		.4byte	0x605
 341 01e4 24       		.byte	0x24
 342 01e5 08       		.uleb128 0x8
ARM GAS  /var/folders/m4/4md61f0s1_g0rzfghffqnxvr0000gn/T//ccIPXWhq.s 			page 7


 343 01e6 DD030000 		.4byte	.LASF40
 344 01ea 06       		.byte	0x6
 345 01eb 3601     		.2byte	0x136
 346 01ed 52020000 		.4byte	0x252
 347 01f1 28       		.byte	0x28
 348 01f2 08       		.uleb128 0x8
 349 01f3 E6010000 		.4byte	.LASF41
 350 01f7 06       		.byte	0x6
 351 01f8 3C01     		.2byte	0x13c
 352 01fa 76020000 		.4byte	0x276
 353 01fe 2C       		.byte	0x2c
 354 01ff 08       		.uleb128 0x8
 355 0200 6F060000 		.4byte	.LASF42
 356 0204 06       		.byte	0x6
 357 0205 4001     		.2byte	0x140
 358 0207 05010000 		.4byte	0x105
 359 020b 34       		.byte	0x34
 360 020c 08       		.uleb128 0x8
 361 020d 3B050000 		.4byte	.LASF43
 362 0211 06       		.byte	0x6
 363 0212 4601     		.2byte	0x146
 364 0214 10010000 		.4byte	0x110
 365 0218 38       		.byte	0x38
 366 0219 08       		.uleb128 0x8
 367 021a D3040000 		.4byte	.LASF44
 368 021e 06       		.byte	0x6
 369 021f 4D01     		.2byte	0x14d
 370 0221 C4060000 		.4byte	0x6c4
 371 0225 3C       		.byte	0x3c
 372 0226 08       		.uleb128 0x8
 373 0227 A7050000 		.4byte	.LASF45
 374 022b 06       		.byte	0x6
 375 022c 5101     		.2byte	0x151
 376 022e FA000000 		.4byte	0xfa
 377 0232 40       		.byte	0x40
 378 0233 08       		.uleb128 0x8
 379 0234 1B010000 		.4byte	.LASF46
 380 0238 06       		.byte	0x6
 381 0239 5801     		.2byte	0x158
 382 023b 29030000 		.4byte	0x329
 383 023f 44       		.byte	0x44
 384 0240 00       		.byte	0
 385 0241 04       		.uleb128 0x4
 386 0242 F0030000 		.4byte	.LASF47
 387 0246 05       		.byte	0x5
 388 0247 44       		.byte	0x44
 389 0248 4C020000 		.4byte	0x24c
 390 024c 09       		.uleb128 0x9
 391 024d 04       		.byte	0x4
 392 024e 31010000 		.4byte	0x131
 393 0252 04       		.uleb128 0x4
 394 0253 8C020000 		.4byte	.LASF48
 395 0257 05       		.byte	0x5
 396 0258 49       		.byte	0x49
 397 0259 5D020000 		.4byte	0x25d
 398 025d 05       		.uleb128 0x5
 399 025e 5E050000 		.4byte	.LASF50
ARM GAS  /var/folders/m4/4md61f0s1_g0rzfghffqnxvr0000gn/T//ccIPXWhq.s 			page 8


 400 0262 04       		.byte	0x4
 401 0263 06       		.byte	0x6
 402 0264 B0       		.byte	0xb0
 403 0265 76020000 		.4byte	0x276
 404 0269 06       		.uleb128 0x6
 405 026a 0E050000 		.4byte	.LASF28
 406 026e 06       		.byte	0x6
 407 026f B1       		.byte	0xb1
 408 0270 4C020000 		.4byte	0x24c
 409 0274 00       		.byte	0
 410 0275 00       		.byte	0
 411 0276 04       		.uleb128 0x4
 412 0277 FB050000 		.4byte	.LASF51
 413 027b 05       		.byte	0x5
 414 027c 50       		.byte	0x50
 415 027d 81020000 		.4byte	0x281
 416 0281 05       		.uleb128 0x5
 417 0282 E9000000 		.4byte	.LASF52
 418 0286 08       		.byte	0x8
 419 0287 06       		.byte	0x6
 420 0288 B7       		.byte	0xb7
 421 0289 A6020000 		.4byte	0x2a6
 422 028d 06       		.uleb128 0x6
 423 028e 0E050000 		.4byte	.LASF28
 424 0292 06       		.byte	0x6
 425 0293 B8       		.byte	0xb8
 426 0294 4C020000 		.4byte	0x24c
 427 0298 00       		.byte	0
 428 0299 06       		.uleb128 0x6
 429 029a 7A040000 		.4byte	.LASF29
 430 029e 06       		.byte	0x6
 431 029f B9       		.byte	0xb9
 432 02a0 4C020000 		.4byte	0x24c
 433 02a4 04       		.byte	0x4
 434 02a5 00       		.byte	0
 435 02a6 04       		.uleb128 0x4
 436 02a7 3F000000 		.4byte	.LASF53
 437 02ab 05       		.byte	0x5
 438 02ac 57       		.byte	0x57
 439 02ad B1020000 		.4byte	0x2b1
 440 02b1 0A       		.uleb128 0xa
 441 02b2 46020000 		.4byte	.LASF54
 442 02b6 1C       		.byte	0x1c
 443 02b7 06       		.byte	0x6
 444 02b8 9001     		.2byte	0x190
 445 02ba 0D030000 		.4byte	0x30d
 446 02be 08       		.uleb128 0x8
 447 02bf 56050000 		.4byte	.LASF55
 448 02c3 06       		.byte	0x6
 449 02c4 9101     		.2byte	0x191
 450 02c6 76020000 		.4byte	0x276
 451 02ca 00       		.byte	0
 452 02cb 08       		.uleb128 0x8
 453 02cc F9040000 		.4byte	.LASF56
 454 02d0 06       		.byte	0x6
 455 02d1 9201     		.2byte	0x192
 456 02d3 FA000000 		.4byte	0xfa
ARM GAS  /var/folders/m4/4md61f0s1_g0rzfghffqnxvr0000gn/T//ccIPXWhq.s 			page 9


 457 02d7 08       		.byte	0x8
 458 02d8 08       		.uleb128 0x8
 459 02d9 22040000 		.4byte	.LASF57
 460 02dd 06       		.byte	0x6
 461 02de 9401     		.2byte	0x194
 462 02e0 7C040000 		.4byte	0x47c
 463 02e4 0C       		.byte	0xc
 464 02e5 08       		.uleb128 0x8
 465 02e6 76010000 		.4byte	.LASF58
 466 02ea 06       		.byte	0x6
 467 02eb 9701     		.2byte	0x197
 468 02ed 4C020000 		.4byte	0x24c
 469 02f1 10       		.byte	0x10
 470 02f2 08       		.uleb128 0x8
 471 02f3 4F040000 		.4byte	.LASF59
 472 02f7 06       		.byte	0x6
 473 02f8 9801     		.2byte	0x198
 474 02fa 4C020000 		.4byte	0x24c
 475 02fe 14       		.byte	0x14
 476 02ff 08       		.uleb128 0x8
 477 0300 45040000 		.4byte	.LASF60
 478 0304 06       		.byte	0x6
 479 0305 9B01     		.2byte	0x19b
 480 0307 4C020000 		.4byte	0x24c
 481 030b 18       		.byte	0x18
 482 030c 00       		.byte	0
 483 030d 04       		.uleb128 0x4
 484 030e B2050000 		.4byte	.LASF61
 485 0312 05       		.byte	0x5
 486 0313 5C       		.byte	0x5c
 487 0314 18030000 		.4byte	0x318
 488 0318 09       		.uleb128 0x9
 489 0319 04       		.byte	0x4
 490 031a 1E030000 		.4byte	0x31e
 491 031e 0B       		.uleb128 0xb
 492 031f 29030000 		.4byte	0x329
 493 0323 0C       		.uleb128 0xc
 494 0324 29030000 		.4byte	0x329
 495 0328 00       		.byte	0
 496 0329 0D       		.uleb128 0xd
 497 032a 04       		.byte	0x4
 498 032b 04       		.uleb128 0x4
 499 032c 6A040000 		.4byte	.LASF62
 500 0330 05       		.byte	0x5
 501 0331 61       		.byte	0x61
 502 0332 36030000 		.4byte	0x336
 503 0336 0A       		.uleb128 0xa
 504 0337 1D050000 		.4byte	.LASF63
 505 033b 14       		.byte	0x14
 506 033c 06       		.byte	0x6
 507 033d 6B01     		.2byte	0x16b
 508 033f 85030000 		.4byte	0x385
 509 0343 08       		.uleb128 0x8
 510 0344 C7010000 		.4byte	.LASF64
 511 0348 06       		.byte	0x6
 512 0349 6C01     		.2byte	0x16c
 513 034b E1060000 		.4byte	0x6e1
ARM GAS  /var/folders/m4/4md61f0s1_g0rzfghffqnxvr0000gn/T//ccIPXWhq.s 			page 10


 514 034f 00       		.byte	0
 515 0350 08       		.uleb128 0x8
 516 0351 87010000 		.4byte	.LASF65
 517 0355 06       		.byte	0x6
 518 0356 6D01     		.2byte	0x16d
 519 0358 E1060000 		.4byte	0x6e1
 520 035c 04       		.byte	0x4
 521 035d 08       		.uleb128 0x8
 522 035e DD010000 		.4byte	.LASF66
 523 0362 06       		.byte	0x6
 524 0363 6E01     		.2byte	0x16e
 525 0365 26010000 		.4byte	0x126
 526 0369 08       		.byte	0x8
 527 036a 08       		.uleb128 0x8
 528 036b A0060000 		.4byte	.LASF67
 529 036f 06       		.byte	0x6
 530 0370 6F01     		.2byte	0x16f
 531 0372 0D030000 		.4byte	0x30d
 532 0376 0C       		.byte	0xc
 533 0377 08       		.uleb128 0x8
 534 0378 F4050000 		.4byte	.LASF68
 535 037c 06       		.byte	0x6
 536 037d 7101     		.2byte	0x171
 537 037f 29030000 		.4byte	0x329
 538 0383 10       		.byte	0x10
 539 0384 00       		.byte	0
 540 0385 04       		.uleb128 0x4
 541 0386 C6000000 		.4byte	.LASF69
 542 038a 05       		.byte	0x5
 543 038b 66       		.byte	0x66
 544 038c 90030000 		.4byte	0x390
 545 0390 0A       		.uleb128 0xa
 546 0391 03040000 		.4byte	.LASF70
 547 0395 10       		.byte	0x10
 548 0396 06       		.byte	0x6
 549 0397 7B01     		.2byte	0x17b
 550 0399 D2030000 		.4byte	0x3d2
 551 039d 08       		.uleb128 0x8
 552 039e C7010000 		.4byte	.LASF64
 553 03a2 06       		.byte	0x6
 554 03a3 7C01     		.2byte	0x17c
 555 03a5 E1060000 		.4byte	0x6e1
 556 03a9 00       		.byte	0
 557 03aa 08       		.uleb128 0x8
 558 03ab 87010000 		.4byte	.LASF65
 559 03af 06       		.byte	0x6
 560 03b0 7E01     		.2byte	0x17e
 561 03b2 E1060000 		.4byte	0x6e1
 562 03b6 04       		.byte	0x4
 563 03b7 08       		.uleb128 0x8
 564 03b8 DD010000 		.4byte	.LASF66
 565 03bc 06       		.byte	0x6
 566 03bd 8001     		.2byte	0x180
 567 03bf 26010000 		.4byte	0x126
 568 03c3 08       		.byte	0x8
 569 03c4 08       		.uleb128 0x8
 570 03c5 5C060000 		.4byte	.LASF71
ARM GAS  /var/folders/m4/4md61f0s1_g0rzfghffqnxvr0000gn/T//ccIPXWhq.s 			page 11


 571 03c9 06       		.byte	0x6
 572 03ca 8201     		.2byte	0x182
 573 03cc DC060000 		.4byte	0x6dc
 574 03d0 0C       		.byte	0xc
 575 03d1 00       		.byte	0
 576 03d2 04       		.uleb128 0x4
 577 03d3 7F000000 		.4byte	.LASF72
 578 03d7 05       		.byte	0x5
 579 03d8 6B       		.byte	0x6b
 580 03d9 DD030000 		.4byte	0x3dd
 581 03dd 0A       		.uleb128 0xa
 582 03de 92040000 		.4byte	.LASF73
 583 03e2 04       		.byte	0x4
 584 03e3 06       		.byte	0x6
 585 03e4 A201     		.2byte	0x1a2
 586 03e6 F8030000 		.4byte	0x3f8
 587 03ea 08       		.uleb128 0x8
 588 03eb C6050000 		.4byte	.LASF74
 589 03ef 06       		.byte	0x6
 590 03f0 AA01     		.2byte	0x1aa
 591 03f2 E7060000 		.4byte	0x6e7
 592 03f6 00       		.byte	0
 593 03f7 00       		.byte	0
 594 03f8 04       		.uleb128 0x4
 595 03f9 32020000 		.4byte	.LASF75
 596 03fd 05       		.byte	0x5
 597 03fe 70       		.byte	0x70
 598 03ff 03040000 		.4byte	0x403
 599 0403 0E       		.uleb128 0xe
 600 0404 3B010000 		.4byte	.LASF76
 601 0408 5802     		.2byte	0x258
 602 040a 06       		.byte	0x6
 603 040b C201     		.2byte	0x1c2
 604 040d 5F040000 		.4byte	0x45f
 605 0411 08       		.uleb128 0x8
 606 0412 33060000 		.4byte	.LASF77
 607 0416 06       		.byte	0x6
 608 0417 C601     		.2byte	0x1c6
 609 0419 A6020000 		.4byte	0x2a6
 610 041d 00       		.byte	0
 611 041e 08       		.uleb128 0x8
 612 041f 8F010000 		.4byte	.LASF78
 613 0423 06       		.byte	0x6
 614 0424 CA01     		.2byte	0x1ca
 615 0426 85030000 		.4byte	0x385
 616 042a 1C       		.byte	0x1c
 617 042b 07       		.uleb128 0x7
 618 042c 64626700 		.ascii	"dbg\000"
 619 0430 06       		.byte	0x6
 620 0431 CE01     		.2byte	0x1ce
 621 0433 D2030000 		.4byte	0x3d2
 622 0437 2C       		.byte	0x2c
 623 0438 08       		.uleb128 0x8
 624 0439 BB000000 		.4byte	.LASF79
 625 043d 06       		.byte	0x6
 626 043e D201     		.2byte	0x1d2
 627 0440 31010000 		.4byte	0x131
ARM GAS  /var/folders/m4/4md61f0s1_g0rzfghffqnxvr0000gn/T//ccIPXWhq.s 			page 12


 628 0444 30       		.byte	0x30
 629 0445 07       		.uleb128 0x7
 630 0446 746D00   		.ascii	"tm\000"
 631 0449 06       		.byte	0x6
 632 044a D701     		.2byte	0x1d7
 633 044c FA050000 		.4byte	0x5fa
 634 0450 78       		.byte	0x78
 635 0451 08       		.uleb128 0x8
 636 0452 A5010000 		.4byte	.LASF80
 637 0456 06       		.byte	0x6
 638 0457 E301     		.2byte	0x1e3
 639 0459 EC060000 		.4byte	0x6ec
 640 045d 80       		.byte	0x80
 641 045e 00       		.byte	0
 642 045f 03       		.uleb128 0x3
 643 0460 04       		.byte	0x4
 644 0461 07       		.byte	0x7
 645 0462 E7030000 		.4byte	.LASF81
 646 0466 04       		.uleb128 0x4
 647 0467 7E010000 		.4byte	.LASF82
 648 046b 07       		.byte	0x7
 649 046c 65       		.byte	0x65
 650 046d 29030000 		.4byte	0x329
 651 0471 04       		.uleb128 0x4
 652 0472 79020000 		.4byte	.LASF83
 653 0476 07       		.byte	0x7
 654 0477 6D       		.byte	0x6d
 655 0478 B8000000 		.4byte	0xb8
 656 047c 05       		.uleb128 0x5
 657 047d D7050000 		.4byte	.LASF84
 658 0481 04       		.byte	0x4
 659 0482 07       		.byte	0x7
 660 0483 89       		.byte	0x89
 661 0484 95040000 		.4byte	0x495
 662 0488 0F       		.uleb128 0xf
 663 0489 72313300 		.ascii	"r13\000"
 664 048d 07       		.byte	0x7
 665 048e 8A       		.byte	0x8a
 666 048f DF050000 		.4byte	0x5df
 667 0493 00       		.byte	0
 668 0494 00       		.byte	0
 669 0495 05       		.uleb128 0x5
 670 0496 73000000 		.4byte	.LASF85
 671 049a 64       		.byte	0x64
 672 049b 08       		.byte	0x8
 673 049c FD       		.byte	0xfd
 674 049d DF050000 		.4byte	0x5df
 675 04a1 0F       		.uleb128 0xf
 676 04a2 73313600 		.ascii	"s16\000"
 677 04a6 08       		.byte	0x8
 678 04a7 FF       		.byte	0xff
 679 04a8 66040000 		.4byte	0x466
 680 04ac 00       		.byte	0
 681 04ad 07       		.uleb128 0x7
 682 04ae 73313700 		.ascii	"s17\000"
 683 04b2 08       		.byte	0x8
 684 04b3 0001     		.2byte	0x100
ARM GAS  /var/folders/m4/4md61f0s1_g0rzfghffqnxvr0000gn/T//ccIPXWhq.s 			page 13


 685 04b5 66040000 		.4byte	0x466
 686 04b9 04       		.byte	0x4
 687 04ba 07       		.uleb128 0x7
 688 04bb 73313800 		.ascii	"s18\000"
 689 04bf 08       		.byte	0x8
 690 04c0 0101     		.2byte	0x101
 691 04c2 66040000 		.4byte	0x466
 692 04c6 08       		.byte	0x8
 693 04c7 07       		.uleb128 0x7
 694 04c8 73313900 		.ascii	"s19\000"
 695 04cc 08       		.byte	0x8
 696 04cd 0201     		.2byte	0x102
 697 04cf 66040000 		.4byte	0x466
 698 04d3 0C       		.byte	0xc
 699 04d4 07       		.uleb128 0x7
 700 04d5 73323000 		.ascii	"s20\000"
 701 04d9 08       		.byte	0x8
 702 04da 0301     		.2byte	0x103
 703 04dc 66040000 		.4byte	0x466
 704 04e0 10       		.byte	0x10
 705 04e1 07       		.uleb128 0x7
 706 04e2 73323100 		.ascii	"s21\000"
 707 04e6 08       		.byte	0x8
 708 04e7 0401     		.2byte	0x104
 709 04e9 66040000 		.4byte	0x466
 710 04ed 14       		.byte	0x14
 711 04ee 07       		.uleb128 0x7
 712 04ef 73323200 		.ascii	"s22\000"
 713 04f3 08       		.byte	0x8
 714 04f4 0501     		.2byte	0x105
 715 04f6 66040000 		.4byte	0x466
 716 04fa 18       		.byte	0x18
 717 04fb 07       		.uleb128 0x7
 718 04fc 73323300 		.ascii	"s23\000"
 719 0500 08       		.byte	0x8
 720 0501 0601     		.2byte	0x106
 721 0503 66040000 		.4byte	0x466
 722 0507 1C       		.byte	0x1c
 723 0508 07       		.uleb128 0x7
 724 0509 73323400 		.ascii	"s24\000"
 725 050d 08       		.byte	0x8
 726 050e 0701     		.2byte	0x107
 727 0510 66040000 		.4byte	0x466
 728 0514 20       		.byte	0x20
 729 0515 07       		.uleb128 0x7
 730 0516 73323500 		.ascii	"s25\000"
 731 051a 08       		.byte	0x8
 732 051b 0801     		.2byte	0x108
 733 051d 66040000 		.4byte	0x466
 734 0521 24       		.byte	0x24
 735 0522 07       		.uleb128 0x7
 736 0523 73323600 		.ascii	"s26\000"
 737 0527 08       		.byte	0x8
 738 0528 0901     		.2byte	0x109
 739 052a 66040000 		.4byte	0x466
 740 052e 28       		.byte	0x28
 741 052f 07       		.uleb128 0x7
ARM GAS  /var/folders/m4/4md61f0s1_g0rzfghffqnxvr0000gn/T//ccIPXWhq.s 			page 14


 742 0530 73323700 		.ascii	"s27\000"
 743 0534 08       		.byte	0x8
 744 0535 0A01     		.2byte	0x10a
 745 0537 66040000 		.4byte	0x466
 746 053b 2C       		.byte	0x2c
 747 053c 07       		.uleb128 0x7
 748 053d 73323800 		.ascii	"s28\000"
 749 0541 08       		.byte	0x8
 750 0542 0B01     		.2byte	0x10b
 751 0544 66040000 		.4byte	0x466
 752 0548 30       		.byte	0x30
 753 0549 07       		.uleb128 0x7
 754 054a 73323900 		.ascii	"s29\000"
 755 054e 08       		.byte	0x8
 756 054f 0C01     		.2byte	0x10c
 757 0551 66040000 		.4byte	0x466
 758 0555 34       		.byte	0x34
 759 0556 07       		.uleb128 0x7
 760 0557 73333000 		.ascii	"s30\000"
 761 055b 08       		.byte	0x8
 762 055c 0D01     		.2byte	0x10d
 763 055e 66040000 		.4byte	0x466
 764 0562 38       		.byte	0x38
 765 0563 07       		.uleb128 0x7
 766 0564 73333100 		.ascii	"s31\000"
 767 0568 08       		.byte	0x8
 768 0569 0E01     		.2byte	0x10e
 769 056b 66040000 		.4byte	0x466
 770 056f 3C       		.byte	0x3c
 771 0570 07       		.uleb128 0x7
 772 0571 723400   		.ascii	"r4\000"
 773 0574 08       		.byte	0x8
 774 0575 1001     		.2byte	0x110
 775 0577 66040000 		.4byte	0x466
 776 057b 40       		.byte	0x40
 777 057c 07       		.uleb128 0x7
 778 057d 723500   		.ascii	"r5\000"
 779 0580 08       		.byte	0x8
 780 0581 1101     		.2byte	0x111
 781 0583 66040000 		.4byte	0x466
 782 0587 44       		.byte	0x44
 783 0588 07       		.uleb128 0x7
 784 0589 723600   		.ascii	"r6\000"
 785 058c 08       		.byte	0x8
 786 058d 1201     		.2byte	0x112
 787 058f 66040000 		.4byte	0x466
 788 0593 48       		.byte	0x48
 789 0594 07       		.uleb128 0x7
 790 0595 723700   		.ascii	"r7\000"
 791 0598 08       		.byte	0x8
 792 0599 1301     		.2byte	0x113
 793 059b 66040000 		.4byte	0x466
 794 059f 4C       		.byte	0x4c
 795 05a0 07       		.uleb128 0x7
 796 05a1 723800   		.ascii	"r8\000"
 797 05a4 08       		.byte	0x8
 798 05a5 1401     		.2byte	0x114
ARM GAS  /var/folders/m4/4md61f0s1_g0rzfghffqnxvr0000gn/T//ccIPXWhq.s 			page 15


 799 05a7 66040000 		.4byte	0x466
 800 05ab 50       		.byte	0x50
 801 05ac 07       		.uleb128 0x7
 802 05ad 723900   		.ascii	"r9\000"
 803 05b0 08       		.byte	0x8
 804 05b1 1501     		.2byte	0x115
 805 05b3 66040000 		.4byte	0x466
 806 05b7 54       		.byte	0x54
 807 05b8 07       		.uleb128 0x7
 808 05b9 72313000 		.ascii	"r10\000"
 809 05bd 08       		.byte	0x8
 810 05be 1601     		.2byte	0x116
 811 05c0 66040000 		.4byte	0x466
 812 05c4 58       		.byte	0x58
 813 05c5 07       		.uleb128 0x7
 814 05c6 72313100 		.ascii	"r11\000"
 815 05ca 08       		.byte	0x8
 816 05cb 1701     		.2byte	0x117
 817 05cd 66040000 		.4byte	0x466
 818 05d1 5C       		.byte	0x5c
 819 05d2 07       		.uleb128 0x7
 820 05d3 6C7200   		.ascii	"lr\000"
 821 05d6 08       		.byte	0x8
 822 05d7 1801     		.2byte	0x118
 823 05d9 66040000 		.4byte	0x466
 824 05dd 60       		.byte	0x60
 825 05de 00       		.byte	0
 826 05df 09       		.uleb128 0x9
 827 05e0 04       		.byte	0x4
 828 05e1 95040000 		.4byte	0x495
 829 05e5 10       		.uleb128 0x10
 830 05e6 04       		.byte	0x4
 831 05e7 09       		.byte	0x9
 832 05e8 38       		.byte	0x38
 833 05e9 FA050000 		.4byte	0x5fa
 834 05ed 06       		.uleb128 0x6
 835 05ee D0050000 		.4byte	.LASF86
 836 05f2 09       		.byte	0x9
 837 05f3 3C       		.byte	0x3c
 838 05f4 C3000000 		.4byte	0xc3
 839 05f8 00       		.byte	0
 840 05f9 00       		.byte	0
 841 05fa 04       		.uleb128 0x4
 842 05fb 28040000 		.4byte	.LASF87
 843 05ff 09       		.byte	0x9
 844 0600 3D       		.byte	0x3d
 845 0601 E5050000 		.4byte	0x5e5
 846 0605 11       		.uleb128 0x11
 847 0606 04       		.byte	0x4
 848 0607 06       		.byte	0x6
 849 0608 FA       		.byte	0xfa
 850 0609 62060000 		.4byte	0x662
 851 060d 12       		.uleb128 0x12
 852 060e 59000000 		.4byte	.LASF88
 853 0612 06       		.byte	0x6
 854 0613 0101     		.2byte	0x101
 855 0615 05010000 		.4byte	0x105
ARM GAS  /var/folders/m4/4md61f0s1_g0rzfghffqnxvr0000gn/T//ccIPXWhq.s 			page 16


 856 0619 12       		.uleb128 0x12
 857 061a B2000000 		.4byte	.LASF89
 858 061e 06       		.byte	0x6
 859 061f 0801     		.2byte	0x108
 860 0621 05010000 		.4byte	0x105
 861 0625 12       		.uleb128 0x12
 862 0626 41060000 		.4byte	.LASF90
 863 062a 06       		.byte	0x6
 864 062b 0F01     		.2byte	0x10f
 865 062d 29030000 		.4byte	0x329
 866 0631 12       		.uleb128 0x12
 867 0632 53000000 		.4byte	.LASF91
 868 0636 06       		.byte	0x6
 869 0637 1601     		.2byte	0x116
 870 0639 62060000 		.4byte	0x662
 871 063d 12       		.uleb128 0x12
 872 063e D6010000 		.4byte	.LASF92
 873 0642 06       		.byte	0x6
 874 0643 1E01     		.2byte	0x11e
 875 0645 8D060000 		.4byte	0x68d
 876 0649 12       		.uleb128 0x12
 877 064a 4F050000 		.4byte	.LASF93
 878 064e 06       		.byte	0x6
 879 064f 2701     		.2byte	0x127
 880 0651 C4060000 		.4byte	0x6c4
 881 0655 12       		.uleb128 0x12
 882 0656 07050000 		.4byte	.LASF94
 883 065a 06       		.byte	0x6
 884 065b 2F01     		.2byte	0x12f
 885 065d 10010000 		.4byte	0x110
 886 0661 00       		.byte	0
 887 0662 09       		.uleb128 0x9
 888 0663 04       		.byte	0x4
 889 0664 41020000 		.4byte	0x241
 890 0668 05       		.uleb128 0x5
 891 0669 2E050000 		.4byte	.LASF95
 892 066d 0C       		.byte	0xc
 893 066e 0A       		.byte	0xa
 894 066f 34       		.byte	0x34
 895 0670 8D060000 		.4byte	0x68d
 896 0674 06       		.uleb128 0x6
 897 0675 6E010000 		.4byte	.LASF96
 898 0679 0A       		.byte	0xa
 899 067a 35       		.byte	0x35
 900 067b 76020000 		.4byte	0x276
 901 067f 00       		.byte	0
 902 0680 06       		.uleb128 0x6
 903 0681 4F060000 		.4byte	.LASF97
 904 0685 0A       		.byte	0xa
 905 0686 37       		.byte	0x37
 906 0687 1B010000 		.4byte	0x11b
 907 068b 08       		.byte	0x8
 908 068c 00       		.byte	0
 909 068d 09       		.uleb128 0x9
 910 068e 04       		.byte	0x4
 911 068f 68060000 		.4byte	0x668
 912 0693 05       		.uleb128 0x5
ARM GAS  /var/folders/m4/4md61f0s1_g0rzfghffqnxvr0000gn/T//ccIPXWhq.s 			page 17


 913 0694 0B060000 		.4byte	.LASF98
 914 0698 10       		.byte	0x10
 915 0699 0B       		.byte	0xb
 916 069a 39       		.byte	0x39
 917 069b C4060000 		.4byte	0x6c4
 918 069f 06       		.uleb128 0x6
 919 06a0 23010000 		.4byte	.LASF99
 920 06a4 0B       		.byte	0xb
 921 06a5 3A       		.byte	0x3a
 922 06a6 76020000 		.4byte	0x276
 923 06aa 00       		.byte	0
 924 06ab 06       		.uleb128 0x6
 925 06ac 7F060000 		.4byte	.LASF100
 926 06b0 0B       		.byte	0xb
 927 06b1 3C       		.byte	0x3c
 928 06b2 4C020000 		.4byte	0x24c
 929 06b6 08       		.byte	0x8
 930 06b7 06       		.uleb128 0x6
 931 06b8 96050000 		.4byte	.LASF101
 932 06bc 0B       		.byte	0xb
 933 06bd 3E       		.byte	0x3e
 934 06be 07070000 		.4byte	0x707
 935 06c2 0C       		.byte	0xc
 936 06c3 00       		.byte	0
 937 06c4 09       		.uleb128 0x9
 938 06c5 04       		.byte	0x4
 939 06c6 93060000 		.4byte	0x693
 940 06ca 09       		.uleb128 0x9
 941 06cb 04       		.byte	0x4
 942 06cc D0060000 		.4byte	0x6d0
 943 06d0 13       		.uleb128 0x13
 944 06d1 D5060000 		.4byte	0x6d5
 945 06d5 03       		.uleb128 0x3
 946 06d6 01       		.byte	0x1
 947 06d7 08       		.byte	0x8
 948 06d8 80050000 		.4byte	.LASF102
 949 06dc 14       		.uleb128 0x14
 950 06dd 26010000 		.4byte	0x126
 951 06e1 09       		.uleb128 0x9
 952 06e2 04       		.byte	0x4
 953 06e3 2B030000 		.4byte	0x32b
 954 06e7 14       		.uleb128 0x14
 955 06e8 CA060000 		.4byte	0x6ca
 956 06ec 15       		.uleb128 0x15
 957 06ed 71040000 		.4byte	0x471
 958 06f1 FC060000 		.4byte	0x6fc
 959 06f5 16       		.uleb128 0x16
 960 06f6 5F040000 		.4byte	0x45f
 961 06fa 3A       		.byte	0x3a
 962 06fb 00       		.byte	0
 963 06fc 04       		.uleb128 0x4
 964 06fd 96010000 		.4byte	.LASF103
 965 0701 0B       		.byte	0xb
 966 0702 34       		.byte	0x34
 967 0703 93060000 		.4byte	0x693
 968 0707 09       		.uleb128 0x9
 969 0708 04       		.byte	0x4
ARM GAS  /var/folders/m4/4md61f0s1_g0rzfghffqnxvr0000gn/T//ccIPXWhq.s 			page 18


 970 0709 FC060000 		.4byte	0x6fc
 971 070d 03       		.uleb128 0x3
 972 070e 01       		.byte	0x1
 973 070f 02       		.byte	0x2
 974 0710 A2040000 		.4byte	.LASF104
 975 0714 10       		.uleb128 0x10
 976 0715 1C       		.byte	0x1c
 977 0716 0C       		.byte	0xc
 978 0717 F5       		.byte	0xf5
 979 0718 73070000 		.4byte	0x773
 980 071c 06       		.uleb128 0x6
 981 071d 2B010000 		.4byte	.LASF105
 982 0721 0C       		.byte	0xc
 983 0722 F7       		.byte	0xf7
 984 0723 AD000000 		.4byte	0xad
 985 0727 00       		.byte	0
 986 0728 06       		.uleb128 0x6
 987 0729 01020000 		.4byte	.LASF106
 988 072d 0C       		.byte	0xc
 989 072e F9       		.byte	0xf9
 990 072f AD000000 		.4byte	0xad
 991 0733 04       		.byte	0x4
 992 0734 06       		.uleb128 0x6
 993 0735 F9010000 		.4byte	.LASF107
 994 0739 0C       		.byte	0xc
 995 073a FB       		.byte	0xfb
 996 073b AD000000 		.4byte	0xad
 997 073f 08       		.byte	0x8
 998 0740 06       		.uleb128 0x6
 999 0741 AC000000 		.4byte	.LASF108
 1000 0745 0C       		.byte	0xc
 1001 0746 FD       		.byte	0xfd
 1002 0747 AD000000 		.4byte	0xad
 1003 074b 0C       		.byte	0xc
 1004 074c 0F       		.uleb128 0xf
 1005 074d 6F647200 		.ascii	"odr\000"
 1006 0751 0C       		.byte	0xc
 1007 0752 FF       		.byte	0xff
 1008 0753 AD000000 		.4byte	0xad
 1009 0757 10       		.byte	0x10
 1010 0758 08       		.uleb128 0x8
 1011 0759 C6040000 		.4byte	.LASF109
 1012 075d 0C       		.byte	0xc
 1013 075e 0101     		.2byte	0x101
 1014 0760 AD000000 		.4byte	0xad
 1015 0764 14       		.byte	0x14
 1016 0765 08       		.uleb128 0x8
 1017 0766 39040000 		.4byte	.LASF110
 1018 076a 0C       		.byte	0xc
 1019 076b 0301     		.2byte	0x103
 1020 076d AD000000 		.4byte	0xad
 1021 0771 18       		.byte	0x18
 1022 0772 00       		.byte	0
 1023 0773 17       		.uleb128 0x17
 1024 0774 2C000000 		.4byte	.LASF111
 1025 0778 0C       		.byte	0xc
 1026 0779 0401     		.2byte	0x104
ARM GAS  /var/folders/m4/4md61f0s1_g0rzfghffqnxvr0000gn/T//ccIPXWhq.s 			page 19


 1027 077b 14070000 		.4byte	0x714
 1028 077f 18       		.uleb128 0x18
 1029 0780 E0       		.byte	0xe0
 1030 0781 0C       		.byte	0xc
 1031 0782 0D01     		.2byte	0x10d
 1032 0784 F1070000 		.4byte	0x7f1
 1033 0788 08       		.uleb128 0x8
 1034 0789 00050000 		.4byte	.LASF112
 1035 078d 0C       		.byte	0xc
 1036 078e 1001     		.2byte	0x110
 1037 0790 73070000 		.4byte	0x773
 1038 0794 00       		.byte	0
 1039 0795 08       		.uleb128 0x8
 1040 0796 9E010000 		.4byte	.LASF113
 1041 079a 0C       		.byte	0xc
 1042 079b 1401     		.2byte	0x114
 1043 079d 73070000 		.4byte	0x773
 1044 07a1 1C       		.byte	0x1c
 1045 07a2 08       		.uleb128 0x8
 1046 07a3 55060000 		.4byte	.LASF114
 1047 07a7 0C       		.byte	0xc
 1048 07a8 1801     		.2byte	0x118
 1049 07aa 73070000 		.4byte	0x773
 1050 07ae 38       		.byte	0x38
 1051 07af 08       		.uleb128 0x8
 1052 07b0 3E040000 		.4byte	.LASF115
 1053 07b4 0C       		.byte	0xc
 1054 07b5 1C01     		.2byte	0x11c
 1055 07b7 73070000 		.4byte	0x773
 1056 07bb 54       		.byte	0x54
 1057 07bc 08       		.uleb128 0x8
 1058 07bd 4E010000 		.4byte	.LASF116
 1059 07c1 0C       		.byte	0xc
 1060 07c2 2001     		.2byte	0x120
 1061 07c4 73070000 		.4byte	0x773
 1062 07c8 70       		.byte	0x70
 1063 07c9 08       		.uleb128 0x8
 1064 07ca 1B020000 		.4byte	.LASF117
 1065 07ce 0C       		.byte	0xc
 1066 07cf 2401     		.2byte	0x124
 1067 07d1 73070000 		.4byte	0x773
 1068 07d5 8C       		.byte	0x8c
 1069 07d6 08       		.uleb128 0x8
 1070 07d7 6A020000 		.4byte	.LASF118
 1071 07db 0C       		.byte	0xc
 1072 07dc 2801     		.2byte	0x128
 1073 07de 73070000 		.4byte	0x773
 1074 07e2 A8       		.byte	0xa8
 1075 07e3 08       		.uleb128 0x8
 1076 07e4 8E000000 		.4byte	.LASF119
 1077 07e8 0C       		.byte	0xc
 1078 07e9 2C01     		.2byte	0x12c
 1079 07eb 73070000 		.4byte	0x773
 1080 07ef C4       		.byte	0xc4
 1081 07f0 00       		.byte	0
 1082 07f1 17       		.uleb128 0x17
 1083 07f2 75060000 		.4byte	.LASF120
ARM GAS  /var/folders/m4/4md61f0s1_g0rzfghffqnxvr0000gn/T//ccIPXWhq.s 			page 20


 1084 07f6 0C       		.byte	0xc
 1085 07f7 3A01     		.2byte	0x13a
 1086 07f9 7F070000 		.4byte	0x77f
 1087 07fd 19       		.uleb128 0x19
 1088 07fe 81040000 		.4byte	.LASF136
 1089 0802 18       		.byte	0x18
 1090 0803 C101     		.2byte	0x1c1
 1091 0805 03       		.byte	0x3
 1092 0806 1A       		.uleb128 0x1a
 1093 0807 F1010000 		.4byte	.LASF137
 1094 080b 01       		.byte	0x1
 1095 080c 38       		.byte	0x38
 1096 080d 00000000 		.4byte	.LFB268
 1097 0811 38000000 		.4byte	.LFE268-.LFB268
 1098 0815 01       		.uleb128 0x1
 1099 0816 9C       		.byte	0x9c
 1100 0817 7F080000 		.4byte	0x87f
 1101 081b 1B       		.uleb128 0x1b
 1102 081c 06000000 		.4byte	.LVL0
 1103 0820 AC080000 		.4byte	0x8ac
 1104 0824 1B       		.uleb128 0x1b
 1105 0825 0C000000 		.4byte	.LVL1
 1106 0829 B4080000 		.4byte	0x8b4
 1107 082d 1B       		.uleb128 0x1b
 1108 082e 10000000 		.4byte	.LVL2
 1109 0832 CC080000 		.4byte	0x8cc
 1110 0836 1B       		.uleb128 0x1b
 1111 0837 14000000 		.4byte	.LVL3
 1112 083b D3080000 		.4byte	0x8d3
 1113 083f 1B       		.uleb128 0x1b
 1114 0840 18000000 		.4byte	.LVL4
 1115 0844 DA080000 		.4byte	0x8da
 1116 0848 1B       		.uleb128 0x1b
 1117 0849 1C000000 		.4byte	.LVL5
 1118 084d E1080000 		.4byte	0x8e1
 1119 0851 1B       		.uleb128 0x1b
 1120 0852 20000000 		.4byte	.LVL6
 1121 0856 E9080000 		.4byte	0x8e9
 1122 085a 1B       		.uleb128 0x1b
 1123 085b 24000000 		.4byte	.LVL7
 1124 085f F1080000 		.4byte	0x8f1
 1125 0863 1B       		.uleb128 0x1b
 1126 0864 28000000 		.4byte	.LVL8
 1127 0868 F9080000 		.4byte	0x8f9
 1128 086c 1B       		.uleb128 0x1b
 1129 086d 2C000000 		.4byte	.LVL9
 1130 0871 00090000 		.4byte	0x900
 1131 0875 1C       		.uleb128 0x1c
 1132 0876 34000000 		.4byte	.LVL10
 1133 087a 08090000 		.4byte	0x908
 1134 087e 00       		.byte	0
 1135 087f 1D       		.uleb128 0x1d
 1136 0880 DC000000 		.4byte	.LASF121
 1137 0884 0D       		.byte	0xd
 1138 0885 FA06     		.2byte	0x6fa
 1139 0887 8B080000 		.4byte	0x88b
 1140 088b 14       		.uleb128 0x14
ARM GAS  /var/folders/m4/4md61f0s1_g0rzfghffqnxvr0000gn/T//ccIPXWhq.s 			page 21


 1141 088c A2000000 		.4byte	0xa2
 1142 0890 1E       		.uleb128 0x1e
 1143 0891 636800   		.ascii	"ch\000"
 1144 0894 06       		.byte	0x6
 1145 0895 0902     		.2byte	0x209
 1146 0897 F8030000 		.4byte	0x3f8
 1147 089b 1D       		.uleb128 0x1d
 1148 089c 87060000 		.4byte	.LASF122
 1149 08a0 0C       		.byte	0xc
 1150 08a1 1E02     		.2byte	0x21e
 1151 08a3 A7080000 		.4byte	0x8a7
 1152 08a7 13       		.uleb128 0x13
 1153 08a8 F1070000 		.4byte	0x7f1
 1154 08ac 1F       		.uleb128 0x1f
 1155 08ad DF050000 		.4byte	.LASF123
 1156 08b1 0E       		.byte	0xe
 1157 08b2 2006     		.2byte	0x620
 1158 08b4 20       		.uleb128 0x20
 1159 08b5 1B060000 		.4byte	.LASF138
 1160 08b9 0C       		.byte	0xc
 1161 08ba 2302     		.2byte	0x223
 1162 08bc C6080000 		.4byte	0x8c6
 1163 08c0 0C       		.uleb128 0xc
 1164 08c1 C6080000 		.4byte	0x8c6
 1165 08c5 00       		.byte	0
 1166 08c6 09       		.uleb128 0x9
 1167 08c7 04       		.byte	0x4
 1168 08c8 A7080000 		.4byte	0x8a7
 1169 08cc 21       		.uleb128 0x21
 1170 08cd 71020000 		.4byte	.LASF124
 1171 08d1 0F       		.byte	0xf
 1172 08d2 F6       		.byte	0xf6
 1173 08d3 21       		.uleb128 0x21
 1174 08d4 CB040000 		.4byte	.LASF125
 1175 08d8 10       		.byte	0x10
 1176 08d9 85       		.byte	0x85
 1177 08da 21       		.uleb128 0x21
 1178 08db 67060000 		.4byte	.LASF126
 1179 08df 11       		.byte	0x11
 1180 08e0 8B       		.byte	0x8b
 1181 08e1 1F       		.uleb128 0x1f
 1182 08e2 5E010000 		.4byte	.LASF127
 1183 08e6 12       		.byte	0x12
 1184 08e7 1F01     		.2byte	0x11f
 1185 08e9 1F       		.uleb128 0x1f
 1186 08ea 84020000 		.4byte	.LASF128
 1187 08ee 13       		.byte	0x13
 1188 08ef 0601     		.2byte	0x106
 1189 08f1 1F       		.uleb128 0x1f
 1190 08f2 85050000 		.4byte	.LASF129
 1191 08f6 14       		.byte	0x14
 1192 08f7 5902     		.2byte	0x259
 1193 08f9 21       		.uleb128 0x21
 1194 08fa BE040000 		.4byte	.LASF130
 1195 08fe 15       		.byte	0x15
 1196 08ff B0       		.byte	0xb0
 1197 0900 1F       		.uleb128 0x1f
ARM GAS  /var/folders/m4/4md61f0s1_g0rzfghffqnxvr0000gn/T//ccIPXWhq.s 			page 22


 1198 0901 29060000 		.4byte	.LASF131
 1199 0905 16       		.byte	0x16
 1200 0906 3405     		.2byte	0x534
 1201 0908 21       		.uleb128 0x21
 1202 0909 4C000000 		.4byte	.LASF132
 1203 090d 17       		.byte	0x17
 1204 090e 56       		.byte	0x56
 1205 090f 00       		.byte	0
 1206              		.section	.debug_abbrev,"",%progbits
 1207              	.Ldebug_abbrev0:
 1208 0000 01       		.uleb128 0x1
 1209 0001 11       		.uleb128 0x11
 1210 0002 01       		.byte	0x1
 1211 0003 25       		.uleb128 0x25
 1212 0004 0E       		.uleb128 0xe
 1213 0005 13       		.uleb128 0x13
 1214 0006 0B       		.uleb128 0xb
 1215 0007 03       		.uleb128 0x3
 1216 0008 0E       		.uleb128 0xe
 1217 0009 1B       		.uleb128 0x1b
 1218 000a 0E       		.uleb128 0xe
 1219 000b 55       		.uleb128 0x55
 1220 000c 17       		.uleb128 0x17
 1221 000d 11       		.uleb128 0x11
 1222 000e 01       		.uleb128 0x1
 1223 000f 10       		.uleb128 0x10
 1224 0010 17       		.uleb128 0x17
 1225 0011 00       		.byte	0
 1226 0012 00       		.byte	0
 1227 0013 02       		.uleb128 0x2
 1228 0014 24       		.uleb128 0x24
 1229 0015 00       		.byte	0
 1230 0016 0B       		.uleb128 0xb
 1231 0017 0B       		.uleb128 0xb
 1232 0018 3E       		.uleb128 0x3e
 1233 0019 0B       		.uleb128 0xb
 1234 001a 03       		.uleb128 0x3
 1235 001b 08       		.uleb128 0x8
 1236 001c 00       		.byte	0
 1237 001d 00       		.byte	0
 1238 001e 03       		.uleb128 0x3
 1239 001f 24       		.uleb128 0x24
 1240 0020 00       		.byte	0
 1241 0021 0B       		.uleb128 0xb
 1242 0022 0B       		.uleb128 0xb
 1243 0023 3E       		.uleb128 0x3e
 1244 0024 0B       		.uleb128 0xb
 1245 0025 03       		.uleb128 0x3
 1246 0026 0E       		.uleb128 0xe
 1247 0027 00       		.byte	0
 1248 0028 00       		.byte	0
 1249 0029 04       		.uleb128 0x4
 1250 002a 16       		.uleb128 0x16
 1251 002b 00       		.byte	0
 1252 002c 03       		.uleb128 0x3
 1253 002d 0E       		.uleb128 0xe
 1254 002e 3A       		.uleb128 0x3a
ARM GAS  /var/folders/m4/4md61f0s1_g0rzfghffqnxvr0000gn/T//ccIPXWhq.s 			page 23


 1255 002f 0B       		.uleb128 0xb
 1256 0030 3B       		.uleb128 0x3b
 1257 0031 0B       		.uleb128 0xb
 1258 0032 49       		.uleb128 0x49
 1259 0033 13       		.uleb128 0x13
 1260 0034 00       		.byte	0
 1261 0035 00       		.byte	0
 1262 0036 05       		.uleb128 0x5
 1263 0037 13       		.uleb128 0x13
 1264 0038 01       		.byte	0x1
 1265 0039 03       		.uleb128 0x3
 1266 003a 0E       		.uleb128 0xe
 1267 003b 0B       		.uleb128 0xb
 1268 003c 0B       		.uleb128 0xb
 1269 003d 3A       		.uleb128 0x3a
 1270 003e 0B       		.uleb128 0xb
 1271 003f 3B       		.uleb128 0x3b
 1272 0040 0B       		.uleb128 0xb
 1273 0041 01       		.uleb128 0x1
 1274 0042 13       		.uleb128 0x13
 1275 0043 00       		.byte	0
 1276 0044 00       		.byte	0
 1277 0045 06       		.uleb128 0x6
 1278 0046 0D       		.uleb128 0xd
 1279 0047 00       		.byte	0
 1280 0048 03       		.uleb128 0x3
 1281 0049 0E       		.uleb128 0xe
 1282 004a 3A       		.uleb128 0x3a
 1283 004b 0B       		.uleb128 0xb
 1284 004c 3B       		.uleb128 0x3b
 1285 004d 0B       		.uleb128 0xb
 1286 004e 49       		.uleb128 0x49
 1287 004f 13       		.uleb128 0x13
 1288 0050 38       		.uleb128 0x38
 1289 0051 0B       		.uleb128 0xb
 1290 0052 00       		.byte	0
 1291 0053 00       		.byte	0
 1292 0054 07       		.uleb128 0x7
 1293 0055 0D       		.uleb128 0xd
 1294 0056 00       		.byte	0
 1295 0057 03       		.uleb128 0x3
 1296 0058 08       		.uleb128 0x8
 1297 0059 3A       		.uleb128 0x3a
 1298 005a 0B       		.uleb128 0xb
 1299 005b 3B       		.uleb128 0x3b
 1300 005c 05       		.uleb128 0x5
 1301 005d 49       		.uleb128 0x49
 1302 005e 13       		.uleb128 0x13
 1303 005f 38       		.uleb128 0x38
 1304 0060 0B       		.uleb128 0xb
 1305 0061 00       		.byte	0
 1306 0062 00       		.byte	0
 1307 0063 08       		.uleb128 0x8
 1308 0064 0D       		.uleb128 0xd
 1309 0065 00       		.byte	0
 1310 0066 03       		.uleb128 0x3
 1311 0067 0E       		.uleb128 0xe
ARM GAS  /var/folders/m4/4md61f0s1_g0rzfghffqnxvr0000gn/T//ccIPXWhq.s 			page 24


 1312 0068 3A       		.uleb128 0x3a
 1313 0069 0B       		.uleb128 0xb
 1314 006a 3B       		.uleb128 0x3b
 1315 006b 05       		.uleb128 0x5
 1316 006c 49       		.uleb128 0x49
 1317 006d 13       		.uleb128 0x13
 1318 006e 38       		.uleb128 0x38
 1319 006f 0B       		.uleb128 0xb
 1320 0070 00       		.byte	0
 1321 0071 00       		.byte	0
 1322 0072 09       		.uleb128 0x9
 1323 0073 0F       		.uleb128 0xf
 1324 0074 00       		.byte	0
 1325 0075 0B       		.uleb128 0xb
 1326 0076 0B       		.uleb128 0xb
 1327 0077 49       		.uleb128 0x49
 1328 0078 13       		.uleb128 0x13
 1329 0079 00       		.byte	0
 1330 007a 00       		.byte	0
 1331 007b 0A       		.uleb128 0xa
 1332 007c 13       		.uleb128 0x13
 1333 007d 01       		.byte	0x1
 1334 007e 03       		.uleb128 0x3
 1335 007f 0E       		.uleb128 0xe
 1336 0080 0B       		.uleb128 0xb
 1337 0081 0B       		.uleb128 0xb
 1338 0082 3A       		.uleb128 0x3a
 1339 0083 0B       		.uleb128 0xb
 1340 0084 3B       		.uleb128 0x3b
 1341 0085 05       		.uleb128 0x5
 1342 0086 01       		.uleb128 0x1
 1343 0087 13       		.uleb128 0x13
 1344 0088 00       		.byte	0
 1345 0089 00       		.byte	0
 1346 008a 0B       		.uleb128 0xb
 1347 008b 15       		.uleb128 0x15
 1348 008c 01       		.byte	0x1
 1349 008d 27       		.uleb128 0x27
 1350 008e 19       		.uleb128 0x19
 1351 008f 01       		.uleb128 0x1
 1352 0090 13       		.uleb128 0x13
 1353 0091 00       		.byte	0
 1354 0092 00       		.byte	0
 1355 0093 0C       		.uleb128 0xc
 1356 0094 05       		.uleb128 0x5
 1357 0095 00       		.byte	0
 1358 0096 49       		.uleb128 0x49
 1359 0097 13       		.uleb128 0x13
 1360 0098 00       		.byte	0
 1361 0099 00       		.byte	0
 1362 009a 0D       		.uleb128 0xd
 1363 009b 0F       		.uleb128 0xf
 1364 009c 00       		.byte	0
 1365 009d 0B       		.uleb128 0xb
 1366 009e 0B       		.uleb128 0xb
 1367 009f 00       		.byte	0
 1368 00a0 00       		.byte	0
ARM GAS  /var/folders/m4/4md61f0s1_g0rzfghffqnxvr0000gn/T//ccIPXWhq.s 			page 25


 1369 00a1 0E       		.uleb128 0xe
 1370 00a2 13       		.uleb128 0x13
 1371 00a3 01       		.byte	0x1
 1372 00a4 03       		.uleb128 0x3
 1373 00a5 0E       		.uleb128 0xe
 1374 00a6 0B       		.uleb128 0xb
 1375 00a7 05       		.uleb128 0x5
 1376 00a8 3A       		.uleb128 0x3a
 1377 00a9 0B       		.uleb128 0xb
 1378 00aa 3B       		.uleb128 0x3b
 1379 00ab 05       		.uleb128 0x5
 1380 00ac 01       		.uleb128 0x1
 1381 00ad 13       		.uleb128 0x13
 1382 00ae 00       		.byte	0
 1383 00af 00       		.byte	0
 1384 00b0 0F       		.uleb128 0xf
 1385 00b1 0D       		.uleb128 0xd
 1386 00b2 00       		.byte	0
 1387 00b3 03       		.uleb128 0x3
 1388 00b4 08       		.uleb128 0x8
 1389 00b5 3A       		.uleb128 0x3a
 1390 00b6 0B       		.uleb128 0xb
 1391 00b7 3B       		.uleb128 0x3b
 1392 00b8 0B       		.uleb128 0xb
 1393 00b9 49       		.uleb128 0x49
 1394 00ba 13       		.uleb128 0x13
 1395 00bb 38       		.uleb128 0x38
 1396 00bc 0B       		.uleb128 0xb
 1397 00bd 00       		.byte	0
 1398 00be 00       		.byte	0
 1399 00bf 10       		.uleb128 0x10
 1400 00c0 13       		.uleb128 0x13
 1401 00c1 01       		.byte	0x1
 1402 00c2 0B       		.uleb128 0xb
 1403 00c3 0B       		.uleb128 0xb
 1404 00c4 3A       		.uleb128 0x3a
 1405 00c5 0B       		.uleb128 0xb
 1406 00c6 3B       		.uleb128 0x3b
 1407 00c7 0B       		.uleb128 0xb
 1408 00c8 01       		.uleb128 0x1
 1409 00c9 13       		.uleb128 0x13
 1410 00ca 00       		.byte	0
 1411 00cb 00       		.byte	0
 1412 00cc 11       		.uleb128 0x11
 1413 00cd 17       		.uleb128 0x17
 1414 00ce 01       		.byte	0x1
 1415 00cf 0B       		.uleb128 0xb
 1416 00d0 0B       		.uleb128 0xb
 1417 00d1 3A       		.uleb128 0x3a
 1418 00d2 0B       		.uleb128 0xb
 1419 00d3 3B       		.uleb128 0x3b
 1420 00d4 0B       		.uleb128 0xb
 1421 00d5 01       		.uleb128 0x1
 1422 00d6 13       		.uleb128 0x13
 1423 00d7 00       		.byte	0
 1424 00d8 00       		.byte	0
 1425 00d9 12       		.uleb128 0x12
ARM GAS  /var/folders/m4/4md61f0s1_g0rzfghffqnxvr0000gn/T//ccIPXWhq.s 			page 26


 1426 00da 0D       		.uleb128 0xd
 1427 00db 00       		.byte	0
 1428 00dc 03       		.uleb128 0x3
 1429 00dd 0E       		.uleb128 0xe
 1430 00de 3A       		.uleb128 0x3a
 1431 00df 0B       		.uleb128 0xb
 1432 00e0 3B       		.uleb128 0x3b
 1433 00e1 05       		.uleb128 0x5
 1434 00e2 49       		.uleb128 0x49
 1435 00e3 13       		.uleb128 0x13
 1436 00e4 00       		.byte	0
 1437 00e5 00       		.byte	0
 1438 00e6 13       		.uleb128 0x13
 1439 00e7 26       		.uleb128 0x26
 1440 00e8 00       		.byte	0
 1441 00e9 49       		.uleb128 0x49
 1442 00ea 13       		.uleb128 0x13
 1443 00eb 00       		.byte	0
 1444 00ec 00       		.byte	0
 1445 00ed 14       		.uleb128 0x14
 1446 00ee 35       		.uleb128 0x35
 1447 00ef 00       		.byte	0
 1448 00f0 49       		.uleb128 0x49
 1449 00f1 13       		.uleb128 0x13
 1450 00f2 00       		.byte	0
 1451 00f3 00       		.byte	0
 1452 00f4 15       		.uleb128 0x15
 1453 00f5 01       		.uleb128 0x1
 1454 00f6 01       		.byte	0x1
 1455 00f7 49       		.uleb128 0x49
 1456 00f8 13       		.uleb128 0x13
 1457 00f9 01       		.uleb128 0x1
 1458 00fa 13       		.uleb128 0x13
 1459 00fb 00       		.byte	0
 1460 00fc 00       		.byte	0
 1461 00fd 16       		.uleb128 0x16
 1462 00fe 21       		.uleb128 0x21
 1463 00ff 00       		.byte	0
 1464 0100 49       		.uleb128 0x49
 1465 0101 13       		.uleb128 0x13
 1466 0102 2F       		.uleb128 0x2f
 1467 0103 0B       		.uleb128 0xb
 1468 0104 00       		.byte	0
 1469 0105 00       		.byte	0
 1470 0106 17       		.uleb128 0x17
 1471 0107 16       		.uleb128 0x16
 1472 0108 00       		.byte	0
 1473 0109 03       		.uleb128 0x3
 1474 010a 0E       		.uleb128 0xe
 1475 010b 3A       		.uleb128 0x3a
 1476 010c 0B       		.uleb128 0xb
 1477 010d 3B       		.uleb128 0x3b
 1478 010e 05       		.uleb128 0x5
 1479 010f 49       		.uleb128 0x49
 1480 0110 13       		.uleb128 0x13
 1481 0111 00       		.byte	0
 1482 0112 00       		.byte	0
ARM GAS  /var/folders/m4/4md61f0s1_g0rzfghffqnxvr0000gn/T//ccIPXWhq.s 			page 27


 1483 0113 18       		.uleb128 0x18
 1484 0114 13       		.uleb128 0x13
 1485 0115 01       		.byte	0x1
 1486 0116 0B       		.uleb128 0xb
 1487 0117 0B       		.uleb128 0xb
 1488 0118 3A       		.uleb128 0x3a
 1489 0119 0B       		.uleb128 0xb
 1490 011a 3B       		.uleb128 0x3b
 1491 011b 05       		.uleb128 0x5
 1492 011c 01       		.uleb128 0x1
 1493 011d 13       		.uleb128 0x13
 1494 011e 00       		.byte	0
 1495 011f 00       		.byte	0
 1496 0120 19       		.uleb128 0x19
 1497 0121 2E       		.uleb128 0x2e
 1498 0122 00       		.byte	0
 1499 0123 03       		.uleb128 0x3
 1500 0124 0E       		.uleb128 0xe
 1501 0125 3A       		.uleb128 0x3a
 1502 0126 0B       		.uleb128 0xb
 1503 0127 3B       		.uleb128 0x3b
 1504 0128 05       		.uleb128 0x5
 1505 0129 27       		.uleb128 0x27
 1506 012a 19       		.uleb128 0x19
 1507 012b 20       		.uleb128 0x20
 1508 012c 0B       		.uleb128 0xb
 1509 012d 00       		.byte	0
 1510 012e 00       		.byte	0
 1511 012f 1A       		.uleb128 0x1a
 1512 0130 2E       		.uleb128 0x2e
 1513 0131 01       		.byte	0x1
 1514 0132 3F       		.uleb128 0x3f
 1515 0133 19       		.uleb128 0x19
 1516 0134 03       		.uleb128 0x3
 1517 0135 0E       		.uleb128 0xe
 1518 0136 3A       		.uleb128 0x3a
 1519 0137 0B       		.uleb128 0xb
 1520 0138 3B       		.uleb128 0x3b
 1521 0139 0B       		.uleb128 0xb
 1522 013a 27       		.uleb128 0x27
 1523 013b 19       		.uleb128 0x19
 1524 013c 11       		.uleb128 0x11
 1525 013d 01       		.uleb128 0x1
 1526 013e 12       		.uleb128 0x12
 1527 013f 06       		.uleb128 0x6
 1528 0140 40       		.uleb128 0x40
 1529 0141 18       		.uleb128 0x18
 1530 0142 9742     		.uleb128 0x2117
 1531 0144 19       		.uleb128 0x19
 1532 0145 01       		.uleb128 0x1
 1533 0146 13       		.uleb128 0x13
 1534 0147 00       		.byte	0
 1535 0148 00       		.byte	0
 1536 0149 1B       		.uleb128 0x1b
 1537 014a 898201   		.uleb128 0x4109
 1538 014d 00       		.byte	0
 1539 014e 11       		.uleb128 0x11
ARM GAS  /var/folders/m4/4md61f0s1_g0rzfghffqnxvr0000gn/T//ccIPXWhq.s 			page 28


 1540 014f 01       		.uleb128 0x1
 1541 0150 31       		.uleb128 0x31
 1542 0151 13       		.uleb128 0x13
 1543 0152 00       		.byte	0
 1544 0153 00       		.byte	0
 1545 0154 1C       		.uleb128 0x1c
 1546 0155 898201   		.uleb128 0x4109
 1547 0158 00       		.byte	0
 1548 0159 11       		.uleb128 0x11
 1549 015a 01       		.uleb128 0x1
 1550 015b 9542     		.uleb128 0x2115
 1551 015d 19       		.uleb128 0x19
 1552 015e 31       		.uleb128 0x31
 1553 015f 13       		.uleb128 0x13
 1554 0160 00       		.byte	0
 1555 0161 00       		.byte	0
 1556 0162 1D       		.uleb128 0x1d
 1557 0163 34       		.uleb128 0x34
 1558 0164 00       		.byte	0
 1559 0165 03       		.uleb128 0x3
 1560 0166 0E       		.uleb128 0xe
 1561 0167 3A       		.uleb128 0x3a
 1562 0168 0B       		.uleb128 0xb
 1563 0169 3B       		.uleb128 0x3b
 1564 016a 05       		.uleb128 0x5
 1565 016b 49       		.uleb128 0x49
 1566 016c 13       		.uleb128 0x13
 1567 016d 3F       		.uleb128 0x3f
 1568 016e 19       		.uleb128 0x19
 1569 016f 3C       		.uleb128 0x3c
 1570 0170 19       		.uleb128 0x19
 1571 0171 00       		.byte	0
 1572 0172 00       		.byte	0
 1573 0173 1E       		.uleb128 0x1e
 1574 0174 34       		.uleb128 0x34
 1575 0175 00       		.byte	0
 1576 0176 03       		.uleb128 0x3
 1577 0177 08       		.uleb128 0x8
 1578 0178 3A       		.uleb128 0x3a
 1579 0179 0B       		.uleb128 0xb
 1580 017a 3B       		.uleb128 0x3b
 1581 017b 05       		.uleb128 0x5
 1582 017c 49       		.uleb128 0x49
 1583 017d 13       		.uleb128 0x13
 1584 017e 3F       		.uleb128 0x3f
 1585 017f 19       		.uleb128 0x19
 1586 0180 3C       		.uleb128 0x3c
 1587 0181 19       		.uleb128 0x19
 1588 0182 00       		.byte	0
 1589 0183 00       		.byte	0
 1590 0184 1F       		.uleb128 0x1f
 1591 0185 2E       		.uleb128 0x2e
 1592 0186 00       		.byte	0
 1593 0187 3F       		.uleb128 0x3f
 1594 0188 19       		.uleb128 0x19
 1595 0189 03       		.uleb128 0x3
 1596 018a 0E       		.uleb128 0xe
ARM GAS  /var/folders/m4/4md61f0s1_g0rzfghffqnxvr0000gn/T//ccIPXWhq.s 			page 29


 1597 018b 3A       		.uleb128 0x3a
 1598 018c 0B       		.uleb128 0xb
 1599 018d 3B       		.uleb128 0x3b
 1600 018e 05       		.uleb128 0x5
 1601 018f 27       		.uleb128 0x27
 1602 0190 19       		.uleb128 0x19
 1603 0191 3C       		.uleb128 0x3c
 1604 0192 19       		.uleb128 0x19
 1605 0193 00       		.byte	0
 1606 0194 00       		.byte	0
 1607 0195 20       		.uleb128 0x20
 1608 0196 2E       		.uleb128 0x2e
 1609 0197 01       		.byte	0x1
 1610 0198 3F       		.uleb128 0x3f
 1611 0199 19       		.uleb128 0x19
 1612 019a 03       		.uleb128 0x3
 1613 019b 0E       		.uleb128 0xe
 1614 019c 3A       		.uleb128 0x3a
 1615 019d 0B       		.uleb128 0xb
 1616 019e 3B       		.uleb128 0x3b
 1617 019f 05       		.uleb128 0x5
 1618 01a0 27       		.uleb128 0x27
 1619 01a1 19       		.uleb128 0x19
 1620 01a2 3C       		.uleb128 0x3c
 1621 01a3 19       		.uleb128 0x19
 1622 01a4 01       		.uleb128 0x1
 1623 01a5 13       		.uleb128 0x13
 1624 01a6 00       		.byte	0
 1625 01a7 00       		.byte	0
 1626 01a8 21       		.uleb128 0x21
 1627 01a9 2E       		.uleb128 0x2e
 1628 01aa 00       		.byte	0
 1629 01ab 3F       		.uleb128 0x3f
 1630 01ac 19       		.uleb128 0x19
 1631 01ad 03       		.uleb128 0x3
 1632 01ae 0E       		.uleb128 0xe
 1633 01af 3A       		.uleb128 0x3a
 1634 01b0 0B       		.uleb128 0xb
 1635 01b1 3B       		.uleb128 0x3b
 1636 01b2 0B       		.uleb128 0xb
 1637 01b3 27       		.uleb128 0x27
 1638 01b4 19       		.uleb128 0x19
 1639 01b5 3C       		.uleb128 0x3c
 1640 01b6 19       		.uleb128 0x19
 1641 01b7 00       		.byte	0
 1642 01b8 00       		.byte	0
 1643 01b9 00       		.byte	0
 1644              		.section	.debug_aranges,"",%progbits
 1645 0000 1C000000 		.4byte	0x1c
 1646 0004 0200     		.2byte	0x2
 1647 0006 00000000 		.4byte	.Ldebug_info0
 1648 000a 04       		.byte	0x4
 1649 000b 00       		.byte	0
 1650 000c 0000     		.2byte	0
 1651 000e 0000     		.2byte	0
 1652 0010 00000000 		.4byte	.LFB268
 1653 0014 38000000 		.4byte	.LFE268-.LFB268
ARM GAS  /var/folders/m4/4md61f0s1_g0rzfghffqnxvr0000gn/T//ccIPXWhq.s 			page 30


 1654 0018 00000000 		.4byte	0
 1655 001c 00000000 		.4byte	0
 1656              		.section	.debug_ranges,"",%progbits
 1657              	.Ldebug_ranges0:
 1658 0000 00000000 		.4byte	.LFB268
 1659 0004 38000000 		.4byte	.LFE268
 1660 0008 00000000 		.4byte	0
 1661 000c 00000000 		.4byte	0
 1662              		.section	.debug_line,"",%progbits
 1663              	.Ldebug_line0:
 1664 0000 38030000 		.section	.debug_str,"MS",%progbits,1
 1664      02000D03 
 1664      00000201 
 1664      FB0E0D00 
 1664      01010101 
 1665              	.LASF135:
 1666 0000 2F557365 		.ascii	"/Users/raphael/Documents/pcb-quadrotor/code\000"
 1666      72732F72 
 1666      61706861 
 1666      656C2F44 
 1666      6F63756D 
 1667              	.LASF111:
 1668 002c 73746D33 		.ascii	"stm32_gpio_setup_t\000"
 1668      325F6770 
 1668      696F5F73 
 1668      65747570 
 1668      5F7400
 1669              	.LASF53:
 1670 003f 72656164 		.ascii	"ready_list_t\000"
 1670      795F6C69 
 1670      73745F74 
 1670      00
 1671              	.LASF132:
 1672 004c 7374496E 		.ascii	"stInit\000"
 1672      697400
 1673              	.LASF91:
 1674 0053 77747472 		.ascii	"wttrp\000"
 1674      7000
 1675              	.LASF88:
 1676 0059 7264796D 		.ascii	"rdymsg\000"
 1676      736700
 1677              	.LASF16:
 1678 0060 75696E74 		.ascii	"uint64_t\000"
 1678      36345F74 
 1678      00
 1679              	.LASF5:
 1680 0069 5F5F7569 		.ascii	"__uint8_t\000"
 1680      6E74385F 
 1680      7400
 1681              	.LASF85:
 1682 0073 706F7274 		.ascii	"port_intctx\000"
 1682      5F696E74 
 1682      63747800 
 1683              	.LASF72:
 1684 007f 73797374 		.ascii	"system_debug_t\000"
 1684      656D5F64 
 1684      65627567 
ARM GAS  /var/folders/m4/4md61f0s1_g0rzfghffqnxvr0000gn/T//ccIPXWhq.s 			page 31


 1684      5F7400
 1685              	.LASF119:
 1686 008e 50484461 		.ascii	"PHData\000"
 1686      746100
 1687              	.LASF12:
 1688 0095 6C6F6E67 		.ascii	"long long unsigned int\000"
 1688      206C6F6E 
 1688      6720756E 
 1688      7369676E 
 1688      65642069 
 1689              	.LASF108:
 1690 00ac 70757064 		.ascii	"pupdr\000"
 1690      7200
 1691              	.LASF89:
 1692 00b2 65786974 		.ascii	"exitcode\000"
 1692      636F6465 
 1692      00
 1693              	.LASF79:
 1694 00bb 6D61696E 		.ascii	"mainthread\000"
 1694      74687265 
 1694      616400
 1695              	.LASF69:
 1696 00c6 76697274 		.ascii	"virtual_timers_list_t\000"
 1696      75616C5F 
 1696      74696D65 
 1696      72735F6C 
 1696      6973745F 
 1697              	.LASF121:
 1698 00dc 49544D5F 		.ascii	"ITM_RxBuffer\000"
 1698      52784275 
 1698      66666572 
 1698      00
 1699              	.LASF52:
 1700 00e9 63685F74 		.ascii	"ch_threads_queue\000"
 1700      68726561 
 1700      64735F71 
 1700      75657565 
 1700      00
 1701              	.LASF30:
 1702 00fa 705F7072 		.ascii	"p_prio\000"
 1702      696F00
 1703              	.LASF10:
 1704 0101 6C6F6E67 		.ascii	"long long int\000"
 1704      206C6F6E 
 1704      6720696E 
 1704      7400
 1705              	.LASF1:
 1706 010f 7369676E 		.ascii	"signed char\000"
 1706      65642063 
 1706      68617200 
 1707              	.LASF46:
 1708 011b 705F6D70 		.ascii	"p_mpool\000"
 1708      6F6F6C00 
 1709              	.LASF99:
 1710 0123 6D5F7175 		.ascii	"m_queue\000"
 1710      65756500 
 1711              	.LASF105:
ARM GAS  /var/folders/m4/4md61f0s1_g0rzfghffqnxvr0000gn/T//ccIPXWhq.s 			page 32


 1712 012b 6D6F6465 		.ascii	"moder\000"
 1712      7200
 1713              	.LASF21:
 1714 0131 74736C69 		.ascii	"tslices_t\000"
 1714      6365735F 
 1714      7400
 1715              	.LASF76:
 1716 013b 63685F73 		.ascii	"ch_system\000"
 1716      79737465 
 1716      6D00
 1717              	.LASF7:
 1718 0145 6C6F6E67 		.ascii	"long int\000"
 1718      20696E74 
 1718      00
 1719              	.LASF116:
 1720 014e 50454461 		.ascii	"PEData\000"
 1720      746100
 1721              	.LASF19:
 1722 0155 74737461 		.ascii	"tstate_t\000"
 1722      74655F74 
 1722      00
 1723              	.LASF127:
 1724 015e 70776D49 		.ascii	"pwmInit\000"
 1724      6E697400 
 1725              	.LASF32:
 1726 0166 705F6E65 		.ascii	"p_newer\000"
 1726      77657200 
 1727              	.LASF96:
 1728 016e 735F7175 		.ascii	"s_queue\000"
 1728      65756500 
 1729              	.LASF58:
 1730 0176 725F6E65 		.ascii	"r_newer\000"
 1730      77657200 
 1731              	.LASF82:
 1732 017e 72656761 		.ascii	"regarm_t\000"
 1732      726D5F74 
 1732      00
 1733              	.LASF65:
 1734 0187 76745F70 		.ascii	"vt_prev\000"
 1734      72657600 
 1735              	.LASF78:
 1736 018f 76746C69 		.ascii	"vtlist\000"
 1736      737400
 1737              	.LASF103:
 1738 0196 6D757465 		.ascii	"mutex_t\000"
 1738      785F7400 
 1739              	.LASF113:
 1740 019e 50424461 		.ascii	"PBData\000"
 1740      746100
 1741              	.LASF80:
 1742 01a5 69646C65 		.ascii	"idle_thread_wa\000"
 1742      5F746872 
 1742      6561645F 
 1742      776100
 1743              	.LASF25:
 1744 01b4 636E745F 		.ascii	"cnt_t\000"
 1744      7400
ARM GAS  /var/folders/m4/4md61f0s1_g0rzfghffqnxvr0000gn/T//ccIPXWhq.s 			page 33


 1745              	.LASF0:
 1746 01ba 756E7369 		.ascii	"unsigned int\000"
 1746      676E6564 
 1746      20696E74 
 1746      00
 1747              	.LASF64:
 1748 01c7 76745F6E 		.ascii	"vt_next\000"
 1748      65787400 
 1749              	.LASF39:
 1750 01cf 705F7469 		.ascii	"p_time\000"
 1750      6D6500
 1751              	.LASF92:
 1752 01d6 77747365 		.ascii	"wtsemp\000"
 1752      6D7000
 1753              	.LASF66:
 1754 01dd 76745F64 		.ascii	"vt_delta\000"
 1754      656C7461 
 1754      00
 1755              	.LASF41:
 1756 01e6 705F6D73 		.ascii	"p_msgqueue\000"
 1756      67717565 
 1756      756500
 1757              	.LASF137:
 1758 01f1 68616C49 		.ascii	"halInit\000"
 1758      6E697400 
 1759              	.LASF107:
 1760 01f9 6F737065 		.ascii	"ospeedr\000"
 1760      65647200 
 1761              	.LASF106:
 1762 0201 6F747970 		.ascii	"otyper\000"
 1762      657200
 1763              	.LASF4:
 1764 0208 73686F72 		.ascii	"short unsigned int\000"
 1764      7420756E 
 1764      7369676E 
 1764      65642069 
 1764      6E7400
 1765              	.LASF117:
 1766 021b 50464461 		.ascii	"PFData\000"
 1766      746100
 1767              	.LASF49:
 1768 0222 63685F74 		.ascii	"ch_thread\000"
 1768      68726561 
 1768      6400
 1769              	.LASF23:
 1770 022c 6D73675F 		.ascii	"msg_t\000"
 1770      7400
 1771              	.LASF75:
 1772 0232 63685F73 		.ascii	"ch_system_t\000"
 1772      79737465 
 1772      6D5F7400 
 1773              	.LASF18:
 1774 023e 746D6F64 		.ascii	"tmode_t\000"
 1774      655F7400 
 1775              	.LASF54:
 1776 0246 63685F72 		.ascii	"ch_ready_list\000"
 1776      65616479 
ARM GAS  /var/folders/m4/4md61f0s1_g0rzfghffqnxvr0000gn/T//ccIPXWhq.s 			page 34


 1776      5F6C6973 
 1776      7400
 1777              	.LASF24:
 1778 0254 6576656E 		.ascii	"eventmask_t\000"
 1778      746D6173 
 1778      6B5F7400 
 1779              	.LASF6:
 1780 0260 5F5F696E 		.ascii	"__int32_t\000"
 1780      7433325F 
 1780      7400
 1781              	.LASF118:
 1782 026a 50474461 		.ascii	"PGData\000"
 1782      746100
 1783              	.LASF124:
 1784 0271 61646349 		.ascii	"adcInit\000"
 1784      6E697400 
 1785              	.LASF83:
 1786 0279 73746B61 		.ascii	"stkalign_t\000"
 1786      6C69676E 
 1786      5F7400
 1787              	.LASF128:
 1788 0284 73706949 		.ascii	"spiInit\000"
 1788      6E697400 
 1789              	.LASF48:
 1790 028c 74687265 		.ascii	"threads_list_t\000"
 1790      6164735F 
 1790      6C697374 
 1790      5F7400
 1791              	.LASF134:
 1792 029b 43686962 		.ascii	"ChibiOS_16.1.4/os/hal/src/hal.c\000"
 1792      694F535F 
 1792      31362E31 
 1792      2E342F6F 
 1792      732F6861 
 1793              	.LASF133:
 1794 02bb 474E5520 		.ascii	"GNU C 4.9.3 20150529 (release) [ARM/embedded-4_9-br"
 1794      4320342E 
 1794      392E3320 
 1794      32303135 
 1794      30353239 
 1795 02ee 616E6368 		.ascii	"anch revision 224288] -mcpu=cortex-m4 -mfloat-abi=h"
 1795      20726576 
 1795      6973696F 
 1795      6E203232 
 1795      34323838 
 1796 0321 61726420 		.ascii	"ard -mfpu=fpv4-sp-d16 -mno-thumb-interwork -mthumb "
 1796      2D6D6670 
 1796      753D6670 
 1796      76342D73 
 1796      702D6431 
 1797 0354 2D676764 		.ascii	"-ggdb -O2 -std=c99 -fomit-frame-pointer -falign-fun"
 1797      62202D4F 
 1797      32202D73 
 1797      74643D63 
 1797      3939202D 
 1798 0387 6374696F 		.ascii	"ctions=16 -ffunction-sections -fdata-sections -fno-"
 1798      6E733D31 
ARM GAS  /var/folders/m4/4md61f0s1_g0rzfghffqnxvr0000gn/T//ccIPXWhq.s 			page 35


 1798      36202D66 
 1798      66756E63 
 1798      74696F6E 
 1799 03ba 636F6D6D 		.ascii	"common -fsingle-precision-constant\000"
 1799      6F6E202D 
 1799      6673696E 
 1799      676C652D 
 1799      70726563 
 1800              	.LASF40:
 1801 03dd 705F7761 		.ascii	"p_waiting\000"
 1801      6974696E 
 1801      6700
 1802              	.LASF81:
 1803 03e7 73697A65 		.ascii	"sizetype\000"
 1803      74797065 
 1803      00
 1804              	.LASF47:
 1805 03f0 74687265 		.ascii	"thread_reference_t\000"
 1805      61645F72 
 1805      65666572 
 1805      656E6365 
 1805      5F7400
 1806              	.LASF70:
 1807 0403 63685F76 		.ascii	"ch_virtual_timers_list\000"
 1807      69727475 
 1807      616C5F74 
 1807      696D6572 
 1807      735F6C69 
 1808              	.LASF33:
 1809 041a 705F6F6C 		.ascii	"p_older\000"
 1809      64657200 
 1810              	.LASF57:
 1811 0422 725F6374 		.ascii	"r_ctx\000"
 1811      7800
 1812              	.LASF87:
 1813 0428 746D5F63 		.ascii	"tm_calibration_t\000"
 1813      616C6962 
 1813      72617469 
 1813      6F6E5F74 
 1813      00
 1814              	.LASF110:
 1815 0439 61667268 		.ascii	"afrh\000"
 1815      00
 1816              	.LASF115:
 1817 043e 50444461 		.ascii	"PDData\000"
 1817      746100
 1818              	.LASF60:
 1819 0445 725F6375 		.ascii	"r_current\000"
 1819      7272656E 
 1819      7400
 1820              	.LASF59:
 1821 044f 725F6F6C 		.ascii	"r_older\000"
 1821      64657200 
 1822              	.LASF11:
 1823 0457 5F5F7569 		.ascii	"__uint64_t\000"
 1823      6E743634 
 1823      5F7400
ARM GAS  /var/folders/m4/4md61f0s1_g0rzfghffqnxvr0000gn/T//ccIPXWhq.s 			page 36


 1824              	.LASF20:
 1825 0462 74726566 		.ascii	"trefs_t\000"
 1825      735F7400 
 1826              	.LASF62:
 1827 046a 76697274 		.ascii	"virtual_timer_t\000"
 1827      75616C5F 
 1827      74696D65 
 1827      725F7400 
 1828              	.LASF29:
 1829 047a 705F7072 		.ascii	"p_prev\000"
 1829      657600
 1830              	.LASF136:
 1831 0481 6F73616C 		.ascii	"osalInit\000"
 1831      496E6974 
 1831      00
 1832              	.LASF22:
 1833 048a 74707269 		.ascii	"tprio_t\000"
 1833      6F5F7400 
 1834              	.LASF73:
 1835 0492 63685F73 		.ascii	"ch_system_debug\000"
 1835      79737465 
 1835      6D5F6465 
 1835      62756700 
 1836              	.LASF104:
 1837 04a2 5F426F6F 		.ascii	"_Bool\000"
 1837      6C00
 1838              	.LASF14:
 1839 04a8 696E7433 		.ascii	"int32_t\000"
 1839      325F7400 
 1840              	.LASF2:
 1841 04b0 756E7369 		.ascii	"unsigned char\000"
 1841      676E6564 
 1841      20636861 
 1841      7200
 1842              	.LASF130:
 1843 04be 73647549 		.ascii	"sduInit\000"
 1843      6E697400 
 1844              	.LASF109:
 1845 04c6 6166726C 		.ascii	"afrl\000"
 1845      00
 1846              	.LASF125:
 1847 04cb 65787449 		.ascii	"extInit\000"
 1847      6E697400 
 1848              	.LASF44:
 1849 04d3 705F6D74 		.ascii	"p_mtxlist\000"
 1849      786C6973 
 1849      7400
 1850              	.LASF3:
 1851 04dd 73686F72 		.ascii	"short int\000"
 1851      7420696E 
 1851      7400
 1852              	.LASF35:
 1853 04e7 705F7374 		.ascii	"p_state\000"
 1853      61746500 
 1854              	.LASF38:
 1855 04ef 705F7072 		.ascii	"p_preempt\000"
 1855      65656D70 
ARM GAS  /var/folders/m4/4md61f0s1_g0rzfghffqnxvr0000gn/T//ccIPXWhq.s 			page 37


 1855      7400
 1856              	.LASF56:
 1857 04f9 725F7072 		.ascii	"r_prio\000"
 1857      696F00
 1858              	.LASF112:
 1859 0500 50414461 		.ascii	"PAData\000"
 1859      746100
 1860              	.LASF94:
 1861 0507 65776D61 		.ascii	"ewmask\000"
 1861      736B00
 1862              	.LASF28:
 1863 050e 705F6E65 		.ascii	"p_next\000"
 1863      787400
 1864              	.LASF36:
 1865 0515 705F666C 		.ascii	"p_flags\000"
 1865      61677300 
 1866              	.LASF63:
 1867 051d 63685F76 		.ascii	"ch_virtual_timer\000"
 1867      69727475 
 1867      616C5F74 
 1867      696D6572 
 1867      00
 1868              	.LASF95:
 1869 052e 63685F73 		.ascii	"ch_semaphore\000"
 1869      656D6170 
 1869      686F7265 
 1869      00
 1870              	.LASF43:
 1871 053b 705F6570 		.ascii	"p_epending\000"
 1871      656E6469 
 1871      6E6700
 1872              	.LASF15:
 1873 0546 75696E74 		.ascii	"uint32_t\000"
 1873      33325F74 
 1873      00
 1874              	.LASF93:
 1875 054f 77746D74 		.ascii	"wtmtxp\000"
 1875      787000
 1876              	.LASF55:
 1877 0556 725F7175 		.ascii	"r_queue\000"
 1877      65756500 
 1878              	.LASF50:
 1879 055e 63685F74 		.ascii	"ch_threads_list\000"
 1879      68726561 
 1879      64735F6C 
 1879      69737400 
 1880              	.LASF9:
 1881 056e 6C6F6E67 		.ascii	"long unsigned int\000"
 1881      20756E73 
 1881      69676E65 
 1881      6420696E 
 1881      7400
 1882              	.LASF102:
 1883 0580 63686172 		.ascii	"char\000"
 1883      00
 1884              	.LASF129:
 1885 0585 75736249 		.ascii	"usbInit\000"
ARM GAS  /var/folders/m4/4md61f0s1_g0rzfghffqnxvr0000gn/T//ccIPXWhq.s 			page 38


 1885      6E697400 
 1886              	.LASF27:
 1887 058d 74687265 		.ascii	"thread_t\000"
 1887      61645F74 
 1887      00
 1888              	.LASF101:
 1889 0596 6D5F6E65 		.ascii	"m_next\000"
 1889      787400
 1890              	.LASF26:
 1891 059d 73797374 		.ascii	"systime_t\000"
 1891      696D655F 
 1891      7400
 1892              	.LASF45:
 1893 05a7 705F7265 		.ascii	"p_realprio\000"
 1893      616C7072 
 1893      696F00
 1894              	.LASF61:
 1895 05b2 76746675 		.ascii	"vtfunc_t\000"
 1895      6E635F74 
 1895      00
 1896              	.LASF8:
 1897 05bb 5F5F7569 		.ascii	"__uint32_t\000"
 1897      6E743332 
 1897      5F7400
 1898              	.LASF74:
 1899 05c6 70616E69 		.ascii	"panic_msg\000"
 1899      635F6D73 
 1899      6700
 1900              	.LASF86:
 1901 05d0 6F666673 		.ascii	"offset\000"
 1901      657400
 1902              	.LASF84:
 1903 05d7 636F6E74 		.ascii	"context\000"
 1903      65787400 
 1904              	.LASF123:
 1905 05df 68616C5F 		.ascii	"hal_lld_init\000"
 1905      6C6C645F 
 1905      696E6974 
 1905      00
 1906              	.LASF17:
 1907 05ec 7274636E 		.ascii	"rtcnt_t\000"
 1907      745F7400 
 1908              	.LASF68:
 1909 05f4 76745F70 		.ascii	"vt_par\000"
 1909      617200
 1910              	.LASF51:
 1911 05fb 74687265 		.ascii	"threads_queue_t\000"
 1911      6164735F 
 1911      71756575 
 1911      655F7400 
 1912              	.LASF98:
 1913 060b 63685F6D 		.ascii	"ch_mutex\000"
 1913      75746578 
 1913      00
 1914              	.LASF37:
 1915 0614 705F7265 		.ascii	"p_refs\000"
 1915      667300
ARM GAS  /var/folders/m4/4md61f0s1_g0rzfghffqnxvr0000gn/T//ccIPXWhq.s 			page 39


 1916              	.LASF138:
 1917 061b 5F70616C 		.ascii	"_pal_lld_init\000"
 1917      5F6C6C64 
 1917      5F696E69 
 1917      7400
 1918              	.LASF131:
 1919 0629 626F6172 		.ascii	"boardInit\000"
 1919      64496E69 
 1919      7400
 1920              	.LASF77:
 1921 0633 726C6973 		.ascii	"rlist\000"
 1921      7400
 1922              	.LASF13:
 1923 0639 75696E74 		.ascii	"uint8_t\000"
 1923      385F7400 
 1924              	.LASF90:
 1925 0641 77746F62 		.ascii	"wtobjp\000"
 1925      6A7000
 1926              	.LASF34:
 1927 0648 705F6E61 		.ascii	"p_name\000"
 1927      6D6500
 1928              	.LASF97:
 1929 064f 735F636E 		.ascii	"s_cnt\000"
 1929      7400
 1930              	.LASF114:
 1931 0655 50434461 		.ascii	"PCData\000"
 1931      746100
 1932              	.LASF71:
 1933 065c 76745F73 		.ascii	"vt_systime\000"
 1933      79737469 
 1933      6D6500
 1934              	.LASF126:
 1935 0667 69326349 		.ascii	"i2cInit\000"
 1935      6E697400 
 1936              	.LASF42:
 1937 066f 705F6D73 		.ascii	"p_msg\000"
 1937      6700
 1938              	.LASF120:
 1939 0675 50414C43 		.ascii	"PALConfig\000"
 1939      6F6E6669 
 1939      6700
 1940              	.LASF100:
 1941 067f 6D5F6F77 		.ascii	"m_owner\000"
 1941      6E657200 
 1942              	.LASF122:
 1943 0687 70616C5F 		.ascii	"pal_default_config\000"
 1943      64656661 
 1943      756C745F 
 1943      636F6E66 
 1943      696700
 1944              	.LASF31:
 1945 069a 705F6374 		.ascii	"p_ctx\000"
 1945      7800
 1946              	.LASF67:
 1947 06a0 76745F66 		.ascii	"vt_func\000"
 1947      756E6300 
 1948              		.ident	"GCC: (GNU Tools for ARM Embedded Processors) 4.9.3 20150529 (release) [ARM/embedded-4_9-br
ARM GAS  /var/folders/m4/4md61f0s1_g0rzfghffqnxvr0000gn/T//ccIPXWhq.s 			page 40


ARM GAS  /var/folders/m4/4md61f0s1_g0rzfghffqnxvr0000gn/T//ccIPXWhq.s 			page 41


DEFINED SYMBOLS
                            *ABS*:0000000000000000 hal.c
/var/folders/m4/4md61f0s1_g0rzfghffqnxvr0000gn/T//ccIPXWhq.s:21     .text.halInit:0000000000000000 $t
/var/folders/m4/4md61f0s1_g0rzfghffqnxvr0000gn/T//ccIPXWhq.s:27     .text.halInit:0000000000000000 halInit
/var/folders/m4/4md61f0s1_g0rzfghffqnxvr0000gn/T//ccIPXWhq.s:80     .text.halInit:0000000000000034 $d
                     .debug_frame:0000000000000010 $d

UNDEFINED SYMBOLS
hal_lld_init
_pal_lld_init
adcInit
extInit
i2cInit
pwmInit
spiInit
usbInit
sduInit
boardInit
stInit
pal_default_config
