ARM GAS  /var/folders/m4/4md61f0s1_g0rzfghffqnxvr0000gn/T//ccifRFr6.s 			page 1


   1              		.syntax unified
   2              		.cpu cortex-m4
   3              		.eabi_attribute 27, 1
   4              		.eabi_attribute 28, 1
   5              		.fpu fpv4-sp-d16
   6              		.eabi_attribute 20, 1
   7              		.eabi_attribute 21, 1
   8              		.eabi_attribute 23, 3
   9              		.eabi_attribute 24, 1
  10              		.eabi_attribute 25, 1
  11              		.eabi_attribute 26, 1
  12              		.eabi_attribute 30, 2
  13              		.eabi_attribute 34, 1
  14              		.eabi_attribute 18, 4
  15              		.thumb
  16              		.file	"hal_buffers.c"
  17              		.text
  18              	.Ltext0:
  19              		.cfi_sections	.debug_frame
  20              		.section	.text.ibqObjectInit,"ax",%progbits
  21              		.align	2
  22              		.p2align 4,,15
  23              		.global	ibqObjectInit
  24              		.thumb
  25              		.thumb_func
  26              		.type	ibqObjectInit, %function
  27              	ibqObjectInit:
  28              	.LFB268:
  29              		.file 1 "ChibiOS_16.1.4/os/hal/src/hal_buffers.c"
  30              		.loc 1 77 0
  31              		.cfi_startproc
  32              		@ args = 8, pretend = 0, frame = 0
  33              		@ frame_needed = 0, uses_anonymous_args = 0
  34              		@ link register save eliminated.
  35              	.LVL0:
  36 0000 F0B4     		push	{r4, r5, r6, r7}
  37              		.cfi_def_cfa_offset 16
  38              		.cfi_offset 4, -16
  39              		.cfi_offset 5, -12
  40              		.cfi_offset 6, -8
  41              		.cfi_offset 7, -4
  42              		.loc 1 85 0
  43 0002 0432     		adds	r2, r2, #4
  44              	.LVL1:
  45              		.loc 1 82 0
  46 0004 0024     		movs	r4, #0
  47              		.loc 1 85 0
  48 0006 03FB0217 		mla	r7, r3, r2, r1
  49              		.loc 1 77 0
  50 000a 049E     		ldr	r6, [sp, #16]
  51 000c 059D     		ldr	r5, [sp, #20]
  52              		.loc 1 85 0
  53 000e 4761     		str	r7, [r0, #20]
  54              		.loc 1 91 0
  55 0010 C662     		str	r6, [r0, #44]
  56              		.loc 1 92 0
  57 0012 0563     		str	r5, [r0, #48]
ARM GAS  /var/folders/m4/4md61f0s1_g0rzfghffqnxvr0000gn/T//ccifRFr6.s 			page 2


  58              		.loc 1 82 0
  59 0014 8460     		str	r4, [r0, #8]
  60              		.loc 1 89 0
  61 0016 4462     		str	r4, [r0, #36]
  62              		.loc 1 90 0
  63 0018 8462     		str	r4, [r0, #40]
  64              	.LBB256:
  65              	.LBB257:
  66              	.LBB258:
  67              	.LBB259:
  68              		.file 2 "ChibiOS_16.1.4/os/rt/include/chschd.h"
  69              		.loc 2 604 0
  70 001a 0060     		str	r0, [r0]
  71              		.loc 2 605 0
  72 001c 4060     		str	r0, [r0, #4]
  73              	.LBE259:
  74              	.LBE258:
  75              	.LBE257:
  76              	.LBE256:
  77              		.loc 1 83 0
  78 001e 0161     		str	r1, [r0, #16]
  79              		.loc 1 84 0
  80 0020 C160     		str	r1, [r0, #12]
  81              		.loc 1 86 0
  82 0022 8261     		str	r2, [r0, #24]
  83              		.loc 1 87 0
  84 0024 C361     		str	r3, [r0, #28]
  85              		.loc 1 88 0
  86 0026 0162     		str	r1, [r0, #32]
  87              		.loc 1 93 0
  88 0028 F0BC     		pop	{r4, r5, r6, r7}
  89              		.cfi_restore 7
  90              		.cfi_restore 6
  91              		.cfi_restore 5
  92              		.cfi_restore 4
  93              		.cfi_def_cfa_offset 0
  94              	.LVL2:
  95 002a 7047     		bx	lr
  96              		.cfi_endproc
  97              	.LFE268:
  98              		.size	ibqObjectInit, .-ibqObjectInit
  99              		.section	.text.ibqResetI,"ax",%progbits
 100              		.align	2
 101              		.p2align 4,,15
 102              		.global	ibqResetI
 103              		.thumb
 104              		.thumb_func
 105              		.type	ibqResetI, %function
 106              	ibqResetI:
 107              	.LFB269:
 108              		.loc 1 106 0
 109              		.cfi_startproc
 110              		@ args = 0, pretend = 0, frame = 0
 111              		@ frame_needed = 0, uses_anonymous_args = 0
 112              		@ link register save eliminated.
 113              	.LVL3:
 114              		.loc 1 110 0
ARM GAS  /var/folders/m4/4md61f0s1_g0rzfghffqnxvr0000gn/T//ccifRFr6.s 			page 3


 115 0000 0022     		movs	r2, #0
 116              		.loc 1 111 0
 117 0002 016A     		ldr	r1, [r0, #32]
 118 0004 0161     		str	r1, [r0, #16]
 119              		.loc 1 112 0
 120 0006 C160     		str	r1, [r0, #12]
 121              		.loc 1 110 0
 122 0008 8260     		str	r2, [r0, #8]
 123              		.loc 1 113 0
 124 000a 4262     		str	r2, [r0, #36]
 125              		.loc 1 114 0
 126 000c 8262     		str	r2, [r0, #40]
 127              	.LVL4:
 128              	.LBB260:
 129              	.LBB261:
 130              		.file 3 "ChibiOS_16.1.4/os/hal/osal/rt/osal.h"
 131              		.loc 3 810 0
 132 000e 6FF00101 		mvn	r1, #1
 133 0012 FFF7FEBF 		b	chThdDequeueAllI
 134              	.LVL5:
 135              	.LBE261:
 136              	.LBE260:
 137              		.cfi_endproc
 138              	.LFE269:
 139              		.size	ibqResetI, .-ibqResetI
 140 0016 00BF     		.section	.text.ibqGetEmptyBufferI,"ax",%progbits
 141              		.align	2
 142              		.p2align 4,,15
 143              		.global	ibqGetEmptyBufferI
 144              		.thumb
 145              		.thumb_func
 146              		.type	ibqGetEmptyBufferI, %function
 147              	ibqGetEmptyBufferI:
 148              	.LFB270:
 149              		.loc 1 128 0
 150              		.cfi_startproc
 151              		@ args = 0, pretend = 0, frame = 0
 152              		@ frame_needed = 0, uses_anonymous_args = 0
 153              		@ link register save eliminated.
 154              	.LVL6:
 155              		.loc 1 132 0
 156 0000 C368     		ldr	r3, [r0, #12]
 157 0002 0269     		ldr	r2, [r0, #16]
 158 0004 9342     		cmp	r3, r2
 159 0006 01D0     		beq	.L12
 160              	.L5:
 161              		.loc 1 136 0
 162 0008 181D     		adds	r0, r3, #4
 163              	.LVL7:
 164              		.loc 1 137 0
 165 000a 7047     		bx	lr
 166              	.LVL8:
 167              	.L12:
 168              		.loc 1 132 0 discriminator 1
 169 000c 8268     		ldr	r2, [r0, #8]
 170 000e 002A     		cmp	r2, #0
 171 0010 FAD0     		beq	.L5
ARM GAS  /var/folders/m4/4md61f0s1_g0rzfghffqnxvr0000gn/T//ccifRFr6.s 			page 4


 172              		.loc 1 133 0
 173 0012 0020     		movs	r0, #0
 174              	.LVL9:
 175 0014 7047     		bx	lr
 176              		.cfi_endproc
 177              	.LFE270:
 178              		.size	ibqGetEmptyBufferI, .-ibqGetEmptyBufferI
 179 0016 00BF     		.section	.text.ibqPostFullBufferI,"ax",%progbits
 180              		.align	2
 181              		.p2align 4,,15
 182              		.global	ibqPostFullBufferI
 183              		.thumb
 184              		.thumb_func
 185              		.type	ibqPostFullBufferI, %function
 186              	ibqPostFullBufferI:
 187              	.LFB271:
 188              		.loc 1 147 0
 189              		.cfi_startproc
 190              		@ args = 0, pretend = 0, frame = 0
 191              		@ frame_needed = 0, uses_anonymous_args = 0
 192              		@ link register save eliminated.
 193              	.LVL10:
 194 0000 30B4     		push	{r4, r5}
 195              		.cfi_def_cfa_offset 8
 196              		.cfi_offset 4, -8
 197              		.cfi_offset 5, -4
 198              		.loc 1 155 0
 199 0002 C468     		ldr	r4, [r0, #12]
 200              		.loc 1 160 0
 201 0004 4569     		ldr	r5, [r0, #20]
 202              		.loc 1 155 0
 203 0006 2160     		str	r1, [r4]
 204              		.loc 1 159 0
 205 0008 8369     		ldr	r3, [r0, #24]
 206              		.loc 1 158 0
 207 000a 8268     		ldr	r2, [r0, #8]
 208              		.loc 1 159 0
 209 000c 2344     		add	r3, r3, r4
 210              		.loc 1 160 0
 211 000e AB42     		cmp	r3, r5
 212              		.loc 1 159 0
 213 0010 C360     		str	r3, [r0, #12]
 214              		.loc 1 158 0
 215 0012 02F10102 		add	r2, r2, #1
 216              		.loc 1 161 0
 217 0016 28BF     		it	cs
 218 0018 036A     		ldrcs	r3, [r0, #32]
 219              		.loc 1 158 0
 220 001a 8260     		str	r2, [r0, #8]
 221              		.loc 1 161 0
 222 001c 28BF     		it	cs
 223 001e C360     		strcs	r3, [r0, #12]
 224              	.LVL11:
 225              	.LBB262:
 226              	.LBB263:
 227              		.loc 3 797 0
 228 0020 0021     		movs	r1, #0
ARM GAS  /var/folders/m4/4md61f0s1_g0rzfghffqnxvr0000gn/T//ccifRFr6.s 			page 5


 229              	.LVL12:
 230              	.LBE263:
 231              	.LBE262:
 232              		.loc 1 166 0
 233 0022 30BC     		pop	{r4, r5}
 234              		.cfi_restore 5
 235              		.cfi_restore 4
 236              		.cfi_def_cfa_offset 0
 237              	.LBB265:
 238              	.LBB264:
 239              		.loc 3 797 0
 240 0024 FFF7FEBF 		b	chThdDequeueNextI
 241              	.LVL13:
 242              	.LBE264:
 243              	.LBE265:
 244              		.cfi_endproc
 245              	.LFE271:
 246              		.size	ibqPostFullBufferI, .-ibqPostFullBufferI
 247              		.section	.text.ibqGetFullBufferTimeoutS,"ax",%progbits
 248              		.align	2
 249              		.p2align 4,,15
 250              		.global	ibqGetFullBufferTimeoutS
 251              		.thumb
 252              		.thumb_func
 253              		.type	ibqGetFullBufferTimeoutS, %function
 254              	ibqGetFullBufferTimeoutS:
 255              	.LFB273:
 256              		.loc 1 220 0
 257              		.cfi_startproc
 258              		@ args = 0, pretend = 0, frame = 0
 259              		@ frame_needed = 0, uses_anonymous_args = 0
 260              	.LVL14:
 261 0000 38B5     		push	{r3, r4, r5, lr}
 262              		.cfi_def_cfa_offset 16
 263              		.cfi_offset 3, -16
 264              		.cfi_offset 4, -12
 265              		.cfi_offset 5, -8
 266              		.cfi_offset 14, -4
 267              		.loc 1 220 0
 268 0002 0446     		mov	r4, r0
 269 0004 0D46     		mov	r5, r1
 270              		.loc 1 224 0
 271 0006 03E0     		b	.L17
 272              	.LVL15:
 273              	.L19:
 274              	.LBB274:
 275              	.LBB275:
 276              	.LBB276:
 277              		.loc 3 784 0
 278 0008 FFF7FEFF 		bl	chThdEnqueueTimeoutS
 279              	.LVL16:
 280              	.LBE276:
 281              	.LBE275:
 282              		.loc 1 226 0
 283 000c 0028     		cmp	r0, #0
 284 000e 0BDB     		blt	.L18
 285              	.LVL17:
ARM GAS  /var/folders/m4/4md61f0s1_g0rzfghffqnxvr0000gn/T//ccifRFr6.s 			page 6


 286              	.L17:
 287              	.LBE274:
 288              		.loc 1 224 0
 289 0010 A368     		ldr	r3, [r4, #8]
 290              	.LBB279:
 291              	.LBB278:
 292              	.LBB277:
 293              		.loc 3 784 0
 294 0012 2046     		mov	r0, r4
 295 0014 2946     		mov	r1, r5
 296              	.LBE277:
 297              	.LBE278:
 298              	.LBE279:
 299              		.loc 1 224 0
 300 0016 002B     		cmp	r3, #0
 301 0018 F6D0     		beq	.L19
 302              	.LVL18:
 303              	.LBB280:
 304              	.LBB281:
 305              		.loc 1 234 0
 306 001a 2369     		ldr	r3, [r4, #16]
 307              		.loc 1 235 0
 308 001c 1A68     		ldr	r2, [r3]
 309              		.loc 1 234 0
 310 001e 0433     		adds	r3, r3, #4
 311              		.loc 1 235 0
 312 0020 1A44     		add	r2, r2, r3
 313 0022 A262     		str	r2, [r4, #40]
 314              		.loc 1 234 0
 315 0024 6362     		str	r3, [r4, #36]
 316              		.loc 1 235 0
 317 0026 0020     		movs	r0, #0
 318              	.LVL19:
 319              	.L18:
 320              	.LBE281:
 321              	.LBE280:
 322              		.loc 1 238 0
 323 0028 38BD     		pop	{r3, r4, r5, pc}
 324              		.cfi_endproc
 325              	.LFE273:
 326              		.size	ibqGetFullBufferTimeoutS, .-ibqGetFullBufferTimeoutS
 327 002a 00BF     		.section	.text.ibqGetFullBufferTimeout,"ax",%progbits
 328              		.align	2
 329              		.p2align 4,,15
 330              		.global	ibqGetFullBufferTimeout
 331              		.thumb
 332              		.thumb_func
 333              		.type	ibqGetFullBufferTimeout, %function
 334              	ibqGetFullBufferTimeout:
 335              	.LFB272:
 336              		.loc 1 189 0
 337              		.cfi_startproc
 338              		@ args = 0, pretend = 0, frame = 0
 339              		@ frame_needed = 0, uses_anonymous_args = 0
 340              	.LVL20:
 341 0000 08B5     		push	{r3, lr}
 342              		.cfi_def_cfa_offset 8
ARM GAS  /var/folders/m4/4md61f0s1_g0rzfghffqnxvr0000gn/T//ccifRFr6.s 			page 7


 343              		.cfi_offset 3, -8
 344              		.cfi_offset 14, -4
 345              	.LBB282:
 346              	.LBB283:
 347              	.LBB284:
 348              	.LBB285:
 349              	.LBB286:
 350              		.file 4 "ChibiOS_16.1.4/os/ext/CMSIS/include/core_cmFunc.h"
 351              		.loc 4 548 0
 352 0002 2023     		movs	r3, #32
 353              	@ 548 "ChibiOS_16.1.4/os/ext/CMSIS/include/core_cmFunc.h" 1
 354 0004 83F31188 		MSR basepri, r3
 355              	@ 0 "" 2
 356              		.thumb
 357              	.LBE286:
 358              	.LBE285:
 359              	.LBE284:
 360              	.LBE283:
 361              	.LBE282:
 362              		.loc 1 193 0
 363 0008 FFF7FEFF 		bl	ibqGetFullBufferTimeoutS
 364              	.LVL21:
 365              	.LBB287:
 366              	.LBB288:
 367              	.LBB289:
 368              	.LBB290:
 369              	.LBB291:
 370              	.LBB292:
 371              		.loc 4 548 0
 372 000c 0023     		movs	r3, #0
 373              	@ 548 "ChibiOS_16.1.4/os/ext/CMSIS/include/core_cmFunc.h" 1
 374 000e 83F31188 		MSR basepri, r3
 375              	@ 0 "" 2
 376              		.thumb
 377              	.LBE292:
 378              	.LBE291:
 379              	.LBE290:
 380              	.LBE289:
 381              	.LBE288:
 382              	.LBE287:
 383              		.loc 1 197 0
 384 0012 08BD     		pop	{r3, pc}
 385              		.cfi_endproc
 386              	.LFE272:
 387              		.size	ibqGetFullBufferTimeout, .-ibqGetFullBufferTimeout
 388              		.section	.text.ibqReleaseEmptyBufferS,"ax",%progbits
 389              		.align	2
 390              		.p2align 4,,15
 391              		.global	ibqReleaseEmptyBufferS
 392              		.thumb
 393              		.thumb_func
 394              		.type	ibqReleaseEmptyBufferS, %function
 395              	ibqReleaseEmptyBufferS:
 396              	.LFB275:
 397              		.loc 1 263 0
 398              		.cfi_startproc
 399              		@ args = 0, pretend = 0, frame = 0
ARM GAS  /var/folders/m4/4md61f0s1_g0rzfghffqnxvr0000gn/T//ccifRFr6.s 			page 8


 400              		@ frame_needed = 0, uses_anonymous_args = 0
 401              		@ link register save eliminated.
 402              	.LVL22:
 403 0000 10B4     		push	{r4}
 404              		.cfi_def_cfa_offset 4
 405              		.cfi_offset 4, -4
 406              		.loc 1 270 0
 407 0002 8369     		ldr	r3, [r0, #24]
 408 0004 0469     		ldr	r4, [r0, #16]
 409              		.loc 1 271 0
 410 0006 4169     		ldr	r1, [r0, #20]
 411              		.loc 1 269 0
 412 0008 8268     		ldr	r2, [r0, #8]
 413              		.loc 1 270 0
 414 000a 2344     		add	r3, r3, r4
 415              		.loc 1 271 0
 416 000c 8B42     		cmp	r3, r1
 417              		.loc 1 270 0
 418 000e 0361     		str	r3, [r0, #16]
 419              		.loc 1 272 0
 420 0010 24BF     		itt	cs
 421 0012 036A     		ldrcs	r3, [r0, #32]
 422 0014 0361     		strcs	r3, [r0, #16]
 423              		.loc 1 269 0
 424 0016 013A     		subs	r2, r2, #1
 425              		.loc 1 279 0
 426 0018 C36A     		ldr	r3, [r0, #44]
 427              		.loc 1 269 0
 428 001a 8260     		str	r2, [r0, #8]
 429              		.loc 1 276 0
 430 001c 0022     		movs	r2, #0
 431 001e 4262     		str	r2, [r0, #36]
 432              		.loc 1 279 0
 433 0020 13B1     		cbz	r3, .L24
 434              		.loc 1 282 0
 435 0022 5DF8044B 		ldr	r4, [sp], #4
 436              		.cfi_remember_state
 437              		.cfi_restore 4
 438              		.cfi_def_cfa_offset 0
 439              		.loc 1 280 0
 440 0026 1847     		bx	r3	@ indirect register sibling call
 441              	.LVL23:
 442              	.L24:
 443              		.cfi_restore_state
 444              		.loc 1 282 0
 445 0028 5DF8044B 		ldr	r4, [sp], #4
 446              		.cfi_restore 4
 447              		.cfi_def_cfa_offset 0
 448 002c 7047     		bx	lr
 449              		.cfi_endproc
 450              	.LFE275:
 451              		.size	ibqReleaseEmptyBufferS, .-ibqReleaseEmptyBufferS
 452 002e 00BF     		.section	.text.ibqReleaseEmptyBuffer,"ax",%progbits
 453              		.align	2
 454              		.p2align 4,,15
 455              		.global	ibqReleaseEmptyBuffer
 456              		.thumb
ARM GAS  /var/folders/m4/4md61f0s1_g0rzfghffqnxvr0000gn/T//ccifRFr6.s 			page 9


 457              		.thumb_func
 458              		.type	ibqReleaseEmptyBuffer, %function
 459              	ibqReleaseEmptyBuffer:
 460              	.LFB274:
 461              		.loc 1 248 0
 462              		.cfi_startproc
 463              		@ args = 0, pretend = 0, frame = 0
 464              		@ frame_needed = 0, uses_anonymous_args = 0
 465              	.LVL24:
 466 0000 08B5     		push	{r3, lr}
 467              		.cfi_def_cfa_offset 8
 468              		.cfi_offset 3, -8
 469              		.cfi_offset 14, -4
 470              	.LBB293:
 471              	.LBB294:
 472              	.LBB295:
 473              	.LBB296:
 474              	.LBB297:
 475              		.loc 4 548 0
 476 0002 2023     		movs	r3, #32
 477              	@ 548 "ChibiOS_16.1.4/os/ext/CMSIS/include/core_cmFunc.h" 1
 478 0004 83F31188 		MSR basepri, r3
 479              	@ 0 "" 2
 480              		.thumb
 481              	.LBE297:
 482              	.LBE296:
 483              	.LBE295:
 484              	.LBE294:
 485              	.LBE293:
 486              		.loc 1 251 0
 487 0008 FFF7FEFF 		bl	ibqReleaseEmptyBufferS
 488              	.LVL25:
 489              	.LBB298:
 490              	.LBB299:
 491              	.LBB300:
 492              	.LBB301:
 493              	.LBB302:
 494              	.LBB303:
 495              		.loc 4 548 0
 496 000c 0023     		movs	r3, #0
 497              	@ 548 "ChibiOS_16.1.4/os/ext/CMSIS/include/core_cmFunc.h" 1
 498 000e 83F31188 		MSR basepri, r3
 499              	@ 0 "" 2
 500              		.thumb
 501 0012 08BD     		pop	{r3, pc}
 502              	.LBE303:
 503              	.LBE302:
 504              	.LBE301:
 505              	.LBE300:
 506              	.LBE299:
 507              	.LBE298:
 508              		.cfi_endproc
 509              	.LFE274:
 510              		.size	ibqReleaseEmptyBuffer, .-ibqReleaseEmptyBuffer
 511              		.section	.text.ibqGetTimeout,"ax",%progbits
 512              		.align	2
 513              		.p2align 4,,15
ARM GAS  /var/folders/m4/4md61f0s1_g0rzfghffqnxvr0000gn/T//ccifRFr6.s 			page 10


 514              		.global	ibqGetTimeout
 515              		.thumb
 516              		.thumb_func
 517              		.type	ibqGetTimeout, %function
 518              	ibqGetTimeout:
 519              	.LFB276:
 520              		.loc 1 302 0
 521              		.cfi_startproc
 522              		@ args = 0, pretend = 0, frame = 0
 523              		@ frame_needed = 0, uses_anonymous_args = 0
 524              	.LVL26:
 525 0000 38B5     		push	{r3, r4, r5, lr}
 526              		.cfi_def_cfa_offset 16
 527              		.cfi_offset 3, -16
 528              		.cfi_offset 4, -12
 529              		.cfi_offset 5, -8
 530              		.cfi_offset 14, -4
 531              		.loc 1 302 0
 532 0002 0446     		mov	r4, r0
 533              	.LBB304:
 534              	.LBB305:
 535              	.LBB306:
 536              	.LBB307:
 537              	.LBB308:
 538              		.loc 4 548 0
 539 0004 2023     		movs	r3, #32
 540              	@ 548 "ChibiOS_16.1.4/os/ext/CMSIS/include/core_cmFunc.h" 1
 541 0006 83F31188 		MSR basepri, r3
 542              	@ 0 "" 2
 543              		.thumb
 544              	.LBE308:
 545              	.LBE307:
 546              	.LBE306:
 547              	.LBE305:
 548              	.LBE304:
 549              		.loc 1 308 0
 550 000a 456A     		ldr	r5, [r0, #36]
 551 000c 9DB1     		cbz	r5, .L36
 552              	.LVL27:
 553              	.L31:
 554              		.loc 1 317 0
 555 000e 2B46     		mov	r3, r5
 556              		.loc 1 322 0
 557 0010 A26A     		ldr	r2, [r4, #40]
 558              		.loc 1 317 0
 559 0012 13F8015B 		ldrb	r5, [r3], #1	@ zero_extendqisi2
 560              	.LVL28:
 561              		.loc 1 318 0
 562 0016 6362     		str	r3, [r4, #36]
 563              		.loc 1 322 0
 564 0018 9342     		cmp	r3, r2
 565 001a 04D2     		bcs	.L37
 566              	.LVL29:
 567              	.LBB309:
 568              	.LBB310:
 569              	.LBB311:
 570              	.LBB312:
ARM GAS  /var/folders/m4/4md61f0s1_g0rzfghffqnxvr0000gn/T//ccifRFr6.s 			page 11


 571              	.LBB313:
 572              	.LBB314:
 573              		.loc 4 548 0
 574 001c 0023     		movs	r3, #0
 575              	@ 548 "ChibiOS_16.1.4/os/ext/CMSIS/include/core_cmFunc.h" 1
 576 001e 83F31188 		MSR basepri, r3
 577              	@ 0 "" 2
 578              		.thumb
 579              	.LBE314:
 580              	.LBE313:
 581              	.LBE312:
 582              	.LBE311:
 583              	.LBE310:
 584              	.LBE309:
 585              		.loc 1 327 0
 586 0022 2846     		mov	r0, r5
 587              		.loc 1 328 0
 588 0024 38BD     		pop	{r3, r4, r5, pc}
 589              	.LVL30:
 590              	.L37:
 591              		.loc 1 323 0
 592 0026 2046     		mov	r0, r4
 593 0028 FFF7FEFF 		bl	ibqReleaseEmptyBufferS
 594              	.LVL31:
 595              	.LBB320:
 596              	.LBB319:
 597              	.LBB318:
 598              	.LBB317:
 599              	.LBB316:
 600              	.LBB315:
 601              		.loc 4 548 0
 602 002c 0023     		movs	r3, #0
 603              	@ 548 "ChibiOS_16.1.4/os/ext/CMSIS/include/core_cmFunc.h" 1
 604 002e 83F31188 		MSR basepri, r3
 605              	@ 0 "" 2
 606              		.thumb
 607              	.LBE315:
 608              	.LBE316:
 609              	.LBE317:
 610              	.LBE318:
 611              	.LBE319:
 612              	.LBE320:
 613              		.loc 1 327 0
 614 0032 2846     		mov	r0, r5
 615              		.loc 1 328 0
 616 0034 38BD     		pop	{r3, r4, r5, pc}
 617              	.LVL32:
 618              	.L36:
 619              		.loc 1 309 0
 620 0036 FFF7FEFF 		bl	ibqGetFullBufferTimeoutS
 621              	.LVL33:
 622              		.loc 1 310 0
 623 003a 08B9     		cbnz	r0, .L32
 624 003c 656A     		ldr	r5, [r4, #36]
 625 003e E6E7     		b	.L31
 626              	.L32:
 627              	.LVL34:
ARM GAS  /var/folders/m4/4md61f0s1_g0rzfghffqnxvr0000gn/T//ccifRFr6.s 			page 12


 628              	.LBB321:
 629              	.LBB322:
 630              	.LBB323:
 631              	.LBB324:
 632              	.LBB325:
 633              	.LBB326:
 634              		.loc 4 548 0
 635              	@ 548 "ChibiOS_16.1.4/os/ext/CMSIS/include/core_cmFunc.h" 1
 636 0040 85F31188 		MSR basepri, r5
 637              	@ 0 "" 2
 638              		.thumb
 639              	.LBE326:
 640              	.LBE325:
 641              	.LBE324:
 642              	.LBE323:
 643              	.LBE322:
 644              	.LBE321:
 645              		.loc 1 312 0
 646 0044 38BD     		pop	{r3, r4, r5, pc}
 647              		.cfi_endproc
 648              	.LFE276:
 649              		.size	ibqGetTimeout, .-ibqGetTimeout
 650 0046 00BF     		.section	.text.ibqReadTimeout,"ax",%progbits
 651              		.align	2
 652              		.p2align 4,,15
 653              		.global	ibqReadTimeout
 654              		.thumb
 655              		.thumb_func
 656              		.type	ibqReadTimeout, %function
 657              	ibqReadTimeout:
 658              	.LFB277:
 659              		.loc 1 352 0
 660              		.cfi_startproc
 661              		@ args = 0, pretend = 0, frame = 8
 662              		@ frame_needed = 0, uses_anonymous_args = 0
 663              	.LVL35:
 664 0000 2DE9F04F 		push	{r4, r5, r6, r7, r8, r9, r10, fp, lr}
 665              		.cfi_def_cfa_offset 36
 666              		.cfi_offset 4, -36
 667              		.cfi_offset 5, -32
 668              		.cfi_offset 6, -28
 669              		.cfi_offset 7, -24
 670              		.cfi_offset 8, -20
 671              		.cfi_offset 9, -16
 672              		.cfi_offset 10, -12
 673              		.cfi_offset 11, -8
 674              		.cfi_offset 14, -4
 675 0004 0446     		mov	r4, r0
 676 0006 83B0     		sub	sp, sp, #12
 677              		.cfi_def_cfa_offset 48
 678              		.loc 1 352 0
 679 0008 0E46     		mov	r6, r1
 680 000a 9246     		mov	r10, r2
 681 000c 9946     		mov	r9, r3
 682              	.LBB327:
 683              	.LBB328:
 684              	.LBB329:
ARM GAS  /var/folders/m4/4md61f0s1_g0rzfghffqnxvr0000gn/T//ccifRFr6.s 			page 13


 685              	.LBB330:
 686              	.LBB331:
 687              		.loc 4 548 0
 688 000e 2027     		movs	r7, #32
 689              	@ 548 "ChibiOS_16.1.4/os/ext/CMSIS/include/core_cmFunc.h" 1
 690 0010 87F31188 		MSR basepri, r7
 691              	@ 0 "" 2
 692              		.thumb
 693              	.LBE331:
 694              	.LBE330:
 695              	.LBE329:
 696              	.LBE328:
 697              	.LBE327:
 698              	.LBB332:
 699              	.LBB333:
 700              	.LBB334:
 701              		.file 5 "ChibiOS_16.1.4/os/rt/include/chvt.h"
 702              		.loc 5 231 0
 703 0014 3A4B     		ldr	r3, .L59
 704              	.LVL36:
 705              	.LBE334:
 706              	.LBE333:
 707              	.LBE332:
 708              	.LBB337:
 709              		.loc 1 365 0
 710 0016 616A     		ldr	r1, [r4, #36]
 711              	.LVL37:
 712              	.LBE337:
 713              	.LBB385:
 714              	.LBB336:
 715              	.LBB335:
 716              		.loc 5 231 0
 717 0018 9B6A     		ldr	r3, [r3, #40]
 718              	.LBE335:
 719              	.LBE336:
 720              	.LBE385:
 721              		.loc 1 359 0
 722 001a 4B44     		add	r3, r9, r3
 723              		.loc 1 353 0
 724 001c 0025     		movs	r5, #0
 725              		.loc 1 359 0
 726 001e 0193     		str	r3, [sp, #4]
 727              	.LVL38:
 728              	.LBB386:
 729              	.LBB338:
 730              		.loc 1 370 0
 731 0020 09F1FF33 		add	r3, r9, #-1
 732              	.LVL39:
 733 0024 0093     		str	r3, [sp]
 734              	.LBE338:
 735              	.LBB359:
 736              	.LBB360:
 737              	.LBB361:
 738              	.LBB362:
 739              	.LBB363:
 740              	.LBB364:
 741              		.loc 4 548 0
ARM GAS  /var/folders/m4/4md61f0s1_g0rzfghffqnxvr0000gn/T//ccifRFr6.s 			page 14


 742 0026 A846     		mov	r8, r5
 743              	.LBE364:
 744              	.LBE363:
 745              	.LBE362:
 746              	.LBE361:
 747              	.LBE360:
 748              	.LBE359:
 749              		.loc 1 365 0
 750 0028 91B3     		cbz	r1, .L53
 751              	.LVL40:
 752              	.L39:
 753              		.loc 1 394 0
 754 002a A36A     		ldr	r3, [r4, #40]
 755              		.loc 1 395 0
 756 002c C5EB0A0B 		rsb	fp, r5, r10
 757              		.loc 1 394 0
 758 0030 5B1A     		subs	r3, r3, r1
 759              	.LVL41:
 760 0032 9B45     		cmp	fp, r3
 761 0034 28BF     		it	cs
 762 0036 9B46     		movcs	fp, r3
 763              	.LVL42:
 764              		.loc 1 401 0
 765 0038 BBF1400F 		cmp	fp, #64
 766 003c 38D9     		bls	.L45
 767              		.loc 1 403 0
 768 003e 01F14002 		add	r2, r1, #64
 769 0042 3346     		mov	r3, r6
 770              	.LVL43:
 771              	.L46:
 772 0044 D1F800C0 		ldr	ip, [r1]	@ unaligned
 773 0048 D1F804E0 		ldr	lr, [r1, #4]	@ unaligned
 774 004c 8868     		ldr	r0, [r1, #8]	@ unaligned
 775 004e D1F80CB0 		ldr	fp, [r1, #12]	@ unaligned
 776 0052 C3F80CB0 		str	fp, [r3, #12]	@ unaligned
 777 0056 1031     		adds	r1, r1, #16
 778 0058 9142     		cmp	r1, r2
 779 005a C3F800C0 		str	ip, [r3]	@ unaligned
 780 005e C3F804E0 		str	lr, [r3, #4]	@ unaligned
 781 0062 9860     		str	r0, [r3, #8]	@ unaligned
 782 0064 03F11003 		add	r3, r3, #16
 783 0068 ECD1     		bne	.L46
 784              		.loc 1 405 0
 785 006a 636A     		ldr	r3, [r4, #36]
 786              		.loc 1 416 0
 787 006c A26A     		ldr	r2, [r4, #40]
 788              		.loc 1 405 0
 789 006e 4033     		adds	r3, r3, #64
 790              		.loc 1 416 0
 791 0070 9A42     		cmp	r2, r3
 792              		.loc 1 404 0
 793 0072 06F14006 		add	r6, r6, #64
 794              	.LVL44:
 795              		.loc 1 406 0
 796 0076 05F14005 		add	r5, r5, #64
 797              	.LVL45:
 798              		.loc 1 405 0
ARM GAS  /var/folders/m4/4md61f0s1_g0rzfghffqnxvr0000gn/T//ccifRFr6.s 			page 15


 799 007a 6362     		str	r3, [r4, #36]
 800              		.loc 1 416 0
 801 007c 24D9     		bls	.L54
 802              	.L48:
 803              	.LVL46:
 804              	.LBB375:
 805              	.LBB373:
 806              	.LBB371:
 807              	.LBB369:
 808              	.LBB367:
 809              	.LBB365:
 810              		.loc 4 548 0
 811              	@ 548 "ChibiOS_16.1.4/os/ext/CMSIS/include/core_cmFunc.h" 1
 812 007e 88F31188 		MSR basepri, r8
 813              	@ 0 "" 2
 814              		.thumb
 815              	.LBE365:
 816              	.LBE367:
 817              	.LBE369:
 818              	.LBE371:
 819              	.LBE373:
 820              	.LBE375:
 821              		.loc 1 422 0
 822 0082 5545     		cmp	r5, r10
 823 0084 27D2     		bcs	.L43
 824              	.L57:
 825              	.LVL47:
 826              	.LBB376:
 827              	.LBB377:
 828              	.LBB378:
 829              	.LBB379:
 830              	.LBB380:
 831              		.loc 4 548 0
 832              	@ 548 "ChibiOS_16.1.4/os/ext/CMSIS/include/core_cmFunc.h" 1
 833 0086 87F31188 		MSR basepri, r7
 834              	@ 0 "" 2
 835              		.thumb
 836              	.LBE380:
 837              	.LBE379:
 838              	.LBE378:
 839              	.LBE377:
 840              	.LBE376:
 841              		.loc 1 365 0
 842 008a 616A     		ldr	r1, [r4, #36]
 843 008c 0029     		cmp	r1, #0
 844 008e CCD1     		bne	.L39
 845              	.LVL48:
 846              	.L53:
 847              	.LBB381:
 848              		.loc 1 370 0
 849 0090 009B     		ldr	r3, [sp]
 850 0092 0333     		adds	r3, r3, #3
 851 0094 23D8     		bhi	.L55
 852              	.LBB339:
 853              	.LBB340:
 854              	.LBB341:
 855              	.LBB342:
ARM GAS  /var/folders/m4/4md61f0s1_g0rzfghffqnxvr0000gn/T//ccifRFr6.s 			page 16


 856              		.loc 5 231 0
 857 0096 1A4B     		ldr	r3, .L59
 858              	.LBE342:
 859              	.LBE341:
 860              	.LBE340:
 861              		.loc 1 374 0
 862 0098 019A     		ldr	r2, [sp, #4]
 863              	.LBB345:
 864              	.LBB344:
 865              	.LBB343:
 866              		.loc 5 231 0
 867 009a 9B6A     		ldr	r3, [r3, #40]
 868              	.LBE343:
 869              	.LBE344:
 870              	.LBE345:
 871              		.loc 1 374 0
 872 009c D31A     		subs	r3, r2, r3
 873              	.LVL49:
 874              		.loc 1 379 0
 875 009e 9945     		cmp	r9, r3
 876 00a0 2AD3     		bcc	.L56
 877              		.loc 1 383 0
 878 00a2 1946     		mov	r1, r3
 879 00a4 2046     		mov	r0, r4
 880 00a6 FFF7FEFF 		bl	ibqGetFullBufferTimeoutS
 881              	.LVL50:
 882              	.LBE339:
 883              		.loc 1 387 0
 884 00aa F0B9     		cbnz	r0, .L44
 885              	.L58:
 886 00ac 616A     		ldr	r1, [r4, #36]
 887 00ae BCE7     		b	.L39
 888              	.LVL51:
 889              	.L45:
 890              	.LBE381:
 891              		.loc 1 409 0
 892 00b0 3046     		mov	r0, r6
 893 00b2 5A46     		mov	r2, fp
 894 00b4 FFF7FEFF 		bl	memcpy
 895              	.LVL52:
 896              		.loc 1 411 0
 897 00b8 636A     		ldr	r3, [r4, #36]
 898              		.loc 1 416 0
 899 00ba A26A     		ldr	r2, [r4, #40]
 900              		.loc 1 411 0
 901 00bc 5B44     		add	r3, r3, fp
 902              		.loc 1 416 0
 903 00be 9A42     		cmp	r2, r3
 904              		.loc 1 412 0
 905 00c0 5D44     		add	r5, r5, fp
 906              	.LVL53:
 907              		.loc 1 410 0
 908 00c2 5E44     		add	r6, r6, fp
 909              	.LVL54:
 910              		.loc 1 411 0
 911 00c4 6362     		str	r3, [r4, #36]
 912              		.loc 1 416 0
ARM GAS  /var/folders/m4/4md61f0s1_g0rzfghffqnxvr0000gn/T//ccifRFr6.s 			page 17


 913 00c6 DAD8     		bhi	.L48
 914              	.LVL55:
 915              	.L54:
 916              		.loc 1 417 0
 917 00c8 2046     		mov	r0, r4
 918 00ca FFF7FEFF 		bl	ibqReleaseEmptyBufferS
 919              	.LVL56:
 920              	.LBB382:
 921              	.LBB374:
 922              	.LBB372:
 923              	.LBB370:
 924              	.LBB368:
 925              	.LBB366:
 926              		.loc 4 548 0
 927              	@ 548 "ChibiOS_16.1.4/os/ext/CMSIS/include/core_cmFunc.h" 1
 928 00ce 88F31188 		MSR basepri, r8
 929              	@ 0 "" 2
 930              		.thumb
 931              	.LBE366:
 932              	.LBE368:
 933              	.LBE370:
 934              	.LBE372:
 935              	.LBE374:
 936              	.LBE382:
 937              		.loc 1 422 0
 938 00d2 5545     		cmp	r5, r10
 939 00d4 D7D3     		bcc	.L57
 940              	.LVL57:
 941              	.L43:
 942              	.LBE386:
 943              		.loc 1 427 0
 944 00d6 2846     		mov	r0, r5
 945 00d8 03B0     		add	sp, sp, #12
 946              		.cfi_remember_state
 947              		.cfi_def_cfa_offset 36
 948              		@ sp needed
 949 00da BDE8F08F 		pop	{r4, r5, r6, r7, r8, r9, r10, fp, pc}
 950              	.LVL58:
 951              	.L55:
 952              		.cfi_restore_state
 953              	.LBB387:
 954              	.LBB383:
 955              		.loc 1 371 0
 956 00de 2046     		mov	r0, r4
 957 00e0 4946     		mov	r1, r9
 958 00e2 FFF7FEFF 		bl	ibqGetFullBufferTimeoutS
 959              	.LVL59:
 960              		.loc 1 387 0
 961 00e6 0028     		cmp	r0, #0
 962 00e8 E0D0     		beq	.L58
 963              	.L44:
 964              	.LVL60:
 965              	.LBB352:
 966              	.LBB353:
 967              	.LBB354:
 968              	.LBB355:
 969              	.LBB356:
ARM GAS  /var/folders/m4/4md61f0s1_g0rzfghffqnxvr0000gn/T//ccifRFr6.s 			page 18


 970              	.LBB357:
 971              		.loc 4 548 0
 972 00ea 0023     		movs	r3, #0
 973              	@ 548 "ChibiOS_16.1.4/os/ext/CMSIS/include/core_cmFunc.h" 1
 974 00ec 83F31188 		MSR basepri, r3
 975              	@ 0 "" 2
 976              		.thumb
 977              	.LBE357:
 978              	.LBE356:
 979              	.LBE355:
 980              	.LBE354:
 981              	.LBE353:
 982              	.LBE352:
 983              	.LBE383:
 984              	.LBE387:
 985              		.loc 1 427 0
 986 00f0 2846     		mov	r0, r5
 987              	.LVL61:
 988 00f2 03B0     		add	sp, sp, #12
 989              		.cfi_remember_state
 990              		.cfi_def_cfa_offset 36
 991              		@ sp needed
 992 00f4 BDE8F08F 		pop	{r4, r5, r6, r7, r8, r9, r10, fp, pc}
 993              	.LVL62:
 994              	.L56:
 995              		.cfi_restore_state
 996              	.LBB388:
 997              	.LBB384:
 998              	.LBB358:
 999              	.LBB346:
 1000              	.LBB347:
 1001              	.LBB348:
 1002              	.LBB349:
 1003              	.LBB350:
 1004              	.LBB351:
 1005              		.loc 4 548 0
 1006              	@ 548 "ChibiOS_16.1.4/os/ext/CMSIS/include/core_cmFunc.h" 1
 1007 00f8 81F31188 		MSR basepri, r1
 1008              	@ 0 "" 2
 1009              		.thumb
 1010              	.LBE351:
 1011              	.LBE350:
 1012              	.LBE349:
 1013              	.LBE348:
 1014              	.LBE347:
 1015              	.LBE346:
 1016              		.loc 1 381 0
 1017 00fc EBE7     		b	.L43
 1018              	.L60:
 1019 00fe 00BF     		.align	2
 1020              	.L59:
 1021 0100 00000000 		.word	ch
 1022              	.LBE358:
 1023              	.LBE384:
 1024              	.LBE388:
 1025              		.cfi_endproc
 1026              	.LFE277:
ARM GAS  /var/folders/m4/4md61f0s1_g0rzfghffqnxvr0000gn/T//ccifRFr6.s 			page 19


 1027              		.size	ibqReadTimeout, .-ibqReadTimeout
 1028              		.section	.text.obqObjectInit,"ax",%progbits
 1029              		.align	2
 1030              		.p2align 4,,15
 1031              		.global	obqObjectInit
 1032              		.thumb
 1033              		.thumb_func
 1034              		.type	obqObjectInit, %function
 1035              	obqObjectInit:
 1036              	.LFB278:
 1037              		.loc 1 443 0
 1038              		.cfi_startproc
 1039              		@ args = 8, pretend = 0, frame = 0
 1040              		@ frame_needed = 0, uses_anonymous_args = 0
 1041              		@ link register save eliminated.
 1042              	.LVL63:
 1043 0000 F0B4     		push	{r4, r5, r6, r7}
 1044              		.cfi_def_cfa_offset 16
 1045              		.cfi_offset 4, -16
 1046              		.cfi_offset 5, -12
 1047              		.cfi_offset 6, -8
 1048              		.cfi_offset 7, -4
 1049              		.loc 1 451 0
 1050 0002 0432     		adds	r2, r2, #4
 1051              	.LVL64:
 1052              		.loc 1 455 0
 1053 0004 0024     		movs	r4, #0
 1054              		.loc 1 451 0
 1055 0006 02FB0317 		mla	r7, r2, r3, r1
 1056              		.loc 1 443 0
 1057 000a 049E     		ldr	r6, [sp, #16]
 1058 000c 059D     		ldr	r5, [sp, #20]
 1059              		.loc 1 451 0
 1060 000e 4761     		str	r7, [r0, #20]
 1061              		.loc 1 457 0
 1062 0010 C662     		str	r6, [r0, #44]
 1063              		.loc 1 458 0
 1064 0012 0563     		str	r5, [r0, #48]
 1065              		.loc 1 455 0
 1066 0014 4462     		str	r4, [r0, #36]
 1067              		.loc 1 456 0
 1068 0016 8462     		str	r4, [r0, #40]
 1069              	.LBB389:
 1070              	.LBB390:
 1071              	.LBB391:
 1072              	.LBB392:
 1073              		.loc 2 604 0
 1074 0018 0060     		str	r0, [r0]
 1075              		.loc 2 605 0
 1076 001a 4060     		str	r0, [r0, #4]
 1077              	.LBE392:
 1078              	.LBE391:
 1079              	.LBE390:
 1080              	.LBE389:
 1081              		.loc 1 448 0
 1082 001c 8360     		str	r3, [r0, #8]
 1083              		.loc 1 449 0
ARM GAS  /var/folders/m4/4md61f0s1_g0rzfghffqnxvr0000gn/T//ccifRFr6.s 			page 20


 1084 001e 0161     		str	r1, [r0, #16]
 1085              		.loc 1 450 0
 1086 0020 C160     		str	r1, [r0, #12]
 1087              		.loc 1 452 0
 1088 0022 8261     		str	r2, [r0, #24]
 1089              		.loc 1 453 0
 1090 0024 C361     		str	r3, [r0, #28]
 1091              		.loc 1 454 0
 1092 0026 0162     		str	r1, [r0, #32]
 1093              		.loc 1 459 0
 1094 0028 F0BC     		pop	{r4, r5, r6, r7}
 1095              		.cfi_restore 7
 1096              		.cfi_restore 6
 1097              		.cfi_restore 5
 1098              		.cfi_restore 4
 1099              		.cfi_def_cfa_offset 0
 1100              	.LVL65:
 1101 002a 7047     		bx	lr
 1102              		.cfi_endproc
 1103              	.LFE278:
 1104              		.size	obqObjectInit, .-obqObjectInit
 1105              		.section	.text.obqResetI,"ax",%progbits
 1106              		.align	2
 1107              		.p2align 4,,15
 1108              		.global	obqResetI
 1109              		.thumb
 1110              		.thumb_func
 1111              		.type	obqResetI, %function
 1112              	obqResetI:
 1113              	.LFB279:
 1114              		.loc 1 472 0
 1115              		.cfi_startproc
 1116              		@ args = 0, pretend = 0, frame = 0
 1117              		@ frame_needed = 0, uses_anonymous_args = 0
 1118              		@ link register save eliminated.
 1119              	.LVL66:
 1120              		.loc 1 477 0
 1121 0000 016A     		ldr	r1, [r0, #32]
 1122 0002 0161     		str	r1, [r0, #16]
 1123              		.loc 1 472 0
 1124 0004 10B4     		push	{r4}
 1125              		.cfi_def_cfa_offset 4
 1126              		.cfi_offset 4, -4
 1127              		.loc 1 479 0
 1128 0006 0022     		movs	r2, #0
 1129              		.loc 1 476 0
 1130 0008 C469     		ldr	r4, [r0, #28]
 1131 000a 8460     		str	r4, [r0, #8]
 1132              		.loc 1 478 0
 1133 000c C160     		str	r1, [r0, #12]
 1134              		.loc 1 479 0
 1135 000e 4262     		str	r2, [r0, #36]
 1136              		.loc 1 480 0
 1137 0010 8262     		str	r2, [r0, #40]
 1138              	.LVL67:
 1139              	.LBB393:
 1140              	.LBB394:
ARM GAS  /var/folders/m4/4md61f0s1_g0rzfghffqnxvr0000gn/T//ccifRFr6.s 			page 21


 1141              		.loc 3 810 0
 1142 0012 6FF00101 		mvn	r1, #1
 1143              	.LBE394:
 1144              	.LBE393:
 1145              		.loc 1 482 0
 1146 0016 5DF8044B 		ldr	r4, [sp], #4
 1147              		.cfi_restore 4
 1148              		.cfi_def_cfa_offset 0
 1149              	.LBB396:
 1150              	.LBB395:
 1151              		.loc 3 810 0
 1152 001a FFF7FEBF 		b	chThdDequeueAllI
 1153              	.LVL68:
 1154              	.LBE395:
 1155              	.LBE396:
 1156              		.cfi_endproc
 1157              	.LFE279:
 1158              		.size	obqResetI, .-obqResetI
 1159 001e 00BF     		.section	.text.obqGetFullBufferI,"ax",%progbits
 1160              		.align	2
 1161              		.p2align 4,,15
 1162              		.global	obqGetFullBufferI
 1163              		.thumb
 1164              		.thumb_func
 1165              		.type	obqGetFullBufferI, %function
 1166              	obqGetFullBufferI:
 1167              	.LFB280:
 1168              		.loc 1 496 0
 1169              		.cfi_startproc
 1170              		@ args = 0, pretend = 0, frame = 0
 1171              		@ frame_needed = 0, uses_anonymous_args = 0
 1172              		@ link register save eliminated.
 1173              	.LVL69:
 1174              		.loc 1 500 0
 1175 0000 0369     		ldr	r3, [r0, #16]
 1176 0002 C268     		ldr	r2, [r0, #12]
 1177 0004 9A42     		cmp	r2, r3
 1178 0006 04D0     		beq	.L72
 1179              	.L66:
 1180              		.loc 1 505 0
 1181 0008 1846     		mov	r0, r3
 1182              	.LVL70:
 1183 000a 50F8043B 		ldr	r3, [r0], #4
 1184 000e 0B60     		str	r3, [r1]
 1185              		.loc 1 508 0
 1186 0010 7047     		bx	lr
 1187              	.LVL71:
 1188              	.L72:
 1189              		.loc 1 500 0 discriminator 1
 1190 0012 8268     		ldr	r2, [r0, #8]
 1191 0014 002A     		cmp	r2, #0
 1192 0016 F7D0     		beq	.L66
 1193              		.loc 1 501 0
 1194 0018 0020     		movs	r0, #0
 1195              	.LVL72:
 1196 001a 7047     		bx	lr
 1197              		.cfi_endproc
ARM GAS  /var/folders/m4/4md61f0s1_g0rzfghffqnxvr0000gn/T//ccifRFr6.s 			page 22


 1198              	.LFE280:
 1199              		.size	obqGetFullBufferI, .-obqGetFullBufferI
 1200              		.section	.text.obqReleaseEmptyBufferI,"ax",%progbits
 1201              		.align	2
 1202              		.p2align 4,,15
 1203              		.global	obqReleaseEmptyBufferI
 1204              		.thumb
 1205              		.thumb_func
 1206              		.type	obqReleaseEmptyBufferI, %function
 1207              	obqReleaseEmptyBufferI:
 1208              	.LFB281:
 1209              		.loc 1 517 0
 1210              		.cfi_startproc
 1211              		@ args = 0, pretend = 0, frame = 0
 1212              		@ frame_needed = 0, uses_anonymous_args = 0
 1213              		@ link register save eliminated.
 1214              	.LVL73:
 1215 0000 10B4     		push	{r4}
 1216              		.cfi_def_cfa_offset 4
 1217              		.cfi_offset 4, -4
 1218              		.loc 1 524 0
 1219 0002 8369     		ldr	r3, [r0, #24]
 1220 0004 0469     		ldr	r4, [r0, #16]
 1221              		.loc 1 525 0
 1222 0006 4169     		ldr	r1, [r0, #20]
 1223              		.loc 1 523 0
 1224 0008 8268     		ldr	r2, [r0, #8]
 1225              		.loc 1 524 0
 1226 000a 2344     		add	r3, r3, r4
 1227              		.loc 1 525 0
 1228 000c 8B42     		cmp	r3, r1
 1229              		.loc 1 524 0
 1230 000e 0361     		str	r3, [r0, #16]
 1231              		.loc 1 523 0
 1232 0010 02F10102 		add	r2, r2, #1
 1233              		.loc 1 526 0
 1234 0014 28BF     		it	cs
 1235 0016 036A     		ldrcs	r3, [r0, #32]
 1236              		.loc 1 523 0
 1237 0018 8260     		str	r2, [r0, #8]
 1238              		.loc 1 526 0
 1239 001a 28BF     		it	cs
 1240 001c 0361     		strcs	r3, [r0, #16]
 1241              	.LVL74:
 1242              	.LBB397:
 1243              	.LBB398:
 1244              		.loc 3 797 0
 1245 001e 0021     		movs	r1, #0
 1246              	.LBE398:
 1247              	.LBE397:
 1248              		.loc 1 531 0
 1249 0020 5DF8044B 		ldr	r4, [sp], #4
 1250              		.cfi_restore 4
 1251              		.cfi_def_cfa_offset 0
 1252              	.LBB400:
 1253              	.LBB399:
 1254              		.loc 3 797 0
ARM GAS  /var/folders/m4/4md61f0s1_g0rzfghffqnxvr0000gn/T//ccifRFr6.s 			page 23


 1255 0024 FFF7FEBF 		b	chThdDequeueNextI
 1256              	.LVL75:
 1257              	.LBE399:
 1258              	.LBE400:
 1259              		.cfi_endproc
 1260              	.LFE281:
 1261              		.size	obqReleaseEmptyBufferI, .-obqReleaseEmptyBufferI
 1262              		.section	.text.obqGetEmptyBufferTimeoutS,"ax",%progbits
 1263              		.align	2
 1264              		.p2align 4,,15
 1265              		.global	obqGetEmptyBufferTimeoutS
 1266              		.thumb
 1267              		.thumb_func
 1268              		.type	obqGetEmptyBufferTimeoutS, %function
 1269              	obqGetEmptyBufferTimeoutS:
 1270              	.LFB283:
 1271              		.loc 1 585 0
 1272              		.cfi_startproc
 1273              		@ args = 0, pretend = 0, frame = 0
 1274              		@ frame_needed = 0, uses_anonymous_args = 0
 1275              	.LVL76:
 1276 0000 38B5     		push	{r3, r4, r5, lr}
 1277              		.cfi_def_cfa_offset 16
 1278              		.cfi_offset 3, -16
 1279              		.cfi_offset 4, -12
 1280              		.cfi_offset 5, -8
 1281              		.cfi_offset 14, -4
 1282              		.loc 1 585 0
 1283 0002 0446     		mov	r4, r0
 1284 0004 0D46     		mov	r5, r1
 1285              		.loc 1 589 0
 1286 0006 03E0     		b	.L77
 1287              	.LVL77:
 1288              	.L79:
 1289              	.LBB409:
 1290              	.LBB410:
 1291              	.LBB411:
 1292              		.loc 3 784 0
 1293 0008 FFF7FEFF 		bl	chThdEnqueueTimeoutS
 1294              	.LVL78:
 1295              	.LBE411:
 1296              	.LBE410:
 1297              		.loc 1 591 0
 1298 000c 0028     		cmp	r0, #0
 1299 000e 0BDB     		blt	.L78
 1300              	.LVL79:
 1301              	.L77:
 1302              	.LBE409:
 1303              		.loc 1 589 0
 1304 0010 A368     		ldr	r3, [r4, #8]
 1305              	.LBB414:
 1306              	.LBB413:
 1307              	.LBB412:
 1308              		.loc 3 784 0
 1309 0012 2046     		mov	r0, r4
 1310 0014 2946     		mov	r1, r5
 1311              	.LBE412:
ARM GAS  /var/folders/m4/4md61f0s1_g0rzfghffqnxvr0000gn/T//ccifRFr6.s 			page 24


 1312              	.LBE413:
 1313              	.LBE414:
 1314              		.loc 1 589 0
 1315 0016 002B     		cmp	r3, #0
 1316 0018 F6D0     		beq	.L79
 1317              	.LVL80:
 1318              	.LBB415:
 1319              	.LBB416:
 1320              		.loc 1 599 0
 1321 001a E268     		ldr	r2, [r4, #12]
 1322              		.loc 1 600 0
 1323 001c A369     		ldr	r3, [r4, #24]
 1324              		.loc 1 599 0
 1325 001e 111D     		adds	r1, r2, #4
 1326              	.LVL81:
 1327              		.loc 1 600 0
 1328 0020 1344     		add	r3, r3, r2
 1329              		.loc 1 599 0
 1330 0022 6162     		str	r1, [r4, #36]
 1331              		.loc 1 600 0
 1332 0024 A362     		str	r3, [r4, #40]
 1333 0026 0020     		movs	r0, #0
 1334              	.LVL82:
 1335              	.L78:
 1336              	.LBE416:
 1337              	.LBE415:
 1338              		.loc 1 603 0
 1339 0028 38BD     		pop	{r3, r4, r5, pc}
 1340              		.cfi_endproc
 1341              	.LFE283:
 1342              		.size	obqGetEmptyBufferTimeoutS, .-obqGetEmptyBufferTimeoutS
 1343 002a 00BF     		.section	.text.obqGetEmptyBufferTimeout,"ax",%progbits
 1344              		.align	2
 1345              		.p2align 4,,15
 1346              		.global	obqGetEmptyBufferTimeout
 1347              		.thumb
 1348              		.thumb_func
 1349              		.type	obqGetEmptyBufferTimeout, %function
 1350              	obqGetEmptyBufferTimeout:
 1351              	.LFB282:
 1352              		.loc 1 554 0
 1353              		.cfi_startproc
 1354              		@ args = 0, pretend = 0, frame = 0
 1355              		@ frame_needed = 0, uses_anonymous_args = 0
 1356              	.LVL83:
 1357 0000 08B5     		push	{r3, lr}
 1358              		.cfi_def_cfa_offset 8
 1359              		.cfi_offset 3, -8
 1360              		.cfi_offset 14, -4
 1361              	.LBB417:
 1362              	.LBB418:
 1363              	.LBB419:
 1364              	.LBB420:
 1365              	.LBB421:
 1366              		.loc 4 548 0
 1367 0002 2023     		movs	r3, #32
 1368              	@ 548 "ChibiOS_16.1.4/os/ext/CMSIS/include/core_cmFunc.h" 1
ARM GAS  /var/folders/m4/4md61f0s1_g0rzfghffqnxvr0000gn/T//ccifRFr6.s 			page 25


 1369 0004 83F31188 		MSR basepri, r3
 1370              	@ 0 "" 2
 1371              		.thumb
 1372              	.LBE421:
 1373              	.LBE420:
 1374              	.LBE419:
 1375              	.LBE418:
 1376              	.LBE417:
 1377              		.loc 1 558 0
 1378 0008 FFF7FEFF 		bl	obqGetEmptyBufferTimeoutS
 1379              	.LVL84:
 1380              	.LBB422:
 1381              	.LBB423:
 1382              	.LBB424:
 1383              	.LBB425:
 1384              	.LBB426:
 1385              	.LBB427:
 1386              		.loc 4 548 0
 1387 000c 0023     		movs	r3, #0
 1388              	@ 548 "ChibiOS_16.1.4/os/ext/CMSIS/include/core_cmFunc.h" 1
 1389 000e 83F31188 		MSR basepri, r3
 1390              	@ 0 "" 2
 1391              		.thumb
 1392              	.LBE427:
 1393              	.LBE426:
 1394              	.LBE425:
 1395              	.LBE424:
 1396              	.LBE423:
 1397              	.LBE422:
 1398              		.loc 1 562 0
 1399 0012 08BD     		pop	{r3, pc}
 1400              		.cfi_endproc
 1401              	.LFE282:
 1402              		.size	obqGetEmptyBufferTimeout, .-obqGetEmptyBufferTimeout
 1403              		.section	.text.obqPostFullBufferS,"ax",%progbits
 1404              		.align	2
 1405              		.p2align 4,,15
 1406              		.global	obqPostFullBufferS
 1407              		.thumb
 1408              		.thumb_func
 1409              		.type	obqPostFullBufferS, %function
 1410              	obqPostFullBufferS:
 1411              	.LFB285:
 1412              		.loc 1 630 0
 1413              		.cfi_startproc
 1414              		@ args = 0, pretend = 0, frame = 0
 1415              		@ frame_needed = 0, uses_anonymous_args = 0
 1416              		@ link register save eliminated.
 1417              	.LVL85:
 1418 0000 30B4     		push	{r4, r5}
 1419              		.cfi_def_cfa_offset 8
 1420              		.cfi_offset 4, -8
 1421              		.cfi_offset 5, -4
 1422              		.loc 1 637 0
 1423 0002 C468     		ldr	r4, [r0, #12]
 1424              		.loc 1 642 0
 1425 0004 4569     		ldr	r5, [r0, #20]
ARM GAS  /var/folders/m4/4md61f0s1_g0rzfghffqnxvr0000gn/T//ccifRFr6.s 			page 26


 1426              		.loc 1 637 0
 1427 0006 2160     		str	r1, [r4]
 1428              		.loc 1 641 0
 1429 0008 8369     		ldr	r3, [r0, #24]
 1430              		.loc 1 640 0
 1431 000a 8268     		ldr	r2, [r0, #8]
 1432              		.loc 1 641 0
 1433 000c 2344     		add	r3, r3, r4
 1434              		.loc 1 642 0
 1435 000e AB42     		cmp	r3, r5
 1436              		.loc 1 641 0
 1437 0010 C360     		str	r3, [r0, #12]
 1438              		.loc 1 643 0
 1439 0012 24BF     		itt	cs
 1440 0014 036A     		ldrcs	r3, [r0, #32]
 1441 0016 C360     		strcs	r3, [r0, #12]
 1442              		.loc 1 640 0
 1443 0018 013A     		subs	r2, r2, #1
 1444              		.loc 1 650 0
 1445 001a C36A     		ldr	r3, [r0, #44]
 1446              		.loc 1 640 0
 1447 001c 8260     		str	r2, [r0, #8]
 1448              		.loc 1 647 0
 1449 001e 0022     		movs	r2, #0
 1450 0020 4262     		str	r2, [r0, #36]
 1451              		.loc 1 650 0
 1452 0022 0BB1     		cbz	r3, .L84
 1453              		.loc 1 653 0
 1454 0024 30BC     		pop	{r4, r5}
 1455              		.cfi_remember_state
 1456              		.cfi_restore 5
 1457              		.cfi_restore 4
 1458              		.cfi_def_cfa_offset 0
 1459              		.loc 1 651 0
 1460 0026 1847     		bx	r3	@ indirect register sibling call
 1461              	.LVL86:
 1462              	.L84:
 1463              		.cfi_restore_state
 1464              		.loc 1 653 0
 1465 0028 30BC     		pop	{r4, r5}
 1466              		.cfi_restore 5
 1467              		.cfi_restore 4
 1468              		.cfi_def_cfa_offset 0
 1469 002a 7047     		bx	lr
 1470              		.cfi_endproc
 1471              	.LFE285:
 1472              		.size	obqPostFullBufferS, .-obqPostFullBufferS
 1473              		.section	.text.obqPostFullBuffer,"ax",%progbits
 1474              		.align	2
 1475              		.p2align 4,,15
 1476              		.global	obqPostFullBuffer
 1477              		.thumb
 1478              		.thumb_func
 1479              		.type	obqPostFullBuffer, %function
 1480              	obqPostFullBuffer:
 1481              	.LFB284:
 1482              		.loc 1 614 0
ARM GAS  /var/folders/m4/4md61f0s1_g0rzfghffqnxvr0000gn/T//ccifRFr6.s 			page 27


 1483              		.cfi_startproc
 1484              		@ args = 0, pretend = 0, frame = 0
 1485              		@ frame_needed = 0, uses_anonymous_args = 0
 1486              	.LVL87:
 1487 0000 08B5     		push	{r3, lr}
 1488              		.cfi_def_cfa_offset 8
 1489              		.cfi_offset 3, -8
 1490              		.cfi_offset 14, -4
 1491              	.LBB428:
 1492              	.LBB429:
 1493              	.LBB430:
 1494              	.LBB431:
 1495              	.LBB432:
 1496              		.loc 4 548 0
 1497 0002 2023     		movs	r3, #32
 1498              	@ 548 "ChibiOS_16.1.4/os/ext/CMSIS/include/core_cmFunc.h" 1
 1499 0004 83F31188 		MSR basepri, r3
 1500              	@ 0 "" 2
 1501              		.thumb
 1502              	.LBE432:
 1503              	.LBE431:
 1504              	.LBE430:
 1505              	.LBE429:
 1506              	.LBE428:
 1507              		.loc 1 617 0
 1508 0008 FFF7FEFF 		bl	obqPostFullBufferS
 1509              	.LVL88:
 1510              	.LBB433:
 1511              	.LBB434:
 1512              	.LBB435:
 1513              	.LBB436:
 1514              	.LBB437:
 1515              	.LBB438:
 1516              		.loc 4 548 0
 1517 000c 0023     		movs	r3, #0
 1518              	@ 548 "ChibiOS_16.1.4/os/ext/CMSIS/include/core_cmFunc.h" 1
 1519 000e 83F31188 		MSR basepri, r3
 1520              	@ 0 "" 2
 1521              		.thumb
 1522 0012 08BD     		pop	{r3, pc}
 1523              	.LBE438:
 1524              	.LBE437:
 1525              	.LBE436:
 1526              	.LBE435:
 1527              	.LBE434:
 1528              	.LBE433:
 1529              		.cfi_endproc
 1530              	.LFE284:
 1531              		.size	obqPostFullBuffer, .-obqPostFullBuffer
 1532              		.section	.text.obqPutTimeout,"ax",%progbits
 1533              		.align	2
 1534              		.p2align 4,,15
 1535              		.global	obqPutTimeout
 1536              		.thumb
 1537              		.thumb_func
 1538              		.type	obqPutTimeout, %function
 1539              	obqPutTimeout:
ARM GAS  /var/folders/m4/4md61f0s1_g0rzfghffqnxvr0000gn/T//ccifRFr6.s 			page 28


 1540              	.LFB286:
 1541              		.loc 1 675 0
 1542              		.cfi_startproc
 1543              		@ args = 0, pretend = 0, frame = 0
 1544              		@ frame_needed = 0, uses_anonymous_args = 0
 1545              	.LVL89:
 1546 0000 70B5     		push	{r4, r5, r6, lr}
 1547              		.cfi_def_cfa_offset 16
 1548              		.cfi_offset 4, -16
 1549              		.cfi_offset 5, -12
 1550              		.cfi_offset 6, -8
 1551              		.cfi_offset 14, -4
 1552              	.LBB439:
 1553              	.LBB440:
 1554              	.LBB441:
 1555              	.LBB442:
 1556              	.LBB443:
 1557              		.loc 4 548 0
 1558 0002 2023     		movs	r3, #32
 1559              	.LBE443:
 1560              	.LBE442:
 1561              	.LBE441:
 1562              	.LBE440:
 1563              	.LBE439:
 1564              		.loc 1 675 0
 1565 0004 0E46     		mov	r6, r1
 1566 0006 0446     		mov	r4, r0
 1567              	.LBB448:
 1568              	.LBB447:
 1569              	.LBB446:
 1570              	.LBB445:
 1571              	.LBB444:
 1572              		.loc 4 548 0
 1573              	@ 548 "ChibiOS_16.1.4/os/ext/CMSIS/include/core_cmFunc.h" 1
 1574 0008 83F31188 		MSR basepri, r3
 1575              	@ 0 "" 2
 1576              		.thumb
 1577              	.LBE444:
 1578              	.LBE445:
 1579              	.LBE446:
 1580              	.LBE447:
 1581              	.LBE448:
 1582              		.loc 1 681 0
 1583 000c 456A     		ldr	r5, [r0, #36]
 1584 000e 9DB1     		cbz	r5, .L96
 1585              	.LVL90:
 1586              	.L91:
 1587              		.loc 1 690 0
 1588 0010 2E70     		strb	r6, [r5]
 1589              		.loc 1 691 0
 1590 0012 636A     		ldr	r3, [r4, #36]
 1591              		.loc 1 695 0
 1592 0014 A26A     		ldr	r2, [r4, #40]
 1593              		.loc 1 691 0
 1594 0016 0133     		adds	r3, r3, #1
 1595              		.loc 1 695 0
 1596 0018 9342     		cmp	r3, r2
ARM GAS  /var/folders/m4/4md61f0s1_g0rzfghffqnxvr0000gn/T//ccifRFr6.s 			page 29


 1597              		.loc 1 691 0
 1598 001a 6362     		str	r3, [r4, #36]
 1599              		.loc 1 695 0
 1600 001c 03D2     		bcs	.L97
 1601              	.LVL91:
 1602              	.LBB449:
 1603              	.LBB450:
 1604              	.LBB451:
 1605              	.LBB452:
 1606              	.LBB453:
 1607              	.LBB454:
 1608              		.loc 4 548 0
 1609 001e 0020     		movs	r0, #0
 1610              	@ 548 "ChibiOS_16.1.4/os/ext/CMSIS/include/core_cmFunc.h" 1
 1611 0020 80F31188 		MSR basepri, r0
 1612              	@ 0 "" 2
 1613              		.thumb
 1614              	.LBE454:
 1615              	.LBE453:
 1616              	.LBE452:
 1617              	.LBE451:
 1618              	.LBE450:
 1619              	.LBE449:
 1620              		.loc 1 701 0
 1621 0024 70BD     		pop	{r4, r5, r6, pc}
 1622              	.LVL92:
 1623              	.L97:
 1624              		.loc 1 696 0
 1625 0026 A169     		ldr	r1, [r4, #24]
 1626 0028 2046     		mov	r0, r4
 1627 002a 0439     		subs	r1, r1, #4
 1628 002c FFF7FEFF 		bl	obqPostFullBufferS
 1629              	.LVL93:
 1630              	.LBB460:
 1631              	.LBB459:
 1632              	.LBB458:
 1633              	.LBB457:
 1634              	.LBB456:
 1635              	.LBB455:
 1636              		.loc 4 548 0
 1637 0030 0020     		movs	r0, #0
 1638              	@ 548 "ChibiOS_16.1.4/os/ext/CMSIS/include/core_cmFunc.h" 1
 1639 0032 80F31188 		MSR basepri, r0
 1640              	@ 0 "" 2
 1641              		.thumb
 1642              	.LBE455:
 1643              	.LBE456:
 1644              	.LBE457:
 1645              	.LBE458:
 1646              	.LBE459:
 1647              	.LBE460:
 1648              		.loc 1 701 0
 1649 0036 70BD     		pop	{r4, r5, r6, pc}
 1650              	.LVL94:
 1651              	.L96:
 1652              		.loc 1 682 0
 1653 0038 1146     		mov	r1, r2
ARM GAS  /var/folders/m4/4md61f0s1_g0rzfghffqnxvr0000gn/T//ccifRFr6.s 			page 30


 1654              	.LVL95:
 1655 003a FFF7FEFF 		bl	obqGetEmptyBufferTimeoutS
 1656              	.LVL96:
 1657              		.loc 1 683 0
 1658 003e 08B9     		cbnz	r0, .L92
 1659 0040 656A     		ldr	r5, [r4, #36]
 1660 0042 E5E7     		b	.L91
 1661              	.L92:
 1662              	.LVL97:
 1663              	.LBB461:
 1664              	.LBB462:
 1665              	.LBB463:
 1666              	.LBB464:
 1667              	.LBB465:
 1668              	.LBB466:
 1669              		.loc 4 548 0
 1670              	@ 548 "ChibiOS_16.1.4/os/ext/CMSIS/include/core_cmFunc.h" 1
 1671 0044 85F31188 		MSR basepri, r5
 1672              	@ 0 "" 2
 1673              		.thumb
 1674              	.LBE466:
 1675              	.LBE465:
 1676              	.LBE464:
 1677              	.LBE463:
 1678              	.LBE462:
 1679              	.LBE461:
 1680              		.loc 1 685 0
 1681 0048 70BD     		pop	{r4, r5, r6, pc}
 1682              		.cfi_endproc
 1683              	.LFE286:
 1684              		.size	obqPutTimeout, .-obqPutTimeout
 1685 004a 00BF     		.section	.text.obqWriteTimeout,"ax",%progbits
 1686              		.align	2
 1687              		.p2align 4,,15
 1688              		.global	obqWriteTimeout
 1689              		.thumb
 1690              		.thumb_func
 1691              		.type	obqWriteTimeout, %function
 1692              	obqWriteTimeout:
 1693              	.LFB287:
 1694              		.loc 1 725 0
 1695              		.cfi_startproc
 1696              		@ args = 0, pretend = 0, frame = 8
 1697              		@ frame_needed = 0, uses_anonymous_args = 0
 1698              	.LVL98:
 1699 0000 2DE9F04F 		push	{r4, r5, r6, r7, r8, r9, r10, fp, lr}
 1700              		.cfi_def_cfa_offset 36
 1701              		.cfi_offset 4, -36
 1702              		.cfi_offset 5, -32
 1703              		.cfi_offset 6, -28
 1704              		.cfi_offset 7, -24
 1705              		.cfi_offset 8, -20
 1706              		.cfi_offset 9, -16
 1707              		.cfi_offset 10, -12
 1708              		.cfi_offset 11, -8
 1709              		.cfi_offset 14, -4
 1710 0004 0446     		mov	r4, r0
ARM GAS  /var/folders/m4/4md61f0s1_g0rzfghffqnxvr0000gn/T//ccifRFr6.s 			page 31


 1711 0006 83B0     		sub	sp, sp, #12
 1712              		.cfi_def_cfa_offset 48
 1713              		.loc 1 725 0
 1714 0008 9246     		mov	r10, r2
 1715 000a 9846     		mov	r8, r3
 1716              	.LBB467:
 1717              	.LBB468:
 1718              	.LBB469:
 1719              	.LBB470:
 1720              	.LBB471:
 1721              		.loc 4 548 0
 1722 000c 2026     		movs	r6, #32
 1723              	@ 548 "ChibiOS_16.1.4/os/ext/CMSIS/include/core_cmFunc.h" 1
 1724 000e 86F31188 		MSR basepri, r6
 1725              	@ 0 "" 2
 1726              		.thumb
 1727              	.LBE471:
 1728              	.LBE470:
 1729              	.LBE469:
 1730              	.LBE468:
 1731              	.LBE467:
 1732              	.LBB472:
 1733              	.LBB473:
 1734              	.LBB474:
 1735              		.loc 5 231 0
 1736 0012 3A4B     		ldr	r3, .L119
 1737              	.LVL99:
 1738              	.LBE474:
 1739              	.LBE473:
 1740              	.LBE472:
 1741              	.LBB477:
 1742              		.loc 1 738 0
 1743 0014 606A     		ldr	r0, [r4, #36]
 1744              	.LVL100:
 1745              	.LBE477:
 1746              	.LBB522:
 1747              	.LBB476:
 1748              	.LBB475:
 1749              		.loc 5 231 0
 1750 0016 9B6A     		ldr	r3, [r3, #40]
 1751              	.LBE475:
 1752              	.LBE476:
 1753              	.LBE522:
 1754              		.loc 1 732 0
 1755 0018 4344     		add	r3, r8, r3
 1756              		.loc 1 726 0
 1757 001a 0025     		movs	r5, #0
 1758              		.loc 1 732 0
 1759 001c 0193     		str	r3, [sp, #4]
 1760              	.LVL101:
 1761              	.LBB523:
 1762              	.LBB478:
 1763              		.loc 1 743 0
 1764 001e 08F1FF33 		add	r3, r8, #-1
 1765              	.LVL102:
 1766 0022 0093     		str	r3, [sp]
 1767              	.LBE478:
ARM GAS  /var/folders/m4/4md61f0s1_g0rzfghffqnxvr0000gn/T//ccifRFr6.s 			page 32


 1768              	.LBB496:
 1769              	.LBB497:
 1770              	.LBB498:
 1771              	.LBB499:
 1772              	.LBB500:
 1773              	.LBB501:
 1774              		.loc 4 548 0
 1775 0024 2F46     		mov	r7, r5
 1776 0026 8946     		mov	r9, r1
 1777              	.LBE501:
 1778              	.LBE500:
 1779              	.LBE499:
 1780              	.LBE498:
 1781              	.LBE497:
 1782              	.LBE496:
 1783              		.loc 1 738 0
 1784 0028 88B3     		cbz	r0, .L113
 1785              	.LVL103:
 1786              	.L99:
 1787              		.loc 1 767 0
 1788 002a A26A     		ldr	r2, [r4, #40]
 1789              		.loc 1 768 0
 1790 002c C5EB0A0B 		rsb	fp, r5, r10
 1791              		.loc 1 767 0
 1792 0030 121A     		subs	r2, r2, r0
 1793              	.LVL104:
 1794 0032 9345     		cmp	fp, r2
 1795 0034 28BF     		it	cs
 1796 0036 9346     		movcs	fp, r2
 1797              	.LVL105:
 1798              		.loc 1 774 0
 1799 0038 BBF1400F 		cmp	fp, #64
 1800              		.loc 1 776 0
 1801 003c 4946     		mov	r1, r9
 1802              		.loc 1 774 0
 1803 003e 35D9     		bls	.L105
 1804              	.LVL106:
 1805              		.loc 1 776 0
 1806 0040 09F14003 		add	r3, r9, #64
 1807              	.LVL107:
 1808              	.L106:
 1809 0044 D1F800C0 		ldr	ip, [r1]	@ unaligned
 1810 0048 D1F804E0 		ldr	lr, [r1, #4]	@ unaligned
 1811 004c 8A68     		ldr	r2, [r1, #8]	@ unaligned
 1812 004e D1F80C90 		ldr	r9, [r1, #12]	@ unaligned
 1813 0052 C0F80C90 		str	r9, [r0, #12]	@ unaligned
 1814 0056 1031     		adds	r1, r1, #16
 1815 0058 9942     		cmp	r1, r3
 1816 005a C0F800C0 		str	ip, [r0]	@ unaligned
 1817 005e C0F804E0 		str	lr, [r0, #4]	@ unaligned
 1818 0062 8260     		str	r2, [r0, #8]	@ unaligned
 1819 0064 00F11000 		add	r0, r0, #16
 1820 0068 ECD1     		bne	.L106
 1821              		.loc 1 778 0
 1822 006a 626A     		ldr	r2, [r4, #36]
 1823              		.loc 1 777 0
 1824 006c 8946     		mov	r9, r1
ARM GAS  /var/folders/m4/4md61f0s1_g0rzfghffqnxvr0000gn/T//ccifRFr6.s 			page 33


 1825              	.LVL108:
 1826              		.loc 1 789 0
 1827 006e A16A     		ldr	r1, [r4, #40]
 1828              		.loc 1 778 0
 1829 0070 4032     		adds	r2, r2, #64
 1830              		.loc 1 789 0
 1831 0072 9142     		cmp	r1, r2
 1832              		.loc 1 779 0
 1833 0074 05F14005 		add	r5, r5, #64
 1834              	.LVL109:
 1835              		.loc 1 778 0
 1836 0078 6262     		str	r2, [r4, #36]
 1837              	.LVL110:
 1838              		.loc 1 789 0
 1839 007a 22D9     		bls	.L114
 1840              	.L108:
 1841              	.LVL111:
 1842              	.LBB512:
 1843              	.LBB510:
 1844              	.LBB508:
 1845              	.LBB506:
 1846              	.LBB504:
 1847              	.LBB502:
 1848              		.loc 4 548 0
 1849              	@ 548 "ChibiOS_16.1.4/os/ext/CMSIS/include/core_cmFunc.h" 1
 1850 007c 87F31188 		MSR basepri, r7
 1851              	@ 0 "" 2
 1852              		.thumb
 1853              	.LBE502:
 1854              	.LBE504:
 1855              	.LBE506:
 1856              	.LBE508:
 1857              	.LBE510:
 1858              	.LBE512:
 1859              		.loc 1 795 0
 1860 0080 5545     		cmp	r5, r10
 1861 0082 27D2     		bcs	.L103
 1862              	.L117:
 1863              	.LVL112:
 1864              	.LBB513:
 1865              	.LBB514:
 1866              	.LBB515:
 1867              	.LBB516:
 1868              	.LBB517:
 1869              		.loc 4 548 0
 1870              	@ 548 "ChibiOS_16.1.4/os/ext/CMSIS/include/core_cmFunc.h" 1
 1871 0084 86F31188 		MSR basepri, r6
 1872              	@ 0 "" 2
 1873              		.thumb
 1874              	.LBE517:
 1875              	.LBE516:
 1876              	.LBE515:
 1877              	.LBE514:
 1878              	.LBE513:
 1879              		.loc 1 738 0
 1880 0088 606A     		ldr	r0, [r4, #36]
 1881 008a 0028     		cmp	r0, #0
ARM GAS  /var/folders/m4/4md61f0s1_g0rzfghffqnxvr0000gn/T//ccifRFr6.s 			page 34


 1882 008c CDD1     		bne	.L99
 1883              	.LVL113:
 1884              	.L113:
 1885              	.LBB518:
 1886              		.loc 1 743 0
 1887 008e 009B     		ldr	r3, [sp]
 1888 0090 0333     		adds	r3, r3, #3
 1889 0092 23D8     		bhi	.L115
 1890              	.LBB479:
 1891              	.LBB480:
 1892              	.LBB481:
 1893              	.LBB482:
 1894              		.loc 5 231 0
 1895 0094 194B     		ldr	r3, .L119
 1896 0096 996A     		ldr	r1, [r3, #40]
 1897              	.LBE482:
 1898              	.LBE481:
 1899              	.LBE480:
 1900              		.loc 1 747 0
 1901 0098 019B     		ldr	r3, [sp, #4]
 1902 009a 591A     		subs	r1, r3, r1
 1903              	.LVL114:
 1904              		.loc 1 752 0
 1905 009c 8845     		cmp	r8, r1
 1906 009e 2AD3     		bcc	.L116
 1907              		.loc 1 756 0
 1908 00a0 2046     		mov	r0, r4
 1909 00a2 FFF7FEFF 		bl	obqGetEmptyBufferTimeoutS
 1910              	.LVL115:
 1911              	.LBE479:
 1912              		.loc 1 760 0
 1913 00a6 F8B9     		cbnz	r0, .L104
 1914              	.L118:
 1915 00a8 606A     		ldr	r0, [r4, #36]
 1916              	.LVL116:
 1917 00aa BEE7     		b	.L99
 1918              	.LVL117:
 1919              	.L105:
 1920              	.LBE518:
 1921              		.loc 1 782 0
 1922 00ac 5A46     		mov	r2, fp
 1923 00ae FFF7FEFF 		bl	memcpy
 1924              	.LVL118:
 1925              		.loc 1 784 0
 1926 00b2 626A     		ldr	r2, [r4, #36]
 1927              		.loc 1 789 0
 1928 00b4 A16A     		ldr	r1, [r4, #40]
 1929              		.loc 1 784 0
 1930 00b6 5A44     		add	r2, r2, fp
 1931              		.loc 1 789 0
 1932 00b8 9142     		cmp	r1, r2
 1933              		.loc 1 785 0
 1934 00ba 5D44     		add	r5, r5, fp
 1935              	.LVL119:
 1936              		.loc 1 783 0
 1937 00bc D944     		add	r9, r9, fp
 1938              	.LVL120:
ARM GAS  /var/folders/m4/4md61f0s1_g0rzfghffqnxvr0000gn/T//ccifRFr6.s 			page 35


 1939              		.loc 1 784 0
 1940 00be 6262     		str	r2, [r4, #36]
 1941              		.loc 1 789 0
 1942 00c0 DCD8     		bhi	.L108
 1943              	.L114:
 1944              		.loc 1 790 0
 1945 00c2 A169     		ldr	r1, [r4, #24]
 1946 00c4 2046     		mov	r0, r4
 1947 00c6 0439     		subs	r1, r1, #4
 1948 00c8 FFF7FEFF 		bl	obqPostFullBufferS
 1949              	.LVL121:
 1950              	.LBB519:
 1951              	.LBB511:
 1952              	.LBB509:
 1953              	.LBB507:
 1954              	.LBB505:
 1955              	.LBB503:
 1956              		.loc 4 548 0
 1957              	@ 548 "ChibiOS_16.1.4/os/ext/CMSIS/include/core_cmFunc.h" 1
 1958 00cc 87F31188 		MSR basepri, r7
 1959              	@ 0 "" 2
 1960              		.thumb
 1961              	.LBE503:
 1962              	.LBE505:
 1963              	.LBE507:
 1964              	.LBE509:
 1965              	.LBE511:
 1966              	.LBE519:
 1967              		.loc 1 795 0
 1968 00d0 5545     		cmp	r5, r10
 1969 00d2 D7D3     		bcc	.L117
 1970              	.LVL122:
 1971              	.L103:
 1972              	.LBE523:
 1973              		.loc 1 800 0
 1974 00d4 2846     		mov	r0, r5
 1975 00d6 03B0     		add	sp, sp, #12
 1976              		.cfi_remember_state
 1977              		.cfi_def_cfa_offset 36
 1978              		@ sp needed
 1979 00d8 BDE8F08F 		pop	{r4, r5, r6, r7, r8, r9, r10, fp, pc}
 1980              	.LVL123:
 1981              	.L115:
 1982              		.cfi_restore_state
 1983              	.LBB524:
 1984              	.LBB520:
 1985              		.loc 1 744 0
 1986 00dc 2046     		mov	r0, r4
 1987 00de 4146     		mov	r1, r8
 1988 00e0 FFF7FEFF 		bl	obqGetEmptyBufferTimeoutS
 1989              	.LVL124:
 1990              		.loc 1 760 0
 1991 00e4 0028     		cmp	r0, #0
 1992 00e6 DFD0     		beq	.L118
 1993              	.L104:
 1994              	.LVL125:
 1995              	.LBB489:
ARM GAS  /var/folders/m4/4md61f0s1_g0rzfghffqnxvr0000gn/T//ccifRFr6.s 			page 36


 1996              	.LBB490:
 1997              	.LBB491:
 1998              	.LBB492:
 1999              	.LBB493:
 2000              	.LBB494:
 2001              		.loc 4 548 0
 2002 00e8 0023     		movs	r3, #0
 2003              	@ 548 "ChibiOS_16.1.4/os/ext/CMSIS/include/core_cmFunc.h" 1
 2004 00ea 83F31188 		MSR basepri, r3
 2005              	@ 0 "" 2
 2006              		.thumb
 2007              	.LBE494:
 2008              	.LBE493:
 2009              	.LBE492:
 2010              	.LBE491:
 2011              	.LBE490:
 2012              	.LBE489:
 2013              	.LBE520:
 2014              	.LBE524:
 2015              		.loc 1 800 0
 2016 00ee 2846     		mov	r0, r5
 2017              	.LVL126:
 2018 00f0 03B0     		add	sp, sp, #12
 2019              		.cfi_remember_state
 2020              		.cfi_def_cfa_offset 36
 2021              		@ sp needed
 2022 00f2 BDE8F08F 		pop	{r4, r5, r6, r7, r8, r9, r10, fp, pc}
 2023              	.LVL127:
 2024              	.L116:
 2025              		.cfi_restore_state
 2026              	.LBB525:
 2027              	.LBB521:
 2028              	.LBB495:
 2029              	.LBB483:
 2030              	.LBB484:
 2031              	.LBB485:
 2032              	.LBB486:
 2033              	.LBB487:
 2034              	.LBB488:
 2035              		.loc 4 548 0
 2036              	@ 548 "ChibiOS_16.1.4/os/ext/CMSIS/include/core_cmFunc.h" 1
 2037 00f6 80F31188 		MSR basepri, r0
 2038              	@ 0 "" 2
 2039              		.thumb
 2040              	.LBE488:
 2041              	.LBE487:
 2042              	.LBE486:
 2043              	.LBE485:
 2044              	.LBE484:
 2045              	.LBE483:
 2046              		.loc 1 754 0
 2047 00fa EBE7     		b	.L103
 2048              	.L120:
 2049              		.align	2
 2050              	.L119:
 2051 00fc 00000000 		.word	ch
 2052              	.LBE495:
ARM GAS  /var/folders/m4/4md61f0s1_g0rzfghffqnxvr0000gn/T//ccifRFr6.s 			page 37


 2053              	.LBE521:
 2054              	.LBE525:
 2055              		.cfi_endproc
 2056              	.LFE287:
 2057              		.size	obqWriteTimeout, .-obqWriteTimeout
 2058              		.section	.text.obqTryFlushI,"ax",%progbits
 2059              		.align	2
 2060              		.p2align 4,,15
 2061              		.global	obqTryFlushI
 2062              		.thumb
 2063              		.thumb_func
 2064              		.type	obqTryFlushI, %function
 2065              	obqTryFlushI:
 2066              	.LFB288:
 2067              		.loc 1 815 0
 2068              		.cfi_startproc
 2069              		@ args = 0, pretend = 0, frame = 0
 2070              		@ frame_needed = 0, uses_anonymous_args = 0
 2071              		@ link register save eliminated.
 2072              	.LVL128:
 2073              		.loc 1 821 0
 2074 0000 C268     		ldr	r2, [r0, #12]
 2075 0002 0369     		ldr	r3, [r0, #16]
 2076 0004 9A42     		cmp	r2, r3
 2077 0006 01D0     		beq	.L132
 2078              	.L126:
 2079              		.loc 1 842 0
 2080 0008 0020     		movs	r0, #0
 2081              	.LVL129:
 2082 000a 7047     		bx	lr
 2083              	.LVL130:
 2084              	.L132:
 2085              		.loc 1 821 0 discriminator 1
 2086 000c 8368     		ldr	r3, [r0, #8]
 2087 000e 002B     		cmp	r3, #0
 2088 0010 FAD0     		beq	.L126
 2089              		.loc 1 821 0 is_stmt 0
 2090 0012 436A     		ldr	r3, [r0, #36]
 2091 0014 002B     		cmp	r3, #0
 2092 0016 F7D0     		beq	.L126
 2093 0018 043B     		subs	r3, r3, #4
 2094              	.LVL131:
 2095              	.LBB526:
 2096              		.loc 1 824 0 is_stmt 1
 2097 001a 9B1A     		subs	r3, r3, r2
 2098              	.LVL132:
 2099 001c F4D0     		beq	.L126
 2100              	.LBE526:
 2101              		.loc 1 815 0
 2102 001e 10B4     		push	{r4}
 2103              		.cfi_def_cfa_offset 4
 2104              		.cfi_offset 4, -4
 2105              	.LBB527:
 2106              		.loc 1 827 0
 2107 0020 1360     		str	r3, [r2]
 2108              		.loc 1 831 0
 2109 0022 8369     		ldr	r3, [r0, #24]
ARM GAS  /var/folders/m4/4md61f0s1_g0rzfghffqnxvr0000gn/T//ccifRFr6.s 			page 38


 2110              	.LVL133:
 2111              		.loc 1 832 0
 2112 0024 4469     		ldr	r4, [r0, #20]
 2113              		.loc 1 830 0
 2114 0026 8168     		ldr	r1, [r0, #8]
 2115              		.loc 1 831 0
 2116 0028 1A44     		add	r2, r2, r3
 2117              	.LVL134:
 2118              		.loc 1 832 0
 2119 002a A242     		cmp	r2, r4
 2120              		.loc 1 833 0
 2121 002c 28BF     		it	cs
 2122 002e 036A     		ldrcs	r3, [r0, #32]
 2123              		.loc 1 831 0
 2124 0030 C260     		str	r2, [r0, #12]
 2125              	.LVL135:
 2126              		.loc 1 830 0
 2127 0032 01F1FF31 		add	r1, r1, #-1
 2128              		.loc 1 833 0
 2129 0036 28BF     		it	cs
 2130 0038 C360     		strcs	r3, [r0, #12]
 2131              		.loc 1 837 0
 2132 003a 0023     		movs	r3, #0
 2133              		.loc 1 830 0
 2134 003c 8160     		str	r1, [r0, #8]
 2135              		.loc 1 837 0
 2136 003e 4362     		str	r3, [r0, #36]
 2137              	.LBE527:
 2138              		.loc 1 843 0
 2139 0040 5DF8044B 		ldr	r4, [sp], #4
 2140              		.cfi_restore 4
 2141              		.cfi_def_cfa_offset 0
 2142              	.LBB528:
 2143              		.loc 1 839 0
 2144 0044 0120     		movs	r0, #1
 2145              	.LVL136:
 2146              	.LBE528:
 2147              		.loc 1 843 0
 2148 0046 7047     		bx	lr
 2149              		.cfi_endproc
 2150              	.LFE288:
 2151              		.size	obqTryFlushI, .-obqTryFlushI
 2152              		.section	.text.obqFlush,"ax",%progbits
 2153              		.align	2
 2154              		.p2align 4,,15
 2155              		.global	obqFlush
 2156              		.thumb
 2157              		.thumb_func
 2158              		.type	obqFlush, %function
 2159              	obqFlush:
 2160              	.LFB289:
 2161              		.loc 1 852 0
 2162              		.cfi_startproc
 2163              		@ args = 0, pretend = 0, frame = 0
 2164              		@ frame_needed = 0, uses_anonymous_args = 0
 2165              	.LVL137:
 2166 0000 08B5     		push	{r3, lr}
ARM GAS  /var/folders/m4/4md61f0s1_g0rzfghffqnxvr0000gn/T//ccifRFr6.s 			page 39


 2167              		.cfi_def_cfa_offset 8
 2168              		.cfi_offset 3, -8
 2169              		.cfi_offset 14, -4
 2170              	.LBB529:
 2171              	.LBB530:
 2172              	.LBB531:
 2173              	.LBB532:
 2174              	.LBB533:
 2175              		.loc 4 548 0
 2176 0002 2023     		movs	r3, #32
 2177              	@ 548 "ChibiOS_16.1.4/os/ext/CMSIS/include/core_cmFunc.h" 1
 2178 0004 83F31188 		MSR basepri, r3
 2179              	@ 0 "" 2
 2180              		.thumb
 2181              	.LBE533:
 2182              	.LBE532:
 2183              	.LBE531:
 2184              	.LBE530:
 2185              	.LBE529:
 2186              		.loc 1 857 0
 2187 0008 436A     		ldr	r3, [r0, #36]
 2188 000a 2BB1     		cbz	r3, .L134
 2189              	.LBB534:
 2190              		.loc 1 858 0
 2191 000c C168     		ldr	r1, [r0, #12]
 2192 000e 043B     		subs	r3, r3, #4
 2193              	.LVL138:
 2194              		.loc 1 860 0
 2195 0010 591A     		subs	r1, r3, r1
 2196              	.LVL139:
 2197 0012 01D0     		beq	.L134
 2198              		.loc 1 861 0
 2199 0014 FFF7FEFF 		bl	obqPostFullBufferS
 2200              	.LVL140:
 2201              	.L134:
 2202              	.LBE534:
 2203              	.LBB535:
 2204              	.LBB536:
 2205              	.LBB537:
 2206              	.LBB538:
 2207              	.LBB539:
 2208              	.LBB540:
 2209              		.loc 4 548 0
 2210 0018 0023     		movs	r3, #0
 2211              	@ 548 "ChibiOS_16.1.4/os/ext/CMSIS/include/core_cmFunc.h" 1
 2212 001a 83F31188 		MSR basepri, r3
 2213              	@ 0 "" 2
 2214              		.thumb
 2215 001e 08BD     		pop	{r3, pc}
 2216              	.LBE540:
 2217              	.LBE539:
 2218              	.LBE538:
 2219              	.LBE537:
 2220              	.LBE536:
 2221              	.LBE535:
 2222              		.cfi_endproc
 2223              	.LFE289:
ARM GAS  /var/folders/m4/4md61f0s1_g0rzfghffqnxvr0000gn/T//ccifRFr6.s 			page 40


 2224              		.size	obqFlush, .-obqFlush
 2225              		.text
 2226              	.Letext0:
 2227              		.file 6 "/usr/local/Cellar/gcc-arm-none-eabi-49/20150609/lib/gcc/arm-none-eabi/4.9.3/include/stdde
 2228              		.file 7 "/usr/local/Cellar/gcc-arm-none-eabi-49/20150609/arm-none-eabi/include/machine/_default_ty
 2229              		.file 8 "/usr/local/Cellar/gcc-arm-none-eabi-49/20150609/arm-none-eabi/include/sys/_stdint.h"
 2230              		.file 9 "ChibiOS_16.1.4/os/rt/ports/ARMCMx/compilers/GCC/chtypes.h"
 2231              		.file 10 "ChibiOS_16.1.4/os/rt/include/chsystypes.h"
 2232              		.file 11 "ChibiOS_16.1.4/os/rt/ports/ARMCMx/chcore.h"
 2233              		.file 12 "ChibiOS_16.1.4/os/rt/ports/ARMCMx/chcore_v7m.h"
 2234              		.file 13 "ChibiOS_16.1.4/os/rt/include/chtm.h"
 2235              		.file 14 "ChibiOS_16.1.4/os/rt/include/chsem.h"
 2236              		.file 15 "ChibiOS_16.1.4/os/rt/include/chmtx.h"
 2237              		.file 16 "ChibiOS_16.1.4/os/hal/include/hal_buffers.h"
 2238              		.file 17 "ChibiOS_16.1.4/os/rt/include/chsys.h"
 2239              		.file 18 "ChibiOS_16.1.4/os/rt/include/chthreads.h"
 2240              		.file 19 "ChibiOS_16.1.4/os/ext/CMSIS/include/core_cm4.h"