ARM GAS  /var/folders/m4/4md61f0s1_g0rzfghffqnxvr0000gn/T//ccJ0mkNR.s 			page 1


   1              		.syntax unified
   2              		.cpu cortex-m4
   3              		.eabi_attribute 27, 1
   4              		.eabi_attribute 28, 1
   5              		.fpu fpv4-sp-d16
   6              		.eabi_attribute 20, 1
   7              		.eabi_attribute 21, 1
   8              		.eabi_attribute 23, 3
   9              		.eabi_attribute 24, 1
  10              		.eabi_attribute 25, 1
  11              		.eabi_attribute 26, 1
  12              		.eabi_attribute 30, 2
  13              		.eabi_attribute 34, 1
  14              		.eabi_attribute 18, 4
  15              		.thumb
  16              		.syntax unified
  17              		.file	"hal_lld.c"
  18              		.text
  19              	.Ltext0:
  20              		.cfi_sections	.debug_frame
  21              		.section	.text.hal_lld_init,"ax",%progbits
  22              		.align	2
  23              		.p2align 4,,15
  24              		.global	hal_lld_init
  25              		.thumb
  26              		.thumb_func
  27              		.type	hal_lld_init, %function
  28              	hal_lld_init:
  29              	.LFB269:
  30              		.file 1 "ChibiOS_16.1.4/os/hal/ports/STM32/STM32F4xx/hal_lld.c"
  31              		.loc 1 114 0
  32              		.cfi_startproc
  33              		@ args = 0, pretend = 0, frame = 0
  34              		@ frame_needed = 0, uses_anonymous_args = 0
  35              		@ link register save eliminated.
  36              		.loc 1 118 0
  37 0000 174B     		ldr	r3, .L8
  38 0002 4FF0FF31 		mov	r1, #-1
  39 0006 1A69     		ldr	r2, [r3, #16]
  40 0008 0022     		movs	r2, #0
  41              		.loc 1 114 0
  42 000a 10B4     		push	{r4}
  43              		.cfi_def_cfa_offset 4
  44              		.cfi_offset 4, -4
  45              		.loc 1 118 0
  46 000c 1961     		str	r1, [r3, #16]
  47 000e 1A61     		str	r2, [r3, #16]
  48              		.loc 1 119 0
  49 0010 5869     		ldr	r0, [r3, #20]
  50 0012 5961     		str	r1, [r3, #20]
  51 0014 5A61     		str	r2, [r3, #20]
  52              		.loc 1 120 0
  53 0016 186A     		ldr	r0, [r3, #32]
  54              	.LBB4:
  55              	.LBB5:
  56              		.loc 1 57 0
  57 0018 124C     		ldr	r4, .L8+4
ARM GAS  /var/folders/m4/4md61f0s1_g0rzfghffqnxvr0000gn/T//ccJ0mkNR.s 			page 2


  58              	.LBE5:
  59              	.LBE4:
  60              		.loc 1 120 0
  61 001a 60F08050 		orn	r0, r0, #268435456
  62 001e 1862     		str	r0, [r3, #32]
  63 0020 1A62     		str	r2, [r3, #32]
  64              		.loc 1 121 0
  65 0022 586A     		ldr	r0, [r3, #36]
  66 0024 5962     		str	r1, [r3, #36]
  67 0026 5A62     		str	r2, [r3, #36]
  68              		.loc 1 124 0
  69 0028 196C     		ldr	r1, [r3, #64]
  70 002a 41F08051 		orr	r1, r1, #268435456
  71 002e 1964     		str	r1, [r3, #64]
  72              	.LBB8:
  73              	.LBB6:
  74              		.loc 1 57 0
  75 0030 2168     		ldr	r1, [r4]
  76 0032 41F48071 		orr	r1, r1, #256
  77 0036 2160     		str	r1, [r4]
  78              		.loc 1 60 0
  79 0038 196F     		ldr	r1, [r3, #112]
  80 003a 01F44071 		and	r1, r1, #768
  81 003e B1F5007F 		cmp	r1, #512
  82 0042 03D0     		beq	.L2
  83              		.loc 1 62 0
  84 0044 4FF48031 		mov	r1, #65536
  85 0048 1967     		str	r1, [r3, #112]
  86              		.loc 1 63 0
  87 004a 1A67     		str	r2, [r3, #112]
  88              	.L2:
  89              		.loc 1 97 0
  90 004c 054A     		ldr	r2, .L8+4
  91              	.LBE6:
  92              	.LBE8:
  93              		.loc 1 137 0
  94 004e 5DF8044B 		ldr	r4, [sp], #4
  95              		.cfi_restore 4
  96              		.cfi_def_cfa_offset 0
  97              	.LBB9:
  98              	.LBB7:
  99              		.loc 1 97 0
 100 0052 5368     		ldr	r3, [r2, #4]
 101 0054 23F40073 		bic	r3, r3, #512
 102 0058 5360     		str	r3, [r2, #4]
 103              	.LBE7:
 104              	.LBE9:
 105              		.loc 1 130 0
 106 005a FFF7FEBF 		b	dmaInit
 107              	.LVL0:
 108              	.L9:
 109 005e 00BF     		.align	2
 110              	.L8:
 111 0060 00380240 		.word	1073887232
 112 0064 00700040 		.word	1073770496
 113              		.cfi_endproc
 114              	.LFE269:
ARM GAS  /var/folders/m4/4md61f0s1_g0rzfghffqnxvr0000gn/T//ccJ0mkNR.s 			page 3


 115              		.size	hal_lld_init, .-hal_lld_init
 116              		.section	.text.stm32_clock_init,"ax",%progbits
 117              		.align	2
 118              		.p2align 4,,15
 119              		.global	stm32_clock_init
 120              		.thumb
 121              		.thumb_func
 122              		.type	stm32_clock_init, %function
 123              	stm32_clock_init:
 124              	.LFB270:
 125              		.loc 1 146 0
 126              		.cfi_startproc
 127              		@ args = 0, pretend = 0, frame = 0
 128              		@ frame_needed = 0, uses_anonymous_args = 0
 129              		@ link register save eliminated.
 130              		.loc 1 150 0
 131 0000 2C49     		ldr	r1, .L31
 132              		.loc 1 154 0
 133 0002 2D4B     		ldr	r3, .L31+4
 134              		.loc 1 150 0
 135 0004 4FF08050 		mov	r0, #268435456
 136              		.loc 1 154 0
 137 0008 4FF44042 		mov	r2, #49152
 138              		.loc 1 150 0
 139 000c 0864     		str	r0, [r1, #64]
 140              		.loc 1 154 0
 141 000e 1A60     		str	r2, [r3]
 142              		.loc 1 161 0
 143 0010 0B68     		ldr	r3, [r1]
 144 0012 43F00103 		orr	r3, r3, #1
 145 0016 0B60     		str	r3, [r1]
 146              	.L11:
 147              		.loc 1 162 0 discriminator 1
 148 0018 0A68     		ldr	r2, [r1]
 149 001a 264B     		ldr	r3, .L31
 150 001c 9007     		lsls	r0, r2, #30
 151 001e FBD5     		bpl	.L11
 152              		.loc 1 168 0
 153 0020 9A68     		ldr	r2, [r3, #8]
 154 0022 22F00302 		bic	r2, r2, #3
 155 0026 9A60     		str	r2, [r3, #8]
 156              		.loc 1 169 0
 157 0028 9A68     		ldr	r2, [r3, #8]
 158 002a 9A60     		str	r2, [r3, #8]
 159              		.loc 1 170 0
 160 002c 1946     		mov	r1, r3
 161              	.L12:
 162              		.loc 1 170 0 is_stmt 0 discriminator 1
 163 002e 8B68     		ldr	r3, [r1, #8]
 164 0030 204A     		ldr	r2, .L31
 165 0032 13F00C03 		ands	r3, r3, #12
 166 0036 FAD1     		bne	.L12
 167              		.loc 1 174 0 is_stmt 1
 168 0038 1168     		ldr	r1, [r2]
 169 003a 01F0F901 		and	r1, r1, #249
 170 003e 1160     		str	r1, [r2]
 171              		.loc 1 175 0
ARM GAS  /var/folders/m4/4md61f0s1_g0rzfghffqnxvr0000gn/T//ccJ0mkNR.s 			page 4


 172 0040 9360     		str	r3, [r2, #8]
 173              		.loc 1 184 0
 174 0042 1368     		ldr	r3, [r2]
 175 0044 43F48033 		orr	r3, r3, #65536
 176 0048 1360     		str	r3, [r2]
 177              	.L13:
 178              		.loc 1 186 0 discriminator 1
 179 004a 1168     		ldr	r1, [r2]
 180 004c 194B     		ldr	r3, .L31
 181 004e 8903     		lsls	r1, r1, #14
 182 0050 FBD5     		bpl	.L13
 183              		.loc 1 192 0
 184 0052 5A6F     		ldr	r2, [r3, #116]
 185 0054 42F00102 		orr	r2, r2, #1
 186 0058 5A67     		str	r2, [r3, #116]
 187              	.L14:
 188              		.loc 1 193 0 discriminator 1
 189 005a 5A6F     		ldr	r2, [r3, #116]
 190 005c 1549     		ldr	r1, .L31
 191 005e 9007     		lsls	r0, r2, #30
 192 0060 FBD5     		bpl	.L14
 193              		.loc 1 199 0
 194 0062 164B     		ldr	r3, .L31+8
 195 0064 4B60     		str	r3, [r1, #4]
 196              		.loc 1 201 0
 197 0066 0B68     		ldr	r3, [r1]
 198              		.loc 1 205 0
 199 0068 134A     		ldr	r2, .L31+4
 200              		.loc 1 201 0
 201 006a 43F08073 		orr	r3, r3, #16777216
 202 006e 0B60     		str	r3, [r1]
 203              	.L15:
 204              		.loc 1 205 0 discriminator 1
 205 0070 5368     		ldr	r3, [r2, #4]
 206 0072 5904     		lsls	r1, r3, #17
 207 0074 FCD5     		bpl	.L15
 208              		.loc 1 221 0 discriminator 1
 209 0076 0F49     		ldr	r1, .L31
 210              	.L25:
 211 0078 0A68     		ldr	r2, [r1]
 212 007a 0E4B     		ldr	r3, .L31
 213 007c 9201     		lsls	r2, r2, #6
 214 007e FBD5     		bpl	.L25
 215              		.loc 1 261 0
 216 0080 0F4A     		ldr	r2, .L31+12
 217              		.loc 1 247 0
 218 0082 1049     		ldr	r1, .L31+16
 219 0084 9960     		str	r1, [r3, #8]
 220              		.loc 1 261 0
 221 0086 40F20571 		movw	r1, #1797
 222 008a 1160     		str	r1, [r2]
 223              		.loc 1 267 0
 224 008c 9A68     		ldr	r2, [r3, #8]
 225 008e 42F00202 		orr	r2, r2, #2
 226 0092 9A60     		str	r2, [r3, #8]
 227              		.loc 1 268 0
 228 0094 1A46     		mov	r2, r3
ARM GAS  /var/folders/m4/4md61f0s1_g0rzfghffqnxvr0000gn/T//ccJ0mkNR.s 			page 5


 229              	.L17:
 230              		.loc 1 268 0 is_stmt 0 discriminator 1
 231 0096 9368     		ldr	r3, [r2, #8]
 232 0098 0649     		ldr	r1, .L31
 233 009a 03F00C03 		and	r3, r3, #12
 234 009e 082B     		cmp	r3, #8
 235 00a0 F9D1     		bne	.L17
 236              		.loc 1 275 0 is_stmt 1
 237 00a2 4B6C     		ldr	r3, [r1, #68]
 238 00a4 43F48043 		orr	r3, r3, #16384
 239 00a8 4B64     		str	r3, [r1, #68]
 240 00aa 4B6E     		ldr	r3, [r1, #100]
 241 00ac 43F48043 		orr	r3, r3, #16384
 242 00b0 4B66     		str	r3, [r1, #100]
 243 00b2 7047     		bx	lr
 244              	.L32:
 245              		.align	2
 246              	.L31:
 247 00b4 00380240 		.word	1073887232
 248 00b8 00700040 		.word	1073770496
 249 00bc 08544007 		.word	121656328
 250 00c0 003C0240 		.word	1073888256
 251 00c4 00948838 		.word	948474880
 252              		.cfi_endproc
 253              	.LFE270:
 254              		.size	stm32_clock_init, .-stm32_clock_init
 255              		.global	SystemCoreClock
 256              		.section	.data.SystemCoreClock,"aw",%progbits
 257              		.align	2
 258              		.type	SystemCoreClock, %object
 259              		.size	SystemCoreClock, 4
 260              	SystemCoreClock:
 261 0000 007A030A 		.word	168000000
 262              		.text
 263              	.Letext0:
 264              		.file 2 "/opt/homebrew-cask/Caskroom/gcc-arm-embedded/5_2-2015q4,20151219/gcc-arm-none-eabi-5_2-20
 265              		.file 3 "/opt/homebrew-cask/Caskroom/gcc-arm-embedded/5_2-2015q4,20151219/gcc-arm-none-eabi-5_2-20
 266              		.file 4 "/opt/homebrew-cask/Caskroom/gcc-arm-embedded/5_2-2015q4,20151219/gcc-arm-none-eabi-5_2-20
 267              		.file 5 "ChibiOS_16.1.4/os/rt/ports/ARMCMx/compilers/GCC/chtypes.h"
 268              		.file 6 "ChibiOS_16.1.4/os/rt/include/chsystypes.h"
 269              		.file 7 "ChibiOS_16.1.4/os/rt/include/chschd.h"
 270              		.file 8 "ChibiOS_16.1.4/os/ext/CMSIS/ST/STM32F4xx/stm32f446xx.h"
 271              		.file 9 "ChibiOS_16.1.4/os/rt/ports/ARMCMx/chcore.h"
 272              		.file 10 "ChibiOS_16.1.4/os/rt/ports/ARMCMx/chcore_v7m.h"
 273              		.file 11 "ChibiOS_16.1.4/os/rt/include/chtm.h"
 274              		.file 12 "ChibiOS_16.1.4/os/rt/include/chsem.h"
 275              		.file 13 "ChibiOS_16.1.4/os/rt/include/chmtx.h"
 276              		.file 14 "ChibiOS_16.1.4/os/ext/CMSIS/include/core_cm4.h"
 277              		.file 15 "ChibiOS_16.1.4/os/hal/ports/STM32/LLD/DMAv2/stm32_dma.h"
 278              		.section	.debug_info,"",%progbits
 279              	.Ldebug_info0:
 280 0000 1E0A0000 		.4byte	0xa1e
 281 0004 0400     		.2byte	0x4
 282 0006 00000000 		.4byte	.Ldebug_abbrev0
 283 000a 04       		.byte	0x4
 284 000b 01       		.uleb128 0x1
 285 000c 37050000 		.4byte	.LASF146
ARM GAS  /var/folders/m4/4md61f0s1_g0rzfghffqnxvr0000gn/T//ccJ0mkNR.s 			page 6


 286 0010 0C       		.byte	0xc
 287 0011 04040000 		.4byte	.LASF147
 288 0015 00000000 		.4byte	.LASF148
 289 0019 20000000 		.4byte	.Ldebug_ranges0+0x20
 290 001d 00000000 		.4byte	0
 291 0021 00000000 		.4byte	.Ldebug_line0
 292 0025 02       		.uleb128 0x2
 293 0026 04       		.byte	0x4
 294 0027 05       		.byte	0x5
 295 0028 696E7400 		.ascii	"int\000"
 296 002c 03       		.uleb128 0x3
 297 002d 39000000 		.4byte	.LASF2
 298 0031 02       		.byte	0x2
 299 0032 D8       		.byte	0xd8
 300 0033 37000000 		.4byte	0x37
 301 0037 04       		.uleb128 0x4
 302 0038 04       		.byte	0x4
 303 0039 07       		.byte	0x7
 304 003a F2010000 		.4byte	.LASF0
 305 003e 04       		.uleb128 0x4
 306 003f 01       		.byte	0x1
 307 0040 06       		.byte	0x6
 308 0041 08010000 		.4byte	.LASF1
 309 0045 03       		.uleb128 0x3
 310 0046 50000000 		.4byte	.LASF3
 311 004a 03       		.byte	0x3
 312 004b 1D       		.byte	0x1d
 313 004c 50000000 		.4byte	0x50
 314 0050 04       		.uleb128 0x4
 315 0051 01       		.byte	0x1
 316 0052 08       		.byte	0x8
 317 0053 58040000 		.4byte	.LASF4
 318 0057 04       		.uleb128 0x4
 319 0058 02       		.byte	0x2
 320 0059 05       		.byte	0x5
 321 005a 70040000 		.4byte	.LASF5
 322 005e 04       		.uleb128 0x4
 323 005f 02       		.byte	0x2
 324 0060 07       		.byte	0x7
 325 0061 56020000 		.4byte	.LASF6
 326 0065 03       		.uleb128 0x3
 327 0066 DF020000 		.4byte	.LASF7
 328 006a 03       		.byte	0x3
 329 006b 3F       		.byte	0x3f
 330 006c 70000000 		.4byte	0x70
 331 0070 04       		.uleb128 0x4
 332 0071 04       		.byte	0x4
 333 0072 05       		.byte	0x5
 334 0073 71010000 		.4byte	.LASF8
 335 0077 03       		.uleb128 0x3
 336 0078 74060000 		.4byte	.LASF9
 337 007c 03       		.byte	0x3
 338 007d 41       		.byte	0x41
 339 007e 82000000 		.4byte	0x82
 340 0082 04       		.uleb128 0x4
 341 0083 04       		.byte	0x4
 342 0084 07       		.byte	0x7
ARM GAS  /var/folders/m4/4md61f0s1_g0rzfghffqnxvr0000gn/T//ccJ0mkNR.s 			page 7


 343 0085 20050000 		.4byte	.LASF10
 344 0089 04       		.uleb128 0x4
 345 008a 08       		.byte	0x8
 346 008b 05       		.byte	0x5
 347 008c FA000000 		.4byte	.LASF11
 348 0090 03       		.uleb128 0x3
 349 0091 9B030000 		.4byte	.LASF12
 350 0095 03       		.byte	0x3
 351 0096 5B       		.byte	0x5b
 352 0097 9B000000 		.4byte	0x9b
 353 009b 04       		.uleb128 0x4
 354 009c 08       		.byte	0x8
 355 009d 07       		.byte	0x7
 356 009e 82000000 		.4byte	.LASF13
 357 00a2 03       		.uleb128 0x3
 358 00a3 06070000 		.4byte	.LASF14
 359 00a7 04       		.byte	0x4
 360 00a8 14       		.byte	0x14
 361 00a9 45000000 		.4byte	0x45
 362 00ad 03       		.uleb128 0x3
 363 00ae 50040000 		.4byte	.LASF15
 364 00b2 04       		.byte	0x4
 365 00b3 1F       		.byte	0x1f
 366 00b4 65000000 		.4byte	0x65
 367 00b8 03       		.uleb128 0x3
 368 00b9 F0040000 		.4byte	.LASF16
 369 00bd 04       		.byte	0x4
 370 00be 20       		.byte	0x20
 371 00bf 77000000 		.4byte	0x77
 372 00c3 03       		.uleb128 0x3
 373 00c4 47000000 		.4byte	.LASF17
 374 00c8 04       		.byte	0x4
 375 00c9 26       		.byte	0x26
 376 00ca 90000000 		.4byte	0x90
 377 00ce 03       		.uleb128 0x3
 378 00cf BD060000 		.4byte	.LASF18
 379 00d3 05       		.byte	0x5
 380 00d4 39       		.byte	0x39
 381 00d5 B8000000 		.4byte	0xb8
 382 00d9 03       		.uleb128 0x3
 383 00da B3020000 		.4byte	.LASF19
 384 00de 05       		.byte	0x5
 385 00df 3C       		.byte	0x3c
 386 00e0 A2000000 		.4byte	0xa2
 387 00e4 03       		.uleb128 0x3
 388 00e5 8D010000 		.4byte	.LASF20
 389 00e9 05       		.byte	0x5
 390 00ea 3D       		.byte	0x3d
 391 00eb A2000000 		.4byte	0xa2
 392 00ef 03       		.uleb128 0x3
 393 00f0 B1030000 		.4byte	.LASF21
 394 00f4 05       		.byte	0x5
 395 00f5 3E       		.byte	0x3e
 396 00f6 A2000000 		.4byte	0xa2
 397 00fa 03       		.uleb128 0x3
 398 00fb 57010000 		.4byte	.LASF22
 399 00ff 05       		.byte	0x5
ARM GAS  /var/folders/m4/4md61f0s1_g0rzfghffqnxvr0000gn/T//ccJ0mkNR.s 			page 8


 400 0100 3F       		.byte	0x3f
 401 0101 A2000000 		.4byte	0xa2
 402 0105 03       		.uleb128 0x3
 403 0106 FC030000 		.4byte	.LASF23
 404 010a 05       		.byte	0x5
 405 010b 40       		.byte	0x40
 406 010c B8000000 		.4byte	0xb8
 407 0110 03       		.uleb128 0x3
 408 0111 7E020000 		.4byte	.LASF24
 409 0115 05       		.byte	0x5
 410 0116 41       		.byte	0x41
 411 0117 AD000000 		.4byte	0xad
 412 011b 03       		.uleb128 0x3
 413 011c D3020000 		.4byte	.LASF25
 414 0120 05       		.byte	0x5
 415 0121 43       		.byte	0x43
 416 0122 B8000000 		.4byte	0xb8
 417 0126 03       		.uleb128 0x3
 418 0127 EC010000 		.4byte	.LASF26
 419 012b 05       		.byte	0x5
 420 012c 45       		.byte	0x45
 421 012d AD000000 		.4byte	0xad
 422 0131 03       		.uleb128 0x3
 423 0132 56060000 		.4byte	.LASF27
 424 0136 06       		.byte	0x6
 425 0137 33       		.byte	0x33
 426 0138 B8000000 		.4byte	0xb8
 427 013c 03       		.uleb128 0x3
 428 013d 46060000 		.4byte	.LASF28
 429 0141 06       		.byte	0x6
 430 0142 3F       		.byte	0x3f
 431 0143 47010000 		.4byte	0x147
 432 0147 05       		.uleb128 0x5
 433 0148 69020000 		.4byte	.LASF50
 434 014c 48       		.byte	0x48
 435 014d 07       		.byte	0x7
 436 014e C2       		.byte	0xc2
 437 014f 4C020000 		.4byte	0x24c
 438 0153 06       		.uleb128 0x6
 439 0154 50030000 		.4byte	.LASF29
 440 0158 07       		.byte	0x7
 441 0159 C3       		.byte	0xc3
 442 015a 57020000 		.4byte	0x257
 443 015e 00       		.byte	0
 444 015f 06       		.uleb128 0x6
 445 0160 EB030000 		.4byte	.LASF30
 446 0164 07       		.byte	0x7
 447 0165 C5       		.byte	0xc5
 448 0166 57020000 		.4byte	0x257
 449 016a 04       		.byte	0x4
 450 016b 06       		.uleb128 0x6
 451 016c EB000000 		.4byte	.LASF31
 452 0170 07       		.byte	0x7
 453 0171 C7       		.byte	0xc7
 454 0172 05010000 		.4byte	0x105
 455 0176 08       		.byte	0x8
 456 0177 06       		.uleb128 0x6
ARM GAS  /var/folders/m4/4md61f0s1_g0rzfghffqnxvr0000gn/T//ccJ0mkNR.s 			page 9


 457 0178 3F070000 		.4byte	.LASF32
 458 017c 07       		.byte	0x7
 459 017d C8       		.byte	0xc8
 460 017e 09070000 		.4byte	0x709
 461 0182 0C       		.byte	0xc
 462 0183 06       		.uleb128 0x6
 463 0184 96010000 		.4byte	.LASF33
 464 0188 07       		.byte	0x7
 465 0189 CA       		.byte	0xca
 466 018a 57020000 		.4byte	0x257
 467 018e 10       		.byte	0x10
 468 018f 06       		.uleb128 0x6
 469 0190 5F030000 		.4byte	.LASF34
 470 0194 07       		.byte	0x7
 471 0195 CB       		.byte	0xcb
 472 0196 57020000 		.4byte	0x257
 473 019a 14       		.byte	0x14
 474 019b 06       		.uleb128 0x6
 475 019c 15070000 		.4byte	.LASF35
 476 01a0 07       		.byte	0x7
 477 01a1 D2       		.byte	0xd2
 478 01a2 57090000 		.4byte	0x957
 479 01a6 18       		.byte	0x18
 480 01a7 06       		.uleb128 0x6
 481 01a8 7A040000 		.4byte	.LASF36
 482 01ac 07       		.byte	0x7
 483 01ad DD       		.byte	0xdd
 484 01ae E4000000 		.4byte	0xe4
 485 01b2 1C       		.byte	0x1c
 486 01b3 06       		.uleb128 0x6
 487 01b4 A4040000 		.4byte	.LASF37
 488 01b8 07       		.byte	0x7
 489 01b9 E1       		.byte	0xe1
 490 01ba D9000000 		.4byte	0xd9
 491 01be 1D       		.byte	0x1d
 492 01bf 06       		.uleb128 0x6
 493 01c0 EB060000 		.4byte	.LASF38
 494 01c4 07       		.byte	0x7
 495 01c5 E6       		.byte	0xe6
 496 01c6 EF000000 		.4byte	0xef
 497 01ca 1E       		.byte	0x1e
 498 01cb 06       		.uleb128 0x6
 499 01cc 82040000 		.4byte	.LASF39
 500 01d0 07       		.byte	0x7
 501 01d1 EC       		.byte	0xec
 502 01d2 FA000000 		.4byte	0xfa
 503 01d6 1F       		.byte	0x1f
 504 01d7 06       		.uleb128 0x6
 505 01d8 17020000 		.4byte	.LASF40
 506 01dc 07       		.byte	0x7
 507 01dd F3       		.byte	0xf3
 508 01de 69090000 		.4byte	0x969
 509 01e2 20       		.byte	0x20
 510 01e3 07       		.uleb128 0x7
 511 01e4 705F7500 		.ascii	"p_u\000"
 512 01e8 07       		.byte	0x7
 513 01e9 3101     		.2byte	0x131
ARM GAS  /var/folders/m4/4md61f0s1_g0rzfghffqnxvr0000gn/T//ccJ0mkNR.s 			page 10


 514 01eb 92080000 		.4byte	0x892
 515 01ef 24       		.byte	0x24
 516 01f0 08       		.uleb128 0x8
 517 01f1 13030000 		.4byte	.LASF41
 518 01f5 07       		.byte	0x7
 519 01f6 3601     		.2byte	0x136
 520 01f8 5D020000 		.4byte	0x25d
 521 01fc 28       		.byte	0x28
 522 01fd 08       		.uleb128 0x8
 523 01fe 39020000 		.4byte	.LASF42
 524 0202 07       		.byte	0x7
 525 0203 3C01     		.2byte	0x13c
 526 0205 81020000 		.4byte	0x281
 527 0209 2C       		.byte	0x2c
 528 020a 08       		.uleb128 0x8
 529 020b 31070000 		.4byte	.LASF43
 530 020f 07       		.byte	0x7
 531 0210 4001     		.2byte	0x140
 532 0212 10010000 		.4byte	0x110
 533 0216 34       		.byte	0x34
 534 0217 08       		.uleb128 0x8
 535 0218 DB040000 		.4byte	.LASF44
 536 021c 07       		.byte	0x7
 537 021d 4601     		.2byte	0x146
 538 021f 1B010000 		.4byte	0x11b
 539 0223 38       		.byte	0x38
 540 0224 08       		.uleb128 0x8
 541 0225 66040000 		.4byte	.LASF45
 542 0229 07       		.byte	0x7
 543 022a 4D01     		.2byte	0x14d
 544 022c 51090000 		.4byte	0x951
 545 0230 3C       		.byte	0x3c
 546 0231 08       		.uleb128 0x8
 547 0232 60060000 		.4byte	.LASF46
 548 0236 07       		.byte	0x7
 549 0237 5101     		.2byte	0x151
 550 0239 05010000 		.4byte	0x105
 551 023d 40       		.byte	0x40
 552 023e 08       		.uleb128 0x8
 553 023f 34010000 		.4byte	.LASF47
 554 0243 07       		.byte	0x7
 555 0244 5801     		.2byte	0x158
 556 0246 34030000 		.4byte	0x334
 557 024a 44       		.byte	0x44
 558 024b 00       		.byte	0
 559 024c 03       		.uleb128 0x3
 560 024d 26030000 		.4byte	.LASF48
 561 0251 06       		.byte	0x6
 562 0252 44       		.byte	0x44
 563 0253 57020000 		.4byte	0x257
 564 0257 09       		.uleb128 0x9
 565 0258 04       		.byte	0x4
 566 0259 3C010000 		.4byte	0x13c
 567 025d 03       		.uleb128 0x3
 568 025e F4020000 		.4byte	.LASF49
 569 0262 06       		.byte	0x6
 570 0263 49       		.byte	0x49
ARM GAS  /var/folders/m4/4md61f0s1_g0rzfghffqnxvr0000gn/T//ccJ0mkNR.s 			page 11


 571 0264 68020000 		.4byte	0x268
 572 0268 05       		.uleb128 0x5
 573 0269 08050000 		.4byte	.LASF51
 574 026d 04       		.byte	0x4
 575 026e 07       		.byte	0x7
 576 026f B0       		.byte	0xb0
 577 0270 81020000 		.4byte	0x281
 578 0274 06       		.uleb128 0x6
 579 0275 50030000 		.4byte	.LASF29
 580 0279 07       		.byte	0x7
 581 027a B1       		.byte	0xb1
 582 027b 57020000 		.4byte	0x257
 583 027f 00       		.byte	0
 584 0280 00       		.byte	0
 585 0281 03       		.uleb128 0x3
 586 0282 D2060000 		.4byte	.LASF52
 587 0286 06       		.byte	0x6
 588 0287 50       		.byte	0x50
 589 0288 8C020000 		.4byte	0x28c
 590 028c 05       		.uleb128 0x5
 591 028d D0000000 		.4byte	.LASF53
 592 0291 08       		.byte	0x8
 593 0292 07       		.byte	0x7
 594 0293 B7       		.byte	0xb7
 595 0294 B1020000 		.4byte	0x2b1
 596 0298 06       		.uleb128 0x6
 597 0299 50030000 		.4byte	.LASF29
 598 029d 07       		.byte	0x7
 599 029e B8       		.byte	0xb8
 600 029f 57020000 		.4byte	0x257
 601 02a3 00       		.byte	0
 602 02a4 06       		.uleb128 0x6
 603 02a5 EB030000 		.4byte	.LASF30
 604 02a9 07       		.byte	0x7
 605 02aa B9       		.byte	0xb9
 606 02ab 57020000 		.4byte	0x257
 607 02af 04       		.byte	0x4
 608 02b0 00       		.byte	0
 609 02b1 03       		.uleb128 0x3
 610 02b2 2C000000 		.4byte	.LASF54
 611 02b6 06       		.byte	0x6
 612 02b7 57       		.byte	0x57
 613 02b8 BC020000 		.4byte	0x2bc
 614 02bc 0A       		.uleb128 0xa
 615 02bd C5020000 		.4byte	.LASF55
 616 02c1 1C       		.byte	0x1c
 617 02c2 07       		.byte	0x7
 618 02c3 9001     		.2byte	0x190
 619 02c5 18030000 		.4byte	0x318
 620 02c9 08       		.uleb128 0x8
 621 02ca 00050000 		.4byte	.LASF56
 622 02ce 07       		.byte	0x7
 623 02cf 9101     		.2byte	0x191
 624 02d1 81020000 		.4byte	0x281
 625 02d5 00       		.byte	0
 626 02d6 08       		.uleb128 0x8
 627 02d7 96040000 		.4byte	.LASF57
ARM GAS  /var/folders/m4/4md61f0s1_g0rzfghffqnxvr0000gn/T//ccJ0mkNR.s 			page 12


 628 02db 07       		.byte	0x7
 629 02dc 9201     		.2byte	0x192
 630 02de 05010000 		.4byte	0x105
 631 02e2 08       		.byte	0x8
 632 02e3 08       		.uleb128 0x8
 633 02e4 67030000 		.4byte	.LASF58
 634 02e8 07       		.byte	0x7
 635 02e9 9401     		.2byte	0x194
 636 02eb 09070000 		.4byte	0x709
 637 02ef 0C       		.byte	0xc
 638 02f0 08       		.uleb128 0x8
 639 02f1 A6010000 		.4byte	.LASF59
 640 02f5 07       		.byte	0x7
 641 02f6 9701     		.2byte	0x197
 642 02f8 57020000 		.4byte	0x257
 643 02fc 10       		.byte	0x10
 644 02fd 08       		.uleb128 0x8
 645 02fe A8060000 		.4byte	.LASF60
 646 0302 07       		.byte	0x7
 647 0303 9801     		.2byte	0x198
 648 0305 57020000 		.4byte	0x257
 649 0309 14       		.byte	0x14
 650 030a 08       		.uleb128 0x8
 651 030b 88030000 		.4byte	.LASF61
 652 030f 07       		.byte	0x7
 653 0310 9B01     		.2byte	0x19b
 654 0312 57020000 		.4byte	0x257
 655 0316 18       		.byte	0x18
 656 0317 00       		.byte	0
 657 0318 03       		.uleb128 0x3
 658 0319 6B060000 		.4byte	.LASF62
 659 031d 06       		.byte	0x6
 660 031e 5C       		.byte	0x5c
 661 031f 23030000 		.4byte	0x323
 662 0323 09       		.uleb128 0x9
 663 0324 04       		.byte	0x4
 664 0325 29030000 		.4byte	0x329
 665 0329 0B       		.uleb128 0xb
 666 032a 34030000 		.4byte	0x334
 667 032e 0C       		.uleb128 0xc
 668 032f 34030000 		.4byte	0x334
 669 0333 00       		.byte	0
 670 0334 0D       		.uleb128 0xd
 671 0335 04       		.byte	0x4
 672 0336 03       		.uleb128 0x3
 673 0337 03030000 		.4byte	.LASF63
 674 033b 06       		.byte	0x6
 675 033c 61       		.byte	0x61
 676 033d 41030000 		.4byte	0x341
 677 0341 0A       		.uleb128 0xa
 678 0342 BD040000 		.4byte	.LASF64
 679 0346 14       		.byte	0x14
 680 0347 07       		.byte	0x7
 681 0348 6B01     		.2byte	0x16b
 682 034a 90030000 		.4byte	0x390
 683 034e 08       		.uleb128 0x8
 684 034f FF010000 		.4byte	.LASF65
ARM GAS  /var/folders/m4/4md61f0s1_g0rzfghffqnxvr0000gn/T//ccJ0mkNR.s 			page 13


 685 0353 07       		.byte	0x7
 686 0354 6C01     		.2byte	0x16c
 687 0356 6E090000 		.4byte	0x96e
 688 035a 00       		.byte	0
 689 035b 08       		.uleb128 0x8
 690 035c B7010000 		.4byte	.LASF66
 691 0360 07       		.byte	0x7
 692 0361 6D01     		.2byte	0x16d
 693 0363 6E090000 		.4byte	0x96e
 694 0367 04       		.byte	0x4
 695 0368 08       		.uleb128 0x8
 696 0369 30020000 		.4byte	.LASF67
 697 036d 07       		.byte	0x7
 698 036e 6E01     		.2byte	0x16e
 699 0370 31010000 		.4byte	0x131
 700 0374 08       		.byte	0x8
 701 0375 08       		.uleb128 0x8
 702 0376 45070000 		.4byte	.LASF68
 703 037a 07       		.byte	0x7
 704 037b 6F01     		.2byte	0x16f
 705 037d 18030000 		.4byte	0x318
 706 0381 0C       		.byte	0xc
 707 0382 08       		.uleb128 0x8
 708 0383 C5060000 		.4byte	.LASF69
 709 0387 07       		.byte	0x7
 710 0388 7101     		.2byte	0x171
 711 038a 34030000 		.4byte	0x334
 712 038e 10       		.byte	0x10
 713 038f 00       		.byte	0
 714 0390 03       		.uleb128 0x3
 715 0391 AD000000 		.4byte	.LASF70
 716 0395 06       		.byte	0x6
 717 0396 66       		.byte	0x66
 718 0397 9B030000 		.4byte	0x39b
 719 039b 0A       		.uleb128 0xa
 720 039c 39030000 		.4byte	.LASF71
 721 03a0 10       		.byte	0x10
 722 03a1 07       		.byte	0x7
 723 03a2 7B01     		.2byte	0x17b
 724 03a4 DD030000 		.4byte	0x3dd
 725 03a8 08       		.uleb128 0x8
 726 03a9 FF010000 		.4byte	.LASF65
 727 03ad 07       		.byte	0x7
 728 03ae 7C01     		.2byte	0x17c
 729 03b0 6E090000 		.4byte	0x96e
 730 03b4 00       		.byte	0
 731 03b5 08       		.uleb128 0x8
 732 03b6 B7010000 		.4byte	.LASF66
 733 03ba 07       		.byte	0x7
 734 03bb 7E01     		.2byte	0x17e
 735 03bd 6E090000 		.4byte	0x96e
 736 03c1 04       		.byte	0x4
 737 03c2 08       		.uleb128 0x8
 738 03c3 30020000 		.4byte	.LASF67
 739 03c7 07       		.byte	0x7
 740 03c8 8001     		.2byte	0x180
 741 03ca 31010000 		.4byte	0x131
ARM GAS  /var/folders/m4/4md61f0s1_g0rzfghffqnxvr0000gn/T//ccJ0mkNR.s 			page 14


 742 03ce 08       		.byte	0x8
 743 03cf 08       		.uleb128 0x8
 744 03d0 25020000 		.4byte	.LASF72
 745 03d4 07       		.byte	0x7
 746 03d5 8201     		.2byte	0x182
 747 03d7 69090000 		.4byte	0x969
 748 03db 0C       		.byte	0xc
 749 03dc 00       		.byte	0
 750 03dd 03       		.uleb128 0x3
 751 03de 66000000 		.4byte	.LASF73
 752 03e2 06       		.byte	0x6
 753 03e3 6B       		.byte	0x6b
 754 03e4 E8030000 		.4byte	0x3e8
 755 03e8 0A       		.uleb128 0xa
 756 03e9 3A040000 		.4byte	.LASF74
 757 03ed 04       		.byte	0x4
 758 03ee 07       		.byte	0x7
 759 03ef A201     		.2byte	0x1a2
 760 03f1 03040000 		.4byte	0x403
 761 03f5 08       		.uleb128 0x8
 762 03f6 7F060000 		.4byte	.LASF75
 763 03fa 07       		.byte	0x7
 764 03fb AA01     		.2byte	0x1aa
 765 03fd 74090000 		.4byte	0x974
 766 0401 00       		.byte	0
 767 0402 00       		.byte	0
 768 0403 03       		.uleb128 0x3
 769 0404 A7020000 		.4byte	.LASF76
 770 0408 06       		.byte	0x6
 771 0409 70       		.byte	0x70
 772 040a 0E040000 		.4byte	0x40e
 773 040e 0E       		.uleb128 0xe
 774 040f 67010000 		.4byte	.LASF77
 775 0413 5802     		.2byte	0x258
 776 0415 07       		.byte	0x7
 777 0416 C201     		.2byte	0x1c2
 778 0418 6A040000 		.4byte	0x46a
 779 041c 08       		.uleb128 0x8
 780 041d 00070000 		.4byte	.LASF78
 781 0421 07       		.byte	0x7
 782 0422 C601     		.2byte	0x1c6
 783 0424 B1020000 		.4byte	0x2b1
 784 0428 00       		.byte	0
 785 0429 08       		.uleb128 0x8
 786 042a 44010000 		.4byte	.LASF79
 787 042e 07       		.byte	0x7
 788 042f CA01     		.2byte	0x1ca
 789 0431 90030000 		.4byte	0x390
 790 0435 1C       		.byte	0x1c
 791 0436 07       		.uleb128 0x7
 792 0437 64626700 		.ascii	"dbg\000"
 793 043b 07       		.byte	0x7
 794 043c CE01     		.2byte	0x1ce
 795 043e DD030000 		.4byte	0x3dd
 796 0442 2C       		.byte	0x2c
 797 0443 08       		.uleb128 0x8
 798 0444 A2000000 		.4byte	.LASF80
ARM GAS  /var/folders/m4/4md61f0s1_g0rzfghffqnxvr0000gn/T//ccJ0mkNR.s 			page 15


 799 0448 07       		.byte	0x7
 800 0449 D201     		.2byte	0x1d2
 801 044b 3C010000 		.4byte	0x13c
 802 044f 30       		.byte	0x30
 803 0450 07       		.uleb128 0x7
 804 0451 746D00   		.ascii	"tm\000"
 805 0454 07       		.byte	0x7
 806 0455 D701     		.2byte	0x1d7
 807 0457 87080000 		.4byte	0x887
 808 045b 78       		.byte	0x78
 809 045c 08       		.uleb128 0x8
 810 045d DD010000 		.4byte	.LASF81
 811 0461 07       		.byte	0x7
 812 0462 E301     		.2byte	0x1e3
 813 0464 79090000 		.4byte	0x979
 814 0468 80       		.byte	0x80
 815 0469 00       		.byte	0
 816 046a 04       		.uleb128 0x4
 817 046b 04       		.byte	0x4
 818 046c 07       		.byte	0x7
 819 046d 1D030000 		.4byte	.LASF82
 820 0471 0F       		.uleb128 0xf
 821 0472 B8000000 		.4byte	0xb8
 822 0476 10       		.uleb128 0x10
 823 0477 B8000000 		.4byte	0xb8
 824 047b 86040000 		.4byte	0x486
 825 047f 11       		.uleb128 0x11
 826 0480 6A040000 		.4byte	0x46a
 827 0484 01       		.byte	0x1
 828 0485 00       		.byte	0
 829 0486 12       		.uleb128 0x12
 830 0487 1C       		.byte	0x1c
 831 0488 08       		.byte	0x8
 832 0489 A201     		.2byte	0x1a2
 833 048b E9040000 		.4byte	0x4e9
 834 048f 07       		.uleb128 0x7
 835 0490 41435200 		.ascii	"ACR\000"
 836 0494 08       		.byte	0x8
 837 0495 A401     		.2byte	0x1a4
 838 0497 71040000 		.4byte	0x471
 839 049b 00       		.byte	0
 840 049c 08       		.uleb128 0x8
 841 049d BF010000 		.4byte	.LASF83
 842 04a1 08       		.byte	0x8
 843 04a2 A501     		.2byte	0x1a5
 844 04a4 71040000 		.4byte	0x471
 845 04a8 04       		.byte	0x4
 846 04a9 08       		.uleb128 0x8
 847 04aa 9E010000 		.4byte	.LASF84
 848 04ae 08       		.byte	0x8
 849 04af A601     		.2byte	0x1a6
 850 04b1 71040000 		.4byte	0x471
 851 04b5 08       		.byte	0x8
 852 04b6 07       		.uleb128 0x7
 853 04b7 535200   		.ascii	"SR\000"
 854 04ba 08       		.byte	0x8
 855 04bb A701     		.2byte	0x1a7
ARM GAS  /var/folders/m4/4md61f0s1_g0rzfghffqnxvr0000gn/T//ccJ0mkNR.s 			page 16


 856 04bd 71040000 		.4byte	0x471
 857 04c1 0C       		.byte	0xc
 858 04c2 07       		.uleb128 0x7
 859 04c3 435200   		.ascii	"CR\000"
 860 04c6 08       		.byte	0x8
 861 04c7 A801     		.2byte	0x1a8
 862 04c9 71040000 		.4byte	0x471
 863 04cd 10       		.byte	0x10
 864 04ce 08       		.uleb128 0x8
 865 04cf 75000000 		.4byte	.LASF85
 866 04d3 08       		.byte	0x8
 867 04d4 A901     		.2byte	0x1a9
 868 04d6 71040000 		.4byte	0x471
 869 04da 14       		.byte	0x14
 870 04db 08       		.uleb128 0x8
 871 04dc 7B000000 		.4byte	.LASF86
 872 04e0 08       		.byte	0x8
 873 04e1 AA01     		.2byte	0x1aa
 874 04e3 71040000 		.4byte	0x471
 875 04e7 18       		.byte	0x18
 876 04e8 00       		.byte	0
 877 04e9 13       		.uleb128 0x13
 878 04ea 26010000 		.4byte	.LASF87
 879 04ee 08       		.byte	0x8
 880 04ef AB01     		.2byte	0x1ab
 881 04f1 86040000 		.4byte	0x486
 882 04f5 12       		.uleb128 0x12
 883 04f6 08       		.byte	0x8
 884 04f7 08       		.byte	0x8
 885 04f8 2F02     		.2byte	0x22f
 886 04fa 18050000 		.4byte	0x518
 887 04fe 07       		.uleb128 0x7
 888 04ff 435200   		.ascii	"CR\000"
 889 0502 08       		.byte	0x8
 890 0503 3102     		.2byte	0x231
 891 0505 71040000 		.4byte	0x471
 892 0509 00       		.byte	0
 893 050a 07       		.uleb128 0x7
 894 050b 43535200 		.ascii	"CSR\000"
 895 050f 08       		.byte	0x8
 896 0510 3202     		.2byte	0x232
 897 0512 71040000 		.4byte	0x471
 898 0516 04       		.byte	0x4
 899 0517 00       		.byte	0
 900 0518 13       		.uleb128 0x13
 901 0519 4B010000 		.4byte	.LASF88
 902 051d 08       		.byte	0x8
 903 051e 3302     		.2byte	0x233
 904 0520 F5040000 		.4byte	0x4f5
 905 0524 12       		.uleb128 0x12
 906 0525 98       		.byte	0x98
 907 0526 08       		.byte	0x8
 908 0527 3902     		.2byte	0x239
 909 0529 E7060000 		.4byte	0x6e7
 910 052d 07       		.uleb128 0x7
 911 052e 435200   		.ascii	"CR\000"
 912 0531 08       		.byte	0x8
ARM GAS  /var/folders/m4/4md61f0s1_g0rzfghffqnxvr0000gn/T//ccJ0mkNR.s 			page 17


 913 0532 3B02     		.2byte	0x23b
 914 0534 71040000 		.4byte	0x471
 915 0538 00       		.byte	0
 916 0539 08       		.uleb128 0x8
 917 053a 84020000 		.4byte	.LASF89
 918 053e 08       		.byte	0x8
 919 053f 3C02     		.2byte	0x23c
 920 0541 71040000 		.4byte	0x471
 921 0545 04       		.byte	0x4
 922 0546 08       		.uleb128 0x8
 923 0547 24070000 		.4byte	.LASF90
 924 054b 08       		.byte	0x8
 925 054c 3D02     		.2byte	0x23d
 926 054e 71040000 		.4byte	0x471
 927 0552 08       		.byte	0x8
 928 0553 07       		.uleb128 0x7
 929 0554 43495200 		.ascii	"CIR\000"
 930 0558 08       		.byte	0x8
 931 0559 3E02     		.2byte	0x23e
 932 055b 71040000 		.4byte	0x471
 933 055f 0C       		.byte	0xc
 934 0560 08       		.uleb128 0x8
 935 0561 14010000 		.4byte	.LASF91
 936 0565 08       		.byte	0x8
 937 0566 3F02     		.2byte	0x23f
 938 0568 71040000 		.4byte	0x471
 939 056c 10       		.byte	0x10
 940 056d 08       		.uleb128 0x8
 941 056e 3D060000 		.4byte	.LASF92
 942 0572 08       		.byte	0x8
 943 0573 4002     		.2byte	0x240
 944 0575 71040000 		.4byte	0x471
 945 0579 14       		.byte	0x14
 946 057a 08       		.uleb128 0x8
 947 057b B4040000 		.4byte	.LASF93
 948 057f 08       		.byte	0x8
 949 0580 4102     		.2byte	0x241
 950 0582 71040000 		.4byte	0x471
 951 0586 18       		.byte	0x18
 952 0587 08       		.uleb128 0x8
 953 0588 B9030000 		.4byte	.LASF94
 954 058c 08       		.byte	0x8
 955 058d 4202     		.2byte	0x242
 956 058f B8000000 		.4byte	0xb8
 957 0593 1C       		.byte	0x1c
 958 0594 08       		.uleb128 0x8
 959 0595 92030000 		.4byte	.LASF95
 960 0599 08       		.byte	0x8
 961 059a 4302     		.2byte	0x243
 962 059c 71040000 		.4byte	0x471
 963 05a0 20       		.byte	0x20
 964 05a1 08       		.uleb128 0x8
 965 05a2 7A010000 		.4byte	.LASF96
 966 05a6 08       		.byte	0x8
 967 05a7 4402     		.2byte	0x244
 968 05a9 71040000 		.4byte	0x471
 969 05ad 24       		.byte	0x24
ARM GAS  /var/folders/m4/4md61f0s1_g0rzfghffqnxvr0000gn/T//ccJ0mkNR.s 			page 18


 970 05ae 08       		.uleb128 0x8
 971 05af C3030000 		.4byte	.LASF97
 972 05b3 08       		.byte	0x8
 973 05b4 4502     		.2byte	0x245
 974 05b6 76040000 		.4byte	0x476
 975 05ba 28       		.byte	0x28
 976 05bb 08       		.uleb128 0x8
 977 05bc 1C070000 		.4byte	.LASF98
 978 05c0 08       		.byte	0x8
 979 05c1 4602     		.2byte	0x246
 980 05c3 71040000 		.4byte	0x471
 981 05c7 30       		.byte	0x30
 982 05c8 08       		.uleb128 0x8
 983 05c9 98060000 		.4byte	.LASF99
 984 05cd 08       		.byte	0x8
 985 05ce 4702     		.2byte	0x247
 986 05d0 71040000 		.4byte	0x471
 987 05d4 34       		.byte	0x34
 988 05d5 08       		.uleb128 0x8
 989 05d6 57030000 		.4byte	.LASF100
 990 05da 08       		.byte	0x8
 991 05db 4802     		.2byte	0x248
 992 05dd 71040000 		.4byte	0x471
 993 05e1 38       		.byte	0x38
 994 05e2 08       		.uleb128 0x8
 995 05e3 CD030000 		.4byte	.LASF101
 996 05e7 08       		.byte	0x8
 997 05e8 4902     		.2byte	0x249
 998 05ea B8000000 		.4byte	0xb8
 999 05ee 3C       		.byte	0x3c
 1000 05ef 08       		.uleb128 0x8
 1001 05f0 90060000 		.4byte	.LASF102
 1002 05f4 08       		.byte	0x8
 1003 05f5 4A02     		.2byte	0x24a
 1004 05f7 71040000 		.4byte	0x471
 1005 05fb 40       		.byte	0x40
 1006 05fc 08       		.uleb128 0x8
 1007 05fd AC040000 		.4byte	.LASF103
 1008 0601 08       		.byte	0x8
 1009 0602 4B02     		.2byte	0x24b
 1010 0604 71040000 		.4byte	0x471
 1011 0608 44       		.byte	0x44
 1012 0609 08       		.uleb128 0x8
 1013 060a D7030000 		.4byte	.LASF104
 1014 060e 08       		.byte	0x8
 1015 060f 4C02     		.2byte	0x24c
 1016 0611 76040000 		.4byte	0x476
 1017 0615 48       		.byte	0x48
 1018 0616 08       		.uleb128 0x8
 1019 0617 E1000000 		.4byte	.LASF105
 1020 061b 08       		.byte	0x8
 1021 061c 4D02     		.2byte	0x24d
 1022 061e 71040000 		.4byte	0x471
 1023 0622 50       		.byte	0x50
 1024 0623 08       		.uleb128 0x8
 1025 0624 6D030000 		.4byte	.LASF106
 1026 0628 08       		.byte	0x8
ARM GAS  /var/folders/m4/4md61f0s1_g0rzfghffqnxvr0000gn/T//ccJ0mkNR.s 			page 19


 1027 0629 4E02     		.2byte	0x24e
 1028 062b 71040000 		.4byte	0x471
 1029 062f 54       		.byte	0x54
 1030 0630 08       		.uleb128 0x8
 1031 0631 8C040000 		.4byte	.LASF107
 1032 0635 08       		.byte	0x8
 1033 0636 4F02     		.2byte	0x24f
 1034 0638 71040000 		.4byte	0x471
 1035 063c 58       		.byte	0x58
 1036 063d 08       		.uleb128 0x8
 1037 063e E1030000 		.4byte	.LASF108
 1038 0642 08       		.byte	0x8
 1039 0643 5002     		.2byte	0x250
 1040 0645 B8000000 		.4byte	0xb8
 1041 0649 5C       		.byte	0x5c
 1042 064a 08       		.uleb128 0x8
 1043 064b 83010000 		.4byte	.LASF109
 1044 064f 08       		.byte	0x8
 1045 0650 5102     		.2byte	0x251
 1046 0652 71040000 		.4byte	0x471
 1047 0656 60       		.byte	0x60
 1048 0657 08       		.uleb128 0x8
 1049 0658 BB020000 		.4byte	.LASF110
 1050 065c 08       		.byte	0x8
 1051 065d 5202     		.2byte	0x252
 1052 065f 71040000 		.4byte	0x471
 1053 0663 64       		.byte	0x64
 1054 0664 08       		.uleb128 0x8
 1055 0665 E6040000 		.4byte	.LASF111
 1056 0669 08       		.byte	0x8
 1057 066a 5302     		.2byte	0x253
 1058 066c 76040000 		.4byte	0x476
 1059 0670 68       		.byte	0x68
 1060 0671 08       		.uleb128 0x8
 1061 0672 FB060000 		.4byte	.LASF112
 1062 0676 08       		.byte	0x8
 1063 0677 5402     		.2byte	0x254
 1064 0679 71040000 		.4byte	0x471
 1065 067d 70       		.byte	0x70
 1066 067e 07       		.uleb128 0x7
 1067 067f 43535200 		.ascii	"CSR\000"
 1068 0683 08       		.byte	0x8
 1069 0684 5502     		.2byte	0x255
 1070 0686 71040000 		.4byte	0x471
 1071 068a 74       		.byte	0x74
 1072 068b 08       		.uleb128 0x8
 1073 068c F2030000 		.4byte	.LASF113
 1074 0690 08       		.byte	0x8
 1075 0691 5602     		.2byte	0x256
 1076 0693 76040000 		.4byte	0x476
 1077 0697 78       		.byte	0x78
 1078 0698 08       		.uleb128 0x8
 1079 0699 CC060000 		.4byte	.LASF114
 1080 069d 08       		.byte	0x8
 1081 069e 5702     		.2byte	0x257
 1082 06a0 71040000 		.4byte	0x471
 1083 06a4 80       		.byte	0x80
ARM GAS  /var/folders/m4/4md61f0s1_g0rzfghffqnxvr0000gn/T//ccJ0mkNR.s 			page 20


 1084 06a5 08       		.uleb128 0x8
 1085 06a6 73020000 		.4byte	.LASF115
 1086 06aa 08       		.byte	0x8
 1087 06ab 5802     		.2byte	0x258
 1088 06ad 71040000 		.4byte	0x471
 1089 06b1 84       		.byte	0x84
 1090 06b2 08       		.uleb128 0x8
 1091 06b3 A6030000 		.4byte	.LASF116
 1092 06b7 08       		.byte	0x8
 1093 06b8 5902     		.2byte	0x259
 1094 06ba 71040000 		.4byte	0x471
 1095 06be 88       		.byte	0x88
 1096 06bf 08       		.uleb128 0x8
 1097 06c0 F2000000 		.4byte	.LASF117
 1098 06c4 08       		.byte	0x8
 1099 06c5 5A02     		.2byte	0x25a
 1100 06c7 71040000 		.4byte	0x471
 1101 06cb 8C       		.byte	0x8c
 1102 06cc 08       		.uleb128 0x8
 1103 06cd F2060000 		.4byte	.LASF118
 1104 06d1 08       		.byte	0x8
 1105 06d2 5B02     		.2byte	0x25b
 1106 06d4 71040000 		.4byte	0x471
 1107 06d8 90       		.byte	0x90
 1108 06d9 08       		.uleb128 0x8
 1109 06da 1D010000 		.4byte	.LASF119
 1110 06de 08       		.byte	0x8
 1111 06df 5C02     		.2byte	0x25c
 1112 06e1 71040000 		.4byte	0x471
 1113 06e5 94       		.byte	0x94
 1114 06e6 00       		.byte	0
 1115 06e7 13       		.uleb128 0x13
 1116 06e8 44020000 		.4byte	.LASF120
 1117 06ec 08       		.byte	0x8
 1118 06ed 5D02     		.2byte	0x25d
 1119 06ef 24050000 		.4byte	0x524
 1120 06f3 03       		.uleb128 0x3
 1121 06f4 AE010000 		.4byte	.LASF121
 1122 06f8 09       		.byte	0x9
 1123 06f9 65       		.byte	0x65
 1124 06fa 34030000 		.4byte	0x334
 1125 06fe 03       		.uleb128 0x3
 1126 06ff E9020000 		.4byte	.LASF122
 1127 0703 09       		.byte	0x9
 1128 0704 6D       		.byte	0x6d
 1129 0705 C3000000 		.4byte	0xc3
 1130 0709 05       		.uleb128 0x5
 1131 070a A0060000 		.4byte	.LASF123
 1132 070e 04       		.byte	0x4
 1133 070f 09       		.byte	0x9
 1134 0710 89       		.byte	0x89
 1135 0711 22070000 		.4byte	0x722
 1136 0715 14       		.uleb128 0x14
 1137 0716 72313300 		.ascii	"r13\000"
 1138 071a 09       		.byte	0x9
 1139 071b 8A       		.byte	0x8a
 1140 071c 6C080000 		.4byte	0x86c
ARM GAS  /var/folders/m4/4md61f0s1_g0rzfghffqnxvr0000gn/T//ccJ0mkNR.s 			page 21


 1141 0720 00       		.byte	0
 1142 0721 00       		.byte	0
 1143 0722 05       		.uleb128 0x5
 1144 0723 5A000000 		.4byte	.LASF124
 1145 0727 64       		.byte	0x64
 1146 0728 0A       		.byte	0xa
 1147 0729 FD       		.byte	0xfd
 1148 072a 6C080000 		.4byte	0x86c
 1149 072e 14       		.uleb128 0x14
 1150 072f 73313600 		.ascii	"s16\000"
 1151 0733 0A       		.byte	0xa
 1152 0734 FF       		.byte	0xff
 1153 0735 F3060000 		.4byte	0x6f3
 1154 0739 00       		.byte	0
 1155 073a 07       		.uleb128 0x7
 1156 073b 73313700 		.ascii	"s17\000"
 1157 073f 0A       		.byte	0xa
 1158 0740 0001     		.2byte	0x100
 1159 0742 F3060000 		.4byte	0x6f3
 1160 0746 04       		.byte	0x4
 1161 0747 07       		.uleb128 0x7
 1162 0748 73313800 		.ascii	"s18\000"
 1163 074c 0A       		.byte	0xa
 1164 074d 0101     		.2byte	0x101
 1165 074f F3060000 		.4byte	0x6f3
 1166 0753 08       		.byte	0x8
 1167 0754 07       		.uleb128 0x7
 1168 0755 73313900 		.ascii	"s19\000"
 1169 0759 0A       		.byte	0xa
 1170 075a 0201     		.2byte	0x102
 1171 075c F3060000 		.4byte	0x6f3
 1172 0760 0C       		.byte	0xc
 1173 0761 07       		.uleb128 0x7
 1174 0762 73323000 		.ascii	"s20\000"
 1175 0766 0A       		.byte	0xa
 1176 0767 0301     		.2byte	0x103
 1177 0769 F3060000 		.4byte	0x6f3
 1178 076d 10       		.byte	0x10
 1179 076e 07       		.uleb128 0x7
 1180 076f 73323100 		.ascii	"s21\000"
 1181 0773 0A       		.byte	0xa
 1182 0774 0401     		.2byte	0x104
 1183 0776 F3060000 		.4byte	0x6f3
 1184 077a 14       		.byte	0x14
 1185 077b 07       		.uleb128 0x7
 1186 077c 73323200 		.ascii	"s22\000"
 1187 0780 0A       		.byte	0xa
 1188 0781 0501     		.2byte	0x105
 1189 0783 F3060000 		.4byte	0x6f3
 1190 0787 18       		.byte	0x18
 1191 0788 07       		.uleb128 0x7
 1192 0789 73323300 		.ascii	"s23\000"
 1193 078d 0A       		.byte	0xa
 1194 078e 0601     		.2byte	0x106
 1195 0790 F3060000 		.4byte	0x6f3
 1196 0794 1C       		.byte	0x1c
 1197 0795 07       		.uleb128 0x7
ARM GAS  /var/folders/m4/4md61f0s1_g0rzfghffqnxvr0000gn/T//ccJ0mkNR.s 			page 22


 1198 0796 73323400 		.ascii	"s24\000"
 1199 079a 0A       		.byte	0xa
 1200 079b 0701     		.2byte	0x107
 1201 079d F3060000 		.4byte	0x6f3
 1202 07a1 20       		.byte	0x20
 1203 07a2 07       		.uleb128 0x7
 1204 07a3 73323500 		.ascii	"s25\000"
 1205 07a7 0A       		.byte	0xa
 1206 07a8 0801     		.2byte	0x108
 1207 07aa F3060000 		.4byte	0x6f3
 1208 07ae 24       		.byte	0x24
 1209 07af 07       		.uleb128 0x7
 1210 07b0 73323600 		.ascii	"s26\000"
 1211 07b4 0A       		.byte	0xa
 1212 07b5 0901     		.2byte	0x109
 1213 07b7 F3060000 		.4byte	0x6f3
 1214 07bb 28       		.byte	0x28
 1215 07bc 07       		.uleb128 0x7
 1216 07bd 73323700 		.ascii	"s27\000"
 1217 07c1 0A       		.byte	0xa
 1218 07c2 0A01     		.2byte	0x10a
 1219 07c4 F3060000 		.4byte	0x6f3
 1220 07c8 2C       		.byte	0x2c
 1221 07c9 07       		.uleb128 0x7
 1222 07ca 73323800 		.ascii	"s28\000"
 1223 07ce 0A       		.byte	0xa
 1224 07cf 0B01     		.2byte	0x10b
 1225 07d1 F3060000 		.4byte	0x6f3
 1226 07d5 30       		.byte	0x30
 1227 07d6 07       		.uleb128 0x7
 1228 07d7 73323900 		.ascii	"s29\000"
 1229 07db 0A       		.byte	0xa
 1230 07dc 0C01     		.2byte	0x10c
 1231 07de F3060000 		.4byte	0x6f3
 1232 07e2 34       		.byte	0x34
 1233 07e3 07       		.uleb128 0x7
 1234 07e4 73333000 		.ascii	"s30\000"
 1235 07e8 0A       		.byte	0xa
 1236 07e9 0D01     		.2byte	0x10d
 1237 07eb F3060000 		.4byte	0x6f3
 1238 07ef 38       		.byte	0x38
 1239 07f0 07       		.uleb128 0x7
 1240 07f1 73333100 		.ascii	"s31\000"
 1241 07f5 0A       		.byte	0xa
 1242 07f6 0E01     		.2byte	0x10e
 1243 07f8 F3060000 		.4byte	0x6f3
 1244 07fc 3C       		.byte	0x3c
 1245 07fd 07       		.uleb128 0x7
 1246 07fe 723400   		.ascii	"r4\000"
 1247 0801 0A       		.byte	0xa
 1248 0802 1001     		.2byte	0x110
 1249 0804 F3060000 		.4byte	0x6f3
 1250 0808 40       		.byte	0x40
 1251 0809 07       		.uleb128 0x7
 1252 080a 723500   		.ascii	"r5\000"
 1253 080d 0A       		.byte	0xa
 1254 080e 1101     		.2byte	0x111
ARM GAS  /var/folders/m4/4md61f0s1_g0rzfghffqnxvr0000gn/T//ccJ0mkNR.s 			page 23


 1255 0810 F3060000 		.4byte	0x6f3
 1256 0814 44       		.byte	0x44
 1257 0815 07       		.uleb128 0x7
 1258 0816 723600   		.ascii	"r6\000"
 1259 0819 0A       		.byte	0xa
 1260 081a 1201     		.2byte	0x112
 1261 081c F3060000 		.4byte	0x6f3
 1262 0820 48       		.byte	0x48
 1263 0821 07       		.uleb128 0x7
 1264 0822 723700   		.ascii	"r7\000"
 1265 0825 0A       		.byte	0xa
 1266 0826 1301     		.2byte	0x113
 1267 0828 F3060000 		.4byte	0x6f3
 1268 082c 4C       		.byte	0x4c
 1269 082d 07       		.uleb128 0x7
 1270 082e 723800   		.ascii	"r8\000"
 1271 0831 0A       		.byte	0xa
 1272 0832 1401     		.2byte	0x114
 1273 0834 F3060000 		.4byte	0x6f3
 1274 0838 50       		.byte	0x50
 1275 0839 07       		.uleb128 0x7
 1276 083a 723900   		.ascii	"r9\000"
 1277 083d 0A       		.byte	0xa
 1278 083e 1501     		.2byte	0x115
 1279 0840 F3060000 		.4byte	0x6f3
 1280 0844 54       		.byte	0x54
 1281 0845 07       		.uleb128 0x7
 1282 0846 72313000 		.ascii	"r10\000"
 1283 084a 0A       		.byte	0xa
 1284 084b 1601     		.2byte	0x116
 1285 084d F3060000 		.4byte	0x6f3
 1286 0851 58       		.byte	0x58
 1287 0852 07       		.uleb128 0x7
 1288 0853 72313100 		.ascii	"r11\000"
 1289 0857 0A       		.byte	0xa
 1290 0858 1701     		.2byte	0x117
 1291 085a F3060000 		.4byte	0x6f3
 1292 085e 5C       		.byte	0x5c
 1293 085f 07       		.uleb128 0x7
 1294 0860 6C7200   		.ascii	"lr\000"
 1295 0863 0A       		.byte	0xa
 1296 0864 1801     		.2byte	0x118
 1297 0866 F3060000 		.4byte	0x6f3
 1298 086a 60       		.byte	0x60
 1299 086b 00       		.byte	0
 1300 086c 09       		.uleb128 0x9
 1301 086d 04       		.byte	0x4
 1302 086e 22070000 		.4byte	0x722
 1303 0872 15       		.uleb128 0x15
 1304 0873 04       		.byte	0x4
 1305 0874 0B       		.byte	0xb
 1306 0875 38       		.byte	0x38
 1307 0876 87080000 		.4byte	0x887
 1308 087a 06       		.uleb128 0x6
 1309 087b 89060000 		.4byte	.LASF125
 1310 087f 0B       		.byte	0xb
 1311 0880 3C       		.byte	0x3c
ARM GAS  /var/folders/m4/4md61f0s1_g0rzfghffqnxvr0000gn/T//ccJ0mkNR.s 			page 24


 1312 0881 CE000000 		.4byte	0xce
 1313 0885 00       		.byte	0
 1314 0886 00       		.byte	0
 1315 0887 03       		.uleb128 0x3
 1316 0888 77030000 		.4byte	.LASF126
 1317 088c 0B       		.byte	0xb
 1318 088d 3D       		.byte	0x3d
 1319 088e 72080000 		.4byte	0x872
 1320 0892 16       		.uleb128 0x16
 1321 0893 04       		.byte	0x4
 1322 0894 07       		.byte	0x7
 1323 0895 FA       		.byte	0xfa
 1324 0896 EF080000 		.4byte	0x8ef
 1325 089a 17       		.uleb128 0x17
 1326 089b 40000000 		.4byte	.LASF127
 1327 089f 07       		.byte	0x7
 1328 08a0 0101     		.2byte	0x101
 1329 08a2 10010000 		.4byte	0x110
 1330 08a6 17       		.uleb128 0x17
 1331 08a7 99000000 		.4byte	.LASF128
 1332 08ab 07       		.byte	0x7
 1333 08ac 0801     		.2byte	0x108
 1334 08ae 10010000 		.4byte	0x110
 1335 08b2 17       		.uleb128 0x17
 1336 08b3 0E070000 		.4byte	.LASF129
 1337 08b7 07       		.byte	0x7
 1338 08b8 0F01     		.2byte	0x10f
 1339 08ba 34030000 		.4byte	0x334
 1340 08be 17       		.uleb128 0x17
 1341 08bf 61010000 		.4byte	.LASF130
 1342 08c3 07       		.byte	0x7
 1343 08c4 1601     		.2byte	0x116
 1344 08c6 EF080000 		.4byte	0x8ef
 1345 08ca 17       		.uleb128 0x17
 1346 08cb 1E020000 		.4byte	.LASF131
 1347 08cf 07       		.byte	0x7
 1348 08d0 1E01     		.2byte	0x11e
 1349 08d2 1A090000 		.4byte	0x91a
 1350 08d6 17       		.uleb128 0x17
 1351 08d7 F9040000 		.4byte	.LASF132
 1352 08db 07       		.byte	0x7
 1353 08dc 2701     		.2byte	0x127
 1354 08de 51090000 		.4byte	0x951
 1355 08e2 17       		.uleb128 0x17
 1356 08e3 9D040000 		.4byte	.LASF133
 1357 08e7 07       		.byte	0x7
 1358 08e8 2F01     		.2byte	0x12f
 1359 08ea 1B010000 		.4byte	0x11b
 1360 08ee 00       		.byte	0
 1361 08ef 09       		.uleb128 0x9
 1362 08f0 04       		.byte	0x4
 1363 08f1 4C020000 		.4byte	0x24c
 1364 08f5 05       		.uleb128 0x5
 1365 08f6 CE040000 		.4byte	.LASF134
 1366 08fa 0C       		.byte	0xc
 1367 08fb 0C       		.byte	0xc
 1368 08fc 34       		.byte	0x34
ARM GAS  /var/folders/m4/4md61f0s1_g0rzfghffqnxvr0000gn/T//ccJ0mkNR.s 			page 25


 1369 08fd 1A090000 		.4byte	0x91a
 1370 0901 06       		.uleb128 0x6
 1371 0902 29070000 		.4byte	.LASF135
 1372 0906 0C       		.byte	0xc
 1373 0907 35       		.byte	0x35
 1374 0908 81020000 		.4byte	0x281
 1375 090c 00       		.byte	0
 1376 090d 06       		.uleb128 0x6
 1377 090e 50020000 		.4byte	.LASF136
 1378 0912 0C       		.byte	0xc
 1379 0913 37       		.byte	0x37
 1380 0914 26010000 		.4byte	0x126
 1381 0918 08       		.byte	0x8
 1382 0919 00       		.byte	0
 1383 091a 09       		.uleb128 0x9
 1384 091b 04       		.byte	0x4
 1385 091c F5080000 		.4byte	0x8f5
 1386 0920 05       		.uleb128 0x5
 1387 0921 E2060000 		.4byte	.LASF137
 1388 0925 10       		.byte	0x10
 1389 0926 0D       		.byte	0xd
 1390 0927 39       		.byte	0x39
 1391 0928 51090000 		.4byte	0x951
 1392 092c 06       		.uleb128 0x6
 1393 092d 3C010000 		.4byte	.LASF138
 1394 0931 0D       		.byte	0xd
 1395 0932 3A       		.byte	0x3a
 1396 0933 81020000 		.4byte	0x281
 1397 0937 00       		.byte	0
 1398 0938 06       		.uleb128 0x6
 1399 0939 37070000 		.4byte	.LASF139
 1400 093d 0D       		.byte	0xd
 1401 093e 3C       		.byte	0x3c
 1402 093f 57020000 		.4byte	0x257
 1403 0943 08       		.byte	0x8
 1404 0944 06       		.uleb128 0x6
 1405 0945 4F060000 		.4byte	.LASF140
 1406 0949 0D       		.byte	0xd
 1407 094a 3E       		.byte	0x3e
 1408 094b 94090000 		.4byte	0x994
 1409 094f 0C       		.byte	0xc
 1410 0950 00       		.byte	0
 1411 0951 09       		.uleb128 0x9
 1412 0952 04       		.byte	0x4
 1413 0953 20090000 		.4byte	0x920
 1414 0957 09       		.uleb128 0x9
 1415 0958 04       		.byte	0x4
 1416 0959 64090000 		.4byte	0x964
 1417 095d 04       		.uleb128 0x4
 1418 095e 01       		.byte	0x1
 1419 095f 08       		.byte	0x8
 1420 0960 32050000 		.4byte	.LASF141
 1421 0964 18       		.uleb128 0x18
 1422 0965 5D090000 		.4byte	0x95d
 1423 0969 0F       		.uleb128 0xf
 1424 096a 31010000 		.4byte	0x131
 1425 096e 09       		.uleb128 0x9
ARM GAS  /var/folders/m4/4md61f0s1_g0rzfghffqnxvr0000gn/T//ccJ0mkNR.s 			page 26


 1426 096f 04       		.byte	0x4
 1427 0970 36030000 		.4byte	0x336
 1428 0974 0F       		.uleb128 0xf
 1429 0975 57090000 		.4byte	0x957
 1430 0979 10       		.uleb128 0x10
 1431 097a FE060000 		.4byte	0x6fe
 1432 097e 89090000 		.4byte	0x989
 1433 0982 11       		.uleb128 0x11
 1434 0983 6A040000 		.4byte	0x46a
 1435 0987 3A       		.byte	0x3a
 1436 0988 00       		.byte	0
 1437 0989 03       		.uleb128 0x3
 1438 098a D5010000 		.4byte	.LASF142
 1439 098e 0D       		.byte	0xd
 1440 098f 34       		.byte	0x34
 1441 0990 20090000 		.4byte	0x920
 1442 0994 09       		.uleb128 0x9
 1443 0995 04       		.byte	0x4
 1444 0996 89090000 		.4byte	0x989
 1445 099a 04       		.uleb128 0x4
 1446 099b 01       		.byte	0x1
 1447 099c 02       		.byte	0x2
 1448 099d 4A040000 		.4byte	.LASF143
 1449 09a1 19       		.uleb128 0x19
 1450 09a2 8C020000 		.4byte	.LASF149
 1451 09a6 01       		.byte	0x1
 1452 09a7 36       		.byte	0x36
 1453 09a8 01       		.byte	0x1
 1454 09a9 1A       		.uleb128 0x1a
 1455 09aa B0060000 		.4byte	.LASF150
 1456 09ae 01       		.byte	0x1
 1457 09af 72       		.byte	0x72
 1458 09b0 00000000 		.4byte	.LFB269
 1459 09b4 68000000 		.4byte	.LFE269-.LFB269
 1460 09b8 01       		.uleb128 0x1
 1461 09b9 9C       		.byte	0x9c
 1462 09ba D7090000 		.4byte	0x9d7
 1463 09be 1B       		.uleb128 0x1b
 1464 09bf A1090000 		.4byte	0x9a1
 1465 09c3 18000000 		.4byte	.LBB4
 1466 09c7 00000000 		.4byte	.Ldebug_ranges0+0
 1467 09cb 01       		.byte	0x1
 1468 09cc 7F       		.byte	0x7f
 1469 09cd 1C       		.uleb128 0x1c
 1470 09ce 5E000000 		.4byte	.LVL0
 1471 09d2 150A0000 		.4byte	0xa15
 1472 09d6 00       		.byte	0
 1473 09d7 1D       		.uleb128 0x1d
 1474 09d8 C4010000 		.4byte	.LASF151
 1475 09dc 01       		.byte	0x1
 1476 09dd 92       		.byte	0x92
 1477 09de 00000000 		.4byte	.LFB270
 1478 09e2 C8000000 		.4byte	.LFE270-.LFB270
 1479 09e6 01       		.uleb128 0x1
 1480 09e7 9C       		.byte	0x9c
 1481 09e8 1E       		.uleb128 0x1e
 1482 09e9 C3000000 		.4byte	.LASF144
ARM GAS  /var/folders/m4/4md61f0s1_g0rzfghffqnxvr0000gn/T//ccJ0mkNR.s 			page 27


 1483 09ed 0E       		.byte	0xe
 1484 09ee FA06     		.2byte	0x6fa
 1485 09f0 F4090000 		.4byte	0x9f4
 1486 09f4 0F       		.uleb128 0xf
 1487 09f5 AD000000 		.4byte	0xad
 1488 09f9 1F       		.uleb128 0x1f
 1489 09fa 07020000 		.4byte	.LASF145
 1490 09fe 01       		.byte	0x1
 1491 09ff 27       		.byte	0x27
 1492 0a00 B8000000 		.4byte	0xb8
 1493 0a04 05       		.uleb128 0x5
 1494 0a05 03       		.byte	0x3
 1495 0a06 00000000 		.4byte	SystemCoreClock
 1496 0a0a 20       		.uleb128 0x20
 1497 0a0b 636800   		.ascii	"ch\000"
 1498 0a0e 07       		.byte	0x7
 1499 0a0f 0902     		.2byte	0x209
 1500 0a11 03040000 		.4byte	0x403
 1501 0a15 21       		.uleb128 0x21
 1502 0a16 18050000 		.4byte	.LASF152
 1503 0a1a 18050000 		.4byte	.LASF152
 1504 0a1e 0F       		.byte	0xf
 1505 0a1f 9802     		.2byte	0x298
 1506 0a21 00       		.byte	0
 1507              		.section	.debug_abbrev,"",%progbits
 1508              	.Ldebug_abbrev0:
 1509 0000 01       		.uleb128 0x1
 1510 0001 11       		.uleb128 0x11
 1511 0002 01       		.byte	0x1
 1512 0003 25       		.uleb128 0x25
 1513 0004 0E       		.uleb128 0xe
 1514 0005 13       		.uleb128 0x13
 1515 0006 0B       		.uleb128 0xb
 1516 0007 03       		.uleb128 0x3
 1517 0008 0E       		.uleb128 0xe
 1518 0009 1B       		.uleb128 0x1b
 1519 000a 0E       		.uleb128 0xe
 1520 000b 55       		.uleb128 0x55
 1521 000c 17       		.uleb128 0x17
 1522 000d 11       		.uleb128 0x11
 1523 000e 01       		.uleb128 0x1
 1524 000f 10       		.uleb128 0x10
 1525 0010 17       		.uleb128 0x17
 1526 0011 00       		.byte	0
 1527 0012 00       		.byte	0
 1528 0013 02       		.uleb128 0x2
 1529 0014 24       		.uleb128 0x24
 1530 0015 00       		.byte	0
 1531 0016 0B       		.uleb128 0xb
 1532 0017 0B       		.uleb128 0xb
 1533 0018 3E       		.uleb128 0x3e
 1534 0019 0B       		.uleb128 0xb
 1535 001a 03       		.uleb128 0x3
 1536 001b 08       		.uleb128 0x8
 1537 001c 00       		.byte	0
 1538 001d 00       		.byte	0
 1539 001e 03       		.uleb128 0x3
ARM GAS  /var/folders/m4/4md61f0s1_g0rzfghffqnxvr0000gn/T//ccJ0mkNR.s 			page 28


 1540 001f 16       		.uleb128 0x16
 1541 0020 00       		.byte	0
 1542 0021 03       		.uleb128 0x3
 1543 0022 0E       		.uleb128 0xe
 1544 0023 3A       		.uleb128 0x3a
 1545 0024 0B       		.uleb128 0xb
 1546 0025 3B       		.uleb128 0x3b
 1547 0026 0B       		.uleb128 0xb
 1548 0027 49       		.uleb128 0x49
 1549 0028 13       		.uleb128 0x13
 1550 0029 00       		.byte	0
 1551 002a 00       		.byte	0
 1552 002b 04       		.uleb128 0x4
 1553 002c 24       		.uleb128 0x24
 1554 002d 00       		.byte	0
 1555 002e 0B       		.uleb128 0xb
 1556 002f 0B       		.uleb128 0xb
 1557 0030 3E       		.uleb128 0x3e
 1558 0031 0B       		.uleb128 0xb
 1559 0032 03       		.uleb128 0x3
 1560 0033 0E       		.uleb128 0xe
 1561 0034 00       		.byte	0
 1562 0035 00       		.byte	0
 1563 0036 05       		.uleb128 0x5
 1564 0037 13       		.uleb128 0x13
 1565 0038 01       		.byte	0x1
 1566 0039 03       		.uleb128 0x3
 1567 003a 0E       		.uleb128 0xe
 1568 003b 0B       		.uleb128 0xb
 1569 003c 0B       		.uleb128 0xb
 1570 003d 3A       		.uleb128 0x3a
 1571 003e 0B       		.uleb128 0xb
 1572 003f 3B       		.uleb128 0x3b
 1573 0040 0B       		.uleb128 0xb
 1574 0041 01       		.uleb128 0x1
 1575 0042 13       		.uleb128 0x13
 1576 0043 00       		.byte	0
 1577 0044 00       		.byte	0
 1578 0045 06       		.uleb128 0x6
 1579 0046 0D       		.uleb128 0xd
 1580 0047 00       		.byte	0
 1581 0048 03       		.uleb128 0x3
 1582 0049 0E       		.uleb128 0xe
 1583 004a 3A       		.uleb128 0x3a
 1584 004b 0B       		.uleb128 0xb
 1585 004c 3B       		.uleb128 0x3b
 1586 004d 0B       		.uleb128 0xb
 1587 004e 49       		.uleb128 0x49
 1588 004f 13       		.uleb128 0x13
 1589 0050 38       		.uleb128 0x38
 1590 0051 0B       		.uleb128 0xb
 1591 0052 00       		.byte	0
 1592 0053 00       		.byte	0
 1593 0054 07       		.uleb128 0x7
 1594 0055 0D       		.uleb128 0xd
 1595 0056 00       		.byte	0
 1596 0057 03       		.uleb128 0x3
ARM GAS  /var/folders/m4/4md61f0s1_g0rzfghffqnxvr0000gn/T//ccJ0mkNR.s 			page 29


 1597 0058 08       		.uleb128 0x8
 1598 0059 3A       		.uleb128 0x3a
 1599 005a 0B       		.uleb128 0xb
 1600 005b 3B       		.uleb128 0x3b
 1601 005c 05       		.uleb128 0x5
 1602 005d 49       		.uleb128 0x49
 1603 005e 13       		.uleb128 0x13
 1604 005f 38       		.uleb128 0x38
 1605 0060 0B       		.uleb128 0xb
 1606 0061 00       		.byte	0
 1607 0062 00       		.byte	0
 1608 0063 08       		.uleb128 0x8
 1609 0064 0D       		.uleb128 0xd
 1610 0065 00       		.byte	0
 1611 0066 03       		.uleb128 0x3
 1612 0067 0E       		.uleb128 0xe
 1613 0068 3A       		.uleb128 0x3a
 1614 0069 0B       		.uleb128 0xb
 1615 006a 3B       		.uleb128 0x3b
 1616 006b 05       		.uleb128 0x5
 1617 006c 49       		.uleb128 0x49
 1618 006d 13       		.uleb128 0x13
 1619 006e 38       		.uleb128 0x38
 1620 006f 0B       		.uleb128 0xb
 1621 0070 00       		.byte	0
 1622 0071 00       		.byte	0
 1623 0072 09       		.uleb128 0x9
 1624 0073 0F       		.uleb128 0xf
 1625 0074 00       		.byte	0
 1626 0075 0B       		.uleb128 0xb
 1627 0076 0B       		.uleb128 0xb
 1628 0077 49       		.uleb128 0x49
 1629 0078 13       		.uleb128 0x13
 1630 0079 00       		.byte	0
 1631 007a 00       		.byte	0
 1632 007b 0A       		.uleb128 0xa
 1633 007c 13       		.uleb128 0x13
 1634 007d 01       		.byte	0x1
 1635 007e 03       		.uleb128 0x3
 1636 007f 0E       		.uleb128 0xe
 1637 0080 0B       		.uleb128 0xb
 1638 0081 0B       		.uleb128 0xb
 1639 0082 3A       		.uleb128 0x3a
 1640 0083 0B       		.uleb128 0xb
 1641 0084 3B       		.uleb128 0x3b
 1642 0085 05       		.uleb128 0x5
 1643 0086 01       		.uleb128 0x1
 1644 0087 13       		.uleb128 0x13
 1645 0088 00       		.byte	0
 1646 0089 00       		.byte	0
 1647 008a 0B       		.uleb128 0xb
 1648 008b 15       		.uleb128 0x15
 1649 008c 01       		.byte	0x1
 1650 008d 27       		.uleb128 0x27
 1651 008e 19       		.uleb128 0x19
 1652 008f 01       		.uleb128 0x1
 1653 0090 13       		.uleb128 0x13
ARM GAS  /var/folders/m4/4md61f0s1_g0rzfghffqnxvr0000gn/T//ccJ0mkNR.s 			page 30


 1654 0091 00       		.byte	0
 1655 0092 00       		.byte	0
 1656 0093 0C       		.uleb128 0xc
 1657 0094 05       		.uleb128 0x5
 1658 0095 00       		.byte	0
 1659 0096 49       		.uleb128 0x49
 1660 0097 13       		.uleb128 0x13
 1661 0098 00       		.byte	0
 1662 0099 00       		.byte	0
 1663 009a 0D       		.uleb128 0xd
 1664 009b 0F       		.uleb128 0xf
 1665 009c 00       		.byte	0
 1666 009d 0B       		.uleb128 0xb
 1667 009e 0B       		.uleb128 0xb
 1668 009f 00       		.byte	0
 1669 00a0 00       		.byte	0
 1670 00a1 0E       		.uleb128 0xe
 1671 00a2 13       		.uleb128 0x13
 1672 00a3 01       		.byte	0x1
 1673 00a4 03       		.uleb128 0x3
 1674 00a5 0E       		.uleb128 0xe
 1675 00a6 0B       		.uleb128 0xb
 1676 00a7 05       		.uleb128 0x5
 1677 00a8 3A       		.uleb128 0x3a
 1678 00a9 0B       		.uleb128 0xb
 1679 00aa 3B       		.uleb128 0x3b
 1680 00ab 05       		.uleb128 0x5
 1681 00ac 01       		.uleb128 0x1
 1682 00ad 13       		.uleb128 0x13
 1683 00ae 00       		.byte	0
 1684 00af 00       		.byte	0
 1685 00b0 0F       		.uleb128 0xf
 1686 00b1 35       		.uleb128 0x35
 1687 00b2 00       		.byte	0
 1688 00b3 49       		.uleb128 0x49
 1689 00b4 13       		.uleb128 0x13
 1690 00b5 00       		.byte	0
 1691 00b6 00       		.byte	0
 1692 00b7 10       		.uleb128 0x10
 1693 00b8 01       		.uleb128 0x1
 1694 00b9 01       		.byte	0x1
 1695 00ba 49       		.uleb128 0x49
 1696 00bb 13       		.uleb128 0x13
 1697 00bc 01       		.uleb128 0x1
 1698 00bd 13       		.uleb128 0x13
 1699 00be 00       		.byte	0
 1700 00bf 00       		.byte	0
 1701 00c0 11       		.uleb128 0x11
 1702 00c1 21       		.uleb128 0x21
 1703 00c2 00       		.byte	0
 1704 00c3 49       		.uleb128 0x49
 1705 00c4 13       		.uleb128 0x13
 1706 00c5 2F       		.uleb128 0x2f
 1707 00c6 0B       		.uleb128 0xb
 1708 00c7 00       		.byte	0
 1709 00c8 00       		.byte	0
 1710 00c9 12       		.uleb128 0x12
ARM GAS  /var/folders/m4/4md61f0s1_g0rzfghffqnxvr0000gn/T//ccJ0mkNR.s 			page 31


 1711 00ca 13       		.uleb128 0x13
 1712 00cb 01       		.byte	0x1
 1713 00cc 0B       		.uleb128 0xb
 1714 00cd 0B       		.uleb128 0xb
 1715 00ce 3A       		.uleb128 0x3a
 1716 00cf 0B       		.uleb128 0xb
 1717 00d0 3B       		.uleb128 0x3b
 1718 00d1 05       		.uleb128 0x5
 1719 00d2 01       		.uleb128 0x1
 1720 00d3 13       		.uleb128 0x13
 1721 00d4 00       		.byte	0
 1722 00d5 00       		.byte	0
 1723 00d6 13       		.uleb128 0x13
 1724 00d7 16       		.uleb128 0x16
 1725 00d8 00       		.byte	0
 1726 00d9 03       		.uleb128 0x3
 1727 00da 0E       		.uleb128 0xe
 1728 00db 3A       		.uleb128 0x3a
 1729 00dc 0B       		.uleb128 0xb
 1730 00dd 3B       		.uleb128 0x3b
 1731 00de 05       		.uleb128 0x5
 1732 00df 49       		.uleb128 0x49
 1733 00e0 13       		.uleb128 0x13
 1734 00e1 00       		.byte	0
 1735 00e2 00       		.byte	0
 1736 00e3 14       		.uleb128 0x14
 1737 00e4 0D       		.uleb128 0xd
 1738 00e5 00       		.byte	0
 1739 00e6 03       		.uleb128 0x3
 1740 00e7 08       		.uleb128 0x8
 1741 00e8 3A       		.uleb128 0x3a
 1742 00e9 0B       		.uleb128 0xb
 1743 00ea 3B       		.uleb128 0x3b
 1744 00eb 0B       		.uleb128 0xb
 1745 00ec 49       		.uleb128 0x49
 1746 00ed 13       		.uleb128 0x13
 1747 00ee 38       		.uleb128 0x38
 1748 00ef 0B       		.uleb128 0xb
 1749 00f0 00       		.byte	0
 1750 00f1 00       		.byte	0
 1751 00f2 15       		.uleb128 0x15
 1752 00f3 13       		.uleb128 0x13
 1753 00f4 01       		.byte	0x1
 1754 00f5 0B       		.uleb128 0xb
 1755 00f6 0B       		.uleb128 0xb
 1756 00f7 3A       		.uleb128 0x3a
 1757 00f8 0B       		.uleb128 0xb
 1758 00f9 3B       		.uleb128 0x3b
 1759 00fa 0B       		.uleb128 0xb
 1760 00fb 01       		.uleb128 0x1
 1761 00fc 13       		.uleb128 0x13
 1762 00fd 00       		.byte	0
 1763 00fe 00       		.byte	0
 1764 00ff 16       		.uleb128 0x16
 1765 0100 17       		.uleb128 0x17
 1766 0101 01       		.byte	0x1
 1767 0102 0B       		.uleb128 0xb
ARM GAS  /var/folders/m4/4md61f0s1_g0rzfghffqnxvr0000gn/T//ccJ0mkNR.s 			page 32


 1768 0103 0B       		.uleb128 0xb
 1769 0104 3A       		.uleb128 0x3a
 1770 0105 0B       		.uleb128 0xb
 1771 0106 3B       		.uleb128 0x3b
 1772 0107 0B       		.uleb128 0xb
 1773 0108 01       		.uleb128 0x1
 1774 0109 13       		.uleb128 0x13
 1775 010a 00       		.byte	0
 1776 010b 00       		.byte	0
 1777 010c 17       		.uleb128 0x17
 1778 010d 0D       		.uleb128 0xd
 1779 010e 00       		.byte	0
 1780 010f 03       		.uleb128 0x3
 1781 0110 0E       		.uleb128 0xe
 1782 0111 3A       		.uleb128 0x3a
 1783 0112 0B       		.uleb128 0xb
 1784 0113 3B       		.uleb128 0x3b
 1785 0114 05       		.uleb128 0x5
 1786 0115 49       		.uleb128 0x49
 1787 0116 13       		.uleb128 0x13
 1788 0117 00       		.byte	0
 1789 0118 00       		.byte	0
 1790 0119 18       		.uleb128 0x18
 1791 011a 26       		.uleb128 0x26
 1792 011b 00       		.byte	0
 1793 011c 49       		.uleb128 0x49
 1794 011d 13       		.uleb128 0x13
 1795 011e 00       		.byte	0
 1796 011f 00       		.byte	0
 1797 0120 19       		.uleb128 0x19
 1798 0121 2E       		.uleb128 0x2e
 1799 0122 00       		.byte	0
 1800 0123 03       		.uleb128 0x3
 1801 0124 0E       		.uleb128 0xe
 1802 0125 3A       		.uleb128 0x3a
 1803 0126 0B       		.uleb128 0xb
 1804 0127 3B       		.uleb128 0x3b
 1805 0128 0B       		.uleb128 0xb
 1806 0129 27       		.uleb128 0x27
 1807 012a 19       		.uleb128 0x19
 1808 012b 20       		.uleb128 0x20
 1809 012c 0B       		.uleb128 0xb
 1810 012d 00       		.byte	0
 1811 012e 00       		.byte	0
 1812 012f 1A       		.uleb128 0x1a
 1813 0130 2E       		.uleb128 0x2e
 1814 0131 01       		.byte	0x1
 1815 0132 3F       		.uleb128 0x3f
 1816 0133 19       		.uleb128 0x19
 1817 0134 03       		.uleb128 0x3
 1818 0135 0E       		.uleb128 0xe
 1819 0136 3A       		.uleb128 0x3a
 1820 0137 0B       		.uleb128 0xb
 1821 0138 3B       		.uleb128 0x3b
 1822 0139 0B       		.uleb128 0xb
 1823 013a 27       		.uleb128 0x27
 1824 013b 19       		.uleb128 0x19
ARM GAS  /var/folders/m4/4md61f0s1_g0rzfghffqnxvr0000gn/T//ccJ0mkNR.s 			page 33


 1825 013c 11       		.uleb128 0x11
 1826 013d 01       		.uleb128 0x1
 1827 013e 12       		.uleb128 0x12
 1828 013f 06       		.uleb128 0x6
 1829 0140 40       		.uleb128 0x40
 1830 0141 18       		.uleb128 0x18
 1831 0142 9742     		.uleb128 0x2117
 1832 0144 19       		.uleb128 0x19
 1833 0145 01       		.uleb128 0x1
 1834 0146 13       		.uleb128 0x13
 1835 0147 00       		.byte	0
 1836 0148 00       		.byte	0
 1837 0149 1B       		.uleb128 0x1b
 1838 014a 1D       		.uleb128 0x1d
 1839 014b 00       		.byte	0
 1840 014c 31       		.uleb128 0x31
 1841 014d 13       		.uleb128 0x13
 1842 014e 52       		.uleb128 0x52
 1843 014f 01       		.uleb128 0x1
 1844 0150 55       		.uleb128 0x55
 1845 0151 17       		.uleb128 0x17
 1846 0152 58       		.uleb128 0x58
 1847 0153 0B       		.uleb128 0xb
 1848 0154 59       		.uleb128 0x59
 1849 0155 0B       		.uleb128 0xb
 1850 0156 00       		.byte	0
 1851 0157 00       		.byte	0
 1852 0158 1C       		.uleb128 0x1c
 1853 0159 898201   		.uleb128 0x4109
 1854 015c 00       		.byte	0
 1855 015d 11       		.uleb128 0x11
 1856 015e 01       		.uleb128 0x1
 1857 015f 9542     		.uleb128 0x2115
 1858 0161 19       		.uleb128 0x19
 1859 0162 31       		.uleb128 0x31
 1860 0163 13       		.uleb128 0x13
 1861 0164 00       		.byte	0
 1862 0165 00       		.byte	0
 1863 0166 1D       		.uleb128 0x1d
 1864 0167 2E       		.uleb128 0x2e
 1865 0168 00       		.byte	0
 1866 0169 3F       		.uleb128 0x3f
 1867 016a 19       		.uleb128 0x19
 1868 016b 03       		.uleb128 0x3
 1869 016c 0E       		.uleb128 0xe
 1870 016d 3A       		.uleb128 0x3a
 1871 016e 0B       		.uleb128 0xb
 1872 016f 3B       		.uleb128 0x3b
 1873 0170 0B       		.uleb128 0xb
 1874 0171 27       		.uleb128 0x27
 1875 0172 19       		.uleb128 0x19
 1876 0173 11       		.uleb128 0x11
 1877 0174 01       		.uleb128 0x1
 1878 0175 12       		.uleb128 0x12
 1879 0176 06       		.uleb128 0x6
 1880 0177 40       		.uleb128 0x40
 1881 0178 18       		.uleb128 0x18
ARM GAS  /var/folders/m4/4md61f0s1_g0rzfghffqnxvr0000gn/T//ccJ0mkNR.s 			page 34


 1882 0179 9742     		.uleb128 0x2117
 1883 017b 19       		.uleb128 0x19
 1884 017c 00       		.byte	0
 1885 017d 00       		.byte	0
 1886 017e 1E       		.uleb128 0x1e
 1887 017f 34       		.uleb128 0x34
 1888 0180 00       		.byte	0
 1889 0181 03       		.uleb128 0x3
 1890 0182 0E       		.uleb128 0xe
 1891 0183 3A       		.uleb128 0x3a
 1892 0184 0B       		.uleb128 0xb
 1893 0185 3B       		.uleb128 0x3b
 1894 0186 05       		.uleb128 0x5
 1895 0187 49       		.uleb128 0x49
 1896 0188 13       		.uleb128 0x13
 1897 0189 3F       		.uleb128 0x3f
 1898 018a 19       		.uleb128 0x19
 1899 018b 3C       		.uleb128 0x3c
 1900 018c 19       		.uleb128 0x19
 1901 018d 00       		.byte	0
 1902 018e 00       		.byte	0
 1903 018f 1F       		.uleb128 0x1f
 1904 0190 34       		.uleb128 0x34
 1905 0191 00       		.byte	0
 1906 0192 03       		.uleb128 0x3
 1907 0193 0E       		.uleb128 0xe
 1908 0194 3A       		.uleb128 0x3a
 1909 0195 0B       		.uleb128 0xb
 1910 0196 3B       		.uleb128 0x3b
 1911 0197 0B       		.uleb128 0xb
 1912 0198 49       		.uleb128 0x49
 1913 0199 13       		.uleb128 0x13
 1914 019a 3F       		.uleb128 0x3f
 1915 019b 19       		.uleb128 0x19
 1916 019c 02       		.uleb128 0x2
 1917 019d 18       		.uleb128 0x18
 1918 019e 00       		.byte	0
 1919 019f 00       		.byte	0
 1920 01a0 20       		.uleb128 0x20
 1921 01a1 34       		.uleb128 0x34
 1922 01a2 00       		.byte	0
 1923 01a3 03       		.uleb128 0x3
 1924 01a4 08       		.uleb128 0x8
 1925 01a5 3A       		.uleb128 0x3a
 1926 01a6 0B       		.uleb128 0xb
 1927 01a7 3B       		.uleb128 0x3b
 1928 01a8 05       		.uleb128 0x5
 1929 01a9 49       		.uleb128 0x49
 1930 01aa 13       		.uleb128 0x13
 1931 01ab 3F       		.uleb128 0x3f
 1932 01ac 19       		.uleb128 0x19
 1933 01ad 3C       		.uleb128 0x3c
 1934 01ae 19       		.uleb128 0x19
 1935 01af 00       		.byte	0
 1936 01b0 00       		.byte	0
 1937 01b1 21       		.uleb128 0x21
 1938 01b2 2E       		.uleb128 0x2e
ARM GAS  /var/folders/m4/4md61f0s1_g0rzfghffqnxvr0000gn/T//ccJ0mkNR.s 			page 35


 1939 01b3 00       		.byte	0
 1940 01b4 3F       		.uleb128 0x3f
 1941 01b5 19       		.uleb128 0x19
 1942 01b6 3C       		.uleb128 0x3c
 1943 01b7 19       		.uleb128 0x19
 1944 01b8 6E       		.uleb128 0x6e
 1945 01b9 0E       		.uleb128 0xe
 1946 01ba 03       		.uleb128 0x3
 1947 01bb 0E       		.uleb128 0xe
 1948 01bc 3A       		.uleb128 0x3a
 1949 01bd 0B       		.uleb128 0xb
 1950 01be 3B       		.uleb128 0x3b
 1951 01bf 05       		.uleb128 0x5
 1952 01c0 00       		.byte	0
 1953 01c1 00       		.byte	0
 1954 01c2 00       		.byte	0
 1955              		.section	.debug_aranges,"",%progbits
 1956 0000 24000000 		.4byte	0x24
 1957 0004 0200     		.2byte	0x2
 1958 0006 00000000 		.4byte	.Ldebug_info0
 1959 000a 04       		.byte	0x4
 1960 000b 00       		.byte	0
 1961 000c 0000     		.2byte	0
 1962 000e 0000     		.2byte	0
 1963 0010 00000000 		.4byte	.LFB269
 1964 0014 68000000 		.4byte	.LFE269-.LFB269
 1965 0018 00000000 		.4byte	.LFB270
 1966 001c C8000000 		.4byte	.LFE270-.LFB270
 1967 0020 00000000 		.4byte	0
 1968 0024 00000000 		.4byte	0
 1969              		.section	.debug_ranges,"",%progbits
 1970              	.Ldebug_ranges0:
 1971 0000 18000000 		.4byte	.LBB4
 1972 0004 1A000000 		.4byte	.LBE4
 1973 0008 30000000 		.4byte	.LBB8
 1974 000c 4E000000 		.4byte	.LBE8
 1975 0010 52000000 		.4byte	.LBB9
 1976 0014 5A000000 		.4byte	.LBE9
 1977 0018 00000000 		.4byte	0
 1978 001c 00000000 		.4byte	0
 1979 0020 00000000 		.4byte	.LFB269
 1980 0024 68000000 		.4byte	.LFE269
 1981 0028 00000000 		.4byte	.LFB270
 1982 002c C8000000 		.4byte	.LFE270
 1983 0030 00000000 		.4byte	0
 1984 0034 00000000 		.4byte	0
 1985              		.section	.debug_line,"",%progbits
 1986              	.Ldebug_line0:
 1987 0000 F9030000 		.section	.debug_str,"MS",%progbits,1
 1987      02006A03 
 1987      00000201 
 1987      FB0E0D00 
 1987      01010101 
 1988              	.LASF148:
 1989 0000 2F557365 		.ascii	"/Users/raphael/Documents/pcb-quadrotor/code\000"
 1989      72732F72 
 1989      61706861 
ARM GAS  /var/folders/m4/4md61f0s1_g0rzfghffqnxvr0000gn/T//ccJ0mkNR.s 			page 36


 1989      656C2F44 
 1989      6F63756D 
 1990              	.LASF54:
 1991 002c 72656164 		.ascii	"ready_list_t\000"
 1991      795F6C69 
 1991      73745F74 
 1991      00
 1992              	.LASF2:
 1993 0039 73697A65 		.ascii	"size_t\000"
 1993      5F7400
 1994              	.LASF127:
 1995 0040 7264796D 		.ascii	"rdymsg\000"
 1995      736700
 1996              	.LASF17:
 1997 0047 75696E74 		.ascii	"uint64_t\000"
 1997      36345F74 
 1997      00
 1998              	.LASF3:
 1999 0050 5F5F7569 		.ascii	"__uint8_t\000"
 1999      6E74385F 
 1999      7400
 2000              	.LASF124:
 2001 005a 706F7274 		.ascii	"port_intctx\000"
 2001      5F696E74 
 2001      63747800 
 2002              	.LASF73:
 2003 0066 73797374 		.ascii	"system_debug_t\000"
 2003      656D5F64 
 2003      65627567 
 2003      5F7400
 2004              	.LASF85:
 2005 0075 4F505443 		.ascii	"OPTCR\000"
 2005      5200
 2006              	.LASF86:
 2007 007b 4F505443 		.ascii	"OPTCR1\000"
 2007      523100
 2008              	.LASF13:
 2009 0082 6C6F6E67 		.ascii	"long long unsigned int\000"
 2009      206C6F6E 
 2009      6720756E 
 2009      7369676E 
 2009      65642069 
 2010              	.LASF128:
 2011 0099 65786974 		.ascii	"exitcode\000"
 2011      636F6465 
 2011      00
 2012              	.LASF80:
 2013 00a2 6D61696E 		.ascii	"mainthread\000"
 2013      74687265 
 2013      616400
 2014              	.LASF70:
 2015 00ad 76697274 		.ascii	"virtual_timers_list_t\000"
 2015      75616C5F 
 2015      74696D65 
 2015      72735F6C 
 2015      6973745F 
 2016              	.LASF144:
ARM GAS  /var/folders/m4/4md61f0s1_g0rzfghffqnxvr0000gn/T//ccJ0mkNR.s 			page 37


 2017 00c3 49544D5F 		.ascii	"ITM_RxBuffer\000"
 2017      52784275 
 2017      66666572 
 2017      00
 2018              	.LASF53:
 2019 00d0 63685F74 		.ascii	"ch_threads_queue\000"
 2019      68726561 
 2019      64735F71 
 2019      75657565 
 2019      00
 2020              	.LASF105:
 2021 00e1 41484231 		.ascii	"AHB1LPENR\000"
 2021      4C50454E 
 2021      5200
 2022              	.LASF31:
 2023 00eb 705F7072 		.ascii	"p_prio\000"
 2023      696F00
 2024              	.LASF117:
 2025 00f2 44434B43 		.ascii	"DCKCFGR\000"
 2025      46475200 
 2026              	.LASF11:
 2027 00fa 6C6F6E67 		.ascii	"long long int\000"
 2027      206C6F6E 
 2027      6720696E 
 2027      7400
 2028              	.LASF1:
 2029 0108 7369676E 		.ascii	"signed char\000"
 2029      65642063 
 2029      68617200 
 2030              	.LASF91:
 2031 0114 41484231 		.ascii	"AHB1RSTR\000"
 2031      52535452 
 2031      00
 2032              	.LASF119:
 2033 011d 44434B43 		.ascii	"DCKCFGR2\000"
 2033      46475232 
 2033      00
 2034              	.LASF87:
 2035 0126 464C4153 		.ascii	"FLASH_TypeDef\000"
 2035      485F5479 
 2035      70654465 
 2035      6600
 2036              	.LASF47:
 2037 0134 705F6D70 		.ascii	"p_mpool\000"
 2037      6F6F6C00 
 2038              	.LASF138:
 2039 013c 6D5F7175 		.ascii	"m_queue\000"
 2039      65756500 
 2040              	.LASF79:
 2041 0144 76746C69 		.ascii	"vtlist\000"
 2041      737400
 2042              	.LASF88:
 2043 014b 5057525F 		.ascii	"PWR_TypeDef\000"
 2043      54797065 
 2043      44656600 
 2044              	.LASF22:
 2045 0157 74736C69 		.ascii	"tslices_t\000"
ARM GAS  /var/folders/m4/4md61f0s1_g0rzfghffqnxvr0000gn/T//ccJ0mkNR.s 			page 38


 2045      6365735F 
 2045      7400
 2046              	.LASF130:
 2047 0161 77747472 		.ascii	"wttrp\000"
 2047      7000
 2048              	.LASF77:
 2049 0167 63685F73 		.ascii	"ch_system\000"
 2049      79737465 
 2049      6D00
 2050              	.LASF8:
 2051 0171 6C6F6E67 		.ascii	"long int\000"
 2051      20696E74 
 2051      00
 2052              	.LASF96:
 2053 017a 41504232 		.ascii	"APB2RSTR\000"
 2053      52535452 
 2053      00
 2054              	.LASF109:
 2055 0183 41504231 		.ascii	"APB1LPENR\000"
 2055      4C50454E 
 2055      5200
 2056              	.LASF20:
 2057 018d 74737461 		.ascii	"tstate_t\000"
 2057      74655F74 
 2057      00
 2058              	.LASF33:
 2059 0196 705F6E65 		.ascii	"p_newer\000"
 2059      77657200 
 2060              	.LASF84:
 2061 019e 4F50544B 		.ascii	"OPTKEYR\000"
 2061      45595200 
 2062              	.LASF59:
 2063 01a6 725F6E65 		.ascii	"r_newer\000"
 2063      77657200 
 2064              	.LASF121:
 2065 01ae 72656761 		.ascii	"regarm_t\000"
 2065      726D5F74 
 2065      00
 2066              	.LASF66:
 2067 01b7 76745F70 		.ascii	"vt_prev\000"
 2067      72657600 
 2068              	.LASF83:
 2069 01bf 4B455952 		.ascii	"KEYR\000"
 2069      00
 2070              	.LASF151:
 2071 01c4 73746D33 		.ascii	"stm32_clock_init\000"
 2071      325F636C 
 2071      6F636B5F 
 2071      696E6974 
 2071      00
 2072              	.LASF142:
 2073 01d5 6D757465 		.ascii	"mutex_t\000"
 2073      785F7400 
 2074              	.LASF81:
 2075 01dd 69646C65 		.ascii	"idle_thread_wa\000"
 2075      5F746872 
 2075      6561645F 
ARM GAS  /var/folders/m4/4md61f0s1_g0rzfghffqnxvr0000gn/T//ccJ0mkNR.s 			page 39


 2075      776100
 2076              	.LASF26:
 2077 01ec 636E745F 		.ascii	"cnt_t\000"
 2077      7400
 2078              	.LASF0:
 2079 01f2 756E7369 		.ascii	"unsigned int\000"
 2079      676E6564 
 2079      20696E74 
 2079      00
 2080              	.LASF65:
 2081 01ff 76745F6E 		.ascii	"vt_next\000"
 2081      65787400 
 2082              	.LASF145:
 2083 0207 53797374 		.ascii	"SystemCoreClock\000"
 2083      656D436F 
 2083      7265436C 
 2083      6F636B00 
 2084              	.LASF40:
 2085 0217 705F7469 		.ascii	"p_time\000"
 2085      6D6500
 2086              	.LASF131:
 2087 021e 77747365 		.ascii	"wtsemp\000"
 2087      6D7000
 2088              	.LASF72:
 2089 0225 76745F73 		.ascii	"vt_systime\000"
 2089      79737469 
 2089      6D6500
 2090              	.LASF67:
 2091 0230 76745F64 		.ascii	"vt_delta\000"
 2091      656C7461 
 2091      00
 2092              	.LASF42:
 2093 0239 705F6D73 		.ascii	"p_msgqueue\000"
 2093      67717565 
 2093      756500
 2094              	.LASF120:
 2095 0244 5243435F 		.ascii	"RCC_TypeDef\000"
 2095      54797065 
 2095      44656600 
 2096              	.LASF136:
 2097 0250 735F636E 		.ascii	"s_cnt\000"
 2097      7400
 2098              	.LASF6:
 2099 0256 73686F72 		.ascii	"short unsigned int\000"
 2099      7420756E 
 2099      7369676E 
 2099      65642069 
 2099      6E7400
 2100              	.LASF50:
 2101 0269 63685F74 		.ascii	"ch_thread\000"
 2101      68726561 
 2101      6400
 2102              	.LASF115:
 2103 0273 504C4C49 		.ascii	"PLLI2SCFGR\000"
 2103      32534346 
 2103      475200
 2104              	.LASF24:
ARM GAS  /var/folders/m4/4md61f0s1_g0rzfghffqnxvr0000gn/T//ccJ0mkNR.s 			page 40


 2105 027e 6D73675F 		.ascii	"msg_t\000"
 2105      7400
 2106              	.LASF89:
 2107 0284 504C4C43 		.ascii	"PLLCFGR\000"
 2107      46475200 
 2108              	.LASF149:
 2109 028c 68616C5F 		.ascii	"hal_lld_backup_domain_init\000"
 2109      6C6C645F 
 2109      6261636B 
 2109      75705F64 
 2109      6F6D6169 
 2110              	.LASF76:
 2111 02a7 63685F73 		.ascii	"ch_system_t\000"
 2111      79737465 
 2111      6D5F7400 
 2112              	.LASF19:
 2113 02b3 746D6F64 		.ascii	"tmode_t\000"
 2113      655F7400 
 2114              	.LASF110:
 2115 02bb 41504232 		.ascii	"APB2LPENR\000"
 2115      4C50454E 
 2115      5200
 2116              	.LASF55:
 2117 02c5 63685F72 		.ascii	"ch_ready_list\000"
 2117      65616479 
 2117      5F6C6973 
 2117      7400
 2118              	.LASF25:
 2119 02d3 6576656E 		.ascii	"eventmask_t\000"
 2119      746D6173 
 2119      6B5F7400 
 2120              	.LASF7:
 2121 02df 5F5F696E 		.ascii	"__int32_t\000"
 2121      7433325F 
 2121      7400
 2122              	.LASF122:
 2123 02e9 73746B61 		.ascii	"stkalign_t\000"
 2123      6C69676E 
 2123      5F7400
 2124              	.LASF49:
 2125 02f4 74687265 		.ascii	"threads_list_t\000"
 2125      6164735F 
 2125      6C697374 
 2125      5F7400
 2126              	.LASF63:
 2127 0303 76697274 		.ascii	"virtual_timer_t\000"
 2127      75616C5F 
 2127      74696D65 
 2127      725F7400 
 2128              	.LASF41:
 2129 0313 705F7761 		.ascii	"p_waiting\000"
 2129      6974696E 
 2129      6700
 2130              	.LASF82:
 2131 031d 73697A65 		.ascii	"sizetype\000"
 2131      74797065 
 2131      00
ARM GAS  /var/folders/m4/4md61f0s1_g0rzfghffqnxvr0000gn/T//ccJ0mkNR.s 			page 41


 2132              	.LASF48:
 2133 0326 74687265 		.ascii	"thread_reference_t\000"
 2133      61645F72 
 2133      65666572 
 2133      656E6365 
 2133      5F7400
 2134              	.LASF71:
 2135 0339 63685F76 		.ascii	"ch_virtual_timers_list\000"
 2135      69727475 
 2135      616C5F74 
 2135      696D6572 
 2135      735F6C69 
 2136              	.LASF29:
 2137 0350 705F6E65 		.ascii	"p_next\000"
 2137      787400
 2138              	.LASF100:
 2139 0357 41484233 		.ascii	"AHB3ENR\000"
 2139      454E5200 
 2140              	.LASF34:
 2141 035f 705F6F6C 		.ascii	"p_older\000"
 2141      64657200 
 2142              	.LASF58:
 2143 0367 725F6374 		.ascii	"r_ctx\000"
 2143      7800
 2144              	.LASF106:
 2145 036d 41484232 		.ascii	"AHB2LPENR\000"
 2145      4C50454E 
 2145      5200
 2146              	.LASF126:
 2147 0377 746D5F63 		.ascii	"tm_calibration_t\000"
 2147      616C6962 
 2147      72617469 
 2147      6F6E5F74 
 2147      00
 2148              	.LASF61:
 2149 0388 725F6375 		.ascii	"r_current\000"
 2149      7272656E 
 2149      7400
 2150              	.LASF95:
 2151 0392 41504231 		.ascii	"APB1RSTR\000"
 2151      52535452 
 2151      00
 2152              	.LASF12:
 2153 039b 5F5F7569 		.ascii	"__uint64_t\000"
 2153      6E743634 
 2153      5F7400
 2154              	.LASF116:
 2155 03a6 504C4C53 		.ascii	"PLLSAICFGR\000"
 2155      41494346 
 2155      475200
 2156              	.LASF21:
 2157 03b1 74726566 		.ascii	"trefs_t\000"
 2157      735F7400 
 2158              	.LASF94:
 2159 03b9 52455345 		.ascii	"RESERVED0\000"
 2159      52564544 
 2159      3000
ARM GAS  /var/folders/m4/4md61f0s1_g0rzfghffqnxvr0000gn/T//ccJ0mkNR.s 			page 42


 2160              	.LASF97:
 2161 03c3 52455345 		.ascii	"RESERVED1\000"
 2161      52564544 
 2161      3100
 2162              	.LASF101:
 2163 03cd 52455345 		.ascii	"RESERVED2\000"
 2163      52564544 
 2163      3200
 2164              	.LASF104:
 2165 03d7 52455345 		.ascii	"RESERVED3\000"
 2165      52564544 
 2165      3300
 2166              	.LASF108:
 2167 03e1 52455345 		.ascii	"RESERVED4\000"
 2167      52564544 
 2167      3400
 2168              	.LASF30:
 2169 03eb 705F7072 		.ascii	"p_prev\000"
 2169      657600
 2170              	.LASF113:
 2171 03f2 52455345 		.ascii	"RESERVED6\000"
 2171      52564544 
 2171      3600
 2172              	.LASF23:
 2173 03fc 74707269 		.ascii	"tprio_t\000"
 2173      6F5F7400 
 2174              	.LASF147:
 2175 0404 43686962 		.ascii	"ChibiOS_16.1.4/os/hal/ports/STM32/STM32F4xx/hal_lld"
 2175      694F535F 
 2175      31362E31 
 2175      2E342F6F 
 2175      732F6861 
 2176 0437 2E6300   		.ascii	".c\000"
 2177              	.LASF74:
 2178 043a 63685F73 		.ascii	"ch_system_debug\000"
 2178      79737465 
 2178      6D5F6465 
 2178      62756700 
 2179              	.LASF143:
 2180 044a 5F426F6F 		.ascii	"_Bool\000"
 2180      6C00
 2181              	.LASF15:
 2182 0450 696E7433 		.ascii	"int32_t\000"
 2182      325F7400 
 2183              	.LASF4:
 2184 0458 756E7369 		.ascii	"unsigned char\000"
 2184      676E6564 
 2184      20636861 
 2184      7200
 2185              	.LASF45:
 2186 0466 705F6D74 		.ascii	"p_mtxlist\000"
 2186      786C6973 
 2186      7400
 2187              	.LASF5:
 2188 0470 73686F72 		.ascii	"short int\000"
 2188      7420696E 
 2188      7400
ARM GAS  /var/folders/m4/4md61f0s1_g0rzfghffqnxvr0000gn/T//ccJ0mkNR.s 			page 43


 2189              	.LASF36:
 2190 047a 705F7374 		.ascii	"p_state\000"
 2190      61746500 
 2191              	.LASF39:
 2192 0482 705F7072 		.ascii	"p_preempt\000"
 2192      65656D70 
 2192      7400
 2193              	.LASF107:
 2194 048c 41484233 		.ascii	"AHB3LPENR\000"
 2194      4C50454E 
 2194      5200
 2195              	.LASF57:
 2196 0496 725F7072 		.ascii	"r_prio\000"
 2196      696F00
 2197              	.LASF133:
 2198 049d 65776D61 		.ascii	"ewmask\000"
 2198      736B00
 2199              	.LASF37:
 2200 04a4 705F666C 		.ascii	"p_flags\000"
 2200      61677300 
 2201              	.LASF103:
 2202 04ac 41504232 		.ascii	"APB2ENR\000"
 2202      454E5200 
 2203              	.LASF93:
 2204 04b4 41484233 		.ascii	"AHB3RSTR\000"
 2204      52535452 
 2204      00
 2205              	.LASF64:
 2206 04bd 63685F76 		.ascii	"ch_virtual_timer\000"
 2206      69727475 
 2206      616C5F74 
 2206      696D6572 
 2206      00
 2207              	.LASF134:
 2208 04ce 63685F73 		.ascii	"ch_semaphore\000"
 2208      656D6170 
 2208      686F7265 
 2208      00
 2209              	.LASF44:
 2210 04db 705F6570 		.ascii	"p_epending\000"
 2210      656E6469 
 2210      6E6700
 2211              	.LASF111:
 2212 04e6 52455345 		.ascii	"RESERVED5\000"
 2212      52564544 
 2212      3500
 2213              	.LASF16:
 2214 04f0 75696E74 		.ascii	"uint32_t\000"
 2214      33325F74 
 2214      00
 2215              	.LASF132:
 2216 04f9 77746D74 		.ascii	"wtmtxp\000"
 2216      787000
 2217              	.LASF56:
 2218 0500 725F7175 		.ascii	"r_queue\000"
 2218      65756500 
 2219              	.LASF51:
ARM GAS  /var/folders/m4/4md61f0s1_g0rzfghffqnxvr0000gn/T//ccJ0mkNR.s 			page 44


 2220 0508 63685F74 		.ascii	"ch_threads_list\000"
 2220      68726561 
 2220      64735F6C 
 2220      69737400 
 2221              	.LASF152:
 2222 0518 646D6149 		.ascii	"dmaInit\000"
 2222      6E697400 
 2223              	.LASF10:
 2224 0520 6C6F6E67 		.ascii	"long unsigned int\000"
 2224      20756E73 
 2224      69676E65 
 2224      6420696E 
 2224      7400
 2225              	.LASF141:
 2226 0532 63686172 		.ascii	"char\000"
 2226      00
 2227              	.LASF146:
 2228 0537 474E5520 		.ascii	"GNU C99 5.2.1 20151202 (release) [ARM/embedded-5-br"
 2228      43393920 
 2228      352E322E 
 2228      31203230 
 2228      31353132 
 2229 056a 616E6368 		.ascii	"anch revision 231848] -mcpu=cortex-m4 -mfloat-abi=h"
 2229      20726576 
 2229      6973696F 
 2229      6E203233 
 2229      31383438 
 2230 059d 61726420 		.ascii	"ard -mfpu=fpv4-sp-d16 -mno-thumb-interwork -mthumb "
 2230      2D6D6670 
 2230      753D6670 
 2230      76342D73 
 2230      702D6431 
 2231 05d0 2D676764 		.ascii	"-ggdb -O2 -std=c99 -fomit-frame-pointer -falign-fun"
 2231      62202D4F 
 2231      32202D73 
 2231      74643D63 
 2231      3939202D 
 2232 0603 6374696F 		.ascii	"ctions=16 -ffunction-sections -fdata-sections -fno-"
 2232      6E733D31 
 2232      36202D66 
 2232      66756E63 
 2232      74696F6E 
 2233 0636 636F6D6D 		.ascii	"common\000"
 2233      6F6E00
 2234              	.LASF92:
 2235 063d 41484232 		.ascii	"AHB2RSTR\000"
 2235      52535452 
 2235      00
 2236              	.LASF28:
 2237 0646 74687265 		.ascii	"thread_t\000"
 2237      61645F74 
 2237      00
 2238              	.LASF140:
 2239 064f 6D5F6E65 		.ascii	"m_next\000"
 2239      787400
 2240              	.LASF27:
 2241 0656 73797374 		.ascii	"systime_t\000"
ARM GAS  /var/folders/m4/4md61f0s1_g0rzfghffqnxvr0000gn/T//ccJ0mkNR.s 			page 45


 2241      696D655F 
 2241      7400
 2242              	.LASF46:
 2243 0660 705F7265 		.ascii	"p_realprio\000"
 2243      616C7072 
 2243      696F00
 2244              	.LASF62:
 2245 066b 76746675 		.ascii	"vtfunc_t\000"
 2245      6E635F74 
 2245      00
 2246              	.LASF9:
 2247 0674 5F5F7569 		.ascii	"__uint32_t\000"
 2247      6E743332 
 2247      5F7400
 2248              	.LASF75:
 2249 067f 70616E69 		.ascii	"panic_msg\000"
 2249      635F6D73 
 2249      6700
 2250              	.LASF125:
 2251 0689 6F666673 		.ascii	"offset\000"
 2251      657400
 2252              	.LASF102:
 2253 0690 41504231 		.ascii	"APB1ENR\000"
 2253      454E5200 
 2254              	.LASF99:
 2255 0698 41484232 		.ascii	"AHB2ENR\000"
 2255      454E5200 
 2256              	.LASF123:
 2257 06a0 636F6E74 		.ascii	"context\000"
 2257      65787400 
 2258              	.LASF60:
 2259 06a8 725F6F6C 		.ascii	"r_older\000"
 2259      64657200 
 2260              	.LASF150:
 2261 06b0 68616C5F 		.ascii	"hal_lld_init\000"
 2261      6C6C645F 
 2261      696E6974 
 2261      00
 2262              	.LASF18:
 2263 06bd 7274636E 		.ascii	"rtcnt_t\000"
 2263      745F7400 
 2264              	.LASF69:
 2265 06c5 76745F70 		.ascii	"vt_par\000"
 2265      617200
 2266              	.LASF114:
 2267 06cc 53534347 		.ascii	"SSCGR\000"
 2267      5200
 2268              	.LASF52:
 2269 06d2 74687265 		.ascii	"threads_queue_t\000"
 2269      6164735F 
 2269      71756575 
 2269      655F7400 
 2270              	.LASF137:
 2271 06e2 63685F6D 		.ascii	"ch_mutex\000"
 2271      75746578 
 2271      00
 2272              	.LASF38:
ARM GAS  /var/folders/m4/4md61f0s1_g0rzfghffqnxvr0000gn/T//ccJ0mkNR.s 			page 46


 2273 06eb 705F7265 		.ascii	"p_refs\000"
 2273      667300
 2274              	.LASF118:
 2275 06f2 434B4741 		.ascii	"CKGATENR\000"
 2275      54454E52 
 2275      00
 2276              	.LASF112:
 2277 06fb 42444352 		.ascii	"BDCR\000"
 2277      00
 2278              	.LASF78:
 2279 0700 726C6973 		.ascii	"rlist\000"
 2279      7400
 2280              	.LASF14:
 2281 0706 75696E74 		.ascii	"uint8_t\000"
 2281      385F7400 
 2282              	.LASF129:
 2283 070e 77746F62 		.ascii	"wtobjp\000"
 2283      6A7000
 2284              	.LASF35:
 2285 0715 705F6E61 		.ascii	"p_name\000"
 2285      6D6500
 2286              	.LASF98:
 2287 071c 41484231 		.ascii	"AHB1ENR\000"
 2287      454E5200 
 2288              	.LASF90:
 2289 0724 43464752 		.ascii	"CFGR\000"
 2289      00
 2290              	.LASF135:
 2291 0729 735F7175 		.ascii	"s_queue\000"
 2291      65756500 
 2292              	.LASF43:
 2293 0731 705F6D73 		.ascii	"p_msg\000"
 2293      6700
 2294              	.LASF139:
 2295 0737 6D5F6F77 		.ascii	"m_owner\000"
 2295      6E657200 
 2296              	.LASF32:
 2297 073f 705F6374 		.ascii	"p_ctx\000"
 2297      7800
 2298              	.LASF68:
 2299 0745 76745F66 		.ascii	"vt_func\000"
 2299      756E6300 
 2300              		.ident	"GCC: (GNU Tools for ARM Embedded Processors) 5.2.1 20151202 (release) [ARM/embedded-5-bran
ARM GAS  /var/folders/m4/4md61f0s1_g0rzfghffqnxvr0000gn/T//ccJ0mkNR.s 			page 47


DEFINED SYMBOLS
                            *ABS*:0000000000000000 hal_lld.c
/var/folders/m4/4md61f0s1_g0rzfghffqnxvr0000gn/T//ccJ0mkNR.s:22     .text.hal_lld_init:0000000000000000 $t
/var/folders/m4/4md61f0s1_g0rzfghffqnxvr0000gn/T//ccJ0mkNR.s:28     .text.hal_lld_init:0000000000000000 hal_lld_init
/var/folders/m4/4md61f0s1_g0rzfghffqnxvr0000gn/T//ccJ0mkNR.s:111    .text.hal_lld_init:0000000000000060 $d
/var/folders/m4/4md61f0s1_g0rzfghffqnxvr0000gn/T//ccJ0mkNR.s:117    .text.stm32_clock_init:0000000000000000 $t
/var/folders/m4/4md61f0s1_g0rzfghffqnxvr0000gn/T//ccJ0mkNR.s:123    .text.stm32_clock_init:0000000000000000 stm32_clock_init
/var/folders/m4/4md61f0s1_g0rzfghffqnxvr0000gn/T//ccJ0mkNR.s:247    .text.stm32_clock_init:00000000000000b4 $d
/var/folders/m4/4md61f0s1_g0rzfghffqnxvr0000gn/T//ccJ0mkNR.s:260    .data.SystemCoreClock:0000000000000000 SystemCoreClock
/var/folders/m4/4md61f0s1_g0rzfghffqnxvr0000gn/T//ccJ0mkNR.s:257    .data.SystemCoreClock:0000000000000000 $d
                     .debug_frame:0000000000000010 $d

UNDEFINED SYMBOLS
dmaInit
