ARM GAS  /var/folders/m4/4md61f0s1_g0rzfghffqnxvr0000gn/T//ccWt0Haq.s 			page 1


   1              		.syntax unified
   2              		.cpu cortex-m4
   3              		.eabi_attribute 27, 1
   4              		.eabi_attribute 28, 1
   5              		.fpu fpv4-sp-d16
   6              		.eabi_attribute 20, 1
   7              		.eabi_attribute 21, 1
   8              		.eabi_attribute 23, 3
   9              		.eabi_attribute 24, 1
  10              		.eabi_attribute 25, 1
  11              		.eabi_attribute 26, 1
  12              		.eabi_attribute 30, 2
  13              		.eabi_attribute 34, 1
  14              		.eabi_attribute 18, 4
  15              		.thumb
  16              		.file	"i2c_lld.c"
  17              		.text
  18              	.Ltext0:
  19              		.cfi_sections	.debug_frame
  20              		.section	.text.i2c_lld_serve_tx_end_irq,"ax",%progbits
  21              		.align	2
  22              		.p2align 4,,15
  23              		.thumb
  24              		.thumb_func
  25              		.type	i2c_lld_serve_tx_end_irq, %function
  26              	i2c_lld_serve_tx_end_irq:
  27              	.LFB273:
  28              		.file 1 "ChibiOS_16.1.4/os/hal/ports/STM32/LLD/I2Cv1/i2c_lld.c"
  29              		.loc 1 332 0
  30              		.cfi_startproc
  31              		@ args = 0, pretend = 0, frame = 0
  32              		@ frame_needed = 0, uses_anonymous_args = 0
  33              	.LVL0:
  34              		.loc 1 337 0
  35 0000 11F00C0F 		tst	r1, #12
  36              		.loc 1 332 0
  37 0004 38B5     		push	{r3, r4, r5, lr}
  38              		.cfi_def_cfa_offset 16
  39              		.cfi_offset 3, -16
  40              		.cfi_offset 4, -12
  41              		.cfi_offset 5, -8
  42              		.cfi_offset 14, -4
  43              		.loc 1 332 0
  44 0006 0546     		mov	r5, r0
  45              		.loc 1 333 0
  46 0008 446B     		ldr	r4, [r0, #52]
  47              	.LVL1:
  48              		.loc 1 337 0
  49 000a 12D1     		bne	.L10
  50              	.LVL2:
  51              	.L2:
  52              		.loc 1 344 0
  53 000c 296B     		ldr	r1, [r5, #48]
  54 000e 0A68     		ldr	r2, [r1]
  55 0010 1368     		ldr	r3, [r2]
  56 0012 23F01F03 		bic	r3, r3, #31
  57 0016 1360     		str	r3, [r2]
ARM GAS  /var/folders/m4/4md61f0s1_g0rzfghffqnxvr0000gn/T//ccWt0Haq.s 			page 2


  58              	.L3:
  59              		.loc 1 344 0 is_stmt 0 discriminator 2
  60 0018 1368     		ldr	r3, [r2]
  61 001a DB07     		lsls	r3, r3, #31
  62 001c FCD4     		bmi	.L3
  63              		.loc 1 344 0 discriminator 3
  64 001e 087A     		ldrb	r0, [r1, #8]	@ zero_extendqisi2
  65 0020 4A68     		ldr	r2, [r1, #4]
  66 0022 3D23     		movs	r3, #61
  67 0024 8340     		lsls	r3, r3, r0
  68 0026 1360     		str	r3, [r2]
  69              		.loc 1 348 0 is_stmt 1 discriminator 3
  70 0028 6368     		ldr	r3, [r4, #4]
  71 002a 43F40073 		orr	r3, r3, #512
  72 002e 6360     		str	r3, [r4, #4]
  73 0030 38BD     		pop	{r3, r4, r5, pc}
  74              	.LVL3:
  75              	.L10:
  76              	.LBB209:
  77              	.LBB210:
  78              		.file 2 "ChibiOS_16.1.4/os/hal/osal/rt/osal.h"
  79              		.loc 2 462 0
  80 0032 0248     		ldr	r0, .L11
  81              	.LVL4:
  82 0034 FFF7FEFF 		bl	chSysHalt
  83              	.LVL5:
  84 0038 E8E7     		b	.L2
  85              	.L12:
  86 003a 00BF     		.align	2
  87              	.L11:
  88 003c 00000000 		.word	.LC0
  89              	.LBE210:
  90              	.LBE209:
  91              		.cfi_endproc
  92              	.LFE273:
  93              		.size	i2c_lld_serve_tx_end_irq, .-i2c_lld_serve_tx_end_irq
  94              		.section	.text.i2c_lld_serve_rx_end_irq,"ax",%progbits
  95              		.align	2
  96              		.p2align 4,,15
  97              		.thumb
  98              		.thumb_func
  99              		.type	i2c_lld_serve_rx_end_irq, %function
 100              	i2c_lld_serve_rx_end_irq:
 101              	.LFB272:
 102              		.loc 1 305 0
 103              		.cfi_startproc
 104              		@ args = 0, pretend = 0, frame = 0
 105              		@ frame_needed = 0, uses_anonymous_args = 0
 106              	.LVL6:
 107              		.loc 1 310 0
 108 0000 11F00C0F 		tst	r1, #12
 109              		.loc 1 305 0
 110 0004 70B5     		push	{r4, r5, r6, lr}
 111              		.cfi_def_cfa_offset 16
 112              		.cfi_offset 4, -16
 113              		.cfi_offset 5, -12
 114              		.cfi_offset 6, -8
ARM GAS  /var/folders/m4/4md61f0s1_g0rzfghffqnxvr0000gn/T//ccWt0Haq.s 			page 3


 115              		.cfi_offset 14, -4
 116              		.loc 1 305 0
 117 0006 0646     		mov	r6, r0
 118              		.loc 1 306 0
 119 0008 456B     		ldr	r5, [r0, #52]
 120              	.LVL7:
 121              		.loc 1 310 0
 122 000a 25D1     		bne	.L21
 123              	.LVL8:
 124              	.L14:
 125              		.loc 1 317 0
 126 000c F26A     		ldr	r2, [r6, #44]
 127 000e 1368     		ldr	r3, [r2]
 128 0010 1968     		ldr	r1, [r3]
 129 0012 21F01F01 		bic	r1, r1, #31
 130 0016 1960     		str	r1, [r3]
 131              	.L15:
 132              		.loc 1 317 0 is_stmt 0 discriminator 2
 133 0018 1968     		ldr	r1, [r3]
 134 001a 11F00104 		ands	r4, r1, #1
 135 001e FBD1     		bne	.L15
 136              		.loc 1 317 0 discriminator 3
 137 0020 117A     		ldrb	r1, [r2, #8]	@ zero_extendqisi2
 138 0022 5268     		ldr	r2, [r2, #4]
 139 0024 3D23     		movs	r3, #61
 140 0026 8B40     		lsls	r3, r3, r1
 141 0028 1360     		str	r3, [r2]
 142              		.loc 1 319 0 is_stmt 1 discriminator 3
 143 002a 6B68     		ldr	r3, [r5, #4]
 144 002c 23F48053 		bic	r3, r3, #4096
 145 0030 6B60     		str	r3, [r5, #4]
 146              		.loc 1 320 0 discriminator 3
 147 0032 2B68     		ldr	r3, [r5]
 148 0034 23F48063 		bic	r3, r3, #1024
 149 0038 2B60     		str	r3, [r5]
 150              		.loc 1 321 0 discriminator 3
 151 003a 2B68     		ldr	r3, [r5]
 152 003c 43F40073 		orr	r3, r3, #512
 153 0040 2B60     		str	r3, [r5]
 154              	.LVL9:
 155              	.LBB211:
 156              	.LBB212:
 157              	.LBB213:
 158              	.LBB214:
 159              	.LBB215:
 160              	.LBB216:
 161              		.file 3 "ChibiOS_16.1.4/os/ext/CMSIS/include/core_cmFunc.h"
 162              		.loc 3 548 0 discriminator 3
 163 0042 2023     		movs	r3, #32
 164              	@ 548 "ChibiOS_16.1.4/os/ext/CMSIS/include/core_cmFunc.h" 1
 165 0044 83F31188 		MSR basepri, r3
 166              	@ 0 "" 2
 167              	.LVL10:
 168              		.thumb
 169              	.LBE216:
 170              	.LBE215:
 171              	.LBE214:
ARM GAS  /var/folders/m4/4md61f0s1_g0rzfghffqnxvr0000gn/T//ccWt0Haq.s 			page 4


 172              	.LBE213:
 173              	.LBE212:
 174              	.LBE211:
 175              	.LBB217:
 176              	.LBB218:
 177              		.loc 2 728 0 discriminator 3
 178 0048 06F11C00 		add	r0, r6, #28
 179              	.LVL11:
 180 004c 2146     		mov	r1, r4
 181 004e FFF7FEFF 		bl	chThdResumeI
 182              	.LVL12:
 183              	.LBE218:
 184              	.LBE217:
 185              	.LBB219:
 186              	.LBB220:
 187              	.LBB221:
 188              	.LBB222:
 189              	.LBB223:
 190              	.LBB224:
 191              		.loc 3 548 0 discriminator 3
 192              	@ 548 "ChibiOS_16.1.4/os/ext/CMSIS/include/core_cmFunc.h" 1
 193 0052 84F31188 		MSR basepri, r4
 194              	@ 0 "" 2
 195              		.thumb
 196 0056 70BD     		pop	{r4, r5, r6, pc}
 197              	.LVL13:
 198              	.L21:
 199              	.LBE224:
 200              	.LBE223:
 201              	.LBE222:
 202              	.LBE221:
 203              	.LBE220:
 204              	.LBE219:
 205              	.LBB225:
 206              	.LBB226:
 207              		.loc 2 462 0
 208 0058 0148     		ldr	r0, .L22
 209              	.LVL14:
 210 005a FFF7FEFF 		bl	chSysHalt
 211              	.LVL15:
 212 005e D5E7     		b	.L14
 213              	.L23:
 214              		.align	2
 215              	.L22:
 216 0060 00000000 		.word	.LC0
 217              	.LBE226:
 218              	.LBE225:
 219              		.cfi_endproc
 220              	.LFE272:
 221              		.size	i2c_lld_serve_rx_end_irq, .-i2c_lld_serve_rx_end_irq
 222              		.section	.text.VectorBC,"ax",%progbits
 223              		.align	2
 224              		.p2align 4,,15
 225              		.global	VectorBC
 226              		.thumb
 227              		.thumb_func
 228              		.type	VectorBC, %function
ARM GAS  /var/folders/m4/4md61f0s1_g0rzfghffqnxvr0000gn/T//ccWt0Haq.s 			page 5


 229              	VectorBC:
 230              	.LFB275:
 231              		.loc 1 406 0
 232              		.cfi_startproc
 233              		@ args = 0, pretend = 0, frame = 0
 234              		@ frame_needed = 0, uses_anonymous_args = 0
 235              	.LVL16:
 236              	.LBB243:
 237              	.LBB244:
 238              		.loc 1 246 0
 239 0000 3A48     		ldr	r0, .L41
 240              		.loc 1 253 0
 241 0002 3B4A     		ldr	r2, .L41+4
 242              	.LBE244:
 243              	.LBE243:
 244              		.loc 1 406 0
 245 0004 70B5     		push	{r4, r5, r6, lr}
 246              		.cfi_def_cfa_offset 16
 247              		.cfi_offset 4, -16
 248              		.cfi_offset 5, -12
 249              		.cfi_offset 6, -8
 250              		.cfi_offset 14, -4
 251              	.LBB262:
 252              	.LBB259:
 253              		.loc 1 246 0
 254 0006 446B     		ldr	r4, [r0, #52]
 255              	.LVL17:
 256              		.loc 1 247 0
 257 0008 A369     		ldr	r3, [r4, #24]
 258              	.LVL18:
 259              		.loc 1 248 0
 260 000a 6569     		ldr	r5, [r4, #20]
 261              	.LVL19:
 262              		.loc 1 253 0
 263 000c 45EA0343 		orr	r3, r5, r3, lsl #16
 264              	.LVL20:
 265 0010 23F07F43 		bic	r3, r3, #-16777216
 266 0014 9342     		cmp	r3, r2
 267 0016 4CD0     		beq	.L26
 268 0018 1ED8     		bhi	.L27
 269 001a 073A     		subs	r2, r2, #7
 270 001c 9342     		cmp	r3, r2
 271 001e 3CD0     		beq	.L28
 272 0020 0132     		adds	r2, r2, #1
 273 0022 9342     		cmp	r3, r2
 274 0024 10D1     		bne	.L25
 275              		.loc 1 267 0
 276 0026 6268     		ldr	r2, [r4, #4]
 277              		.loc 1 268 0
 278 0028 C36A     		ldr	r3, [r0, #44]
 279              		.loc 1 267 0
 280 002a 22F40072 		bic	r2, r2, #512
 281              		.loc 1 268 0
 282 002e 1B68     		ldr	r3, [r3]
 283              		.loc 1 267 0
 284 0030 6260     		str	r2, [r4, #4]
 285              		.loc 1 268 0
ARM GAS  /var/folders/m4/4md61f0s1_g0rzfghffqnxvr0000gn/T//ccWt0Haq.s 			page 6


 286 0032 1A68     		ldr	r2, [r3]
 287 0034 42F00102 		orr	r2, r2, #1
 288 0038 1A60     		str	r2, [r3]
 289              		.loc 1 269 0
 290 003a 6268     		ldr	r2, [r4, #4]
 291 003c 42F48052 		orr	r2, r2, #4096
 292 0040 6260     		str	r2, [r4, #4]
 293              		.loc 1 270 0
 294 0042 5B68     		ldr	r3, [r3, #4]
 295 0044 012B     		cmp	r3, #1
 296 0046 4BD9     		bls	.L40
 297              	.L25:
 298              		.loc 1 293 0
 299 0048 15F00A0F 		tst	r5, #10
 300              		.loc 1 294 0
 301 004c 18BF     		it	ne
 302 004e A369     		ldrne	r3, [r4, #24]
 303              	.LBE259:
 304              	.LBE262:
 305              		.loc 1 413 0
 306 0050 BDE87040 		pop	{r4, r5, r6, lr}
 307              		.cfi_remember_state
 308              		.cfi_restore 14
 309              		.cfi_restore 6
 310              		.cfi_restore 5
 311              		.cfi_restore 4
 312              		.cfi_def_cfa_offset 0
 313              	.LVL21:
 314              		.loc 1 412 0
 315 0054 FFF7FEBF 		b	_port_irq_epilogue
 316              	.LVL22:
 317              	.L27:
 318              		.cfi_restore_state
 319              	.LBB263:
 320              	.LBB260:
 321              		.loc 1 253 0
 322 0058 264A     		ldr	r2, .L41+8
 323 005a 9342     		cmp	r3, r2
 324 005c 12D0     		beq	.L30
 325 005e 0232     		adds	r2, r2, #2
 326 0060 9342     		cmp	r3, r2
 327 0062 F1D1     		bne	.L25
 328              		.loc 1 279 0
 329 0064 C36A     		ldr	r3, [r0, #44]
 330 0066 1B68     		ldr	r3, [r3]
 331 0068 5E68     		ldr	r6, [r3, #4]
 332 006a 3EB3     		cbz	r6, .L33
 333              		.loc 1 282 0
 334 006c 2368     		ldr	r3, [r4]
 335              		.loc 1 281 0
 336 006e 028C     		ldrh	r2, [r0, #32]
 337              		.loc 1 282 0
 338 0070 43F4A063 		orr	r3, r3, #1280
 339              		.loc 1 281 0
 340 0074 42F00102 		orr	r2, r2, #1
 341 0078 0284     		strh	r2, [r0, #32]	@ movhi
 342              		.loc 1 282 0
ARM GAS  /var/folders/m4/4md61f0s1_g0rzfghffqnxvr0000gn/T//ccWt0Haq.s 			page 7


 343 007a 2360     		str	r3, [r4]
 344              	.LBE260:
 345              	.LBE263:
 346              		.loc 1 413 0
 347 007c BDE87040 		pop	{r4, r5, r6, lr}
 348              		.cfi_remember_state
 349              		.cfi_restore 4
 350              		.cfi_restore 5
 351              		.cfi_restore 6
 352              		.cfi_restore 14
 353              		.cfi_def_cfa_offset 0
 354              	.LVL23:
 355              		.loc 1 412 0
 356 0080 FFF7FEBF 		b	_port_irq_epilogue
 357              	.LVL24:
 358              	.L30:
 359              		.cfi_restore_state
 360              	.LBB264:
 361              	.LBB261:
 362              		.loc 1 274 0
 363 0084 6368     		ldr	r3, [r4, #4]
 364              		.loc 1 275 0
 365 0086 026B     		ldr	r2, [r0, #48]
 366              		.loc 1 274 0
 367 0088 23F40073 		bic	r3, r3, #512
 368              		.loc 1 275 0
 369 008c 1268     		ldr	r2, [r2]
 370              		.loc 1 274 0
 371 008e 6360     		str	r3, [r4, #4]
 372              		.loc 1 275 0
 373 0090 1368     		ldr	r3, [r2]
 374 0092 43F00103 		orr	r3, r3, #1
 375 0096 1360     		str	r3, [r2]
 376 0098 D6E7     		b	.L25
 377              	.L28:
 378              		.loc 1 255 0
 379 009a 038C     		ldrh	r3, [r0, #32]
 380 009c 1A0A     		lsrs	r2, r3, #8
 381 009e 0BD0     		beq	.L39
 382              		.loc 1 257 0
 383 00a0 03F00103 		and	r3, r3, #1
 384 00a4 43F0F003 		orr	r3, r3, #240
 385 00a8 02F00602 		and	r2, r2, #6
 386 00ac 1343     		orrs	r3, r3, r2
 387 00ae 2361     		str	r3, [r4, #16]
 388 00b0 CAE7     		b	.L25
 389              	.L26:
 390              		.loc 1 264 0
 391 00b2 038C     		ldrh	r3, [r0, #32]
 392 00b4 C3F34703 		ubfx	r3, r3, #1, #8
 393              	.L39:
 394 00b8 2361     		str	r3, [r4, #16]
 395 00ba C5E7     		b	.L25
 396              	.L33:
 397              		.loc 1 285 0
 398 00bc 6368     		ldr	r3, [r4, #4]
 399 00be 23F40073 		bic	r3, r3, #512
ARM GAS  /var/folders/m4/4md61f0s1_g0rzfghffqnxvr0000gn/T//ccWt0Haq.s 			page 8


 400 00c2 6360     		str	r3, [r4, #4]
 401              		.loc 1 286 0
 402 00c4 2368     		ldr	r3, [r4]
 403 00c6 43F40073 		orr	r3, r3, #512
 404 00ca 2360     		str	r3, [r4]
 405              	.LVL25:
 406              	.LBB245:
 407              	.LBB246:
 408              	.LBB247:
 409              	.LBB248:
 410              	.LBB249:
 411              	.LBB250:
 412              		.loc 3 548 0
 413 00cc 2023     		movs	r3, #32
 414              	@ 548 "ChibiOS_16.1.4/os/ext/CMSIS/include/core_cmFunc.h" 1
 415 00ce 83F31188 		MSR basepri, r3
 416              	@ 0 "" 2
 417              	.LVL26:
 418              		.thumb
 419              	.LBE250:
 420              	.LBE249:
 421              	.LBE248:
 422              	.LBE247:
 423              	.LBE246:
 424              	.LBE245:
 425              	.LBB251:
 426              	.LBB252:
 427              		.loc 2 728 0
 428 00d2 1C30     		adds	r0, r0, #28
 429 00d4 3146     		mov	r1, r6
 430 00d6 FFF7FEFF 		bl	chThdResumeI
 431              	.LVL27:
 432              	.LBE252:
 433              	.LBE251:
 434              	.LBB253:
 435              	.LBB254:
 436              	.LBB255:
 437              	.LBB256:
 438              	.LBB257:
 439              	.LBB258:
 440              		.loc 3 548 0
 441              	@ 548 "ChibiOS_16.1.4/os/ext/CMSIS/include/core_cmFunc.h" 1
 442 00da 86F31188 		MSR basepri, r6
 443              	@ 0 "" 2
 444              		.thumb
 445 00de B3E7     		b	.L25
 446              	.LVL28:
 447              	.L40:
 448              	.LBE258:
 449              	.LBE257:
 450              	.LBE256:
 451              	.LBE255:
 452              	.LBE254:
 453              	.LBE253:
 454              		.loc 1 271 0
 455 00e0 2368     		ldr	r3, [r4]
 456 00e2 23F48063 		bic	r3, r3, #1024
ARM GAS  /var/folders/m4/4md61f0s1_g0rzfghffqnxvr0000gn/T//ccWt0Haq.s 			page 9


 457 00e6 2360     		str	r3, [r4]
 458 00e8 AEE7     		b	.L25
 459              	.L42:
 460 00ea 00BF     		.align	2
 461              	.L41:
 462 00ec 00000000 		.word	.LANCHOR0
 463 00f0 08000300 		.word	196616
 464 00f4 82000700 		.word	458882
 465              	.LBE261:
 466              	.LBE264:
 467              		.cfi_endproc
 468              	.LFE275:
 469              		.size	VectorBC, .-VectorBC
 470              		.section	.text.VectorC0,"ax",%progbits
 471              		.align	2
 472              		.p2align 4,,15
 473              		.global	VectorC0
 474              		.thumb
 475              		.thumb_func
 476              		.type	VectorC0, %function
 477              	VectorC0:
 478              	.LFB276:
 479              		.loc 1 418 0
 480              		.cfi_startproc
 481              		@ args = 0, pretend = 0, frame = 0
 482              		@ frame_needed = 0, uses_anonymous_args = 0
 483              		.loc 1 419 0
 484 0000 3448     		ldr	r0, .L76
 485              		.loc 1 418 0
 486 0002 F8B5     		push	{r3, r4, r5, r6, r7, lr}
 487              		.cfi_def_cfa_offset 24
 488              		.cfi_offset 3, -24
 489              		.cfi_offset 4, -20
 490              		.cfi_offset 5, -16
 491              		.cfi_offset 6, -12
 492              		.cfi_offset 7, -8
 493              		.cfi_offset 14, -4
 494              		.loc 1 419 0
 495 0004 446B     		ldr	r4, [r0, #52]
 496              	.LBB281:
 497              	.LBB282:
 498              		.loc 1 362 0
 499 0006 076B     		ldr	r7, [r0, #48]
 500              	.LBE282:
 501              	.LBE281:
 502              		.loc 1 419 0
 503 0008 6669     		ldr	r6, [r4, #20]
 504              	.LBB301:
 505              	.LBB297:
 506              		.loc 1 362 0
 507 000a 3A68     		ldr	r2, [r7]
 508              	.LBE297:
 509              	.LBE301:
 510              		.loc 1 419 0
 511 000c B1B2     		uxth	r1, r6
 512              	.LVL29:
 513              		.loc 1 423 0
ARM GAS  /var/folders/m4/4md61f0s1_g0rzfghffqnxvr0000gn/T//ccWt0Haq.s 			page 10


 514 000e 01F45F43 		and	r3, r1, #57088
 515 0012 DB43     		mvns	r3, r3
 516 0014 6361     		str	r3, [r4, #20]
 517              	.LVL30:
 518              	.LBB302:
 519              	.LBB298:
 520              		.loc 1 362 0
 521 0016 1368     		ldr	r3, [r2]
 522 0018 23F01F03 		bic	r3, r3, #31
 523 001c 1360     		str	r3, [r2]
 524              	.L44:
 525 001e 1368     		ldr	r3, [r2]
 526 0020 DB07     		lsls	r3, r3, #31
 527 0022 FCD4     		bmi	.L44
 528 0024 97F808E0 		ldrb	lr, [r7, #8]	@ zero_extendqisi2
 529              		.loc 1 363 0
 530 0028 C56A     		ldr	r5, [r0, #44]
 531              		.loc 1 362 0
 532 002a 7F68     		ldr	r7, [r7, #4]
 533              		.loc 1 363 0
 534 002c 2A68     		ldr	r2, [r5]
 535              		.loc 1 362 0
 536 002e 3D23     		movs	r3, #61
 537 0030 03FA0EF3 		lsl	r3, r3, lr
 538 0034 3B60     		str	r3, [r7]
 539              		.loc 1 363 0
 540 0036 1368     		ldr	r3, [r2]
 541 0038 23F01F03 		bic	r3, r3, #31
 542 003c 1360     		str	r3, [r2]
 543              	.L45:
 544 003e 1368     		ldr	r3, [r2]
 545 0040 13F00103 		ands	r3, r3, #1
 546 0044 FBD1     		bne	.L45
 547 0046 2F7A     		ldrb	r7, [r5, #8]	@ zero_extendqisi2
 548 0048 6D68     		ldr	r5, [r5, #4]
 549 004a 3D22     		movs	r2, #61
 550 004c BA40     		lsls	r2, r2, r7
 551              		.loc 1 367 0
 552 004e CF05     		lsls	r7, r1, #23
 553              		.loc 1 363 0
 554 0050 2A60     		str	r2, [r5]
 555              		.loc 1 368 0
 556 0052 48BF     		it	mi
 557 0054 0123     		movmi	r3, #1
 558              		.loc 1 370 0
 559 0056 8D05     		lsls	r5, r1, #22
 560              		.loc 1 368 0
 561 0058 8360     		str	r3, [r0, #8]
 562              		.loc 1 371 0
 563 005a 44BF     		itt	mi
 564 005c 43F00203 		orrmi	r3, r3, #2
 565 0060 8360     		strmi	r3, [r0, #8]
 566              		.loc 1 373 0
 567 0062 4A05     		lsls	r2, r1, #21
 568 0064 0AD5     		bpl	.L49
 569              		.loc 1 374 0
 570 0066 6268     		ldr	r2, [r4, #4]
ARM GAS  /var/folders/m4/4md61f0s1_g0rzfghffqnxvr0000gn/T//ccWt0Haq.s 			page 11


 571 0068 22F40072 		bic	r2, r2, #512
 572 006c 6260     		str	r2, [r4, #4]
 573              		.loc 1 375 0
 574 006e 2268     		ldr	r2, [r4]
 575              		.loc 1 376 0
 576 0070 43F00403 		orr	r3, r3, #4
 577              		.loc 1 375 0
 578 0074 42F40072 		orr	r2, r2, #512
 579 0078 2260     		str	r2, [r4]
 580              		.loc 1 376 0
 581 007a 8360     		str	r3, [r0, #8]
 582              	.L49:
 583              		.loc 1 379 0
 584 007c 0F05     		lsls	r7, r1, #20
 585              		.loc 1 380 0
 586 007e 44BF     		itt	mi
 587 0080 43F00803 		orrmi	r3, r3, #8
 588 0084 8360     		strmi	r3, [r0, #8]
 589              		.loc 1 382 0
 590 0086 4D04     		lsls	r5, r1, #17
 591              		.loc 1 383 0
 592 0088 44BF     		itt	mi
 593 008a 43F02003 		orrmi	r3, r3, #32
 594 008e 8360     		strmi	r3, [r0, #8]
 595              		.loc 1 385 0
 596 0090 CC04     		lsls	r4, r1, #19
 597 0092 13D5     		bpl	.L52
 598              		.loc 1 386 0
 599 0094 43F01003 		orr	r3, r3, #16
 600              		.loc 1 388 0
 601 0098 3104     		lsls	r1, r6, #16
 602              	.LVL31:
 603              		.loc 1 386 0
 604 009a 8360     		str	r3, [r0, #8]
 605              		.loc 1 388 0
 606 009c 16D4     		bmi	.L53
 607              	.L54:
 608              	.LVL32:
 609              	.LBB283:
 610              	.LBB284:
 611              	.LBB285:
 612              	.LBB286:
 613              	.LBB287:
 614              	.LBB288:
 615              		.loc 3 548 0
 616 009e 2023     		movs	r3, #32
 617              	@ 548 "ChibiOS_16.1.4/os/ext/CMSIS/include/core_cmFunc.h" 1
 618 00a0 83F31188 		MSR basepri, r3
 619              	@ 0 "" 2
 620              	.LVL33:
 621              		.thumb
 622              	.LBE288:
 623              	.LBE287:
 624              	.LBE286:
 625              	.LBE285:
 626              	.LBE284:
 627              	.LBE283:
ARM GAS  /var/folders/m4/4md61f0s1_g0rzfghffqnxvr0000gn/T//ccWt0Haq.s 			page 12


 628              	.LBB289:
 629              	.LBB290:
 630              		.loc 2 728 0
 631 00a4 0C48     		ldr	r0, .L76+4
 632 00a6 6FF00101 		mvn	r1, #1
 633 00aa FFF7FEFF 		bl	chThdResumeI
 634              	.LVL34:
 635              	.LBE290:
 636              	.LBE289:
 637              	.LBB291:
 638              	.LBB292:
 639              	.LBB293:
 640              	.LBB294:
 641              	.LBB295:
 642              	.LBB296:
 643              		.loc 3 548 0
 644 00ae 0023     		movs	r3, #0
 645              	@ 548 "ChibiOS_16.1.4/os/ext/CMSIS/include/core_cmFunc.h" 1
 646 00b0 83F31188 		MSR basepri, r3
 647              	@ 0 "" 2
 648              		.thumb
 649              	.LBE296:
 650              	.LBE295:
 651              	.LBE294:
 652              	.LBE293:
 653              	.LBE292:
 654              	.LBE291:
 655              	.LBE298:
 656              	.LBE302:
 657              		.loc 1 427 0
 658 00b4 BDE8F840 		pop	{r3, r4, r5, r6, r7, lr}
 659              		.cfi_remember_state
 660              		.cfi_restore 3
 661              		.cfi_restore 4
 662              		.cfi_restore 5
 663              		.cfi_restore 6
 664              		.cfi_restore 7
 665              		.cfi_restore 14
 666              		.cfi_def_cfa_offset 0
 667              	.LVL35:
 668              		.loc 1 426 0
 669 00b8 FFF7FEBF 		b	_port_irq_epilogue
 670              	.LVL36:
 671              	.L52:
 672              		.cfi_restore_state
 673              	.LBB303:
 674              	.LBB299:
 675              		.loc 1 388 0
 676 00bc 3204     		lsls	r2, r6, #16
 677 00be 05D4     		bmi	.L53
 678              		.loc 1 392 0
 679 00c0 002B     		cmp	r3, #0
 680 00c2 ECD1     		bne	.L54
 681              	.LBE299:
 682              	.LBE303:
 683              		.loc 1 427 0
 684 00c4 BDE8F840 		pop	{r3, r4, r5, r6, r7, lr}
ARM GAS  /var/folders/m4/4md61f0s1_g0rzfghffqnxvr0000gn/T//ccWt0Haq.s 			page 13


 685              		.cfi_remember_state
 686              		.cfi_restore 14
 687              		.cfi_restore 7
 688              		.cfi_restore 6
 689              		.cfi_restore 5
 690              		.cfi_restore 4
 691              		.cfi_restore 3
 692              		.cfi_def_cfa_offset 0
 693              		.loc 1 426 0
 694 00c8 FFF7FEBF 		b	_port_irq_epilogue
 695              	.LVL37:
 696              	.L53:
 697              		.cfi_restore_state
 698              	.LBB304:
 699              	.LBB300:
 700              		.loc 1 389 0
 701 00cc 43F04003 		orr	r3, r3, #64
 702 00d0 8360     		str	r3, [r0, #8]
 703 00d2 E4E7     		b	.L54
 704              	.L77:
 705              		.align	2
 706              	.L76:
 707 00d4 00000000 		.word	.LANCHOR0
 708 00d8 1C000000 		.word	.LANCHOR0+28
 709              	.LBE300:
 710              	.LBE304:
 711              		.cfi_endproc
 712              	.LFE276:
 713              		.size	VectorC0, .-VectorC0
 714              		.section	.text.i2c_lld_init,"ax",%progbits
 715              		.align	2
 716              		.p2align 4,,15
 717              		.global	i2c_lld_init
 718              		.thumb
 719              		.thumb_func
 720              		.type	i2c_lld_init, %function
 721              	i2c_lld_init:
 722              	.LFB277:
 723              		.loc 1 503 0
 724              		.cfi_startproc
 725              		@ args = 0, pretend = 0, frame = 0
 726              		@ frame_needed = 0, uses_anonymous_args = 0
 727 0000 10B5     		push	{r4, lr}
 728              		.cfi_def_cfa_offset 8
 729              		.cfi_offset 4, -8
 730              		.cfi_offset 14, -4
 731              		.loc 1 506 0
 732 0002 074C     		ldr	r4, .L80
 733 0004 2046     		mov	r0, r4
 734 0006 FFF7FEFF 		bl	i2cObjectInit
 735              	.LVL38:
 736              		.loc 1 509 0
 737 000a 064B     		ldr	r3, .L80+4
 738              		.loc 1 508 0
 739 000c 064A     		ldr	r2, .L80+8
 740 000e 6263     		str	r2, [r4, #52]
 741              		.loc 1 507 0
ARM GAS  /var/folders/m4/4md61f0s1_g0rzfghffqnxvr0000gn/T//ccWt0Haq.s 			page 14


 742 0010 0021     		movs	r1, #0
 743              		.loc 1 510 0
 744 0012 03F14802 		add	r2, r3, #72
 745              		.loc 1 507 0
 746 0016 E161     		str	r1, [r4, #28]
 747              		.loc 1 509 0
 748 0018 E362     		str	r3, [r4, #44]
 749              		.loc 1 510 0
 750 001a 2263     		str	r2, [r4, #48]
 751 001c 10BD     		pop	{r4, pc}
 752              	.L81:
 753 001e 00BF     		.align	2
 754              	.L80:
 755 0020 00000000 		.word	.LANCHOR0
 756 0024 00000000 		.word	_stm32_dma_streams
 757 0028 00540040 		.word	1073763328
 758              		.cfi_endproc
 759              	.LFE277:
 760              		.size	i2c_lld_init, .-i2c_lld_init
 761              		.section	.text.i2c_lld_start,"ax",%progbits
 762              		.align	2
 763              		.p2align 4,,15
 764              		.global	i2c_lld_start
 765              		.thumb
 766              		.thumb_func
 767              		.type	i2c_lld_start, %function
 768              	i2c_lld_start:
 769              	.LFB278:
 770              		.loc 1 537 0
 771              		.cfi_startproc
 772              		@ args = 0, pretend = 0, frame = 0
 773              		@ frame_needed = 0, uses_anonymous_args = 0
 774              	.LVL39:
 775 0000 2DE9F843 		push	{r3, r4, r5, r6, r7, r8, r9, lr}
 776              		.cfi_def_cfa_offset 32
 777              		.cfi_offset 3, -32
 778              		.cfi_offset 4, -28
 779              		.cfi_offset 5, -24
 780              		.cfi_offset 6, -20
 781              		.cfi_offset 7, -16
 782              		.cfi_offset 8, -12
 783              		.cfi_offset 9, -8
 784              		.cfi_offset 14, -4
 785              		.loc 1 550 0
 786 0004 0378     		ldrb	r3, [r0]	@ zero_extendqisi2
 787              		.loc 1 538 0
 788 0006 456B     		ldr	r5, [r0, #52]
 789              	.LVL40:
 790              		.loc 1 540 0
 791 0008 40F25642 		movw	r2, #1110
 792 000c 8262     		str	r2, [r0, #40]
 793              		.loc 1 550 0
 794 000e 012B     		cmp	r3, #1
 795              		.loc 1 544 0
 796 0010 40F21642 		movw	r2, #1046
 797              		.loc 1 537 0
 798 0014 0446     		mov	r4, r0
ARM GAS  /var/folders/m4/4md61f0s1_g0rzfghffqnxvr0000gn/T//ccWt0Haq.s 			page 15


 799              		.loc 1 544 0
 800 0016 4262     		str	r2, [r0, #36]
 801              		.loc 1 550 0
 802 0018 43D0     		beq	.L97
 803              	.L93:
 804              		.loc 1 538 0
 805 001a 2B46     		mov	r3, r5
 806              	.LVL41:
 807              	.L83:
 808              		.loc 1 632 0
 809 001c E16A     		ldr	r1, [r4, #44]
 810              		.loc 1 633 0
 811 001e 226B     		ldr	r2, [r4, #48]
 812 0020 6068     		ldr	r0, [r4, #4]
 813              	.LVL42:
 814              		.loc 1 632 0
 815 0022 D1F80090 		ldr	r9, [r1]
 816              		.loc 1 633 0
 817 0026 D2F80080 		ldr	r8, [r2]
 818              	.LBB310:
 819              	.LBB311:
 820              		.loc 1 146 0
 821 002a 4468     		ldr	r4, [r0, #4]
 822              	.LVL43:
 823              		.loc 1 147 0
 824 002c 90F808E0 		ldrb	lr, [r0, #8]	@ zero_extendqisi2
 825              	.LVL44:
 826              		.loc 1 161 0
 827 0030 4C4E     		ldr	r6, .L102
 828              	.LBE311:
 829              	.LBE310:
 830              		.loc 1 632 0
 831 0032 05F11001 		add	r1, r5, #16
 832              		.loc 1 638 0
 833 0036 4FF41067 		mov	r7, #2304
 834              		.loc 1 636 0
 835 003a 4FF4004C 		mov	ip, #32768
 836              		.loc 1 637 0
 837 003e 0022     		movs	r2, #0
 838              		.loc 1 632 0
 839 0040 C9F80810 		str	r1, [r9, #8]
 840              		.loc 1 633 0
 841 0044 C8F80810 		str	r1, [r8, #8]
 842              		.loc 1 636 0
 843 0048 C5F800C0 		str	ip, [r5]
 844              		.loc 1 637 0
 845 004c 2A60     		str	r2, [r5]
 846              		.loc 1 638 0
 847 004e 6F60     		str	r7, [r5, #4]
 848              	.LBB315:
 849              	.LBB312:
 850              		.loc 1 154 0
 851 0050 5F68     		ldr	r7, [r3, #4]
 852 0052 4FF6C071 		movw	r1, #65472
 853 0056 3940     		ands	r1, r1, r7
 854 0058 5960     		str	r1, [r3, #4]
 855              		.loc 1 155 0
ARM GAS  /var/folders/m4/4md61f0s1_g0rzfghffqnxvr0000gn/T//ccWt0Haq.s 			page 16


 856 005a 5968     		ldr	r1, [r3, #4]
 857              		.loc 1 161 0
 858 005c B442     		cmp	r4, r6
 859              		.loc 1 155 0
 860 005e 41F02A01 		orr	r1, r1, #42
 861 0062 5960     		str	r1, [r3, #4]
 862              	.LVL45:
 863              		.loc 1 161 0
 864 0064 51DD     		ble	.L98
 865              		.loc 1 177 0
 866 0066 4049     		ldr	r1, .L102+4
 867 0068 8C42     		cmp	r4, r1
 868 006a 09DC     		bgt	.L85
 869              		.loc 1 183 0
 870 006c BEF1020F 		cmp	lr, #2
 871 0070 6AD0     		beq	.L99
 872              		.loc 1 189 0
 873 0072 BEF1030F 		cmp	lr, #3
 874 0076 5AD0     		beq	.L100
 875 0078 48F6FF72 		movw	r2, #36863
 876              	.LVL46:
 877              	.L87:
 878              		.loc 1 202 0
 879 007c 0D21     		movs	r1, #13
 880 007e 1962     		str	r1, [r3, #32]
 881              	.L85:
 882              		.loc 1 207 0
 883 0080 DA61     		str	r2, [r3, #28]
 884              	.LVL47:
 885              	.LBE312:
 886              	.LBE315:
 887              	.LBB316:
 888              	.LBB317:
 889              		.loc 1 223 0
 890 0082 0178     		ldrb	r1, [r0]	@ zero_extendqisi2
 891              		.loc 1 222 0
 892 0084 1A68     		ldr	r2, [r3]
 893              		.loc 1 223 0
 894 0086 0229     		cmp	r1, #2
 895              		.loc 1 222 0
 896 0088 92B2     		uxth	r2, r2
 897              	.LVL48:
 898              		.loc 1 223 0
 899 008a 4AD0     		beq	.L89
 900 008c 0329     		cmp	r1, #3
 901 008e 45D0     		beq	.L90
 902 0090 0129     		cmp	r1, #1
 903 0092 36D0     		beq	.L101
 904              	.L88:
 905              		.loc 1 235 0
 906 0094 1A60     		str	r2, [r3]
 907              	.LVL49:
 908              	.LBE317:
 909              	.LBE316:
 910              		.loc 1 645 0
 911 0096 2B68     		ldr	r3, [r5]
 912              	.LVL50:
ARM GAS  /var/folders/m4/4md61f0s1_g0rzfghffqnxvr0000gn/T//ccWt0Haq.s 			page 17


 913 0098 43F00103 		orr	r3, r3, #1
 914 009c 2B60     		str	r3, [r5]
 915 009e BDE8F883 		pop	{r3, r4, r5, r6, r7, r8, r9, pc}
 916              	.LVL51:
 917              	.L97:
 918              		.loc 1 553 0
 919 00a2 324B     		ldr	r3, .L102+8
 920 00a4 9842     		cmp	r0, r3
 921 00a6 B8D1     		bne	.L93
 922              	.LBB320:
 923              		.loc 1 556 0
 924 00a8 314E     		ldr	r6, .L102+12
 925              		.loc 1 557 0
 926 00aa C06A     		ldr	r0, [r0, #44]
 927              	.LVL52:
 928              		.loc 1 556 0
 929 00ac 336A     		ldr	r3, [r6, #32]
 930              		.loc 1 557 0
 931 00ae 314A     		ldr	r2, .L102+16
 932              		.loc 1 556 0
 933 00b0 43F40013 		orr	r3, r3, #2097152
 934 00b4 0027     		movs	r7, #0
 935 00b6 3362     		str	r3, [r6, #32]
 936              		.loc 1 557 0
 937 00b8 0421     		movs	r1, #4
 938 00ba 2346     		mov	r3, r4
 939              		.loc 1 556 0
 940 00bc 3762     		str	r7, [r6, #32]
 941              		.loc 1 557 0
 942 00be FFF7FEFF 		bl	dmaStreamAllocate
 943              	.LVL53:
 944              		.loc 1 562 0
 945 00c2 2D4A     		ldr	r2, .L102+20
 946 00c4 206B     		ldr	r0, [r4, #48]
 947 00c6 0421     		movs	r1, #4
 948 00c8 2346     		mov	r3, r4
 949 00ca FFF7FEFF 		bl	dmaStreamAllocate
 950              	.LVL54:
 951              		.loc 1 567 0
 952 00ce 336C     		ldr	r3, [r6, #64]
 953 00d0 43F40013 		orr	r3, r3, #2097152
 954 00d4 3364     		str	r3, [r6, #64]
 955              		.loc 1 568 0
 956 00d6 1F20     		movs	r0, #31
 957 00d8 0421     		movs	r1, #4
 958 00da FFF7FEFF 		bl	nvicEnableVector
 959              	.LVL55:
 960              		.loc 1 569 0
 961 00de 0421     		movs	r1, #4
 962 00e0 2020     		movs	r0, #32
 963 00e2 FFF7FEFF 		bl	nvicEnableVector
 964              	.LVL56:
 965              		.loc 1 571 0
 966 00e6 616A     		ldr	r1, [r4, #36]
 967              		.loc 1 573 0
 968 00e8 A26A     		ldr	r2, [r4, #40]
 969 00ea 636B     		ldr	r3, [r4, #52]
ARM GAS  /var/folders/m4/4md61f0s1_g0rzfghffqnxvr0000gn/T//ccWt0Haq.s 			page 18


 970              		.loc 1 571 0
 971 00ec 41F00071 		orr	r1, r1, #33554432
 972              		.loc 1 573 0
 973 00f0 42F00072 		orr	r2, r2, #33554432
 974              		.loc 1 571 0
 975 00f4 41F44031 		orr	r1, r1, #196608
 976              		.loc 1 573 0
 977 00f8 42F44032 		orr	r2, r2, #196608
 978              		.loc 1 571 0
 979 00fc 6162     		str	r1, [r4, #36]
 980              		.loc 1 573 0
 981 00fe A262     		str	r2, [r4, #40]
 982 0100 8CE7     		b	.L83
 983              	.LVL57:
 984              	.L101:
 985              	.LBE320:
 986              	.LBB321:
 987              	.LBB318:
 988              		.loc 1 225 0
 989 0102 22F00A02 		bic	r2, r2, #10
 990              	.LVL58:
 991 0106 92B2     		uxth	r2, r2
 992              	.LVL59:
 993 0108 C4E7     		b	.L88
 994              	.LVL60:
 995              	.L98:
 996              	.LBE318:
 997              	.LBE321:
 998              	.LBB322:
 999              	.LBB313:
 1000              		.loc 1 175 0
 1001 010a 2B21     		movs	r1, #43
 1002              		.loc 1 168 0
 1003 010c 6400     		lsls	r4, r4, #1
 1004              	.LVL61:
 1005 010e 1B4A     		ldr	r2, .L102+24
 1006              		.loc 1 175 0
 1007 0110 1962     		str	r1, [r3, #32]
 1008              		.loc 1 168 0
 1009 0112 B2FBF4F2 		udiv	r2, r2, r4
 1010 0116 C2F30B02 		ubfx	r2, r2, #0, #12
 1011 011a B1E7     		b	.L85
 1012              	.LVL62:
 1013              	.L90:
 1014              	.LBE313:
 1015              	.LBE322:
 1016              	.LBB323:
 1017              	.LBB319:
 1018              		.loc 1 232 0
 1019 011c 42F00A02 		orr	r2, r2, #10
 1020              	.LVL63:
 1021 0120 B8E7     		b	.L88
 1022              	.L89:
 1023              	.LVL64:
 1024              		.loc 1 229 0
 1025 0122 22F00802 		bic	r2, r2, #8
 1026              	.LVL65:
ARM GAS  /var/folders/m4/4md61f0s1_g0rzfghffqnxvr0000gn/T//ccWt0Haq.s 			page 19


 1027 0126 92B2     		uxth	r2, r2
 1028 0128 42F00202 		orr	r2, r2, #2
 1029              	.LVL66:
 1030 012c B2E7     		b	.L88
 1031              	.LVL67:
 1032              	.L100:
 1033              	.LBE319:
 1034              	.LBE323:
 1035              	.LBB324:
 1036              	.LBB314:
 1037              		.loc 1 193 0
 1038 012e 04EB8402 		add	r2, r4, r4, lsl #2
 1039 0132 02EB8204 		add	r4, r2, r2, lsl #2
 1040              	.LVL68:
 1041 0136 114A     		ldr	r2, .L102+24
 1042 0138 B2FBF4F2 		udiv	r2, r2, r4
 1043 013c 6FEA8242 		mvn	r2, r2, lsl #18
 1044 0140 6FEA9242 		mvn	r2, r2, lsr #18
 1045 0144 92B2     		uxth	r2, r2
 1046 0146 99E7     		b	.L87
 1047              	.LVL69:
 1048              	.L99:
 1049              		.loc 1 187 0
 1050 0148 01F11E71 		add	r1, r1, #41418752
 1051 014c 04EB4402 		add	r2, r4, r4, lsl #1
 1052 0150 01F53131 		add	r1, r1, #181248
 1053 0154 B1FBF2F2 		udiv	r2, r1, r2
 1054 0158 6FEA4242 		mvn	r2, r2, lsl #17
 1055 015c 6FEA5242 		mvn	r2, r2, lsr #17
 1056 0160 92B2     		uxth	r2, r2
 1057 0162 8BE7     		b	.L87
 1058              	.L103:
 1059              		.align	2
 1060              	.L102:
 1061 0164 A0860100 		.word	100000
 1062 0168 801A0600 		.word	400000
 1063 016c 00000000 		.word	.LANCHOR0
 1064 0170 00380240 		.word	1073887232
 1065 0174 00000000 		.word	i2c_lld_serve_rx_end_irq
 1066 0178 00000000 		.word	i2c_lld_serve_tx_end_irq
 1067 017c 80DE8002 		.word	42000000
 1068              	.LBE314:
 1069              	.LBE324:
 1070              		.cfi_endproc
 1071              	.LFE278:
 1072              		.size	i2c_lld_start, .-i2c_lld_start
 1073              		.section	.text.i2c_lld_stop,"ax",%progbits
 1074              		.align	2
 1075              		.p2align 4,,15
 1076              		.global	i2c_lld_stop
 1077              		.thumb
 1078              		.thumb_func
 1079              		.type	i2c_lld_stop, %function
 1080              	i2c_lld_stop:
 1081              	.LFB279:
 1082              		.loc 1 655 0
 1083              		.cfi_startproc
ARM GAS  /var/folders/m4/4md61f0s1_g0rzfghffqnxvr0000gn/T//ccWt0Haq.s 			page 20


 1084              		@ args = 0, pretend = 0, frame = 0
 1085              		@ frame_needed = 0, uses_anonymous_args = 0
 1086              	.LVL70:
 1087              		.loc 1 658 0
 1088 0000 0378     		ldrb	r3, [r0]	@ zero_extendqisi2
 1089 0002 012B     		cmp	r3, #1
 1090 0004 2FD0     		beq	.L113
 1091              	.LVL71:
 1092              	.LBB327:
 1093              	.LBB328:
 1094              		.loc 1 132 0
 1095 0006 016B     		ldr	r1, [r0, #48]
 1096              		.loc 1 123 0
 1097 0008 436B     		ldr	r3, [r0, #52]
 1098              	.LVL72:
 1099              		.loc 1 132 0
 1100 000a 0A68     		ldr	r2, [r1]
 1101              	.LBE328:
 1102              	.LBE327:
 1103              		.loc 1 655 0
 1104 000c 70B5     		push	{r4, r5, r6, lr}
 1105              		.cfi_def_cfa_offset 16
 1106              		.cfi_offset 4, -16
 1107              		.cfi_offset 5, -12
 1108              		.cfi_offset 6, -8
 1109              		.cfi_offset 14, -4
 1110              	.LBB330:
 1111              	.LBB329:
 1112              		.loc 1 127 0
 1113 000e 0024     		movs	r4, #0
 1114              		.loc 1 126 0
 1115 0010 4FF40045 		mov	r5, #32768
 1116 0014 1D60     		str	r5, [r3]
 1117              		.loc 1 127 0
 1118 0016 1C60     		str	r4, [r3]
 1119              		.loc 1 128 0
 1120 0018 5C60     		str	r4, [r3, #4]
 1121              		.loc 1 129 0
 1122 001a 5C61     		str	r4, [r3, #20]
 1123              		.loc 1 132 0
 1124 001c 1368     		ldr	r3, [r2]
 1125              	.LVL73:
 1126 001e 23F01F03 		bic	r3, r3, #31
 1127 0022 1360     		str	r3, [r2]
 1128              	.L107:
 1129 0024 1368     		ldr	r3, [r2]
 1130 0026 DC07     		lsls	r4, r3, #31
 1131 0028 FCD4     		bmi	.L107
 1132 002a 0E7A     		ldrb	r6, [r1, #8]	@ zero_extendqisi2
 1133              		.loc 1 133 0
 1134 002c C56A     		ldr	r5, [r0, #44]
 1135              		.loc 1 132 0
 1136 002e 4C68     		ldr	r4, [r1, #4]
 1137              		.loc 1 133 0
 1138 0030 2A68     		ldr	r2, [r5]
 1139              		.loc 1 132 0
 1140 0032 3D23     		movs	r3, #61
ARM GAS  /var/folders/m4/4md61f0s1_g0rzfghffqnxvr0000gn/T//ccWt0Haq.s 			page 21


 1141 0034 B340     		lsls	r3, r3, r6
 1142 0036 2360     		str	r3, [r4]
 1143              		.loc 1 133 0
 1144 0038 1368     		ldr	r3, [r2]
 1145 003a 23F01F03 		bic	r3, r3, #31
 1146 003e 1360     		str	r3, [r2]
 1147              	.L108:
 1148 0040 1368     		ldr	r3, [r2]
 1149 0042 DB07     		lsls	r3, r3, #31
 1150 0044 FCD4     		bmi	.L108
 1151 0046 0446     		mov	r4, r0
 1152 0048 287A     		ldrb	r0, [r5, #8]	@ zero_extendqisi2
 1153              	.LVL74:
 1154 004a 6A68     		ldr	r2, [r5, #4]
 1155 004c 3D23     		movs	r3, #61
 1156 004e 8340     		lsls	r3, r3, r0
 1157 0050 1360     		str	r3, [r2]
 1158              	.LBE329:
 1159              	.LBE330:
 1160              		.loc 1 662 0
 1161 0052 0846     		mov	r0, r1
 1162 0054 FFF7FEFF 		bl	dmaStreamRelease
 1163              	.LVL75:
 1164              		.loc 1 663 0
 1165 0058 E06A     		ldr	r0, [r4, #44]
 1166 005a FFF7FEFF 		bl	dmaStreamRelease
 1167              	.LVL76:
 1168              		.loc 1 666 0
 1169 005e 084B     		ldr	r3, .L115
 1170 0060 9C42     		cmp	r4, r3
 1171 0062 01D0     		beq	.L114
 1172              	.L104:
 1173 0064 70BD     		pop	{r4, r5, r6, pc}
 1174              	.LVL77:
 1175              	.L113:
 1176              		.cfi_def_cfa_offset 0
 1177              		.cfi_restore 4
 1178              		.cfi_restore 5
 1179              		.cfi_restore 6
 1180              		.cfi_restore 14
 1181 0066 7047     		bx	lr
 1182              	.LVL78:
 1183              	.L114:
 1184              		.cfi_def_cfa_offset 16
 1185              		.cfi_offset 4, -16
 1186              		.cfi_offset 5, -12
 1187              		.cfi_offset 6, -8
 1188              		.cfi_offset 14, -4
 1189              		.loc 1 667 0
 1190 0068 1F20     		movs	r0, #31
 1191 006a FFF7FEFF 		bl	nvicDisableVector
 1192              	.LVL79:
 1193              		.loc 1 668 0
 1194 006e 2020     		movs	r0, #32
 1195 0070 FFF7FEFF 		bl	nvicDisableVector
 1196              	.LVL80:
 1197              		.loc 1 669 0
ARM GAS  /var/folders/m4/4md61f0s1_g0rzfghffqnxvr0000gn/T//ccWt0Haq.s 			page 22


 1198 0074 034A     		ldr	r2, .L115+4
 1199 0076 136C     		ldr	r3, [r2, #64]
 1200 0078 23F40013 		bic	r3, r3, #2097152
 1201 007c 1364     		str	r3, [r2, #64]
 1202 007e F1E7     		b	.L104
 1203              	.L116:
 1204              		.align	2
 1205              	.L115:
 1206 0080 00000000 		.word	.LANCHOR0
 1207 0084 00380240 		.word	1073887232
 1208              		.cfi_endproc
 1209              	.LFE279:
 1210              		.size	i2c_lld_stop, .-i2c_lld_stop
 1211              		.section	.text.i2c_lld_master_receive_timeout,"ax",%progbits
 1212              		.align	2
 1213              		.p2align 4,,15
 1214              		.global	i2c_lld_master_receive_timeout
 1215              		.thumb
 1216              		.thumb_func
 1217              		.type	i2c_lld_master_receive_timeout, %function
 1218              	i2c_lld_master_receive_timeout:
 1219              	.LFB280:
 1220              		.loc 1 716 0
 1221              		.cfi_startproc
 1222              		@ args = 4, pretend = 0, frame = 0
 1223              		@ frame_needed = 0, uses_anonymous_args = 0
 1224              	.LVL81:
 1225              		.loc 1 728 0
 1226 0000 4900     		lsls	r1, r1, #1
 1227              	.LVL82:
 1228              		.loc 1 716 0
 1229 0002 F0B5     		push	{r4, r5, r6, r7, lr}
 1230              		.cfi_def_cfa_offset 20
 1231              		.cfi_offset 4, -20
 1232              		.cfi_offset 5, -16
 1233              		.cfi_offset 6, -12
 1234              		.cfi_offset 7, -8
 1235              		.cfi_offset 14, -4
 1236              		.loc 1 728 0
 1237 0004 41F00101 		orr	r1, r1, #1
 1238              		.loc 1 725 0
 1239 0008 0025     		movs	r5, #0
 1240              		.loc 1 728 0
 1241 000a 0184     		strh	r1, [r0, #32]	@ movhi
 1242              		.loc 1 717 0
 1243 000c 446B     		ldr	r4, [r0, #52]
 1244              	.LVL83:
 1245              		.loc 1 725 0
 1246 000e 8560     		str	r5, [r0, #8]
 1247              		.loc 1 716 0
 1248 0010 DDF814E0 		ldr	lr, [sp, #20]
 1249              	.LBB331:
 1250              	.LBB332:
 1251              	.LBB333:
 1252              	.LBB334:
 1253              	.LBB335:
 1254              	.LBB336:
ARM GAS  /var/folders/m4/4md61f0s1_g0rzfghffqnxvr0000gn/T//ccWt0Haq.s 			page 23


 1255              		.loc 3 548 0
 1256              	@ 548 "ChibiOS_16.1.4/os/ext/CMSIS/include/core_cmFunc.h" 1
 1257 0014 85F31188 		MSR basepri, r5
 1258              	@ 0 "" 2
 1259              		.thumb
 1260              	.LBE336:
 1261              	.LBE335:
 1262              	.LBE334:
 1263              	.LBE333:
 1264              	.LBE332:
 1265              	.LBE331:
 1266              		.loc 1 734 0
 1267 0018 C66A     		ldr	r6, [r0, #44]
 1268 001a 416A     		ldr	r1, [r0, #36]
 1269 001c 3768     		ldr	r7, [r6]
 1270              	.LBB337:
 1271              	.LBB338:
 1272              	.LBB339:
 1273              		.file 4 "ChibiOS_16.1.4/os/rt/include/chvt.h"
 1274              		.loc 4 231 0
 1275 001e 144E     		ldr	r6, .L124
 1276              	.LBE339:
 1277              	.LBE338:
 1278              	.LBE337:
 1279              		.loc 1 734 0
 1280 0020 3960     		str	r1, [r7]
 1281              		.loc 1 735 0
 1282 0022 FA60     		str	r2, [r7, #12]
 1283              		.loc 1 736 0
 1284 0024 7B60     		str	r3, [r7, #4]
 1285              	.LBB342:
 1286              	.LBB343:
 1287              	.LBB344:
 1288              	.LBB345:
 1289              	.LBB346:
 1290              	.LBB347:
 1291              		.loc 3 548 0
 1292 0026 2A46     		mov	r2, r5
 1293              	.LVL84:
 1294              	.LBE347:
 1295              	.LBE346:
 1296              	.LBE345:
 1297              	.LBE344:
 1298              	.LBE343:
 1299              	.LBE342:
 1300              	.LBB353:
 1301              	.LBB341:
 1302              	.LBB340:
 1303              		.loc 4 231 0
 1304 0028 B76A     		ldr	r7, [r6, #40]
 1305              	.LVL85:
 1306              	.LBE340:
 1307              	.LBE341:
 1308              	.LBE353:
 1309              	.LBB354:
 1310              	.LBB355:
 1311              	.LBB356:
ARM GAS  /var/folders/m4/4md61f0s1_g0rzfghffqnxvr0000gn/T//ccWt0Haq.s 			page 24


 1312              	.LBB357:
 1313              	.LBB358:
 1314              		.loc 3 548 0
 1315 002a 2025     		movs	r5, #32
 1316 002c 01E0     		b	.L121
 1317              	.LVL86:
 1318              	.L123:
 1319              	.LBE358:
 1320              	.LBE357:
 1321              	.LBE356:
 1322              	.LBE355:
 1323              	.LBE354:
 1324              	.LBB363:
 1325              	.LBB352:
 1326              	.LBB351:
 1327              	.LBB350:
 1328              	.LBB349:
 1329              	.LBB348:
 1330              	@ 548 "ChibiOS_16.1.4/os/ext/CMSIS/include/core_cmFunc.h" 1
 1331 002e 82F31188 		MSR basepri, r2
 1332              	@ 0 "" 2
 1333              	.LVL87:
 1334              		.thumb
 1335              	.L121:
 1336              	.LBE348:
 1337              	.LBE349:
 1338              	.LBE350:
 1339              	.LBE351:
 1340              	.LBE352:
 1341              	.LBE363:
 1342              	.LBB364:
 1343              	.LBB362:
 1344              	.LBB361:
 1345              	.LBB360:
 1346              	.LBB359:
 1347              	@ 548 "ChibiOS_16.1.4/os/ext/CMSIS/include/core_cmFunc.h" 1
 1348 0032 85F31188 		MSR basepri, r5
 1349              	@ 0 "" 2
 1350              	.LVL88:
 1351              		.thumb
 1352              	.LBE359:
 1353              	.LBE360:
 1354              	.LBE361:
 1355              	.LBE362:
 1356              	.LBE364:
 1357              		.loc 1 749 0
 1358 0036 A369     		ldr	r3, [r4, #24]
 1359 0038 9907     		lsls	r1, r3, #30
 1360 003a 02D4     		bmi	.L118
 1361              		.loc 1 749 0 is_stmt 0 discriminator 1
 1362 003c 2368     		ldr	r3, [r4]
 1363 003e 9B05     		lsls	r3, r3, #22
 1364 0040 07D5     		bpl	.L119
 1365              	.L118:
 1366              	.LBB365:
 1367              	.LBB366:
 1368              	.LBB367:
ARM GAS  /var/folders/m4/4md61f0s1_g0rzfghffqnxvr0000gn/T//ccWt0Haq.s 			page 25


 1369              		.loc 4 231 0 is_stmt 1
 1370 0042 B36A     		ldr	r3, [r6, #40]
 1371              	.LVL89:
 1372              	.LBE367:
 1373              	.LBE366:
 1374              	.LBE365:
 1375              	.LBB368:
 1376              	.LBB369:
 1377              	.LBB370:
 1378              		.loc 4 288 0
 1379 0044 DB1B     		subs	r3, r3, r7
 1380              	.LVL90:
 1381              	.LBE370:
 1382              	.LBE369:
 1383              	.LBE368:
 1384              		.loc 1 754 0
 1385 0046 B3F5FA7F 		cmp	r3, #500
 1386 004a F0D3     		bcc	.L123
 1387              		.loc 1 766 0
 1388 004c 4FF0FF30 		mov	r0, #-1
 1389              	.LVL91:
 1390 0050 F0BD     		pop	{r4, r5, r6, r7, pc}
 1391              	.LVL92:
 1392              	.L119:
 1393              		.loc 1 761 0
 1394 0052 6368     		ldr	r3, [r4, #4]
 1395 0054 43F40073 		orr	r3, r3, #512
 1396 0058 6360     		str	r3, [r4, #4]
 1397              	.LVL93:
 1398              		.loc 1 762 0
 1399 005a 2368     		ldr	r3, [r4]
 1400 005c 43F4A063 		orr	r3, r3, #1280
 1401              	.LBB371:
 1402              	.LBB372:
 1403              		.loc 2 713 0
 1404 0060 7146     		mov	r1, lr
 1405              	.LBE372:
 1406              	.LBE371:
 1407              		.loc 1 762 0
 1408 0062 2360     		str	r3, [r4]
 1409              	.LBB375:
 1410              	.LBB373:
 1411              		.loc 2 713 0
 1412 0064 1C30     		adds	r0, r0, #28
 1413              	.LVL94:
 1414              	.LBE373:
 1415              	.LBE375:
 1416              		.loc 1 766 0
 1417 0066 BDE8F040 		pop	{r4, r5, r6, r7, lr}
 1418              		.cfi_restore 14
 1419              		.cfi_restore 7
 1420              		.cfi_restore 6
 1421              		.cfi_restore 5
 1422              		.cfi_restore 4
 1423              		.cfi_def_cfa_offset 0
 1424              	.LVL95:
 1425              	.LBB376:
ARM GAS  /var/folders/m4/4md61f0s1_g0rzfghffqnxvr0000gn/T//ccWt0Haq.s 			page 26


 1426              	.LBB374:
 1427              		.loc 2 713 0
 1428 006a FFF7FEBF 		b	chThdSuspendTimeoutS
 1429              	.LVL96:
 1430              	.L125:
 1431 006e 00BF     		.align	2
 1432              	.L124:
 1433 0070 00000000 		.word	ch
 1434              	.LBE374:
 1435              	.LBE376:
 1436              		.cfi_endproc
 1437              	.LFE280:
 1438              		.size	i2c_lld_master_receive_timeout, .-i2c_lld_master_receive_timeout
 1439              		.section	.text.i2c_lld_master_transmit_timeout,"ax",%progbits
 1440              		.align	2
 1441              		.p2align 4,,15
 1442              		.global	i2c_lld_master_transmit_timeout
 1443              		.thumb
 1444              		.thumb_func
 1445              		.type	i2c_lld_master_transmit_timeout, %function
 1446              	i2c_lld_master_transmit_timeout:
 1447              	.LFB281:
 1448              		.loc 1 796 0
 1449              		.cfi_startproc
 1450              		@ args = 12, pretend = 0, frame = 0
 1451              		@ frame_needed = 0, uses_anonymous_args = 0
 1452              	.LVL97:
 1453 0000 2DE9F047 		push	{r4, r5, r6, r7, r8, r9, r10, lr}
 1454              		.cfi_def_cfa_offset 32
 1455              		.cfi_offset 4, -32
 1456              		.cfi_offset 5, -28
 1457              		.cfi_offset 6, -24
 1458              		.cfi_offset 7, -20
 1459              		.cfi_offset 8, -16
 1460              		.cfi_offset 9, -12
 1461              		.cfi_offset 10, -8
 1462              		.cfi_offset 14, -4
 1463              		.loc 1 808 0
 1464 0004 4900     		lsls	r1, r1, #1
 1465              	.LVL98:
 1466              		.loc 1 805 0
 1467 0006 0025     		movs	r5, #0
 1468              		.loc 1 796 0
 1469 0008 9446     		mov	ip, r2
 1470 000a 08AA     		add	r2, sp, #32
 1471              	.LVL99:
 1472 000c 9846     		mov	r8, r3
 1473              		.loc 1 808 0
 1474 000e 0184     		strh	r1, [r0, #32]	@ movhi
 1475              		.loc 1 797 0
 1476 0010 446B     		ldr	r4, [r0, #52]
 1477              	.LVL100:
 1478              		.loc 1 805 0
 1479 0012 8560     		str	r5, [r0, #8]
 1480              		.loc 1 796 0
 1481 0014 92E80C04 		ldmia	r2, {r2, r3, r10}
 1482              	.LVL101:
ARM GAS  /var/folders/m4/4md61f0s1_g0rzfghffqnxvr0000gn/T//ccWt0Haq.s 			page 27


 1483              	.LBB377:
 1484              	.LBB378:
 1485              	.LBB379:
 1486              	.LBB380:
 1487              	.LBB381:
 1488              	.LBB382:
 1489              		.loc 3 548 0
 1490              	@ 548 "ChibiOS_16.1.4/os/ext/CMSIS/include/core_cmFunc.h" 1
 1491 0018 85F31188 		MSR basepri, r5
 1492              	@ 0 "" 2
 1493              		.thumb
 1494              	.LBE382:
 1495              	.LBE381:
 1496              	.LBE380:
 1497              	.LBE379:
 1498              	.LBE378:
 1499              	.LBE377:
 1500              		.loc 1 814 0
 1501 001c 076B     		ldr	r7, [r0, #48]
 1502              		.loc 1 819 0
 1503 001e C66A     		ldr	r6, [r0, #44]
 1504              		.loc 1 814 0
 1505 0020 D7F800E0 		ldr	lr, [r7]
 1506              		.loc 1 819 0
 1507 0024 3768     		ldr	r7, [r6]
 1508 0026 D0F82490 		ldr	r9, [r0, #36]
 1509              		.loc 1 814 0
 1510 002a 816A     		ldr	r1, [r0, #40]
 1511              	.LBB383:
 1512              	.LBB384:
 1513              	.LBB385:
 1514              		.loc 4 231 0
 1515 002c 174E     		ldr	r6, .L133
 1516              	.LBE385:
 1517              	.LBE384:
 1518              	.LBE383:
 1519              		.loc 1 814 0
 1520 002e CEF80010 		str	r1, [lr]
 1521              		.loc 1 815 0
 1522 0032 CEF80CC0 		str	ip, [lr, #12]
 1523              		.loc 1 816 0
 1524 0036 CEF80480 		str	r8, [lr, #4]
 1525              		.loc 1 819 0
 1526 003a C7F80090 		str	r9, [r7]
 1527              		.loc 1 820 0
 1528 003e FA60     		str	r2, [r7, #12]
 1529              		.loc 1 821 0
 1530 0040 7B60     		str	r3, [r7, #4]
 1531              	.LBB388:
 1532              	.LBB389:
 1533              	.LBB390:
 1534              	.LBB391:
 1535              	.LBB392:
 1536              	.LBB393:
 1537              		.loc 3 548 0
 1538 0042 2A46     		mov	r2, r5
 1539              	.LBE393:
ARM GAS  /var/folders/m4/4md61f0s1_g0rzfghffqnxvr0000gn/T//ccWt0Haq.s 			page 28


 1540              	.LBE392:
 1541              	.LBE391:
 1542              	.LBE390:
 1543              	.LBE389:
 1544              	.LBE388:
 1545              	.LBB399:
 1546              	.LBB387:
 1547              	.LBB386:
 1548              		.loc 4 231 0
 1549 0044 B76A     		ldr	r7, [r6, #40]
 1550              	.LVL102:
 1551              	.LBE386:
 1552              	.LBE387:
 1553              	.LBE399:
 1554              	.LBB400:
 1555              	.LBB401:
 1556              	.LBB402:
 1557              	.LBB403:
 1558              	.LBB404:
 1559              		.loc 3 548 0
 1560 0046 2025     		movs	r5, #32
 1561 0048 01E0     		b	.L130
 1562              	.LVL103:
 1563              	.L132:
 1564              	.LBE404:
 1565              	.LBE403:
 1566              	.LBE402:
 1567              	.LBE401:
 1568              	.LBE400:
 1569              	.LBB409:
 1570              	.LBB398:
 1571              	.LBB397:
 1572              	.LBB396:
 1573              	.LBB395:
 1574              	.LBB394:
 1575              	@ 548 "ChibiOS_16.1.4/os/ext/CMSIS/include/core_cmFunc.h" 1
 1576 004a 82F31188 		MSR basepri, r2
 1577              	@ 0 "" 2
 1578              	.LVL104:
 1579              		.thumb
 1580              	.L130:
 1581              	.LBE394:
 1582              	.LBE395:
 1583              	.LBE396:
 1584              	.LBE397:
 1585              	.LBE398:
 1586              	.LBE409:
 1587              	.LBB410:
 1588              	.LBB408:
 1589              	.LBB407:
 1590              	.LBB406:
 1591              	.LBB405:
 1592              	@ 548 "ChibiOS_16.1.4/os/ext/CMSIS/include/core_cmFunc.h" 1
 1593 004e 85F31188 		MSR basepri, r5
 1594              	@ 0 "" 2
 1595              	.LVL105:
 1596              		.thumb
ARM GAS  /var/folders/m4/4md61f0s1_g0rzfghffqnxvr0000gn/T//ccWt0Haq.s 			page 29


 1597              	.LBE405:
 1598              	.LBE406:
 1599              	.LBE407:
 1600              	.LBE408:
 1601              	.LBE410:
 1602              		.loc 1 834 0
 1603 0052 A369     		ldr	r3, [r4, #24]
 1604 0054 9907     		lsls	r1, r3, #30
 1605 0056 02D4     		bmi	.L127
 1606              		.loc 1 834 0 is_stmt 0 discriminator 1
 1607 0058 2368     		ldr	r3, [r4]
 1608 005a 9B05     		lsls	r3, r3, #22
 1609 005c 08D5     		bpl	.L128
 1610              	.L127:
 1611              	.LBB411:
 1612              	.LBB412:
 1613              	.LBB413:
 1614              		.loc 4 231 0 is_stmt 1
 1615 005e B36A     		ldr	r3, [r6, #40]
 1616              	.LVL106:
 1617              	.LBE413:
 1618              	.LBE412:
 1619              	.LBE411:
 1620              	.LBB414:
 1621              	.LBB415:
 1622              	.LBB416:
 1623              		.loc 4 288 0
 1624 0060 DB1B     		subs	r3, r3, r7
 1625              	.LVL107:
 1626              	.LBE416:
 1627              	.LBE415:
 1628              	.LBE414:
 1629              		.loc 1 839 0
 1630 0062 B3F5FA7F 		cmp	r3, #500
 1631 0066 F0D3     		bcc	.L132
 1632              		.loc 1 851 0
 1633 0068 4FF0FF30 		mov	r0, #-1
 1634              	.LVL108:
 1635 006c BDE8F087 		pop	{r4, r5, r6, r7, r8, r9, r10, pc}
 1636              	.LVL109:
 1637              	.L128:
 1638              		.loc 1 846 0
 1639 0070 6368     		ldr	r3, [r4, #4]
 1640 0072 43F40073 		orr	r3, r3, #512
 1641 0076 6360     		str	r3, [r4, #4]
 1642              		.loc 1 847 0
 1643 0078 2368     		ldr	r3, [r4]
 1644 007a 43F48073 		orr	r3, r3, #256
 1645              	.LBB417:
 1646              	.LBB418:
 1647              		.loc 2 713 0
 1648 007e 5146     		mov	r1, r10
 1649              	.LBE418:
 1650              	.LBE417:
 1651              		.loc 1 847 0
 1652 0080 2360     		str	r3, [r4]
 1653              	.LBB421:
ARM GAS  /var/folders/m4/4md61f0s1_g0rzfghffqnxvr0000gn/T//ccWt0Haq.s 			page 30


 1654              	.LBB419:
 1655              		.loc 2 713 0
 1656 0082 1C30     		adds	r0, r0, #28
 1657              	.LVL110:
 1658              	.LBE419:
 1659              	.LBE421:
 1660              		.loc 1 851 0
 1661 0084 BDE8F047 		pop	{r4, r5, r6, r7, r8, r9, r10, lr}
 1662              		.cfi_restore 14
 1663              		.cfi_restore 10
 1664              		.cfi_restore 9
 1665              		.cfi_restore 8
 1666              		.cfi_restore 7
 1667              		.cfi_restore 6
 1668              		.cfi_restore 5
 1669              		.cfi_restore 4
 1670              		.cfi_def_cfa_offset 0
 1671              	.LVL111:
 1672              	.LBB422:
 1673              	.LBB420:
 1674              		.loc 2 713 0
 1675 0088 FFF7FEBF 		b	chThdSuspendTimeoutS
 1676              	.LVL112:
 1677              	.L134:
 1678              		.align	2
 1679              	.L133:
 1680 008c 00000000 		.word	ch
 1681              	.LBE420:
 1682              	.LBE422:
 1683              		.cfi_endproc
 1684              	.LFE281:
 1685              		.size	i2c_lld_master_transmit_timeout, .-i2c_lld_master_transmit_timeout
 1686              		.global	I2CD1
 1687              		.section	.rodata.str1.4,"aMS",%progbits,1
 1688              		.align	2
 1689              	.LC0:
 1690 0000 444D4120 		.ascii	"DMA failure\000"
 1690      6661696C 
 1690      75726500 
 1691              		.section	.bss.I2CD1,"aw",%nobits
 1692              		.align	2
 1693              		.set	.LANCHOR0,. + 0
 1694              		.type	I2CD1, %object
 1695              		.size	I2CD1, 56
 1696              	I2CD1:
 1697 0000 00000000 		.space	56
 1697      00000000 
 1697      00000000 
 1697      00000000 
 1697      00000000 
 1698              		.text
 1699              	.Letext0:
 1700              		.file 5 "/usr/local/Cellar/gcc-arm-none-eabi-49/20150609/lib/gcc/arm-none-eabi/4.9.3/include/stdde
 1701              		.file 6 "/usr/local/Cellar/gcc-arm-none-eabi-49/20150609/arm-none-eabi/include/machine/_default_ty
 1702              		.file 7 "/usr/local/Cellar/gcc-arm-none-eabi-49/20150609/arm-none-eabi/include/sys/_stdint.h"
 1703              		.file 8 "ChibiOS_16.1.4/os/rt/ports/ARMCMx/compilers/GCC/chtypes.h"
 1704              		.file 9 "ChibiOS_16.1.4/os/rt/include/chsystypes.h"
ARM GAS  /var/folders/m4/4md61f0s1_g0rzfghffqnxvr0000gn/T//ccWt0Haq.s 			page 31


 1705              		.file 10 "ChibiOS_16.1.4/os/rt/include/chschd.h"
 1706              		.file 11 "ChibiOS_16.1.4/os/ext/CMSIS/ST/STM32F4xx/stm32f446xx.h"
 1707              		.file 12 "ChibiOS_16.1.4/os/rt/ports/ARMCMx/chcore.h"
 1708              		.file 13 "ChibiOS_16.1.4/os/rt/ports/ARMCMx/chcore_v7m.h"
 1709              		.file 14 "ChibiOS_16.1.4/os/rt/include/chtm.h"
 1710              		.file 15 "ChibiOS_16.1.4/os/rt/include/chsem.h"
 1711              		.file 16 "ChibiOS_16.1.4/os/rt/include/chmtx.h"
 1712              		.file 17 "ChibiOS_16.1.4/os/hal/ports/STM32/LLD/DMAv2/stm32_dma.h"
 1713              		.file 18 "ChibiOS_16.1.4/os/hal/include/i2c.h"
 1714              		.file 19 "ChibiOS_16.1.4/os/hal/ports/STM32/LLD/I2Cv1/i2c_lld.h"
 1715              		.file 20 "ChibiOS_16.1.4/os/rt/include/chsys.h"
 1716              		.file 21 "ChibiOS_16.1.4/os/ext/CMSIS/include/core_cm4.h"
 1717              		.file 22 "ChibiOS_16.1.4/os/rt/include/chthreads.h"
 1718              		.file 23 "ChibiOS_16.1.4/os/hal/ports/common/ARMCMx/nvic.h"