ARM GAS  /var/folders/m4/4md61f0s1_g0rzfghffqnxvr0000gn/T//cc20NKSx.s 			page 1


   1              		.syntax unified
   2              		.cpu cortex-m4
   3              		.eabi_attribute 27, 1
   4              		.eabi_attribute 28, 1
   5              		.fpu fpv4-sp-d16
   6              		.eabi_attribute 20, 1
   7              		.eabi_attribute 21, 1
   8              		.eabi_attribute 23, 3
   9              		.eabi_attribute 24, 1
  10              		.eabi_attribute 25, 1
  11              		.eabi_attribute 26, 1
  12              		.eabi_attribute 30, 2
  13              		.eabi_attribute 34, 1
  14              		.eabi_attribute 18, 4
  15              		.thumb
  16              		.syntax unified
  17              		.file	"main.cpp"
  18              		.text
  19              	.Ltext0:
  20              		.cfi_sections	.debug_frame
  21              		.global	__aeabi_ui2d
  22              		.global	__aeabi_ddiv
  23              		.global	__aeabi_dmul
  24              		.global	__aeabi_dadd
  25              		.global	__aeabi_d2uiz
  26              		.global	__aeabi_dsub
  27              		.section	.text.startup.main,"ax",%progbits
  28              		.align	2
  29              		.p2align 4,,15
  30              		.global	main
  31              		.thumb
  32              		.thumb_func
  33              		.type	main, %function
  34              	main:
  35              	.LFB268:
  36              		.file 1 "main.cpp"
  37              		.loc 1 15 0
  38              		.cfi_startproc
  39              		@ args = 0, pretend = 0, frame = 40
  40              		@ frame_needed = 0, uses_anonymous_args = 0
  41 0000 2DE9F04F 		push	{r4, r5, r6, r7, r8, r9, r10, fp, lr}
  42              		.cfi_def_cfa_offset 36
  43              		.cfi_offset 4, -36
  44              		.cfi_offset 5, -32
  45              		.cfi_offset 6, -28
  46              		.cfi_offset 7, -24
  47              		.cfi_offset 8, -20
  48              		.cfi_offset 9, -16
  49              		.cfi_offset 10, -12
  50              		.cfi_offset 11, -8
  51              		.cfi_offset 14, -4
  52 0004 8BB0     		sub	sp, sp, #44
  53              		.cfi_def_cfa_offset 80
  54              		.loc 1 16 0
  55 0006 FFF7FEFF 		bl	halInit
  56              	.LVL0:
  57              		.loc 1 17 0
ARM GAS  /var/folders/m4/4md61f0s1_g0rzfghffqnxvr0000gn/T//cc20NKSx.s 			page 2


  58 000a FFF7FEFF 		bl	chSysInit
  59              	.LVL1:
  60              		.loc 1 19 0
  61 000e 0121     		movs	r1, #1
  62 0010 0846     		mov	r0, r1
  63 0012 FFF7FEFF 		bl	RCC_AHB1PeriphClockCmd
  64              	.LVL2:
  65              		.loc 1 20 0
  66 0016 0121     		movs	r1, #1
  67 0018 0220     		movs	r0, #2
  68 001a FFF7FEFF 		bl	RCC_AHB1PeriphClockCmd
  69              	.LVL3:
  70              		.loc 1 21 0
  71 001e 0121     		movs	r1, #1
  72 0020 0420     		movs	r0, #4
  73 0022 FFF7FEFF 		bl	RCC_AHB1PeriphClockCmd
  74              	.LVL4:
  75              		.loc 1 23 0
  76 0026 1822     		movs	r2, #24
  77 0028 0421     		movs	r1, #4
  78 002a 5348     		ldr	r0, .L10
  79 002c DFF86CB1 		ldr	fp, .L10+36
  80 0030 524F     		ldr	r7, .L10+4
  81 0032 FFF7FEFF 		bl	_pal_lld_setgroupmode
  82              	.LVL5:
  83              		.loc 1 25 0
  84 0036 1822     		movs	r2, #24
  85 0038 0221     		movs	r1, #2
  86 003a 4F48     		ldr	r0, .L10
  87 003c FFF7FEFF 		bl	_pal_lld_setgroupmode
  88              	.LVL6:
  89              		.loc 1 27 0
  90 0040 1822     		movs	r2, #24
  91 0042 4FF40071 		mov	r1, #512
  92 0046 4E48     		ldr	r0, .L10+8
  93 0048 FFF7FEFF 		bl	_pal_lld_setgroupmode
  94              	.LVL7:
  95              		.loc 1 28 0
  96 004c FFF7FEFF 		bl	_Z8esc_initv
  97              	.LVL8:
  98              		.loc 1 29 0
  99 0050 42F21070 		movw	r0, #10000
 100 0054 FFF7FEFF 		bl	chThdSleep
 101              	.LVL9:
 102 0058 0DF1100A 		add	r10, sp, #16
 103              		.loc 1 31 0
 104 005c FFF7FEFF 		bl	_Z20comm_usb_serial_initv
 105              	.LVL10:
 106              	.LBB2:
 107              	.LBB3:
 108              	.LBB4:
 109              	.LBB5:
 110              		.loc 1 43 0
 111 0060 0026     		movs	r6, #0
 112              	.LBE5:
 113              	.LBE4:
 114              	.LBE3:
ARM GAS  /var/folders/m4/4md61f0s1_g0rzfghffqnxvr0000gn/T//cc20NKSx.s 			page 3


 115              	.LBE2:
 116              		.loc 1 32 0
 117 0062 FFF7FEFF 		bl	_Z12ws2812b_initv
 118              	.LVL11:
 119              		.loc 1 36 0
 120 0066 FFF7FEFF 		bl	_Z11bno055_initv
 121              	.LVL12:
 122              		.loc 1 37 0
 123 006a FFF7FEFF 		bl	_Z12initNRF24L01v
 124              	.LVL13:
 125              		.loc 1 38 0
 126 006e FFF7FEFF 		bl	_Z15controller_initv
 127              	.LVL14:
 128 0072 70E0     		b	.L4
 129              	.L2:
 130              	.LBB9:
 131              	.LBB8:
 132              		.loc 1 47 0
 133 0074 3B6B     		ldr	r3, [r7, #48]
 134              		.loc 1 46 0
 135 0076 0396     		str	r6, [sp, #12]
 136              		.loc 1 47 0
 137 0078 DC69     		ldr	r4, [r3, #28]
 138 007a 4248     		ldr	r0, .L10+12
 139 007c 4FF47A73 		mov	r3, #1000
 140 0080 0422     		movs	r2, #4
 141 0082 03A9     		add	r1, sp, #12
 142 0084 A047     		blx	r4
 143              	.LVL15:
 144              		.loc 1 48 0
 145 0086 3B68     		ldr	r3, [r7]
 146 0088 3C48     		ldr	r0, .L10+4
 147 008a 9C69     		ldr	r4, [r3, #24]
 148 008c 0422     		movs	r2, #4
 149 008e 03A9     		add	r1, sp, #12
 150 0090 40F6C413 		movw	r3, #2500
 151 0094 A047     		blx	r4
 152              	.LVL16:
 153              		.loc 1 49 0
 154 0096 039B     		ldr	r3, [sp, #12]
 155              		.loc 1 53 0
 156 0098 1A20     		movs	r0, #26
 157              		.loc 1 49 0
 158 009a 642B     		cmp	r3, #100
 159              		.loc 1 51 0
 160 009c 88BF     		it	hi
 161 009e 0396     		strhi	r6, [sp, #12]
 162              		.loc 1 53 0
 163 00a0 FFF7FEFF 		bl	_Z17bno055_get_vectorh
 164              	.LVL17:
 165 00a4 8DED082B 		vstr.64	d2, [sp, #32]
 166              	.LVL18:
 167 00a8 55EC104B 		vmov	r4, r5, d0
 168 00ac 8DED061B 		vstr.64	d1, [sp, #24]
 169 00b0 8DED001B 		vstr.64	d1, [sp]
 170 00b4 8DED040B 		vstr.64	d0, [sp, #16]
 171              		.loc 1 54 0
ARM GAS  /var/folders/m4/4md61f0s1_g0rzfghffqnxvr0000gn/T//cc20NKSx.s 			page 4


 172 00b8 FFF7FEFF 		bl	_Z17bno055_get_statusv
 173              	.LVL19:
 174              		.loc 1 55 0
 175 00bc FFF7FEFF 		bl	_Z16bno055_get_errorv
 176              	.LVL20:
 177              		.loc 1 56 0
 178 00c0 0398     		ldr	r0, [sp, #12]
 179 00c2 FFF7FEFF 		bl	__aeabi_ui2d
 180              	.LVL21:
 181 00c6 0022     		movs	r2, #0
 182 00c8 2F4B     		ldr	r3, .L10+16
 183 00ca FFF7FEFF 		bl	__aeabi_ddiv
 184              	.LVL22:
 185 00ce 41EC100B 		vmov	d0, r0, r1
 186 00d2 FFF7FEFF 		bl	_Z17controller_updated
 187              	.LVL23:
 188              		.loc 1 57 0
 189 00d6 9DED001B 		vldr.64	d1, [sp]
 190 00da 0022     		movs	r2, #0
 191 00dc 51EC110B 		vmov	r0, r1, d1
 192 00e0 2A4B     		ldr	r3, .L10+20
 193 00e2 FFF7FEFF 		bl	__aeabi_dmul
 194              	.LVL24:
 195 00e6 0022     		movs	r2, #0
 196 00e8 294B     		ldr	r3, .L10+24
 197 00ea 8046     		mov	r8, r0
 198 00ec 8946     		mov	r9, r1
 199 00ee FFF7FEFF 		bl	__aeabi_dadd
 200              	.LVL25:
 201 00f2 FFF7FEFF 		bl	__aeabi_d2uiz
 202              	.LVL26:
 203 00f6 0146     		mov	r1, r0
 204 00f8 0020     		movs	r0, #0
 205 00fa FFF7FEFF 		bl	_Z21ws2812b_set_led_colorim
 206              	.LVL27:
 207              		.loc 1 58 0
 208 00fe 2046     		mov	r0, r4
 209 0100 2946     		mov	r1, r5
 210 0102 0022     		movs	r2, #0
 211 0104 214B     		ldr	r3, .L10+20
 212 0106 FFF7FEFF 		bl	__aeabi_dmul
 213              	.LVL28:
 214 010a 0246     		mov	r2, r0
 215 010c 0B46     		mov	r3, r1
 216 010e 0446     		mov	r4, r0
 217              	.LVL29:
 218 0110 0D46     		mov	r5, r1
 219 0112 0020     		movs	r0, #0
 220 0114 1E49     		ldr	r1, .L10+24
 221 0116 FFF7FEFF 		bl	__aeabi_dsub
 222              	.LVL30:
 223 011a FFF7FEFF 		bl	__aeabi_d2uiz
 224              	.LVL31:
 225 011e 0146     		mov	r1, r0
 226 0120 0120     		movs	r0, #1
 227 0122 FFF7FEFF 		bl	_Z21ws2812b_set_led_colorim
 228              	.LVL32:
ARM GAS  /var/folders/m4/4md61f0s1_g0rzfghffqnxvr0000gn/T//cc20NKSx.s 			page 5


 229              		.loc 1 59 0
 230 0126 4246     		mov	r2, r8
 231 0128 4B46     		mov	r3, r9
 232 012a 0020     		movs	r0, #0
 233 012c 1849     		ldr	r1, .L10+24
 234 012e FFF7FEFF 		bl	__aeabi_dsub
 235              	.LVL33:
 236 0132 FFF7FEFF 		bl	__aeabi_d2uiz
 237              	.LVL34:
 238 0136 0146     		mov	r1, r0
 239 0138 0220     		movs	r0, #2
 240 013a FFF7FEFF 		bl	_Z21ws2812b_set_led_colorim
 241              	.LVL35:
 242              		.loc 1 60 0
 243 013e 0022     		movs	r2, #0
 244 0140 134B     		ldr	r3, .L10+24
 245 0142 2046     		mov	r0, r4
 246 0144 2946     		mov	r1, r5
 247 0146 FFF7FEFF 		bl	__aeabi_dadd
 248              	.LVL36:
 249 014a FFF7FEFF 		bl	__aeabi_d2uiz
 250              	.LVL37:
 251 014e 0146     		mov	r1, r0
 252 0150 0320     		movs	r0, #3
 253 0152 FFF7FEFF 		bl	_Z21ws2812b_set_led_colorim
 254              	.LVL38:
 255              	.L4:
 256              	.LBB7:
 257              		.loc 1 41 0
 258 0156 FFF7FEFF 		bl	_Z25comm_usb_serial_is_activev
 259              	.LVL39:
 260 015a 0028     		cmp	r0, #0
 261 015c 8AD0     		beq	.L2
 262              	.LBB6:
 263              		.loc 1 43 0
 264 015e 9BE80700 		ldmia	fp, {r0, r1, r2}
 265 0162 8AE80700 		stmia	r10, {r0, r1, r2}
 266              		.loc 1 44 0
 267 0166 5246     		mov	r2, r10
 268 0168 0A49     		ldr	r1, .L10+28
 269 016a 0B48     		ldr	r0, .L10+32
 270              		.loc 1 43 0
 271 016c 0796     		str	r6, [sp, #28]
 272 016e 0896     		str	r6, [sp, #32]
 273              		.loc 1 44 0
 274 0170 FFF7FEFF 		bl	chprintf
 275              	.LVL40:
 276              	.LBE6:
 277 0174 7EE7     		b	.L2
 278              	.L11:
 279 0176 00BF     		.align	2
 280              	.L10:
 281 0178 00080240 		.word	1073874944
 282 017c 00000000 		.word	nrf24l01
 283 0180 00040240 		.word	1073873920
 284 0184 30000000 		.word	nrf24l01+48
 285 0188 00005940 		.word	1079574528
ARM GAS  /var/folders/m4/4md61f0s1_g0rzfghffqnxvr0000gn/T//cc20NKSx.s 			page 6


 286 018c 00000840 		.word	1074266112
 287 0190 00006040 		.word	1080033280
 288 0194 00000000 		.word	.LC1
 289 0198 00000000 		.word	SDU1
 290 019c 00000000 		.word	.LANCHOR0
 291              	.LBE7:
 292              	.LBE8:
 293              	.LBE9:
 294              		.cfi_endproc
 295              	.LFE268:
 296              		.size	main, .-main
 297              		.section	.rodata
 298              		.align	2
 299              		.set	.LANCHOR0,. + 0
 300              	.LC0:
 301 0000 48656C6C 		.ascii	"Hello world\000"
 301      6F20776F 
 301      726C6400 
 302 000c 00000000 		.space	8
 302      00000000 
 303              		.section	.rodata.str1.4,"aMS",%progbits,1
 304              		.align	2
 305              	.LC1:
 306 0000 25730A00 		.ascii	"%s\012\000"
 307              		.text
 308              	.Letext0:
 309              		.file 2 "/opt/homebrew-cask/Caskroom/gcc-arm-embedded/5_2-2015q4,20151219/gcc-arm-none-eabi-5_2-20
 310              		.file 3 "/opt/homebrew-cask/Caskroom/gcc-arm-embedded/5_2-2015q4,20151219/gcc-arm-none-eabi-5_2-20
 311              		.file 4 "/opt/homebrew-cask/Caskroom/gcc-arm-embedded/5_2-2015q4,20151219/gcc-arm-none-eabi-5_2-20
 312              		.file 5 "ChibiOS_16.1.4/os/rt/ports/ARMCMx/compilers/GCC/chtypes.h"
 313              		.file 6 "ChibiOS_16.1.4/os/rt/include/chsystypes.h"
 314              		.file 7 "ChibiOS_16.1.4/os/rt/include/chschd.h"
 315              		.file 8 "ChibiOS_16.1.4/os/ext/CMSIS/ST/STM32F4xx/stm32f446xx.h"
 316              		.file 9 "ChibiOS_16.1.4/os/ext/CMSIS/ST/STM32F4xx/stm32f4xx.h"
 317              		.file 10 "ChibiOS_16.1.4/os/rt/ports/ARMCMx/chcore.h"
 318              		.file 11 "ChibiOS_16.1.4/os/rt/ports/ARMCMx/chcore_v7m.h"
 319              		.file 12 "ChibiOS_16.1.4/os/rt/include/chtm.h"
 320              		.file 13 "ChibiOS_16.1.4/os/rt/include/chsem.h"
 321              		.file 14 "ChibiOS_16.1.4/os/rt/include/chmtx.h"
 322              		.file 15 "ChibiOS_16.1.4/os/rt/include/chevents.h"
 323              		.file 16 "ChibiOS_16.1.4/os/rt/include/chstreams.h"
 324              		.file 17 "ChibiOS_16.1.4/os/hal/ports/STM32/LLD/DMAv2/stm32_dma.h"
 325              		.file 18 "ChibiOS_16.1.4/os/hal/include/hal_buffers.h"
 326              		.file 19 "ChibiOS_16.1.4/os/hal/ports/STM32/LLD/GPIOv2/pal_lld.h"
 327              		.file 20 "ChibiOS_16.1.4/os/hal/include/spi.h"
 328              		.file 21 "ChibiOS_16.1.4/os/hal/ports/STM32/LLD/SPIv1/spi_lld.h"
 329              		.file 22 "ChibiOS_16.1.4/os/hal/include/usb.h"
 330              		.file 23 "ChibiOS_16.1.4/os/hal/ports/STM32/LLD/OTGv1/usb_lld.h"
 331              		.file 24 "ChibiOS_16.1.4/os/hal/ports/STM32/LLD/OTGv1/stm32_otg.h"
 332              		.file 25 "ChibiOS_16.1.4/os/hal/include/serial_usb.h"
 333              		.file 26 "bno055.h"
 334              		.file 27 "nrf24l01.h"
 335              		.file 28 "ChibiOS_16.1.4/os/ext/CMSIS/include/core_cm4.h"
 336              		.file 29 "comm_usb.h"
 337              		.file 30 "controller.h"
 338              		.file 31 "ws2812b.h"
 339              		.file 32 "ChibiOS_16.1.4/os/hal/lib/streams/chprintf.h"
ARM GAS  /var/folders/m4/4md61f0s1_g0rzfghffqnxvr0000gn/T//cc20NKSx.s 			page 7


 340              		.file 33 "ChibiOS_16.1.4/os/hal/include/hal.h"
 341              		.file 34 "ChibiOS_16.1.4/os/rt/include/chsys.h"
 342              		.file 35 "ChibiOS_16.1.4/ext/stdperiph_stm32f4/inc/stm32f4xx_rcc.h"
 343              		.file 36 "esc.h"
 344              		.file 37 "ChibiOS_16.1.4/os/rt/include/chthreads.h"