ARM GAS  /var/folders/m4/4md61f0s1_g0rzfghffqnxvr0000gn/T//ccYgZ2tb.s 			page 1


   1              		.syntax unified
   2              		.cpu cortex-m4
   3              		.eabi_attribute 27, 1
   4              		.eabi_attribute 28, 1
   5              		.fpu fpv4-sp-d16
   6              		.eabi_attribute 20, 1
   7              		.eabi_attribute 21, 1
   8              		.eabi_attribute 23, 3
   9              		.eabi_attribute 24, 1
  10              		.eabi_attribute 25, 1
  11              		.eabi_attribute 26, 1
  12              		.eabi_attribute 30, 2
  13              		.eabi_attribute 34, 1
  14              		.eabi_attribute 18, 4
  15              		.thumb
  16              		.file	"misc.c"
  17              		.text
  18              	.Ltext0:
  19              		.cfi_sections	.debug_frame
  20              		.section	.text.NVIC_PriorityGroupConfig,"ax",%progbits
  21              		.align	2
  22              		.p2align 4,,15
  23              		.global	NVIC_PriorityGroupConfig
  24              		.thumb
  25              		.thumb_func
  26              		.type	NVIC_PriorityGroupConfig, %function
  27              	NVIC_PriorityGroupConfig:
  28              	.LFB123:
  29              		.file 1 "ChibiOS_16.1.4/ext/stdperiph_stm32f4/src/misc.c"
  30              		.loc 1 119 0
  31              		.cfi_startproc
  32              		@ args = 0, pretend = 0, frame = 0
  33              		@ frame_needed = 0, uses_anonymous_args = 0
  34              	.LVL0:
  35              		.loc 1 121 0
  36 0000 B0F5C06F 		cmp	r0, #1536
  37              		.loc 1 119 0
  38 0004 10B5     		push	{r4, lr}
  39              		.cfi_def_cfa_offset 8
  40              		.cfi_offset 4, -8
  41              		.cfi_offset 14, -4
  42              		.loc 1 119 0
  43 0006 0446     		mov	r4, r0
  44              		.loc 1 121 0
  45 0008 14D0     		beq	.L4
  46              		.loc 1 121 0 is_stmt 0 discriminator 6
  47 000a 20F48073 		bic	r3, r0, #256
  48 000e B3F5806F 		cmp	r3, #1024
  49 0012 0FD0     		beq	.L4
  50              		.loc 1 121 0 discriminator 8
  51 0014 20F48060 		bic	r0, r0, #1024
  52              	.LVL1:
  53 0018 A0F54070 		sub	r0, r0, #768
  54 001c B0FA80F0 		clz	r0, r0
  55 0020 4009     		lsrs	r0, r0, #5
  56              	.L2:
  57              		.loc 1 121 0 discriminator 12
ARM GAS  /var/folders/m4/4md61f0s1_g0rzfghffqnxvr0000gn/T//ccYgZ2tb.s 			page 2


  58 0022 FFF7FEFF 		bl	assert_param
  59              	.LVL2:
  60              		.loc 1 124 0 is_stmt 1 discriminator 12
  61 0026 44F0BF60 		orr	r0, r4, #100139008
  62 002a 034B     		ldr	r3, .L7
  63 002c 40F40030 		orr	r0, r0, #131072
  64 0030 D860     		str	r0, [r3, #12]
  65 0032 10BD     		pop	{r4, pc}
  66              	.LVL3:
  67              	.L4:
  68              		.loc 1 121 0
  69 0034 0120     		movs	r0, #1
  70              	.LVL4:
  71 0036 F4E7     		b	.L2
  72              	.L8:
  73              		.align	2
  74              	.L7:
  75 0038 00ED00E0 		.word	-536810240
  76              		.cfi_endproc
  77              	.LFE123:
  78              		.size	NVIC_PriorityGroupConfig, .-NVIC_PriorityGroupConfig
  79              		.section	.text.NVIC_Init,"ax",%progbits
  80              		.align	2
  81              		.p2align 4,,15
  82              		.global	NVIC_Init
  83              		.thumb
  84              		.thumb_func
  85              		.type	NVIC_Init, %function
  86              	NVIC_Init:
  87              	.LFB124:
  88              		.loc 1 137 0
  89              		.cfi_startproc
  90              		@ args = 0, pretend = 0, frame = 0
  91              		@ frame_needed = 0, uses_anonymous_args = 0
  92              	.LVL5:
  93 0000 F8B5     		push	{r3, r4, r5, r6, r7, lr}
  94              		.cfi_def_cfa_offset 24
  95              		.cfi_offset 3, -24
  96              		.cfi_offset 4, -20
  97              		.cfi_offset 5, -16
  98              		.cfi_offset 6, -12
  99              		.cfi_offset 7, -8
 100              		.cfi_offset 14, -4
 101              		.loc 1 137 0
 102 0002 0446     		mov	r4, r0
 103              		.loc 1 141 0
 104 0004 C078     		ldrb	r0, [r0, #3]	@ zero_extendqisi2
 105              	.LVL6:
 106 0006 0128     		cmp	r0, #1
 107 0008 8CBF     		ite	hi
 108 000a 0020     		movhi	r0, #0
 109 000c 0120     		movls	r0, #1
 110 000e FFF7FEFF 		bl	assert_param
 111              	.LVL7:
 112              		.loc 1 142 0
 113 0012 6078     		ldrb	r0, [r4, #1]	@ zero_extendqisi2
 114 0014 0F28     		cmp	r0, #15
ARM GAS  /var/folders/m4/4md61f0s1_g0rzfghffqnxvr0000gn/T//ccYgZ2tb.s 			page 3


 115 0016 8CBF     		ite	hi
 116 0018 0020     		movhi	r0, #0
 117 001a 0120     		movls	r0, #1
 118 001c FFF7FEFF 		bl	assert_param
 119              	.LVL8:
 120              		.loc 1 143 0
 121 0020 A078     		ldrb	r0, [r4, #2]	@ zero_extendqisi2
 122 0022 0F28     		cmp	r0, #15
 123 0024 8CBF     		ite	hi
 124 0026 0020     		movhi	r0, #0
 125 0028 0120     		movls	r0, #1
 126 002a FFF7FEFF 		bl	assert_param
 127              	.LVL9:
 128              		.loc 1 145 0
 129 002e E378     		ldrb	r3, [r4, #3]	@ zero_extendqisi2
 130 0030 5BB9     		cbnz	r3, .L13
 131              		.loc 1 166 0
 132 0032 2378     		ldrb	r3, [r4]	@ zero_extendqisi2
 133 0034 1648     		ldr	r0, .L14
 134 0036 5A09     		lsrs	r2, r3, #5
 135 0038 2032     		adds	r2, r2, #32
 136              		.loc 1 167 0
 137 003a 03F01F03 		and	r3, r3, #31
 138 003e 0121     		movs	r1, #1
 139 0040 01FA03F3 		lsl	r3, r1, r3
 140              		.loc 1 166 0
 141 0044 40F82230 		str	r3, [r0, r2, lsl #2]
 142 0048 F8BD     		pop	{r3, r4, r5, r6, r7, pc}
 143              	.LVL10:
 144              	.L13:
 145              		.loc 1 148 0
 146 004a 124B     		ldr	r3, .L14+4
 147              		.loc 1 152 0
 148 004c 6578     		ldrb	r5, [r4, #1]	@ zero_extendqisi2
 149              		.loc 1 148 0
 150 004e D968     		ldr	r1, [r3, #12]
 151              		.loc 1 153 0
 152 0050 A278     		ldrb	r2, [r4, #2]	@ zero_extendqisi2
 153              		.loc 1 157 0
 154 0052 2078     		ldrb	r0, [r4]	@ zero_extendqisi2
 155 0054 0E4E     		ldr	r6, .L14
 156              		.loc 1 148 0
 157 0056 C943     		mvns	r1, r1
 158 0058 C1F30221 		ubfx	r1, r1, #8, #3
 159              	.LVL11:
 160              		.loc 1 149 0
 161 005c C1F10407 		rsb	r7, r1, #4
 162              		.loc 1 152 0
 163 0060 FFB2     		uxtb	r7, r7
 164              		.loc 1 150 0
 165 0062 0F23     		movs	r3, #15
 166 0064 0B41     		asrs	r3, r3, r1
 167              		.loc 1 152 0
 168 0066 BD40     		lsls	r5, r5, r7
 169 0068 E9B2     		uxtb	r1, r5
 170              	.LVL12:
 171              		.loc 1 153 0
ARM GAS  /var/folders/m4/4md61f0s1_g0rzfghffqnxvr0000gn/T//ccYgZ2tb.s 			page 4


 172 006a 1340     		ands	r3, r3, r2
 173 006c 0B43     		orrs	r3, r3, r1
 174              	.LVL13:
 175              		.loc 1 157 0
 176 006e 00F16042 		add	r2, r0, #-536870912
 177 0072 02F56142 		add	r2, r2, #57600
 178              		.loc 1 155 0
 179 0076 1B01     		lsls	r3, r3, #4
 180              	.LVL14:
 181 0078 DBB2     		uxtb	r3, r3
 182              	.LVL15:
 183              		.loc 1 157 0
 184 007a 82F80033 		strb	r3, [r2, #768]
 185              		.loc 1 160 0
 186 007e 2378     		ldrb	r3, [r4]	@ zero_extendqisi2
 187              	.LVL16:
 188              		.loc 1 161 0
 189 0080 0122     		movs	r2, #1
 190              	.LVL17:
 191 0082 03F01F01 		and	r1, r3, #31
 192              		.loc 1 160 0
 193 0086 5B09     		lsrs	r3, r3, #5
 194              		.loc 1 161 0
 195 0088 8A40     		lsls	r2, r2, r1
 196              		.loc 1 160 0
 197 008a 46F82320 		str	r2, [r6, r3, lsl #2]
 198              	.LVL18:
 199 008e F8BD     		pop	{r3, r4, r5, r6, r7, pc}
 200              	.LVL19:
 201              	.L15:
 202              		.align	2
 203              	.L14:
 204 0090 00E100E0 		.word	-536813312
 205 0094 00ED00E0 		.word	-536810240
 206              		.cfi_endproc
 207              	.LFE124:
 208              		.size	NVIC_Init, .-NVIC_Init
 209              		.section	.text.NVIC_SetVectorTable,"ax",%progbits
 210              		.align	2
 211              		.p2align 4,,15
 212              		.global	NVIC_SetVectorTable
 213              		.thumb
 214              		.thumb_func
 215              		.type	NVIC_SetVectorTable, %function
 216              	NVIC_SetVectorTable:
 217              	.LFB125:
 218              		.loc 1 181 0
 219              		.cfi_startproc
 220              		@ args = 0, pretend = 0, frame = 0
 221              		@ frame_needed = 0, uses_anonymous_args = 0
 222              	.LVL20:
 223              		.loc 1 183 0
 224 0000 B0F1005F 		cmp	r0, #536870912
 225              		.loc 1 181 0
 226 0004 38B5     		push	{r3, r4, r5, lr}
 227              		.cfi_def_cfa_offset 16
 228              		.cfi_offset 3, -16
ARM GAS  /var/folders/m4/4md61f0s1_g0rzfghffqnxvr0000gn/T//ccYgZ2tb.s 			page 5


 229              		.cfi_offset 4, -12
 230              		.cfi_offset 5, -8
 231              		.cfi_offset 14, -4
 232              		.loc 1 181 0
 233 0006 0546     		mov	r5, r0
 234              		.loc 1 183 0
 235 0008 17BF     		itett	ne
 236 000a A0F10060 		subne	r0, r0, #134217728
 237              	.LVL21:
 238 000e 0120     		moveq	r0, #1
 239 0010 B0FA80F0 		clzne	r0, r0
 240 0014 4009     		lsrne	r0, r0, #5
 241              		.loc 1 181 0
 242 0016 0C46     		mov	r4, r1
 243              		.loc 1 183 0
 244 0018 FFF7FEFF 		bl	assert_param
 245              	.LVL22:
 246              		.loc 1 184 0
 247 001c 0748     		ldr	r0, .L20
 248 001e 8442     		cmp	r4, r0
 249 0020 8CBF     		ite	hi
 250 0022 0020     		movhi	r0, #0
 251 0024 0120     		movls	r0, #1
 252 0026 FFF7FEFF 		bl	assert_param
 253              	.LVL23:
 254              		.loc 1 186 0
 255 002a 24F06041 		bic	r1, r4, #-536870912
 256 002e 21F07F01 		bic	r1, r1, #127
 257 0032 034B     		ldr	r3, .L20+4
 258 0034 2943     		orrs	r1, r1, r5
 259 0036 9960     		str	r1, [r3, #8]
 260 0038 38BD     		pop	{r3, r4, r5, pc}
 261              	.LVL24:
 262              	.L21:
 263 003a 00BF     		.align	2
 264              	.L20:
 265 003c FEFF0F00 		.word	1048574
 266 0040 00ED00E0 		.word	-536810240
 267              		.cfi_endproc
 268              	.LFE125:
 269              		.size	NVIC_SetVectorTable, .-NVIC_SetVectorTable
 270              		.section	.text.NVIC_SystemLPConfig,"ax",%progbits
 271              		.align	2
 272              		.p2align 4,,15
 273              		.global	NVIC_SystemLPConfig
 274              		.thumb
 275              		.thumb_func
 276              		.type	NVIC_SystemLPConfig, %function
 277              	NVIC_SystemLPConfig:
 278              	.LFB126:
 279              		.loc 1 200 0
 280              		.cfi_startproc
 281              		@ args = 0, pretend = 0, frame = 0
 282              		@ frame_needed = 0, uses_anonymous_args = 0
 283              	.LVL25:
 284              		.loc 1 202 0
 285 0000 1028     		cmp	r0, #16
ARM GAS  /var/folders/m4/4md61f0s1_g0rzfghffqnxvr0000gn/T//ccYgZ2tb.s 			page 6


 286              		.loc 1 200 0
 287 0002 38B5     		push	{r3, r4, r5, lr}
 288              		.cfi_def_cfa_offset 16
 289              		.cfi_offset 3, -16
 290              		.cfi_offset 4, -12
 291              		.cfi_offset 5, -8
 292              		.cfi_offset 14, -4
 293              		.loc 1 200 0
 294 0004 0446     		mov	r4, r0
 295 0006 0D46     		mov	r5, r1
 296              		.loc 1 202 0
 297 0008 15D0     		beq	.L27
 298              		.loc 1 202 0 is_stmt 0 discriminator 2
 299 000a 0428     		cmp	r0, #4
 300 000c 13D0     		beq	.L27
 301              		.loc 1 202 0 discriminator 4
 302 000e A0F10200 		sub	r0, #2
 303              	.LVL26:
 304 0012 B0FA80F0 		clz	r0, r0
 305 0016 4009     		lsrs	r0, r0, #5
 306              	.L23:
 307              		.loc 1 202 0 discriminator 8
 308 0018 FFF7FEFF 		bl	assert_param
 309              	.LVL27:
 310              		.loc 1 203 0 is_stmt 1 discriminator 8
 311 001c 012D     		cmp	r5, #1
 312 001e 8CBF     		ite	hi
 313 0020 0020     		movhi	r0, #0
 314 0022 0120     		movls	r0, #1
 315 0024 FFF7FEFF 		bl	assert_param
 316              	.LVL28:
 317              		.loc 1 207 0 discriminator 8
 318 0028 054A     		ldr	r2, .L30
 319 002a 1369     		ldr	r3, [r2, #16]
 320              		.loc 1 205 0 discriminator 8
 321 002c 2DB9     		cbnz	r5, .L29
 322              		.loc 1 211 0
 323 002e 23EA0404 		bic	r4, r3, r4
 324 0032 1461     		str	r4, [r2, #16]
 325 0034 38BD     		pop	{r3, r4, r5, pc}
 326              	.LVL29:
 327              	.L27:
 328              		.loc 1 202 0
 329 0036 0120     		movs	r0, #1
 330              	.LVL30:
 331 0038 EEE7     		b	.L23
 332              	.LVL31:
 333              	.L29:
 334              		.loc 1 207 0
 335 003a 1C43     		orrs	r4, r4, r3
 336 003c 1461     		str	r4, [r2, #16]
 337 003e 38BD     		pop	{r3, r4, r5, pc}
 338              	.L31:
 339              		.align	2
 340              	.L30:
 341 0040 00ED00E0 		.word	-536810240
 342              		.cfi_endproc
ARM GAS  /var/folders/m4/4md61f0s1_g0rzfghffqnxvr0000gn/T//ccYgZ2tb.s 			page 7


 343              	.LFE126:
 344              		.size	NVIC_SystemLPConfig, .-NVIC_SystemLPConfig
 345              		.section	.text.SysTick_CLKSourceConfig,"ax",%progbits
 346              		.align	2
 347              		.p2align 4,,15
 348              		.global	SysTick_CLKSourceConfig
 349              		.thumb
 350              		.thumb_func
 351              		.type	SysTick_CLKSourceConfig, %function
 352              	SysTick_CLKSourceConfig:
 353              	.LFB127:
 354              		.loc 1 224 0
 355              		.cfi_startproc
 356              		@ args = 0, pretend = 0, frame = 0
 357              		@ frame_needed = 0, uses_anonymous_args = 0
 358              	.LVL32:
 359              		.loc 1 226 0
 360 0000 0428     		cmp	r0, #4
 361              		.loc 1 224 0
 362 0002 08B5     		push	{r3, lr}
 363              		.cfi_def_cfa_offset 8
 364              		.cfi_offset 3, -8
 365              		.cfi_offset 14, -4
 366              		.loc 1 226 0
 367 0004 0BD0     		beq	.L33
 368              		.loc 1 226 0 is_stmt 0 discriminator 2
 369 0006 431D     		adds	r3, r0, #5
 370 0008 14BF     		ite	ne
 371 000a 0020     		movne	r0, #0
 372              	.LVL33:
 373 000c 0120     		moveq	r0, #1
 374 000e FFF7FEFF 		bl	assert_param
 375              	.LVL34:
 376              		.loc 1 233 0 is_stmt 1 discriminator 2
 377 0012 074A     		ldr	r2, .L36
 378 0014 1368     		ldr	r3, [r2]
 379 0016 23F00403 		bic	r3, r3, #4
 380 001a 1360     		str	r3, [r2]
 381 001c 08BD     		pop	{r3, pc}
 382              	.LVL35:
 383              	.L33:
 384              		.loc 1 226 0
 385 001e 0120     		movs	r0, #1
 386              	.LVL36:
 387 0020 FFF7FEFF 		bl	assert_param
 388              	.LVL37:
 389              		.loc 1 229 0
 390 0024 024A     		ldr	r2, .L36
 391 0026 1368     		ldr	r3, [r2]
 392 0028 43F00403 		orr	r3, r3, #4
 393 002c 1360     		str	r3, [r2]
 394 002e 08BD     		pop	{r3, pc}
 395              	.L37:
 396              		.align	2
 397              	.L36:
 398 0030 10E000E0 		.word	-536813552
 399              		.cfi_endproc
ARM GAS  /var/folders/m4/4md61f0s1_g0rzfghffqnxvr0000gn/T//ccYgZ2tb.s 			page 8


 400              	.LFE127:
 401              		.size	SysTick_CLKSourceConfig, .-SysTick_CLKSourceConfig
 402              		.text
 403              	.Letext0:
 404              		.file 2 "/usr/local/Cellar/gcc-arm-none-eabi-49/20150609/arm-none-eabi/include/machine/_default_ty
 405              		.file 3 "/usr/local/Cellar/gcc-arm-none-eabi-49/20150609/arm-none-eabi/include/sys/_stdint.h"
 406              		.file 4 "ChibiOS_16.1.4/os/ext/CMSIS/include/core_cm4.h"
 407              		.file 5 "ChibiOS_16.1.4/os/ext/CMSIS/ST/STM32F4xx/stm32f4xx.h"
 408              		.file 6 "ChibiOS_16.1.4/ext/stdperiph_stm32f4/inc/misc.h"