ARM GAS  /var/folders/m4/4md61f0s1_g0rzfghffqnxvr0000gn/T//ccYgZ2tb.s 			page 1


   1              		.syntax unified
   2              		.cpu cortex-m4
   3              		.eabi_attribute 27, 1
   4              		.eabi_attribute 28, 1
   5              		.fpu fpv4-sp-d16
   6              		.eabi_attribute 20, 1
   7              		.eabi_attribute 21, 1
   8              		.eabi_attribute 23, 3
   9              		.eabi_attribute 24, 1
  10              		.eabi_attribute 25, 1
  11              		.eabi_attribute 26, 1
  12              		.eabi_attribute 30, 2
  13              		.eabi_attribute 34, 1
  14              		.eabi_attribute 18, 4
  15              		.thumb
  16              		.file	"misc.c"
  17              		.text
  18              	.Ltext0:
  19              		.cfi_sections	.debug_frame
  20              		.section	.text.NVIC_PriorityGroupConfig,"ax",%progbits
  21              		.align	2
  22              		.p2align 4,,15
  23              		.global	NVIC_PriorityGroupConfig
  24              		.thumb
  25              		.thumb_func
  26              		.type	NVIC_PriorityGroupConfig, %function
  27              	NVIC_PriorityGroupConfig:
  28              	.LFB123:
  29              		.file 1 "ChibiOS_16.1.4/ext/stdperiph_stm32f4/src/misc.c"
  30              		.loc 1 119 0
  31              		.cfi_startproc
  32              		@ args = 0, pretend = 0, frame = 0
  33              		@ frame_needed = 0, uses_anonymous_args = 0
  34              	.LVL0:
  35              		.loc 1 121 0
  36 0000 B0F5C06F 		cmp	r0, #1536
  37              		.loc 1 119 0
  38 0004 10B5     		push	{r4, lr}
  39              		.cfi_def_cfa_offset 8
  40              		.cfi_offset 4, -8
  41              		.cfi_offset 14, -4
  42              		.loc 1 119 0
  43 0006 0446     		mov	r4, r0
  44              		.loc 1 121 0
  45 0008 14D0     		beq	.L4
  46              		.loc 1 121 0 is_stmt 0 discriminator 6
  47 000a 20F48073 		bic	r3, r0, #256
  48 000e B3F5806F 		cmp	r3, #1024
  49 0012 0FD0     		beq	.L4
  50              		.loc 1 121 0 discriminator 8
  51 0014 20F48060 		bic	r0, r0, #1024
  52              	.LVL1:
  53 0018 A0F54070 		sub	r0, r0, #768
  54 001c B0FA80F0 		clz	r0, r0
  55 0020 4009     		lsrs	r0, r0, #5
  56              	.L2:
  57              		.loc 1 121 0 discriminator 12
ARM GAS  /var/folders/m4/4md61f0s1_g0rzfghffqnxvr0000gn/T//ccYgZ2tb.s 			page 2


  58 0022 FFF7FEFF 		bl	assert_param
  59              	.LVL2:
  60              		.loc 1 124 0 is_stmt 1 discriminator 12
  61 0026 44F0BF60 		orr	r0, r4, #100139008
  62 002a 034B     		ldr	r3, .L7
  63 002c 40F40030 		orr	r0, r0, #131072
  64 0030 D860     		str	r0, [r3, #12]
  65 0032 10BD     		pop	{r4, pc}
  66              	.LVL3:
  67              	.L4:
  68              		.loc 1 121 0
  69 0034 0120     		movs	r0, #1
  70              	.LVL4:
  71 0036 F4E7     		b	.L2
  72              	.L8:
  73              		.align	2
  74              	.L7:
  75 0038 00ED00E0 		.word	-536810240
  76              		.cfi_endproc
  77              	.LFE123:
  78              		.size	NVIC_PriorityGroupConfig, .-NVIC_PriorityGroupConfig
  79              		.section	.text.NVIC_Init,"ax",%progbits
  80              		.align	2
  81              		.p2align 4,,15
  82              		.global	NVIC_Init
  83              		.thumb
  84              		.thumb_func
  85              		.type	NVIC_Init, %function
  86              	NVIC_Init:
  87              	.LFB124:
  88              		.loc 1 137 0
  89              		.cfi_startproc
  90              		@ args = 0, pretend = 0, frame = 0
  91              		@ frame_needed = 0, uses_anonymous_args = 0
  92              	.LVL5:
  93 0000 F8B5     		push	{r3, r4, r5, r6, r7, lr}
  94              		.cfi_def_cfa_offset 24
  95              		.cfi_offset 3, -24
  96              		.cfi_offset 4, -20
  97              		.cfi_offset 5, -16
  98              		.cfi_offset 6, -12
  99              		.cfi_offset 7, -8
 100              		.cfi_offset 14, -4
 101              		.loc 1 137 0
 102 0002 0446     		mov	r4, r0
 103              		.loc 1 141 0
 104 0004 C078     		ldrb	r0, [r0, #3]	@ zero_extendqisi2
 105              	.LVL6:
 106 0006 0128     		cmp	r0, #1
 107 0008 8CBF     		ite	hi
 108 000a 0020     		movhi	r0, #0
 109 000c 0120     		movls	r0, #1
 110 000e FFF7FEFF 		bl	assert_param
 111              	.LVL7:
 112              		.loc 1 142 0
 113 0012 6078     		ldrb	r0, [r4, #1]	@ zero_extendqisi2
 114 0014 0F28     		cmp	r0, #15
ARM GAS  /var/folders/m4/4md61f0s1_g0rzfghffqnxvr0000gn/T//ccYgZ2tb.s 			page 3


 115 0016 8CBF     		ite	hi
 116 0018 0020     		movhi	r0, #0
 117 001a 0120     		movls	r0, #1
 118 001c FFF7FEFF 		bl	assert_param
 119              	.LVL8:
 120              		.loc 1 143 0
 121 0020 A078     		ldrb	r0, [r4, #2]	@ zero_extendqisi2
 122 0022 0F28     		cmp	r0, #15
 123 0024 8CBF     		ite	hi
 124 0026 0020     		movhi	r0, #0
 125 0028 0120     		movls	r0, #1
 126 002a FFF7FEFF 		bl	assert_param
 127              	.LVL9:
 128              		.loc 1 145 0
 129 002e E378     		ldrb	r3, [r4, #3]	@ zero_extendqisi2
 130 0030 5BB9     		cbnz	r3, .L13
 131              		.loc 1 166 0
 132 0032 2378     		ldrb	r3, [r4]	@ zero_extendqisi2
 133 0034 1648     		ldr	r0, .L14
 134 0036 5A09     		lsrs	r2, r3, #5
 135 0038 2032     		adds	r2, r2, #32
 136              		.loc 1 167 0
 137 003a 03F01F03 		and	r3, r3, #31
 138 003e 0121     		movs	r1, #1
 139 0040 01FA03F3 		lsl	r3, r1, r3
 140              		.loc 1 166 0
 141 0044 40F82230 		str	r3, [r0, r2, lsl #2]
 142 0048 F8BD     		pop	{r3, r4, r5, r6, r7, pc}
 143              	.LVL10:
 144              	.L13:
 145              		.loc 1 148 0
 146 004a 124B     		ldr	r3, .L14+4
 147              		.loc 1 152 0
 148 004c 6578     		ldrb	r5, [r4, #1]	@ zero_extendqisi2
 149              		.loc 1 148 0
 150 004e D968     		ldr	r1, [r3, #12]
 151              		.loc 1 153 0
 152 0050 A278     		ldrb	r2, [r4, #2]	@ zero_extendqisi2
 153              		.loc 1 157 0
 154 0052 2078     		ldrb	r0, [r4]	@ zero_extendqisi2
 155 0054 0E4E     		ldr	r6, .L14
 156              		.loc 1 148 0
 157 0056 C943     		mvns	r1, r1
 158 0058 C1F30221 		ubfx	r1, r1, #8, #3
 159              	.LVL11:
 160              		.loc 1 149 0
 161 005c C1F10407 		rsb	r7, r1, #4
 162              		.loc 1 152 0
 163 0060 FFB2     		uxtb	r7, r7
 164              		.loc 1 150 0
 165 0062 0F23     		movs	r3, #15
 166 0064 0B41     		asrs	r3, r3, r1
 167              		.loc 1 152 0
 168 0066 BD40     		lsls	r5, r5, r7
 169 0068 E9B2     		uxtb	r1, r5
 170              	.LVL12:
 171              		.loc 1 153 0
ARM GAS  /var/folders/m4/4md61f0s1_g0rzfghffqnxvr0000gn/T//ccYgZ2tb.s 			page 4


 172 006a 1340     		ands	r3, r3, r2
 173 006c 0B43     		orrs	r3, r3, r1
 174              	.LVL13:
 175              		.loc 1 157 0
 176 006e 00F16042 		add	r2, r0, #-536870912
 177 0072 02F56142 		add	r2, r2, #57600
 178              		.loc 1 155 0
 179 0076 1B01     		lsls	r3, r3, #4
 180              	.LVL14:
 181 0078 DBB2     		uxtb	r3, r3
 182              	.LVL15:
 183              		.loc 1 157 0
 184 007a 82F80033 		strb	r3, [r2, #768]
 185              		.loc 1 160 0
 186 007e 2378     		ldrb	r3, [r4]	@ zero_extendqisi2
 187              	.LVL16:
 188              		.loc 1 161 0
 189 0080 0122     		movs	r2, #1
 190              	.LVL17:
 191 0082 03F01F01 		and	r1, r3, #31
 192              		.loc 1 160 0
 193 0086 5B09     		lsrs	r3, r3, #5
 194              		.loc 1 161 0
 195 0088 8A40     		lsls	r2, r2, r1
 196              		.loc 1 160 0
 197 008a 46F82320 		str	r2, [r6, r3, lsl #2]
 198              	.LVL18:
 199 008e F8BD     		pop	{r3, r4, r5, r6, r7, pc}
 200              	.LVL19:
 201              	.L15:
 202              		.align	2
 203              	.L14:
 204 0090 00E100E0 		.word	-536813312
 205 0094 00ED00E0 		.word	-536810240
 206              		.cfi_endproc
 207              	.LFE124:
 208              		.size	NVIC_Init, .-NVIC_Init
 209              		.section	.text.NVIC_SetVectorTable,"ax",%progbits
 210              		.align	2
 211              		.p2align 4,,15
 212              		.global	NVIC_SetVectorTable
 213              		.thumb
 214              		.thumb_func
 215              		.type	NVIC_SetVectorTable, %function
 216              	NVIC_SetVectorTable:
 217              	.LFB125:
 218              		.loc 1 181 0
 219              		.cfi_startproc
 220              		@ args = 0, pretend = 0, frame = 0
 221              		@ frame_needed = 0, uses_anonymous_args = 0
 222              	.LVL20:
 223              		.loc 1 183 0
 224 0000 B0F1005F 		cmp	r0, #536870912
 225              		.loc 1 181 0
 226 0004 38B5     		push	{r3, r4, r5, lr}
 227              		.cfi_def_cfa_offset 16
 228              		.cfi_offset 3, -16
ARM GAS  /var/folders/m4/4md61f0s1_g0rzfghffqnxvr0000gn/T//ccYgZ2tb.s 			page 5


 229              		.cfi_offset 4, -12
 230              		.cfi_offset 5, -8
 231              		.cfi_offset 14, -4
 232              		.loc 1 181 0
 233 0006 0546     		mov	r5, r0
 234              		.loc 1 183 0
 235 0008 17BF     		itett	ne
 236 000a A0F10060 		subne	r0, r0, #134217728
 237              	.LVL21:
 238 000e 0120     		moveq	r0, #1
 239 0010 B0FA80F0 		clzne	r0, r0
 240 0014 4009     		lsrne	r0, r0, #5
 241              		.loc 1 181 0
 242 0016 0C46     		mov	r4, r1
 243              		.loc 1 183 0
 244 0018 FFF7FEFF 		bl	assert_param
 245              	.LVL22:
 246              		.loc 1 184 0
 247 001c 0748     		ldr	r0, .L20
 248 001e 8442     		cmp	r4, r0
 249 0020 8CBF     		ite	hi
 250 0022 0020     		movhi	r0, #0
 251 0024 0120     		movls	r0, #1
 252 0026 FFF7FEFF 		bl	assert_param
 253              	.LVL23:
 254              		.loc 1 186 0
 255 002a 24F06041 		bic	r1, r4, #-536870912
 256 002e 21F07F01 		bic	r1, r1, #127
 257 0032 034B     		ldr	r3, .L20+4
 258 0034 2943     		orrs	r1, r1, r5
 259 0036 9960     		str	r1, [r3, #8]
 260 0038 38BD     		pop	{r3, r4, r5, pc}
 261              	.LVL24:
 262              	.L21:
 263 003a 00BF     		.align	2
 264              	.L20:
 265 003c FEFF0F00 		.word	1048574
 266 0040 00ED00E0 		.word	-536810240
 267              		.cfi_endproc
 268              	.LFE125:
 269              		.size	NVIC_SetVectorTable, .-NVIC_SetVectorTable
 270              		.section	.text.NVIC_SystemLPConfig,"ax",%progbits
 271              		.align	2
 272              		.p2align 4,,15
 273              		.global	NVIC_SystemLPConfig
 274              		.thumb
 275              		.thumb_func
 276              		.type	NVIC_SystemLPConfig, %function
 277              	NVIC_SystemLPConfig:
 278              	.LFB126:
 279              		.loc 1 200 0
 280              		.cfi_startproc
 281              		@ args = 0, pretend = 0, frame = 0
 282              		@ frame_needed = 0, uses_anonymous_args = 0
 283              	.LVL25:
 284              		.loc 1 202 0
 285 0000 1028     		cmp	r0, #16
ARM GAS  /var/folders/m4/4md61f0s1_g0rzfghffqnxvr0000gn/T//ccYgZ2tb.s 			page 6


 286              		.loc 1 200 0
 287 0002 38B5     		push	{r3, r4, r5, lr}
 288              		.cfi_def_cfa_offset 16
 289              		.cfi_offset 3, -16
 290              		.cfi_offset 4, -12
 291              		.cfi_offset 5, -8
 292              		.cfi_offset 14, -4
 293              		.loc 1 200 0
 294 0004 0446     		mov	r4, r0
 295 0006 0D46     		mov	r5, r1
 296              		.loc 1 202 0
 297 0008 15D0     		beq	.L27
 298              		.loc 1 202 0 is_stmt 0 discriminator 2
 299 000a 0428     		cmp	r0, #4
 300 000c 13D0     		beq	.L27
 301              		.loc 1 202 0 discriminator 4
 302 000e A0F10200 		sub	r0, #2
 303              	.LVL26:
 304 0012 B0FA80F0 		clz	r0, r0
 305 0016 4009     		lsrs	r0, r0, #5
 306              	.L23:
 307              		.loc 1 202 0 discriminator 8
 308 0018 FFF7FEFF 		bl	assert_param
 309              	.LVL27:
 310              		.loc 1 203 0 is_stmt 1 discriminator 8
 311 001c 012D     		cmp	r5, #1
 312 001e 8CBF     		ite	hi
 313 0020 0020     		movhi	r0, #0
 314 0022 0120     		movls	r0, #1
 315 0024 FFF7FEFF 		bl	assert_param
 316              	.LVL28:
 317              		.loc 1 207 0 discriminator 8
 318 0028 054A     		ldr	r2, .L30
 319 002a 1369     		ldr	r3, [r2, #16]
 320              		.loc 1 205 0 discriminator 8
 321 002c 2DB9     		cbnz	r5, .L29
 322              		.loc 1 211 0
 323 002e 23EA0404 		bic	r4, r3, r4
 324 0032 1461     		str	r4, [r2, #16]
 325 0034 38BD     		pop	{r3, r4, r5, pc}
 326              	.LVL29:
 327              	.L27:
 328              		.loc 1 202 0
 329 0036 0120     		movs	r0, #1
 330              	.LVL30:
 331 0038 EEE7     		b	.L23
 332              	.LVL31:
 333              	.L29:
 334              		.loc 1 207 0
 335 003a 1C43     		orrs	r4, r4, r3
 336 003c 1461     		str	r4, [r2, #16]
 337 003e 38BD     		pop	{r3, r4, r5, pc}
 338              	.L31:
 339              		.align	2
 340              	.L30:
 341 0040 00ED00E0 		.word	-536810240
 342              		.cfi_endproc
ARM GAS  /var/folders/m4/4md61f0s1_g0rzfghffqnxvr0000gn/T//ccYgZ2tb.s 			page 7


 343              	.LFE126:
 344              		.size	NVIC_SystemLPConfig, .-NVIC_SystemLPConfig
 345              		.section	.text.SysTick_CLKSourceConfig,"ax",%progbits
 346              		.align	2
 347              		.p2align 4,,15
 348              		.global	SysTick_CLKSourceConfig
 349              		.thumb
 350              		.thumb_func
 351              		.type	SysTick_CLKSourceConfig, %function
 352              	SysTick_CLKSourceConfig:
 353              	.LFB127:
 354              		.loc 1 224 0
 355              		.cfi_startproc
 356              		@ args = 0, pretend = 0, frame = 0
 357              		@ frame_needed = 0, uses_anonymous_args = 0
 358              	.LVL32:
 359              		.loc 1 226 0
 360 0000 0428     		cmp	r0, #4
 361              		.loc 1 224 0
 362 0002 08B5     		push	{r3, lr}
 363              		.cfi_def_cfa_offset 8
 364              		.cfi_offset 3, -8
 365              		.cfi_offset 14, -4
 366              		.loc 1 226 0
 367 0004 0BD0     		beq	.L33
 368              		.loc 1 226 0 is_stmt 0 discriminator 2
 369 0006 431D     		adds	r3, r0, #5
 370 0008 14BF     		ite	ne
 371 000a 0020     		movne	r0, #0
 372              	.LVL33:
 373 000c 0120     		moveq	r0, #1
 374 000e FFF7FEFF 		bl	assert_param
 375              	.LVL34:
 376              		.loc 1 233 0 is_stmt 1 discriminator 2
 377 0012 074A     		ldr	r2, .L36
 378 0014 1368     		ldr	r3, [r2]
 379 0016 23F00403 		bic	r3, r3, #4
 380 001a 1360     		str	r3, [r2]
 381 001c 08BD     		pop	{r3, pc}
 382              	.LVL35:
 383              	.L33:
 384              		.loc 1 226 0
 385 001e 0120     		movs	r0, #1
 386              	.LVL36:
 387 0020 FFF7FEFF 		bl	assert_param
 388              	.LVL37:
 389              		.loc 1 229 0
 390 0024 024A     		ldr	r2, .L36
 391 0026 1368     		ldr	r3, [r2]
 392 0028 43F00403 		orr	r3, r3, #4
 393 002c 1360     		str	r3, [r2]
 394 002e 08BD     		pop	{r3, pc}
 395              	.L37:
 396              		.align	2
 397              	.L36:
 398 0030 10E000E0 		.word	-536813552
 399              		.cfi_endproc
ARM GAS  /var/folders/m4/4md61f0s1_g0rzfghffqnxvr0000gn/T//ccYgZ2tb.s 			page 8


 400              	.LFE127:
 401              		.size	SysTick_CLKSourceConfig, .-SysTick_CLKSourceConfig
 402              		.text
 403              	.Letext0:
 404              		.file 2 "/usr/local/Cellar/gcc-arm-none-eabi-49/20150609/arm-none-eabi/include/machine/_default_ty
 405              		.file 3 "/usr/local/Cellar/gcc-arm-none-eabi-49/20150609/arm-none-eabi/include/sys/_stdint.h"
 406              		.file 4 "ChibiOS_16.1.4/os/ext/CMSIS/include/core_cm4.h"
 407              		.file 5 "ChibiOS_16.1.4/os/ext/CMSIS/ST/STM32F4xx/stm32f4xx.h"
 408              		.file 6 "ChibiOS_16.1.4/ext/stdperiph_stm32f4/inc/misc.h"
 409              		.section	.debug_info,"",%progbits
 410              	.Ldebug_info0:
 411 0000 3C070000 		.4byte	0x73c
 412 0004 0400     		.2byte	0x4
 413 0006 00000000 		.4byte	.Ldebug_abbrev0
 414 000a 04       		.byte	0x4
 415 000b 01       		.uleb128 0x1
 416 000c 65010000 		.4byte	.LASF72
 417 0010 01       		.byte	0x1
 418 0011 E5020000 		.4byte	.LASF73
 419 0015 03010000 		.4byte	.LASF74
 420 0019 00000000 		.4byte	.Ldebug_ranges0+0
 421 001d 00000000 		.4byte	0
 422 0021 00000000 		.4byte	.Ldebug_line0
 423 0025 02       		.uleb128 0x2
 424 0026 01       		.byte	0x1
 425 0027 06       		.byte	0x6
 426 0028 AC020000 		.4byte	.LASF0
 427 002c 03       		.uleb128 0x3
 428 002d 48010000 		.4byte	.LASF4
 429 0031 02       		.byte	0x2
 430 0032 1D       		.byte	0x1d
 431 0033 37000000 		.4byte	0x37
 432 0037 02       		.uleb128 0x2
 433 0038 01       		.byte	0x1
 434 0039 08       		.byte	0x8
 435 003a 57010000 		.4byte	.LASF1
 436 003e 02       		.uleb128 0x2
 437 003f 02       		.byte	0x2
 438 0040 05       		.byte	0x5
 439 0041 63000000 		.4byte	.LASF2
 440 0045 02       		.uleb128 0x2
 441 0046 02       		.byte	0x2
 442 0047 07       		.byte	0x7
 443 0048 50030000 		.4byte	.LASF3
 444 004c 03       		.uleb128 0x3
 445 004d 31040000 		.4byte	.LASF5
 446 0051 02       		.byte	0x2
 447 0052 3F       		.byte	0x3f
 448 0053 57000000 		.4byte	0x57
 449 0057 02       		.uleb128 0x2
 450 0058 04       		.byte	0x4
 451 0059 05       		.byte	0x5
 452 005a 3F010000 		.4byte	.LASF6
 453 005e 03       		.uleb128 0x3
 454 005f 9B000000 		.4byte	.LASF7
 455 0063 02       		.byte	0x2
 456 0064 41       		.byte	0x41
ARM GAS  /var/folders/m4/4md61f0s1_g0rzfghffqnxvr0000gn/T//ccYgZ2tb.s 			page 9


 457 0065 69000000 		.4byte	0x69
 458 0069 02       		.uleb128 0x2
 459 006a 04       		.byte	0x4
 460 006b 07       		.byte	0x7
 461 006c ED030000 		.4byte	.LASF8
 462 0070 02       		.uleb128 0x2
 463 0071 08       		.byte	0x8
 464 0072 05       		.byte	0x5
 465 0073 F5000000 		.4byte	.LASF9
 466 0077 02       		.uleb128 0x2
 467 0078 08       		.byte	0x8
 468 0079 07       		.byte	0x7
 469 007a B8020000 		.4byte	.LASF10
 470 007e 04       		.uleb128 0x4
 471 007f 04       		.byte	0x4
 472 0080 05       		.byte	0x5
 473 0081 696E7400 		.ascii	"int\000"
 474 0085 02       		.uleb128 0x2
 475 0086 04       		.byte	0x4
 476 0087 07       		.byte	0x7
 477 0088 D8020000 		.4byte	.LASF11
 478 008c 03       		.uleb128 0x3
 479 008d B6000000 		.4byte	.LASF12
 480 0091 03       		.byte	0x3
 481 0092 14       		.byte	0x14
 482 0093 2C000000 		.4byte	0x2c
 483 0097 03       		.uleb128 0x3
 484 0098 6F030000 		.4byte	.LASF13
 485 009c 03       		.byte	0x3
 486 009d 1F       		.byte	0x1f
 487 009e 4C000000 		.4byte	0x4c
 488 00a2 03       		.uleb128 0x3
 489 00a3 CF020000 		.4byte	.LASF14
 490 00a7 03       		.byte	0x3
 491 00a8 20       		.byte	0x20
 492 00a9 5E000000 		.4byte	0x5e
 493 00ad 05       		.uleb128 0x5
 494 00ae 040E     		.2byte	0xe04
 495 00b0 04       		.byte	0x4
 496 00b1 A001     		.2byte	0x1a0
 497 00b3 69010000 		.4byte	0x169
 498 00b7 06       		.uleb128 0x6
 499 00b8 C0030000 		.4byte	.LASF15
 500 00bc 04       		.byte	0x4
 501 00bd A201     		.2byte	0x1a2
 502 00bf 80010000 		.4byte	0x180
 503 00c3 00       		.byte	0
 504 00c4 06       		.uleb128 0x6
 505 00c5 AC000000 		.4byte	.LASF16
 506 00c9 04       		.byte	0x4
 507 00ca A301     		.2byte	0x1a3
 508 00cc 85010000 		.4byte	0x185
 509 00d0 20       		.byte	0x20
 510 00d1 06       		.uleb128 0x6
 511 00d2 B6030000 		.4byte	.LASF17
 512 00d6 04       		.byte	0x4
 513 00d7 A401     		.2byte	0x1a4
ARM GAS  /var/folders/m4/4md61f0s1_g0rzfghffqnxvr0000gn/T//ccYgZ2tb.s 			page 10


 514 00d9 95010000 		.4byte	0x195
 515 00dd 80       		.byte	0x80
 516 00de 06       		.uleb128 0x6
 517 00df EC000000 		.4byte	.LASF18
 518 00e3 04       		.byte	0x4
 519 00e4 A501     		.2byte	0x1a5
 520 00e6 85010000 		.4byte	0x185
 521 00ea A0       		.byte	0xa0
 522 00eb 07       		.uleb128 0x7
 523 00ec 7C030000 		.4byte	.LASF19
 524 00f0 04       		.byte	0x4
 525 00f1 A601     		.2byte	0x1a6
 526 00f3 9A010000 		.4byte	0x19a
 527 00f7 0001     		.2byte	0x100
 528 00f9 07       		.uleb128 0x7
 529 00fa C5030000 		.4byte	.LASF20
 530 00fe 04       		.byte	0x4
 531 00ff A701     		.2byte	0x1a7
 532 0101 85010000 		.4byte	0x185
 533 0105 2001     		.2byte	0x120
 534 0107 07       		.uleb128 0x7
 535 0108 A7020000 		.4byte	.LASF21
 536 010c 04       		.byte	0x4
 537 010d A801     		.2byte	0x1a8
 538 010f 9F010000 		.4byte	0x19f
 539 0113 8001     		.2byte	0x180
 540 0115 07       		.uleb128 0x7
 541 0116 CF030000 		.4byte	.LASF22
 542 011a 04       		.byte	0x4
 543 011b A901     		.2byte	0x1a9
 544 011d 85010000 		.4byte	0x185
 545 0121 A001     		.2byte	0x1a0
 546 0123 07       		.uleb128 0x7
 547 0124 00000000 		.4byte	.LASF23
 548 0128 04       		.byte	0x4
 549 0129 AA01     		.2byte	0x1aa
 550 012b A4010000 		.4byte	0x1a4
 551 012f 0002     		.2byte	0x200
 552 0131 07       		.uleb128 0x7
 553 0132 D9030000 		.4byte	.LASF24
 554 0136 04       		.byte	0x4
 555 0137 AB01     		.2byte	0x1ab
 556 0139 A9010000 		.4byte	0x1a9
 557 013d 2002     		.2byte	0x220
 558 013f 08       		.uleb128 0x8
 559 0140 495000   		.ascii	"IP\000"
 560 0143 04       		.byte	0x4
 561 0144 AC01     		.2byte	0x1ac
 562 0146 C9010000 		.4byte	0x1c9
 563 014a 0003     		.2byte	0x300
 564 014c 07       		.uleb128 0x7
 565 014d E3030000 		.4byte	.LASF25
 566 0151 04       		.byte	0x4
 567 0152 AD01     		.2byte	0x1ad
 568 0154 CE010000 		.4byte	0x1ce
 569 0158 F003     		.2byte	0x3f0
 570 015a 07       		.uleb128 0x7
ARM GAS  /var/folders/m4/4md61f0s1_g0rzfghffqnxvr0000gn/T//ccYgZ2tb.s 			page 11


 571 015b DA000000 		.4byte	.LASF26
 572 015f 04       		.byte	0x4
 573 0160 AE01     		.2byte	0x1ae
 574 0162 DF010000 		.4byte	0x1df
 575 0166 000E     		.2byte	0xe00
 576 0168 00       		.byte	0
 577 0169 09       		.uleb128 0x9
 578 016a A2000000 		.4byte	0xa2
 579 016e 79010000 		.4byte	0x179
 580 0172 0A       		.uleb128 0xa
 581 0173 79010000 		.4byte	0x179
 582 0177 07       		.byte	0x7
 583 0178 00       		.byte	0
 584 0179 02       		.uleb128 0x2
 585 017a 04       		.byte	0x4
 586 017b 07       		.byte	0x7
 587 017c 81000000 		.4byte	.LASF27
 588 0180 0B       		.uleb128 0xb
 589 0181 69010000 		.4byte	0x169
 590 0185 09       		.uleb128 0x9
 591 0186 A2000000 		.4byte	0xa2
 592 018a 95010000 		.4byte	0x195
 593 018e 0A       		.uleb128 0xa
 594 018f 79010000 		.4byte	0x179
 595 0193 17       		.byte	0x17
 596 0194 00       		.byte	0
 597 0195 0B       		.uleb128 0xb
 598 0196 69010000 		.4byte	0x169
 599 019a 0B       		.uleb128 0xb
 600 019b 69010000 		.4byte	0x169
 601 019f 0B       		.uleb128 0xb
 602 01a0 69010000 		.4byte	0x169
 603 01a4 0B       		.uleb128 0xb
 604 01a5 69010000 		.4byte	0x169
 605 01a9 09       		.uleb128 0x9
 606 01aa A2000000 		.4byte	0xa2
 607 01ae B9010000 		.4byte	0x1b9
 608 01b2 0A       		.uleb128 0xa
 609 01b3 79010000 		.4byte	0x179
 610 01b7 37       		.byte	0x37
 611 01b8 00       		.byte	0
 612 01b9 09       		.uleb128 0x9
 613 01ba 8C000000 		.4byte	0x8c
 614 01be C9010000 		.4byte	0x1c9
 615 01c2 0A       		.uleb128 0xa
 616 01c3 79010000 		.4byte	0x179
 617 01c7 EF       		.byte	0xef
 618 01c8 00       		.byte	0
 619 01c9 0B       		.uleb128 0xb
 620 01ca B9010000 		.4byte	0x1b9
 621 01ce 09       		.uleb128 0x9
 622 01cf A2000000 		.4byte	0xa2
 623 01d3 DF010000 		.4byte	0x1df
 624 01d7 0C       		.uleb128 0xc
 625 01d8 79010000 		.4byte	0x179
 626 01dc 8302     		.2byte	0x283
 627 01de 00       		.byte	0
ARM GAS  /var/folders/m4/4md61f0s1_g0rzfghffqnxvr0000gn/T//ccYgZ2tb.s 			page 12


 628 01df 0B       		.uleb128 0xb
 629 01e0 A2000000 		.4byte	0xa2
 630 01e4 0D       		.uleb128 0xd
 631 01e5 9D020000 		.4byte	.LASF28
 632 01e9 04       		.byte	0x4
 633 01ea AF01     		.2byte	0x1af
 634 01ec AD000000 		.4byte	0xad
 635 01f0 0E       		.uleb128 0xe
 636 01f1 8C       		.byte	0x8c
 637 01f2 04       		.byte	0x4
 638 01f3 C001     		.2byte	0x1c0
 639 01f5 0B030000 		.4byte	0x30b
 640 01f9 06       		.uleb128 0x6
 641 01fa A6000000 		.4byte	.LASF29
 642 01fe 04       		.byte	0x4
 643 01ff C201     		.2byte	0x1c2
 644 0201 0B030000 		.4byte	0x30b
 645 0205 00       		.byte	0
 646 0206 06       		.uleb128 0x6
 647 0207 E7000000 		.4byte	.LASF30
 648 020b 04       		.byte	0x4
 649 020c C301     		.2byte	0x1c3
 650 020e DF010000 		.4byte	0x1df
 651 0212 04       		.byte	0x4
 652 0213 06       		.uleb128 0x6
 653 0214 35010000 		.4byte	.LASF31
 654 0218 04       		.byte	0x4
 655 0219 C401     		.2byte	0x1c4
 656 021b DF010000 		.4byte	0x1df
 657 021f 08       		.byte	0x8
 658 0220 06       		.uleb128 0x6
 659 0221 89020000 		.4byte	.LASF32
 660 0225 04       		.byte	0x4
 661 0226 C501     		.2byte	0x1c5
 662 0228 DF010000 		.4byte	0x1df
 663 022c 0C       		.byte	0xc
 664 022d 0F       		.uleb128 0xf
 665 022e 53435200 		.ascii	"SCR\000"
 666 0232 04       		.byte	0x4
 667 0233 C601     		.2byte	0x1c6
 668 0235 DF010000 		.4byte	0x1df
 669 0239 10       		.byte	0x10
 670 023a 0F       		.uleb128 0xf
 671 023b 43435200 		.ascii	"CCR\000"
 672 023f 04       		.byte	0x4
 673 0240 C701     		.2byte	0x1c7
 674 0242 DF010000 		.4byte	0x1df
 675 0246 14       		.byte	0x14
 676 0247 0F       		.uleb128 0xf
 677 0248 53485000 		.ascii	"SHP\000"
 678 024c 04       		.byte	0x4
 679 024d C801     		.2byte	0x1c8
 680 024f 20030000 		.4byte	0x320
 681 0253 18       		.byte	0x18
 682 0254 06       		.uleb128 0x6
 683 0255 22030000 		.4byte	.LASF33
 684 0259 04       		.byte	0x4
ARM GAS  /var/folders/m4/4md61f0s1_g0rzfghffqnxvr0000gn/T//ccYgZ2tb.s 			page 13


 685 025a C901     		.2byte	0x1c9
 686 025c DF010000 		.4byte	0x1df
 687 0260 24       		.byte	0x24
 688 0261 06       		.uleb128 0x6
 689 0262 52010000 		.4byte	.LASF34
 690 0266 04       		.byte	0x4
 691 0267 CA01     		.2byte	0x1ca
 692 0269 DF010000 		.4byte	0x1df
 693 026d 28       		.byte	0x28
 694 026e 06       		.uleb128 0x6
 695 026f B1030000 		.4byte	.LASF35
 696 0273 04       		.byte	0x4
 697 0274 CB01     		.2byte	0x1cb
 698 0276 DF010000 		.4byte	0x1df
 699 027a 2C       		.byte	0x2c
 700 027b 06       		.uleb128 0x6
 701 027c 81030000 		.4byte	.LASF36
 702 0280 04       		.byte	0x4
 703 0281 CC01     		.2byte	0x1cc
 704 0283 DF010000 		.4byte	0x1df
 705 0287 30       		.byte	0x30
 706 0288 06       		.uleb128 0x6
 707 0289 15030000 		.4byte	.LASF37
 708 028d 04       		.byte	0x4
 709 028e CD01     		.2byte	0x1cd
 710 0290 DF010000 		.4byte	0x1df
 711 0294 34       		.byte	0x34
 712 0295 06       		.uleb128 0x6
 713 0296 3A010000 		.4byte	.LASF38
 714 029a 04       		.byte	0x4
 715 029b CE01     		.2byte	0x1ce
 716 029d DF010000 		.4byte	0x1df
 717 02a1 38       		.byte	0x38
 718 02a2 06       		.uleb128 0x6
 719 02a3 5A040000 		.4byte	.LASF39
 720 02a7 04       		.byte	0x4
 721 02a8 CF01     		.2byte	0x1cf
 722 02aa DF010000 		.4byte	0x1df
 723 02ae 3C       		.byte	0x3c
 724 02af 0F       		.uleb128 0xf
 725 02b0 50465200 		.ascii	"PFR\000"
 726 02b4 04       		.byte	0x4
 727 02b5 D001     		.2byte	0x1d0
 728 02b7 35030000 		.4byte	0x335
 729 02bb 40       		.byte	0x40
 730 02bc 0F       		.uleb128 0xf
 731 02bd 44465200 		.ascii	"DFR\000"
 732 02c1 04       		.byte	0x4
 733 02c2 D101     		.2byte	0x1d1
 734 02c4 0B030000 		.4byte	0x30b
 735 02c8 48       		.byte	0x48
 736 02c9 0F       		.uleb128 0xf
 737 02ca 41445200 		.ascii	"ADR\000"
 738 02ce 04       		.byte	0x4
 739 02cf D201     		.2byte	0x1d2
 740 02d1 0B030000 		.4byte	0x30b
 741 02d5 4C       		.byte	0x4c
ARM GAS  /var/folders/m4/4md61f0s1_g0rzfghffqnxvr0000gn/T//ccYgZ2tb.s 			page 14


 742 02d6 06       		.uleb128 0x6
 743 02d7 BB030000 		.4byte	.LASF40
 744 02db 04       		.byte	0x4
 745 02dc D301     		.2byte	0x1d3
 746 02de 4F030000 		.4byte	0x34f
 747 02e2 50       		.byte	0x50
 748 02e3 06       		.uleb128 0x6
 749 02e4 77030000 		.4byte	.LASF41
 750 02e8 04       		.byte	0x4
 751 02e9 D401     		.2byte	0x1d4
 752 02eb 69030000 		.4byte	0x369
 753 02ef 60       		.byte	0x60
 754 02f0 06       		.uleb128 0x6
 755 02f1 AC000000 		.4byte	.LASF16
 756 02f5 04       		.byte	0x4
 757 02f6 D501     		.2byte	0x1d5
 758 02f8 59030000 		.4byte	0x359
 759 02fc 74       		.byte	0x74
 760 02fd 06       		.uleb128 0x6
 761 02fe 79040000 		.4byte	.LASF42
 762 0302 04       		.byte	0x4
 763 0303 D601     		.2byte	0x1d6
 764 0305 DF010000 		.4byte	0x1df
 765 0309 88       		.byte	0x88
 766 030a 00       		.byte	0
 767 030b 10       		.uleb128 0x10
 768 030c DF010000 		.4byte	0x1df
 769 0310 09       		.uleb128 0x9
 770 0311 8C000000 		.4byte	0x8c
 771 0315 20030000 		.4byte	0x320
 772 0319 0A       		.uleb128 0xa
 773 031a 79010000 		.4byte	0x179
 774 031e 0B       		.byte	0xb
 775 031f 00       		.byte	0
 776 0320 0B       		.uleb128 0xb
 777 0321 10030000 		.4byte	0x310
 778 0325 09       		.uleb128 0x9
 779 0326 A2000000 		.4byte	0xa2
 780 032a 35030000 		.4byte	0x335
 781 032e 0A       		.uleb128 0xa
 782 032f 79010000 		.4byte	0x179
 783 0333 01       		.byte	0x1
 784 0334 00       		.byte	0
 785 0335 10       		.uleb128 0x10
 786 0336 3A030000 		.4byte	0x33a
 787 033a 0B       		.uleb128 0xb
 788 033b 25030000 		.4byte	0x325
 789 033f 09       		.uleb128 0x9
 790 0340 A2000000 		.4byte	0xa2
 791 0344 4F030000 		.4byte	0x34f
 792 0348 0A       		.uleb128 0xa
 793 0349 79010000 		.4byte	0x179
 794 034d 03       		.byte	0x3
 795 034e 00       		.byte	0
 796 034f 10       		.uleb128 0x10
 797 0350 54030000 		.4byte	0x354
 798 0354 0B       		.uleb128 0xb
ARM GAS  /var/folders/m4/4md61f0s1_g0rzfghffqnxvr0000gn/T//ccYgZ2tb.s 			page 15


 799 0355 3F030000 		.4byte	0x33f
 800 0359 09       		.uleb128 0x9
 801 035a A2000000 		.4byte	0xa2
 802 035e 69030000 		.4byte	0x369
 803 0362 0A       		.uleb128 0xa
 804 0363 79010000 		.4byte	0x179
 805 0367 04       		.byte	0x4
 806 0368 00       		.byte	0
 807 0369 10       		.uleb128 0x10
 808 036a 6E030000 		.4byte	0x36e
 809 036e 0B       		.uleb128 0xb
 810 036f 59030000 		.4byte	0x359
 811 0373 0D       		.uleb128 0xd
 812 0374 8F020000 		.4byte	.LASF43
 813 0378 04       		.byte	0x4
 814 0379 D701     		.2byte	0x1d7
 815 037b F0010000 		.4byte	0x1f0
 816 037f 0E       		.uleb128 0xe
 817 0380 10       		.byte	0x10
 818 0381 04       		.byte	0x4
 819 0382 BF02     		.2byte	0x2bf
 820 0384 BD030000 		.4byte	0x3bd
 821 0388 06       		.uleb128 0x6
 822 0389 98020000 		.4byte	.LASF44
 823 038d 04       		.byte	0x4
 824 038e C102     		.2byte	0x2c1
 825 0390 DF010000 		.4byte	0x1df
 826 0394 00       		.byte	0
 827 0395 06       		.uleb128 0x6
 828 0396 55040000 		.4byte	.LASF45
 829 039a 04       		.byte	0x4
 830 039b C202     		.2byte	0x2c2
 831 039d DF010000 		.4byte	0x1df
 832 03a1 04       		.byte	0x4
 833 03a2 0F       		.uleb128 0xf
 834 03a3 56414C00 		.ascii	"VAL\000"
 835 03a7 04       		.byte	0x4
 836 03a8 C302     		.2byte	0x2c3
 837 03aa DF010000 		.4byte	0x1df
 838 03ae 08       		.byte	0x8
 839 03af 06       		.uleb128 0x6
 840 03b0 2F010000 		.4byte	.LASF46
 841 03b4 04       		.byte	0x4
 842 03b5 C402     		.2byte	0x2c4
 843 03b7 0B030000 		.4byte	0x30b
 844 03bb 0C       		.byte	0xc
 845 03bc 00       		.byte	0
 846 03bd 0D       		.uleb128 0xd
 847 03be 43030000 		.4byte	.LASF47
 848 03c2 04       		.byte	0x4
 849 03c3 C502     		.2byte	0x2c5
 850 03c5 7F030000 		.4byte	0x37f
 851 03c9 11       		.uleb128 0x11
 852 03ca 01       		.byte	0x1
 853 03cb 05       		.byte	0x5
 854 03cc BE       		.byte	0xbe
 855 03cd DE030000 		.4byte	0x3de
ARM GAS  /var/folders/m4/4md61f0s1_g0rzfghffqnxvr0000gn/T//ccYgZ2tb.s 			page 16


 856 03d1 12       		.uleb128 0x12
 857 03d2 DF000000 		.4byte	.LASF48
 858 03d6 00       		.sleb128 0
 859 03d7 12       		.uleb128 0x12
 860 03d8 7F040000 		.4byte	.LASF49
 861 03dc 01       		.sleb128 1
 862 03dd 00       		.byte	0
 863 03de 03       		.uleb128 0x3
 864 03df 21040000 		.4byte	.LASF50
 865 03e3 05       		.byte	0x5
 866 03e4 C1       		.byte	0xc1
 867 03e5 C9030000 		.4byte	0x3c9
 868 03e9 13       		.uleb128 0x13
 869 03ea 04       		.byte	0x4
 870 03eb 06       		.byte	0x6
 871 03ec 36       		.byte	0x36
 872 03ed 22040000 		.4byte	0x422
 873 03f1 14       		.uleb128 0x14
 874 03f2 86030000 		.4byte	.LASF51
 875 03f6 06       		.byte	0x6
 876 03f7 38       		.byte	0x38
 877 03f8 8C000000 		.4byte	0x8c
 878 03fc 00       		.byte	0
 879 03fd 14       		.uleb128 0x14
 880 03fe FF030000 		.4byte	.LASF52
 881 0402 06       		.byte	0x6
 882 0403 3D       		.byte	0x3d
 883 0404 8C000000 		.4byte	0x8c
 884 0408 01       		.byte	0x1
 885 0409 14       		.uleb128 0x14
 886 040a 96030000 		.4byte	.LASF53
 887 040e 06       		.byte	0x6
 888 040f 42       		.byte	0x42
 889 0410 8C000000 		.4byte	0x8c
 890 0414 02       		.byte	0x2
 891 0415 14       		.uleb128 0x14
 892 0416 16000000 		.4byte	.LASF54
 893 041a 06       		.byte	0x6
 894 041b 47       		.byte	0x47
 895 041c DE030000 		.4byte	0x3de
 896 0420 03       		.byte	0x3
 897 0421 00       		.byte	0
 898 0422 03       		.uleb128 0x3
 899 0423 05000000 		.4byte	.LASF55
 900 0427 06       		.byte	0x6
 901 0428 4A       		.byte	0x4a
 902 0429 E9030000 		.4byte	0x3e9
 903 042d 15       		.uleb128 0x15
 904 042e 86040000 		.4byte	.LASF56
 905 0432 01       		.byte	0x1
 906 0433 76       		.byte	0x76
 907 0434 00000000 		.4byte	.LFB123
 908 0438 3C000000 		.4byte	.LFE123-.LFB123
 909 043c 01       		.uleb128 0x1
 910 043d 9C       		.byte	0x9c
 911 043e 6C040000 		.4byte	0x46c
 912 0442 16       		.uleb128 0x16
ARM GAS  /var/folders/m4/4md61f0s1_g0rzfghffqnxvr0000gn/T//ccYgZ2tb.s 			page 17


 913 0443 BE000000 		.4byte	.LASF58
 914 0447 01       		.byte	0x1
 915 0448 76       		.byte	0x76
 916 0449 A2000000 		.4byte	0xa2
 917 044d 00000000 		.4byte	.LLST0
 918 0451 17       		.uleb128 0x17
 919 0452 3B040000 		.4byte	.LASF63
 920 0456 01       		.byte	0x1
 921 0457 79       		.byte	0x79
 922 0458 7E000000 		.4byte	0x7e
 923 045c 62040000 		.4byte	0x462
 924 0460 18       		.uleb128 0x18
 925 0461 00       		.byte	0
 926 0462 19       		.uleb128 0x19
 927 0463 26000000 		.4byte	.LVL2
 928 0467 32070000 		.4byte	0x732
 929 046b 00       		.byte	0
 930 046c 15       		.uleb128 0x15
 931 046d 8A000000 		.4byte	.LASF57
 932 0471 01       		.byte	0x1
 933 0472 88       		.byte	0x88
 934 0473 00000000 		.4byte	.LFB124
 935 0477 98000000 		.4byte	.LFE124-.LFB124
 936 047b 01       		.uleb128 0x1
 937 047c 9C       		.byte	0x9c
 938 047d EA040000 		.4byte	0x4ea
 939 0481 16       		.uleb128 0x16
 940 0482 3B000000 		.4byte	.LASF59
 941 0486 01       		.byte	0x1
 942 0487 88       		.byte	0x88
 943 0488 EA040000 		.4byte	0x4ea
 944 048c 34000000 		.4byte	.LLST1
 945 0490 1A       		.uleb128 0x1a
 946 0491 63030000 		.4byte	.LASF60
 947 0495 01       		.byte	0x1
 948 0496 8A       		.byte	0x8a
 949 0497 8C000000 		.4byte	0x8c
 950 049b 60000000 		.4byte	.LLST2
 951 049f 1A       		.uleb128 0x1a
 952 04a0 94000000 		.4byte	.LASF61
 953 04a4 01       		.byte	0x1
 954 04a5 8A       		.byte	0x8a
 955 04a6 8C000000 		.4byte	0x8c
 956 04aa B2000000 		.4byte	.LLST3
 957 04ae 1A       		.uleb128 0x1a
 958 04af 1B030000 		.4byte	.LASF62
 959 04b3 01       		.byte	0x1
 960 04b4 8A       		.byte	0x8a
 961 04b5 8C000000 		.4byte	0x8c
 962 04b9 D5000000 		.4byte	.LLST4
 963 04bd 17       		.uleb128 0x17
 964 04be 3B040000 		.4byte	.LASF63
 965 04c2 01       		.byte	0x1
 966 04c3 79       		.byte	0x79
 967 04c4 7E000000 		.4byte	0x7e
 968 04c8 CE040000 		.4byte	0x4ce
 969 04cc 18       		.uleb128 0x18
ARM GAS  /var/folders/m4/4md61f0s1_g0rzfghffqnxvr0000gn/T//ccYgZ2tb.s 			page 18


 970 04cd 00       		.byte	0
 971 04ce 19       		.uleb128 0x19
 972 04cf 12000000 		.4byte	.LVL7
 973 04d3 32070000 		.4byte	0x732
 974 04d7 19       		.uleb128 0x19
 975 04d8 20000000 		.4byte	.LVL8
 976 04dc 32070000 		.4byte	0x732
 977 04e0 19       		.uleb128 0x19
 978 04e1 2E000000 		.4byte	.LVL9
 979 04e5 32070000 		.4byte	0x732
 980 04e9 00       		.byte	0
 981 04ea 1B       		.uleb128 0x1b
 982 04eb 04       		.byte	0x4
 983 04ec 22040000 		.4byte	0x422
 984 04f0 15       		.uleb128 0x15
 985 04f1 6D000000 		.4byte	.LASF64
 986 04f5 01       		.byte	0x1
 987 04f6 B4       		.byte	0xb4
 988 04f7 00000000 		.4byte	.LFB125
 989 04fb 44000000 		.4byte	.LFE125-.LFB125
 990 04ff 01       		.uleb128 0x1
 991 0500 9C       		.byte	0x9c
 992 0501 58060000 		.4byte	0x658
 993 0505 16       		.uleb128 0x16
 994 0506 48040000 		.4byte	.LASF65
 995 050a 01       		.byte	0x1
 996 050b B4       		.byte	0xb4
 997 050c A2000000 		.4byte	0xa2
 998 0510 F8000000 		.4byte	.LLST5
 999 0514 16       		.uleb128 0x16
 1000 0515 3C030000 		.4byte	.LASF66
 1001 0519 01       		.byte	0x1
 1002 051a B4       		.byte	0xb4
 1003 051b A2000000 		.4byte	0xa2
 1004 051f 24010000 		.4byte	.LLST6
 1005 0523 17       		.uleb128 0x17
 1006 0524 3B040000 		.4byte	.LASF63
 1007 0528 01       		.byte	0x1
 1008 0529 79       		.byte	0x79
 1009 052a 7E000000 		.4byte	0x7e
 1010 052e 34050000 		.4byte	0x534
 1011 0532 18       		.uleb128 0x18
 1012 0533 00       		.byte	0
 1013 0534 1C       		.uleb128 0x1c
 1014 0535 1C000000 		.4byte	.LVL22
 1015 0539 32070000 		.4byte	0x732
 1016 053d 20060000 		.4byte	0x620
 1017 0541 1D       		.uleb128 0x1d
 1018 0542 01       		.uleb128 0x1
 1019 0543 50       		.byte	0x50
 1020 0544 D901     		.uleb128 0xd9
 1021 0546 31       		.byte	0x31
 1022 0547 75       		.byte	0x75
 1023 0548 80808040 		.sleb128 -134217728
 1024 054c 75       		.byte	0x75
 1025 054d 00       		.sleb128 0
 1026 054e 75       		.byte	0x75
ARM GAS  /var/folders/m4/4md61f0s1_g0rzfghffqnxvr0000gn/T//ccYgZ2tb.s 			page 19


 1027 054f 00       		.sleb128 0
 1028 0550 40       		.byte	0x40
 1029 0551 49       		.byte	0x49
 1030 0552 24       		.byte	0x24
 1031 0553 2E       		.byte	0x2e
 1032 0554 28       		.byte	0x28
 1033 0555 0100     		.2byte	0x1
 1034 0557 16       		.byte	0x16
 1035 0558 13       		.byte	0x13
 1036 0559 75       		.byte	0x75
 1037 055a 00       		.sleb128 0
 1038 055b 40       		.byte	0x40
 1039 055c 49       		.byte	0x49
 1040 055d 24       		.byte	0x24
 1041 055e 29       		.byte	0x29
 1042 055f 28       		.byte	0x28
 1043 0560 0100     		.2byte	0x1
 1044 0562 16       		.byte	0x16
 1045 0563 13       		.byte	0x13
 1046 0564 12       		.byte	0x12
 1047 0565 28       		.byte	0x28
 1048 0566 0600     		.2byte	0x6
 1049 0568 13       		.byte	0x13
 1050 0569 08       		.byte	0x8
 1051 056a 20       		.byte	0x20
 1052 056b 2F       		.byte	0x2f
 1053 056c 1400     		.2byte	0x14
 1054 056e 30       		.byte	0x30
 1055 056f 16       		.byte	0x16
 1056 0570 12       		.byte	0x12
 1057 0571 40       		.byte	0x40
 1058 0572 4B       		.byte	0x4b
 1059 0573 24       		.byte	0x24
 1060 0574 1A       		.byte	0x1a
 1061 0575 28       		.byte	0x28
 1062 0576 0900     		.2byte	0x9
 1063 0578 31       		.byte	0x31
 1064 0579 24       		.byte	0x24
 1065 057a 16       		.byte	0x16
 1066 057b 23       		.byte	0x23
 1067 057c 01       		.uleb128 0x1
 1068 057d 16       		.byte	0x16
 1069 057e 2F       		.byte	0x2f
 1070 057f EFFF     		.2byte	0xffef
 1071 0581 13       		.byte	0x13
 1072 0582 96       		.byte	0x96
 1073 0583 31       		.byte	0x31
 1074 0584 75       		.byte	0x75
 1075 0585 80808040 		.sleb128 -134217728
 1076 0589 75       		.byte	0x75
 1077 058a 00       		.sleb128 0
 1078 058b 75       		.byte	0x75
 1079 058c 00       		.sleb128 0
 1080 058d 40       		.byte	0x40
 1081 058e 49       		.byte	0x49
 1082 058f 24       		.byte	0x24
 1083 0590 2E       		.byte	0x2e
ARM GAS  /var/folders/m4/4md61f0s1_g0rzfghffqnxvr0000gn/T//ccYgZ2tb.s 			page 20


 1084 0591 28       		.byte	0x28
 1085 0592 0100     		.2byte	0x1
 1086 0594 16       		.byte	0x16
 1087 0595 13       		.byte	0x13
 1088 0596 75       		.byte	0x75
 1089 0597 00       		.sleb128 0
 1090 0598 40       		.byte	0x40
 1091 0599 49       		.byte	0x49
 1092 059a 24       		.byte	0x24
 1093 059b 29       		.byte	0x29
 1094 059c 28       		.byte	0x28
 1095 059d 0100     		.2byte	0x1
 1096 059f 16       		.byte	0x16
 1097 05a0 13       		.byte	0x13
 1098 05a1 75       		.byte	0x75
 1099 05a2 00       		.sleb128 0
 1100 05a3 40       		.byte	0x40
 1101 05a4 49       		.byte	0x49
 1102 05a5 24       		.byte	0x24
 1103 05a6 2E       		.byte	0x2e
 1104 05a7 28       		.byte	0x28
 1105 05a8 0100     		.2byte	0x1
 1106 05aa 16       		.byte	0x16
 1107 05ab 13       		.byte	0x13
 1108 05ac 35       		.byte	0x35
 1109 05ad 25       		.byte	0x25
 1110 05ae 31       		.byte	0x31
 1111 05af 75       		.byte	0x75
 1112 05b0 80808040 		.sleb128 -134217728
 1113 05b4 75       		.byte	0x75
 1114 05b5 00       		.sleb128 0
 1115 05b6 75       		.byte	0x75
 1116 05b7 00       		.sleb128 0
 1117 05b8 40       		.byte	0x40
 1118 05b9 49       		.byte	0x49
 1119 05ba 24       		.byte	0x24
 1120 05bb 2E       		.byte	0x2e
 1121 05bc 28       		.byte	0x28
 1122 05bd 0100     		.2byte	0x1
 1123 05bf 16       		.byte	0x16
 1124 05c0 13       		.byte	0x13
 1125 05c1 75       		.byte	0x75
 1126 05c2 00       		.sleb128 0
 1127 05c3 40       		.byte	0x40
 1128 05c4 49       		.byte	0x49
 1129 05c5 24       		.byte	0x24
 1130 05c6 29       		.byte	0x29
 1131 05c7 28       		.byte	0x28
 1132 05c8 0100     		.2byte	0x1
 1133 05ca 16       		.byte	0x16
 1134 05cb 13       		.byte	0x13
 1135 05cc 12       		.byte	0x12
 1136 05cd 28       		.byte	0x28
 1137 05ce 0600     		.2byte	0x6
 1138 05d0 13       		.byte	0x13
 1139 05d1 08       		.byte	0x8
 1140 05d2 20       		.byte	0x20
ARM GAS  /var/folders/m4/4md61f0s1_g0rzfghffqnxvr0000gn/T//ccYgZ2tb.s 			page 21


 1141 05d3 2F       		.byte	0x2f
 1142 05d4 1400     		.2byte	0x14
 1143 05d6 30       		.byte	0x30
 1144 05d7 16       		.byte	0x16
 1145 05d8 12       		.byte	0x12
 1146 05d9 40       		.byte	0x40
 1147 05da 4B       		.byte	0x4b
 1148 05db 24       		.byte	0x24
 1149 05dc 1A       		.byte	0x1a
 1150 05dd 28       		.byte	0x28
 1151 05de 0900     		.2byte	0x9
 1152 05e0 31       		.byte	0x31
 1153 05e1 24       		.byte	0x24
 1154 05e2 16       		.byte	0x16
 1155 05e3 23       		.byte	0x23
 1156 05e4 01       		.uleb128 0x1
 1157 05e5 16       		.byte	0x16
 1158 05e6 2F       		.byte	0x2f
 1159 05e7 EFFF     		.2byte	0xffef
 1160 05e9 13       		.byte	0x13
 1161 05ea 96       		.byte	0x96
 1162 05eb 31       		.byte	0x31
 1163 05ec 75       		.byte	0x75
 1164 05ed 80808040 		.sleb128 -134217728
 1165 05f1 75       		.byte	0x75
 1166 05f2 00       		.sleb128 0
 1167 05f3 75       		.byte	0x75
 1168 05f4 00       		.sleb128 0
 1169 05f5 40       		.byte	0x40
 1170 05f6 49       		.byte	0x49
 1171 05f7 24       		.byte	0x24
 1172 05f8 2E       		.byte	0x2e
 1173 05f9 28       		.byte	0x28
 1174 05fa 0100     		.2byte	0x1
 1175 05fc 16       		.byte	0x16
 1176 05fd 13       		.byte	0x13
 1177 05fe 75       		.byte	0x75
 1178 05ff 00       		.sleb128 0
 1179 0600 40       		.byte	0x40
 1180 0601 49       		.byte	0x49
 1181 0602 24       		.byte	0x24
 1182 0603 29       		.byte	0x29
 1183 0604 28       		.byte	0x28
 1184 0605 0100     		.2byte	0x1
 1185 0607 16       		.byte	0x16
 1186 0608 13       		.byte	0x13
 1187 0609 75       		.byte	0x75
 1188 060a 00       		.sleb128 0
 1189 060b 40       		.byte	0x40
 1190 060c 49       		.byte	0x49
 1191 060d 24       		.byte	0x24
 1192 060e 2E       		.byte	0x2e
 1193 060f 28       		.byte	0x28
 1194 0610 0100     		.2byte	0x1
 1195 0612 16       		.byte	0x16
 1196 0613 13       		.byte	0x13
 1197 0614 75       		.byte	0x75
ARM GAS  /var/folders/m4/4md61f0s1_g0rzfghffqnxvr0000gn/T//ccYgZ2tb.s 			page 22


 1198 0615 00       		.sleb128 0
 1199 0616 40       		.byte	0x40
 1200 0617 49       		.byte	0x49
 1201 0618 24       		.byte	0x24
 1202 0619 2E       		.byte	0x2e
 1203 061a 28       		.byte	0x28
 1204 061b 0100     		.2byte	0x1
 1205 061d 16       		.byte	0x16
 1206 061e 13       		.byte	0x13
 1207 061f 00       		.byte	0
 1208 0620 1E       		.uleb128 0x1e
 1209 0621 2A000000 		.4byte	.LVL23
 1210 0625 32070000 		.4byte	0x732
 1211 0629 1D       		.uleb128 0x1d
 1212 062a 01       		.uleb128 0x1
 1213 062b 50       		.byte	0x50
 1214 062c 29       		.uleb128 0x29
 1215 062d 31       		.byte	0x31
 1216 062e 30       		.byte	0x30
 1217 062f 0C       		.byte	0xc
 1218 0630 FEFF0F00 		.4byte	0xffffe
 1219 0634 74       		.byte	0x74
 1220 0635 00       		.sleb128 0
 1221 0636 40       		.byte	0x40
 1222 0637 4B       		.byte	0x4b
 1223 0638 24       		.byte	0x24
 1224 0639 22       		.byte	0x22
 1225 063a 0C       		.byte	0xc
 1226 063b FEFF0F80 		.4byte	0x800ffffe
 1227 063f 2B       		.byte	0x2b
 1228 0640 28       		.byte	0x28
 1229 0641 0100     		.2byte	0x1
 1230 0643 16       		.byte	0x16
 1231 0644 13       		.byte	0x13
 1232 0645 74       		.byte	0x74
 1233 0646 00       		.sleb128 0
 1234 0647 40       		.byte	0x40
 1235 0648 4B       		.byte	0x4b
 1236 0649 24       		.byte	0x24
 1237 064a 22       		.byte	0x22
 1238 064b 0C       		.byte	0xc
 1239 064c FEFF0F80 		.4byte	0x800ffffe
 1240 0650 2C       		.byte	0x2c
 1241 0651 28       		.byte	0x28
 1242 0652 0100     		.2byte	0x1
 1243 0654 16       		.byte	0x16
 1244 0655 13       		.byte	0x13
 1245 0656 00       		.byte	0
 1246 0657 00       		.byte	0
 1247 0658 15       		.uleb128 0x15
 1248 0659 28030000 		.4byte	.LASF67
 1249 065d 01       		.byte	0x1
 1250 065e C7       		.byte	0xc7
 1251 065f 00000000 		.4byte	.LFB126
 1252 0663 44000000 		.4byte	.LFE126-.LFB126
 1253 0667 01       		.uleb128 0x1
 1254 0668 9C       		.byte	0x9c
ARM GAS  /var/folders/m4/4md61f0s1_g0rzfghffqnxvr0000gn/T//ccYgZ2tb.s 			page 23


 1255 0669 AF060000 		.4byte	0x6af
 1256 066d 16       		.uleb128 0x16
 1257 066e 5F040000 		.4byte	.LASF68
 1258 0672 01       		.byte	0x1
 1259 0673 C7       		.byte	0xc7
 1260 0674 8C000000 		.4byte	0x8c
 1261 0678 50010000 		.4byte	.LLST7
 1262 067c 16       		.uleb128 0x16
 1263 067d D1000000 		.4byte	.LASF69
 1264 0681 01       		.byte	0x1
 1265 0682 C7       		.byte	0xc7
 1266 0683 DE030000 		.4byte	0x3de
 1267 0687 8A010000 		.4byte	.LLST8
 1268 068b 17       		.uleb128 0x17
 1269 068c 3B040000 		.4byte	.LASF63
 1270 0690 01       		.byte	0x1
 1271 0691 79       		.byte	0x79
 1272 0692 7E000000 		.4byte	0x7e
 1273 0696 9C060000 		.4byte	0x69c
 1274 069a 18       		.uleb128 0x18
 1275 069b 00       		.byte	0
 1276 069c 19       		.uleb128 0x19
 1277 069d 1C000000 		.4byte	.LVL27
 1278 06a1 32070000 		.4byte	0x732
 1279 06a5 19       		.uleb128 0x19
 1280 06a6 28000000 		.4byte	.LVL28
 1281 06aa 32070000 		.4byte	0x732
 1282 06ae 00       		.byte	0
 1283 06af 15       		.uleb128 0x15
 1284 06b0 4B000000 		.4byte	.LASF70
 1285 06b4 01       		.byte	0x1
 1286 06b5 DF       		.byte	0xdf
 1287 06b6 00000000 		.4byte	.LFB127
 1288 06ba 34000000 		.4byte	.LFE127-.LFB127
 1289 06be 01       		.uleb128 0x1
 1290 06bf 9C       		.byte	0x9c
 1291 06c0 21070000 		.4byte	0x721
 1292 06c4 16       		.uleb128 0x16
 1293 06c5 29000000 		.4byte	.LASF71
 1294 06c9 01       		.byte	0x1
 1295 06ca DF       		.byte	0xdf
 1296 06cb A2000000 		.4byte	0xa2
 1297 06cf C4010000 		.4byte	.LLST9
 1298 06d3 17       		.uleb128 0x17
 1299 06d4 3B040000 		.4byte	.LASF63
 1300 06d8 01       		.byte	0x1
 1301 06d9 79       		.byte	0x79
 1302 06da 7E000000 		.4byte	0x7e
 1303 06de E4060000 		.4byte	0x6e4
 1304 06e2 18       		.uleb128 0x18
 1305 06e3 00       		.byte	0
 1306 06e4 1C       		.uleb128 0x1c
 1307 06e5 12000000 		.4byte	.LVL34
 1308 06e9 32070000 		.4byte	0x732
 1309 06ed 11070000 		.4byte	0x711
 1310 06f1 1D       		.uleb128 0x1d
 1311 06f2 01       		.uleb128 0x1
ARM GAS  /var/folders/m4/4md61f0s1_g0rzfghffqnxvr0000gn/T//ccYgZ2tb.s 			page 24


 1312 06f3 50       		.byte	0x50
 1313 06f4 1B       		.uleb128 0x1b
 1314 06f5 31       		.byte	0x31
 1315 06f6 30       		.byte	0x30
 1316 06f7 F3       		.byte	0xf3
 1317 06f8 01       		.uleb128 0x1
 1318 06f9 50       		.byte	0x50
 1319 06fa F3       		.byte	0xf3
 1320 06fb 01       		.uleb128 0x1
 1321 06fc 50       		.byte	0x50
 1322 06fd 09       		.byte	0x9
 1323 06fe FB       		.byte	0xfb
 1324 06ff 2E       		.byte	0x2e
 1325 0700 28       		.byte	0x28
 1326 0701 0100     		.2byte	0x1
 1327 0703 16       		.byte	0x16
 1328 0704 13       		.byte	0x13
 1329 0705 F3       		.byte	0xf3
 1330 0706 01       		.uleb128 0x1
 1331 0707 50       		.byte	0x50
 1332 0708 09       		.byte	0x9
 1333 0709 FB       		.byte	0xfb
 1334 070a 29       		.byte	0x29
 1335 070b 28       		.byte	0x28
 1336 070c 0100     		.2byte	0x1
 1337 070e 16       		.byte	0x16
 1338 070f 13       		.byte	0x13
 1339 0710 00       		.byte	0
 1340 0711 1E       		.uleb128 0x1e
 1341 0712 24000000 		.4byte	.LVL37
 1342 0716 32070000 		.4byte	0x732
 1343 071a 1D       		.uleb128 0x1d
 1344 071b 01       		.uleb128 0x1
 1345 071c 50       		.byte	0x50
 1346 071d 01       		.uleb128 0x1
 1347 071e 31       		.byte	0x31
 1348 071f 00       		.byte	0
 1349 0720 00       		.byte	0
 1350 0721 1F       		.uleb128 0x1f
 1351 0722 6C040000 		.4byte	.LASF75
 1352 0726 04       		.byte	0x4
 1353 0727 FA06     		.2byte	0x6fa
 1354 0729 2D070000 		.4byte	0x72d
 1355 072d 0B       		.uleb128 0xb
 1356 072e 97000000 		.4byte	0x97
 1357 0732 20       		.uleb128 0x20
 1358 0733 3B040000 		.4byte	.LASF63
 1359 0737 01       		.byte	0x1
 1360 0738 79       		.byte	0x79
 1361 0739 7E000000 		.4byte	0x7e
 1362 073d 18       		.uleb128 0x18
 1363 073e 00       		.byte	0
 1364 073f 00       		.byte	0
 1365              		.section	.debug_abbrev,"",%progbits
 1366              	.Ldebug_abbrev0:
 1367 0000 01       		.uleb128 0x1
 1368 0001 11       		.uleb128 0x11
ARM GAS  /var/folders/m4/4md61f0s1_g0rzfghffqnxvr0000gn/T//ccYgZ2tb.s 			page 25


 1369 0002 01       		.byte	0x1
 1370 0003 25       		.uleb128 0x25
 1371 0004 0E       		.uleb128 0xe
 1372 0005 13       		.uleb128 0x13
 1373 0006 0B       		.uleb128 0xb
 1374 0007 03       		.uleb128 0x3
 1375 0008 0E       		.uleb128 0xe
 1376 0009 1B       		.uleb128 0x1b
 1377 000a 0E       		.uleb128 0xe
 1378 000b 55       		.uleb128 0x55
 1379 000c 17       		.uleb128 0x17
 1380 000d 11       		.uleb128 0x11
 1381 000e 01       		.uleb128 0x1
 1382 000f 10       		.uleb128 0x10
 1383 0010 17       		.uleb128 0x17
 1384 0011 00       		.byte	0
 1385 0012 00       		.byte	0
 1386 0013 02       		.uleb128 0x2
 1387 0014 24       		.uleb128 0x24
 1388 0015 00       		.byte	0
 1389 0016 0B       		.uleb128 0xb
 1390 0017 0B       		.uleb128 0xb
 1391 0018 3E       		.uleb128 0x3e
 1392 0019 0B       		.uleb128 0xb
 1393 001a 03       		.uleb128 0x3
 1394 001b 0E       		.uleb128 0xe
 1395 001c 00       		.byte	0
 1396 001d 00       		.byte	0
 1397 001e 03       		.uleb128 0x3
 1398 001f 16       		.uleb128 0x16
 1399 0020 00       		.byte	0
 1400 0021 03       		.uleb128 0x3
 1401 0022 0E       		.uleb128 0xe
 1402 0023 3A       		.uleb128 0x3a
 1403 0024 0B       		.uleb128 0xb
 1404 0025 3B       		.uleb128 0x3b
 1405 0026 0B       		.uleb128 0xb
 1406 0027 49       		.uleb128 0x49
 1407 0028 13       		.uleb128 0x13
 1408 0029 00       		.byte	0
 1409 002a 00       		.byte	0
 1410 002b 04       		.uleb128 0x4
 1411 002c 24       		.uleb128 0x24
 1412 002d 00       		.byte	0
 1413 002e 0B       		.uleb128 0xb
 1414 002f 0B       		.uleb128 0xb
 1415 0030 3E       		.uleb128 0x3e
 1416 0031 0B       		.uleb128 0xb
 1417 0032 03       		.uleb128 0x3
 1418 0033 08       		.uleb128 0x8
 1419 0034 00       		.byte	0
 1420 0035 00       		.byte	0
 1421 0036 05       		.uleb128 0x5
 1422 0037 13       		.uleb128 0x13
 1423 0038 01       		.byte	0x1
 1424 0039 0B       		.uleb128 0xb
 1425 003a 05       		.uleb128 0x5
ARM GAS  /var/folders/m4/4md61f0s1_g0rzfghffqnxvr0000gn/T//ccYgZ2tb.s 			page 26


 1426 003b 3A       		.uleb128 0x3a
 1427 003c 0B       		.uleb128 0xb
 1428 003d 3B       		.uleb128 0x3b
 1429 003e 05       		.uleb128 0x5
 1430 003f 01       		.uleb128 0x1
 1431 0040 13       		.uleb128 0x13
 1432 0041 00       		.byte	0
 1433 0042 00       		.byte	0
 1434 0043 06       		.uleb128 0x6
 1435 0044 0D       		.uleb128 0xd
 1436 0045 00       		.byte	0
 1437 0046 03       		.uleb128 0x3
 1438 0047 0E       		.uleb128 0xe
 1439 0048 3A       		.uleb128 0x3a
 1440 0049 0B       		.uleb128 0xb
 1441 004a 3B       		.uleb128 0x3b
 1442 004b 05       		.uleb128 0x5
 1443 004c 49       		.uleb128 0x49
 1444 004d 13       		.uleb128 0x13
 1445 004e 38       		.uleb128 0x38
 1446 004f 0B       		.uleb128 0xb
 1447 0050 00       		.byte	0
 1448 0051 00       		.byte	0
 1449 0052 07       		.uleb128 0x7
 1450 0053 0D       		.uleb128 0xd
 1451 0054 00       		.byte	0
 1452 0055 03       		.uleb128 0x3
 1453 0056 0E       		.uleb128 0xe
 1454 0057 3A       		.uleb128 0x3a
 1455 0058 0B       		.uleb128 0xb
 1456 0059 3B       		.uleb128 0x3b
 1457 005a 05       		.uleb128 0x5
 1458 005b 49       		.uleb128 0x49
 1459 005c 13       		.uleb128 0x13
 1460 005d 38       		.uleb128 0x38
 1461 005e 05       		.uleb128 0x5
 1462 005f 00       		.byte	0
 1463 0060 00       		.byte	0
 1464 0061 08       		.uleb128 0x8
 1465 0062 0D       		.uleb128 0xd
 1466 0063 00       		.byte	0
 1467 0064 03       		.uleb128 0x3
 1468 0065 08       		.uleb128 0x8
 1469 0066 3A       		.uleb128 0x3a
 1470 0067 0B       		.uleb128 0xb
 1471 0068 3B       		.uleb128 0x3b
 1472 0069 05       		.uleb128 0x5
 1473 006a 49       		.uleb128 0x49
 1474 006b 13       		.uleb128 0x13
 1475 006c 38       		.uleb128 0x38
 1476 006d 05       		.uleb128 0x5
 1477 006e 00       		.byte	0
 1478 006f 00       		.byte	0
 1479 0070 09       		.uleb128 0x9
 1480 0071 01       		.uleb128 0x1
 1481 0072 01       		.byte	0x1
 1482 0073 49       		.uleb128 0x49
ARM GAS  /var/folders/m4/4md61f0s1_g0rzfghffqnxvr0000gn/T//ccYgZ2tb.s 			page 27


 1483 0074 13       		.uleb128 0x13
 1484 0075 01       		.uleb128 0x1
 1485 0076 13       		.uleb128 0x13
 1486 0077 00       		.byte	0
 1487 0078 00       		.byte	0
 1488 0079 0A       		.uleb128 0xa
 1489 007a 21       		.uleb128 0x21
 1490 007b 00       		.byte	0
 1491 007c 49       		.uleb128 0x49
 1492 007d 13       		.uleb128 0x13
 1493 007e 2F       		.uleb128 0x2f
 1494 007f 0B       		.uleb128 0xb
 1495 0080 00       		.byte	0
 1496 0081 00       		.byte	0
 1497 0082 0B       		.uleb128 0xb
 1498 0083 35       		.uleb128 0x35
 1499 0084 00       		.byte	0
 1500 0085 49       		.uleb128 0x49
 1501 0086 13       		.uleb128 0x13
 1502 0087 00       		.byte	0
 1503 0088 00       		.byte	0
 1504 0089 0C       		.uleb128 0xc
 1505 008a 21       		.uleb128 0x21
 1506 008b 00       		.byte	0
 1507 008c 49       		.uleb128 0x49
 1508 008d 13       		.uleb128 0x13
 1509 008e 2F       		.uleb128 0x2f
 1510 008f 05       		.uleb128 0x5
 1511 0090 00       		.byte	0
 1512 0091 00       		.byte	0
 1513 0092 0D       		.uleb128 0xd
 1514 0093 16       		.uleb128 0x16
 1515 0094 00       		.byte	0
 1516 0095 03       		.uleb128 0x3
 1517 0096 0E       		.uleb128 0xe
 1518 0097 3A       		.uleb128 0x3a
 1519 0098 0B       		.uleb128 0xb
 1520 0099 3B       		.uleb128 0x3b
 1521 009a 05       		.uleb128 0x5
 1522 009b 49       		.uleb128 0x49
 1523 009c 13       		.uleb128 0x13
 1524 009d 00       		.byte	0
 1525 009e 00       		.byte	0
 1526 009f 0E       		.uleb128 0xe
 1527 00a0 13       		.uleb128 0x13
 1528 00a1 01       		.byte	0x1
 1529 00a2 0B       		.uleb128 0xb
 1530 00a3 0B       		.uleb128 0xb
 1531 00a4 3A       		.uleb128 0x3a
 1532 00a5 0B       		.uleb128 0xb
 1533 00a6 3B       		.uleb128 0x3b
 1534 00a7 05       		.uleb128 0x5
 1535 00a8 01       		.uleb128 0x1
 1536 00a9 13       		.uleb128 0x13
 1537 00aa 00       		.byte	0
 1538 00ab 00       		.byte	0
 1539 00ac 0F       		.uleb128 0xf
ARM GAS  /var/folders/m4/4md61f0s1_g0rzfghffqnxvr0000gn/T//ccYgZ2tb.s 			page 28


 1540 00ad 0D       		.uleb128 0xd
 1541 00ae 00       		.byte	0
 1542 00af 03       		.uleb128 0x3
 1543 00b0 08       		.uleb128 0x8
 1544 00b1 3A       		.uleb128 0x3a
 1545 00b2 0B       		.uleb128 0xb
 1546 00b3 3B       		.uleb128 0x3b
 1547 00b4 05       		.uleb128 0x5
 1548 00b5 49       		.uleb128 0x49
 1549 00b6 13       		.uleb128 0x13
 1550 00b7 38       		.uleb128 0x38
 1551 00b8 0B       		.uleb128 0xb
 1552 00b9 00       		.byte	0
 1553 00ba 00       		.byte	0
 1554 00bb 10       		.uleb128 0x10
 1555 00bc 26       		.uleb128 0x26
 1556 00bd 00       		.byte	0
 1557 00be 49       		.uleb128 0x49
 1558 00bf 13       		.uleb128 0x13
 1559 00c0 00       		.byte	0
 1560 00c1 00       		.byte	0
 1561 00c2 11       		.uleb128 0x11
 1562 00c3 04       		.uleb128 0x4
 1563 00c4 01       		.byte	0x1
 1564 00c5 0B       		.uleb128 0xb
 1565 00c6 0B       		.uleb128 0xb
 1566 00c7 3A       		.uleb128 0x3a
 1567 00c8 0B       		.uleb128 0xb
 1568 00c9 3B       		.uleb128 0x3b
 1569 00ca 0B       		.uleb128 0xb
 1570 00cb 01       		.uleb128 0x1
 1571 00cc 13       		.uleb128 0x13
 1572 00cd 00       		.byte	0
 1573 00ce 00       		.byte	0
 1574 00cf 12       		.uleb128 0x12
 1575 00d0 28       		.uleb128 0x28
 1576 00d1 00       		.byte	0
 1577 00d2 03       		.uleb128 0x3
 1578 00d3 0E       		.uleb128 0xe
 1579 00d4 1C       		.uleb128 0x1c
 1580 00d5 0D       		.uleb128 0xd
 1581 00d6 00       		.byte	0
 1582 00d7 00       		.byte	0
 1583 00d8 13       		.uleb128 0x13
 1584 00d9 13       		.uleb128 0x13
 1585 00da 01       		.byte	0x1
 1586 00db 0B       		.uleb128 0xb
 1587 00dc 0B       		.uleb128 0xb
 1588 00dd 3A       		.uleb128 0x3a
 1589 00de 0B       		.uleb128 0xb
 1590 00df 3B       		.uleb128 0x3b
 1591 00e0 0B       		.uleb128 0xb
 1592 00e1 01       		.uleb128 0x1
 1593 00e2 13       		.uleb128 0x13
 1594 00e3 00       		.byte	0
 1595 00e4 00       		.byte	0
 1596 00e5 14       		.uleb128 0x14
ARM GAS  /var/folders/m4/4md61f0s1_g0rzfghffqnxvr0000gn/T//ccYgZ2tb.s 			page 29


 1597 00e6 0D       		.uleb128 0xd
 1598 00e7 00       		.byte	0
 1599 00e8 03       		.uleb128 0x3
 1600 00e9 0E       		.uleb128 0xe
 1601 00ea 3A       		.uleb128 0x3a
 1602 00eb 0B       		.uleb128 0xb
 1603 00ec 3B       		.uleb128 0x3b
 1604 00ed 0B       		.uleb128 0xb
 1605 00ee 49       		.uleb128 0x49
 1606 00ef 13       		.uleb128 0x13
 1607 00f0 38       		.uleb128 0x38
 1608 00f1 0B       		.uleb128 0xb
 1609 00f2 00       		.byte	0
 1610 00f3 00       		.byte	0
 1611 00f4 15       		.uleb128 0x15
 1612 00f5 2E       		.uleb128 0x2e
 1613 00f6 01       		.byte	0x1
 1614 00f7 3F       		.uleb128 0x3f
 1615 00f8 19       		.uleb128 0x19
 1616 00f9 03       		.uleb128 0x3
 1617 00fa 0E       		.uleb128 0xe
 1618 00fb 3A       		.uleb128 0x3a
 1619 00fc 0B       		.uleb128 0xb
 1620 00fd 3B       		.uleb128 0x3b
 1621 00fe 0B       		.uleb128 0xb
 1622 00ff 27       		.uleb128 0x27
 1623 0100 19       		.uleb128 0x19
 1624 0101 11       		.uleb128 0x11
 1625 0102 01       		.uleb128 0x1
 1626 0103 12       		.uleb128 0x12
 1627 0104 06       		.uleb128 0x6
 1628 0105 40       		.uleb128 0x40
 1629 0106 18       		.uleb128 0x18
 1630 0107 9742     		.uleb128 0x2117
 1631 0109 19       		.uleb128 0x19
 1632 010a 01       		.uleb128 0x1
 1633 010b 13       		.uleb128 0x13
 1634 010c 00       		.byte	0
 1635 010d 00       		.byte	0
 1636 010e 16       		.uleb128 0x16
 1637 010f 05       		.uleb128 0x5
 1638 0110 00       		.byte	0
 1639 0111 03       		.uleb128 0x3
 1640 0112 0E       		.uleb128 0xe
 1641 0113 3A       		.uleb128 0x3a
 1642 0114 0B       		.uleb128 0xb
 1643 0115 3B       		.uleb128 0x3b
 1644 0116 0B       		.uleb128 0xb
 1645 0117 49       		.uleb128 0x49
 1646 0118 13       		.uleb128 0x13
 1647 0119 02       		.uleb128 0x2
 1648 011a 17       		.uleb128 0x17
 1649 011b 00       		.byte	0
 1650 011c 00       		.byte	0
 1651 011d 17       		.uleb128 0x17
 1652 011e 2E       		.uleb128 0x2e
 1653 011f 01       		.byte	0x1
ARM GAS  /var/folders/m4/4md61f0s1_g0rzfghffqnxvr0000gn/T//ccYgZ2tb.s 			page 30


 1654 0120 3F       		.uleb128 0x3f
 1655 0121 19       		.uleb128 0x19
 1656 0122 03       		.uleb128 0x3
 1657 0123 0E       		.uleb128 0xe
 1658 0124 3A       		.uleb128 0x3a
 1659 0125 0B       		.uleb128 0xb
 1660 0126 3B       		.uleb128 0x3b
 1661 0127 0B       		.uleb128 0xb
 1662 0128 49       		.uleb128 0x49
 1663 0129 13       		.uleb128 0x13
 1664 012a 3C       		.uleb128 0x3c
 1665 012b 19       		.uleb128 0x19
 1666 012c 01       		.uleb128 0x1
 1667 012d 13       		.uleb128 0x13
 1668 012e 00       		.byte	0
 1669 012f 00       		.byte	0
 1670 0130 18       		.uleb128 0x18
 1671 0131 18       		.uleb128 0x18
 1672 0132 00       		.byte	0
 1673 0133 00       		.byte	0
 1674 0134 00       		.byte	0
 1675 0135 19       		.uleb128 0x19
 1676 0136 898201   		.uleb128 0x4109
 1677 0139 00       		.byte	0
 1678 013a 11       		.uleb128 0x11
 1679 013b 01       		.uleb128 0x1
 1680 013c 31       		.uleb128 0x31
 1681 013d 13       		.uleb128 0x13
 1682 013e 00       		.byte	0
 1683 013f 00       		.byte	0
 1684 0140 1A       		.uleb128 0x1a
 1685 0141 34       		.uleb128 0x34
 1686 0142 00       		.byte	0
 1687 0143 03       		.uleb128 0x3
 1688 0144 0E       		.uleb128 0xe
 1689 0145 3A       		.uleb128 0x3a
 1690 0146 0B       		.uleb128 0xb
 1691 0147 3B       		.uleb128 0x3b
 1692 0148 0B       		.uleb128 0xb
 1693 0149 49       		.uleb128 0x49
 1694 014a 13       		.uleb128 0x13
 1695 014b 02       		.uleb128 0x2
 1696 014c 17       		.uleb128 0x17
 1697 014d 00       		.byte	0
 1698 014e 00       		.byte	0
 1699 014f 1B       		.uleb128 0x1b
 1700 0150 0F       		.uleb128 0xf
 1701 0151 00       		.byte	0
 1702 0152 0B       		.uleb128 0xb
 1703 0153 0B       		.uleb128 0xb
 1704 0154 49       		.uleb128 0x49
 1705 0155 13       		.uleb128 0x13
 1706 0156 00       		.byte	0
 1707 0157 00       		.byte	0
 1708 0158 1C       		.uleb128 0x1c
 1709 0159 898201   		.uleb128 0x4109
 1710 015c 01       		.byte	0x1
ARM GAS  /var/folders/m4/4md61f0s1_g0rzfghffqnxvr0000gn/T//ccYgZ2tb.s 			page 31


 1711 015d 11       		.uleb128 0x11
 1712 015e 01       		.uleb128 0x1
 1713 015f 31       		.uleb128 0x31
 1714 0160 13       		.uleb128 0x13
 1715 0161 01       		.uleb128 0x1
 1716 0162 13       		.uleb128 0x13
 1717 0163 00       		.byte	0
 1718 0164 00       		.byte	0
 1719 0165 1D       		.uleb128 0x1d
 1720 0166 8A8201   		.uleb128 0x410a
 1721 0169 00       		.byte	0
 1722 016a 02       		.uleb128 0x2
 1723 016b 18       		.uleb128 0x18
 1724 016c 9142     		.uleb128 0x2111
 1725 016e 18       		.uleb128 0x18
 1726 016f 00       		.byte	0
 1727 0170 00       		.byte	0
 1728 0171 1E       		.uleb128 0x1e
 1729 0172 898201   		.uleb128 0x4109
 1730 0175 01       		.byte	0x1
 1731 0176 11       		.uleb128 0x11
 1732 0177 01       		.uleb128 0x1
 1733 0178 31       		.uleb128 0x31
 1734 0179 13       		.uleb128 0x13
 1735 017a 00       		.byte	0
 1736 017b 00       		.byte	0
 1737 017c 1F       		.uleb128 0x1f
 1738 017d 34       		.uleb128 0x34
 1739 017e 00       		.byte	0
 1740 017f 03       		.uleb128 0x3
 1741 0180 0E       		.uleb128 0xe
 1742 0181 3A       		.uleb128 0x3a
 1743 0182 0B       		.uleb128 0xb
 1744 0183 3B       		.uleb128 0x3b
 1745 0184 05       		.uleb128 0x5
 1746 0185 49       		.uleb128 0x49
 1747 0186 13       		.uleb128 0x13
 1748 0187 3F       		.uleb128 0x3f
 1749 0188 19       		.uleb128 0x19
 1750 0189 3C       		.uleb128 0x3c
 1751 018a 19       		.uleb128 0x19
 1752 018b 00       		.byte	0
 1753 018c 00       		.byte	0
 1754 018d 20       		.uleb128 0x20
 1755 018e 2E       		.uleb128 0x2e
 1756 018f 01       		.byte	0x1
 1757 0190 3F       		.uleb128 0x3f
 1758 0191 19       		.uleb128 0x19
 1759 0192 03       		.uleb128 0x3
 1760 0193 0E       		.uleb128 0xe
 1761 0194 3A       		.uleb128 0x3a
 1762 0195 0B       		.uleb128 0xb
 1763 0196 3B       		.uleb128 0x3b
 1764 0197 0B       		.uleb128 0xb
 1765 0198 49       		.uleb128 0x49
 1766 0199 13       		.uleb128 0x13
 1767 019a 3C       		.uleb128 0x3c
ARM GAS  /var/folders/m4/4md61f0s1_g0rzfghffqnxvr0000gn/T//ccYgZ2tb.s 			page 32


 1768 019b 19       		.uleb128 0x19
 1769 019c 00       		.byte	0
 1770 019d 00       		.byte	0
 1771 019e 00       		.byte	0
 1772              		.section	.debug_loc,"",%progbits
 1773              	.Ldebug_loc0:
 1774              	.LLST0:
 1775 0000 00000000 		.4byte	.LVL0
 1776 0004 18000000 		.4byte	.LVL1
 1777 0008 0100     		.2byte	0x1
 1778 000a 50       		.byte	0x50
 1779 000b 18000000 		.4byte	.LVL1
 1780 000f 34000000 		.4byte	.LVL3
 1781 0013 0100     		.2byte	0x1
 1782 0015 54       		.byte	0x54
 1783 0016 34000000 		.4byte	.LVL3
 1784 001a 36000000 		.4byte	.LVL4
 1785 001e 0100     		.2byte	0x1
 1786 0020 50       		.byte	0x50
 1787 0021 36000000 		.4byte	.LVL4
 1788 0025 3C000000 		.4byte	.LFE123
 1789 0029 0100     		.2byte	0x1
 1790 002b 54       		.byte	0x54
 1791 002c 00000000 		.4byte	0
 1792 0030 00000000 		.4byte	0
 1793              	.LLST1:
 1794 0034 00000000 		.4byte	.LVL5
 1795 0038 06000000 		.4byte	.LVL6
 1796 003c 0100     		.2byte	0x1
 1797 003e 50       		.byte	0x50
 1798 003f 06000000 		.4byte	.LVL6
 1799 0043 90000000 		.4byte	.LVL19
 1800 0047 0100     		.2byte	0x1
 1801 0049 54       		.byte	0x54
 1802 004a 90000000 		.4byte	.LVL19
 1803 004e 98000000 		.4byte	.LFE124
 1804 0052 0400     		.2byte	0x4
 1805 0054 F3       		.byte	0xf3
 1806 0055 01       		.uleb128 0x1
 1807 0056 50       		.byte	0x50
 1808 0057 9F       		.byte	0x9f
 1809 0058 00000000 		.4byte	0
 1810 005c 00000000 		.4byte	0
 1811              	.LLST2:
 1812 0060 00000000 		.4byte	.LVL5
 1813 0064 5C000000 		.4byte	.LVL11
 1814 0068 0200     		.2byte	0x2
 1815 006a 30       		.byte	0x30
 1816 006b 9F       		.byte	0x9f
 1817 006c 5C000000 		.4byte	.LVL11
 1818 0070 6E000000 		.4byte	.LVL13
 1819 0074 0100     		.2byte	0x1
 1820 0076 51       		.byte	0x51
 1821 0077 6E000000 		.4byte	.LVL13
 1822 007b 78000000 		.4byte	.LVL14
 1823 007f 0100     		.2byte	0x1
 1824 0081 53       		.byte	0x53
ARM GAS  /var/folders/m4/4md61f0s1_g0rzfghffqnxvr0000gn/T//ccYgZ2tb.s 			page 33


 1825 0082 7A000000 		.4byte	.LVL15
 1826 0086 80000000 		.4byte	.LVL16
 1827 008a 0100     		.2byte	0x1
 1828 008c 53       		.byte	0x53
 1829 008d 80000000 		.4byte	.LVL16
 1830 0091 82000000 		.4byte	.LVL17
 1831 0095 0300     		.2byte	0x3
 1832 0097 72       		.byte	0x72
 1833 0098 8006     		.sleb128 768
 1834 009a 82000000 		.4byte	.LVL17
 1835 009e 8E000000 		.4byte	.LVL18
 1836 00a2 0600     		.2byte	0x6
 1837 00a4 70       		.byte	0x70
 1838 00a5 80C88380 		.sleb128 -536812544
 1838      7E
 1839 00aa 00000000 		.4byte	0
 1840 00ae 00000000 		.4byte	0
 1841              	.LLST3:
 1842 00b2 00000000 		.4byte	.LVL5
 1843 00b6 5C000000 		.4byte	.LVL11
 1844 00ba 0200     		.2byte	0x2
 1845 00bc 30       		.byte	0x30
 1846 00bd 9F       		.byte	0x9f
 1847 00be 5C000000 		.4byte	.LVL11
 1848 00c2 6A000000 		.4byte	.LVL12
 1849 00c6 0500     		.2byte	0x5
 1850 00c8 34       		.byte	0x34
 1851 00c9 71       		.byte	0x71
 1852 00ca 00       		.sleb128 0
 1853 00cb 1C       		.byte	0x1c
 1854 00cc 9F       		.byte	0x9f
 1855 00cd 00000000 		.4byte	0
 1856 00d1 00000000 		.4byte	0
 1857              	.LLST4:
 1858 00d5 00000000 		.4byte	.LVL5
 1859 00d9 5C000000 		.4byte	.LVL11
 1860 00dd 0200     		.2byte	0x2
 1861 00df 3F       		.byte	0x3f
 1862 00e0 9F       		.byte	0x9f
 1863 00e1 5C000000 		.4byte	.LVL11
 1864 00e5 6A000000 		.4byte	.LVL12
 1865 00e9 0500     		.2byte	0x5
 1866 00eb 3F       		.byte	0x3f
 1867 00ec 71       		.byte	0x71
 1868 00ed 00       		.sleb128 0
 1869 00ee 26       		.byte	0x26
 1870 00ef 9F       		.byte	0x9f
 1871 00f0 00000000 		.4byte	0
 1872 00f4 00000000 		.4byte	0
 1873              	.LLST5:
 1874 00f8 00000000 		.4byte	.LVL20
 1875 00fc 0E000000 		.4byte	.LVL21
 1876 0100 0100     		.2byte	0x1
 1877 0102 50       		.byte	0x50
 1878 0103 0E000000 		.4byte	.LVL21
 1879 0107 3A000000 		.4byte	.LVL24
 1880 010b 0100     		.2byte	0x1
ARM GAS  /var/folders/m4/4md61f0s1_g0rzfghffqnxvr0000gn/T//ccYgZ2tb.s 			page 34


 1881 010d 55       		.byte	0x55
 1882 010e 3A000000 		.4byte	.LVL24
 1883 0112 44000000 		.4byte	.LFE125
 1884 0116 0400     		.2byte	0x4
 1885 0118 F3       		.byte	0xf3
 1886 0119 01       		.uleb128 0x1
 1887 011a 50       		.byte	0x50
 1888 011b 9F       		.byte	0x9f
 1889 011c 00000000 		.4byte	0
 1890 0120 00000000 		.4byte	0
 1891              	.LLST6:
 1892 0124 00000000 		.4byte	.LVL20
 1893 0128 1B000000 		.4byte	.LVL22-1
 1894 012c 0100     		.2byte	0x1
 1895 012e 51       		.byte	0x51
 1896 012f 1B000000 		.4byte	.LVL22-1
 1897 0133 3A000000 		.4byte	.LVL24
 1898 0137 0100     		.2byte	0x1
 1899 0139 54       		.byte	0x54
 1900 013a 3A000000 		.4byte	.LVL24
 1901 013e 44000000 		.4byte	.LFE125
 1902 0142 0400     		.2byte	0x4
 1903 0144 F3       		.byte	0xf3
 1904 0145 01       		.uleb128 0x1
 1905 0146 51       		.byte	0x51
 1906 0147 9F       		.byte	0x9f
 1907 0148 00000000 		.4byte	0
 1908 014c 00000000 		.4byte	0
 1909              	.LLST7:
 1910 0150 00000000 		.4byte	.LVL25
 1911 0154 12000000 		.4byte	.LVL26
 1912 0158 0100     		.2byte	0x1
 1913 015a 50       		.byte	0x50
 1914 015b 12000000 		.4byte	.LVL26
 1915 015f 36000000 		.4byte	.LVL29
 1916 0163 0400     		.2byte	0x4
 1917 0165 F3       		.byte	0xf3
 1918 0166 01       		.uleb128 0x1
 1919 0167 50       		.byte	0x50
 1920 0168 9F       		.byte	0x9f
 1921 0169 36000000 		.4byte	.LVL29
 1922 016d 38000000 		.4byte	.LVL30
 1923 0171 0100     		.2byte	0x1
 1924 0173 50       		.byte	0x50
 1925 0174 38000000 		.4byte	.LVL30
 1926 0178 44000000 		.4byte	.LFE126
 1927 017c 0400     		.2byte	0x4
 1928 017e F3       		.byte	0xf3
 1929 017f 01       		.uleb128 0x1
 1930 0180 50       		.byte	0x50
 1931 0181 9F       		.byte	0x9f
 1932 0182 00000000 		.4byte	0
 1933 0186 00000000 		.4byte	0
 1934              	.LLST8:
 1935 018a 00000000 		.4byte	.LVL25
 1936 018e 1B000000 		.4byte	.LVL27-1
 1937 0192 0100     		.2byte	0x1
ARM GAS  /var/folders/m4/4md61f0s1_g0rzfghffqnxvr0000gn/T//ccYgZ2tb.s 			page 35


 1938 0194 51       		.byte	0x51
 1939 0195 1B000000 		.4byte	.LVL27-1
 1940 0199 36000000 		.4byte	.LVL29
 1941 019d 0400     		.2byte	0x4
 1942 019f F3       		.byte	0xf3
 1943 01a0 01       		.uleb128 0x1
 1944 01a1 51       		.byte	0x51
 1945 01a2 9F       		.byte	0x9f
 1946 01a3 36000000 		.4byte	.LVL29
 1947 01a7 3A000000 		.4byte	.LVL31
 1948 01ab 0100     		.2byte	0x1
 1949 01ad 51       		.byte	0x51
 1950 01ae 3A000000 		.4byte	.LVL31
 1951 01b2 44000000 		.4byte	.LFE126
 1952 01b6 0400     		.2byte	0x4
 1953 01b8 F3       		.byte	0xf3
 1954 01b9 01       		.uleb128 0x1
 1955 01ba 51       		.byte	0x51
 1956 01bb 9F       		.byte	0x9f
 1957 01bc 00000000 		.4byte	0
 1958 01c0 00000000 		.4byte	0
 1959              	.LLST9:
 1960 01c4 00000000 		.4byte	.LVL32
 1961 01c8 0C000000 		.4byte	.LVL33
 1962 01cc 0100     		.2byte	0x1
 1963 01ce 50       		.byte	0x50
 1964 01cf 0C000000 		.4byte	.LVL33
 1965 01d3 11000000 		.4byte	.LVL34-1
 1966 01d7 0300     		.2byte	0x3
 1967 01d9 73       		.byte	0x73
 1968 01da 7B       		.sleb128 -5
 1969 01db 9F       		.byte	0x9f
 1970 01dc 11000000 		.4byte	.LVL34-1
 1971 01e0 1E000000 		.4byte	.LVL35
 1972 01e4 0400     		.2byte	0x4
 1973 01e6 F3       		.byte	0xf3
 1974 01e7 01       		.uleb128 0x1
 1975 01e8 50       		.byte	0x50
 1976 01e9 9F       		.byte	0x9f
 1977 01ea 1E000000 		.4byte	.LVL35
 1978 01ee 20000000 		.4byte	.LVL36
 1979 01f2 0100     		.2byte	0x1
 1980 01f4 50       		.byte	0x50
 1981 01f5 20000000 		.4byte	.LVL36
 1982 01f9 34000000 		.4byte	.LFE127
 1983 01fd 0400     		.2byte	0x4
 1984 01ff F3       		.byte	0xf3
 1985 0200 01       		.uleb128 0x1
 1986 0201 50       		.byte	0x50
 1987 0202 9F       		.byte	0x9f
 1988 0203 00000000 		.4byte	0
 1989 0207 00000000 		.4byte	0
 1990              		.section	.debug_aranges,"",%progbits
 1991 0000 3C000000 		.4byte	0x3c
 1992 0004 0200     		.2byte	0x2
 1993 0006 00000000 		.4byte	.Ldebug_info0
 1994 000a 04       		.byte	0x4
ARM GAS  /var/folders/m4/4md61f0s1_g0rzfghffqnxvr0000gn/T//ccYgZ2tb.s 			page 36


 1995 000b 00       		.byte	0
 1996 000c 0000     		.2byte	0
 1997 000e 0000     		.2byte	0
 1998 0010 00000000 		.4byte	.LFB123
 1999 0014 3C000000 		.4byte	.LFE123-.LFB123
 2000 0018 00000000 		.4byte	.LFB124
 2001 001c 98000000 		.4byte	.LFE124-.LFB124
 2002 0020 00000000 		.4byte	.LFB125
 2003 0024 44000000 		.4byte	.LFE125-.LFB125
 2004 0028 00000000 		.4byte	.LFB126
 2005 002c 44000000 		.4byte	.LFE126-.LFB126
 2006 0030 00000000 		.4byte	.LFB127
 2007 0034 34000000 		.4byte	.LFE127-.LFB127
 2008 0038 00000000 		.4byte	0
 2009 003c 00000000 		.4byte	0
 2010              		.section	.debug_ranges,"",%progbits
 2011              	.Ldebug_ranges0:
 2012 0000 00000000 		.4byte	.LFB123
 2013 0004 3C000000 		.4byte	.LFE123
 2014 0008 00000000 		.4byte	.LFB124
 2015 000c 98000000 		.4byte	.LFE124
 2016 0010 00000000 		.4byte	.LFB125
 2017 0014 44000000 		.4byte	.LFE125
 2018 0018 00000000 		.4byte	.LFB126
 2019 001c 44000000 		.4byte	.LFE126
 2020 0020 00000000 		.4byte	.LFB127
 2021 0024 34000000 		.4byte	.LFE127
 2022 0028 00000000 		.4byte	0
 2023 002c 00000000 		.4byte	0
 2024              		.section	.debug_line,"",%progbits
 2025              	.Ldebug_line0:
 2026 0000 72020000 		.section	.debug_str,"MS",%progbits,1
 2026      02009C01 
 2026      00000201 
 2026      FB0E0D00 
 2026      01010101 
 2027              	.LASF23:
 2028 0000 49414252 		.ascii	"IABR\000"
 2028      00
 2029              	.LASF55:
 2030 0005 4E564943 		.ascii	"NVIC_InitTypeDef\000"
 2030      5F496E69 
 2030      74547970 
 2030      65446566 
 2030      00
 2031              	.LASF54:
 2032 0016 4E564943 		.ascii	"NVIC_IRQChannelCmd\000"
 2032      5F495251 
 2032      4368616E 
 2032      6E656C43 
 2032      6D6400
 2033              	.LASF71:
 2034 0029 53797354 		.ascii	"SysTick_CLKSource\000"
 2034      69636B5F 
 2034      434C4B53 
 2034      6F757263 
 2034      6500
ARM GAS  /var/folders/m4/4md61f0s1_g0rzfghffqnxvr0000gn/T//ccYgZ2tb.s 			page 37


 2035              	.LASF59:
 2036 003b 4E564943 		.ascii	"NVIC_InitStruct\000"
 2036      5F496E69 
 2036      74537472 
 2036      75637400 
 2037              	.LASF70:
 2038 004b 53797354 		.ascii	"SysTick_CLKSourceConfig\000"
 2038      69636B5F 
 2038      434C4B53 
 2038      6F757263 
 2038      65436F6E 
 2039              	.LASF2:
 2040 0063 73686F72 		.ascii	"short int\000"
 2040      7420696E 
 2040      7400
 2041              	.LASF64:
 2042 006d 4E564943 		.ascii	"NVIC_SetVectorTable\000"
 2042      5F536574 
 2042      56656374 
 2042      6F725461 
 2042      626C6500 
 2043              	.LASF27:
 2044 0081 73697A65 		.ascii	"sizetype\000"
 2044      74797065 
 2044      00
 2045              	.LASF57:
 2046 008a 4E564943 		.ascii	"NVIC_Init\000"
 2046      5F496E69 
 2046      7400
 2047              	.LASF61:
 2048 0094 746D7070 		.ascii	"tmppre\000"
 2048      726500
 2049              	.LASF7:
 2050 009b 5F5F7569 		.ascii	"__uint32_t\000"
 2050      6E743332 
 2050      5F7400
 2051              	.LASF29:
 2052 00a6 43505549 		.ascii	"CPUID\000"
 2052      4400
 2053              	.LASF16:
 2054 00ac 52455345 		.ascii	"RESERVED0\000"
 2054      52564544 
 2054      3000
 2055              	.LASF12:
 2056 00b6 75696E74 		.ascii	"uint8_t\000"
 2056      385F7400 
 2057              	.LASF58:
 2058 00be 4E564943 		.ascii	"NVIC_PriorityGroup\000"
 2058      5F507269 
 2058      6F726974 
 2058      7947726F 
 2058      757000
 2059              	.LASF69:
 2060 00d1 4E657753 		.ascii	"NewState\000"
 2060      74617465 
 2060      00
 2061              	.LASF26:
ARM GAS  /var/folders/m4/4md61f0s1_g0rzfghffqnxvr0000gn/T//ccYgZ2tb.s 			page 38


 2062 00da 53544952 		.ascii	"STIR\000"
 2062      00
 2063              	.LASF48:
 2064 00df 44495341 		.ascii	"DISABLE\000"
 2064      424C4500 
 2065              	.LASF30:
 2066 00e7 49435352 		.ascii	"ICSR\000"
 2066      00
 2067              	.LASF18:
 2068 00ec 52534552 		.ascii	"RSERVED1\000"
 2068      56454431 
 2068      00
 2069              	.LASF9:
 2070 00f5 6C6F6E67 		.ascii	"long long int\000"
 2070      206C6F6E 
 2070      6720696E 
 2070      7400
 2071              	.LASF74:
 2072 0103 2F557365 		.ascii	"/Users/raphael/Documents/pcb-quadrotor/code\000"
 2072      72732F72 
 2072      61706861 
 2072      656C2F44 
 2072      6F63756D 
 2073              	.LASF46:
 2074 012f 43414C49 		.ascii	"CALIB\000"
 2074      4200
 2075              	.LASF31:
 2076 0135 56544F52 		.ascii	"VTOR\000"
 2076      00
 2077              	.LASF38:
 2078 013a 42464152 		.ascii	"BFAR\000"
 2078      00
 2079              	.LASF6:
 2080 013f 6C6F6E67 		.ascii	"long int\000"
 2080      20696E74 
 2080      00
 2081              	.LASF4:
 2082 0148 5F5F7569 		.ascii	"__uint8_t\000"
 2082      6E74385F 
 2082      7400
 2083              	.LASF34:
 2084 0152 43465352 		.ascii	"CFSR\000"
 2084      00
 2085              	.LASF1:
 2086 0157 756E7369 		.ascii	"unsigned char\000"
 2086      676E6564 
 2086      20636861 
 2086      7200
 2087              	.LASF72:
 2088 0165 474E5520 		.ascii	"GNU C 4.9.3 20150529 (release) [ARM/embedded-4_9-br"
 2088      4320342E 
 2088      392E3320 
 2088      32303135 
 2088      30353239 
 2089 0198 616E6368 		.ascii	"anch revision 224288] -mcpu=cortex-m4 -mfloat-abi=h"
 2089      20726576 
 2089      6973696F 
ARM GAS  /var/folders/m4/4md61f0s1_g0rzfghffqnxvr0000gn/T//ccYgZ2tb.s 			page 39


 2089      6E203232 
 2089      34323838 
 2090 01cb 61726420 		.ascii	"ard -mfpu=fpv4-sp-d16 -mno-thumb-interwork -mthumb "
 2090      2D6D6670 
 2090      753D6670 
 2090      76342D73 
 2090      702D6431 
 2091 01fe 2D676764 		.ascii	"-ggdb -O2 -std=gnu99 -fomit-frame-pointer -falign-f"
 2091      62202D4F 
 2091      32202D73 
 2091      74643D67 
 2091      6E753939 
 2092 0231 756E6374 		.ascii	"unctions=16 -ffunction-sections -fdata-sections -fn"
 2092      696F6E73 
 2092      3D313620 
 2092      2D666675 
 2092      6E637469 
 2093 0264 6F2D636F 		.ascii	"o-common -fsingle-precision-constant\000"
 2093      6D6D6F6E 
 2093      202D6673 
 2093      696E676C 
 2093      652D7072 
 2094              	.LASF32:
 2095 0289 41495243 		.ascii	"AIRCR\000"
 2095      5200
 2096              	.LASF43:
 2097 028f 5343425F 		.ascii	"SCB_Type\000"
 2097      54797065 
 2097      00
 2098              	.LASF44:
 2099 0298 4354524C 		.ascii	"CTRL\000"
 2099      00
 2100              	.LASF28:
 2101 029d 4E564943 		.ascii	"NVIC_Type\000"
 2101      5F547970 
 2101      6500
 2102              	.LASF21:
 2103 02a7 49435052 		.ascii	"ICPR\000"
 2103      00
 2104              	.LASF0:
 2105 02ac 7369676E 		.ascii	"signed char\000"
 2105      65642063 
 2105      68617200 
 2106              	.LASF10:
 2107 02b8 6C6F6E67 		.ascii	"long long unsigned int\000"
 2107      206C6F6E 
 2107      6720756E 
 2107      7369676E 
 2107      65642069 
 2108              	.LASF14:
 2109 02cf 75696E74 		.ascii	"uint32_t\000"
 2109      33325F74 
 2109      00
 2110              	.LASF11:
 2111 02d8 756E7369 		.ascii	"unsigned int\000"
 2111      676E6564 
 2111      20696E74 
ARM GAS  /var/folders/m4/4md61f0s1_g0rzfghffqnxvr0000gn/T//ccYgZ2tb.s 			page 40


 2111      00
 2112              	.LASF73:
 2113 02e5 43686962 		.ascii	"ChibiOS_16.1.4/ext/stdperiph_stm32f4/src/misc.c\000"
 2113      694F535F 
 2113      31362E31 
 2113      2E342F65 
 2113      78742F73 
 2114              	.LASF37:
 2115 0315 4D4D4641 		.ascii	"MMFAR\000"
 2115      5200
 2116              	.LASF62:
 2117 031b 746D7073 		.ascii	"tmpsub\000"
 2117      756200
 2118              	.LASF33:
 2119 0322 53484353 		.ascii	"SHCSR\000"
 2119      5200
 2120              	.LASF67:
 2121 0328 4E564943 		.ascii	"NVIC_SystemLPConfig\000"
 2121      5F537973 
 2121      74656D4C 
 2121      50436F6E 
 2121      66696700 
 2122              	.LASF66:
 2123 033c 4F666673 		.ascii	"Offset\000"
 2123      657400
 2124              	.LASF47:
 2125 0343 53797354 		.ascii	"SysTick_Type\000"
 2125      69636B5F 
 2125      54797065 
 2125      00
 2126              	.LASF3:
 2127 0350 73686F72 		.ascii	"short unsigned int\000"
 2127      7420756E 
 2127      7369676E 
 2127      65642069 
 2127      6E7400
 2128              	.LASF60:
 2129 0363 746D7070 		.ascii	"tmppriority\000"
 2129      72696F72 
 2129      69747900 
 2130              	.LASF13:
 2131 036f 696E7433 		.ascii	"int32_t\000"
 2131      325F7400 
 2132              	.LASF41:
 2133 0377 49534152 		.ascii	"ISAR\000"
 2133      00
 2134              	.LASF19:
 2135 037c 49535052 		.ascii	"ISPR\000"
 2135      00
 2136              	.LASF36:
 2137 0381 44465352 		.ascii	"DFSR\000"
 2137      00
 2138              	.LASF51:
 2139 0386 4E564943 		.ascii	"NVIC_IRQChannel\000"
 2139      5F495251 
 2139      4368616E 
 2139      6E656C00 
ARM GAS  /var/folders/m4/4md61f0s1_g0rzfghffqnxvr0000gn/T//ccYgZ2tb.s 			page 41


 2140              	.LASF53:
 2141 0396 4E564943 		.ascii	"NVIC_IRQChannelSubPriority\000"
 2141      5F495251 
 2141      4368616E 
 2141      6E656C53 
 2141      75625072 
 2142              	.LASF35:
 2143 03b1 48465352 		.ascii	"HFSR\000"
 2143      00
 2144              	.LASF17:
 2145 03b6 49434552 		.ascii	"ICER\000"
 2145      00
 2146              	.LASF40:
 2147 03bb 4D4D4652 		.ascii	"MMFR\000"
 2147      00
 2148              	.LASF15:
 2149 03c0 49534552 		.ascii	"ISER\000"
 2149      00
 2150              	.LASF20:
 2151 03c5 52455345 		.ascii	"RESERVED2\000"
 2151      52564544 
 2151      3200
 2152              	.LASF22:
 2153 03cf 52455345 		.ascii	"RESERVED3\000"
 2153      52564544 
 2153      3300
 2154              	.LASF24:
 2155 03d9 52455345 		.ascii	"RESERVED4\000"
 2155      52564544 
 2155      3400
 2156              	.LASF25:
 2157 03e3 52455345 		.ascii	"RESERVED5\000"
 2157      52564544 
 2157      3500
 2158              	.LASF8:
 2159 03ed 6C6F6E67 		.ascii	"long unsigned int\000"
 2159      20756E73 
 2159      69676E65 
 2159      6420696E 
 2159      7400
 2160              	.LASF52:
 2161 03ff 4E564943 		.ascii	"NVIC_IRQChannelPreemptionPriority\000"
 2161      5F495251 
 2161      4368616E 
 2161      6E656C50 
 2161      7265656D 
 2162              	.LASF50:
 2163 0421 46756E63 		.ascii	"FunctionalState\000"
 2163      74696F6E 
 2163      616C5374 
 2163      61746500 
 2164              	.LASF5:
 2165 0431 5F5F696E 		.ascii	"__int32_t\000"
 2165      7433325F 
 2165      7400
 2166              	.LASF63:
 2167 043b 61737365 		.ascii	"assert_param\000"
ARM GAS  /var/folders/m4/4md61f0s1_g0rzfghffqnxvr0000gn/T//ccYgZ2tb.s 			page 42


 2167      72745F70 
 2167      6172616D 
 2167      00
 2168              	.LASF65:
 2169 0448 4E564943 		.ascii	"NVIC_VectTab\000"
 2169      5F566563 
 2169      74546162 
 2169      00
 2170              	.LASF45:
 2171 0455 4C4F4144 		.ascii	"LOAD\000"
 2171      00
 2172              	.LASF39:
 2173 045a 41465352 		.ascii	"AFSR\000"
 2173      00
 2174              	.LASF68:
 2175 045f 4C6F7750 		.ascii	"LowPowerMode\000"
 2175      6F776572 
 2175      4D6F6465 
 2175      00
 2176              	.LASF75:
 2177 046c 49544D5F 		.ascii	"ITM_RxBuffer\000"
 2177      52784275 
 2177      66666572 
 2177      00
 2178              	.LASF42:
 2179 0479 43504143 		.ascii	"CPACR\000"
 2179      5200
 2180              	.LASF49:
 2181 047f 454E4142 		.ascii	"ENABLE\000"
 2181      4C4500
 2182              	.LASF56:
 2183 0486 4E564943 		.ascii	"NVIC_PriorityGroupConfig\000"
 2183      5F507269 
 2183      6F726974 
 2183      7947726F 
 2183      7570436F 
 2184              		.ident	"GCC: (GNU Tools for ARM Embedded Processors) 4.9.3 20150529 (release) [ARM/embedded-4_9-br
ARM GAS  /var/folders/m4/4md61f0s1_g0rzfghffqnxvr0000gn/T//ccYgZ2tb.s 			page 43


DEFINED SYMBOLS
                            *ABS*:0000000000000000 misc.c
/var/folders/m4/4md61f0s1_g0rzfghffqnxvr0000gn/T//ccYgZ2tb.s:21     .text.NVIC_PriorityGroupConfig:0000000000000000 $t
/var/folders/m4/4md61f0s1_g0rzfghffqnxvr0000gn/T//ccYgZ2tb.s:27     .text.NVIC_PriorityGroupConfig:0000000000000000 NVIC_PriorityGroupConfig
/var/folders/m4/4md61f0s1_g0rzfghffqnxvr0000gn/T//ccYgZ2tb.s:75     .text.NVIC_PriorityGroupConfig:0000000000000038 $d
/var/folders/m4/4md61f0s1_g0rzfghffqnxvr0000gn/T//ccYgZ2tb.s:80     .text.NVIC_Init:0000000000000000 $t
/var/folders/m4/4md61f0s1_g0rzfghffqnxvr0000gn/T//ccYgZ2tb.s:86     .text.NVIC_Init:0000000000000000 NVIC_Init
/var/folders/m4/4md61f0s1_g0rzfghffqnxvr0000gn/T//ccYgZ2tb.s:204    .text.NVIC_Init:0000000000000090 $d
/var/folders/m4/4md61f0s1_g0rzfghffqnxvr0000gn/T//ccYgZ2tb.s:210    .text.NVIC_SetVectorTable:0000000000000000 $t
/var/folders/m4/4md61f0s1_g0rzfghffqnxvr0000gn/T//ccYgZ2tb.s:216    .text.NVIC_SetVectorTable:0000000000000000 NVIC_SetVectorTable
/var/folders/m4/4md61f0s1_g0rzfghffqnxvr0000gn/T//ccYgZ2tb.s:265    .text.NVIC_SetVectorTable:000000000000003c $d
/var/folders/m4/4md61f0s1_g0rzfghffqnxvr0000gn/T//ccYgZ2tb.s:271    .text.NVIC_SystemLPConfig:0000000000000000 $t
/var/folders/m4/4md61f0s1_g0rzfghffqnxvr0000gn/T//ccYgZ2tb.s:277    .text.NVIC_SystemLPConfig:0000000000000000 NVIC_SystemLPConfig
/var/folders/m4/4md61f0s1_g0rzfghffqnxvr0000gn/T//ccYgZ2tb.s:341    .text.NVIC_SystemLPConfig:0000000000000040 $d
/var/folders/m4/4md61f0s1_g0rzfghffqnxvr0000gn/T//ccYgZ2tb.s:346    .text.SysTick_CLKSourceConfig:0000000000000000 $t
/var/folders/m4/4md61f0s1_g0rzfghffqnxvr0000gn/T//ccYgZ2tb.s:352    .text.SysTick_CLKSourceConfig:0000000000000000 SysTick_CLKSourceConfig
/var/folders/m4/4md61f0s1_g0rzfghffqnxvr0000gn/T//ccYgZ2tb.s:398    .text.SysTick_CLKSourceConfig:0000000000000030 $d
                     .debug_frame:0000000000000010 $d

UNDEFINED SYMBOLS
assert_param
