ARM GAS  /var/folders/m4/4md61f0s1_g0rzfghffqnxvr0000gn/T//ccmevqMd.s 			page 1


   1              		.syntax unified
   2              		.cpu cortex-m4
   3              		.eabi_attribute 27, 1
   4              		.eabi_attribute 28, 1
   5              		.fpu fpv4-sp-d16
   6              		.eabi_attribute 20, 1
   7              		.eabi_attribute 21, 1
   8              		.eabi_attribute 23, 3
   9              		.eabi_attribute 24, 1
  10              		.eabi_attribute 25, 1
  11              		.eabi_attribute 26, 1
  12              		.eabi_attribute 30, 2
  13              		.eabi_attribute 34, 1
  14              		.eabi_attribute 18, 4
  15              		.thumb
  16              		.file	"nrf24l01.cpp"
  17              		.text
  18              	.Ltext0:
  19              		.cfi_sections	.debug_frame
  20              		.section	.text._ZL14nrfExtCallbackP9EXTDriverm,"ax",%progbits
  21              		.align	2
  22              		.p2align 4,,15
  23              		.thumb
  24              		.thumb_func
  25              		.type	_ZL14nrfExtCallbackP9EXTDriverm, %function
  26              	_ZL14nrfExtCallbackP9EXTDriverm:
  27              	.LFB268:
  28              		.file 1 "nrf24l01.cpp"
  29              		.loc 1 25 0
  30              		.cfi_startproc
  31              		@ args = 0, pretend = 0, frame = 0
  32              		@ frame_needed = 0, uses_anonymous_args = 0
  33              	.LVL0:
  34 0000 08B5     		push	{r3, lr}
  35              		.cfi_def_cfa_offset 8
  36              		.cfi_offset 3, -8
  37              		.cfi_offset 14, -4
  38              	.LBB129:
  39              	.LBB130:
  40              	.LBB131:
  41              	.LBB132:
  42              	.LBB133:
  43              	.LBB134:
  44              	.LBB135:
  45              		.file 2 "ChibiOS_16.1.4/os/ext/CMSIS/include/core_cmFunc.h"
  46              		.loc 2 548 0
  47 0002 2023     		movs	r3, #32
  48              	@ 548 "ChibiOS_16.1.4/os/ext/CMSIS/include/core_cmFunc.h" 1
  49 0004 83F31188 		MSR basepri, r3
  50              	@ 0 "" 2
  51              		.thumb
  52              	.LBE135:
  53              	.LBE134:
  54              	.LBE133:
  55              	.LBE132:
  56              	.LBE131:
  57              		.loc 1 584 0
ARM GAS  /var/folders/m4/4md61f0s1_g0rzfghffqnxvr0000gn/T//ccmevqMd.s 			page 2


  58 0008 0348     		ldr	r0, .L3
  59              	.LVL1:
  60 000a 0121     		movs	r1, #1
  61              	.LVL2:
  62 000c FFF7FEFF 		bl	chEvtBroadcastFlagsI
  63              	.LVL3:
  64              	.LBB136:
  65              	.LBB137:
  66              	.LBB138:
  67              	.LBB139:
  68              	.LBB140:
  69              		.loc 2 548 0
  70 0010 0023     		movs	r3, #0
  71              	@ 548 "ChibiOS_16.1.4/os/ext/CMSIS/include/core_cmFunc.h" 1
  72 0012 83F31188 		MSR basepri, r3
  73              	@ 0 "" 2
  74              		.thumb
  75 0016 08BD     		pop	{r3, pc}
  76              	.L4:
  77              		.align	2
  78              	.L3:
  79 0018 20010000 		.word	.LANCHOR0+288
  80              	.LBE140:
  81              	.LBE139:
  82              	.LBE138:
  83              	.LBE137:
  84              	.LBE136:
  85              	.LBE130:
  86              	.LBE129:
  87              		.cfi_endproc
  88              	.LFE268:
  89              		.size	_ZL14nrfExtCallbackP9EXTDriverm, .-_ZL14nrfExtCallbackP9EXTDriverm
  90              		.section	.text._Z19nrf24l01ReadPayloadP14NRF24L01DriverhPhS1_.part.2,"ax",%progbits
  91              		.align	2
  92              		.p2align 4,,15
  93              		.thumb
  94              		.thumb_func
  95              		.type	_Z19nrf24l01ReadPayloadP14NRF24L01DriverhPhS1_.part.2, %function
  96              	_Z19nrf24l01ReadPayloadP14NRF24L01DriverhPhS1_.part.2:
  97              	.LFB311:
  98              		.loc 1 479 0
  99              		.cfi_startproc
 100              		@ args = 0, pretend = 0, frame = 8
 101              		@ frame_needed = 0, uses_anonymous_args = 0
 102              	.LVL4:
 103 0000 2DE9F041 		push	{r4, r5, r6, r7, r8, lr}
 104              		.cfi_def_cfa_offset 24
 105              		.cfi_offset 4, -24
 106              		.cfi_offset 5, -20
 107              		.cfi_offset 6, -16
 108              		.cfi_offset 7, -12
 109              		.cfi_offset 8, -8
 110              		.cfi_offset 14, -4
 111 0004 82B0     		sub	sp, sp, #8
 112              		.cfi_def_cfa_offset 32
 113              	.LBB141:
 114              		.loc 1 484 0
ARM GAS  /var/folders/m4/4md61f0s1_g0rzfghffqnxvr0000gn/T//ccmevqMd.s 			page 3


 115 0006 02AD     		add	r5, sp, #8
 116 0008 6126     		movs	r6, #97
 117              	.LBE141:
 118              		.loc 1 479 0
 119 000a 0446     		mov	r4, r0
 120              	.LBB142:
 121              		.loc 1 484 0
 122 000c 05F8026D 		strb	r6, [r5, #-2]!
 123              		.loc 1 487 0
 124 0010 D0F82401 		ldr	r0, [r0, #292]
 125              	.LVL5:
 126 0014 0068     		ldr	r0, [r0]
 127              	.LBE142:
 128              		.loc 1 479 0
 129 0016 8846     		mov	r8, r1
 130 0018 1746     		mov	r7, r2
 131 001a 1E46     		mov	r6, r3
 132              	.LBB143:
 133              		.loc 1 487 0
 134 001c FFF7FEFF 		bl	spiSelect
 135              	.LVL6:
 136              		.loc 1 488 0
 137 0020 D4F82431 		ldr	r3, [r4, #292]
 138 0024 2A46     		mov	r2, r5
 139 0026 1868     		ldr	r0, [r3]
 140 0028 0121     		movs	r1, #1
 141 002a 0DF10703 		add	r3, sp, #7
 142 002e FFF7FEFF 		bl	spiExchange
 143              	.LVL7:
 144              		.loc 1 489 0
 145 0032 D4F82431 		ldr	r3, [r4, #292]
 146 0036 4146     		mov	r1, r8
 147 0038 3A46     		mov	r2, r7
 148 003a 1868     		ldr	r0, [r3]
 149 003c FFF7FEFF 		bl	spiReceive
 150              	.LVL8:
 151              		.loc 1 490 0
 152 0040 D4F82431 		ldr	r3, [r4, #292]
 153 0044 1868     		ldr	r0, [r3]
 154 0046 FFF7FEFF 		bl	spiUnselect
 155              	.LVL9:
 156              		.loc 1 492 0
 157 004a 9DF80730 		ldrb	r3, [sp, #7]	@ zero_extendqisi2
 158 004e C3F34203 		ubfx	r3, r3, #1, #3
 159 0052 3370     		strb	r3, [r6]
 160              	.LBE143:
 161              		.loc 1 493 0
 162 0054 02B0     		add	sp, sp, #8
 163              		.cfi_def_cfa_offset 24
 164              		@ sp needed
 165 0056 BDE8F081 		pop	{r4, r5, r6, r7, r8, pc}
 166              		.cfi_endproc
 167              	.LFE311:
 168              		.size	_Z19nrf24l01ReadPayloadP14NRF24L01DriverhPhS1_.part.2, .-_Z19nrf24l01ReadPayloadP14NRF24L01D
 169 005a 00BF     		.section	.text._Z20nrf24l01WritePayloadP14NRF24L01DriverhPKh.part.3,"ax",%progbits
 170              		.align	2
 171              		.p2align 4,,15
ARM GAS  /var/folders/m4/4md61f0s1_g0rzfghffqnxvr0000gn/T//ccmevqMd.s 			page 4


 172              		.thumb
 173              		.thumb_func
 174              		.type	_Z20nrf24l01WritePayloadP14NRF24L01DriverhPKh.part.3, %function
 175              	_Z20nrf24l01WritePayloadP14NRF24L01DriverhPKh.part.3:
 176              	.LFB312:
 177              		.loc 1 495 0
 178              		.cfi_startproc
 179              		@ args = 0, pretend = 0, frame = 8
 180              		@ frame_needed = 0, uses_anonymous_args = 0
 181              	.LVL10:
 182 0000 F0B5     		push	{r4, r5, r6, r7, lr}
 183              		.cfi_def_cfa_offset 20
 184              		.cfi_offset 4, -20
 185              		.cfi_offset 5, -16
 186              		.cfi_offset 6, -12
 187              		.cfi_offset 7, -8
 188              		.cfi_offset 14, -4
 189 0002 83B0     		sub	sp, sp, #12
 190              		.cfi_def_cfa_offset 32
 191              		.loc 1 495 0
 192 0004 0446     		mov	r4, r0
 193              	.LBB144:
 194              		.loc 1 500 0
 195 0006 02AD     		add	r5, sp, #8
 196 0008 A020     		movs	r0, #160
 197              	.LVL11:
 198              		.loc 1 502 0
 199 000a D4F82431 		ldr	r3, [r4, #292]
 200              		.loc 1 500 0
 201 000e 05F8010D 		strb	r0, [r5, #-1]!
 202              		.loc 1 502 0
 203 0012 1868     		ldr	r0, [r3]
 204              	.LBE144:
 205              		.loc 1 495 0
 206 0014 0F46     		mov	r7, r1
 207 0016 1646     		mov	r6, r2
 208              	.LBB145:
 209              		.loc 1 502 0
 210 0018 FFF7FEFF 		bl	spiSelect
 211              	.LVL12:
 212              		.loc 1 503 0
 213 001c D4F82431 		ldr	r3, [r4, #292]
 214 0020 2A46     		mov	r2, r5
 215 0022 1868     		ldr	r0, [r3]
 216 0024 0121     		movs	r1, #1
 217 0026 FFF7FEFF 		bl	spiSend
 218              	.LVL13:
 219              		.loc 1 504 0
 220 002a D4F82431 		ldr	r3, [r4, #292]
 221 002e 3946     		mov	r1, r7
 222 0030 3246     		mov	r2, r6
 223 0032 1868     		ldr	r0, [r3]
 224 0034 FFF7FEFF 		bl	spiSend
 225              	.LVL14:
 226              		.loc 1 505 0
 227 0038 D4F82431 		ldr	r3, [r4, #292]
 228 003c 1868     		ldr	r0, [r3]
ARM GAS  /var/folders/m4/4md61f0s1_g0rzfghffqnxvr0000gn/T//ccmevqMd.s 			page 5


 229 003e FFF7FEFF 		bl	spiUnselect
 230              	.LVL15:
 231              	.LBE145:
 232              		.loc 1 506 0
 233 0042 03B0     		add	sp, sp, #12
 234              		.cfi_def_cfa_offset 20
 235              		@ sp needed
 236 0044 F0BD     		pop	{r4, r5, r6, r7, pc}
 237              		.cfi_endproc
 238              	.LFE312:
 239              		.size	_Z20nrf24l01WritePayloadP14NRF24L01DriverhPKh.part.3, .-_Z20nrf24l01WritePayloadP14NRF24L01D
 240 0046 00BF     		.section	.text._Z18nrf24l01ObjectInitP14NRF24L01Driver,"ax",%progbits
 241              		.align	2
 242              		.p2align 4,,15
 243              		.global	_Z18nrf24l01ObjectInitP14NRF24L01Driver
 244              		.thumb
 245              		.thumb_func
 246              		.type	_Z18nrf24l01ObjectInitP14NRF24L01Driver, %function
 247              	_Z18nrf24l01ObjectInitP14NRF24L01Driver:
 248              	.LFB278:
 249              		.loc 1 311 0
 250              		.cfi_startproc
 251              		@ args = 0, pretend = 0, frame = 0
 252              		@ frame_needed = 0, uses_anonymous_args = 0
 253              		@ link register save eliminated.
 254              	.LVL16:
 255 0000 10B4     		push	{r4}
 256              		.cfi_def_cfa_offset 4
 257              		.cfi_offset 4, -4
 258 0002 0B4C     		ldr	r4, .L14
 259 0004 00F12C03 		add	r3, r0, #44
 260 0008 00F5A671 		add	r1, r0, #332
 261              	.LBB146:
 262              	.LBB147:
 263              		.loc 1 315 0
 264 000c 0022     		movs	r2, #0
 265              	.LVL17:
 266              	.L10:
 267              		.loc 1 314 0 discriminator 3
 268 000e 43F82C4C 		str	r4, [r3, #-44]
 269              		.loc 1 315 0 discriminator 3
 270 0012 03F8042C 		strb	r2, [r3, #-4]
 271              		.loc 1 316 0 discriminator 3
 272 0016 43F8280C 		str	r0, [r3, #-40]
 273              	.LVL18:
 274              	.LBB148:
 275              	.LBB149:
 276              		.file 3 "ChibiOS_16.1.4/os/rt/include/chevents.h"
 277              		.loc 3 172 0 discriminator 3
 278 001a 1B60     		str	r3, [r3]
 279 001c 3033     		adds	r3, r3, #48
 280              	.LVL19:
 281              	.LBE149:
 282              	.LBE148:
 283              		.loc 1 312 0 discriminator 3
 284 001e 8B42     		cmp	r3, r1
 285 0020 F5D1     		bne	.L10
ARM GAS  /var/folders/m4/4md61f0s1_g0rzfghffqnxvr0000gn/T//ccmevqMd.s 			page 6


 286              	.LVL20:
 287              	.LBE147:
 288              		.loc 1 320 0
 289 0022 00F59073 		add	r3, r0, #288
 290              	.LVL21:
 291              	.LBB150:
 292              	.LBB151:
 293              		.loc 3 172 0
 294 0026 C0F82031 		str	r3, [r0, #288]
 295              	.LBE151:
 296              	.LBE150:
 297              	.LBE146:
 298              		.loc 1 321 0
 299 002a 5DF8044B 		ldr	r4, [sp], #4
 300              		.cfi_restore 4
 301              		.cfi_def_cfa_offset 0
 302 002e 7047     		bx	lr
 303              	.L15:
 304              		.align	2
 305              	.L14:
 306 0030 00000000 		.word	.LANCHOR1
 307              		.cfi_endproc
 308              	.LFE278:
 309              		.size	_Z18nrf24l01ObjectInitP14NRF24L01Driver, .-_Z18nrf24l01ObjectInitP14NRF24L01Driver
 310              		.section	.text._Z13nrf24l01StartP14NRF24L01DriverPK14NRF24L01Config,"ax",%progbits
 311              		.align	2
 312              		.p2align 4,,15
 313              		.global	_Z13nrf24l01StartP14NRF24L01DriverPK14NRF24L01Config
 314              		.thumb
 315              		.thumb_func
 316              		.type	_Z13nrf24l01StartP14NRF24L01DriverPK14NRF24L01Config, %function
 317              	_Z13nrf24l01StartP14NRF24L01DriverPK14NRF24L01Config:
 318              	.LFB279:
 319              		.loc 1 324 0
 320              		.cfi_startproc
 321              		@ args = 0, pretend = 0, frame = 0
 322              		@ frame_needed = 0, uses_anonymous_args = 0
 323              		@ link register save eliminated.
 324              	.LVL22:
 325              		.loc 1 325 0
 326 0000 C0F82411 		str	r1, [r0, #292]
 327 0004 7047     		bx	lr
 328              		.cfi_endproc
 329              	.LFE279:
 330              		.size	_Z13nrf24l01StartP14NRF24L01DriverPK14NRF24L01Config, .-_Z13nrf24l01StartP14NRF24L01DriverPK
 331 0006 00BF     		.section	.text._Z21nrf24l01WriteRegisterP14NRF24L01Driverhh,"ax",%progbits
 332              		.align	2
 333              		.p2align 4,,15
 334              		.global	_Z21nrf24l01WriteRegisterP14NRF24L01Driverhh
 335              		.thumb
 336              		.thumb_func
 337              		.type	_Z21nrf24l01WriteRegisterP14NRF24L01Driverhh, %function
 338              	_Z21nrf24l01WriteRegisterP14NRF24L01Driverhh:
 339              	.LFB280:
 340              		.loc 1 329 0
 341              		.cfi_startproc
 342              		@ args = 0, pretend = 0, frame = 8
ARM GAS  /var/folders/m4/4md61f0s1_g0rzfghffqnxvr0000gn/T//ccmevqMd.s 			page 7


 343              		@ frame_needed = 0, uses_anonymous_args = 0
 344              	.LVL23:
 345 0000 10B5     		push	{r4, lr}
 346              		.cfi_def_cfa_offset 8
 347              		.cfi_offset 4, -8
 348              		.cfi_offset 14, -4
 349              	.LBB152:
 350              		.loc 1 330 0
 351 0002 01F01F01 		and	r1, r1, #31
 352              	.LVL24:
 353              	.LBE152:
 354              		.loc 1 329 0
 355 0006 82B0     		sub	sp, sp, #8
 356              		.cfi_def_cfa_offset 16
 357              	.LBB153:
 358              		.loc 1 330 0
 359 0008 41F02001 		orr	r1, r1, #32
 360              		.loc 1 332 0
 361 000c D0F82431 		ldr	r3, [r0, #292]
 362              		.loc 1 330 0
 363 0010 8DF80410 		strb	r1, [sp, #4]
 364              	.LBE153:
 365              		.loc 1 329 0
 366 0014 0446     		mov	r4, r0
 367              	.LBB154:
 368              		.loc 1 330 0
 369 0016 8DF80520 		strb	r2, [sp, #5]
 370              		.loc 1 332 0
 371 001a 1868     		ldr	r0, [r3]
 372              	.LVL25:
 373 001c FFF7FEFF 		bl	spiSelect
 374              	.LVL26:
 375              		.loc 1 333 0
 376 0020 D4F82431 		ldr	r3, [r4, #292]
 377 0024 0221     		movs	r1, #2
 378 0026 1868     		ldr	r0, [r3]
 379 0028 01AA     		add	r2, sp, #4
 380 002a FFF7FEFF 		bl	spiSend
 381              	.LVL27:
 382              		.loc 1 334 0
 383 002e D4F82431 		ldr	r3, [r4, #292]
 384 0032 1868     		ldr	r0, [r3]
 385 0034 FFF7FEFF 		bl	spiUnselect
 386              	.LVL28:
 387              	.LBE154:
 388              		.loc 1 335 0
 389 0038 02B0     		add	sp, sp, #8
 390              		.cfi_def_cfa_offset 8
 391              		@ sp needed
 392 003a 10BD     		pop	{r4, pc}
 393              		.cfi_endproc
 394              	.LFE280:
 395              		.size	_Z21nrf24l01WriteRegisterP14NRF24L01Driverhh, .-_Z21nrf24l01WriteRegisterP14NRF24L01Driverhh
 396              		.section	.text._Z20nrf24l01ReadRegisterP14NRF24L01Driverh,"ax",%progbits
 397              		.align	2
 398              		.p2align 4,,15
 399              		.global	_Z20nrf24l01ReadRegisterP14NRF24L01Driverh
ARM GAS  /var/folders/m4/4md61f0s1_g0rzfghffqnxvr0000gn/T//ccmevqMd.s 			page 8


 400              		.thumb
 401              		.thumb_func
 402              		.type	_Z20nrf24l01ReadRegisterP14NRF24L01Driverh, %function
 403              	_Z20nrf24l01ReadRegisterP14NRF24L01Driverh:
 404              	.LFB281:
 405              		.loc 1 338 0
 406              		.cfi_startproc
 407              		@ args = 0, pretend = 0, frame = 8
 408              		@ frame_needed = 0, uses_anonymous_args = 0
 409              	.LVL29:
 410 0000 10B5     		push	{r4, lr}
 411              		.cfi_def_cfa_offset 8
 412              		.cfi_offset 4, -8
 413              		.cfi_offset 14, -4
 414 0002 82B0     		sub	sp, sp, #8
 415              		.cfi_def_cfa_offset 16
 416              	.LBB155:
 417              		.loc 1 339 0
 418 0004 0023     		movs	r3, #0
 419 0006 01F01F01 		and	r1, r1, #31
 420              	.LVL30:
 421              		.loc 1 342 0
 422 000a D0F82421 		ldr	r2, [r0, #292]
 423              		.loc 1 339 0
 424 000e ADF80030 		strh	r3, [sp]	@ movhi
 425              	.LBE155:
 426              		.loc 1 338 0
 427 0012 0446     		mov	r4, r0
 428              	.LBB156:
 429              		.loc 1 340 0
 430 0014 8DF80430 		strb	r3, [sp, #4]
 431              		.loc 1 339 0
 432 0018 8DF80010 		strb	r1, [sp]
 433              		.loc 1 340 0
 434 001c 8DF80530 		strb	r3, [sp, #5]
 435              		.loc 1 342 0
 436 0020 1068     		ldr	r0, [r2]
 437              	.LVL31:
 438 0022 FFF7FEFF 		bl	spiSelect
 439              	.LVL32:
 440              		.loc 1 343 0
 441 0026 D4F82431 		ldr	r3, [r4, #292]
 442 002a 0221     		movs	r1, #2
 443 002c 1868     		ldr	r0, [r3]
 444 002e 6A46     		mov	r2, sp
 445 0030 01AB     		add	r3, sp, #4
 446 0032 FFF7FEFF 		bl	spiExchange
 447              	.LVL33:
 448              		.loc 1 344 0
 449 0036 D4F82431 		ldr	r3, [r4, #292]
 450 003a 1868     		ldr	r0, [r3]
 451 003c FFF7FEFF 		bl	spiUnselect
 452              	.LVL34:
 453              	.LBE156:
 454              		.loc 1 347 0
 455 0040 9DF80500 		ldrb	r0, [sp, #5]	@ zero_extendqisi2
 456 0044 02B0     		add	sp, sp, #8
ARM GAS  /var/folders/m4/4md61f0s1_g0rzfghffqnxvr0000gn/T//ccmevqMd.s 			page 9


 457              		.cfi_def_cfa_offset 8
 458              		@ sp needed
 459 0046 10BD     		pop	{r4, pc}
 460              		.cfi_endproc
 461              	.LFE281:
 462              		.size	_Z20nrf24l01ReadRegisterP14NRF24L01Driverh, .-_Z20nrf24l01ReadRegisterP14NRF24L01Driverh
 463              		.section	.text._Z28nrf24l01WriteAddressRegisterP14NRF24L01DriverhPKh,"ax",%progbits
 464              		.align	2
 465              		.p2align 4,,15
 466              		.global	_Z28nrf24l01WriteAddressRegisterP14NRF24L01DriverhPKh
 467              		.thumb
 468              		.thumb_func
 469              		.type	_Z28nrf24l01WriteAddressRegisterP14NRF24L01DriverhPKh, %function
 470              	_Z28nrf24l01WriteAddressRegisterP14NRF24L01DriverhPKh:
 471              	.LFB282:
 472              		.loc 1 350 0
 473              		.cfi_startproc
 474              		@ args = 0, pretend = 0, frame = 8
 475              		@ frame_needed = 0, uses_anonymous_args = 0
 476              	.LVL35:
 477 0000 70B5     		push	{r4, r5, r6, lr}
 478              		.cfi_def_cfa_offset 16
 479              		.cfi_offset 4, -16
 480              		.cfi_offset 5, -12
 481              		.cfi_offset 6, -8
 482              		.cfi_offset 14, -4
 483 0002 82B0     		sub	sp, sp, #8
 484              		.cfi_def_cfa_offset 24
 485              	.LBB157:
 486              		.loc 1 351 0
 487 0004 02AD     		add	r5, sp, #8
 488 0006 01F01F01 		and	r1, r1, #31
 489              	.LVL36:
 490 000a 41F02001 		orr	r1, r1, #32
 491 000e 05F8011D 		strb	r1, [r5, #-1]!
 492              		.loc 1 353 0
 493 0012 D0F82431 		ldr	r3, [r0, #292]
 494              	.LBE157:
 495              		.loc 1 350 0
 496 0016 0446     		mov	r4, r0
 497              	.LBB158:
 498              		.loc 1 353 0
 499 0018 1868     		ldr	r0, [r3]
 500              	.LVL37:
 501              	.LBE158:
 502              		.loc 1 350 0
 503 001a 1646     		mov	r6, r2
 504              	.LBB159:
 505              		.loc 1 353 0
 506 001c FFF7FEFF 		bl	spiSelect
 507              	.LVL38:
 508              		.loc 1 354 0
 509 0020 D4F82431 		ldr	r3, [r4, #292]
 510 0024 2A46     		mov	r2, r5
 511 0026 1868     		ldr	r0, [r3]
 512 0028 0121     		movs	r1, #1
 513 002a FFF7FEFF 		bl	spiSend
ARM GAS  /var/folders/m4/4md61f0s1_g0rzfghffqnxvr0000gn/T//ccmevqMd.s 			page 10


 514              	.LVL39:
 515              		.loc 1 355 0
 516 002e D4F82431 		ldr	r3, [r4, #292]
 517 0032 3246     		mov	r2, r6
 518 0034 1868     		ldr	r0, [r3]
 519 0036 0521     		movs	r1, #5
 520 0038 FFF7FEFF 		bl	spiSend
 521              	.LVL40:
 522              		.loc 1 356 0
 523 003c D4F82431 		ldr	r3, [r4, #292]
 524 0040 1868     		ldr	r0, [r3]
 525 0042 FFF7FEFF 		bl	spiUnselect
 526              	.LVL41:
 527              	.LBE159:
 528              		.loc 1 357 0
 529 0046 02B0     		add	sp, sp, #8
 530              		.cfi_def_cfa_offset 16
 531              		@ sp needed
 532 0048 70BD     		pop	{r4, r5, r6, pc}
 533              		.cfi_endproc
 534              	.LFE282:
 535              		.size	_Z28nrf24l01WriteAddressRegisterP14NRF24L01DriverhPKh, .-_Z28nrf24l01WriteAddressRegisterP14
 536 004a 00BF     		.section	.text._Z27nrf24l01ReadAddressRegisterP14NRF24L01DriverhPh,"ax",%progbits
 537              		.align	2
 538              		.p2align 4,,15
 539              		.global	_Z27nrf24l01ReadAddressRegisterP14NRF24L01DriverhPh
 540              		.thumb
 541              		.thumb_func
 542              		.type	_Z27nrf24l01ReadAddressRegisterP14NRF24L01DriverhPh, %function
 543              	_Z27nrf24l01ReadAddressRegisterP14NRF24L01DriverhPh:
 544              	.LFB283:
 545              		.loc 1 360 0
 546              		.cfi_startproc
 547              		@ args = 0, pretend = 0, frame = 8
 548              		@ frame_needed = 0, uses_anonymous_args = 0
 549              	.LVL42:
 550 0000 70B5     		push	{r4, r5, r6, lr}
 551              		.cfi_def_cfa_offset 16
 552              		.cfi_offset 4, -16
 553              		.cfi_offset 5, -12
 554              		.cfi_offset 6, -8
 555              		.cfi_offset 14, -4
 556 0002 82B0     		sub	sp, sp, #8
 557              		.cfi_def_cfa_offset 24
 558              	.LBB160:
 559              		.loc 1 361 0
 560 0004 02AD     		add	r5, sp, #8
 561 0006 01F01F01 		and	r1, r1, #31
 562              	.LVL43:
 563 000a 05F8011D 		strb	r1, [r5, #-1]!
 564              		.loc 1 363 0
 565 000e D0F82431 		ldr	r3, [r0, #292]
 566              	.LBE160:
 567              		.loc 1 360 0
 568 0012 0446     		mov	r4, r0
 569              	.LBB161:
 570              		.loc 1 363 0
ARM GAS  /var/folders/m4/4md61f0s1_g0rzfghffqnxvr0000gn/T//ccmevqMd.s 			page 11


 571 0014 1868     		ldr	r0, [r3]
 572              	.LVL44:
 573              	.LBE161:
 574              		.loc 1 360 0
 575 0016 1646     		mov	r6, r2
 576              	.LBB162:
 577              		.loc 1 363 0
 578 0018 FFF7FEFF 		bl	spiSelect
 579              	.LVL45:
 580              		.loc 1 364 0
 581 001c D4F82431 		ldr	r3, [r4, #292]
 582 0020 2A46     		mov	r2, r5
 583 0022 1868     		ldr	r0, [r3]
 584 0024 0121     		movs	r1, #1
 585 0026 FFF7FEFF 		bl	spiSend
 586              	.LVL46:
 587              		.loc 1 365 0
 588 002a D4F82431 		ldr	r3, [r4, #292]
 589 002e 3246     		mov	r2, r6
 590 0030 1868     		ldr	r0, [r3]
 591 0032 0521     		movs	r1, #5
 592 0034 FFF7FEFF 		bl	spiReceive
 593              	.LVL47:
 594              		.loc 1 366 0
 595 0038 D4F82431 		ldr	r3, [r4, #292]
 596 003c 1868     		ldr	r0, [r3]
 597 003e FFF7FEFF 		bl	spiUnselect
 598              	.LVL48:
 599              	.LBE162:
 600              		.loc 1 367 0
 601 0042 02B0     		add	sp, sp, #8
 602              		.cfi_def_cfa_offset 16
 603              		@ sp needed
 604 0044 70BD     		pop	{r4, r5, r6, pc}
 605              		.cfi_endproc
 606              	.LFE283:
 607              		.size	_Z27nrf24l01ReadAddressRegisterP14NRF24L01DriverhPh, .-_Z27nrf24l01ReadAddressRegisterP14NRF
 608 0046 00BF     		.section	.text._Z17nrf24l01GetStatusP14NRF24L01Driver,"ax",%progbits
 609              		.align	2
 610              		.p2align 4,,15
 611              		.global	_Z17nrf24l01GetStatusP14NRF24L01Driver
 612              		.thumb
 613              		.thumb_func
 614              		.type	_Z17nrf24l01GetStatusP14NRF24L01Driver, %function
 615              	_Z17nrf24l01GetStatusP14NRF24L01Driver:
 616              	.LFB284:
 617              		.loc 1 370 0
 618              		.cfi_startproc
 619              		@ args = 0, pretend = 0, frame = 8
 620              		@ frame_needed = 0, uses_anonymous_args = 0
 621              	.LVL49:
 622 0000 30B5     		push	{r4, r5, lr}
 623              		.cfi_def_cfa_offset 12
 624              		.cfi_offset 4, -12
 625              		.cfi_offset 5, -8
 626              		.cfi_offset 14, -4
 627 0002 83B0     		sub	sp, sp, #12
ARM GAS  /var/folders/m4/4md61f0s1_g0rzfghffqnxvr0000gn/T//ccmevqMd.s 			page 12


 628              		.cfi_def_cfa_offset 24
 629              	.LBB163:
 630              		.loc 1 371 0
 631 0004 02AD     		add	r5, sp, #8
 632 0006 FF22     		movs	r2, #255
 633 0008 05F8022D 		strb	r2, [r5, #-2]!
 634              		.loc 1 374 0
 635 000c D0F82431 		ldr	r3, [r0, #292]
 636              	.LBE163:
 637              		.loc 1 370 0
 638 0010 0446     		mov	r4, r0
 639              	.LBB164:
 640              		.loc 1 374 0
 641 0012 1868     		ldr	r0, [r3]
 642              	.LVL50:
 643 0014 FFF7FEFF 		bl	spiSelect
 644              	.LVL51:
 645              		.loc 1 375 0
 646 0018 D4F82431 		ldr	r3, [r4, #292]
 647 001c 2A46     		mov	r2, r5
 648 001e 1868     		ldr	r0, [r3]
 649 0020 0121     		movs	r1, #1
 650 0022 0DF10703 		add	r3, sp, #7
 651 0026 FFF7FEFF 		bl	spiExchange
 652              	.LVL52:
 653              		.loc 1 376 0
 654 002a D4F82431 		ldr	r3, [r4, #292]
 655 002e 1868     		ldr	r0, [r3]
 656 0030 FFF7FEFF 		bl	spiUnselect
 657              	.LVL53:
 658              	.LBE164:
 659              		.loc 1 379 0
 660 0034 9DF80700 		ldrb	r0, [sp, #7]	@ zero_extendqisi2
 661 0038 03B0     		add	sp, sp, #12
 662              		.cfi_def_cfa_offset 12
 663              		@ sp needed
 664 003a 30BD     		pop	{r4, r5, pc}
 665              		.cfi_endproc
 666              	.LFE284:
 667              		.size	_Z17nrf24l01GetStatusP14NRF24L01Driver, .-_Z17nrf24l01GetStatusP14NRF24L01Driver
 668              		.section	.text._Z15nrf24l01PowerUpP14NRF24L01Driver,"ax",%progbits
 669              		.align	2
 670              		.p2align 4,,15
 671              		.global	_Z15nrf24l01PowerUpP14NRF24L01Driver
 672              		.thumb
 673              		.thumb_func
 674              		.type	_Z15nrf24l01PowerUpP14NRF24L01Driver, %function
 675              	_Z15nrf24l01PowerUpP14NRF24L01Driver:
 676              	.LFB285:
 677              		.loc 1 382 0
 678              		.cfi_startproc
 679              		@ args = 0, pretend = 0, frame = 0
 680              		@ frame_needed = 0, uses_anonymous_args = 0
 681              	.LVL54:
 682 0000 10B5     		push	{r4, lr}
 683              		.cfi_def_cfa_offset 8
 684              		.cfi_offset 4, -8
ARM GAS  /var/folders/m4/4md61f0s1_g0rzfghffqnxvr0000gn/T//ccmevqMd.s 			page 13


 685              		.cfi_offset 14, -4
 686              	.LBB165:
 687              		.loc 1 383 0
 688 0002 0021     		movs	r1, #0
 689              	.LBE165:
 690              		.loc 1 382 0
 691 0004 0446     		mov	r4, r0
 692              	.LBB166:
 693              		.loc 1 383 0
 694 0006 FFF7FEFF 		bl	_Z20nrf24l01ReadRegisterP14NRF24L01Driverh
 695              	.LVL55:
 696              		.loc 1 384 0
 697 000a 40F00202 		orr	r2, r0, #2
 698              		.loc 1 385 0
 699 000e D2B2     		uxtb	r2, r2
 700 0010 2046     		mov	r0, r4
 701              	.LVL56:
 702 0012 0021     		movs	r1, #0
 703              	.LBE166:
 704              		.loc 1 386 0
 705 0014 BDE81040 		pop	{r4, lr}
 706              		.cfi_restore 14
 707              		.cfi_restore 4
 708              		.cfi_def_cfa_offset 0
 709              	.LVL57:
 710              	.LBB167:
 711              		.loc 1 385 0
 712 0018 FFF7FEBF 		b	_Z21nrf24l01WriteRegisterP14NRF24L01Driverhh
 713              	.LVL58:
 714              	.LBE167:
 715              		.cfi_endproc
 716              	.LFE285:
 717              		.size	_Z15nrf24l01PowerUpP14NRF24L01Driver, .-_Z15nrf24l01PowerUpP14NRF24L01Driver
 718              		.section	.text._Z17nrf24l01PowerDownP14NRF24L01Driver,"ax",%progbits
 719              		.align	2
 720              		.p2align 4,,15
 721              		.global	_Z17nrf24l01PowerDownP14NRF24L01Driver
 722              		.thumb
 723              		.thumb_func
 724              		.type	_Z17nrf24l01PowerDownP14NRF24L01Driver, %function
 725              	_Z17nrf24l01PowerDownP14NRF24L01Driver:
 726              	.LFB286:
 727              		.loc 1 389 0
 728              		.cfi_startproc
 729              		@ args = 0, pretend = 0, frame = 0
 730              		@ frame_needed = 0, uses_anonymous_args = 0
 731              	.LVL59:
 732 0000 10B5     		push	{r4, lr}
 733              		.cfi_def_cfa_offset 8
 734              		.cfi_offset 4, -8
 735              		.cfi_offset 14, -4
 736              	.LBB168:
 737              		.loc 1 390 0
 738 0002 0021     		movs	r1, #0
 739              	.LBE168:
 740              		.loc 1 389 0
 741 0004 0446     		mov	r4, r0
ARM GAS  /var/folders/m4/4md61f0s1_g0rzfghffqnxvr0000gn/T//ccmevqMd.s 			page 14


 742              	.LBB169:
 743              		.loc 1 390 0
 744 0006 FFF7FEFF 		bl	_Z20nrf24l01ReadRegisterP14NRF24L01Driverh
 745              	.LVL60:
 746              		.loc 1 392 0
 747 000a 0021     		movs	r1, #0
 748 000c 00F0FD02 		and	r2, r0, #253
 749 0010 2046     		mov	r0, r4
 750              	.LVL61:
 751              	.LBE169:
 752              		.loc 1 393 0
 753 0012 BDE81040 		pop	{r4, lr}
 754              		.cfi_restore 14
 755              		.cfi_restore 4
 756              		.cfi_def_cfa_offset 0
 757              	.LVL62:
 758              	.LBB170:
 759              		.loc 1 392 0
 760 0016 FFF7FEBF 		b	_Z21nrf24l01WriteRegisterP14NRF24L01Driverhh
 761              	.LVL63:
 762              	.LBE170:
 763              		.cfi_endproc
 764              	.LFE286:
 765              		.size	_Z17nrf24l01PowerDownP14NRF24L01Driver, .-_Z17nrf24l01PowerDownP14NRF24L01Driver
 766 001a 00BF     		.section	.text._Z23nrf24l01SetupRetransmitP14NRF24L01Driverhh,"ax",%progbits
 767              		.align	2
 768              		.p2align 4,,15
 769              		.global	_Z23nrf24l01SetupRetransmitP14NRF24L01Driverhh
 770              		.thumb
 771              		.thumb_func
 772              		.type	_Z23nrf24l01SetupRetransmitP14NRF24L01Driverhh, %function
 773              	_Z23nrf24l01SetupRetransmitP14NRF24L01Driverhh:
 774              	.LFB287:
 775              		.loc 1 396 0
 776              		.cfi_startproc
 777              		@ args = 0, pretend = 0, frame = 0
 778              		@ frame_needed = 0, uses_anonymous_args = 0
 779              		@ link register save eliminated.
 780              	.LVL64:
 781              	.LBB171:
 782              		.loc 1 397 0
 783 0000 02F00F02 		and	r2, r2, #15
 784              	.LVL65:
 785 0004 42EA0112 		orr	r2, r2, r1, lsl #4
 786              		.loc 1 398 0
 787 0008 D2B2     		uxtb	r2, r2
 788 000a 0421     		movs	r1, #4
 789              	.LVL66:
 790 000c FFF7FEBF 		b	_Z21nrf24l01WriteRegisterP14NRF24L01Driverhh
 791              	.LVL67:
 792              	.LBE171:
 793              		.cfi_endproc
 794              	.LFE287:
 795              		.size	_Z23nrf24l01SetupRetransmitP14NRF24L01Driverhh, .-_Z23nrf24l01SetupRetransmitP14NRF24L01Driv
 796              		.section	.text._Z18nrf24l01SetChannelP14NRF24L01Driverh,"ax",%progbits
 797              		.align	2
 798              		.p2align 4,,15
ARM GAS  /var/folders/m4/4md61f0s1_g0rzfghffqnxvr0000gn/T//ccmevqMd.s 			page 15


 799              		.global	_Z18nrf24l01SetChannelP14NRF24L01Driverh
 800              		.thumb
 801              		.thumb_func
 802              		.type	_Z18nrf24l01SetChannelP14NRF24L01Driverh, %function
 803              	_Z18nrf24l01SetChannelP14NRF24L01Driverh:
 804              	.LFB288:
 805              		.loc 1 402 0
 806              		.cfi_startproc
 807              		@ args = 0, pretend = 0, frame = 0
 808              		@ frame_needed = 0, uses_anonymous_args = 0
 809              		@ link register save eliminated.
 810              	.LVL68:
 811              	.LBB172:
 812              		.loc 1 404 0
 813 0000 01F07F02 		and	r2, r1, #127
 814 0004 0521     		movs	r1, #5
 815              	.LVL69:
 816 0006 FFF7FEBF 		b	_Z21nrf24l01WriteRegisterP14NRF24L01Driverhh
 817              	.LVL70:
 818              	.LBE172:
 819              		.cfi_endproc
 820              	.LFE288:
 821              		.size	_Z18nrf24l01SetChannelP14NRF24L01Driverh, .-_Z18nrf24l01SetChannelP14NRF24L01Driverh
 822 000a 00BF     		.section	.text._Z16nrf24l01ClearIRQP14NRF24L01Driverh,"ax",%progbits
 823              		.align	2
 824              		.p2align 4,,15
 825              		.global	_Z16nrf24l01ClearIRQP14NRF24L01Driverh
 826              		.thumb
 827              		.thumb_func
 828              		.type	_Z16nrf24l01ClearIRQP14NRF24L01Driverh, %function
 829              	_Z16nrf24l01ClearIRQP14NRF24L01Driverh:
 830              	.LFB289:
 831              		.loc 1 408 0
 832              		.cfi_startproc
 833              		@ args = 0, pretend = 0, frame = 0
 834              		@ frame_needed = 0, uses_anonymous_args = 0
 835              		@ link register save eliminated.
 836              	.LVL71:
 837              		.loc 1 409 0
 838 0000 01F07002 		and	r2, r1, #112
 839 0004 0721     		movs	r1, #7
 840              	.LVL72:
 841 0006 FFF7FEBF 		b	_Z21nrf24l01WriteRegisterP14NRF24L01Driverhh
 842              	.LVL73:
 843              		.cfi_endproc
 844              	.LFE289:
 845              		.size	_Z16nrf24l01ClearIRQP14NRF24L01Driverh, .-_Z16nrf24l01ClearIRQP14NRF24L01Driverh
 846 000a 00BF     		.section	.text._Z20nrf24l01SetRXAddressP14NRF24L01DriverhPKh,"ax",%progbits
 847              		.align	2
 848              		.p2align 4,,15
 849              		.global	_Z20nrf24l01SetRXAddressP14NRF24L01DriverhPKh
 850              		.thumb
 851              		.thumb_func
 852              		.type	_Z20nrf24l01SetRXAddressP14NRF24L01DriverhPKh, %function
 853              	_Z20nrf24l01SetRXAddressP14NRF24L01DriverhPKh:
 854              	.LFB290:
 855              		.loc 1 413 0
ARM GAS  /var/folders/m4/4md61f0s1_g0rzfghffqnxvr0000gn/T//ccmevqMd.s 			page 16


 856              		.cfi_startproc
 857              		@ args = 0, pretend = 0, frame = 0
 858              		@ frame_needed = 0, uses_anonymous_args = 0
 859              	.LVL74:
 860 0000 70B5     		push	{r4, r5, r6, lr}
 861              		.cfi_def_cfa_offset 16
 862              		.cfi_offset 4, -16
 863              		.cfi_offset 5, -12
 864              		.cfi_offset 6, -8
 865              		.cfi_offset 14, -4
 866              		.loc 1 413 0
 867 0002 0C46     		mov	r4, r1
 868 0004 1546     		mov	r5, r2
 869              		.loc 1 414 0
 870 0006 0321     		movs	r1, #3
 871              	.LVL75:
 872 0008 8022     		movs	r2, #128
 873              	.LVL76:
 874              		.loc 1 413 0
 875 000a 0646     		mov	r6, r0
 876              		.loc 1 414 0
 877 000c FFF7FEFF 		bl	_Z21nrf24l01WriteRegisterP14NRF24L01Driverhh
 878              	.LVL77:
 879              		.loc 1 415 0
 880 0010 012C     		cmp	r4, #1
 881 0012 0CD9     		bls	.L38
 882              		.loc 1 417 0
 883 0014 E31E     		subs	r3, r4, #3
 884 0016 022B     		cmp	r3, #2
 885 0018 00D9     		bls	.L39
 886 001a 70BD     		pop	{r4, r5, r6, pc}
 887              	.LVL78:
 888              	.L39:
 889              	.LBB175:
 890              	.LBB176:
 891              		.loc 1 418 0
 892 001c 04F10A01 		add	r1, r4, #10
 893 0020 3046     		mov	r0, r6
 894 0022 2A78     		ldrb	r2, [r5]	@ zero_extendqisi2
 895 0024 C9B2     		uxtb	r1, r1
 896              	.LBE176:
 897              	.LBE175:
 898              		.loc 1 419 0
 899 0026 BDE87040 		pop	{r4, r5, r6, lr}
 900              		.cfi_remember_state
 901              		.cfi_restore 14
 902              		.cfi_restore 6
 903              		.cfi_restore 5
 904              		.cfi_restore 4
 905              		.cfi_def_cfa_offset 0
 906              	.LVL79:
 907              	.LBB178:
 908              	.LBB177:
 909              		.loc 1 418 0
 910 002a FFF7FEBF 		b	_Z21nrf24l01WriteRegisterP14NRF24L01Driverhh
 911              	.LVL80:
 912              	.L38:
ARM GAS  /var/folders/m4/4md61f0s1_g0rzfghffqnxvr0000gn/T//ccmevqMd.s 			page 17


 913              		.cfi_restore_state
 914              	.LBE177:
 915              	.LBE178:
 916              		.loc 1 416 0
 917 002e 04F10A01 		add	r1, r4, #10
 918 0032 3046     		mov	r0, r6
 919 0034 2A46     		mov	r2, r5
 920 0036 C9B2     		uxtb	r1, r1
 921              		.loc 1 419 0
 922 0038 BDE87040 		pop	{r4, r5, r6, lr}
 923              		.cfi_restore 14
 924              		.cfi_restore 6
 925              		.cfi_restore 5
 926              		.cfi_restore 4
 927              		.cfi_def_cfa_offset 0
 928              	.LVL81:
 929              		.loc 1 416 0
 930 003c FFF7FEBF 		b	_Z28nrf24l01WriteAddressRegisterP14NRF24L01DriverhPKh
 931              	.LVL82:
 932              		.cfi_endproc
 933              	.LFE290:
 934              		.size	_Z20nrf24l01SetRXAddressP14NRF24L01DriverhPKh, .-_Z20nrf24l01SetRXAddressP14NRF24L01DriverhP
 935              		.section	.text._Z20nrf24l01SetTXAddressP14NRF24L01DriverPKh,"ax",%progbits
 936              		.align	2
 937              		.p2align 4,,15
 938              		.global	_Z20nrf24l01SetTXAddressP14NRF24L01DriverPKh
 939              		.thumb
 940              		.thumb_func
 941              		.type	_Z20nrf24l01SetTXAddressP14NRF24L01DriverPKh, %function
 942              	_Z20nrf24l01SetTXAddressP14NRF24L01DriverPKh:
 943              	.LFB291:
 944              		.loc 1 422 0
 945              		.cfi_startproc
 946              		@ args = 0, pretend = 0, frame = 0
 947              		@ frame_needed = 0, uses_anonymous_args = 0
 948              	.LVL83:
 949 0000 38B5     		push	{r3, r4, r5, lr}
 950              		.cfi_def_cfa_offset 16
 951              		.cfi_offset 3, -16
 952              		.cfi_offset 4, -12
 953              		.cfi_offset 5, -8
 954              		.cfi_offset 14, -4
 955              		.loc 1 423 0
 956 0002 8022     		movs	r2, #128
 957              		.loc 1 422 0
 958 0004 0C46     		mov	r4, r1
 959 0006 0546     		mov	r5, r0
 960              		.loc 1 423 0
 961 0008 0321     		movs	r1, #3
 962              	.LVL84:
 963 000a FFF7FEFF 		bl	_Z21nrf24l01WriteRegisterP14NRF24L01Driverhh
 964              	.LVL85:
 965              		.loc 1 424 0
 966 000e 2846     		mov	r0, r5
 967 0010 2246     		mov	r2, r4
 968 0012 1021     		movs	r1, #16
 969              		.loc 1 425 0
ARM GAS  /var/folders/m4/4md61f0s1_g0rzfghffqnxvr0000gn/T//ccmevqMd.s 			page 18


 970 0014 BDE83840 		pop	{r3, r4, r5, lr}
 971              		.cfi_restore 14
 972              		.cfi_restore 5
 973              		.cfi_restore 4
 974              		.cfi_restore 3
 975              		.cfi_def_cfa_offset 0
 976              	.LVL86:
 977              		.loc 1 424 0
 978 0018 FFF7FEBF 		b	_Z28nrf24l01WriteAddressRegisterP14NRF24L01DriverhPKh
 979              	.LVL87:
 980              		.cfi_endproc
 981              	.LFE291:
 982              		.size	_Z20nrf24l01SetTXAddressP14NRF24L01DriverPKh, .-_Z20nrf24l01SetTXAddressP14NRF24L01DriverPKh
 983              		.section	.text._Z22nrf24l01SetPayloadSizeP14NRF24L01Driverhh,"ax",%progbits
 984              		.align	2
 985              		.p2align 4,,15
 986              		.global	_Z22nrf24l01SetPayloadSizeP14NRF24L01Driverhh
 987              		.thumb
 988              		.thumb_func
 989              		.type	_Z22nrf24l01SetPayloadSizeP14NRF24L01Driverhh, %function
 990              	_Z22nrf24l01SetPayloadSizeP14NRF24L01Driverhh:
 991              	.LFB292:
 992              		.loc 1 428 0
 993              		.cfi_startproc
 994              		@ args = 0, pretend = 0, frame = 0
 995              		@ frame_needed = 0, uses_anonymous_args = 0
 996              		@ link register save eliminated.
 997              	.LVL88:
 998              		.loc 1 429 0
 999 0000 0529     		cmp	r1, #5
 1000 0002 01D8     		bhi	.L42
 1001              	.LVL89:
 1002              	.LBB181:
 1003              	.LBB182:
 1004 0004 202A     		cmp	r2, #32
 1005 0006 00D9     		bls	.L44
 1006              	.LVL90:
 1007              	.L42:
 1008 0008 7047     		bx	lr
 1009              	.LVL91:
 1010              	.L44:
 1011              		.loc 1 432 0
 1012 000a 1131     		adds	r1, r1, #17
 1013              	.LVL92:
 1014 000c C9B2     		uxtb	r1, r1
 1015 000e FFF7FEBF 		b	_Z21nrf24l01WriteRegisterP14NRF24L01Driverhh
 1016              	.LVL93:
 1017              	.LBE182:
 1018              	.LBE181:
 1019              		.cfi_endproc
 1020              	.LFE292:
 1021              		.size	_Z22nrf24l01SetPayloadSizeP14NRF24L01Driverhh, .-_Z22nrf24l01SetPayloadSizeP14NRF24L01Driver
 1022 0012 00BF     		.section	.text._Z21nrf24l01GetFIFOStatusP14NRF24L01Driver,"ax",%progbits
 1023              		.align	2
 1024              		.p2align 4,,15
 1025              		.global	_Z21nrf24l01GetFIFOStatusP14NRF24L01Driver
 1026              		.thumb
ARM GAS  /var/folders/m4/4md61f0s1_g0rzfghffqnxvr0000gn/T//ccmevqMd.s 			page 19


 1027              		.thumb_func
 1028              		.type	_Z21nrf24l01GetFIFOStatusP14NRF24L01Driver, %function
 1029              	_Z21nrf24l01GetFIFOStatusP14NRF24L01Driver:
 1030              	.LFB293:
 1031              		.loc 1 436 0
 1032              		.cfi_startproc
 1033              		@ args = 0, pretend = 0, frame = 0
 1034              		@ frame_needed = 0, uses_anonymous_args = 0
 1035              		@ link register save eliminated.
 1036              	.LVL94:
 1037              		.loc 1 437 0
 1038 0000 1721     		movs	r1, #23
 1039 0002 FFF7FEBF 		b	_Z20nrf24l01ReadRegisterP14NRF24L01Driverh
 1040              	.LVL95:
 1041              		.cfi_endproc
 1042              	.LFE293:
 1043              		.size	_Z21nrf24l01GetFIFOStatusP14NRF24L01Driver, .-_Z21nrf24l01GetFIFOStatusP14NRF24L01Driver
 1044 0006 00BF     		.section	.text._Z29nrf24l01EnableDynamicPipeSizeP14NRF24L01Driverh,"ax",%progbits
 1045              		.align	2
 1046              		.p2align 4,,15
 1047              		.global	_Z29nrf24l01EnableDynamicPipeSizeP14NRF24L01Driverh
 1048              		.thumb
 1049              		.thumb_func
 1050              		.type	_Z29nrf24l01EnableDynamicPipeSizeP14NRF24L01Driverh, %function
 1051              	_Z29nrf24l01EnableDynamicPipeSizeP14NRF24L01Driverh:
 1052              	.LFB295:
 1053              		.loc 1 459 0
 1054              		.cfi_startproc
 1055              		@ args = 0, pretend = 0, frame = 0
 1056              		@ frame_needed = 0, uses_anonymous_args = 0
 1057              	.LVL96:
 1058 0000 38B5     		push	{r3, r4, r5, lr}
 1059              		.cfi_def_cfa_offset 16
 1060              		.cfi_offset 3, -16
 1061              		.cfi_offset 4, -12
 1062              		.cfi_offset 5, -8
 1063              		.cfi_offset 14, -4
 1064              		.loc 1 459 0
 1065 0002 0C46     		mov	r4, r1
 1066              	.LBB183:
 1067              		.loc 1 460 0
 1068 0004 1C21     		movs	r1, #28
 1069              	.LVL97:
 1070              	.LBE183:
 1071              		.loc 1 459 0
 1072 0006 0546     		mov	r5, r0
 1073              	.LBB184:
 1074              		.loc 1 460 0
 1075 0008 FFF7FEFF 		bl	_Z20nrf24l01ReadRegisterP14NRF24L01Driverh
 1076              	.LVL98:
 1077              		.loc 1 461 0
 1078 000c 04F03F04 		and	r4, r4, #63
 1079 0010 40EA0402 		orr	r2, r0, r4
 1080              	.LVL99:
 1081              		.loc 1 462 0
 1082 0014 D2B2     		uxtb	r2, r2
 1083 0016 2846     		mov	r0, r5
ARM GAS  /var/folders/m4/4md61f0s1_g0rzfghffqnxvr0000gn/T//ccmevqMd.s 			page 20


 1084 0018 1C21     		movs	r1, #28
 1085              	.LBE184:
 1086              		.loc 1 463 0
 1087 001a BDE83840 		pop	{r3, r4, r5, lr}
 1088              		.cfi_restore 14
 1089              		.cfi_restore 5
 1090              		.cfi_restore 4
 1091              		.cfi_restore 3
 1092              		.cfi_def_cfa_offset 0
 1093              	.LVL100:
 1094              	.LBB185:
 1095              		.loc 1 462 0
 1096 001e FFF7FEBF 		b	_Z21nrf24l01WriteRegisterP14NRF24L01Driverhh
 1097              	.LVL101:
 1098              	.LBE185:
 1099              		.cfi_endproc
 1100              	.LFE295:
 1101              		.size	_Z29nrf24l01EnableDynamicPipeSizeP14NRF24L01Driverh, .-_Z29nrf24l01EnableDynamicPipeSizeP14N
 1102 0022 00BF     		.section	.text._Z26nrf24l01DisableDynamicSizeP14NRF24L01Driver,"ax",%progbits
 1103              		.align	2
 1104              		.p2align 4,,15
 1105              		.global	_Z26nrf24l01DisableDynamicSizeP14NRF24L01Driver
 1106              		.thumb
 1107              		.thumb_func
 1108              		.type	_Z26nrf24l01DisableDynamicSizeP14NRF24L01Driver, %function
 1109              	_Z26nrf24l01DisableDynamicSizeP14NRF24L01Driver:
 1110              	.LFB296:
 1111              		.loc 1 466 0
 1112              		.cfi_startproc
 1113              		@ args = 0, pretend = 0, frame = 0
 1114              		@ frame_needed = 0, uses_anonymous_args = 0
 1115              	.LVL102:
 1116 0000 10B5     		push	{r4, lr}
 1117              		.cfi_def_cfa_offset 8
 1118              		.cfi_offset 4, -8
 1119              		.cfi_offset 14, -4
 1120              	.LBB186:
 1121              		.loc 1 467 0
 1122 0002 1D21     		movs	r1, #29
 1123              	.LBE186:
 1124              		.loc 1 466 0
 1125 0004 0446     		mov	r4, r0
 1126              	.LBB187:
 1127              		.loc 1 467 0
 1128 0006 FFF7FEFF 		bl	_Z20nrf24l01ReadRegisterP14NRF24L01Driverh
 1129              	.LVL103:
 1130              		.loc 1 469 0
 1131 000a 1D21     		movs	r1, #29
 1132 000c 00F0FB02 		and	r2, r0, #251
 1133 0010 2046     		mov	r0, r4
 1134              	.LVL104:
 1135              	.LBE187:
 1136              		.loc 1 470 0
 1137 0012 BDE81040 		pop	{r4, lr}
 1138              		.cfi_restore 14
 1139              		.cfi_restore 4
 1140              		.cfi_def_cfa_offset 0
ARM GAS  /var/folders/m4/4md61f0s1_g0rzfghffqnxvr0000gn/T//ccmevqMd.s 			page 21


 1141              	.LVL105:
 1142              	.LBB188:
 1143              		.loc 1 469 0
 1144 0016 FFF7FEBF 		b	_Z21nrf24l01WriteRegisterP14NRF24L01Driverhh
 1145              	.LVL106:
 1146              	.LBE188:
 1147              		.cfi_endproc
 1148              	.LFE296:
 1149              		.size	_Z26nrf24l01DisableDynamicSizeP14NRF24L01Driver, .-_Z26nrf24l01DisableDynamicSizeP14NRF24L01
 1150 001a 00BF     		.section	.text._Z30nrf24l01DisableDynamicPipeSizeP14NRF24L01Driverh,"ax",%progbits
 1151              		.align	2
 1152              		.p2align 4,,15
 1153              		.global	_Z30nrf24l01DisableDynamicPipeSizeP14NRF24L01Driverh
 1154              		.thumb
 1155              		.thumb_func
 1156              		.type	_Z30nrf24l01DisableDynamicPipeSizeP14NRF24L01Driverh, %function
 1157              	_Z30nrf24l01DisableDynamicPipeSizeP14NRF24L01Driverh:
 1158              	.LFB297:
 1159              		.loc 1 473 0
 1160              		.cfi_startproc
 1161              		@ args = 0, pretend = 0, frame = 0
 1162              		@ frame_needed = 0, uses_anonymous_args = 0
 1163              	.LVL107:
 1164 0000 38B5     		push	{r3, r4, r5, lr}
 1165              		.cfi_def_cfa_offset 16
 1166              		.cfi_offset 3, -16
 1167              		.cfi_offset 4, -12
 1168              		.cfi_offset 5, -8
 1169              		.cfi_offset 14, -4
 1170              		.loc 1 473 0
 1171 0002 0C46     		mov	r4, r1
 1172              	.LBB189:
 1173              		.loc 1 474 0
 1174 0004 1C21     		movs	r1, #28
 1175              	.LVL108:
 1176              	.LBE189:
 1177              		.loc 1 473 0
 1178 0006 0546     		mov	r5, r0
 1179              	.LBB190:
 1180              		.loc 1 474 0
 1181 0008 FFF7FEFF 		bl	_Z20nrf24l01ReadRegisterP14NRF24L01Driverh
 1182              	.LVL109:
 1183              		.loc 1 475 0
 1184 000c 04F03F04 		and	r4, r4, #63
 1185 0010 20EA0402 		bic	r2, r0, r4
 1186              	.LVL110:
 1187              		.loc 1 476 0
 1188 0014 D2B2     		uxtb	r2, r2
 1189 0016 2846     		mov	r0, r5
 1190 0018 1C21     		movs	r1, #28
 1191              	.LBE190:
 1192              		.loc 1 477 0
 1193 001a BDE83840 		pop	{r3, r4, r5, lr}
 1194              		.cfi_restore 14
 1195              		.cfi_restore 5
 1196              		.cfi_restore 4
 1197              		.cfi_restore 3
ARM GAS  /var/folders/m4/4md61f0s1_g0rzfghffqnxvr0000gn/T//ccmevqMd.s 			page 22


 1198              		.cfi_def_cfa_offset 0
 1199              	.LVL111:
 1200              	.LBB191:
 1201              		.loc 1 476 0
 1202 001e FFF7FEBF 		b	_Z21nrf24l01WriteRegisterP14NRF24L01Driverhh
 1203              	.LVL112:
 1204              	.LBE191:
 1205              		.cfi_endproc
 1206              	.LFE297:
 1207              		.size	_Z30nrf24l01DisableDynamicPipeSizeP14NRF24L01Driverh, .-_Z30nrf24l01DisableDynamicPipeSizeP1
 1208 0022 00BF     		.section	.text._Z19nrf24l01ReadPayloadP14NRF24L01DriverhPhS1_,"ax",%progbits
 1209              		.align	2
 1210              		.p2align 4,,15
 1211              		.global	_Z19nrf24l01ReadPayloadP14NRF24L01DriverhPhS1_
 1212              		.thumb
 1213              		.thumb_func
 1214              		.type	_Z19nrf24l01ReadPayloadP14NRF24L01DriverhPhS1_, %function
 1215              	_Z19nrf24l01ReadPayloadP14NRF24L01DriverhPhS1_:
 1216              	.LFB298:
 1217              		.loc 1 480 0
 1218              		.cfi_startproc
 1219              		@ args = 0, pretend = 0, frame = 0
 1220              		@ frame_needed = 0, uses_anonymous_args = 0
 1221              		@ link register save eliminated.
 1222              	.LVL113:
 1223              	.LBB192:
 1224              		.loc 1 481 0
 1225 0000 2029     		cmp	r1, #32
 1226 0002 00D9     		bls	.L54
 1227 0004 7047     		bx	lr
 1228              	.L54:
 1229              	.LBE192:
 1230 0006 FFF7FEBF 		b	_Z19nrf24l01ReadPayloadP14NRF24L01DriverhPhS1_.part.2
 1231              	.LVL114:
 1232              		.cfi_endproc
 1233              	.LFE298:
 1234              		.size	_Z19nrf24l01ReadPayloadP14NRF24L01DriverhPhS1_, .-_Z19nrf24l01ReadPayloadP14NRF24L01DriverhP
 1235 000a 00BF     		.section	.text._Z20nrf24l01WritePayloadP14NRF24L01DriverhPKh,"ax",%progbits
 1236              		.align	2
 1237              		.p2align 4,,15
 1238              		.global	_Z20nrf24l01WritePayloadP14NRF24L01DriverhPKh
 1239              		.thumb
 1240              		.thumb_func
 1241              		.type	_Z20nrf24l01WritePayloadP14NRF24L01DriverhPKh, %function
 1242              	_Z20nrf24l01WritePayloadP14NRF24L01DriverhPKh:
 1243              	.LFB299:
 1244              		.loc 1 496 0
 1245              		.cfi_startproc
 1246              		@ args = 0, pretend = 0, frame = 0
 1247              		@ frame_needed = 0, uses_anonymous_args = 0
 1248              		@ link register save eliminated.
 1249              	.LVL115:
 1250              	.LBB193:
 1251              		.loc 1 497 0
 1252 0000 2029     		cmp	r1, #32
 1253 0002 00D9     		bls	.L57
 1254 0004 7047     		bx	lr
ARM GAS  /var/folders/m4/4md61f0s1_g0rzfghffqnxvr0000gn/T//ccmevqMd.s 			page 23


 1255              	.L57:
 1256              	.LBE193:
 1257 0006 FFF7FEBF 		b	_Z20nrf24l01WritePayloadP14NRF24L01DriverhPKh.part.3
 1258              	.LVL116:
 1259              		.cfi_endproc
 1260              	.LFE299:
 1261              		.size	_Z20nrf24l01WritePayloadP14NRF24L01DriverhPKh, .-_Z20nrf24l01WritePayloadP14NRF24L01DriverhP
 1262 000a 00BF     		.section	.text._Z22nrf24l01ToggleFeaturesP14NRF24L01Driver,"ax",%progbits
 1263              		.align	2
 1264              		.p2align 4,,15
 1265              		.global	_Z22nrf24l01ToggleFeaturesP14NRF24L01Driver
 1266              		.thumb
 1267              		.thumb_func
 1268              		.type	_Z22nrf24l01ToggleFeaturesP14NRF24L01Driver, %function
 1269              	_Z22nrf24l01ToggleFeaturesP14NRF24L01Driver:
 1270              	.LFB300:
 1271              		.loc 1 509 0
 1272              		.cfi_startproc
 1273              		@ args = 0, pretend = 0, frame = 8
 1274              		@ frame_needed = 0, uses_anonymous_args = 0
 1275              	.LVL117:
 1276 0000 10B5     		push	{r4, lr}
 1277              		.cfi_def_cfa_offset 8
 1278              		.cfi_offset 4, -8
 1279              		.cfi_offset 14, -4
 1280              	.LBB194:
 1281              		.loc 1 510 0
 1282 0002 0C4A     		ldr	r2, .L60
 1283              		.loc 1 512 0
 1284 0004 D0F82431 		ldr	r3, [r0, #292]
 1285              		.loc 1 510 0
 1286 0008 1288     		ldrh	r2, [r2]	@ unaligned
 1287              	.LBE194:
 1288              		.loc 1 509 0
 1289 000a 82B0     		sub	sp, sp, #8
 1290              		.cfi_def_cfa_offset 16
 1291              		.loc 1 509 0
 1292 000c 0446     		mov	r4, r0
 1293              	.LBB195:
 1294              		.loc 1 510 0
 1295 000e ADF80420 		strh	r2, [sp, #4]	@ unaligned
 1296              		.loc 1 512 0
 1297 0012 1868     		ldr	r0, [r3]
 1298              	.LVL118:
 1299 0014 FFF7FEFF 		bl	spiSelect
 1300              	.LVL119:
 1301              		.loc 1 513 0
 1302 0018 D4F82431 		ldr	r3, [r4, #292]
 1303 001c 01AA     		add	r2, sp, #4
 1304 001e 1868     		ldr	r0, [r3]
 1305 0020 0221     		movs	r1, #2
 1306 0022 FFF7FEFF 		bl	spiSend
 1307              	.LVL120:
 1308              		.loc 1 514 0
 1309 0026 D4F82431 		ldr	r3, [r4, #292]
 1310 002a 1868     		ldr	r0, [r3]
 1311 002c FFF7FEFF 		bl	spiUnselect
ARM GAS  /var/folders/m4/4md61f0s1_g0rzfghffqnxvr0000gn/T//ccmevqMd.s 			page 24


 1312              	.LVL121:
 1313              	.LBE195:
 1314              		.loc 1 515 0
 1315 0030 02B0     		add	sp, sp, #8
 1316              		.cfi_def_cfa_offset 8
 1317              		@ sp needed
 1318 0032 10BD     		pop	{r4, pc}
 1319              	.LVL122:
 1320              	.L61:
 1321              		.align	2
 1322              	.L60:
 1323 0034 00000000 		.word	.LANCHOR2
 1324              		.cfi_endproc
 1325              	.LFE300:
 1326              		.size	_Z22nrf24l01ToggleFeaturesP14NRF24L01Driver, .-_Z22nrf24l01ToggleFeaturesP14NRF24L01Driver
 1327              		.section	.text._Z25nrf24l01EnableDynamicSizeP14NRF24L01Driver,"ax",%progbits
 1328              		.align	2
 1329              		.p2align 4,,15
 1330              		.global	_Z25nrf24l01EnableDynamicSizeP14NRF24L01Driver
 1331              		.thumb
 1332              		.thumb_func
 1333              		.type	_Z25nrf24l01EnableDynamicSizeP14NRF24L01Driver, %function
 1334              	_Z25nrf24l01EnableDynamicSizeP14NRF24L01Driver:
 1335              	.LFB294:
 1336              		.loc 1 441 0
 1337              		.cfi_startproc
 1338              		@ args = 0, pretend = 0, frame = 0
 1339              		@ frame_needed = 0, uses_anonymous_args = 0
 1340              	.LVL123:
 1341 0000 38B5     		push	{r3, r4, r5, lr}
 1342              		.cfi_def_cfa_offset 16
 1343              		.cfi_offset 3, -16
 1344              		.cfi_offset 4, -12
 1345              		.cfi_offset 5, -8
 1346              		.cfi_offset 14, -4
 1347              	.LBB196:
 1348              		.loc 1 442 0
 1349 0002 1D21     		movs	r1, #29
 1350              	.LBE196:
 1351              		.loc 1 441 0
 1352 0004 0446     		mov	r4, r0
 1353              	.LBB197:
 1354              		.loc 1 442 0
 1355 0006 FFF7FEFF 		bl	_Z20nrf24l01ReadRegisterP14NRF24L01Driverh
 1356              	.LVL124:
 1357              		.loc 1 444 0
 1358 000a 4207     		lsls	r2, r0, #29
 1359 000c 00D5     		bpl	.L67
 1360              	.L62:
 1361 000e 38BD     		pop	{r3, r4, r5, pc}
 1362              	.LVL125:
 1363              	.L67:
 1364              		.loc 1 447 0
 1365 0010 40F00402 		orr	r2, r0, #4
 1366              		.loc 1 448 0
 1367 0014 D2B2     		uxtb	r2, r2
 1368 0016 2046     		mov	r0, r4
ARM GAS  /var/folders/m4/4md61f0s1_g0rzfghffqnxvr0000gn/T//ccmevqMd.s 			page 25


 1369              	.LVL126:
 1370 0018 1D21     		movs	r1, #29
 1371 001a FFF7FEFF 		bl	_Z21nrf24l01WriteRegisterP14NRF24L01Driverhh
 1372              	.LVL127:
 1373              		.loc 1 450 0
 1374 001e 2046     		mov	r0, r4
 1375 0020 1D21     		movs	r1, #29
 1376 0022 FFF7FEFF 		bl	_Z20nrf24l01ReadRegisterP14NRF24L01Driverh
 1377              	.LVL128:
 1378              		.loc 1 451 0
 1379 0026 4307     		lsls	r3, r0, #29
 1380              		.loc 1 450 0
 1381 0028 0546     		mov	r5, r0
 1382              	.LVL129:
 1383              		.loc 1 451 0
 1384 002a F0D4     		bmi	.L62
 1385              		.loc 1 453 0
 1386 002c 2046     		mov	r0, r4
 1387              	.LVL130:
 1388 002e FFF7FEFF 		bl	_Z22nrf24l01ToggleFeaturesP14NRF24L01Driver
 1389              	.LVL131:
 1390              		.loc 1 454 0
 1391 0032 2046     		mov	r0, r4
 1392 0034 2A46     		mov	r2, r5
 1393 0036 1D21     		movs	r1, #29
 1394              	.LBE197:
 1395              		.loc 1 456 0
 1396 0038 BDE83840 		pop	{r3, r4, r5, lr}
 1397              		.cfi_restore 14
 1398              		.cfi_restore 5
 1399              		.cfi_restore 4
 1400              		.cfi_restore 3
 1401              		.cfi_def_cfa_offset 0
 1402              	.LVL132:
 1403              	.LBB198:
 1404              		.loc 1 454 0
 1405 003c FFF7FEBF 		b	_Z21nrf24l01WriteRegisterP14NRF24L01Driverhh
 1406              	.LVL133:
 1407              	.LBE198:
 1408              		.cfi_endproc
 1409              	.LFE294:
 1410              		.size	_Z25nrf24l01EnableDynamicSizeP14NRF24L01Driver, .-_Z25nrf24l01EnableDynamicSizeP14NRF24L01Dr
 1411              		.section	.text._Z15nrf24l01FlushRXP14NRF24L01Driver,"ax",%progbits
 1412              		.align	2
 1413              		.p2align 4,,15
 1414              		.global	_Z15nrf24l01FlushRXP14NRF24L01Driver
 1415              		.thumb
 1416              		.thumb_func
 1417              		.type	_Z15nrf24l01FlushRXP14NRF24L01Driver, %function
 1418              	_Z15nrf24l01FlushRXP14NRF24L01Driver:
 1419              	.LFB301:
 1420              		.loc 1 518 0
 1421              		.cfi_startproc
 1422              		@ args = 0, pretend = 0, frame = 8
 1423              		@ frame_needed = 0, uses_anonymous_args = 0
 1424              	.LVL134:
 1425 0000 30B5     		push	{r4, r5, lr}
ARM GAS  /var/folders/m4/4md61f0s1_g0rzfghffqnxvr0000gn/T//ccmevqMd.s 			page 26


 1426              		.cfi_def_cfa_offset 12
 1427              		.cfi_offset 4, -12
 1428              		.cfi_offset 5, -8
 1429              		.cfi_offset 14, -4
 1430 0002 83B0     		sub	sp, sp, #12
 1431              		.cfi_def_cfa_offset 24
 1432              	.LBB199:
 1433              		.loc 1 519 0
 1434 0004 02AD     		add	r5, sp, #8
 1435 0006 E222     		movs	r2, #226
 1436 0008 05F8012D 		strb	r2, [r5, #-1]!
 1437              		.loc 1 521 0
 1438 000c D0F82431 		ldr	r3, [r0, #292]
 1439              	.LBE199:
 1440              		.loc 1 518 0
 1441 0010 0446     		mov	r4, r0
 1442              	.LBB200:
 1443              		.loc 1 521 0
 1444 0012 1868     		ldr	r0, [r3]
 1445              	.LVL135:
 1446 0014 FFF7FEFF 		bl	spiSelect
 1447              	.LVL136:
 1448              		.loc 1 522 0
 1449 0018 D4F82431 		ldr	r3, [r4, #292]
 1450 001c 2A46     		mov	r2, r5
 1451 001e 1868     		ldr	r0, [r3]
 1452 0020 0121     		movs	r1, #1
 1453 0022 FFF7FEFF 		bl	spiSend
 1454              	.LVL137:
 1455              		.loc 1 523 0
 1456 0026 D4F82431 		ldr	r3, [r4, #292]
 1457 002a 1868     		ldr	r0, [r3]
 1458 002c FFF7FEFF 		bl	spiUnselect
 1459              	.LVL138:
 1460              	.LBE200:
 1461              		.loc 1 524 0
 1462 0030 03B0     		add	sp, sp, #12
 1463              		.cfi_def_cfa_offset 12
 1464              		@ sp needed
 1465 0032 30BD     		pop	{r4, r5, pc}
 1466              		.cfi_endproc
 1467              	.LFE301:
 1468              		.size	_Z15nrf24l01FlushRXP14NRF24L01Driver, .-_Z15nrf24l01FlushRXP14NRF24L01Driver
 1469              		.section	.text._Z15nrf24l01FlushTXP14NRF24L01Driver,"ax",%progbits
 1470              		.align	2
 1471              		.p2align 4,,15
 1472              		.global	_Z15nrf24l01FlushTXP14NRF24L01Driver
 1473              		.thumb
 1474              		.thumb_func
 1475              		.type	_Z15nrf24l01FlushTXP14NRF24L01Driver, %function
 1476              	_Z15nrf24l01FlushTXP14NRF24L01Driver:
 1477              	.LFB302:
 1478              		.loc 1 527 0
 1479              		.cfi_startproc
 1480              		@ args = 0, pretend = 0, frame = 8
 1481              		@ frame_needed = 0, uses_anonymous_args = 0
 1482              	.LVL139:
ARM GAS  /var/folders/m4/4md61f0s1_g0rzfghffqnxvr0000gn/T//ccmevqMd.s 			page 27


 1483 0000 30B5     		push	{r4, r5, lr}
 1484              		.cfi_def_cfa_offset 12
 1485              		.cfi_offset 4, -12
 1486              		.cfi_offset 5, -8
 1487              		.cfi_offset 14, -4
 1488 0002 83B0     		sub	sp, sp, #12
 1489              		.cfi_def_cfa_offset 24
 1490              	.LBB201:
 1491              		.loc 1 528 0
 1492 0004 02AD     		add	r5, sp, #8
 1493 0006 E122     		movs	r2, #225
 1494 0008 05F8012D 		strb	r2, [r5, #-1]!
 1495              		.loc 1 530 0
 1496 000c D0F82431 		ldr	r3, [r0, #292]
 1497              	.LBE201:
 1498              		.loc 1 527 0
 1499 0010 0446     		mov	r4, r0
 1500              	.LBB202:
 1501              		.loc 1 530 0
 1502 0012 1868     		ldr	r0, [r3]
 1503              	.LVL140:
 1504 0014 FFF7FEFF 		bl	spiSelect
 1505              	.LVL141:
 1506              		.loc 1 531 0
 1507 0018 D4F82431 		ldr	r3, [r4, #292]
 1508 001c 2A46     		mov	r2, r5
 1509 001e 1868     		ldr	r0, [r3]
 1510 0020 0121     		movs	r1, #1
 1511 0022 FFF7FEFF 		bl	spiSend
 1512              	.LVL142:
 1513              		.loc 1 532 0
 1514 0026 D4F82431 		ldr	r3, [r4, #292]
 1515 002a 1868     		ldr	r0, [r3]
 1516 002c FFF7FEFF 		bl	spiUnselect
 1517              	.LVL143:
 1518              	.LBE202:
 1519              		.loc 1 533 0
 1520 0030 03B0     		add	sp, sp, #12
 1521              		.cfi_def_cfa_offset 12
 1522              		@ sp needed
 1523 0032 30BD     		pop	{r4, r5, pc}
 1524              		.cfi_endproc
 1525              	.LFE302:
 1526              		.size	_Z15nrf24l01FlushTXP14NRF24L01Driver, .-_Z15nrf24l01FlushTXP14NRF24L01Driver
 1527              		.section	.text._Z12initNRF24L01v,"ax",%progbits
 1528              		.align	2
 1529              		.p2align 4,,15
 1530              		.global	_Z12initNRF24L01v
 1531              		.thumb
 1532              		.thumb_func
 1533              		.type	_Z12initNRF24L01v, %function
 1534              	_Z12initNRF24L01v:
 1535              	.LFB269:
 1536              		.loc 1 59 0
 1537              		.cfi_startproc
 1538              		@ args = 0, pretend = 0, frame = 0
 1539              		@ frame_needed = 0, uses_anonymous_args = 0
ARM GAS  /var/folders/m4/4md61f0s1_g0rzfghffqnxvr0000gn/T//ccmevqMd.s 			page 28


 1540 0000 38B5     		push	{r3, r4, r5, lr}
 1541              		.cfi_def_cfa_offset 16
 1542              		.cfi_offset 3, -16
 1543              		.cfi_offset 4, -12
 1544              		.cfi_offset 5, -8
 1545              		.cfi_offset 14, -4
 1546              		.loc 1 60 0
 1547 0002 2F4D     		ldr	r5, .L76
 1548              		.loc 1 62 0
 1549 0004 2F4C     		ldr	r4, .L76+4
 1550              		.loc 1 60 0
 1551 0006 2846     		mov	r0, r5
 1552 0008 1021     		movs	r1, #16
 1553 000a 0122     		movs	r2, #1
 1554 000c FFF7FEFF 		bl	_pal_lld_setgroupmode
 1555              	.LVL144:
 1556              		.loc 1 61 0
 1557 0010 1023     		movs	r3, #16
 1558 0012 2B83     		strh	r3, [r5, #24]	@ movhi
 1559              		.loc 1 62 0
 1560 0014 2046     		mov	r0, r4
 1561 0016 0221     		movs	r1, #2
 1562 0018 0122     		movs	r2, #1
 1563 001a FFF7FEFF 		bl	_pal_lld_setgroupmode
 1564              	.LVL145:
 1565              		.loc 1 63 0
 1566 001e 0223     		movs	r3, #2
 1567              		.loc 1 64 0
 1568 0020 2021     		movs	r1, #32
 1569 0022 0A46     		mov	r2, r1
 1570              		.loc 1 63 0
 1571 0024 6383     		strh	r3, [r4, #26]	@ movhi
 1572              		.loc 1 64 0
 1573 0026 2848     		ldr	r0, .L76+8
 1574 0028 284D     		ldr	r5, .L76+12
 1575 002a FFF7FEFF 		bl	_pal_lld_setgroupmode
 1576              	.LVL146:
 1577              		.loc 1 66 0
 1578 002e 2848     		ldr	r0, .L76+16
 1579 0030 2849     		ldr	r1, .L76+20
 1580 0032 FFF7FEFF 		bl	spiStart
 1581              	.LVL147:
 1582              		.loc 1 67 0
 1583 0036 2848     		ldr	r0, .L76+24
 1584 0038 2849     		ldr	r1, .L76+28
 1585 003a FFF7FEFF 		bl	extStart
 1586              	.LVL148:
 1587 003e 284B     		ldr	r3, .L76+32
 1588              	.LBB218:
 1589              	.LBB219:
 1590              	.LBB220:
 1591              		.loc 1 315 0
 1592 0040 0022     		movs	r2, #0
 1593 0042 03F59070 		add	r0, r3, #288
 1594 0046 A3F12C01 		sub	r1, r3, #44
 1595              	.LVL149:
 1596              	.L73:
ARM GAS  /var/folders/m4/4md61f0s1_g0rzfghffqnxvr0000gn/T//ccmevqMd.s 			page 29


 1597              		.loc 1 314 0
 1598 004a 43F82C5C 		str	r5, [r3, #-44]
 1599              		.loc 1 315 0
 1600 004e 03F8042C 		strb	r2, [r3, #-4]
 1601              		.loc 1 316 0
 1602 0052 43F8281C 		str	r1, [r3, #-40]
 1603              	.LVL150:
 1604              	.LBB221:
 1605              	.LBB222:
 1606              		.loc 3 172 0
 1607 0056 1B60     		str	r3, [r3]
 1608 0058 3033     		adds	r3, r3, #48
 1609              	.LVL151:
 1610              	.LBE222:
 1611              	.LBE221:
 1612              		.loc 1 312 0
 1613 005a 8342     		cmp	r3, r0
 1614              		.loc 1 316 0
 1615 005c 214C     		ldr	r4, .L76+36
 1616              		.loc 1 312 0
 1617 005e F4D1     		bne	.L73
 1618              	.LVL152:
 1619              	.LBE220:
 1620              	.LBB223:
 1621              	.LBB224:
 1622              		.loc 3 172 0
 1623 0060 04F59072 		add	r2, r4, #288
 1624              	.LBE224:
 1625              	.LBE223:
 1626              	.LBE219:
 1627              	.LBE218:
 1628              	.LBB228:
 1629              	.LBB229:
 1630              		.loc 1 325 0
 1631 0064 204B     		ldr	r3, .L76+40
 1632              	.LVL153:
 1633              	.LBE229:
 1634              	.LBE228:
 1635              	.LBB231:
 1636              	.LBB227:
 1637              	.LBB226:
 1638              	.LBB225:
 1639              		.loc 3 172 0
 1640 0066 C4F82021 		str	r2, [r4, #288]
 1641              	.LVL154:
 1642              	.LBE225:
 1643              	.LBE226:
 1644              	.LBE227:
 1645              	.LBE231:
 1646              		.loc 1 70 0
 1647 006a 0521     		movs	r1, #5
 1648 006c 1A48     		ldr	r0, .L76+24
 1649              	.LBB232:
 1650              	.LBB230:
 1651              		.loc 1 325 0
 1652 006e C4F82431 		str	r3, [r4, #292]
 1653              	.LBE230:
ARM GAS  /var/folders/m4/4md61f0s1_g0rzfghffqnxvr0000gn/T//ccmevqMd.s 			page 30


 1654              	.LBE232:
 1655              		.loc 1 70 0
 1656 0072 FFF7FEFF 		bl	extChannelEnable
 1657              	.LVL155:
 1658              		.loc 1 72 0
 1659 0076 2046     		mov	r0, r4
 1660 0078 FFF7FEFF 		bl	_Z25nrf24l01EnableDynamicSizeP14NRF24L01Driver
 1661              	.LVL156:
 1662              		.loc 1 73 0
 1663 007c 2046     		mov	r0, r4
 1664 007e 3F21     		movs	r1, #63
 1665 0080 FFF7FEFF 		bl	_Z29nrf24l01EnableDynamicPipeSizeP14NRF24L01Driverh
 1666              	.LVL157:
 1667              		.loc 1 75 0
 1668 0084 2046     		mov	r0, r4
 1669 0086 1949     		ldr	r1, .L76+44
 1670 0088 FFF7FEFF 		bl	_Z20nrf24l01SetTXAddressP14NRF24L01DriverPKh
 1671              	.LVL158:
 1672              		.loc 1 76 0
 1673 008c 2046     		mov	r0, r4
 1674 008e 0021     		movs	r1, #0
 1675 0090 164A     		ldr	r2, .L76+44
 1676 0092 FFF7FEFF 		bl	_Z20nrf24l01SetRXAddressP14NRF24L01DriverhPKh
 1677              	.LVL159:
 1678              	.LBB233:
 1679              	.LBB234:
 1680              	.LBB235:
 1681              		.loc 1 432 0
 1682 0096 1121     		movs	r1, #17
 1683 0098 2022     		movs	r2, #32
 1684 009a 2046     		mov	r0, r4
 1685 009c FFF7FEFF 		bl	_Z21nrf24l01WriteRegisterP14NRF24L01Driverhh
 1686              	.LVL160:
 1687              	.LBE235:
 1688              	.LBE234:
 1689              	.LBE233:
 1690              		.loc 1 79 0
 1691 00a0 2046     		mov	r0, r4
 1692 00a2 FFF7FEFF 		bl	_Z15nrf24l01FlushRXP14NRF24L01Driver
 1693              	.LVL161:
 1694              		.loc 1 80 0
 1695 00a6 2046     		mov	r0, r4
 1696 00a8 FFF7FEFF 		bl	_Z15nrf24l01FlushTXP14NRF24L01Driver
 1697              	.LVL162:
 1698              	.LBB236:
 1699              	.LBB237:
 1700              		.loc 1 409 0
 1701 00ac 2046     		mov	r0, r4
 1702 00ae 0721     		movs	r1, #7
 1703 00b0 7022     		movs	r2, #112
 1704 00b2 FFF7FEFF 		bl	_Z21nrf24l01WriteRegisterP14NRF24L01Driverhh
 1705              	.LVL163:
 1706              	.LBE237:
 1707              	.LBE236:
 1708              		.loc 1 83 0
 1709 00b6 2046     		mov	r0, r4
 1710              		.loc 1 84 0
ARM GAS  /var/folders/m4/4md61f0s1_g0rzfghffqnxvr0000gn/T//ccmevqMd.s 			page 31


 1711 00b8 BDE83840 		pop	{r3, r4, r5, lr}
 1712              		.cfi_restore 14
 1713              		.cfi_restore 5
 1714              		.cfi_restore 4
 1715              		.cfi_restore 3
 1716              		.cfi_def_cfa_offset 0
 1717              		.loc 1 83 0
 1718 00bc FFF7FEBF 		b	_Z15nrf24l01PowerUpP14NRF24L01Driver
 1719              	.LVL164:
 1720              	.L77:
 1721              		.align	2
 1722              	.L76:
 1723 00c0 00000240 		.word	1073872896
 1724 00c4 00040240 		.word	1073873920
 1725 00c8 00080240 		.word	1073874944
 1726 00cc 00000000 		.word	.LANCHOR1
 1727 00d0 00000000 		.word	SPID1
 1728 00d4 00000000 		.word	.LANCHOR3
 1729 00d8 00000000 		.word	EXTD1
 1730 00dc 00000000 		.word	.LANCHOR4
 1731 00e0 2C000000 		.word	.LANCHOR0+44
 1732 00e4 00000000 		.word	.LANCHOR0
 1733 00e8 00000000 		.word	.LANCHOR5
 1734 00ec 00000000 		.word	.LANCHOR6
 1735              		.cfi_endproc
 1736              	.LFE269:
 1737              		.size	_Z12initNRF24L01v, .-_Z12initNRF24L01v
 1738              		.section	.text._Z15nrf24l01GetSizeP14NRF24L01Driver,"ax",%progbits
 1739              		.align	2
 1740              		.p2align 4,,15
 1741              		.global	_Z15nrf24l01GetSizeP14NRF24L01Driver
 1742              		.thumb
 1743              		.thumb_func
 1744              		.type	_Z15nrf24l01GetSizeP14NRF24L01Driver, %function
 1745              	_Z15nrf24l01GetSizeP14NRF24L01Driver:
 1746              	.LFB303:
 1747              		.loc 1 536 0
 1748              		.cfi_startproc
 1749              		@ args = 0, pretend = 0, frame = 8
 1750              		@ frame_needed = 0, uses_anonymous_args = 0
 1751              	.LVL165:
 1752 0000 10B5     		push	{r4, lr}
 1753              		.cfi_def_cfa_offset 8
 1754              		.cfi_offset 4, -8
 1755              		.cfi_offset 14, -4
 1756 0002 82B0     		sub	sp, sp, #8
 1757              		.cfi_def_cfa_offset 16
 1758              	.LBB238:
 1759              		.loc 1 537 0
 1760 0004 6023     		movs	r3, #96
 1761 0006 8DF80030 		strb	r3, [sp]
 1762              		.loc 1 540 0
 1763 000a D0F82421 		ldr	r2, [r0, #292]
 1764              		.loc 1 537 0
 1765 000e 0023     		movs	r3, #0
 1766              	.LBE238:
 1767              		.loc 1 536 0
ARM GAS  /var/folders/m4/4md61f0s1_g0rzfghffqnxvr0000gn/T//ccmevqMd.s 			page 32


 1768 0010 0446     		mov	r4, r0
 1769              	.LBB239:
 1770              		.loc 1 537 0
 1771 0012 8DF80130 		strb	r3, [sp, #1]
 1772              		.loc 1 538 0
 1773 0016 8DF80430 		strb	r3, [sp, #4]
 1774 001a 8DF80530 		strb	r3, [sp, #5]
 1775              		.loc 1 540 0
 1776 001e 1068     		ldr	r0, [r2]
 1777              	.LVL166:
 1778 0020 FFF7FEFF 		bl	spiSelect
 1779              	.LVL167:
 1780              		.loc 1 541 0
 1781 0024 D4F82431 		ldr	r3, [r4, #292]
 1782 0028 0221     		movs	r1, #2
 1783 002a 1868     		ldr	r0, [r3]
 1784 002c 6A46     		mov	r2, sp
 1785 002e 01AB     		add	r3, sp, #4
 1786 0030 FFF7FEFF 		bl	spiExchange
 1787              	.LVL168:
 1788              		.loc 1 542 0
 1789 0034 D4F82431 		ldr	r3, [r4, #292]
 1790 0038 1868     		ldr	r0, [r3]
 1791 003a FFF7FEFF 		bl	spiUnselect
 1792              	.LVL169:
 1793              	.LBE239:
 1794              		.loc 1 545 0
 1795 003e 9DF80500 		ldrb	r0, [sp, #5]	@ zero_extendqisi2
 1796 0042 02B0     		add	sp, sp, #8
 1797              		.cfi_def_cfa_offset 8
 1798              		@ sp needed
 1799 0044 10BD     		pop	{r4, pc}
 1800              		.cfi_endproc
 1801              	.LFE303:
 1802              		.size	_Z15nrf24l01GetSizeP14NRF24L01Driver, .-_Z15nrf24l01GetSizeP14NRF24L01Driver
 1803 0046 00BF     		.section	.text._Z15nrf24l01EnterRXP14NRF24L01Driver,"ax",%progbits
 1804              		.align	2
 1805              		.p2align 4,,15
 1806              		.global	_Z15nrf24l01EnterRXP14NRF24L01Driver
 1807              		.thumb
 1808              		.thumb_func
 1809              		.type	_Z15nrf24l01EnterRXP14NRF24L01Driver, %function
 1810              	_Z15nrf24l01EnterRXP14NRF24L01Driver:
 1811              	.LFB304:
 1812              		.loc 1 548 0
 1813              		.cfi_startproc
 1814              		@ args = 0, pretend = 0, frame = 0
 1815              		@ frame_needed = 0, uses_anonymous_args = 0
 1816              	.LVL170:
 1817 0000 38B5     		push	{r3, r4, r5, lr}
 1818              		.cfi_def_cfa_offset 16
 1819              		.cfi_offset 3, -16
 1820              		.cfi_offset 4, -12
 1821              		.cfi_offset 5, -8
 1822              		.cfi_offset 14, -4
 1823              	.LBB240:
 1824              		.loc 1 549 0
ARM GAS  /var/folders/m4/4md61f0s1_g0rzfghffqnxvr0000gn/T//ccmevqMd.s 			page 33


 1825 0002 D0F82431 		ldr	r3, [r0, #292]
 1826 0006 1989     		ldrh	r1, [r3, #8]
 1827 0008 5A68     		ldr	r2, [r3, #4]
 1828 000a 0124     		movs	r4, #1
 1829 000c 04FA01F3 		lsl	r3, r4, r1
 1830 0010 9BB2     		uxth	r3, r3
 1831 0012 5383     		strh	r3, [r2, #26]	@ movhi
 1832              		.loc 1 551 0
 1833 0014 0021     		movs	r1, #0
 1834              	.LBE240:
 1835              		.loc 1 548 0
 1836 0016 0546     		mov	r5, r0
 1837              	.LBB241:
 1838              		.loc 1 551 0
 1839 0018 FFF7FEFF 		bl	_Z20nrf24l01ReadRegisterP14NRF24L01Driverh
 1840              	.LVL171:
 1841              		.loc 1 552 0
 1842 001c 40EA0402 		orr	r2, r0, r4
 1843              		.loc 1 553 0
 1844 0020 D2B2     		uxtb	r2, r2
 1845 0022 2846     		mov	r0, r5
 1846              	.LVL172:
 1847 0024 0021     		movs	r1, #0
 1848 0026 FFF7FEFF 		bl	_Z21nrf24l01WriteRegisterP14NRF24L01Driverhh
 1849              	.LVL173:
 1850              		.loc 1 555 0
 1851 002a D5F82431 		ldr	r3, [r5, #292]
 1852 002e 1A89     		ldrh	r2, [r3, #8]
 1853 0030 5B68     		ldr	r3, [r3, #4]
 1854 0032 9440     		lsls	r4, r4, r2
 1855 0034 A4B2     		uxth	r4, r4
 1856 0036 1C83     		strh	r4, [r3, #24]	@ movhi
 1857 0038 38BD     		pop	{r3, r4, r5, pc}
 1858              	.LBE241:
 1859              		.cfi_endproc
 1860              	.LFE304:
 1861              		.size	_Z15nrf24l01EnterRXP14NRF24L01Driver, .-_Z15nrf24l01EnterRXP14NRF24L01Driver
 1862 003a 00BF     		.section	.text._ZL5readtPvPhjm,"ax",%progbits
 1863              		.align	2
 1864              		.p2align 4,,15
 1865              		.thumb
 1866              		.thumb_func
 1867              		.type	_ZL5readtPvPhjm, %function
 1868              	_ZL5readtPvPhjm:
 1869              	.LFB271:
 1870              		.loc 1 147 0
 1871              		.cfi_startproc
 1872              		@ args = 0, pretend = 0, frame = 32
 1873              		@ frame_needed = 0, uses_anonymous_args = 0
 1874              	.LVL174:
 1875 0000 2DE9F04F 		push	{r4, r5, r6, r7, r8, r9, r10, fp, lr}
 1876              		.cfi_def_cfa_offset 36
 1877              		.cfi_offset 4, -36
 1878              		.cfi_offset 5, -32
 1879              		.cfi_offset 6, -28
 1880              		.cfi_offset 7, -24
 1881              		.cfi_offset 8, -20
ARM GAS  /var/folders/m4/4md61f0s1_g0rzfghffqnxvr0000gn/T//ccmevqMd.s 			page 34


 1882              		.cfi_offset 9, -16
 1883              		.cfi_offset 10, -12
 1884              		.cfi_offset 11, -8
 1885              		.cfi_offset 14, -4
 1886              	.LBB242:
 1887              		.loc 1 149 0
 1888 0004 D0F80490 		ldr	r9, [r0, #4]
 1889              	.LVL175:
 1890              	.LBE242:
 1891              		.loc 1 147 0
 1892 0008 89B0     		sub	sp, sp, #36
 1893              		.cfi_def_cfa_offset 72
 1894 000a 09F59074 		add	r4, r9, #288
 1895 000e 4D46     		mov	r5, r9
 1896 0010 0194     		str	r4, [sp, #4]
 1897              	.LVL176:
 1898              	.L85:
 1899              	.LBB313:
 1900              	.LBB243:
 1901              		.loc 1 154 0
 1902 0012 A842     		cmp	r0, r5
 1903 0014 05F13005 		add	r5, r5, #48
 1904 0018 06D0     		beq	.L123
 1905              		.loc 1 152 0 discriminator 2
 1906 001a A542     		cmp	r5, r4
 1907 001c F9D1     		bne	.L85
 1908              	.LBE243:
 1909              		.loc 1 162 0
 1910 001e 0026     		movs	r6, #0
 1911              	.LBE313:
 1912              		.loc 1 245 0
 1913 0020 3046     		mov	r0, r6
 1914              	.LVL177:
 1915 0022 09B0     		add	sp, sp, #36
 1916              		.cfi_remember_state
 1917              		.cfi_def_cfa_offset 36
 1918              		@ sp needed
 1919 0024 BDE8F08F 		pop	{r4, r5, r6, r7, r8, r9, r10, fp, pc}
 1920              	.LVL178:
 1921              	.L123:
 1922              		.cfi_restore_state
 1923 0028 0093     		str	r3, [sp]
 1924 002a 0446     		mov	r4, r0
 1925              	.LVL179:
 1926              	.LBB314:
 1927              	.LBB244:
 1928              	.LBB245:
 1929              		.loc 3 193 0
 1930 002c 4FF0FF33 		mov	r3, #-1
 1931              	.LVL180:
 1932 0030 0198     		ldr	r0, [sp, #4]
 1933              	.LVL181:
 1934 0032 1746     		mov	r7, r2
 1935 0034 8A46     		mov	r10, r1
 1936 0036 0122     		movs	r2, #1
 1937              	.LVL182:
 1938 0038 03A9     		add	r1, sp, #12
ARM GAS  /var/folders/m4/4md61f0s1_g0rzfghffqnxvr0000gn/T//ccmevqMd.s 			page 35


 1939              	.LVL183:
 1940 003a FFF7FEFF 		bl	chEvtRegisterMaskWithFlags
 1941              	.LVL184:
 1942              	.LBE245:
 1943              	.LBE244:
 1944              		.loc 1 168 0
 1945 003e 4846     		mov	r0, r9
 1946 0040 FFF7FEFF 		bl	_Z15nrf24l01EnterRXP14NRF24L01Driver
 1947              	.LVL185:
 1948 0044 94F82830 		ldrb	r3, [r4, #40]	@ zero_extendqisi2
 1949              		.loc 1 164 0
 1950 0048 0025     		movs	r5, #0
 1951              	.LVL186:
 1952              	.L84:
 1953              		.loc 1 170 0
 1954 004a BD42     		cmp	r5, r7
 1955 004c 2E46     		mov	r6, r5
 1956 004e 20D2     		bcs	.L124
 1957              	.L109:
 1958              	.LBB246:
 1959              	.LBB247:
 1960              		.loc 1 172 0
 1961 0050 93B3     		cbz	r3, .L87
 1962              	.LBB248:
 1963              		.loc 1 174 0
 1964 0052 7E1B     		subs	r6, r7, r5
 1965 0054 9E42     		cmp	r6, r3
 1966 0056 28BF     		it	cs
 1967 0058 1E46     		movcs	r6, r3
 1968 005a 5FFA86FE 		uxtb	lr, r6
 1969              	.LVL187:
 1970              	.LBB249:
 1971              		.loc 1 175 0
 1972 005e 76B1     		cbz	r6, .L88
 1973 0060 0AEB0500 		add	r0, r10, r5
 1974 0064 0021     		movs	r1, #0
 1975              	.LVL188:
 1976              	.L90:
 1977              		.loc 1 176 0 discriminator 3
 1978 0066 6218     		adds	r2, r4, r1
 1979 0068 D31A     		subs	r3, r2, r3
 1980 006a 0131     		adds	r1, r1, #1
 1981              	.LVL189:
 1982 006c 93F82830 		ldrb	r3, [r3, #40]	@ zero_extendqisi2
 1983 0070 00F8013B 		strb	r3, [r0], #1
 1984              		.loc 1 175 0 discriminator 3
 1985 0074 CBB2     		uxtb	r3, r1
 1986 0076 9E45     		cmp	lr, r3
 1987 0078 94F82830 		ldrb	r3, [r4, #40]	@ zero_extendqisi2
 1988 007c F3D8     		bhi	.L90
 1989              	.L88:
 1990              	.LBE249:
 1991              		.loc 1 178 0
 1992 007e 3544     		add	r5, r5, r6
 1993              	.LVL190:
 1994 0080 ADB2     		uxth	r5, r5
 1995              	.LVL191:
ARM GAS  /var/folders/m4/4md61f0s1_g0rzfghffqnxvr0000gn/T//ccmevqMd.s 			page 36


 1996              		.loc 1 177 0
 1997 0082 CEEB0303 		rsb	r3, lr, r3
 1998 0086 DBB2     		uxtb	r3, r3
 1999              	.LBE248:
 2000              	.LBE247:
 2001              	.LBE246:
 2002              		.loc 1 170 0
 2003 0088 BD42     		cmp	r5, r7
 2004              	.LBB302:
 2005              	.LBB251:
 2006              	.LBB250:
 2007              		.loc 1 177 0
 2008 008a 84F82830 		strb	r3, [r4, #40]
 2009              	.LBE250:
 2010              	.LBE251:
 2011              	.LBE302:
 2012              		.loc 1 170 0
 2013 008e 2E46     		mov	r6, r5
 2014 0090 DED3     		bcc	.L109
 2015              	.LVL192:
 2016              	.L124:
 2017              		.loc 1 238 0
 2018 0092 002B     		cmp	r3, #0
 2019 0094 40F08B80 		bne	.L125
 2020              	.L110:
 2021              	.LVL193:
 2022              	.LBB303:
 2023              	.LBB304:
 2024              		.loc 1 571 0
 2025 0098 D9F82431 		ldr	r3, [r9, #292]
 2026              	.LBE304:
 2027              	.LBE303:
 2028              		.loc 1 242 0
 2029 009c 0198     		ldr	r0, [sp, #4]
 2030              	.LBB307:
 2031              	.LBB305:
 2032              		.loc 1 571 0
 2033 009e 1989     		ldrh	r1, [r3, #8]
 2034 00a0 5A68     		ldr	r2, [r3, #4]
 2035 00a2 0123     		movs	r3, #1
 2036 00a4 8B40     		lsls	r3, r3, r1
 2037 00a6 9BB2     		uxth	r3, r3
 2038              	.LBE305:
 2039              	.LBE307:
 2040              		.loc 1 242 0
 2041 00a8 03A9     		add	r1, sp, #12
 2042              	.LVL194:
 2043              	.LBB308:
 2044              	.LBB306:
 2045              		.loc 1 571 0
 2046 00aa 5383     		strh	r3, [r2, #26]	@ movhi
 2047              	.LBE306:
 2048              	.LBE308:
 2049              		.loc 1 242 0
 2050 00ac FFF7FEFF 		bl	chEvtUnregister
 2051              	.LVL195:
 2052              	.LBE314:
ARM GAS  /var/folders/m4/4md61f0s1_g0rzfghffqnxvr0000gn/T//ccmevqMd.s 			page 37


 2053              		.loc 1 245 0
 2054 00b0 3046     		mov	r0, r6
 2055 00b2 09B0     		add	sp, sp, #36
 2056              		.cfi_remember_state
 2057              		.cfi_def_cfa_offset 36
 2058              	.LVL196:
 2059              		@ sp needed
 2060 00b4 BDE8F08F 		pop	{r4, r5, r6, r7, r8, r9, r10, fp, pc}
 2061              	.LVL197:
 2062              	.L87:
 2063              		.cfi_restore_state
 2064              	.LBB315:
 2065              	.LBB309:
 2066              	.LBB252:
 2067              	.LBB253:
 2068              		.loc 1 437 0
 2069 00b8 4846     		mov	r0, r9
 2070 00ba 1721     		movs	r1, #23
 2071 00bc FFF7FEFF 		bl	_Z20nrf24l01ReadRegisterP14NRF24L01Driverh
 2072              	.LVL198:
 2073              	.LBE253:
 2074              	.LBE252:
 2075              	.LBB254:
 2076              		.loc 1 183 0
 2077 00c0 C207     		lsls	r2, r0, #31
 2078 00c2 44D4     		bmi	.L92
 2079              	.LBB255:
 2080              		.loc 1 185 0
 2081 00c4 C0F34203 		ubfx	r3, r0, #1, #3
 2082              		.loc 1 186 0
 2083 00c8 4846     		mov	r0, r9
 2084              		.loc 1 185 0
 2085 00ca 8DF80B30 		strb	r3, [sp, #11]
 2086              		.loc 1 186 0
 2087 00ce FFF7FEFF 		bl	_Z15nrf24l01GetSizeP14NRF24L01Driver
 2088              	.LVL199:
 2089              		.loc 1 188 0
 2090 00d2 9DF80B60 		ldrb	r6, [sp, #11]	@ zero_extendqisi2
 2091 00d6 4FEA460B 		lsl	fp, r6, #1
 2092 00da 0BEB0603 		add	r3, fp, r6
 2093 00de 1B01     		lsls	r3, r3, #4
 2094 00e0 09EB0302 		add	r2, r9, r3
 2095              	.LBB256:
 2096              		.loc 1 190 0
 2097 00e4 9442     		cmp	r4, r2
 2098              	.LBE256:
 2099              		.loc 1 186 0
 2100 00e6 8046     		mov	r8, r0
 2101              	.LVL200:
 2102              	.LBB286:
 2103              		.loc 1 190 0
 2104 00e8 59D0     		beq	.L93
 2105              	.LBB257:
 2106              	.LBB258:
 2107              		.loc 1 192 0
 2108 00ea 92F82830 		ldrb	r3, [r2, #40]	@ zero_extendqisi2
 2109 00ee 1918     		adds	r1, r3, r0
ARM GAS  /var/folders/m4/4md61f0s1_g0rzfghffqnxvr0000gn/T//ccmevqMd.s 			page 38


 2110 00f0 2029     		cmp	r1, #32
 2111 00f2 3DDC     		bgt	.L94
 2112              		.loc 1 192 0 is_stmt 0 discriminator 1
 2113 00f4 002B     		cmp	r3, #0
 2114 00f6 3BD0     		beq	.L94
 2115 00f8 C3F12003 		rsb	r3, r3, #32
 2116              	.LBB259:
 2117              	.LBB260:
 2118              		.loc 1 201 0 is_stmt 1
 2119 00fc 1B1A     		subs	r3, r3, r0
 2120 00fe DBB2     		uxtb	r3, r3
 2121              	.LVL201:
 2122 0100 C0F1200E 		rsb	lr, r0, #32
 2123 0104 9E45     		cmp	lr, r3
 2124              		.loc 1 202 0
 2125 0106 C8BF     		it	gt
 2126 0108 02EB000C 		addgt	ip, r2, r0
 2127              		.loc 1 201 0
 2128 010c 08DD     		ble	.L102
 2129              	.LVL202:
 2130              	.L101:
 2131              		.loc 1 202 0 discriminator 3
 2132 010e 0CEB0300 		add	r0, ip, r3
 2133 0112 D118     		adds	r1, r2, r3
 2134              		.loc 1 201 0 discriminator 3
 2135 0114 0133     		adds	r3, r3, #1
 2136              	.LVL203:
 2137 0116 DBB2     		uxtb	r3, r3
 2138              	.LVL204:
 2139              		.loc 1 202 0 discriminator 3
 2140 0118 007A     		ldrb	r0, [r0, #8]	@ zero_extendqisi2
 2141 011a 0872     		strb	r0, [r1, #8]
 2142              		.loc 1 201 0 discriminator 3
 2143 011c 7345     		cmp	r3, lr
 2144 011e F6DB     		blt	.L101
 2145              	.L102:
 2146              	.LVL205:
 2147              	.LBE260:
 2148              	.LBB261:
 2149              	.LBB262:
 2150              	.LBB263:
 2151              		.loc 1 481 0
 2152 0120 B8F1200F 		cmp	r8, #32
 2153 0124 52D9     		bls	.L126
 2154              	.LVL206:
 2155              	.L99:
 2156              	.LBE263:
 2157              	.LBE262:
 2158              	.LBE261:
 2159              		.loc 1 205 0
 2160 0126 0BEB0603 		add	r3, fp, r6
 2161 012a 09EB0313 		add	r3, r9, r3, lsl #4
 2162 012e 93F82820 		ldrb	r2, [r3, #40]	@ zero_extendqisi2
 2163 0132 9044     		add	r8, r8, r2
 2164              	.LVL207:
 2165 0134 83F82880 		strb	r8, [r3, #40]
 2166              	.LVL208:
ARM GAS  /var/folders/m4/4md61f0s1_g0rzfghffqnxvr0000gn/T//ccmevqMd.s 			page 39


 2167              	.L97:
 2168              	.LBE259:
 2169              	.LBE258:
 2170              		.loc 1 207 0
 2171 0138 0BEB0600 		add	r0, fp, r6
 2172 013c 09EB0010 		add	r0, r9, r0, lsl #4
 2173 0140 2C30     		adds	r0, r0, #44
 2174 0142 0421     		movs	r1, #4
 2175 0144 FFF7FEFF 		bl	chEvtBroadcastFlags
 2176              	.LVL209:
 2177              	.L121:
 2178 0148 94F82830 		ldrb	r3, [r4, #40]	@ zero_extendqisi2
 2179 014c 7DE7     		b	.L84
 2180              	.L92:
 2181              	.LBE257:
 2182              	.LBE286:
 2183              	.LBE255:
 2184              	.LBE254:
 2185              		.loc 1 225 0
 2186 014e 0120     		movs	r0, #1
 2187 0150 0099     		ldr	r1, [sp]
 2188 0152 FFF7FEFF 		bl	chEvtWaitOneTimeout
 2189              	.LVL210:
 2190 0156 0028     		cmp	r0, #0
 2191 0158 45D0     		beq	.L127
 2192              		.loc 1 232 0
 2193 015a 4846     		mov	r0, r9
 2194 015c FFF7FEFF 		bl	_Z17nrf24l01GetStatusP14NRF24L01Driver
 2195              	.LVL211:
 2196              		.loc 1 234 0
 2197 0160 4306     		lsls	r3, r0, #25
 2198 0162 F1D5     		bpl	.L121
 2199              	.LVL212:
 2200              	.LBB293:
 2201              	.LBB294:
 2202              		.loc 1 409 0
 2203 0164 4846     		mov	r0, r9
 2204              	.LVL213:
 2205 0166 0721     		movs	r1, #7
 2206 0168 4022     		movs	r2, #64
 2207 016a FFF7FEFF 		bl	_Z21nrf24l01WriteRegisterP14NRF24L01Driverhh
 2208              	.LVL214:
 2209 016e EBE7     		b	.L121
 2210              	.LVL215:
 2211              	.L94:
 2212              	.LBE294:
 2213              	.LBE293:
 2214              	.LBB295:
 2215              	.LBB290:
 2216              	.LBB287:
 2217              	.LBB274:
 2218              	.LBB272:
 2219              	.LBB266:
 2220              	.LBB267:
 2221              	.LBB268:
 2222              		.loc 1 481 0
 2223 0170 B8F1200F 		cmp	r8, #32
ARM GAS  /var/folders/m4/4md61f0s1_g0rzfghffqnxvr0000gn/T//ccmevqMd.s 			page 40


 2224 0174 06D9     		bls	.L128
 2225              	.LVL216:
 2226              	.L96:
 2227              	.LBE268:
 2228              	.LBE267:
 2229              	.LBE266:
 2230              		.loc 1 196 0
 2231 0176 0BEB0603 		add	r3, fp, r6
 2232 017a 09EB0313 		add	r3, r9, r3, lsl #4
 2233 017e 83F82880 		strb	r8, [r3, #40]
 2234 0182 D9E7     		b	.L97
 2235              	.LVL217:
 2236              	.L128:
 2237              		.loc 1 195 0
 2238 0184 0BEB0602 		add	r2, fp, r6
 2239 0188 C8EB0212 		rsb	r2, r8, r2, lsl #4
 2240 018c 2832     		adds	r2, r2, #40
 2241              	.LBB270:
 2242              	.LBB269:
 2243 018e 4A44     		add	r2, r2, r9
 2244 0190 4846     		mov	r0, r9
 2245              	.LVL218:
 2246 0192 4146     		mov	r1, r8
 2247 0194 0DF10B03 		add	r3, sp, #11
 2248              	.LVL219:
 2249 0198 FFF7FEFF 		bl	_Z19nrf24l01ReadPayloadP14NRF24L01DriverhPhS1_.part.2
 2250              	.LVL220:
 2251 019c EBE7     		b	.L96
 2252              	.LVL221:
 2253              	.L93:
 2254              	.LBE269:
 2255              	.LBE270:
 2256              	.LBE272:
 2257              	.LBE274:
 2258              		.loc 1 211 0
 2259 019e 7A1B     		subs	r2, r7, r5
 2260 01a0 9042     		cmp	r0, r2
 2261 01a2 0AD8     		bhi	.L104
 2262              	.LVL222:
 2263              	.LBB275:
 2264              	.LBB276:
 2265              	.LBB277:
 2266              		.loc 1 481 0
 2267 01a4 2028     		cmp	r0, #32
 2268 01a6 39D9     		bls	.L129
 2269              	.LVL223:
 2270              	.L105:
 2271              	.LBE277:
 2272              	.LBE276:
 2273              	.LBE275:
 2274              		.loc 1 214 0
 2275 01a8 4544     		add	r5, r5, r8
 2276              	.LVL224:
 2277 01aa ADB2     		uxth	r5, r5
 2278              	.LVL225:
 2279 01ac CCE7     		b	.L121
 2280              	.LVL226:
ARM GAS  /var/folders/m4/4md61f0s1_g0rzfghffqnxvr0000gn/T//ccmevqMd.s 			page 41


 2281              	.L125:
 2282              	.LBE287:
 2283              	.LBE290:
 2284              	.LBE295:
 2285              	.LBE309:
 2286              		.loc 1 239 0
 2287 01ae 04F12C00 		add	r0, r4, #44
 2288 01b2 0421     		movs	r1, #4
 2289 01b4 FFF7FEFF 		bl	chEvtBroadcastFlags
 2290              	.LVL227:
 2291 01b8 6EE7     		b	.L110
 2292              	.LVL228:
 2293              	.L104:
 2294              	.LBB310:
 2295              	.LBB296:
 2296              	.LBB291:
 2297              	.LBB288:
 2298              	.LBB279:
 2299              	.LBB280:
 2300              	.LBB281:
 2301              		.loc 1 481 0
 2302 01ba 2028     		cmp	r0, #32
 2303 01bc 23D9     		bls	.L130
 2304              	.LVL229:
 2305              	.L106:
 2306              	.LBE281:
 2307              	.LBE280:
 2308              	.LBE279:
 2309              		.loc 1 219 0
 2310 01be 0BEB0603 		add	r3, fp, r6
 2311 01c2 09EB0313 		add	r3, r9, r3, lsl #4
 2312 01c6 83F82880 		strb	r8, [r3, #40]
 2313 01ca BDE7     		b	.L121
 2314              	.LVL230:
 2315              	.L126:
 2316              	.LBB283:
 2317              	.LBB273:
 2318              	.LBB271:
 2319              		.loc 1 204 0
 2320 01cc 0BEB0602 		add	r2, fp, r6
 2321 01d0 0EEB0212 		add	r2, lr, r2, lsl #4
 2322 01d4 0832     		adds	r2, r2, #8
 2323              	.LBB265:
 2324              	.LBB264:
 2325 01d6 4A44     		add	r2, r2, r9
 2326 01d8 4846     		mov	r0, r9
 2327 01da 4146     		mov	r1, r8
 2328 01dc 0DF10B03 		add	r3, sp, #11
 2329              	.LVL231:
 2330 01e0 FFF7FEFF 		bl	_Z19nrf24l01ReadPayloadP14NRF24L01DriverhPhS1_.part.2
 2331              	.LVL232:
 2332 01e4 9FE7     		b	.L99
 2333              	.LVL233:
 2334              	.L127:
 2335              	.LBE264:
 2336              	.LBE265:
 2337              	.LBE271:
ARM GAS  /var/folders/m4/4md61f0s1_g0rzfghffqnxvr0000gn/T//ccmevqMd.s 			page 42


 2338              	.LBE273:
 2339              	.LBE283:
 2340              	.LBE288:
 2341              	.LBE291:
 2342              	.LBE296:
 2343              		.loc 1 227 0
 2344 01e6 0198     		ldr	r0, [sp, #4]
 2345 01e8 03A9     		add	r1, sp, #12
 2346              	.LVL234:
 2347 01ea FFF7FEFF 		bl	chEvtUnregister
 2348              	.LVL235:
 2349              	.LBB297:
 2350              	.LBB298:
 2351              		.loc 1 571 0
 2352 01ee D9F82431 		ldr	r3, [r9, #292]
 2353 01f2 1989     		ldrh	r1, [r3, #8]
 2354 01f4 5A68     		ldr	r2, [r3, #4]
 2355 01f6 0123     		movs	r3, #1
 2356 01f8 8B40     		lsls	r3, r3, r1
 2357 01fa 9BB2     		uxth	r3, r3
 2358              	.LBE298:
 2359              	.LBE297:
 2360              	.LBE310:
 2361              	.LBE315:
 2362              		.loc 1 245 0
 2363 01fc 3046     		mov	r0, r6
 2364              	.LBB316:
 2365              	.LBB311:
 2366              	.LBB300:
 2367              	.LBB299:
 2368              		.loc 1 571 0
 2369 01fe 5383     		strh	r3, [r2, #26]	@ movhi
 2370              	.LBE299:
 2371              	.LBE300:
 2372              	.LBE311:
 2373              	.LBE316:
 2374              		.loc 1 245 0
 2375 0200 09B0     		add	sp, sp, #36
 2376              		.cfi_remember_state
 2377              		.cfi_def_cfa_offset 36
 2378              	.LVL236:
 2379              		@ sp needed
 2380 0202 BDE8F08F 		pop	{r4, r5, r6, r7, r8, r9, r10, fp, pc}
 2381              	.LVL237:
 2382              	.L130:
 2383              		.cfi_restore_state
 2384              	.LBB317:
 2385              	.LBB312:
 2386              	.LBB301:
 2387              	.LBB292:
 2388              	.LBB289:
 2389              		.loc 1 218 0
 2390 0206 1B1A     		subs	r3, r3, r0
 2391 0208 03F12802 		add	r2, r3, #40
 2392              	.LBB284:
 2393              	.LBB282:
 2394 020c 4A44     		add	r2, r2, r9
ARM GAS  /var/folders/m4/4md61f0s1_g0rzfghffqnxvr0000gn/T//ccmevqMd.s 			page 43


 2395 020e 4846     		mov	r0, r9
 2396              	.LVL238:
 2397 0210 4146     		mov	r1, r8
 2398 0212 0DF10B03 		add	r3, sp, #11
 2399              	.LVL239:
 2400 0216 FFF7FEFF 		bl	_Z19nrf24l01ReadPayloadP14NRF24L01DriverhPhS1_.part.2
 2401              	.LVL240:
 2402 021a D0E7     		b	.L106
 2403              	.LVL241:
 2404              	.L129:
 2405              	.LBE282:
 2406              	.LBE284:
 2407              	.LBB285:
 2408              	.LBB278:
 2409 021c 4846     		mov	r0, r9
 2410              	.LVL242:
 2411 021e 4146     		mov	r1, r8
 2412 0220 0AEB0502 		add	r2, r10, r5
 2413 0224 0DF10B03 		add	r3, sp, #11
 2414              	.LVL243:
 2415 0228 FFF7FEFF 		bl	_Z19nrf24l01ReadPayloadP14NRF24L01DriverhPhS1_.part.2
 2416              	.LVL244:
 2417 022c BCE7     		b	.L105
 2418              	.LBE278:
 2419              	.LBE285:
 2420              	.LBE289:
 2421              	.LBE292:
 2422              	.LBE301:
 2423              	.LBE312:
 2424              	.LBE317:
 2425              		.cfi_endproc
 2426              	.LFE271:
 2427              		.size	_ZL5readtPvPhjm, .-_ZL5readtPvPhjm
 2428 022e 00BF     		.section	.text._ZL4gettPvm,"ax",%progbits
 2429              		.align	2
 2430              		.p2align 4,,15
 2431              		.thumb
 2432              		.thumb_func
 2433              		.type	_ZL4gettPvm, %function
 2434              	_ZL4gettPvm:
 2435              	.LFB273:
 2436              		.loc 1 255 0
 2437              		.cfi_startproc
 2438              		@ args = 0, pretend = 0, frame = 8
 2439              		@ frame_needed = 0, uses_anonymous_args = 0
 2440              	.LVL245:
 2441 0000 10B5     		push	{r4, lr}
 2442              		.cfi_def_cfa_offset 8
 2443              		.cfi_offset 4, -8
 2444              		.cfi_offset 14, -4
 2445              	.LBB329:
 2446              		.loc 1 256 0
 2447 0002 4268     		ldr	r2, [r0, #4]
 2448              	.LVL246:
 2449              	.LBE329:
 2450              		.loc 1 255 0
 2451 0004 82B0     		sub	sp, sp, #8
ARM GAS  /var/folders/m4/4md61f0s1_g0rzfghffqnxvr0000gn/T//ccmevqMd.s 			page 44


 2452              		.cfi_def_cfa_offset 16
 2453 0006 02F59074 		add	r4, r2, #288
 2454              	.LVL247:
 2455              	.L135:
 2456              	.LBB333:
 2457              	.LBB330:
 2458              		.loc 1 261 0
 2459 000a 9042     		cmp	r0, r2
 2460 000c 02F13002 		add	r2, r2, #48
 2461 0010 05D0     		beq	.L143
 2462              		.loc 1 259 0 discriminator 2
 2463 0012 A242     		cmp	r2, r4
 2464 0014 F9D1     		bne	.L135
 2465              	.LBE330:
 2466              		.loc 1 269 0
 2467 0016 6FF00100 		mvn	r0, #1
 2468              	.LVL248:
 2469              	.LBE333:
 2470              		.loc 1 284 0
 2471 001a 02B0     		add	sp, sp, #8
 2472              		.cfi_remember_state
 2473              		.cfi_def_cfa_offset 8
 2474              		@ sp needed
 2475 001c 10BD     		pop	{r4, pc}
 2476              	.LVL249:
 2477              	.L143:
 2478              		.cfi_restore_state
 2479              	.LBB334:
 2480              	.LBB331:
 2481              		.loc 1 271 0
 2482 001e 90F82820 		ldrb	r2, [r0, #40]	@ zero_extendqisi2
 2483 0022 42B1     		cbz	r2, .L144
 2484              	.LBB332:
 2485              		.loc 1 273 0
 2486 0024 831A     		subs	r3, r0, r2
 2487              		.loc 1 274 0
 2488 0026 013A     		subs	r2, r2, #1
 2489              		.loc 1 273 0
 2490 0028 93F82830 		ldrb	r3, [r3, #40]	@ zero_extendqisi2
 2491              	.LVL250:
 2492              		.loc 1 274 0
 2493 002c 80F82820 		strb	r2, [r0, #40]
 2494              		.loc 1 275 0
 2495 0030 1846     		mov	r0, r3
 2496              	.LVL251:
 2497              	.LBE332:
 2498              	.LBE331:
 2499              	.LBE334:
 2500              		.loc 1 284 0
 2501 0032 02B0     		add	sp, sp, #8
 2502              		.cfi_remember_state
 2503              		.cfi_def_cfa_offset 8
 2504              		@ sp needed
 2505 0034 10BD     		pop	{r4, pc}
 2506              	.LVL252:
 2507              	.L144:
 2508              		.cfi_restore_state
ARM GAS  /var/folders/m4/4md61f0s1_g0rzfghffqnxvr0000gn/T//ccmevqMd.s 			page 45


 2509 0036 0B46     		mov	r3, r1
 2510              	.LVL253:
 2511              	.LBB335:
 2512              	.LBB336:
 2513              	.LBB337:
 2514              		.loc 1 280 0
 2515 0038 0122     		movs	r2, #1
 2516 003a 0DF10701 		add	r1, sp, #7
 2517              	.LVL254:
 2518 003e FFF7FEFF 		bl	_ZL5readtPvPhjm
 2519              	.LVL255:
 2520 0042 18B9     		cbnz	r0, .L145
 2521              		.loc 1 281 0
 2522 0044 4FF0FF30 		mov	r0, #-1
 2523              	.LBE337:
 2524              	.LBE336:
 2525              	.LBE335:
 2526              		.loc 1 284 0
 2527 0048 02B0     		add	sp, sp, #8
 2528              		.cfi_remember_state
 2529              		.cfi_def_cfa_offset 8
 2530              		@ sp needed
 2531 004a 10BD     		pop	{r4, pc}
 2532              	.L145:
 2533              		.cfi_restore_state
 2534              	.LBB340:
 2535              	.LBB339:
 2536              	.LBB338:
 2537              		.loc 1 282 0
 2538 004c 9DF80700 		ldrb	r0, [sp, #7]	@ zero_extendqisi2
 2539              	.LBE338:
 2540              	.LBE339:
 2541              	.LBE340:
 2542              		.loc 1 284 0
 2543 0050 02B0     		add	sp, sp, #8
 2544              		.cfi_def_cfa_offset 8
 2545              		@ sp needed
 2546 0052 10BD     		pop	{r4, pc}
 2547              		.cfi_endproc
 2548              	.LFE273:
 2549              		.size	_ZL4gettPvm, .-_ZL4gettPvm
 2550              		.section	.text._ZL3getPv,"ax",%progbits
 2551              		.align	2
 2552              		.p2align 4,,15
 2553              		.thumb
 2554              		.thumb_func
 2555              		.type	_ZL3getPv, %function
 2556              	_ZL3getPv:
 2557              	.LFB277:
 2558              		.loc 1 302 0
 2559              		.cfi_startproc
 2560              		@ args = 0, pretend = 0, frame = 0
 2561              		@ frame_needed = 0, uses_anonymous_args = 0
 2562              		@ link register save eliminated.
 2563              	.LVL256:
 2564              		.loc 1 303 0
 2565 0000 4FF0FF31 		mov	r1, #-1
ARM GAS  /var/folders/m4/4md61f0s1_g0rzfghffqnxvr0000gn/T//ccmevqMd.s 			page 46


 2566 0004 FFF7FEBF 		b	_ZL4gettPvm
 2567              	.LVL257:
 2568              		.cfi_endproc
 2569              	.LFE277:
 2570              		.size	_ZL3getPv, .-_ZL3getPv
 2571              		.section	.text._ZL4readPvPhj,"ax",%progbits
 2572              		.align	2
 2573              		.p2align 4,,15
 2574              		.thumb
 2575              		.thumb_func
 2576              		.type	_ZL4readPvPhj, %function
 2577              	_ZL4readPvPhj:
 2578              	.LFB275:
 2579              		.loc 1 292 0
 2580              		.cfi_startproc
 2581              		@ args = 0, pretend = 0, frame = 0
 2582              		@ frame_needed = 0, uses_anonymous_args = 0
 2583              		@ link register save eliminated.
 2584              	.LVL258:
 2585              		.loc 1 293 0
 2586 0000 4FF0FF33 		mov	r3, #-1
 2587 0004 FFF7FEBF 		b	_ZL5readtPvPhjm
 2588              	.LVL259:
 2589              		.cfi_endproc
 2590              	.LFE275:
 2591              		.size	_ZL4readPvPhj, .-_ZL4readPvPhj
 2592              		.section	.text._Z15nrf24l01EnterTXP14NRF24L01Driver,"ax",%progbits
 2593              		.align	2
 2594              		.p2align 4,,15
 2595              		.global	_Z15nrf24l01EnterTXP14NRF24L01Driver
 2596              		.thumb
 2597              		.thumb_func
 2598              		.type	_Z15nrf24l01EnterTXP14NRF24L01Driver, %function
 2599              	_Z15nrf24l01EnterTXP14NRF24L01Driver:
 2600              	.LFB305:
 2601              		.loc 1 559 0
 2602              		.cfi_startproc
 2603              		@ args = 0, pretend = 0, frame = 0
 2604              		@ frame_needed = 0, uses_anonymous_args = 0
 2605              	.LVL260:
 2606 0000 38B5     		push	{r3, r4, r5, lr}
 2607              		.cfi_def_cfa_offset 16
 2608              		.cfi_offset 3, -16
 2609              		.cfi_offset 4, -12
 2610              		.cfi_offset 5, -8
 2611              		.cfi_offset 14, -4
 2612              	.LBB341:
 2613              		.loc 1 560 0
 2614 0002 D0F82431 		ldr	r3, [r0, #292]
 2615 0006 1989     		ldrh	r1, [r3, #8]
 2616 0008 5A68     		ldr	r2, [r3, #4]
 2617 000a 0124     		movs	r4, #1
 2618 000c 04FA01F3 		lsl	r3, r4, r1
 2619 0010 9BB2     		uxth	r3, r3
 2620 0012 5383     		strh	r3, [r2, #26]	@ movhi
 2621              		.loc 1 562 0
 2622 0014 0021     		movs	r1, #0
ARM GAS  /var/folders/m4/4md61f0s1_g0rzfghffqnxvr0000gn/T//ccmevqMd.s 			page 47


 2623              	.LBE341:
 2624              		.loc 1 559 0
 2625 0016 0546     		mov	r5, r0
 2626              	.LBB342:
 2627              		.loc 1 562 0
 2628 0018 FFF7FEFF 		bl	_Z20nrf24l01ReadRegisterP14NRF24L01Driverh
 2629              	.LVL261:
 2630              		.loc 1 564 0
 2631 001c 0021     		movs	r1, #0
 2632 001e 00F0FE02 		and	r2, r0, #254
 2633 0022 2846     		mov	r0, r5
 2634              	.LVL262:
 2635 0024 FFF7FEFF 		bl	_Z21nrf24l01WriteRegisterP14NRF24L01Driverhh
 2636              	.LVL263:
 2637              		.loc 1 566 0
 2638 0028 D5F82431 		ldr	r3, [r5, #292]
 2639 002c 1A89     		ldrh	r2, [r3, #8]
 2640 002e 5B68     		ldr	r3, [r3, #4]
 2641 0030 9440     		lsls	r4, r4, r2
 2642 0032 A4B2     		uxth	r4, r4
 2643 0034 1C83     		strh	r4, [r3, #24]	@ movhi
 2644 0036 38BD     		pop	{r3, r4, r5, pc}
 2645              	.LBE342:
 2646              		.cfi_endproc
 2647              	.LFE305:
 2648              		.size	_Z15nrf24l01EnterTXP14NRF24L01Driver, .-_Z15nrf24l01EnterTXP14NRF24L01Driver
 2649              		.section	.text._ZL6writetPvPKhjm,"ax",%progbits
 2650              		.align	2
 2651              		.p2align 4,,15
 2652              		.thumb
 2653              		.thumb_func
 2654              		.type	_ZL6writetPvPKhjm, %function
 2655              	_ZL6writetPvPKhjm:
 2656              	.LFB270:
 2657              		.loc 1 87 0
 2658              		.cfi_startproc
 2659              		@ args = 0, pretend = 0, frame = 24
 2660              		@ frame_needed = 0, uses_anonymous_args = 0
 2661              	.LVL264:
 2662 0000 2DE9F04F 		push	{r4, r5, r6, r7, r8, r9, r10, fp, lr}
 2663              		.cfi_def_cfa_offset 36
 2664              		.cfi_offset 4, -36
 2665              		.cfi_offset 5, -32
 2666              		.cfi_offset 6, -28
 2667              		.cfi_offset 7, -24
 2668              		.cfi_offset 8, -20
 2669              		.cfi_offset 9, -16
 2670              		.cfi_offset 10, -12
 2671              		.cfi_offset 11, -8
 2672              		.cfi_offset 14, -4
 2673              	.LBB343:
 2674              		.loc 1 89 0
 2675 0004 4668     		ldr	r6, [r0, #4]
 2676              	.LVL265:
 2677              		.loc 1 90 0
 2678 0006 8642     		cmp	r6, r0
 2679              	.LBE343:
ARM GAS  /var/folders/m4/4md61f0s1_g0rzfghffqnxvr0000gn/T//ccmevqMd.s 			page 48


 2680              		.loc 1 87 0
 2681 0008 87B0     		sub	sp, sp, #28
 2682              		.cfi_def_cfa_offset 64
 2683              	.LBB361:
 2684              		.loc 1 91 0
 2685 000a 18BF     		it	ne
 2686 000c 0025     		movne	r5, #0
 2687              		.loc 1 90 0
 2688 000e 03D0     		beq	.L166
 2689              	.LVL266:
 2690              	.L151:
 2691              	.LBE361:
 2692              		.loc 1 144 0
 2693 0010 2846     		mov	r0, r5
 2694 0012 07B0     		add	sp, sp, #28
 2695              		.cfi_remember_state
 2696              		.cfi_def_cfa_offset 36
 2697              		@ sp needed
 2698 0014 BDE8F08F 		pop	{r4, r5, r6, r7, r8, r9, r10, fp, pc}
 2699              	.LVL267:
 2700              	.L166:
 2701              		.cfi_restore_state
 2702              	.LBB362:
 2703              		.loc 1 93 0
 2704 0018 06F5907A 		add	r10, r6, #288
 2705              	.LVL268:
 2706              	.LBB344:
 2707              	.LBB345:
 2708              		.loc 3 193 0
 2709 001c 5046     		mov	r0, r10
 2710              	.LVL269:
 2711 001e 9946     		mov	r9, r3
 2712 0020 1746     		mov	r7, r2
 2713 0022 4FF0FF33 		mov	r3, #-1
 2714              	.LVL270:
 2715 0026 0122     		movs	r2, #1
 2716              	.LVL271:
 2717 0028 8846     		mov	r8, r1
 2718 002a 01A9     		add	r1, sp, #4
 2719              	.LVL272:
 2720 002c FFF7FEFF 		bl	chEvtRegisterMaskWithFlags
 2721              	.LVL273:
 2722              	.LBE345:
 2723              	.LBE344:
 2724              		.loc 1 98 0
 2725 0030 3046     		mov	r0, r6
 2726 0032 FFF7FEFF 		bl	_Z17nrf24l01GetStatusP14NRF24L01Driver
 2727              	.LVL274:
 2728              		.loc 1 100 0
 2729 0036 10F00105 		ands	r5, r0, #1
 2730 003a 27D1     		bne	.L167
 2731              		.loc 1 106 0
 2732 003c 3046     		mov	r0, r6
 2733              	.LVL275:
 2734 003e FFF7FEFF 		bl	_Z15nrf24l01EnterTXP14NRF24L01Driver
 2735              	.LVL276:
 2736              		.loc 1 108 0
ARM GAS  /var/folders/m4/4md61f0s1_g0rzfghffqnxvr0000gn/T//ccmevqMd.s 			page 49


 2737 0042 4FB3     		cbz	r7, .L159
 2738 0044 AB46     		mov	fp, r5
 2739 0046 05E0     		b	.L157
 2740              	.LVL277:
 2741              	.L156:
 2742              	.LBB346:
 2743              		.loc 1 135 0
 2744 0048 5C44     		add	r4, r4, fp
 2745              	.LVL278:
 2746 004a 1FFA84FB 		uxth	fp, r4
 2747              	.LVL279:
 2748              	.LBE346:
 2749              		.loc 1 108 0
 2750 004e BB45     		cmp	fp, r7
 2751 0050 5D46     		mov	r5, fp
 2752              	.LVL280:
 2753 0052 22D2     		bcs	.L153
 2754              	.LVL281:
 2755              	.L157:
 2756              	.LBB355:
 2757              		.loc 1 110 0
 2758 0054 7C1B     		subs	r4, r7, r5
 2759 0056 202C     		cmp	r4, #32
 2760 0058 28BF     		it	cs
 2761 005a 2024     		movcs	r4, #32
 2762              	.LVL282:
 2763              	.LBB347:
 2764              	.LBB348:
 2765 005c E1B2     		uxtb	r1, r4
 2766 005e 3046     		mov	r0, r6
 2767 0060 08EB0502 		add	r2, r8, r5
 2768              	.LVL283:
 2769 0064 FFF7FEFF 		bl	_Z20nrf24l01WritePayloadP14NRF24L01DriverhPKh.part.3
 2770              	.LVL284:
 2771              	.LBE348:
 2772              	.LBE347:
 2773              		.loc 1 114 0
 2774 0068 0120     		movs	r0, #1
 2775 006a 4946     		mov	r1, r9
 2776 006c FFF7FEFF 		bl	chEvtWaitOneTimeout
 2777              	.LVL285:
 2778 0070 28B3     		cbz	r0, .L168
 2779              		.loc 1 121 0
 2780 0072 3046     		mov	r0, r6
 2781 0074 FFF7FEFF 		bl	_Z17nrf24l01GetStatusP14NRF24L01Driver
 2782              	.LVL286:
 2783              		.loc 1 123 0
 2784 0078 C206     		lsls	r2, r0, #27
 2785 007a 2DD4     		bmi	.L169
 2786              		.loc 1 132 0
 2787 007c 8306     		lsls	r3, r0, #26
 2788 007e E3D5     		bpl	.L156
 2789              	.LVL287:
 2790              	.LBB349:
 2791              	.LBB350:
 2792              		.loc 1 409 0
 2793 0080 3046     		mov	r0, r6
ARM GAS  /var/folders/m4/4md61f0s1_g0rzfghffqnxvr0000gn/T//ccmevqMd.s 			page 50


 2794              	.LVL288:
 2795 0082 0721     		movs	r1, #7
 2796 0084 2022     		movs	r2, #32
 2797 0086 FFF7FEFF 		bl	_Z21nrf24l01WriteRegisterP14NRF24L01Driverhh
 2798              	.LVL289:
 2799 008a DDE7     		b	.L156
 2800              	.LVL290:
 2801              	.L167:
 2802              	.LBE350:
 2803              	.LBE349:
 2804              	.LBE355:
 2805              		.loc 1 102 0
 2806 008c 5046     		mov	r0, r10
 2807              	.LVL291:
 2808 008e 01A9     		add	r1, sp, #4
 2809              	.LVL292:
 2810 0090 FFF7FEFF 		bl	chEvtUnregister
 2811              	.LVL293:
 2812              		.loc 1 103 0
 2813 0094 0025     		movs	r5, #0
 2814 0096 BBE7     		b	.L151
 2815              	.L159:
 2816              		.loc 1 108 0
 2817 0098 3D46     		mov	r5, r7
 2818              	.LVL294:
 2819              	.L153:
 2820              	.LBB356:
 2821              	.LBB357:
 2822              		.loc 1 571 0
 2823 009a D6F82431 		ldr	r3, [r6, #292]
 2824 009e 1989     		ldrh	r1, [r3, #8]
 2825 00a0 5A68     		ldr	r2, [r3, #4]
 2826 00a2 0123     		movs	r3, #1
 2827 00a4 8B40     		lsls	r3, r3, r1
 2828 00a6 9BB2     		uxth	r3, r3
 2829              	.LBE357:
 2830              	.LBE356:
 2831              		.loc 1 140 0
 2832 00a8 06F12C00 		add	r0, r6, #44
 2833              	.LBB359:
 2834              	.LBB358:
 2835              		.loc 1 571 0
 2836 00ac 5383     		strh	r3, [r2, #26]	@ movhi
 2837              	.LBE358:
 2838              	.LBE359:
 2839              		.loc 1 140 0
 2840 00ae 1821     		movs	r1, #24
 2841 00b0 FFF7FEFF 		bl	chEvtBroadcastFlags
 2842              	.LVL295:
 2843              		.loc 1 141 0
 2844 00b4 5046     		mov	r0, r10
 2845 00b6 01A9     		add	r1, sp, #4
 2846              	.LVL296:
 2847 00b8 FFF7FEFF 		bl	chEvtUnregister
 2848              	.LVL297:
 2849              		.loc 1 143 0
 2850 00bc A8E7     		b	.L151
ARM GAS  /var/folders/m4/4md61f0s1_g0rzfghffqnxvr0000gn/T//ccmevqMd.s 			page 51


 2851              	.LVL298:
 2852              	.L168:
 2853              	.LBB360:
 2854              		.loc 1 116 0
 2855 00be 5046     		mov	r0, r10
 2856 00c0 01A9     		add	r1, sp, #4
 2857              	.LVL299:
 2858 00c2 FFF7FEFF 		bl	chEvtUnregister
 2859              	.LVL300:
 2860              	.L165:
 2861              	.LBB351:
 2862              	.LBB352:
 2863              		.loc 1 571 0
 2864 00c6 D6F82431 		ldr	r3, [r6, #292]
 2865 00ca 1989     		ldrh	r1, [r3, #8]
 2866 00cc 5A68     		ldr	r2, [r3, #4]
 2867 00ce 0123     		movs	r3, #1
 2868 00d0 8B40     		lsls	r3, r3, r1
 2869 00d2 9BB2     		uxth	r3, r3
 2870 00d4 5383     		strh	r3, [r2, #26]	@ movhi
 2871              	.LBE352:
 2872              	.LBE351:
 2873              		.loc 1 129 0
 2874 00d6 9BE7     		b	.L151
 2875              	.LVL301:
 2876              	.L169:
 2877              		.loc 1 125 0
 2878 00d8 5046     		mov	r0, r10
 2879              	.LVL302:
 2880 00da 01A9     		add	r1, sp, #4
 2881              	.LVL303:
 2882 00dc FFF7FEFF 		bl	chEvtUnregister
 2883              	.LVL304:
 2884              	.LBB353:
 2885              	.LBB354:
 2886              		.loc 1 409 0
 2887 00e0 3046     		mov	r0, r6
 2888 00e2 0721     		movs	r1, #7
 2889 00e4 1022     		movs	r2, #16
 2890 00e6 FFF7FEFF 		bl	_Z21nrf24l01WriteRegisterP14NRF24L01Driverhh
 2891              	.LVL305:
 2892              	.LBE354:
 2893              	.LBE353:
 2894              		.loc 1 127 0
 2895 00ea 3046     		mov	r0, r6
 2896 00ec FFF7FEFF 		bl	_Z15nrf24l01FlushTXP14NRF24L01Driver
 2897              	.LVL306:
 2898 00f0 E9E7     		b	.L165
 2899              	.LBE360:
 2900              	.LBE362:
 2901              		.cfi_endproc
 2902              	.LFE270:
 2903              		.size	_ZL6writetPvPKhjm, .-_ZL6writetPvPKhjm
 2904 00f2 00BF     		.section	.text._ZL4puttPvhm,"ax",%progbits
 2905              		.align	2
 2906              		.p2align 4,,15
 2907              		.thumb
ARM GAS  /var/folders/m4/4md61f0s1_g0rzfghffqnxvr0000gn/T//ccmevqMd.s 			page 52


 2908              		.thumb_func
 2909              		.type	_ZL4puttPvhm, %function
 2910              	_ZL4puttPvhm:
 2911              	.LFB272:
 2912              		.loc 1 248 0
 2913              		.cfi_startproc
 2914              		@ args = 0, pretend = 0, frame = 8
 2915              		@ frame_needed = 0, uses_anonymous_args = 0
 2916              	.LVL307:
 2917 0000 10B5     		push	{r4, lr}
 2918              		.cfi_def_cfa_offset 8
 2919              		.cfi_offset 4, -8
 2920              		.cfi_offset 14, -4
 2921 0002 82B0     		sub	sp, sp, #8
 2922              		.cfi_def_cfa_offset 16
 2923              		.loc 1 248 0
 2924 0004 02AC     		add	r4, sp, #8
 2925 0006 1346     		mov	r3, r2
 2926 0008 04F8011D 		strb	r1, [r4, #-1]!
 2927              		.loc 1 249 0
 2928 000c 0122     		movs	r2, #1
 2929              	.LVL308:
 2930 000e 2146     		mov	r1, r4
 2931              	.LVL309:
 2932 0010 FFF7FEFF 		bl	_ZL6writetPvPKhjm
 2933              	.LVL310:
 2934 0014 B0FA80F0 		clz	r0, r0
 2935 0018 4009     		lsrs	r0, r0, #5
 2936              		.loc 1 252 0
 2937 001a 4042     		negs	r0, r0
 2938 001c 02B0     		add	sp, sp, #8
 2939              		.cfi_def_cfa_offset 8
 2940              		@ sp needed
 2941 001e 10BD     		pop	{r4, pc}
 2942              		.cfi_endproc
 2943              	.LFE272:
 2944              		.size	_ZL4puttPvhm, .-_ZL4puttPvhm
 2945              		.section	.text._ZL3putPvh,"ax",%progbits
 2946              		.align	2
 2947              		.p2align 4,,15
 2948              		.thumb
 2949              		.thumb_func
 2950              		.type	_ZL3putPvh, %function
 2951              	_ZL3putPvh:
 2952              	.LFB276:
 2953              		.loc 1 297 0
 2954              		.cfi_startproc
 2955              		@ args = 0, pretend = 0, frame = 8
 2956              		@ frame_needed = 0, uses_anonymous_args = 0
 2957              	.LVL311:
 2958 0000 10B5     		push	{r4, lr}
 2959              		.cfi_def_cfa_offset 8
 2960              		.cfi_offset 4, -8
 2961              		.cfi_offset 14, -4
 2962 0002 82B0     		sub	sp, sp, #8
 2963              		.cfi_def_cfa_offset 16
 2964 0004 02AC     		add	r4, sp, #8
ARM GAS  /var/folders/m4/4md61f0s1_g0rzfghffqnxvr0000gn/T//ccmevqMd.s 			page 53


 2965              	.LBB363:
 2966              	.LBB364:
 2967              		.loc 1 249 0
 2968 0006 0122     		movs	r2, #1
 2969 0008 04F8011D 		strb	r1, [r4, #-1]!
 2970              	.LVL312:
 2971 000c 4FF0FF33 		mov	r3, #-1
 2972 0010 2146     		mov	r1, r4
 2973              	.LVL313:
 2974 0012 FFF7FEFF 		bl	_ZL6writetPvPKhjm
 2975              	.LVL314:
 2976 0016 B0FA80F0 		clz	r0, r0
 2977 001a 4009     		lsrs	r0, r0, #5
 2978              	.LBE364:
 2979              	.LBE363:
 2980              		.loc 1 299 0
 2981 001c 4042     		negs	r0, r0
 2982 001e 02B0     		add	sp, sp, #8
 2983              		.cfi_def_cfa_offset 8
 2984              		@ sp needed
 2985 0020 10BD     		pop	{r4, pc}
 2986              		.cfi_endproc
 2987              	.LFE276:
 2988              		.size	_ZL3putPvh, .-_ZL3putPvh
 2989 0022 00BF     		.section	.text._ZL5writePvPKhj,"ax",%progbits
 2990              		.align	2
 2991              		.p2align 4,,15
 2992              		.thumb
 2993              		.thumb_func
 2994              		.type	_ZL5writePvPKhj, %function
 2995              	_ZL5writePvPKhj:
 2996              	.LFB274:
 2997              		.loc 1 287 0
 2998              		.cfi_startproc
 2999              		@ args = 0, pretend = 0, frame = 0
 3000              		@ frame_needed = 0, uses_anonymous_args = 0
 3001              		@ link register save eliminated.
 3002              	.LVL315:
 3003              		.loc 1 288 0
 3004 0000 4FF0FF33 		mov	r3, #-1
 3005 0004 FFF7FEBF 		b	_ZL6writetPvPKhjm
 3006              	.LVL316:
 3007              		.cfi_endproc
 3008              	.LFE274:
 3009              		.size	_ZL5writePvPKhj, .-_ZL5writePvPKhj
 3010              		.section	.text._Z20nrf24l01EnterStandbyP14NRF24L01Driver,"ax",%progbits
 3011              		.align	2
 3012              		.p2align 4,,15
 3013              		.global	_Z20nrf24l01EnterStandbyP14NRF24L01Driver
 3014              		.thumb
 3015              		.thumb_func
 3016              		.type	_Z20nrf24l01EnterStandbyP14NRF24L01Driver, %function
 3017              	_Z20nrf24l01EnterStandbyP14NRF24L01Driver:
 3018              	.LFB306:
 3019              		.loc 1 570 0
 3020              		.cfi_startproc
 3021              		@ args = 0, pretend = 0, frame = 0
ARM GAS  /var/folders/m4/4md61f0s1_g0rzfghffqnxvr0000gn/T//ccmevqMd.s 			page 54


 3022              		@ frame_needed = 0, uses_anonymous_args = 0
 3023              		@ link register save eliminated.
 3024              	.LVL317:
 3025              		.loc 1 571 0
 3026 0000 D0F82431 		ldr	r3, [r0, #292]
 3027 0004 1989     		ldrh	r1, [r3, #8]
 3028 0006 5A68     		ldr	r2, [r3, #4]
 3029 0008 0123     		movs	r3, #1
 3030 000a 8B40     		lsls	r3, r3, r1
 3031 000c 9BB2     		uxth	r3, r3
 3032 000e 5383     		strh	r3, [r2, #26]	@ movhi
 3033 0010 7047     		bx	lr
 3034              		.cfi_endproc
 3035              	.LFE306:
 3036              		.size	_Z20nrf24l01EnterStandbyP14NRF24L01Driver, .-_Z20nrf24l01EnterStandbyP14NRF24L01Driver
 3037 0012 00BF     		.section	.text._Z19nrf24l01EnablePipesP14NRF24L01Driverh,"ax",%progbits
 3038              		.align	2
 3039              		.p2align 4,,15
 3040              		.global	_Z19nrf24l01EnablePipesP14NRF24L01Driverh
 3041              		.thumb
 3042              		.thumb_func
 3043              		.type	_Z19nrf24l01EnablePipesP14NRF24L01Driverh, %function
 3044              	_Z19nrf24l01EnablePipesP14NRF24L01Driverh:
 3045              	.LFB307:
 3046              		.loc 1 575 0
 3047              		.cfi_startproc
 3048              		@ args = 0, pretend = 0, frame = 0
 3049              		@ frame_needed = 0, uses_anonymous_args = 0
 3050              	.LVL318:
 3051 0000 38B5     		push	{r3, r4, r5, lr}
 3052              		.cfi_def_cfa_offset 16
 3053              		.cfi_offset 3, -16
 3054              		.cfi_offset 4, -12
 3055              		.cfi_offset 5, -8
 3056              		.cfi_offset 14, -4
 3057              		.loc 1 575 0
 3058 0002 0C46     		mov	r4, r1
 3059              	.LBB365:
 3060              		.loc 1 576 0
 3061 0004 0221     		movs	r1, #2
 3062              	.LVL319:
 3063              	.LBE365:
 3064              		.loc 1 575 0
 3065 0006 0546     		mov	r5, r0
 3066              	.LBB366:
 3067              		.loc 1 576 0
 3068 0008 FFF7FEFF 		bl	_Z20nrf24l01ReadRegisterP14NRF24L01Driverh
 3069              	.LVL320:
 3070              		.loc 1 577 0
 3071 000c 04F03F04 		and	r4, r4, #63
 3072 0010 20EA0402 		bic	r2, r0, r4
 3073              	.LVL321:
 3074              		.loc 1 578 0
 3075 0014 D2B2     		uxtb	r2, r2
 3076 0016 2846     		mov	r0, r5
 3077 0018 0221     		movs	r1, #2
 3078              	.LBE366:
ARM GAS  /var/folders/m4/4md61f0s1_g0rzfghffqnxvr0000gn/T//ccmevqMd.s 			page 55


 3079              		.loc 1 579 0
 3080 001a BDE83840 		pop	{r3, r4, r5, lr}
 3081              		.cfi_restore 14
 3082              		.cfi_restore 5
 3083              		.cfi_restore 4
 3084              		.cfi_restore 3
 3085              		.cfi_def_cfa_offset 0
 3086              	.LVL322:
 3087              	.LBB367:
 3088              		.loc 1 578 0
 3089 001e FFF7FEBF 		b	_Z21nrf24l01WriteRegisterP14NRF24L01Driverhh
 3090              	.LVL323:
 3091              	.LBE367:
 3092              		.cfi_endproc
 3093              	.LFE307:
 3094              		.size	_Z19nrf24l01EnablePipesP14NRF24L01Driverh, .-_Z19nrf24l01EnablePipesP14NRF24L01Driverh
 3095 0022 00BF     		.section	.text._Z14nrf24l01ExtIRQP14NRF24L01Driver,"ax",%progbits
 3096              		.align	2
 3097              		.p2align 4,,15
 3098              		.global	_Z14nrf24l01ExtIRQP14NRF24L01Driver
 3099              		.thumb
 3100              		.thumb_func
 3101              		.type	_Z14nrf24l01ExtIRQP14NRF24L01Driver, %function
 3102              	_Z14nrf24l01ExtIRQP14NRF24L01Driver:
 3103              	.LFB308:
 3104              		.loc 1 582 0
 3105              		.cfi_startproc
 3106              		@ args = 0, pretend = 0, frame = 0
 3107              		@ frame_needed = 0, uses_anonymous_args = 0
 3108              	.LVL324:
 3109 0000 08B5     		push	{r3, lr}
 3110              		.cfi_def_cfa_offset 8
 3111              		.cfi_offset 3, -8
 3112              		.cfi_offset 14, -4
 3113              	.LBB368:
 3114              	.LBB369:
 3115              	.LBB370:
 3116              	.LBB371:
 3117              	.LBB372:
 3118              		.loc 2 548 0
 3119 0002 2023     		movs	r3, #32
 3120              	@ 548 "ChibiOS_16.1.4/os/ext/CMSIS/include/core_cmFunc.h" 1
 3121 0004 83F31188 		MSR basepri, r3
 3122              	@ 0 "" 2
 3123              		.thumb
 3124              	.LBE372:
 3125              	.LBE371:
 3126              	.LBE370:
 3127              	.LBE369:
 3128              	.LBE368:
 3129              		.loc 1 584 0
 3130 0008 0121     		movs	r1, #1
 3131 000a 00F59070 		add	r0, r0, #288
 3132              	.LVL325:
 3133 000e FFF7FEFF 		bl	chEvtBroadcastFlagsI
 3134              	.LVL326:
 3135              	.LBB373:
ARM GAS  /var/folders/m4/4md61f0s1_g0rzfghffqnxvr0000gn/T//ccmevqMd.s 			page 56


 3136              	.LBB374:
 3137              	.LBB375:
 3138              	.LBB376:
 3139              	.LBB377:
 3140              		.loc 2 548 0
 3141 0012 0023     		movs	r3, #0
 3142              	@ 548 "ChibiOS_16.1.4/os/ext/CMSIS/include/core_cmFunc.h" 1
 3143 0014 83F31188 		MSR basepri, r3
 3144              	@ 0 "" 2
 3145              		.thumb
 3146 0018 08BD     		pop	{r3, pc}
 3147              	.LBE377:
 3148              	.LBE376:
 3149              	.LBE375:
 3150              	.LBE374:
 3151              	.LBE373:
 3152              		.cfi_endproc
 3153              	.LFE308:
 3154              		.size	_Z14nrf24l01ExtIRQP14NRF24L01Driver, .-_Z14nrf24l01ExtIRQP14NRF24L01Driver
 3155              		.global	nrf24l01
 3156 001a 00BF     		.section	.rodata
 3157              		.align	2
 3158              		.set	.LANCHOR2,. + 0
 3159              	.LC0:
 3160 0000 50       		.byte	80
 3161 0001 73       		.byte	115
 3162              		.section	.rodata._ZL4addr,"a",%progbits
 3163              		.align	2
 3164              		.set	.LANCHOR6,. + 0
 3165              		.type	_ZL4addr, %object
 3166              		.size	_ZL4addr, 5
 3167              	_ZL4addr:
 3168 0000 51554144 		.ascii	"QUAD\000"
 3168      00
 3169              		.section	.rodata._ZL6extcfg,"a",%progbits
 3170              		.align	2
 3171              		.set	.LANCHOR4,. + 0
 3172              		.type	_ZL6extcfg, %object
 3173              		.size	_ZL6extcfg, 184
 3174              	_ZL6extcfg:
 3175 0000 00000000 		.word	0
 3176 0004 00000000 		.word	0
 3177 0008 00000000 		.word	0
 3178 000c 00000000 		.word	0
 3179 0010 00000000 		.word	0
 3180 0014 00000000 		.word	0
 3181 0018 00000000 		.word	0
 3182 001c 00000000 		.word	0
 3183 0020 00000000 		.word	0
 3184 0024 00000000 		.word	0
 3185 0028 00000000 		.word	0
 3186 002c 00000000 		.word	0
 3187 0030 00000000 		.word	0
 3188 0034 00000000 		.word	0
 3189 0038 00000000 		.word	0
 3190 003c 00000000 		.word	0
 3191 0040 00000000 		.word	0
ARM GAS  /var/folders/m4/4md61f0s1_g0rzfghffqnxvr0000gn/T//ccmevqMd.s 			page 57


 3192 0044 00000000 		.word	0
 3193 0048 00000000 		.word	0
 3194 004c 00000000 		.word	0
 3195 0050 00000000 		.word	0
 3196 0054 00000000 		.word	0
 3197 0058 00000000 		.word	0
 3198 005c 00000000 		.word	0
 3199 0060 00000000 		.word	0
 3200 0064 00000000 		.word	0
 3201 0068 00000000 		.word	0
 3202 006c 00000000 		.word	0
 3203 0070 00000000 		.word	0
 3204 0074 00000000 		.word	0
 3205 0078 26000000 		.word	38
 3206 007c 00000000 		.word	_ZL14nrfExtCallbackP9EXTDriverm
 3207 0080 00000000 		.word	0
 3208 0084 00000000 		.word	0
 3209 0088 00000000 		.word	0
 3210 008c 00000000 		.word	0
 3211 0090 00000000 		.word	0
 3212 0094 00000000 		.word	0
 3213 0098 00000000 		.word	0
 3214 009c 00000000 		.word	0
 3215 00a0 00000000 		.word	0
 3216 00a4 00000000 		.word	0
 3217 00a8 00000000 		.word	0
 3218 00ac 00000000 		.word	0
 3219 00b0 00000000 		.word	0
 3220 00b4 00000000 		.word	0
 3221              		.section	.rodata._ZL14nrf24l01Config,"a",%progbits
 3222              		.align	2
 3223              		.set	.LANCHOR5,. + 0
 3224              		.type	_ZL14nrf24l01Config, %object
 3225              		.size	_ZL14nrf24l01Config, 12
 3226              	_ZL14nrf24l01Config:
 3227 0000 00000000 		.word	SPID1
 3228 0004 00040240 		.word	1073873920
 3229 0008 0100     		.short	1
 3230 000a 0000     		.space	2
 3231              		.section	.rodata._ZL3vmt,"a",%progbits
 3232              		.align	2
 3233              		.set	.LANCHOR1,. + 0
 3234              		.type	_ZL3vmt, %object
 3235              		.size	_ZL3vmt, 32
 3236              	_ZL3vmt:
 3237 0000 00000000 		.word	_ZL5writePvPKhj
 3238 0004 00000000 		.word	_ZL4readPvPhj
 3239 0008 00000000 		.word	_ZL3putPvh
 3240 000c 00000000 		.word	_ZL3getPv
 3241 0010 00000000 		.word	_ZL4puttPvhm
 3242 0014 00000000 		.word	_ZL4gettPvm
 3243 0018 00000000 		.word	_ZL6writetPvPKhjm
 3244 001c 00000000 		.word	_ZL5readtPvPhjm
 3245              		.section	.bss.nrf24l01,"aw",%nobits
 3246              		.align	2
 3247              		.set	.LANCHOR0,. + 0
 3248              		.type	nrf24l01, %object
ARM GAS  /var/folders/m4/4md61f0s1_g0rzfghffqnxvr0000gn/T//ccmevqMd.s 			page 58


 3249              		.size	nrf24l01, 296
 3250              	nrf24l01:
 3251 0000 00000000 		.space	296
 3251      00000000 
 3251      00000000 
 3251      00000000 
 3251      00000000 
 3252              		.section	.rodata._ZL11nrf24l01SPI,"a",%progbits
 3253              		.align	2
 3254              		.set	.LANCHOR3,. + 0
 3255              		.type	_ZL11nrf24l01SPI, %object
 3256              		.size	_ZL11nrf24l01SPI, 12
 3257              	_ZL11nrf24l01SPI:
 3258 0000 00000000 		.word	0
 3259 0004 00000240 		.word	1073872896
 3260 0008 0400     		.short	4
 3261 000a 0800     		.short	8
 3262              		.text
 3263              	.Letext0:
 3264              		.file 4 "/usr/local/Cellar/gcc-arm-none-eabi-49/20150609/lib/gcc/arm-none-eabi/4.9.3/include/stdde
 3265              		.file 5 "/usr/local/Cellar/gcc-arm-none-eabi-49/20150609/arm-none-eabi/include/machine/_default_ty
 3266              		.file 6 "/usr/local/Cellar/gcc-arm-none-eabi-49/20150609/arm-none-eabi/include/sys/_stdint.h"
 3267              		.file 7 "ChibiOS_16.1.4/os/rt/ports/ARMCMx/compilers/GCC/chtypes.h"
 3268              		.file 8 "ChibiOS_16.1.4/os/rt/include/chsystypes.h"
 3269              		.file 9 "ChibiOS_16.1.4/os/rt/include/chschd.h"
 3270              		.file 10 "ChibiOS_16.1.4/os/ext/CMSIS/ST/STM32F4xx/stm32f446xx.h"
 3271              		.file 11 "ChibiOS_16.1.4/os/ext/CMSIS/ST/STM32F4xx/stm32f4xx.h"
 3272              		.file 12 "ChibiOS_16.1.4/os/rt/ports/ARMCMx/chcore.h"
 3273              		.file 13 "ChibiOS_16.1.4/os/rt/ports/ARMCMx/chcore_v7m.h"
 3274              		.file 14 "ChibiOS_16.1.4/os/rt/include/chtm.h"
 3275              		.file 15 "ChibiOS_16.1.4/os/rt/include/chsem.h"
 3276              		.file 16 "ChibiOS_16.1.4/os/rt/include/chmtx.h"
 3277              		.file 17 "ChibiOS_16.1.4/os/hal/ports/STM32/LLD/DMAv2/stm32_dma.h"
 3278              		.file 18 "ChibiOS_16.1.4/os/hal/ports/STM32/LLD/GPIOv2/pal_lld.h"
 3279              		.file 19 "ChibiOS_16.1.4/os/hal/include/ext.h"
 3280              		.file 20 "ChibiOS_16.1.4/os/hal/ports/STM32/LLD/EXTIv1/ext_lld.h"
 3281              		.file 21 "ChibiOS_16.1.4/os/hal/include/spi.h"
 3282              		.file 22 "ChibiOS_16.1.4/os/hal/ports/STM32/LLD/SPIv1/spi_lld.h"
 3283              		.file 23 "nrf24l01.h"
 3284              		.file 24 "ChibiOS_16.1.4/os/rt/include/chsys.h"
 3285              		.file 25 "ChibiOS_16.1.4/os/ext/CMSIS/include/core_cm4.h"
 3286              		.section	.debug_info,"",%progbits
 3287              	.Ldebug_info0:
 3288 0000 85310000 		.4byte	0x3185
 3289 0004 0400     		.2byte	0x4
 3290 0006 00000000 		.4byte	.Ldebug_abbrev0
 3291 000a 04       		.byte	0x4
 3292 000b 01       		.uleb128 0x1
 3293 000c 99040000 		.4byte	.LASF330
 3294 0010 04       		.byte	0x4
 3295 0011 EC010000 		.4byte	.LASF331
 3296 0015 36130000 		.4byte	.LASF332
 3297 0019 70040000 		.4byte	.Ldebug_ranges0+0x470
 3298 001d 00000000 		.4byte	0
 3299 0021 00000000 		.4byte	.Ldebug_line0
 3300 0025 02       		.uleb128 0x2
 3301 0026 04       		.byte	0x4
ARM GAS  /var/folders/m4/4md61f0s1_g0rzfghffqnxvr0000gn/T//ccmevqMd.s 			page 59


 3302 0027 05       		.byte	0x5
 3303 0028 696E7400 		.ascii	"int\000"
 3304 002c 03       		.uleb128 0x3
 3305 002d 18000000 		.4byte	.LASF4
 3306 0031 04       		.byte	0x4
 3307 0032 D4       		.byte	0xd4
 3308 0033 37000000 		.4byte	0x37
 3309 0037 04       		.uleb128 0x4
 3310 0038 04       		.byte	0x4
 3311 0039 07       		.byte	0x7
 3312 003a 970A0000 		.4byte	.LASF0
 3313 003e 04       		.uleb128 0x4
 3314 003f 08       		.byte	0x8
 3315 0040 05       		.byte	0x5
 3316 0041 29090000 		.4byte	.LASF1
 3317 0045 04       		.uleb128 0x4
 3318 0046 08       		.byte	0x8
 3319 0047 04       		.byte	0x4
 3320 0048 490C0000 		.4byte	.LASF2
 3321 004c 05       		.uleb128 0x5
 3322 004d 4E040000 		.4byte	.LASF333
 3323 0051 04       		.uleb128 0x4
 3324 0052 01       		.byte	0x1
 3325 0053 06       		.byte	0x6
 3326 0054 F8020000 		.4byte	.LASF3
 3327 0058 03       		.uleb128 0x3
 3328 0059 DD010000 		.4byte	.LASF5
 3329 005d 05       		.byte	0x5
 3330 005e 1D       		.byte	0x1d
 3331 005f 63000000 		.4byte	0x63
 3332 0063 04       		.uleb128 0x4
 3333 0064 01       		.byte	0x1
 3334 0065 08       		.byte	0x8
 3335 0066 49030000 		.4byte	.LASF6
 3336 006a 04       		.uleb128 0x4
 3337 006b 02       		.byte	0x2
 3338 006c 05       		.byte	0x5
 3339 006d D50F0000 		.4byte	.LASF7
 3340 0071 03       		.uleb128 0x3
 3341 0072 3C040000 		.4byte	.LASF8
 3342 0076 05       		.byte	0x5
 3343 0077 2B       		.byte	0x2b
 3344 0078 7C000000 		.4byte	0x7c
 3345 007c 04       		.uleb128 0x4
 3346 007d 02       		.byte	0x2
 3347 007e 07       		.byte	0x7
 3348 007f 29120000 		.4byte	.LASF9
 3349 0083 03       		.uleb128 0x3
 3350 0084 93120000 		.4byte	.LASF10
 3351 0088 05       		.byte	0x5
 3352 0089 3F       		.byte	0x3f
 3353 008a 8E000000 		.4byte	0x8e
 3354 008e 04       		.uleb128 0x4
 3355 008f 04       		.byte	0x4
 3356 0090 05       		.byte	0x5
 3357 0091 46020000 		.4byte	.LASF11
 3358 0095 03       		.uleb128 0x3
ARM GAS  /var/folders/m4/4md61f0s1_g0rzfghffqnxvr0000gn/T//ccmevqMd.s 			page 60


 3359 0096 B4080000 		.4byte	.LASF12
 3360 009a 05       		.byte	0x5
 3361 009b 41       		.byte	0x41
 3362 009c A0000000 		.4byte	0xa0
 3363 00a0 04       		.uleb128 0x4
 3364 00a1 04       		.byte	0x4
 3365 00a2 07       		.byte	0x7
 3366 00a3 E8070000 		.4byte	.LASF13
 3367 00a7 04       		.uleb128 0x4
 3368 00a8 08       		.byte	0x8
 3369 00a9 07       		.byte	0x7
 3370 00aa AD0D0000 		.4byte	.LASF14
 3371 00ae 03       		.uleb128 0x3
 3372 00af 0B030000 		.4byte	.LASF15
 3373 00b3 06       		.byte	0x6
 3374 00b4 14       		.byte	0x14
 3375 00b5 58000000 		.4byte	0x58
 3376 00b9 03       		.uleb128 0x3
 3377 00ba F10D0000 		.4byte	.LASF16
 3378 00be 06       		.byte	0x6
 3379 00bf 1A       		.byte	0x1a
 3380 00c0 71000000 		.4byte	0x71
 3381 00c4 03       		.uleb128 0x3
 3382 00c5 9B000000 		.4byte	.LASF17
 3383 00c9 06       		.byte	0x6
 3384 00ca 1F       		.byte	0x1f
 3385 00cb 83000000 		.4byte	0x83
 3386 00cf 03       		.uleb128 0x3
 3387 00d0 49110000 		.4byte	.LASF18
 3388 00d4 06       		.byte	0x6
 3389 00d5 20       		.byte	0x20
 3390 00d6 95000000 		.4byte	0x95
 3391 00da 03       		.uleb128 0x3
 3392 00db CC0A0000 		.4byte	.LASF19
 3393 00df 07       		.byte	0x7
 3394 00e0 39       		.byte	0x39
 3395 00e1 CF000000 		.4byte	0xcf
 3396 00e5 03       		.uleb128 0x3
 3397 00e6 620F0000 		.4byte	.LASF20
 3398 00ea 07       		.byte	0x7
 3399 00eb 3C       		.byte	0x3c
 3400 00ec AE000000 		.4byte	0xae
 3401 00f0 03       		.uleb128 0x3
 3402 00f1 9B020000 		.4byte	.LASF21
 3403 00f5 07       		.byte	0x7
 3404 00f6 3D       		.byte	0x3d
 3405 00f7 AE000000 		.4byte	0xae
 3406 00fb 03       		.uleb128 0x3
 3407 00fc D5100000 		.4byte	.LASF22
 3408 0100 07       		.byte	0x7
 3409 0101 3E       		.byte	0x3e
 3410 0102 AE000000 		.4byte	0xae
 3411 0106 03       		.uleb128 0x3
 3412 0107 3D0E0000 		.4byte	.LASF23
 3413 010b 07       		.byte	0x7
 3414 010c 3F       		.byte	0x3f
 3415 010d AE000000 		.4byte	0xae
ARM GAS  /var/folders/m4/4md61f0s1_g0rzfghffqnxvr0000gn/T//ccmevqMd.s 			page 61


 3416 0111 03       		.uleb128 0x3
 3417 0112 5C000000 		.4byte	.LASF24
 3418 0116 07       		.byte	0x7
 3419 0117 40       		.byte	0x40
 3420 0118 CF000000 		.4byte	0xcf
 3421 011c 03       		.uleb128 0x3
 3422 011d FA0D0000 		.4byte	.LASF25
 3423 0121 07       		.byte	0x7
 3424 0122 41       		.byte	0x41
 3425 0123 C4000000 		.4byte	0xc4
 3426 0127 03       		.uleb128 0x3
 3427 0128 1C030000 		.4byte	.LASF26
 3428 012c 07       		.byte	0x7
 3429 012d 43       		.byte	0x43
 3430 012e CF000000 		.4byte	0xcf
 3431 0132 03       		.uleb128 0x3
 3432 0133 110E0000 		.4byte	.LASF27
 3433 0137 07       		.byte	0x7
 3434 0138 44       		.byte	0x44
 3435 0139 CF000000 		.4byte	0xcf
 3436 013d 03       		.uleb128 0x3
 3437 013e B4060000 		.4byte	.LASF28
 3438 0142 07       		.byte	0x7
 3439 0143 45       		.byte	0x45
 3440 0144 C4000000 		.4byte	0xc4
 3441 0148 03       		.uleb128 0x3
 3442 0149 4C000000 		.4byte	.LASF29
 3443 014d 08       		.byte	0x8
 3444 014e 33       		.byte	0x33
 3445 014f CF000000 		.4byte	0xcf
 3446 0153 03       		.uleb128 0x3
 3447 0154 400C0000 		.4byte	.LASF30
 3448 0158 08       		.byte	0x8
 3449 0159 3F       		.byte	0x3f
 3450 015a 5E010000 		.4byte	0x15e
 3451 015e 06       		.uleb128 0x6
 3452 015f 18080000 		.4byte	.LASF59
 3453 0163 48       		.byte	0x48
 3454 0164 09       		.byte	0x9
 3455 0165 C2       		.byte	0xc2
 3456 0166 C0020000 		.4byte	0x2c0
 3457 016a 07       		.uleb128 0x7
 3458 016b 04       		.byte	0x4
 3459 016c 09       		.byte	0x9
 3460 016d FA       		.byte	0xfa
 3461 016e C7010000 		.4byte	0x1c7
 3462 0172 08       		.uleb128 0x8
 3463 0173 10120000 		.4byte	.LASF31
 3464 0177 09       		.byte	0x9
 3465 0178 0101     		.2byte	0x101
 3466 017a 1C010000 		.4byte	0x11c
 3467 017e 08       		.uleb128 0x8
 3468 017f CC010000 		.4byte	.LASF32
 3469 0183 09       		.byte	0x9
 3470 0184 0801     		.2byte	0x108
 3471 0186 1C010000 		.4byte	0x11c
 3472 018a 08       		.uleb128 0x8
ARM GAS  /var/folders/m4/4md61f0s1_g0rzfghffqnxvr0000gn/T//ccmevqMd.s 			page 62


 3473 018b 47040000 		.4byte	.LASF33
 3474 018f 09       		.byte	0x9
 3475 0190 0F01     		.2byte	0x10f
 3476 0192 A8030000 		.4byte	0x3a8
 3477 0196 08       		.uleb128 0x8
 3478 0197 30030000 		.4byte	.LASF34
 3479 019b 09       		.byte	0x9
 3480 019c 1601     		.2byte	0x116
 3481 019e E2070000 		.4byte	0x7e2
 3482 01a2 08       		.uleb128 0x8
 3483 01a3 45000000 		.4byte	.LASF35
 3484 01a7 09       		.byte	0x9
 3485 01a8 1E01     		.2byte	0x11e
 3486 01aa 0D080000 		.4byte	0x80d
 3487 01ae 08       		.uleb128 0x8
 3488 01af 57070000 		.4byte	.LASF36
 3489 01b3 09       		.byte	0x9
 3490 01b4 2701     		.2byte	0x127
 3491 01b6 44080000 		.4byte	0x844
 3492 01ba 08       		.uleb128 0x8
 3493 01bb 04030000 		.4byte	.LASF37
 3494 01bf 09       		.byte	0x9
 3495 01c0 2F01     		.2byte	0x12f
 3496 01c2 27010000 		.4byte	0x127
 3497 01c6 00       		.byte	0
 3498 01c7 09       		.uleb128 0x9
 3499 01c8 5A020000 		.4byte	.LASF38
 3500 01cc 09       		.byte	0x9
 3501 01cd C3       		.byte	0xc3
 3502 01ce CB020000 		.4byte	0x2cb
 3503 01d2 00       		.byte	0
 3504 01d3 09       		.uleb128 0x9
 3505 01d4 6D020000 		.4byte	.LASF39
 3506 01d8 09       		.byte	0x9
 3507 01d9 C5       		.byte	0xc5
 3508 01da CB020000 		.4byte	0x2cb
 3509 01de 04       		.byte	0x4
 3510 01df 09       		.uleb128 0x9
 3511 01e0 2B040000 		.4byte	.LASF40
 3512 01e4 09       		.byte	0x9
 3513 01e5 C7       		.byte	0xc7
 3514 01e6 11010000 		.4byte	0x111
 3515 01ea 08       		.byte	0x8
 3516 01eb 09       		.uleb128 0x9
 3517 01ec 56000000 		.4byte	.LASF41
 3518 01f0 09       		.byte	0x9
 3519 01f1 C8       		.byte	0xc8
 3520 01f2 55060000 		.4byte	0x655
 3521 01f6 0C       		.byte	0xc
 3522 01f7 09       		.uleb128 0x9
 3523 01f8 35020000 		.4byte	.LASF42
 3524 01fc 09       		.byte	0x9
 3525 01fd CA       		.byte	0xca
 3526 01fe CB020000 		.4byte	0x2cb
 3527 0202 10       		.byte	0x10
 3528 0203 09       		.uleb128 0x9
 3529 0204 E90D0000 		.4byte	.LASF43
ARM GAS  /var/folders/m4/4md61f0s1_g0rzfghffqnxvr0000gn/T//ccmevqMd.s 			page 63


 3530 0208 09       		.byte	0x9
 3531 0209 CB       		.byte	0xcb
 3532 020a CB020000 		.4byte	0x2cb
 3533 020e 14       		.byte	0x14
 3534 020f 09       		.uleb128 0x9
 3535 0210 0A130000 		.4byte	.LASF44
 3536 0214 09       		.byte	0x9
 3537 0215 D2       		.byte	0xd2
 3538 0216 4A080000 		.4byte	0x84a
 3539 021a 18       		.byte	0x18
 3540 021b 09       		.uleb128 0x9
 3541 021c 45140000 		.4byte	.LASF45
 3542 0220 09       		.byte	0x9
 3543 0221 DD       		.byte	0xdd
 3544 0222 F0000000 		.4byte	0xf0
 3545 0226 1C       		.byte	0x1c
 3546 0227 09       		.uleb128 0x9
 3547 0228 740A0000 		.4byte	.LASF46
 3548 022c 09       		.byte	0x9
 3549 022d E1       		.byte	0xe1
 3550 022e E5000000 		.4byte	0xe5
 3551 0232 1D       		.byte	0x1d
 3552 0233 09       		.uleb128 0x9
 3553 0234 E50A0000 		.4byte	.LASF47
 3554 0238 09       		.byte	0x9
 3555 0239 E6       		.byte	0xe6
 3556 023a FB000000 		.4byte	0xfb
 3557 023e 1E       		.byte	0x1e
 3558 023f 09       		.uleb128 0x9
 3559 0240 5C100000 		.4byte	.LASF48
 3560 0244 09       		.byte	0x9
 3561 0245 EC       		.byte	0xec
 3562 0246 06010000 		.4byte	0x106
 3563 024a 1F       		.byte	0x1f
 3564 024b 09       		.uleb128 0x9
 3565 024c DD0B0000 		.4byte	.LASF49
 3566 0250 09       		.byte	0x9
 3567 0251 F3       		.byte	0xf3
 3568 0252 5C080000 		.4byte	0x85c
 3569 0256 20       		.byte	0x20
 3570 0257 0A       		.uleb128 0xa
 3571 0258 705F7500 		.ascii	"p_u\000"
 3572 025c 09       		.byte	0x9
 3573 025d 3101     		.2byte	0x131
 3574 025f 6A010000 		.4byte	0x16a
 3575 0263 24       		.byte	0x24
 3576 0264 0B       		.uleb128 0xb
 3577 0265 530A0000 		.4byte	.LASF50
 3578 0269 09       		.byte	0x9
 3579 026a 3601     		.2byte	0x136
 3580 026c D1020000 		.4byte	0x2d1
 3581 0270 28       		.byte	0x28
 3582 0271 0B       		.uleb128 0xb
 3583 0272 84000000 		.4byte	.LASF51
 3584 0276 09       		.byte	0x9
 3585 0277 3C01     		.2byte	0x13c
 3586 0279 F5020000 		.4byte	0x2f5
ARM GAS  /var/folders/m4/4md61f0s1_g0rzfghffqnxvr0000gn/T//ccmevqMd.s 			page 64


 3587 027d 2C       		.byte	0x2c
 3588 027e 0B       		.uleb128 0xb
 3589 027f 33140000 		.4byte	.LASF52
 3590 0283 09       		.byte	0x9
 3591 0284 4001     		.2byte	0x140
 3592 0286 1C010000 		.4byte	0x11c
 3593 028a 34       		.byte	0x34
 3594 028b 0B       		.uleb128 0xb
 3595 028c 4C070000 		.4byte	.LASF53
 3596 0290 09       		.byte	0x9
 3597 0291 4601     		.2byte	0x146
 3598 0293 27010000 		.4byte	0x127
 3599 0297 38       		.byte	0x38
 3600 0298 0B       		.uleb128 0xb
 3601 0299 B4020000 		.4byte	.LASF54
 3602 029d 09       		.byte	0x9
 3603 029e 4D01     		.2byte	0x14d
 3604 02a0 44080000 		.4byte	0x844
 3605 02a4 3C       		.byte	0x3c
 3606 02a5 0B       		.uleb128 0xb
 3607 02a6 910C0000 		.4byte	.LASF55
 3608 02aa 09       		.byte	0x9
 3609 02ab 5101     		.2byte	0x151
 3610 02ad 11010000 		.4byte	0x111
 3611 02b1 40       		.byte	0x40
 3612 02b2 0B       		.uleb128 0xb
 3613 02b3 D40A0000 		.4byte	.LASF56
 3614 02b7 09       		.byte	0x9
 3615 02b8 5801     		.2byte	0x158
 3616 02ba A8030000 		.4byte	0x3a8
 3617 02be 44       		.byte	0x44
 3618 02bf 00       		.byte	0
 3619 02c0 03       		.uleb128 0x3
 3620 02c1 550C0000 		.4byte	.LASF57
 3621 02c5 08       		.byte	0x8
 3622 02c6 44       		.byte	0x44
 3623 02c7 CB020000 		.4byte	0x2cb
 3624 02cb 0C       		.uleb128 0xc
 3625 02cc 04       		.byte	0x4
 3626 02cd 53010000 		.4byte	0x153
 3627 02d1 03       		.uleb128 0x3
 3628 02d2 02110000 		.4byte	.LASF58
 3629 02d6 08       		.byte	0x8
 3630 02d7 49       		.byte	0x49
 3631 02d8 DC020000 		.4byte	0x2dc
 3632 02dc 06       		.uleb128 0x6
 3633 02dd 81080000 		.4byte	.LASF60
 3634 02e1 04       		.byte	0x4
 3635 02e2 09       		.byte	0x9
 3636 02e3 B0       		.byte	0xb0
 3637 02e4 F5020000 		.4byte	0x2f5
 3638 02e8 09       		.uleb128 0x9
 3639 02e9 5A020000 		.4byte	.LASF38
 3640 02ed 09       		.byte	0x9
 3641 02ee B1       		.byte	0xb1
 3642 02ef CB020000 		.4byte	0x2cb
 3643 02f3 00       		.byte	0
ARM GAS  /var/folders/m4/4md61f0s1_g0rzfghffqnxvr0000gn/T//ccmevqMd.s 			page 65


 3644 02f4 00       		.byte	0
 3645 02f5 03       		.uleb128 0x3
 3646 02f6 A4020000 		.4byte	.LASF61
 3647 02fa 08       		.byte	0x8
 3648 02fb 50       		.byte	0x50
 3649 02fc 00030000 		.4byte	0x300
 3650 0300 06       		.uleb128 0x6
 3651 0301 000E0000 		.4byte	.LASF62
 3652 0305 08       		.byte	0x8
 3653 0306 09       		.byte	0x9
 3654 0307 B7       		.byte	0xb7
 3655 0308 25030000 		.4byte	0x325
 3656 030c 09       		.uleb128 0x9
 3657 030d 5A020000 		.4byte	.LASF38
 3658 0311 09       		.byte	0x9
 3659 0312 B8       		.byte	0xb8
 3660 0313 CB020000 		.4byte	0x2cb
 3661 0317 00       		.byte	0
 3662 0318 09       		.uleb128 0x9
 3663 0319 6D020000 		.4byte	.LASF39
 3664 031d 09       		.byte	0x9
 3665 031e B9       		.byte	0xb9
 3666 031f CB020000 		.4byte	0x2cb
 3667 0323 04       		.byte	0x4
 3668 0324 00       		.byte	0
 3669 0325 03       		.uleb128 0x3
 3670 0326 5C080000 		.4byte	.LASF63
 3671 032a 08       		.byte	0x8
 3672 032b 57       		.byte	0x57
 3673 032c 30030000 		.4byte	0x330
 3674 0330 0D       		.uleb128 0xd
 3675 0331 5E070000 		.4byte	.LASF64
 3676 0335 1C       		.byte	0x1c
 3677 0336 09       		.byte	0x9
 3678 0337 9001     		.2byte	0x190
 3679 0339 8C030000 		.4byte	0x38c
 3680 033d 0B       		.uleb128 0xb
 3681 033e 1A0F0000 		.4byte	.LASF65
 3682 0342 09       		.byte	0x9
 3683 0343 9101     		.2byte	0x191
 3684 0345 F5020000 		.4byte	0x2f5
 3685 0349 00       		.byte	0
 3686 034a 0B       		.uleb128 0xb
 3687 034b 66100000 		.4byte	.LASF66
 3688 034f 09       		.byte	0x9
 3689 0350 9201     		.2byte	0x192
 3690 0352 11010000 		.4byte	0x111
 3691 0356 08       		.byte	0x8
 3692 0357 0B       		.uleb128 0xb
 3693 0358 8F000000 		.4byte	.LASF67
 3694 035c 09       		.byte	0x9
 3695 035d 9401     		.2byte	0x194
 3696 035f 55060000 		.4byte	0x655
 3697 0363 0C       		.byte	0xc
 3698 0364 0B       		.uleb128 0xb
 3699 0365 9D030000 		.4byte	.LASF68
 3700 0369 09       		.byte	0x9
ARM GAS  /var/folders/m4/4md61f0s1_g0rzfghffqnxvr0000gn/T//ccmevqMd.s 			page 66


 3701 036a 9701     		.2byte	0x197
 3702 036c CB020000 		.4byte	0x2cb
 3703 0370 10       		.byte	0x10
 3704 0371 0B       		.uleb128 0xb
 3705 0372 930F0000 		.4byte	.LASF69
 3706 0376 09       		.byte	0x9
 3707 0377 9801     		.2byte	0x198
 3708 0379 CB020000 		.4byte	0x2cb
 3709 037d 14       		.byte	0x14
 3710 037e 0B       		.uleb128 0xb
 3711 037f 750E0000 		.4byte	.LASF70
 3712 0383 09       		.byte	0x9
 3713 0384 9B01     		.2byte	0x19b
 3714 0386 CB020000 		.4byte	0x2cb
 3715 038a 18       		.byte	0x18
 3716 038b 00       		.byte	0
 3717 038c 03       		.uleb128 0x3
 3718 038d D8000000 		.4byte	.LASF71
 3719 0391 08       		.byte	0x8
 3720 0392 5C       		.byte	0x5c
 3721 0393 97030000 		.4byte	0x397
 3722 0397 0C       		.uleb128 0xc
 3723 0398 04       		.byte	0x4
 3724 0399 9D030000 		.4byte	0x39d
 3725 039d 0E       		.uleb128 0xe
 3726 039e A8030000 		.4byte	0x3a8
 3727 03a2 0F       		.uleb128 0xf
 3728 03a3 A8030000 		.4byte	0x3a8
 3729 03a7 00       		.byte	0
 3730 03a8 10       		.uleb128 0x10
 3731 03a9 04       		.byte	0x4
 3732 03aa 03       		.uleb128 0x3
 3733 03ab 4C080000 		.4byte	.LASF72
 3734 03af 08       		.byte	0x8
 3735 03b0 61       		.byte	0x61
 3736 03b1 B5030000 		.4byte	0x3b5
 3737 03b5 0D       		.uleb128 0xd
 3738 03b6 0A0D0000 		.4byte	.LASF73
 3739 03ba 14       		.byte	0x14
 3740 03bb 09       		.byte	0x9
 3741 03bc 6B01     		.2byte	0x16b
 3742 03be 04040000 		.4byte	0x404
 3743 03c2 0B       		.uleb128 0xb
 3744 03c3 5D090000 		.4byte	.LASF74
 3745 03c7 09       		.byte	0x9
 3746 03c8 6C01     		.2byte	0x16c
 3747 03ca 61080000 		.4byte	0x861
 3748 03ce 00       		.byte	0
 3749 03cf 0B       		.uleb128 0xb
 3750 03d0 88090000 		.4byte	.LASF75
 3751 03d4 09       		.byte	0x9
 3752 03d5 6D01     		.2byte	0x16d
 3753 03d7 61080000 		.4byte	0x861
 3754 03db 04       		.byte	0x4
 3755 03dc 0B       		.uleb128 0xb
 3756 03dd CC0C0000 		.4byte	.LASF76
 3757 03e1 09       		.byte	0x9
ARM GAS  /var/folders/m4/4md61f0s1_g0rzfghffqnxvr0000gn/T//ccmevqMd.s 			page 67


 3758 03e2 6E01     		.2byte	0x16e
 3759 03e4 48010000 		.4byte	0x148
 3760 03e8 08       		.byte	0x8
 3761 03e9 0B       		.uleb128 0xb
 3762 03ea 14070000 		.4byte	.LASF77
 3763 03ee 09       		.byte	0x9
 3764 03ef 6F01     		.2byte	0x16f
 3765 03f1 8C030000 		.4byte	0x38c
 3766 03f5 0C       		.byte	0xc
 3767 03f6 0B       		.uleb128 0xb
 3768 03f7 BE010000 		.4byte	.LASF78
 3769 03fb 09       		.byte	0x9
 3770 03fc 7101     		.2byte	0x171
 3771 03fe A8030000 		.4byte	0x3a8
 3772 0402 10       		.byte	0x10
 3773 0403 00       		.byte	0
 3774 0404 03       		.uleb128 0x3
 3775 0405 22080000 		.4byte	.LASF79
 3776 0409 08       		.byte	0x8
 3777 040a 66       		.byte	0x66
 3778 040b 0F040000 		.4byte	0x40f
 3779 040f 0D       		.uleb128 0xd
 3780 0410 E1000000 		.4byte	.LASF80
 3781 0414 10       		.byte	0x10
 3782 0415 09       		.byte	0x9
 3783 0416 7B01     		.2byte	0x17b
 3784 0418 51040000 		.4byte	0x451
 3785 041c 0B       		.uleb128 0xb
 3786 041d 5D090000 		.4byte	.LASF74
 3787 0421 09       		.byte	0x9
 3788 0422 7C01     		.2byte	0x17c
 3789 0424 61080000 		.4byte	0x861
 3790 0428 00       		.byte	0
 3791 0429 0B       		.uleb128 0xb
 3792 042a 88090000 		.4byte	.LASF75
 3793 042e 09       		.byte	0x9
 3794 042f 7E01     		.2byte	0x17e
 3795 0431 61080000 		.4byte	0x861
 3796 0435 04       		.byte	0x4
 3797 0436 0B       		.uleb128 0xb
 3798 0437 CC0C0000 		.4byte	.LASF76
 3799 043b 09       		.byte	0x9
 3800 043c 8001     		.2byte	0x180
 3801 043e 48010000 		.4byte	0x148
 3802 0442 08       		.byte	0x8
 3803 0443 0B       		.uleb128 0xb
 3804 0444 880F0000 		.4byte	.LASF81
 3805 0448 09       		.byte	0x9
 3806 0449 8201     		.2byte	0x182
 3807 044b 5C080000 		.4byte	0x85c
 3808 044f 0C       		.byte	0xc
 3809 0450 00       		.byte	0
 3810 0451 03       		.uleb128 0x3
 3811 0452 A5030000 		.4byte	.LASF82
 3812 0456 08       		.byte	0x8
 3813 0457 6B       		.byte	0x6b
 3814 0458 5C040000 		.4byte	0x45c
ARM GAS  /var/folders/m4/4md61f0s1_g0rzfghffqnxvr0000gn/T//ccmevqMd.s 			page 68


 3815 045c 0D       		.uleb128 0xd
 3816 045d 94100000 		.4byte	.LASF83
 3817 0461 04       		.byte	0x4
 3818 0462 09       		.byte	0x9
 3819 0463 A201     		.2byte	0x1a2
 3820 0465 77040000 		.4byte	0x477
 3821 0469 0B       		.uleb128 0xb
 3822 046a 72030000 		.4byte	.LASF84
 3823 046e 09       		.byte	0x9
 3824 046f AA01     		.2byte	0x1aa
 3825 0471 67080000 		.4byte	0x867
 3826 0475 00       		.byte	0
 3827 0476 00       		.byte	0
 3828 0477 03       		.uleb128 0x3
 3829 0478 3C120000 		.4byte	.LASF85
 3830 047c 08       		.byte	0x8
 3831 047d 70       		.byte	0x70
 3832 047e 82040000 		.4byte	0x482
 3833 0482 11       		.uleb128 0x11
 3834 0483 3F110000 		.4byte	.LASF86
 3835 0487 5802     		.2byte	0x258
 3836 0489 09       		.byte	0x9
 3837 048a C201     		.2byte	0x1c2
 3838 048c DE040000 		.4byte	0x4de
 3839 0490 0B       		.uleb128 0xb
 3840 0491 5C0F0000 		.4byte	.LASF87
 3841 0495 09       		.byte	0x9
 3842 0496 C601     		.2byte	0x1c6
 3843 0498 25030000 		.4byte	0x325
 3844 049c 00       		.byte	0
 3845 049d 0B       		.uleb128 0xb
 3846 049e C6100000 		.4byte	.LASF88
 3847 04a2 09       		.byte	0x9
 3848 04a3 CA01     		.2byte	0x1ca
 3849 04a5 04040000 		.4byte	0x404
 3850 04a9 1C       		.byte	0x1c
 3851 04aa 0A       		.uleb128 0xa
 3852 04ab 64626700 		.ascii	"dbg\000"
 3853 04af 09       		.byte	0x9
 3854 04b0 CE01     		.2byte	0x1ce
 3855 04b2 51040000 		.4byte	0x451
 3856 04b6 2C       		.byte	0x2c
 3857 04b7 0B       		.uleb128 0xb
 3858 04b8 D30E0000 		.4byte	.LASF89
 3859 04bc 09       		.byte	0x9
 3860 04bd D201     		.2byte	0x1d2
 3861 04bf 53010000 		.4byte	0x153
 3862 04c3 30       		.byte	0x30
 3863 04c4 0A       		.uleb128 0xa
 3864 04c5 746D00   		.ascii	"tm\000"
 3865 04c8 09       		.byte	0x9
 3866 04c9 D701     		.2byte	0x1d7
 3867 04cb D7070000 		.4byte	0x7d7
 3868 04cf 78       		.byte	0x78
 3869 04d0 0B       		.uleb128 0xb
 3870 04d1 880A0000 		.4byte	.LASF90
 3871 04d5 09       		.byte	0x9
ARM GAS  /var/folders/m4/4md61f0s1_g0rzfghffqnxvr0000gn/T//ccmevqMd.s 			page 69


 3872 04d6 E301     		.2byte	0x1e3
 3873 04d8 6C080000 		.4byte	0x86c
 3874 04dc 80       		.byte	0x80
 3875 04dd 00       		.byte	0
 3876 04de 04       		.uleb128 0x4
 3877 04df 04       		.byte	0x4
 3878 04e0 07       		.byte	0x7
 3879 04e1 28000000 		.4byte	.LASF91
 3880 04e5 12       		.uleb128 0x12
 3881 04e6 CF000000 		.4byte	0xcf
 3882 04ea 13       		.uleb128 0x13
 3883 04eb 18       		.byte	0x18
 3884 04ec 0A       		.byte	0xa
 3885 04ed 7E01     		.2byte	0x17e
 3886 04ef 90090000 		.4byte	.LASF96
 3887 04f3 45050000 		.4byte	0x545
 3888 04f7 0A       		.uleb128 0xa
 3889 04f8 435200   		.ascii	"CR\000"
 3890 04fb 0A       		.byte	0xa
 3891 04fc 7F01     		.2byte	0x17f
 3892 04fe E5040000 		.4byte	0x4e5
 3893 0502 00       		.byte	0
 3894 0503 0B       		.uleb128 0xb
 3895 0504 CC120000 		.4byte	.LASF92
 3896 0508 0A       		.byte	0xa
 3897 0509 8001     		.2byte	0x180
 3898 050b E5040000 		.4byte	0x4e5
 3899 050f 04       		.byte	0x4
 3900 0510 0A       		.uleb128 0xa
 3901 0511 50415200 		.ascii	"PAR\000"
 3902 0515 0A       		.byte	0xa
 3903 0516 8101     		.2byte	0x181
 3904 0518 E5040000 		.4byte	0x4e5
 3905 051c 08       		.byte	0x8
 3906 051d 0B       		.uleb128 0xb
 3907 051e B30F0000 		.4byte	.LASF93
 3908 0522 0A       		.byte	0xa
 3909 0523 8201     		.2byte	0x182
 3910 0525 E5040000 		.4byte	0x4e5
 3911 0529 0C       		.byte	0xc
 3912 052a 0B       		.uleb128 0xb
 3913 052b 00000000 		.4byte	.LASF94
 3914 052f 0A       		.byte	0xa
 3915 0530 8301     		.2byte	0x183
 3916 0532 E5040000 		.4byte	0x4e5
 3917 0536 10       		.byte	0x10
 3918 0537 0A       		.uleb128 0xa
 3919 0538 46435200 		.ascii	"FCR\000"
 3920 053c 0A       		.byte	0xa
 3921 053d 8401     		.2byte	0x184
 3922 053f E5040000 		.4byte	0x4e5
 3923 0543 14       		.byte	0x14
 3924 0544 00       		.byte	0
 3925 0545 14       		.uleb128 0x14
 3926 0546 CA0B0000 		.4byte	.LASF95
 3927 054a 0A       		.byte	0xa
 3928 054b 8501     		.2byte	0x185
ARM GAS  /var/folders/m4/4md61f0s1_g0rzfghffqnxvr0000gn/T//ccmevqMd.s 			page 70


 3929 054d EA040000 		.4byte	0x4ea
 3930 0551 13       		.uleb128 0x13
 3931 0552 24       		.byte	0x24
 3932 0553 0A       		.byte	0xa
 3933 0554 C502     		.2byte	0x2c5
 3934 0556 1C020000 		.4byte	.LASF97
 3935 055a D2050000 		.4byte	0x5d2
 3936 055e 0A       		.uleb128 0xa
 3937 055f 43523100 		.ascii	"CR1\000"
 3938 0563 0A       		.byte	0xa
 3939 0564 C602     		.2byte	0x2c6
 3940 0566 E5040000 		.4byte	0x4e5
 3941 056a 00       		.byte	0
 3942 056b 0A       		.uleb128 0xa
 3943 056c 43523200 		.ascii	"CR2\000"
 3944 0570 0A       		.byte	0xa
 3945 0571 C702     		.2byte	0x2c7
 3946 0573 E5040000 		.4byte	0x4e5
 3947 0577 04       		.byte	0x4
 3948 0578 0A       		.uleb128 0xa
 3949 0579 535200   		.ascii	"SR\000"
 3950 057c 0A       		.byte	0xa
 3951 057d C802     		.2byte	0x2c8
 3952 057f E5040000 		.4byte	0x4e5
 3953 0583 08       		.byte	0x8
 3954 0584 0A       		.uleb128 0xa
 3955 0585 445200   		.ascii	"DR\000"
 3956 0588 0A       		.byte	0xa
 3957 0589 C902     		.2byte	0x2c9
 3958 058b E5040000 		.4byte	0x4e5
 3959 058f 0C       		.byte	0xc
 3960 0590 0B       		.uleb128 0xb
 3961 0591 6A0F0000 		.4byte	.LASF98
 3962 0595 0A       		.byte	0xa
 3963 0596 CA02     		.2byte	0x2ca
 3964 0598 E5040000 		.4byte	0x4e5
 3965 059c 10       		.byte	0x10
 3966 059d 0B       		.uleb128 0xb
 3967 059e 010A0000 		.4byte	.LASF99
 3968 05a2 0A       		.byte	0xa
 3969 05a3 CB02     		.2byte	0x2cb
 3970 05a5 E5040000 		.4byte	0x4e5
 3971 05a9 14       		.byte	0x14
 3972 05aa 0B       		.uleb128 0xb
 3973 05ab 3E0F0000 		.4byte	.LASF100
 3974 05af 0A       		.byte	0xa
 3975 05b0 CC02     		.2byte	0x2cc
 3976 05b2 E5040000 		.4byte	0x4e5
 3977 05b6 18       		.byte	0x18
 3978 05b7 0B       		.uleb128 0xb
 3979 05b8 D5010000 		.4byte	.LASF101
 3980 05bc 0A       		.byte	0xa
 3981 05bd CD02     		.2byte	0x2cd
 3982 05bf E5040000 		.4byte	0x4e5
 3983 05c3 1C       		.byte	0x1c
 3984 05c4 0B       		.uleb128 0xb
 3985 05c5 71110000 		.4byte	.LASF102
ARM GAS  /var/folders/m4/4md61f0s1_g0rzfghffqnxvr0000gn/T//ccmevqMd.s 			page 71


 3986 05c9 0A       		.byte	0xa
 3987 05ca CE02     		.2byte	0x2ce
 3988 05cc E5040000 		.4byte	0x4e5
 3989 05d0 20       		.byte	0x20
 3990 05d1 00       		.byte	0
 3991 05d2 14       		.uleb128 0x14
 3992 05d3 450F0000 		.4byte	.LASF103
 3993 05d7 0A       		.byte	0xa
 3994 05d8 CF02     		.2byte	0x2cf
 3995 05da 51050000 		.4byte	0x551
 3996 05de 15       		.uleb128 0x15
 3997 05df 01       		.byte	0x1
 3998 05e0 0B       		.byte	0xb
 3999 05e1 B8       		.byte	0xb8
 4000 05e2 C7020000 		.4byte	.LASF106
 4001 05e6 F7050000 		.4byte	0x5f7
 4002 05ea 16       		.uleb128 0x16
 4003 05eb 140F0000 		.4byte	.LASF104
 4004 05ef 00       		.sleb128 0
 4005 05f0 17       		.uleb128 0x17
 4006 05f1 53455400 		.ascii	"SET\000"
 4007 05f5 01       		.sleb128 1
 4008 05f6 00       		.byte	0
 4009 05f7 03       		.uleb128 0x3
 4010 05f8 510F0000 		.4byte	.LASF105
 4011 05fc 0B       		.byte	0xb
 4012 05fd BB       		.byte	0xbb
 4013 05fe DE050000 		.4byte	0x5de
 4014 0602 15       		.uleb128 0x15
 4015 0603 01       		.byte	0x1
 4016 0604 0B       		.byte	0xb
 4017 0605 BE       		.byte	0xbe
 4018 0606 8B030000 		.4byte	.LASF107
 4019 060a 1B060000 		.4byte	0x61b
 4020 060e 16       		.uleb128 0x16
 4021 060f 380C0000 		.4byte	.LASF108
 4022 0613 00       		.sleb128 0
 4023 0614 16       		.uleb128 0x16
 4024 0615 A4100000 		.4byte	.LASF109
 4025 0619 01       		.sleb128 1
 4026 061a 00       		.byte	0
 4027 061b 03       		.uleb128 0x3
 4028 061c 630D0000 		.4byte	.LASF110
 4029 0620 0B       		.byte	0xb
 4030 0621 C1       		.byte	0xc1
 4031 0622 02060000 		.4byte	0x602
 4032 0626 15       		.uleb128 0x15
 4033 0627 01       		.byte	0x1
 4034 0628 0B       		.byte	0xb
 4035 0629 C5       		.byte	0xc5
 4036 062a 64000000 		.4byte	.LASF111
 4037 062e 3F060000 		.4byte	0x63f
 4038 0632 16       		.uleb128 0x16
 4039 0633 7B080000 		.4byte	.LASF112
 4040 0637 00       		.sleb128 0
 4041 0638 16       		.uleb128 0x16
 4042 0639 A10E0000 		.4byte	.LASF113
ARM GAS  /var/folders/m4/4md61f0s1_g0rzfghffqnxvr0000gn/T//ccmevqMd.s 			page 72


 4043 063d 01       		.sleb128 1
 4044 063e 00       		.byte	0
 4045 063f 03       		.uleb128 0x3
 4046 0640 D50C0000 		.4byte	.LASF114
 4047 0644 0B       		.byte	0xb
 4048 0645 C8       		.byte	0xc8
 4049 0646 26060000 		.4byte	0x626
 4050 064a 03       		.uleb128 0x3
 4051 064b BE020000 		.4byte	.LASF115
 4052 064f 0C       		.byte	0xc
 4053 0650 65       		.byte	0x65
 4054 0651 A8030000 		.4byte	0x3a8
 4055 0655 06       		.uleb128 0x6
 4056 0656 28030000 		.4byte	.LASF116
 4057 065a 04       		.byte	0x4
 4058 065b 0C       		.byte	0xc
 4059 065c 89       		.byte	0x89
 4060 065d 6E060000 		.4byte	0x66e
 4061 0661 18       		.uleb128 0x18
 4062 0662 72313300 		.ascii	"r13\000"
 4063 0666 0C       		.byte	0xc
 4064 0667 8A       		.byte	0x8a
 4065 0668 B8070000 		.4byte	0x7b8
 4066 066c 00       		.byte	0
 4067 066d 00       		.byte	0
 4068 066e 06       		.uleb128 0x6
 4069 066f 9C0C0000 		.4byte	.LASF117
 4070 0673 64       		.byte	0x64
 4071 0674 0D       		.byte	0xd
 4072 0675 FD       		.byte	0xfd
 4073 0676 B8070000 		.4byte	0x7b8
 4074 067a 18       		.uleb128 0x18
 4075 067b 73313600 		.ascii	"s16\000"
 4076 067f 0D       		.byte	0xd
 4077 0680 FF       		.byte	0xff
 4078 0681 4A060000 		.4byte	0x64a
 4079 0685 00       		.byte	0
 4080 0686 0A       		.uleb128 0xa
 4081 0687 73313700 		.ascii	"s17\000"
 4082 068b 0D       		.byte	0xd
 4083 068c 0001     		.2byte	0x100
 4084 068e 4A060000 		.4byte	0x64a
 4085 0692 04       		.byte	0x4
 4086 0693 0A       		.uleb128 0xa
 4087 0694 73313800 		.ascii	"s18\000"
 4088 0698 0D       		.byte	0xd
 4089 0699 0101     		.2byte	0x101
 4090 069b 4A060000 		.4byte	0x64a
 4091 069f 08       		.byte	0x8
 4092 06a0 0A       		.uleb128 0xa
 4093 06a1 73313900 		.ascii	"s19\000"
 4094 06a5 0D       		.byte	0xd
 4095 06a6 0201     		.2byte	0x102
 4096 06a8 4A060000 		.4byte	0x64a
 4097 06ac 0C       		.byte	0xc
 4098 06ad 0A       		.uleb128 0xa
 4099 06ae 73323000 		.ascii	"s20\000"
ARM GAS  /var/folders/m4/4md61f0s1_g0rzfghffqnxvr0000gn/T//ccmevqMd.s 			page 73


 4100 06b2 0D       		.byte	0xd
 4101 06b3 0301     		.2byte	0x103
 4102 06b5 4A060000 		.4byte	0x64a
 4103 06b9 10       		.byte	0x10
 4104 06ba 0A       		.uleb128 0xa
 4105 06bb 73323100 		.ascii	"s21\000"
 4106 06bf 0D       		.byte	0xd
 4107 06c0 0401     		.2byte	0x104
 4108 06c2 4A060000 		.4byte	0x64a
 4109 06c6 14       		.byte	0x14
 4110 06c7 0A       		.uleb128 0xa
 4111 06c8 73323200 		.ascii	"s22\000"
 4112 06cc 0D       		.byte	0xd
 4113 06cd 0501     		.2byte	0x105
 4114 06cf 4A060000 		.4byte	0x64a
 4115 06d3 18       		.byte	0x18
 4116 06d4 0A       		.uleb128 0xa
 4117 06d5 73323300 		.ascii	"s23\000"
 4118 06d9 0D       		.byte	0xd
 4119 06da 0601     		.2byte	0x106
 4120 06dc 4A060000 		.4byte	0x64a
 4121 06e0 1C       		.byte	0x1c
 4122 06e1 0A       		.uleb128 0xa
 4123 06e2 73323400 		.ascii	"s24\000"
 4124 06e6 0D       		.byte	0xd
 4125 06e7 0701     		.2byte	0x107
 4126 06e9 4A060000 		.4byte	0x64a
 4127 06ed 20       		.byte	0x20
 4128 06ee 0A       		.uleb128 0xa
 4129 06ef 73323500 		.ascii	"s25\000"
 4130 06f3 0D       		.byte	0xd
 4131 06f4 0801     		.2byte	0x108
 4132 06f6 4A060000 		.4byte	0x64a
 4133 06fa 24       		.byte	0x24
 4134 06fb 0A       		.uleb128 0xa
 4135 06fc 73323600 		.ascii	"s26\000"
 4136 0700 0D       		.byte	0xd
 4137 0701 0901     		.2byte	0x109
 4138 0703 4A060000 		.4byte	0x64a
 4139 0707 28       		.byte	0x28
 4140 0708 0A       		.uleb128 0xa
 4141 0709 73323700 		.ascii	"s27\000"
 4142 070d 0D       		.byte	0xd
 4143 070e 0A01     		.2byte	0x10a
 4144 0710 4A060000 		.4byte	0x64a
 4145 0714 2C       		.byte	0x2c
 4146 0715 0A       		.uleb128 0xa
 4147 0716 73323800 		.ascii	"s28\000"
 4148 071a 0D       		.byte	0xd
 4149 071b 0B01     		.2byte	0x10b
 4150 071d 4A060000 		.4byte	0x64a
 4151 0721 30       		.byte	0x30
 4152 0722 0A       		.uleb128 0xa
 4153 0723 73323900 		.ascii	"s29\000"
 4154 0727 0D       		.byte	0xd
 4155 0728 0C01     		.2byte	0x10c
 4156 072a 4A060000 		.4byte	0x64a
ARM GAS  /var/folders/m4/4md61f0s1_g0rzfghffqnxvr0000gn/T//ccmevqMd.s 			page 74


 4157 072e 34       		.byte	0x34
 4158 072f 0A       		.uleb128 0xa
 4159 0730 73333000 		.ascii	"s30\000"
 4160 0734 0D       		.byte	0xd
 4161 0735 0D01     		.2byte	0x10d
 4162 0737 4A060000 		.4byte	0x64a
 4163 073b 38       		.byte	0x38
 4164 073c 0A       		.uleb128 0xa
 4165 073d 73333100 		.ascii	"s31\000"
 4166 0741 0D       		.byte	0xd
 4167 0742 0E01     		.2byte	0x10e
 4168 0744 4A060000 		.4byte	0x64a
 4169 0748 3C       		.byte	0x3c
 4170 0749 0A       		.uleb128 0xa
 4171 074a 723400   		.ascii	"r4\000"
 4172 074d 0D       		.byte	0xd
 4173 074e 1001     		.2byte	0x110
 4174 0750 4A060000 		.4byte	0x64a
 4175 0754 40       		.byte	0x40
 4176 0755 0A       		.uleb128 0xa
 4177 0756 723500   		.ascii	"r5\000"
 4178 0759 0D       		.byte	0xd
 4179 075a 1101     		.2byte	0x111
 4180 075c 4A060000 		.4byte	0x64a
 4181 0760 44       		.byte	0x44
 4182 0761 0A       		.uleb128 0xa
 4183 0762 723600   		.ascii	"r6\000"
 4184 0765 0D       		.byte	0xd
 4185 0766 1201     		.2byte	0x112
 4186 0768 4A060000 		.4byte	0x64a
 4187 076c 48       		.byte	0x48
 4188 076d 0A       		.uleb128 0xa
 4189 076e 723700   		.ascii	"r7\000"
 4190 0771 0D       		.byte	0xd
 4191 0772 1301     		.2byte	0x113
 4192 0774 4A060000 		.4byte	0x64a
 4193 0778 4C       		.byte	0x4c
 4194 0779 0A       		.uleb128 0xa
 4195 077a 723800   		.ascii	"r8\000"
 4196 077d 0D       		.byte	0xd
 4197 077e 1401     		.2byte	0x114
 4198 0780 4A060000 		.4byte	0x64a
 4199 0784 50       		.byte	0x50
 4200 0785 0A       		.uleb128 0xa
 4201 0786 723900   		.ascii	"r9\000"
 4202 0789 0D       		.byte	0xd
 4203 078a 1501     		.2byte	0x115
 4204 078c 4A060000 		.4byte	0x64a
 4205 0790 54       		.byte	0x54
 4206 0791 0A       		.uleb128 0xa
 4207 0792 72313000 		.ascii	"r10\000"
 4208 0796 0D       		.byte	0xd
 4209 0797 1601     		.2byte	0x116
 4210 0799 4A060000 		.4byte	0x64a
 4211 079d 58       		.byte	0x58
 4212 079e 0A       		.uleb128 0xa
 4213 079f 72313100 		.ascii	"r11\000"
ARM GAS  /var/folders/m4/4md61f0s1_g0rzfghffqnxvr0000gn/T//ccmevqMd.s 			page 75


 4214 07a3 0D       		.byte	0xd
 4215 07a4 1701     		.2byte	0x117
 4216 07a6 4A060000 		.4byte	0x64a
 4217 07aa 5C       		.byte	0x5c
 4218 07ab 0A       		.uleb128 0xa
 4219 07ac 6C7200   		.ascii	"lr\000"
 4220 07af 0D       		.byte	0xd
 4221 07b0 1801     		.2byte	0x118
 4222 07b2 4A060000 		.4byte	0x64a
 4223 07b6 60       		.byte	0x60
 4224 07b7 00       		.byte	0
 4225 07b8 0C       		.uleb128 0xc
 4226 07b9 04       		.byte	0x4
 4227 07ba 6E060000 		.4byte	0x66e
 4228 07be 19       		.uleb128 0x19
 4229 07bf 04       		.byte	0x4
 4230 07c0 0E       		.byte	0xe
 4231 07c1 38       		.byte	0x38
 4232 07c2 1B0D0000 		.4byte	.LASF147
 4233 07c6 D7070000 		.4byte	0x7d7
 4234 07ca 09       		.uleb128 0x9
 4235 07cb 890B0000 		.4byte	.LASF118
 4236 07cf 0E       		.byte	0xe
 4237 07d0 3C       		.byte	0x3c
 4238 07d1 DA000000 		.4byte	0xda
 4239 07d5 00       		.byte	0
 4240 07d6 00       		.byte	0
 4241 07d7 03       		.uleb128 0x3
 4242 07d8 9B0F0000 		.4byte	.LASF119
 4243 07dc 0E       		.byte	0xe
 4244 07dd 3D       		.byte	0x3d
 4245 07de BE070000 		.4byte	0x7be
 4246 07e2 0C       		.uleb128 0xc
 4247 07e3 04       		.byte	0x4
 4248 07e4 C0020000 		.4byte	0x2c0
 4249 07e8 06       		.uleb128 0x6
 4250 07e9 01080000 		.4byte	.LASF120
 4251 07ed 0C       		.byte	0xc
 4252 07ee 0F       		.byte	0xf
 4253 07ef 34       		.byte	0x34
 4254 07f0 0D080000 		.4byte	0x80d
 4255 07f4 09       		.uleb128 0x9
 4256 07f5 C20F0000 		.4byte	.LASF121
 4257 07f9 0F       		.byte	0xf
 4258 07fa 35       		.byte	0x35
 4259 07fb F5020000 		.4byte	0x2f5
 4260 07ff 00       		.byte	0
 4261 0800 09       		.uleb128 0x9
 4262 0801 2E0D0000 		.4byte	.LASF122
 4263 0805 0F       		.byte	0xf
 4264 0806 37       		.byte	0x37
 4265 0807 3D010000 		.4byte	0x13d
 4266 080b 08       		.byte	0x8
 4267 080c 00       		.byte	0
 4268 080d 0C       		.uleb128 0xc
 4269 080e 04       		.byte	0x4
 4270 080f E8070000 		.4byte	0x7e8
ARM GAS  /var/folders/m4/4md61f0s1_g0rzfghffqnxvr0000gn/T//ccmevqMd.s 			page 76


 4271 0813 06       		.uleb128 0x6
 4272 0814 1B100000 		.4byte	.LASF123
 4273 0818 10       		.byte	0x10
 4274 0819 10       		.byte	0x10
 4275 081a 39       		.byte	0x39
 4276 081b 44080000 		.4byte	0x844
 4277 081f 09       		.uleb128 0x9
 4278 0820 37090000 		.4byte	.LASF124
 4279 0824 10       		.byte	0x10
 4280 0825 3A       		.byte	0x3a
 4281 0826 F5020000 		.4byte	0x2f5
 4282 082a 00       		.byte	0
 4283 082b 09       		.uleb128 0x9
 4284 082c B6010000 		.4byte	.LASF125
 4285 0830 10       		.byte	0x10
 4286 0831 3C       		.byte	0x3c
 4287 0832 CB020000 		.4byte	0x2cb
 4288 0836 08       		.byte	0x8
 4289 0837 09       		.uleb128 0x9
 4290 0838 8E130000 		.4byte	.LASF126
 4291 083c 10       		.byte	0x10
 4292 083d 3E       		.byte	0x3e
 4293 083e 87080000 		.4byte	0x887
 4294 0842 0C       		.byte	0xc
 4295 0843 00       		.byte	0
 4296 0844 0C       		.uleb128 0xc
 4297 0845 04       		.byte	0x4
 4298 0846 13080000 		.4byte	0x813
 4299 084a 0C       		.uleb128 0xc
 4300 084b 04       		.byte	0x4
 4301 084c 50080000 		.4byte	0x850
 4302 0850 1A       		.uleb128 0x1a
 4303 0851 55080000 		.4byte	0x855
 4304 0855 04       		.uleb128 0x4
 4305 0856 01       		.byte	0x1
 4306 0857 08       		.byte	0x8
 4307 0858 0F040000 		.4byte	.LASF127
 4308 085c 12       		.uleb128 0x12
 4309 085d 48010000 		.4byte	0x148
 4310 0861 0C       		.uleb128 0xc
 4311 0862 04       		.byte	0x4
 4312 0863 AA030000 		.4byte	0x3aa
 4313 0867 12       		.uleb128 0x12
 4314 0868 4A080000 		.4byte	0x84a
 4315 086c 1B       		.uleb128 0x1b
 4316 086d A7000000 		.4byte	0xa7
 4317 0871 7C080000 		.4byte	0x87c
 4318 0875 1C       		.uleb128 0x1c
 4319 0876 DE040000 		.4byte	0x4de
 4320 087a 3A       		.byte	0x3a
 4321 087b 00       		.byte	0
 4322 087c 03       		.uleb128 0x3
 4323 087d CD100000 		.4byte	.LASF128
 4324 0881 10       		.byte	0x10
 4325 0882 34       		.byte	0x34
 4326 0883 13080000 		.4byte	0x813
 4327 0887 0C       		.uleb128 0xc
ARM GAS  /var/folders/m4/4md61f0s1_g0rzfghffqnxvr0000gn/T//ccmevqMd.s 			page 77


 4328 0888 04       		.byte	0x4
 4329 0889 7C080000 		.4byte	0x87c
 4330 088d 03       		.uleb128 0x3
 4331 088e 60060000 		.4byte	.LASF129
 4332 0892 03       		.byte	0x3
 4333 0893 34       		.byte	0x34
 4334 0894 98080000 		.4byte	0x898
 4335 0898 06       		.uleb128 0x6
 4336 0899 01120000 		.4byte	.LASF130
 4337 089d 14       		.byte	0x14
 4338 089e 03       		.byte	0x3
 4339 089f 39       		.byte	0x39
 4340 08a0 E1080000 		.4byte	0x8e1
 4341 08a4 09       		.uleb128 0x9
 4342 08a5 38080000 		.4byte	.LASF131
 4343 08a9 03       		.byte	0x3
 4344 08aa 3A       		.byte	0x3a
 4345 08ab E1080000 		.4byte	0x8e1
 4346 08af 00       		.byte	0
 4347 08b0 09       		.uleb128 0x9
 4348 08b1 39140000 		.4byte	.LASF132
 4349 08b5 03       		.byte	0x3
 4350 08b6 3D       		.byte	0x3d
 4351 08b7 CB020000 		.4byte	0x2cb
 4352 08bb 04       		.byte	0x4
 4353 08bc 09       		.uleb128 0x9
 4354 08bd 670B0000 		.4byte	.LASF133
 4355 08c1 03       		.byte	0x3
 4356 08c2 3F       		.byte	0x3f
 4357 08c3 27010000 		.4byte	0x127
 4358 08c7 08       		.byte	0x8
 4359 08c8 09       		.uleb128 0x9
 4360 08c9 42010000 		.4byte	.LASF134
 4361 08cd 03       		.byte	0x3
 4362 08ce 41       		.byte	0x41
 4363 08cf 32010000 		.4byte	0x132
 4364 08d3 0C       		.byte	0xc
 4365 08d4 09       		.uleb128 0x9
 4366 08d5 300B0000 		.4byte	.LASF135
 4367 08d9 03       		.byte	0x3
 4368 08da 43       		.byte	0x43
 4369 08db 32010000 		.4byte	0x132
 4370 08df 10       		.byte	0x10
 4371 08e0 00       		.byte	0
 4372 08e1 0C       		.uleb128 0xc
 4373 08e2 04       		.byte	0x4
 4374 08e3 8D080000 		.4byte	0x88d
 4375 08e7 06       		.uleb128 0x6
 4376 08e8 DF0F0000 		.4byte	.LASF136
 4377 08ec 04       		.byte	0x4
 4378 08ed 03       		.byte	0x3
 4379 08ee 4A       		.byte	0x4a
 4380 08ef 00090000 		.4byte	0x900
 4381 08f3 09       		.uleb128 0x9
 4382 08f4 BA070000 		.4byte	.LASF137
 4383 08f8 03       		.byte	0x3
 4384 08f9 4B       		.byte	0x4b
ARM GAS  /var/folders/m4/4md61f0s1_g0rzfghffqnxvr0000gn/T//ccmevqMd.s 			page 78


 4385 08fa E1080000 		.4byte	0x8e1
 4386 08fe 00       		.byte	0
 4387 08ff 00       		.byte	0
 4388 0900 03       		.uleb128 0x3
 4389 0901 B0090000 		.4byte	.LASF138
 4390 0905 03       		.byte	0x3
 4391 0906 4E       		.byte	0x4e
 4392 0907 E7080000 		.4byte	0x8e7
 4393 090b 0C       		.uleb128 0xc
 4394 090c 04       		.byte	0x4
 4395 090d AE000000 		.4byte	0xae
 4396 0911 1D       		.uleb128 0x1d
 4397 0912 2C000000 		.4byte	0x2c
 4398 0916 2A090000 		.4byte	0x92a
 4399 091a 0F       		.uleb128 0xf
 4400 091b A8030000 		.4byte	0x3a8
 4401 091f 0F       		.uleb128 0xf
 4402 0920 2A090000 		.4byte	0x92a
 4403 0924 0F       		.uleb128 0xf
 4404 0925 2C000000 		.4byte	0x2c
 4405 0929 00       		.byte	0
 4406 092a 0C       		.uleb128 0xc
 4407 092b 04       		.byte	0x4
 4408 092c 30090000 		.4byte	0x930
 4409 0930 1A       		.uleb128 0x1a
 4410 0931 AE000000 		.4byte	0xae
 4411 0935 0C       		.uleb128 0xc
 4412 0936 04       		.byte	0x4
 4413 0937 11090000 		.4byte	0x911
 4414 093b 1D       		.uleb128 0x1d
 4415 093c 2C000000 		.4byte	0x2c
 4416 0940 54090000 		.4byte	0x954
 4417 0944 0F       		.uleb128 0xf
 4418 0945 A8030000 		.4byte	0x3a8
 4419 0949 0F       		.uleb128 0xf
 4420 094a 0B090000 		.4byte	0x90b
 4421 094e 0F       		.uleb128 0xf
 4422 094f 2C000000 		.4byte	0x2c
 4423 0953 00       		.byte	0
 4424 0954 0C       		.uleb128 0xc
 4425 0955 04       		.byte	0x4
 4426 0956 3B090000 		.4byte	0x93b
 4427 095a 1D       		.uleb128 0x1d
 4428 095b 1C010000 		.4byte	0x11c
 4429 095f 6E090000 		.4byte	0x96e
 4430 0963 0F       		.uleb128 0xf
 4431 0964 A8030000 		.4byte	0x3a8
 4432 0968 0F       		.uleb128 0xf
 4433 0969 AE000000 		.4byte	0xae
 4434 096d 00       		.byte	0
 4435 096e 0C       		.uleb128 0xc
 4436 096f 04       		.byte	0x4
 4437 0970 5A090000 		.4byte	0x95a
 4438 0974 1D       		.uleb128 0x1d
 4439 0975 1C010000 		.4byte	0x11c
 4440 0979 83090000 		.4byte	0x983
 4441 097d 0F       		.uleb128 0xf
ARM GAS  /var/folders/m4/4md61f0s1_g0rzfghffqnxvr0000gn/T//ccmevqMd.s 			page 79


 4442 097e A8030000 		.4byte	0x3a8
 4443 0982 00       		.byte	0
 4444 0983 0C       		.uleb128 0xc
 4445 0984 04       		.byte	0x4
 4446 0985 74090000 		.4byte	0x974
 4447 0989 13       		.uleb128 0x13
 4448 098a 0C       		.byte	0xc
 4449 098b 11       		.byte	0x11
 4450 098c 6D01     		.2byte	0x16d
 4451 098e F50C0000 		.4byte	.LASF139
 4452 0992 D8090000 		.4byte	0x9d8
 4453 0996 0B       		.uleb128 0xb
 4454 0997 25060000 		.4byte	.LASF140
 4455 099b 11       		.byte	0x11
 4456 099c 6E01     		.2byte	0x16e
 4457 099e D8090000 		.4byte	0x9d8
 4458 09a2 00       		.byte	0
 4459 09a3 0B       		.uleb128 0xb
 4460 09a4 D1120000 		.4byte	.LASF141
 4461 09a8 11       		.byte	0x11
 4462 09a9 6F01     		.2byte	0x16f
 4463 09ab DE090000 		.4byte	0x9de
 4464 09af 04       		.byte	0x4
 4465 09b0 0B       		.uleb128 0xb
 4466 09b1 24040000 		.4byte	.LASF142
 4467 09b5 11       		.byte	0x11
 4468 09b6 7001     		.2byte	0x170
 4469 09b8 AE000000 		.4byte	0xae
 4470 09bc 08       		.byte	0x8
 4471 09bd 0B       		.uleb128 0xb
 4472 09be 730D0000 		.4byte	.LASF143
 4473 09c2 11       		.byte	0x11
 4474 09c3 7201     		.2byte	0x172
 4475 09c5 AE000000 		.4byte	0xae
 4476 09c9 09       		.byte	0x9
 4477 09ca 0B       		.uleb128 0xb
 4478 09cb C00E0000 		.4byte	.LASF144
 4479 09cf 11       		.byte	0x11
 4480 09d0 7301     		.2byte	0x173
 4481 09d2 AE000000 		.4byte	0xae
 4482 09d6 0A       		.byte	0xa
 4483 09d7 00       		.byte	0
 4484 09d8 0C       		.uleb128 0xc
 4485 09d9 04       		.byte	0x4
 4486 09da 45050000 		.4byte	0x545
 4487 09de 0C       		.uleb128 0xc
 4488 09df 04       		.byte	0x4
 4489 09e0 E5040000 		.4byte	0x4e5
 4490 09e4 14       		.uleb128 0x14
 4491 09e5 05000000 		.4byte	.LASF145
 4492 09e9 11       		.byte	0x11
 4493 09ea 7401     		.2byte	0x174
 4494 09ec 89090000 		.4byte	0x989
 4495 09f0 1D       		.uleb128 0x1d
 4496 09f1 1C010000 		.4byte	0x11c
 4497 09f5 090A0000 		.4byte	0xa09
 4498 09f9 0F       		.uleb128 0xf
ARM GAS  /var/folders/m4/4md61f0s1_g0rzfghffqnxvr0000gn/T//ccmevqMd.s 			page 80


 4499 09fa A8030000 		.4byte	0x3a8
 4500 09fe 0F       		.uleb128 0xf
 4501 09ff AE000000 		.4byte	0xae
 4502 0a03 0F       		.uleb128 0xf
 4503 0a04 48010000 		.4byte	0x148
 4504 0a08 00       		.byte	0
 4505 0a09 0C       		.uleb128 0xc
 4506 0a0a 04       		.byte	0x4
 4507 0a0b F0090000 		.4byte	0x9f0
 4508 0a0f 1D       		.uleb128 0x1d
 4509 0a10 1C010000 		.4byte	0x11c
 4510 0a14 230A0000 		.4byte	0xa23
 4511 0a18 0F       		.uleb128 0xf
 4512 0a19 A8030000 		.4byte	0x3a8
 4513 0a1d 0F       		.uleb128 0xf
 4514 0a1e 48010000 		.4byte	0x148
 4515 0a22 00       		.byte	0
 4516 0a23 0C       		.uleb128 0xc
 4517 0a24 04       		.byte	0x4
 4518 0a25 0F0A0000 		.4byte	0xa0f
 4519 0a29 1D       		.uleb128 0x1d
 4520 0a2a 2C000000 		.4byte	0x2c
 4521 0a2e 470A0000 		.4byte	0xa47
 4522 0a32 0F       		.uleb128 0xf
 4523 0a33 A8030000 		.4byte	0x3a8
 4524 0a37 0F       		.uleb128 0xf
 4525 0a38 2A090000 		.4byte	0x92a
 4526 0a3c 0F       		.uleb128 0xf
 4527 0a3d 2C000000 		.4byte	0x2c
 4528 0a41 0F       		.uleb128 0xf
 4529 0a42 48010000 		.4byte	0x148
 4530 0a46 00       		.byte	0
 4531 0a47 0C       		.uleb128 0xc
 4532 0a48 04       		.byte	0x4
 4533 0a49 290A0000 		.4byte	0xa29
 4534 0a4d 1D       		.uleb128 0x1d
 4535 0a4e 2C000000 		.4byte	0x2c
 4536 0a52 6B0A0000 		.4byte	0xa6b
 4537 0a56 0F       		.uleb128 0xf
 4538 0a57 A8030000 		.4byte	0x3a8
 4539 0a5b 0F       		.uleb128 0xf
 4540 0a5c 0B090000 		.4byte	0x90b
 4541 0a60 0F       		.uleb128 0xf
 4542 0a61 2C000000 		.4byte	0x2c
 4543 0a65 0F       		.uleb128 0xf
 4544 0a66 48010000 		.4byte	0x148
 4545 0a6a 00       		.byte	0
 4546 0a6b 0C       		.uleb128 0xc
 4547 0a6c 04       		.byte	0x4
 4548 0a6d 4D0A0000 		.4byte	0xa4d
 4549 0a71 04       		.uleb128 0x4
 4550 0a72 01       		.byte	0x1
 4551 0a73 02       		.byte	0x2
 4552 0a74 100C0000 		.4byte	.LASF146
 4553 0a78 19       		.uleb128 0x19
 4554 0a79 2C       		.byte	0x2c
 4555 0a7a 12       		.byte	0x12
ARM GAS  /var/folders/m4/4md61f0s1_g0rzfghffqnxvr0000gn/T//ccmevqMd.s 			page 81


 4556 0a7b DD       		.byte	0xdd
 4557 0a7c E9030000 		.4byte	.LASF148
 4558 0a80 4A0B0000 		.4byte	0xb4a
 4559 0a84 07       		.uleb128 0x7
 4560 0a85 04       		.byte	0x4
 4561 0a86 12       		.byte	0x12
 4562 0a87 E5       		.byte	0xe5
 4563 0a88 C00A0000 		.4byte	0xac0
 4564 0a8c 1E       		.uleb128 0x1e
 4565 0a8d 04       		.byte	0x4
 4566 0a8e 12       		.byte	0x12
 4567 0a8f E7       		.byte	0xe7
 4568 0a90 AD0A0000 		.4byte	0xaad
 4569 0a94 18       		.uleb128 0x18
 4570 0a95 73657400 		.ascii	"set\000"
 4571 0a99 12       		.byte	0x12
 4572 0a9a E8       		.byte	0xe8
 4573 0a9b B9000000 		.4byte	0xb9
 4574 0a9f 00       		.byte	0
 4575 0aa0 09       		.uleb128 0x9
 4576 0aa1 98070000 		.4byte	.LASF149
 4577 0aa5 12       		.byte	0x12
 4578 0aa6 E9       		.byte	0xe9
 4579 0aa7 B9000000 		.4byte	0xb9
 4580 0aab 02       		.byte	0x2
 4581 0aac 00       		.byte	0
 4582 0aad 1F       		.uleb128 0x1f
 4583 0aae 5700     		.ascii	"W\000"
 4584 0ab0 12       		.byte	0x12
 4585 0ab1 E6       		.byte	0xe6
 4586 0ab2 CF000000 		.4byte	0xcf
 4587 0ab6 1F       		.uleb128 0x1f
 4588 0ab7 4800     		.ascii	"H\000"
 4589 0ab9 12       		.byte	0x12
 4590 0aba EA       		.byte	0xea
 4591 0abb 8C0A0000 		.4byte	0xa8c
 4592 0abf 00       		.byte	0
 4593 0ac0 09       		.uleb128 0x9
 4594 0ac1 6E0A0000 		.4byte	.LASF150
 4595 0ac5 12       		.byte	0x12
 4596 0ac6 DF       		.byte	0xdf
 4597 0ac7 E5040000 		.4byte	0x4e5
 4598 0acb 00       		.byte	0
 4599 0acc 09       		.uleb128 0x9
 4600 0acd 220F0000 		.4byte	.LASF151
 4601 0ad1 12       		.byte	0x12
 4602 0ad2 E0       		.byte	0xe0
 4603 0ad3 E5040000 		.4byte	0x4e5
 4604 0ad7 04       		.byte	0x4
 4605 0ad8 09       		.uleb128 0x9
 4606 0ad9 91080000 		.4byte	.LASF152
 4607 0add 12       		.byte	0x12
 4608 0ade E1       		.byte	0xe1
 4609 0adf E5040000 		.4byte	0x4e5
 4610 0ae3 08       		.byte	0x8
 4611 0ae4 09       		.uleb128 0x9
 4612 0ae5 10020000 		.4byte	.LASF153
ARM GAS  /var/folders/m4/4md61f0s1_g0rzfghffqnxvr0000gn/T//ccmevqMd.s 			page 82


 4613 0ae9 12       		.byte	0x12
 4614 0aea E2       		.byte	0xe2
 4615 0aeb E5040000 		.4byte	0x4e5
 4616 0aef 0C       		.byte	0xc
 4617 0af0 18       		.uleb128 0x18
 4618 0af1 49445200 		.ascii	"IDR\000"
 4619 0af5 12       		.byte	0x12
 4620 0af6 E3       		.byte	0xe3
 4621 0af7 E5040000 		.4byte	0x4e5
 4622 0afb 10       		.byte	0x10
 4623 0afc 18       		.uleb128 0x18
 4624 0afd 4F445200 		.ascii	"ODR\000"
 4625 0b01 12       		.byte	0x12
 4626 0b02 E4       		.byte	0xe4
 4627 0b03 E5040000 		.4byte	0x4e5
 4628 0b07 14       		.byte	0x14
 4629 0b08 09       		.uleb128 0x9
 4630 0b09 AB100000 		.4byte	.LASF154
 4631 0b0d 12       		.byte	0x12
 4632 0b0e EB       		.byte	0xeb
 4633 0b0f 140B0000 		.4byte	0xb14
 4634 0b13 18       		.byte	0x18
 4635 0b14 12       		.uleb128 0x12
 4636 0b15 840A0000 		.4byte	0xa84
 4637 0b19 09       		.uleb128 0x9
 4638 0b1a 69080000 		.4byte	.LASF155
 4639 0b1e 12       		.byte	0x12
 4640 0b1f EC       		.byte	0xec
 4641 0b20 E5040000 		.4byte	0x4e5
 4642 0b24 1C       		.byte	0x1c
 4643 0b25 09       		.uleb128 0x9
 4644 0b26 A90E0000 		.4byte	.LASF156
 4645 0b2a 12       		.byte	0x12
 4646 0b2b ED       		.byte	0xed
 4647 0b2c E5040000 		.4byte	0x4e5
 4648 0b30 20       		.byte	0x20
 4649 0b31 09       		.uleb128 0x9
 4650 0b32 9C0E0000 		.4byte	.LASF157
 4651 0b36 12       		.byte	0x12
 4652 0b37 EE       		.byte	0xee
 4653 0b38 E5040000 		.4byte	0x4e5
 4654 0b3c 24       		.byte	0x24
 4655 0b3d 18       		.uleb128 0x18
 4656 0b3e 42525200 		.ascii	"BRR\000"
 4657 0b42 12       		.byte	0x12
 4658 0b43 EF       		.byte	0xef
 4659 0b44 E5040000 		.4byte	0x4e5
 4660 0b48 28       		.byte	0x28
 4661 0b49 00       		.byte	0
 4662 0b4a 03       		.uleb128 0x3
 4663 0b4b 57030000 		.4byte	.LASF158
 4664 0b4f 12       		.byte	0x12
 4665 0b50 F0       		.byte	0xf0
 4666 0b51 780A0000 		.4byte	0xa78
 4667 0b55 14       		.uleb128 0x14
 4668 0b56 71060000 		.4byte	.LASF159
 4669 0b5a 12       		.byte	0x12
ARM GAS  /var/folders/m4/4md61f0s1_g0rzfghffqnxvr0000gn/T//ccmevqMd.s 			page 83


 4670 0b5b 3F01     		.2byte	0x13f
 4671 0b5d CF000000 		.4byte	0xcf
 4672 0b61 14       		.uleb128 0x14
 4673 0b62 91010000 		.4byte	.LASF160
 4674 0b66 12       		.byte	0x12
 4675 0b67 4401     		.2byte	0x144
 4676 0b69 CF000000 		.4byte	0xcf
 4677 0b6d 14       		.uleb128 0x14
 4678 0b6e 90020000 		.4byte	.LASF161
 4679 0b72 12       		.byte	0x12
 4680 0b73 5101     		.2byte	0x151
 4681 0b75 790B0000 		.4byte	0xb79
 4682 0b79 0C       		.uleb128 0xc
 4683 0b7a 04       		.byte	0x4
 4684 0b7b 4A0B0000 		.4byte	0xb4a
 4685 0b7f 0C       		.uleb128 0xc
 4686 0b80 04       		.byte	0x4
 4687 0b81 850B0000 		.4byte	0xb85
 4688 0b85 1A       		.uleb128 0x1a
 4689 0b86 E4090000 		.4byte	0x9e4
 4690 0b8a 15       		.uleb128 0x15
 4691 0b8b 01       		.byte	0x1
 4692 0b8c 13       		.byte	0x13
 4693 0b8d 3F       		.byte	0x3f
 4694 0b8e BD0B0000 		.4byte	.LASF162
 4695 0b92 A90B0000 		.4byte	0xba9
 4696 0b96 16       		.uleb128 0x16
 4697 0b97 DD070000 		.4byte	.LASF163
 4698 0b9b 00       		.sleb128 0
 4699 0b9c 16       		.uleb128 0x16
 4700 0b9d 8F070000 		.4byte	.LASF164
 4701 0ba1 01       		.sleb128 1
 4702 0ba2 16       		.uleb128 0x16
 4703 0ba3 52090000 		.4byte	.LASF165
 4704 0ba7 02       		.sleb128 2
 4705 0ba8 00       		.byte	0
 4706 0ba9 03       		.uleb128 0x3
 4707 0baa ED020000 		.4byte	.LASF166
 4708 0bae 13       		.byte	0x13
 4709 0baf 43       		.byte	0x43
 4710 0bb0 8A0B0000 		.4byte	0xb8a
 4711 0bb4 03       		.uleb128 0x3
 4712 0bb5 99080000 		.4byte	.LASF167
 4713 0bb9 13       		.byte	0x13
 4714 0bba 48       		.byte	0x48
 4715 0bbb BF0B0000 		.4byte	0xbbf
 4716 0bbf 06       		.uleb128 0x6
 4717 0bc0 99080000 		.4byte	.LASF167
 4718 0bc4 08       		.byte	0x8
 4719 0bc5 14       		.byte	0x14
 4720 0bc6 73       		.byte	0x73
 4721 0bc7 E40B0000 		.4byte	0xbe4
 4722 0bcb 09       		.uleb128 0x9
 4723 0bcc 52010000 		.4byte	.LASF168
 4724 0bd0 14       		.byte	0x14
 4725 0bd1 77       		.byte	0x77
 4726 0bd2 A90B0000 		.4byte	0xba9
ARM GAS  /var/folders/m4/4md61f0s1_g0rzfghffqnxvr0000gn/T//ccmevqMd.s 			page 84


 4727 0bd6 00       		.byte	0
 4728 0bd7 09       		.uleb128 0x9
 4729 0bd8 4B010000 		.4byte	.LASF169
 4730 0bdc 14       		.byte	0x14
 4731 0bdd 7B       		.byte	0x7b
 4732 0bde 790C0000 		.4byte	0xc79
 4733 0be2 04       		.byte	0x4
 4734 0be3 00       		.byte	0
 4735 0be4 03       		.uleb128 0x3
 4736 0be5 700F0000 		.4byte	.LASF170
 4737 0be9 14       		.byte	0x14
 4738 0bea 49       		.byte	0x49
 4739 0beb CF000000 		.4byte	0xcf
 4740 0bef 03       		.uleb128 0x3
 4741 0bf0 2A0C0000 		.4byte	.LASF171
 4742 0bf4 14       		.byte	0x14
 4743 0bf5 51       		.byte	0x51
 4744 0bf6 FA0B0000 		.4byte	0xbfa
 4745 0bfa 0C       		.uleb128 0xc
 4746 0bfb 04       		.byte	0x4
 4747 0bfc 000C0000 		.4byte	0xc00
 4748 0c00 0E       		.uleb128 0xe
 4749 0c01 100C0000 		.4byte	0xc10
 4750 0c05 0F       		.uleb128 0xf
 4751 0c06 100C0000 		.4byte	0xc10
 4752 0c0a 0F       		.uleb128 0xf
 4753 0c0b E40B0000 		.4byte	0xbe4
 4754 0c0f 00       		.byte	0
 4755 0c10 0C       		.uleb128 0xc
 4756 0c11 04       		.byte	0x4
 4757 0c12 B40B0000 		.4byte	0xbb4
 4758 0c16 19       		.uleb128 0x19
 4759 0c17 08       		.byte	0x8
 4760 0c18 14       		.byte	0x14
 4761 0c19 56       		.byte	0x56
 4762 0c1a 95130000 		.4byte	.LASF172
 4763 0c1e 3A0C0000 		.4byte	0xc3a
 4764 0c22 09       		.uleb128 0x9
 4765 0c23 16100000 		.4byte	.LASF173
 4766 0c27 14       		.byte	0x14
 4767 0c28 5A       		.byte	0x5a
 4768 0c29 CF000000 		.4byte	0xcf
 4769 0c2d 00       		.byte	0
 4770 0c2e 18       		.uleb128 0x18
 4771 0c2f 636200   		.ascii	"cb\000"
 4772 0c32 14       		.byte	0x14
 4773 0c33 61       		.byte	0x61
 4774 0c34 EF0B0000 		.4byte	0xbef
 4775 0c38 04       		.byte	0x4
 4776 0c39 00       		.byte	0
 4777 0c3a 03       		.uleb128 0x3
 4778 0c3b 7A010000 		.4byte	.LASF174
 4779 0c3f 14       		.byte	0x14
 4780 0c40 62       		.byte	0x62
 4781 0c41 160C0000 		.4byte	0xc16
 4782 0c45 19       		.uleb128 0x19
 4783 0c46 B8       		.byte	0xb8
ARM GAS  /var/folders/m4/4md61f0s1_g0rzfghffqnxvr0000gn/T//ccmevqMd.s 			page 85


 4784 0c47 14       		.byte	0x14
 4785 0c48 68       		.byte	0x68
 4786 0c49 2A020000 		.4byte	.LASF175
 4787 0c4d 5E0C0000 		.4byte	0xc5e
 4788 0c51 09       		.uleb128 0x9
 4789 0c52 DC0A0000 		.4byte	.LASF176
 4790 0c56 14       		.byte	0x14
 4791 0c57 6C       		.byte	0x6c
 4792 0c58 5E0C0000 		.4byte	0xc5e
 4793 0c5c 00       		.byte	0
 4794 0c5d 00       		.byte	0
 4795 0c5e 1B       		.uleb128 0x1b
 4796 0c5f 3A0C0000 		.4byte	0xc3a
 4797 0c63 6E0C0000 		.4byte	0xc6e
 4798 0c67 1C       		.uleb128 0x1c
 4799 0c68 DE040000 		.4byte	0x4de
 4800 0c6c 16       		.byte	0x16
 4801 0c6d 00       		.byte	0
 4802 0c6e 03       		.uleb128 0x3
 4803 0c6f 0E080000 		.4byte	.LASF177
 4804 0c73 14       		.byte	0x14
 4805 0c74 6E       		.byte	0x6e
 4806 0c75 450C0000 		.4byte	0xc45
 4807 0c79 0C       		.uleb128 0xc
 4808 0c7a 04       		.byte	0x4
 4809 0c7b 7F0C0000 		.4byte	0xc7f
 4810 0c7f 1A       		.uleb128 0x1a
 4811 0c80 6E0C0000 		.4byte	0xc6e
 4812 0c84 15       		.uleb128 0x15
 4813 0c85 01       		.byte	0x1
 4814 0c86 15       		.byte	0x15
 4815 0c87 46       		.byte	0x46
 4816 0c88 A7060000 		.4byte	.LASF178
 4817 0c8c AF0C0000 		.4byte	0xcaf
 4818 0c90 16       		.uleb128 0x16
 4819 0c91 4F020000 		.4byte	.LASF179
 4820 0c95 00       		.sleb128 0
 4821 0c96 16       		.uleb128 0x16
 4822 0c97 3D020000 		.4byte	.LASF180
 4823 0c9b 01       		.sleb128 1
 4824 0c9c 16       		.uleb128 0x16
 4825 0c9d 1F090000 		.4byte	.LASF181
 4826 0ca1 02       		.sleb128 2
 4827 0ca2 16       		.uleb128 0x16
 4828 0ca3 C10A0000 		.4byte	.LASF182
 4829 0ca7 03       		.sleb128 3
 4830 0ca8 16       		.uleb128 0x16
 4831 0ca9 B6110000 		.4byte	.LASF183
 4832 0cad 04       		.sleb128 4
 4833 0cae 00       		.byte	0
 4834 0caf 03       		.uleb128 0x3
 4835 0cb0 6D120000 		.4byte	.LASF184
 4836 0cb4 15       		.byte	0x15
 4837 0cb5 4C       		.byte	0x4c
 4838 0cb6 840C0000 		.4byte	0xc84
 4839 0cba 14       		.uleb128 0x14
 4840 0cbb 32040000 		.4byte	.LASF185
ARM GAS  /var/folders/m4/4md61f0s1_g0rzfghffqnxvr0000gn/T//ccmevqMd.s 			page 86


 4841 0cbf 16       		.byte	0x16
 4842 0cc0 9601     		.2byte	0x196
 4843 0cc2 C60C0000 		.4byte	0xcc6
 4844 0cc6 0D       		.uleb128 0xd
 4845 0cc7 32040000 		.4byte	.LASF185
 4846 0ccb 30       		.byte	0x30
 4847 0ccc 16       		.byte	0x16
 4848 0ccd BA01     		.2byte	0x1ba
 4849 0ccf 490D0000 		.4byte	0xd49
 4850 0cd3 0B       		.uleb128 0xb
 4851 0cd4 52010000 		.4byte	.LASF168
 4852 0cd8 16       		.byte	0x16
 4853 0cd9 BE01     		.2byte	0x1be
 4854 0cdb AF0C0000 		.4byte	0xcaf
 4855 0cdf 00       		.byte	0
 4856 0ce0 0B       		.uleb128 0xb
 4857 0ce1 4B010000 		.4byte	.LASF169
 4858 0ce5 16       		.byte	0x16
 4859 0ce6 C201     		.2byte	0x1c2
 4860 0ce8 BA0D0000 		.4byte	0xdba
 4861 0cec 04       		.byte	0x4
 4862 0ced 0B       		.uleb128 0xb
 4863 0cee AC0F0000 		.4byte	.LASF186
 4864 0cf2 16       		.byte	0x16
 4865 0cf3 C701     		.2byte	0x1c7
 4866 0cf5 C0020000 		.4byte	0x2c0
 4867 0cf9 08       		.byte	0x8
 4868 0cfa 0B       		.uleb128 0xb
 4869 0cfb C8090000 		.4byte	.LASF187
 4870 0cff 16       		.byte	0x16
 4871 0d00 CD01     		.2byte	0x1cd
 4872 0d02 7C080000 		.4byte	0x87c
 4873 0d06 0C       		.byte	0xc
 4874 0d07 0A       		.uleb128 0xa
 4875 0d08 73706900 		.ascii	"spi\000"
 4876 0d0c 16       		.byte	0x16
 4877 0d0d D601     		.2byte	0x1d6
 4878 0d0f C50D0000 		.4byte	0xdc5
 4879 0d13 1C       		.byte	0x1c
 4880 0d14 0B       		.uleb128 0xb
 4881 0d15 AE080000 		.4byte	.LASF188
 4882 0d19 16       		.byte	0x16
 4883 0d1a DA01     		.2byte	0x1da
 4884 0d1c 7F0B0000 		.4byte	0xb7f
 4885 0d20 20       		.byte	0x20
 4886 0d21 0B       		.uleb128 0xb
 4887 0d22 680A0000 		.4byte	.LASF189
 4888 0d26 16       		.byte	0x16
 4889 0d27 DE01     		.2byte	0x1de
 4890 0d29 7F0B0000 		.4byte	0xb7f
 4891 0d2d 24       		.byte	0x24
 4892 0d2e 0B       		.uleb128 0xb
 4893 0d2f 170A0000 		.4byte	.LASF190
 4894 0d33 16       		.byte	0x16
 4895 0d34 E201     		.2byte	0x1e2
 4896 0d36 CF000000 		.4byte	0xcf
 4897 0d3a 28       		.byte	0x28
ARM GAS  /var/folders/m4/4md61f0s1_g0rzfghffqnxvr0000gn/T//ccmevqMd.s 			page 87


 4898 0d3b 0B       		.uleb128 0xb
 4899 0d3c B4130000 		.4byte	.LASF191
 4900 0d40 16       		.byte	0x16
 4901 0d41 E601     		.2byte	0x1e6
 4902 0d43 CF000000 		.4byte	0xcf
 4903 0d47 2C       		.byte	0x2c
 4904 0d48 00       		.byte	0
 4905 0d49 14       		.uleb128 0x14
 4906 0d4a 64030000 		.4byte	.LASF192
 4907 0d4e 16       		.byte	0x16
 4908 0d4f 9E01     		.2byte	0x19e
 4909 0d51 550D0000 		.4byte	0xd55
 4910 0d55 0C       		.uleb128 0xc
 4911 0d56 04       		.byte	0x4
 4912 0d57 5B0D0000 		.4byte	0xd5b
 4913 0d5b 0E       		.uleb128 0xe
 4914 0d5c 660D0000 		.4byte	0xd66
 4915 0d60 0F       		.uleb128 0xf
 4916 0d61 660D0000 		.4byte	0xd66
 4917 0d65 00       		.byte	0
 4918 0d66 0C       		.uleb128 0xc
 4919 0d67 04       		.byte	0x4
 4920 0d68 BA0C0000 		.4byte	0xcba
 4921 0d6c 13       		.uleb128 0x13
 4922 0d6d 0C       		.byte	0xc
 4923 0d6e 16       		.byte	0x16
 4924 0d6f A301     		.2byte	0x1a3
 4925 0d71 9D120000 		.4byte	.LASF193
 4926 0d75 AE0D0000 		.4byte	0xdae
 4927 0d79 0B       		.uleb128 0xb
 4928 0d7a C5010000 		.4byte	.LASF194
 4929 0d7e 16       		.byte	0x16
 4930 0d7f A701     		.2byte	0x1a7
 4931 0d81 490D0000 		.4byte	0xd49
 4932 0d85 00       		.byte	0
 4933 0d86 0B       		.uleb128 0xb
 4934 0d87 F8000000 		.4byte	.LASF195
 4935 0d8b 16       		.byte	0x16
 4936 0d8c AC01     		.2byte	0x1ac
 4937 0d8e 6D0B0000 		.4byte	0xb6d
 4938 0d92 04       		.byte	0x4
 4939 0d93 0B       		.uleb128 0xb
 4940 0d94 D6120000 		.4byte	.LASF196
 4941 0d98 16       		.byte	0x16
 4942 0d99 B001     		.2byte	0x1b0
 4943 0d9b B9000000 		.4byte	0xb9
 4944 0d9f 08       		.byte	0x8
 4945 0da0 0A       		.uleb128 0xa
 4946 0da1 63723100 		.ascii	"cr1\000"
 4947 0da5 16       		.byte	0x16
 4948 0da6 B401     		.2byte	0x1b4
 4949 0da8 B9000000 		.4byte	0xb9
 4950 0dac 0A       		.byte	0xa
 4951 0dad 00       		.byte	0
 4952 0dae 14       		.uleb128 0x14
 4953 0daf AB0A0000 		.4byte	.LASF197
 4954 0db3 16       		.byte	0x16
ARM GAS  /var/folders/m4/4md61f0s1_g0rzfghffqnxvr0000gn/T//ccmevqMd.s 			page 88


 4955 0db4 B501     		.2byte	0x1b5
 4956 0db6 6C0D0000 		.4byte	0xd6c
 4957 0dba 0C       		.uleb128 0xc
 4958 0dbb 04       		.byte	0x4
 4959 0dbc C00D0000 		.4byte	0xdc0
 4960 0dc0 1A       		.uleb128 0x1a
 4961 0dc1 AE0D0000 		.4byte	0xdae
 4962 0dc5 0C       		.uleb128 0xc
 4963 0dc6 04       		.byte	0x4
 4964 0dc7 D2050000 		.4byte	0x5d2
 4965 0dcb 19       		.uleb128 0x19
 4966 0dcc 0C       		.byte	0xc
 4967 0dcd 17       		.byte	0x17
 4968 0dce 65       		.byte	0x65
 4969 0dcf 88040000 		.4byte	.LASF198
 4970 0dd3 FC0D0000 		.4byte	0xdfc
 4971 0dd7 09       		.uleb128 0x9
 4972 0dd8 210A0000 		.4byte	.LASF199
 4973 0ddc 17       		.byte	0x17
 4974 0ddd 66       		.byte	0x66
 4975 0dde 660D0000 		.4byte	0xd66
 4976 0de2 00       		.byte	0
 4977 0de3 09       		.uleb128 0x9
 4978 0de4 040B0000 		.4byte	.LASF200
 4979 0de8 17       		.byte	0x17
 4980 0de9 67       		.byte	0x67
 4981 0dea 6D0B0000 		.4byte	0xb6d
 4982 0dee 04       		.byte	0x4
 4983 0def 09       		.uleb128 0x9
 4984 0df0 830B0000 		.4byte	.LASF201
 4985 0df4 17       		.byte	0x17
 4986 0df5 68       		.byte	0x68
 4987 0df6 B9000000 		.4byte	0xb9
 4988 0dfa 08       		.byte	0x8
 4989 0dfb 00       		.byte	0
 4990 0dfc 03       		.uleb128 0x3
 4991 0dfd FC050000 		.4byte	.LASF202
 4992 0e01 17       		.byte	0x17
 4993 0e02 69       		.byte	0x69
 4994 0e03 CB0D0000 		.4byte	0xdcb
 4995 0e07 06       		.uleb128 0x6
 4996 0e08 70040000 		.4byte	.LASF203
 4997 0e0c 20       		.byte	0x20
 4998 0e0d 17       		.byte	0x17
 4999 0e0e 6B       		.byte	0x6b
 5000 0e0f 740E0000 		.4byte	0xe74
 5001 0e13 09       		.uleb128 0x9
 5002 0e14 17010000 		.4byte	.LASF204
 5003 0e18 17       		.byte	0x17
 5004 0e19 6D       		.byte	0x6d
 5005 0e1a 35090000 		.4byte	0x935
 5006 0e1e 00       		.byte	0
 5007 0e1f 09       		.uleb128 0x9
 5008 0e20 7C0A0000 		.4byte	.LASF205
 5009 0e24 17       		.byte	0x17
 5010 0e25 6D       		.byte	0x6d
 5011 0e26 54090000 		.4byte	0x954
ARM GAS  /var/folders/m4/4md61f0s1_g0rzfghffqnxvr0000gn/T//ccmevqMd.s 			page 89


 5012 0e2a 04       		.byte	0x4
 5013 0e2b 18       		.uleb128 0x18
 5014 0e2c 70757400 		.ascii	"put\000"
 5015 0e30 17       		.byte	0x17
 5016 0e31 6D       		.byte	0x6d
 5017 0e32 6E090000 		.4byte	0x96e
 5018 0e36 08       		.byte	0x8
 5019 0e37 18       		.uleb128 0x18
 5020 0e38 67657400 		.ascii	"get\000"
 5021 0e3c 17       		.byte	0x17
 5022 0e3d 6D       		.byte	0x6d
 5023 0e3e 83090000 		.4byte	0x983
 5024 0e42 0C       		.byte	0xc
 5025 0e43 09       		.uleb128 0x9
 5026 0e44 58010000 		.4byte	.LASF206
 5027 0e48 17       		.byte	0x17
 5028 0e49 6D       		.byte	0x6d
 5029 0e4a 090A0000 		.4byte	0xa09
 5030 0e4e 10       		.byte	0x10
 5031 0e4f 09       		.uleb128 0x9
 5032 0e50 83040000 		.4byte	.LASF207
 5033 0e54 17       		.byte	0x17
 5034 0e55 6D       		.byte	0x6d
 5035 0e56 230A0000 		.4byte	0xa23
 5036 0e5a 14       		.byte	0x14
 5037 0e5b 09       		.uleb128 0x9
 5038 0e5c A3000000 		.4byte	.LASF208
 5039 0e60 17       		.byte	0x17
 5040 0e61 6D       		.byte	0x6d
 5041 0e62 470A0000 		.4byte	0xa47
 5042 0e66 18       		.byte	0x18
 5043 0e67 09       		.uleb128 0x9
 5044 0e68 16020000 		.4byte	.LASF209
 5045 0e6c 17       		.byte	0x17
 5046 0e6d 6D       		.byte	0x6d
 5047 0e6e 6B0A0000 		.4byte	0xa6b
 5048 0e72 1C       		.byte	0x1c
 5049 0e73 00       		.byte	0
 5050 0e74 06       		.uleb128 0x6
 5051 0e75 2E0F0000 		.4byte	.LASF210
 5052 0e79 30       		.byte	0x30
 5053 0e7a 17       		.byte	0x17
 5054 0e7b 70       		.byte	0x70
 5055 0e7c BD0E0000 		.4byte	0xebd
 5056 0e80 18       		.uleb128 0x18
 5057 0e81 766D7400 		.ascii	"vmt\000"
 5058 0e85 17       		.byte	0x17
 5059 0e86 72       		.byte	0x72
 5060 0e87 BD0E0000 		.4byte	0xebd
 5061 0e8b 00       		.byte	0
 5062 0e8c 09       		.uleb128 0x9
 5063 0e8d 7F0E0000 		.4byte	.LASF211
 5064 0e91 17       		.byte	0x17
 5065 0e92 73       		.byte	0x73
 5066 0e93 FC0E0000 		.4byte	0xefc
 5067 0e97 04       		.byte	0x4
 5068 0e98 09       		.uleb128 0x9
ARM GAS  /var/folders/m4/4md61f0s1_g0rzfghffqnxvr0000gn/T//ccmevqMd.s 			page 90


 5069 0e99 95000000 		.4byte	.LASF212
 5070 0e9d 17       		.byte	0x17
 5071 0e9e 74       		.byte	0x74
 5072 0e9f 020F0000 		.4byte	0xf02
 5073 0ea3 08       		.byte	0x8
 5074 0ea4 09       		.uleb128 0x9
 5075 0ea5 A3080000 		.4byte	.LASF213
 5076 0ea9 17       		.byte	0x17
 5077 0eaa 75       		.byte	0x75
 5078 0eab AE000000 		.4byte	0xae
 5079 0eaf 28       		.byte	0x28
 5080 0eb0 09       		.uleb128 0x9
 5081 0eb1 5D0A0000 		.4byte	.LASF214
 5082 0eb5 17       		.byte	0x17
 5083 0eb6 76       		.byte	0x76
 5084 0eb7 00090000 		.4byte	0x900
 5085 0ebb 2C       		.byte	0x2c
 5086 0ebc 00       		.byte	0
 5087 0ebd 0C       		.uleb128 0xc
 5088 0ebe 04       		.byte	0x4
 5089 0ebf C30E0000 		.4byte	0xec3
 5090 0ec3 1A       		.uleb128 0x1a
 5091 0ec4 070E0000 		.4byte	0xe07
 5092 0ec8 20       		.uleb128 0x20
 5093 0ec9 FF000000 		.4byte	.LASF215
 5094 0ecd 2801     		.2byte	0x128
 5095 0ecf 17       		.byte	0x17
 5096 0ed0 79       		.byte	0x79
 5097 0ed1 FC0E0000 		.4byte	0xefc
 5098 0ed5 09       		.uleb128 0x9
 5099 0ed6 DC0A0000 		.4byte	.LASF176
 5100 0eda 17       		.byte	0x17
 5101 0edb 7B       		.byte	0x7b
 5102 0edc 120F0000 		.4byte	0xf12
 5103 0ee0 00       		.byte	0
 5104 0ee1 21       		.uleb128 0x21
 5105 0ee2 F3130000 		.4byte	.LASF216
 5106 0ee6 17       		.byte	0x17
 5107 0ee7 7C       		.byte	0x7c
 5108 0ee8 00090000 		.4byte	0x900
 5109 0eec 2001     		.2byte	0x120
 5110 0eee 21       		.uleb128 0x21
 5111 0eef 4B010000 		.4byte	.LASF169
 5112 0ef3 17       		.byte	0x17
 5113 0ef4 7D       		.byte	0x7d
 5114 0ef5 220F0000 		.4byte	0xf22
 5115 0ef9 2401     		.2byte	0x124
 5116 0efb 00       		.byte	0
 5117 0efc 0C       		.uleb128 0xc
 5118 0efd 04       		.byte	0x4
 5119 0efe C80E0000 		.4byte	0xec8
 5120 0f02 1B       		.uleb128 0x1b
 5121 0f03 63000000 		.4byte	0x63
 5122 0f07 120F0000 		.4byte	0xf12
 5123 0f0b 1C       		.uleb128 0x1c
 5124 0f0c DE040000 		.4byte	0x4de
 5125 0f10 1F       		.byte	0x1f
ARM GAS  /var/folders/m4/4md61f0s1_g0rzfghffqnxvr0000gn/T//ccmevqMd.s 			page 91


 5126 0f11 00       		.byte	0
 5127 0f12 1B       		.uleb128 0x1b
 5128 0f13 740E0000 		.4byte	0xe74
 5129 0f17 220F0000 		.4byte	0xf22
 5130 0f1b 1C       		.uleb128 0x1c
 5131 0f1c DE040000 		.4byte	0x4de
 5132 0f20 05       		.byte	0x5
 5133 0f21 00       		.byte	0
 5134 0f22 0C       		.uleb128 0xc
 5135 0f23 04       		.byte	0x4
 5136 0f24 280F0000 		.4byte	0xf28
 5137 0f28 1A       		.uleb128 0x1a
 5138 0f29 FC0D0000 		.4byte	0xdfc
 5139 0f2d 03       		.uleb128 0x3
 5140 0f2e FF000000 		.4byte	.LASF215
 5141 0f32 17       		.byte	0x17
 5142 0f33 80       		.byte	0x80
 5143 0f34 C80E0000 		.4byte	0xec8
 5144 0f38 22       		.uleb128 0x22
 5145 0f39 DE0E0000 		.4byte	.LASF221
 5146 0f3d 02       		.byte	0x2
 5147 0f3e 2202     		.2byte	0x222
 5148 0f40 03       		.byte	0x3
 5149 0f41 520F0000 		.4byte	0xf52
 5150 0f45 23       		.uleb128 0x23
 5151 0f46 F8030000 		.4byte	.LASF223
 5152 0f4a 02       		.byte	0x2
 5153 0f4b 2202     		.2byte	0x222
 5154 0f4d CF000000 		.4byte	0xcf
 5155 0f51 00       		.byte	0
 5156 0f52 24       		.uleb128 0x24
 5157 0f53 B80F0000 		.4byte	.LASF217
 5158 0f57 0D       		.byte	0xd
 5159 0f58 C801     		.2byte	0x1c8
 5160 0f5a 03       		.byte	0x3
 5161 0f5b 24       		.uleb128 0x24
 5162 0f5c 61020000 		.4byte	.LASF218
 5163 0f60 0D       		.byte	0xd
 5164 0f61 E001     		.2byte	0x1e0
 5165 0f63 03       		.byte	0x3
 5166 0f64 24       		.uleb128 0x24
 5167 0f65 3F090000 		.4byte	.LASF219
 5168 0f69 0D       		.byte	0xd
 5169 0f6a EF01     		.2byte	0x1ef
 5170 0f6c 03       		.byte	0x3
 5171 0f6d 24       		.uleb128 0x24
 5172 0f6e B70C0000 		.4byte	.LASF220
 5173 0f72 0D       		.byte	0xd
 5174 0f73 FA01     		.2byte	0x1fa
 5175 0f75 03       		.byte	0x3
 5176 0f76 25       		.uleb128 0x25
 5177 0f77 14040000 		.4byte	.LASF222
 5178 0f7b 03       		.byte	0x3
 5179 0f7c AA       		.byte	0xaa
 5180 0f7d 03       		.byte	0x3
 5181 0f7e 8E0F0000 		.4byte	0xf8e
 5182 0f82 26       		.uleb128 0x26
ARM GAS  /var/folders/m4/4md61f0s1_g0rzfghffqnxvr0000gn/T//ccmevqMd.s 			page 92


 5183 0f83 65737000 		.ascii	"esp\000"
 5184 0f87 03       		.byte	0x3
 5185 0f88 AA       		.byte	0xaa
 5186 0f89 8E0F0000 		.4byte	0xf8e
 5187 0f8d 00       		.byte	0
 5188 0f8e 0C       		.uleb128 0xc
 5189 0f8f 04       		.byte	0x4
 5190 0f90 00090000 		.4byte	0x900
 5191 0f94 27       		.uleb128 0x27
 5192 0f95 DF090000 		.4byte	.LASF226
 5193 0f99 01       		.byte	0x1
 5194 0f9a 9C01     		.2byte	0x19c
 5195 0f9c 01       		.byte	0x1
 5196 0f9d C60F0000 		.4byte	0xfc6
 5197 0fa1 23       		.uleb128 0x23
 5198 0fa2 7F0E0000 		.4byte	.LASF211
 5199 0fa6 01       		.byte	0x1
 5200 0fa7 9C01     		.2byte	0x19c
 5201 0fa9 C60F0000 		.4byte	0xfc6
 5202 0fad 23       		.uleb128 0x23
 5203 0fae AB090000 		.4byte	.LASF224
 5204 0fb2 01       		.byte	0x1
 5205 0fb3 9C01     		.2byte	0x19c
 5206 0fb5 AE000000 		.4byte	0xae
 5207 0fb9 23       		.uleb128 0x23
 5208 0fba 630A0000 		.4byte	.LASF225
 5209 0fbe 01       		.byte	0x1
 5210 0fbf 9C01     		.2byte	0x19c
 5211 0fc1 2A090000 		.4byte	0x92a
 5212 0fc5 00       		.byte	0
 5213 0fc6 0C       		.uleb128 0xc
 5214 0fc7 04       		.byte	0x4
 5215 0fc8 2D0F0000 		.4byte	0xf2d
 5216 0fcc 27       		.uleb128 0x27
 5217 0fcd F9010000 		.4byte	.LASF227
 5218 0fd1 01       		.byte	0x1
 5219 0fd2 AB01     		.2byte	0x1ab
 5220 0fd4 01       		.byte	0x1
 5221 0fd5 FE0F0000 		.4byte	0xffe
 5222 0fd9 23       		.uleb128 0x23
 5223 0fda 7F0E0000 		.4byte	.LASF211
 5224 0fde 01       		.byte	0x1
 5225 0fdf AB01     		.2byte	0x1ab
 5226 0fe1 C60F0000 		.4byte	0xfc6
 5227 0fe5 23       		.uleb128 0x23
 5228 0fe6 AB090000 		.4byte	.LASF224
 5229 0fea 01       		.byte	0x1
 5230 0feb AB01     		.2byte	0x1ab
 5231 0fed AE000000 		.4byte	0xae
 5232 0ff1 23       		.uleb128 0x23
 5233 0ff2 A80D0000 		.4byte	.LASF228
 5234 0ff6 01       		.byte	0x1
 5235 0ff7 AB01     		.2byte	0x1ab
 5236 0ff9 AE000000 		.4byte	0xae
 5237 0ffd 00       		.byte	0
 5238 0ffe 27       		.uleb128 0x27
 5239 0fff 31000000 		.4byte	.LASF229
ARM GAS  /var/folders/m4/4md61f0s1_g0rzfghffqnxvr0000gn/T//ccmevqMd.s 			page 93


 5240 1003 01       		.byte	0x1
 5241 1004 DF01     		.2byte	0x1df
 5242 1006 01       		.byte	0x1
 5243 1007 55100000 		.4byte	0x1055
 5244 100b 23       		.uleb128 0x23
 5245 100c 7F0E0000 		.4byte	.LASF211
 5246 1010 01       		.byte	0x1
 5247 1011 DF01     		.2byte	0x1df
 5248 1013 C60F0000 		.4byte	0xfc6
 5249 1017 23       		.uleb128 0x23
 5250 1018 A80D0000 		.4byte	.LASF228
 5251 101c 01       		.byte	0x1
 5252 101d DF01     		.2byte	0x1df
 5253 101f AE000000 		.4byte	0xae
 5254 1023 23       		.uleb128 0x23
 5255 1024 89130000 		.4byte	.LASF230
 5256 1028 01       		.byte	0x1
 5257 1029 DF01     		.2byte	0x1df
 5258 102b 0B090000 		.4byte	0x90b
 5259 102f 23       		.uleb128 0x23
 5260 1030 AB090000 		.4byte	.LASF224
 5261 1034 01       		.byte	0x1
 5262 1035 DF01     		.2byte	0x1df
 5263 1037 0B090000 		.4byte	0x90b
 5264 103b 28       		.uleb128 0x28
 5265 103c 29       		.uleb128 0x29
 5266 103d 6F7000   		.ascii	"op\000"
 5267 1040 01       		.byte	0x1
 5268 1041 E401     		.2byte	0x1e4
 5269 1043 AE000000 		.4byte	0xae
 5270 1047 2A       		.uleb128 0x2a
 5271 1048 FA070000 		.4byte	.LASF231
 5272 104c 01       		.byte	0x1
 5273 104d E501     		.2byte	0x1e5
 5274 104f AE000000 		.4byte	0xae
 5275 1053 00       		.byte	0
 5276 1054 00       		.byte	0
 5277 1055 27       		.uleb128 0x27
 5278 1056 D7110000 		.4byte	.LASF232
 5279 105a 01       		.byte	0x1
 5280 105b EF01     		.2byte	0x1ef
 5281 105d 01       		.byte	0x1
 5282 105e 94100000 		.4byte	0x1094
 5283 1062 23       		.uleb128 0x23
 5284 1063 7F0E0000 		.4byte	.LASF211
 5285 1067 01       		.byte	0x1
 5286 1068 EF01     		.2byte	0x1ef
 5287 106a C60F0000 		.4byte	0xfc6
 5288 106e 23       		.uleb128 0x23
 5289 106f A80D0000 		.4byte	.LASF228
 5290 1073 01       		.byte	0x1
 5291 1074 EF01     		.2byte	0x1ef
 5292 1076 AE000000 		.4byte	0xae
 5293 107a 23       		.uleb128 0x23
 5294 107b 89130000 		.4byte	.LASF230
 5295 107f 01       		.byte	0x1
 5296 1080 EF01     		.2byte	0x1ef
ARM GAS  /var/folders/m4/4md61f0s1_g0rzfghffqnxvr0000gn/T//ccmevqMd.s 			page 94


 5297 1082 2A090000 		.4byte	0x92a
 5298 1086 28       		.uleb128 0x28
 5299 1087 29       		.uleb128 0x29
 5300 1088 6F7000   		.ascii	"op\000"
 5301 108b 01       		.byte	0x1
 5302 108c F401     		.2byte	0x1f4
 5303 108e AE000000 		.4byte	0xae
 5304 1092 00       		.byte	0
 5305 1093 00       		.byte	0
 5306 1094 27       		.uleb128 0x27
 5307 1095 D4020000 		.4byte	.LASF233
 5308 1099 01       		.byte	0x1
 5309 109a 3601     		.2byte	0x136
 5310 109c 01       		.byte	0x1
 5311 109d BA100000 		.4byte	0x10ba
 5312 10a1 23       		.uleb128 0x23
 5313 10a2 7F0E0000 		.4byte	.LASF211
 5314 10a6 01       		.byte	0x1
 5315 10a7 3601     		.2byte	0x136
 5316 10a9 C60F0000 		.4byte	0xfc6
 5317 10ad 28       		.uleb128 0x28
 5318 10ae 29       		.uleb128 0x29
 5319 10af 6900     		.ascii	"i\000"
 5320 10b1 01       		.byte	0x1
 5321 10b2 3801     		.2byte	0x138
 5322 10b4 25000000 		.4byte	0x25
 5323 10b8 00       		.byte	0
 5324 10b9 00       		.byte	0
 5325 10ba 27       		.uleb128 0x27
 5326 10bb EE050000 		.4byte	.LASF234
 5327 10bf 01       		.byte	0x1
 5328 10c0 4301     		.2byte	0x143
 5329 10c2 01       		.byte	0x1
 5330 10c3 E0100000 		.4byte	0x10e0
 5331 10c7 23       		.uleb128 0x23
 5332 10c8 7F0E0000 		.4byte	.LASF211
 5333 10cc 01       		.byte	0x1
 5334 10cd 4301     		.2byte	0x143
 5335 10cf C60F0000 		.4byte	0xfc6
 5336 10d3 23       		.uleb128 0x23
 5337 10d4 4B010000 		.4byte	.LASF169
 5338 10d8 01       		.byte	0x1
 5339 10d9 4301     		.2byte	0x143
 5340 10db 220F0000 		.4byte	0xf22
 5341 10df 00       		.byte	0
 5342 10e0 27       		.uleb128 0x27
 5343 10e1 CE090000 		.4byte	.LASF235
 5344 10e5 01       		.byte	0x1
 5345 10e6 9701     		.2byte	0x197
 5346 10e8 01       		.byte	0x1
 5347 10e9 06110000 		.4byte	0x1106
 5348 10ed 23       		.uleb128 0x23
 5349 10ee 7F0E0000 		.4byte	.LASF211
 5350 10f2 01       		.byte	0x1
 5351 10f3 9701     		.2byte	0x197
 5352 10f5 C60F0000 		.4byte	0xfc6
 5353 10f9 2B       		.uleb128 0x2b
ARM GAS  /var/folders/m4/4md61f0s1_g0rzfghffqnxvr0000gn/T//ccmevqMd.s 			page 95


 5354 10fa 69727100 		.ascii	"irq\000"
 5355 10fe 01       		.byte	0x1
 5356 10ff 9701     		.2byte	0x197
 5357 1101 AE000000 		.4byte	0xae
 5358 1105 00       		.byte	0
 5359 1106 25       		.uleb128 0x25
 5360 1107 17120000 		.4byte	.LASF236
 5361 110b 03       		.byte	0x3
 5362 110c BD       		.byte	0xbd
 5363 110d 03       		.byte	0x3
 5364 110e 34110000 		.4byte	0x1134
 5365 1112 26       		.uleb128 0x26
 5366 1113 65737000 		.ascii	"esp\000"
 5367 1117 03       		.byte	0x3
 5368 1118 BD       		.byte	0xbd
 5369 1119 8E0F0000 		.4byte	0xf8e
 5370 111d 26       		.uleb128 0x26
 5371 111e 656C7000 		.ascii	"elp\000"
 5372 1122 03       		.byte	0x3
 5373 1123 BE       		.byte	0xbe
 5374 1124 E1080000 		.4byte	0x8e1
 5375 1128 2C       		.uleb128 0x2c
 5376 1129 55100000 		.4byte	.LASF237
 5377 112d 03       		.byte	0x3
 5378 112e BF       		.byte	0xbf
 5379 112f 27010000 		.4byte	0x127
 5380 1133 00       		.byte	0
 5381 1134 2D       		.uleb128 0x2d
 5382 1135 B0100000 		.4byte	.LASF328
 5383 1139 01       		.byte	0x1
 5384 113a B301     		.2byte	0x1b3
 5385 113c AE000000 		.4byte	0xae
 5386 1140 01       		.byte	0x1
 5387 1141 52110000 		.4byte	0x1152
 5388 1145 23       		.uleb128 0x23
 5389 1146 7F0E0000 		.4byte	.LASF211
 5390 114a 01       		.byte	0x1
 5391 114b B301     		.2byte	0x1b3
 5392 114d C60F0000 		.4byte	0xfc6
 5393 1151 00       		.byte	0
 5394 1152 27       		.uleb128 0x27
 5395 1153 92060000 		.4byte	.LASF238
 5396 1157 01       		.byte	0x1
 5397 1158 3902     		.2byte	0x239
 5398 115a 01       		.byte	0x1
 5399 115b 6C110000 		.4byte	0x116c
 5400 115f 23       		.uleb128 0x23
 5401 1160 7F0E0000 		.4byte	.LASF211
 5402 1164 01       		.byte	0x1
 5403 1165 3902     		.2byte	0x239
 5404 1167 C60F0000 		.4byte	0xfc6
 5405 116b 00       		.byte	0
 5406 116c 2E       		.uleb128 0x2e
 5407 116d 83040000 		.4byte	.LASF207
 5408 1171 01       		.byte	0x1
 5409 1172 FE       		.byte	0xfe
 5410 1173 1C010000 		.4byte	0x11c
ARM GAS  /var/folders/m4/4md61f0s1_g0rzfghffqnxvr0000gn/T//ccmevqMd.s 			page 96


 5411 1177 01       		.byte	0x1
 5412 1178 D9110000 		.4byte	0x11d9
 5413 117c 2C       		.uleb128 0x2c
 5414 117d 0E010000 		.4byte	.LASF239
 5415 1181 01       		.byte	0x1
 5416 1182 FE       		.byte	0xfe
 5417 1183 A8030000 		.4byte	0x3a8
 5418 1187 2C       		.uleb128 0x2c
 5419 1188 290F0000 		.4byte	.LASF240
 5420 118c 01       		.byte	0x1
 5421 118d FE       		.byte	0xfe
 5422 118e 48010000 		.4byte	0x148
 5423 1192 28       		.uleb128 0x28
 5424 1193 2A       		.uleb128 0x2a
 5425 1194 7F0E0000 		.4byte	.LASF211
 5426 1198 01       		.byte	0x1
 5427 1199 0001     		.2byte	0x100
 5428 119b C60F0000 		.4byte	0xfc6
 5429 119f 29       		.uleb128 0x29
 5430 11a0 63687000 		.ascii	"chp\000"
 5431 11a4 01       		.byte	0x1
 5432 11a5 0101     		.2byte	0x101
 5433 11a7 D9110000 		.4byte	0x11d9
 5434 11ab 2F       		.uleb128 0x2f
 5435 11ac BB110000 		.4byte	0x11bb
 5436 11b0 29       		.uleb128 0x29
 5437 11b1 6900     		.ascii	"i\000"
 5438 11b3 01       		.byte	0x1
 5439 11b4 0301     		.2byte	0x103
 5440 11b6 25000000 		.4byte	0x25
 5441 11ba 00       		.byte	0
 5442 11bb 2F       		.uleb128 0x2f
 5443 11bc CB110000 		.4byte	0x11cb
 5444 11c0 29       		.uleb128 0x29
 5445 11c1 6200     		.ascii	"b\000"
 5446 11c3 01       		.byte	0x1
 5447 11c4 1101     		.2byte	0x111
 5448 11c6 AE000000 		.4byte	0xae
 5449 11ca 00       		.byte	0
 5450 11cb 28       		.uleb128 0x28
 5451 11cc 29       		.uleb128 0x29
 5452 11cd 6200     		.ascii	"b\000"
 5453 11cf 01       		.byte	0x1
 5454 11d0 1701     		.2byte	0x117
 5455 11d2 AE000000 		.4byte	0xae
 5456 11d6 00       		.byte	0
 5457 11d7 00       		.byte	0
 5458 11d8 00       		.byte	0
 5459 11d9 0C       		.uleb128 0xc
 5460 11da 04       		.byte	0x4
 5461 11db 740E0000 		.4byte	0xe74
 5462 11df 2E       		.uleb128 0x2e
 5463 11e0 58010000 		.4byte	.LASF206
 5464 11e4 01       		.byte	0x1
 5465 11e5 F7       		.byte	0xf7
 5466 11e6 1C010000 		.4byte	0x11c
 5467 11ea 01       		.byte	0x1
ARM GAS  /var/folders/m4/4md61f0s1_g0rzfghffqnxvr0000gn/T//ccmevqMd.s 			page 97


 5468 11eb 0F120000 		.4byte	0x120f
 5469 11ef 2C       		.uleb128 0x2c
 5470 11f0 0E010000 		.4byte	.LASF239
 5471 11f4 01       		.byte	0x1
 5472 11f5 F7       		.byte	0xf7
 5473 11f6 A8030000 		.4byte	0x3a8
 5474 11fa 26       		.uleb128 0x26
 5475 11fb 6200     		.ascii	"b\000"
 5476 11fd 01       		.byte	0x1
 5477 11fe F7       		.byte	0xf7
 5478 11ff AE000000 		.4byte	0xae
 5479 1203 2C       		.uleb128 0x2c
 5480 1204 290F0000 		.4byte	.LASF240
 5481 1208 01       		.byte	0x1
 5482 1209 F7       		.byte	0xf7
 5483 120a 48010000 		.4byte	0x148
 5484 120e 00       		.byte	0
 5485 120f 24       		.uleb128 0x24
 5486 1210 74020000 		.4byte	.LASF241
 5487 1214 18       		.byte	0x18
 5488 1215 8201     		.2byte	0x182
 5489 1217 03       		.byte	0x3
 5490 1218 24       		.uleb128 0x24
 5491 1219 36030000 		.4byte	.LASF242
 5492 121d 18       		.byte	0x18
 5493 121e 9601     		.2byte	0x196
 5494 1220 03       		.byte	0x3
 5495 1221 27       		.uleb128 0x27
 5496 1222 7C030000 		.4byte	.LASF243
 5497 1226 01       		.byte	0x1
 5498 1227 4502     		.2byte	0x245
 5499 1229 01       		.byte	0x1
 5500 122a 3B120000 		.4byte	0x123b
 5501 122e 23       		.uleb128 0x23
 5502 122f 7F0E0000 		.4byte	.LASF211
 5503 1233 01       		.byte	0x1
 5504 1234 4502     		.2byte	0x245
 5505 1236 C60F0000 		.4byte	0xfc6
 5506 123a 00       		.byte	0
 5507 123b 30       		.uleb128 0x30
 5508 123c 080A0000 		.4byte	.LASF334
 5509 1240 01       		.byte	0x1
 5510 1241 18       		.byte	0x18
 5511 1242 00000000 		.4byte	.LFB268
 5512 1246 1C000000 		.4byte	.LFE268-.LFB268
 5513 124a 01       		.uleb128 0x1
 5514 124b 9C       		.byte	0x9c
 5515 124c 3F130000 		.4byte	0x133f
 5516 1250 31       		.uleb128 0x31
 5517 1251 E7010000 		.4byte	.LASF244
 5518 1255 01       		.byte	0x1
 5519 1256 18       		.byte	0x18
 5520 1257 100C0000 		.4byte	0xc10
 5521 125b 00000000 		.4byte	.LLST0
 5522 125f 31       		.uleb128 0x31
 5523 1260 6E080000 		.4byte	.LASF245
 5524 1264 01       		.byte	0x1
ARM GAS  /var/folders/m4/4md61f0s1_g0rzfghffqnxvr0000gn/T//ccmevqMd.s 			page 98


 5525 1265 18       		.byte	0x18
 5526 1266 E40B0000 		.4byte	0xbe4
 5527 126a 21000000 		.4byte	.LLST1
 5528 126e 32       		.uleb128 0x32
 5529 126f 21120000 		.4byte	0x1221
 5530 1273 02000000 		.4byte	.LBB129
 5531 1277 1A000000 		.4byte	.LBE129-.LBB129
 5532 127b 01       		.byte	0x1
 5533 127c 1A       		.byte	0x1a
 5534 127d 33       		.uleb128 0x33
 5535 127e 2E120000 		.4byte	0x122e
 5536 1282 06       		.uleb128 0x6
 5537 1283 03       		.byte	0x3
 5538 1284 00000000 		.4byte	nrf24l01
 5539 1288 9F       		.byte	0x9f
 5540 1289 34       		.uleb128 0x34
 5541 128a 0F120000 		.4byte	0x120f
 5542 128e 02000000 		.4byte	.LBB131
 5543 1292 06000000 		.4byte	.LBE131-.LBB131
 5544 1296 01       		.byte	0x1
 5545 1297 4702     		.2byte	0x247
 5546 1299 D7120000 		.4byte	0x12d7
 5547 129d 35       		.uleb128 0x35
 5548 129e 640F0000 		.4byte	0xf64
 5549 12a2 02000000 		.4byte	.LBB132
 5550 12a6 06000000 		.4byte	.LBE132-.LBB132
 5551 12aa 18       		.byte	0x18
 5552 12ab 8401     		.2byte	0x184
 5553 12ad 35       		.uleb128 0x35
 5554 12ae 520F0000 		.4byte	0xf52
 5555 12b2 02000000 		.4byte	.LBB133
 5556 12b6 06000000 		.4byte	.LBE133-.LBB133
 5557 12ba 0D       		.byte	0xd
 5558 12bb F101     		.2byte	0x1f1
 5559 12bd 35       		.uleb128 0x35
 5560 12be 380F0000 		.4byte	0xf38
 5561 12c2 02000000 		.4byte	.LBB134
 5562 12c6 06000000 		.4byte	.LBE134-.LBB134
 5563 12ca 0D       		.byte	0xd
 5564 12cb D001     		.2byte	0x1d0
 5565 12cd 36       		.uleb128 0x36
 5566 12ce 450F0000 		.4byte	0xf45
 5567 12d2 20       		.byte	0x20
 5568 12d3 00       		.byte	0
 5569 12d4 00       		.byte	0
 5570 12d5 00       		.byte	0
 5571 12d6 00       		.byte	0
 5572 12d7 34       		.uleb128 0x34
 5573 12d8 18120000 		.4byte	0x1218
 5574 12dc 10000000 		.4byte	.LBB136
 5575 12e0 0C000000 		.4byte	.LBE136-.LBB136
 5576 12e4 01       		.byte	0x1
 5577 12e5 4902     		.2byte	0x249
 5578 12e7 25130000 		.4byte	0x1325
 5579 12eb 35       		.uleb128 0x35
 5580 12ec 6D0F0000 		.4byte	0xf6d
 5581 12f0 10000000 		.4byte	.LBB137
ARM GAS  /var/folders/m4/4md61f0s1_g0rzfghffqnxvr0000gn/T//ccmevqMd.s 			page 99


 5582 12f4 0C000000 		.4byte	.LBE137-.LBB137
 5583 12f8 18       		.byte	0x18
 5584 12f9 9A01     		.2byte	0x19a
 5585 12fb 35       		.uleb128 0x35
 5586 12fc 5B0F0000 		.4byte	0xf5b
 5587 1300 10000000 		.4byte	.LBB138
 5588 1304 0C000000 		.4byte	.LBE138-.LBB138
 5589 1308 0D       		.byte	0xd
 5590 1309 FC01     		.2byte	0x1fc
 5591 130b 35       		.uleb128 0x35
 5592 130c 380F0000 		.4byte	0xf38
 5593 1310 10000000 		.4byte	.LBB139
 5594 1314 0C000000 		.4byte	.LBE139-.LBB139
 5595 1318 0D       		.byte	0xd
 5596 1319 E301     		.2byte	0x1e3
 5597 131b 36       		.uleb128 0x36
 5598 131c 450F0000 		.4byte	0xf45
 5599 1320 00       		.byte	0
 5600 1321 00       		.byte	0
 5601 1322 00       		.byte	0
 5602 1323 00       		.byte	0
 5603 1324 00       		.byte	0
 5604 1325 37       		.uleb128 0x37
 5605 1326 10000000 		.4byte	.LVL3
 5606 132a 2D300000 		.4byte	0x302d
 5607 132e 38       		.uleb128 0x38
 5608 132f 01       		.uleb128 0x1
 5609 1330 51       		.byte	0x51
 5610 1331 01       		.uleb128 0x1
 5611 1332 31       		.byte	0x31
 5612 1333 38       		.uleb128 0x38
 5613 1334 01       		.uleb128 0x1
 5614 1335 50       		.byte	0x50
 5615 1336 05       		.uleb128 0x5
 5616 1337 03       		.byte	0x3
 5617 1338 20010000 		.4byte	.LANCHOR0+288
 5618 133c 00       		.byte	0
 5619 133d 00       		.byte	0
 5620 133e 00       		.byte	0
 5621 133f 39       		.uleb128 0x39
 5622 1340 FE0F0000 		.4byte	0xffe
 5623 1344 00000000 		.4byte	.LFB311
 5624 1348 5A000000 		.4byte	.LFE311-.LFB311
 5625 134c 01       		.uleb128 0x1
 5626 134d 9C       		.byte	0x9c
 5627 134e D8130000 		.4byte	0x13d8
 5628 1352 3A       		.uleb128 0x3a
 5629 1353 0B100000 		.4byte	0x100b
 5630 1357 42000000 		.4byte	.LLST2
 5631 135b 3A       		.uleb128 0x3a
 5632 135c 17100000 		.4byte	0x1017
 5633 1360 60000000 		.4byte	.LLST3
 5634 1364 3A       		.uleb128 0x3a
 5635 1365 23100000 		.4byte	0x1023
 5636 1369 81000000 		.4byte	.LLST4
 5637 136d 3A       		.uleb128 0x3a
 5638 136e 2F100000 		.4byte	0x102f
ARM GAS  /var/folders/m4/4md61f0s1_g0rzfghffqnxvr0000gn/T//ccmevqMd.s 			page 100


 5639 1372 9F000000 		.4byte	.LLST5
 5640 1376 3B       		.uleb128 0x3b
 5641 1377 00000000 		.4byte	.Ldebug_ranges0+0
 5642 137b 3C       		.uleb128 0x3c
 5643 137c 3C100000 		.4byte	0x103c
 5644 1380 02       		.uleb128 0x2
 5645 1381 91       		.byte	0x91
 5646 1382 66       		.sleb128 -26
 5647 1383 3C       		.uleb128 0x3c
 5648 1384 47100000 		.4byte	0x1047
 5649 1388 02       		.uleb128 0x2
 5650 1389 91       		.byte	0x91
 5651 138a 67       		.sleb128 -25
 5652 138b 3D       		.uleb128 0x3d
 5653 138c 20000000 		.4byte	.LVL6
 5654 1390 43300000 		.4byte	0x3043
 5655 1394 3E       		.uleb128 0x3e
 5656 1395 32000000 		.4byte	.LVL7
 5657 1399 55300000 		.4byte	0x3055
 5658 139d B3130000 		.4byte	0x13b3
 5659 13a1 38       		.uleb128 0x38
 5660 13a2 01       		.uleb128 0x1
 5661 13a3 53       		.byte	0x53
 5662 13a4 02       		.uleb128 0x2
 5663 13a5 91       		.byte	0x91
 5664 13a6 67       		.sleb128 -25
 5665 13a7 38       		.uleb128 0x38
 5666 13a8 01       		.uleb128 0x1
 5667 13a9 52       		.byte	0x52
 5668 13aa 02       		.uleb128 0x2
 5669 13ab 75       		.byte	0x75
 5670 13ac 00       		.sleb128 0
 5671 13ad 38       		.uleb128 0x38
 5672 13ae 01       		.uleb128 0x1
 5673 13af 51       		.byte	0x51
 5674 13b0 01       		.uleb128 0x1
 5675 13b1 31       		.byte	0x31
 5676 13b2 00       		.byte	0
 5677 13b3 3E       		.uleb128 0x3e
 5678 13b4 40000000 		.4byte	.LVL8
 5679 13b8 7D300000 		.4byte	0x307d
 5680 13bc CD130000 		.4byte	0x13cd
 5681 13c0 38       		.uleb128 0x38
 5682 13c1 01       		.uleb128 0x1
 5683 13c2 52       		.byte	0x52
 5684 13c3 02       		.uleb128 0x2
 5685 13c4 77       		.byte	0x77
 5686 13c5 00       		.sleb128 0
 5687 13c6 38       		.uleb128 0x38
 5688 13c7 01       		.uleb128 0x1
 5689 13c8 51       		.byte	0x51
 5690 13c9 02       		.uleb128 0x2
 5691 13ca 78       		.byte	0x78
 5692 13cb 00       		.sleb128 0
 5693 13cc 00       		.byte	0
 5694 13cd 3D       		.uleb128 0x3d
 5695 13ce 4A000000 		.4byte	.LVL9
ARM GAS  /var/folders/m4/4md61f0s1_g0rzfghffqnxvr0000gn/T//ccmevqMd.s 			page 101


 5696 13d2 99300000 		.4byte	0x3099
 5697 13d6 00       		.byte	0
 5698 13d7 00       		.byte	0
 5699 13d8 39       		.uleb128 0x39
 5700 13d9 55100000 		.4byte	0x1055
 5701 13dd 00000000 		.4byte	.LFB312
 5702 13e1 46000000 		.4byte	.LFE312-.LFB312
 5703 13e5 01       		.uleb128 0x1
 5704 13e6 9C       		.byte	0x9c
 5705 13e7 5A140000 		.4byte	0x145a
 5706 13eb 3A       		.uleb128 0x3a
 5707 13ec 62100000 		.4byte	0x1062
 5708 13f0 BD000000 		.4byte	.LLST6
 5709 13f4 3A       		.uleb128 0x3a
 5710 13f5 6E100000 		.4byte	0x106e
 5711 13f9 DB000000 		.4byte	.LLST7
 5712 13fd 3A       		.uleb128 0x3a
 5713 13fe 7A100000 		.4byte	0x107a
 5714 1402 FC000000 		.4byte	.LLST8
 5715 1406 3B       		.uleb128 0x3b
 5716 1407 20000000 		.4byte	.Ldebug_ranges0+0x20
 5717 140b 3C       		.uleb128 0x3c
 5718 140c 87100000 		.4byte	0x1087
 5719 1410 02       		.uleb128 0x2
 5720 1411 91       		.byte	0x91
 5721 1412 67       		.sleb128 -25
 5722 1413 3D       		.uleb128 0x3d
 5723 1414 1C000000 		.4byte	.LVL12
 5724 1418 43300000 		.4byte	0x3043
 5725 141c 3E       		.uleb128 0x3e
 5726 141d 2A000000 		.4byte	.LVL13
 5727 1421 AB300000 		.4byte	0x30ab
 5728 1425 35140000 		.4byte	0x1435
 5729 1429 38       		.uleb128 0x38
 5730 142a 01       		.uleb128 0x1
 5731 142b 52       		.byte	0x52
 5732 142c 02       		.uleb128 0x2
 5733 142d 75       		.byte	0x75
 5734 142e 00       		.sleb128 0
 5735 142f 38       		.uleb128 0x38
 5736 1430 01       		.uleb128 0x1
 5737 1431 51       		.byte	0x51
 5738 1432 01       		.uleb128 0x1
 5739 1433 31       		.byte	0x31
 5740 1434 00       		.byte	0
 5741 1435 3E       		.uleb128 0x3e
 5742 1436 38000000 		.4byte	.LVL14
 5743 143a AB300000 		.4byte	0x30ab
 5744 143e 4F140000 		.4byte	0x144f
 5745 1442 38       		.uleb128 0x38
 5746 1443 01       		.uleb128 0x1
 5747 1444 52       		.byte	0x52
 5748 1445 02       		.uleb128 0x2
 5749 1446 76       		.byte	0x76
 5750 1447 00       		.sleb128 0
 5751 1448 38       		.uleb128 0x38
 5752 1449 01       		.uleb128 0x1
ARM GAS  /var/folders/m4/4md61f0s1_g0rzfghffqnxvr0000gn/T//ccmevqMd.s 			page 102


 5753 144a 51       		.byte	0x51
 5754 144b 02       		.uleb128 0x2
 5755 144c 77       		.byte	0x77
 5756 144d 00       		.sleb128 0
 5757 144e 00       		.byte	0
 5758 144f 3D       		.uleb128 0x3d
 5759 1450 42000000 		.4byte	.LVL15
 5760 1454 99300000 		.4byte	0x3099
 5761 1458 00       		.byte	0
 5762 1459 00       		.byte	0
 5763 145a 3F       		.uleb128 0x3f
 5764 145b 94100000 		.4byte	0x1094
 5765 145f EC0E0000 		.4byte	.LASF246
 5766 1463 00000000 		.4byte	.LFB278
 5767 1467 34000000 		.4byte	.LFE278-.LFB278
 5768 146b 01       		.uleb128 0x1
 5769 146c 9C       		.byte	0x9c
 5770 146d C4140000 		.4byte	0x14c4
 5771 1471 33       		.uleb128 0x33
 5772 1472 A1100000 		.4byte	0x10a1
 5773 1476 01       		.uleb128 0x1
 5774 1477 50       		.byte	0x50
 5775 1478 40       		.uleb128 0x40
 5776 1479 0C000000 		.4byte	.LBB147
 5777 147d 16000000 		.4byte	.LBE147-.LBB147
 5778 1481 A9140000 		.4byte	0x14a9
 5779 1485 41       		.uleb128 0x41
 5780 1486 AE100000 		.4byte	0x10ae
 5781 148a 1A010000 		.4byte	.LLST9
 5782 148e 35       		.uleb128 0x35
 5783 148f 760F0000 		.4byte	0xf76
 5784 1493 1A000000 		.4byte	.LBB148
 5785 1497 04000000 		.4byte	.LBE148-.LBB148
 5786 149b 01       		.byte	0x1
 5787 149c 3D01     		.2byte	0x13d
 5788 149e 3A       		.uleb128 0x3a
 5789 149f 820F0000 		.4byte	0xf82
 5790 14a3 2E010000 		.4byte	.LLST10
 5791 14a7 00       		.byte	0
 5792 14a8 00       		.byte	0
 5793 14a9 35       		.uleb128 0x35
 5794 14aa 760F0000 		.4byte	0xf76
 5795 14ae 26000000 		.4byte	.LBB150
 5796 14b2 04000000 		.4byte	.LBE150-.LBB150
 5797 14b6 01       		.byte	0x1
 5798 14b7 4001     		.2byte	0x140
 5799 14b9 3A       		.uleb128 0x3a
 5800 14ba 820F0000 		.4byte	0xf82
 5801 14be 4E010000 		.4byte	.LLST11
 5802 14c2 00       		.byte	0
 5803 14c3 00       		.byte	0
 5804 14c4 3F       		.uleb128 0x3f
 5805 14c5 BA100000 		.4byte	0x10ba
 5806 14c9 B4030000 		.4byte	.LASF247
 5807 14cd 00000000 		.4byte	.LFB279
 5808 14d1 06000000 		.4byte	.LFE279-.LFB279
 5809 14d5 01       		.uleb128 0x1
ARM GAS  /var/folders/m4/4md61f0s1_g0rzfghffqnxvr0000gn/T//ccmevqMd.s 			page 103


 5810 14d6 9C       		.byte	0x9c
 5811 14d7 EA140000 		.4byte	0x14ea
 5812 14db 33       		.uleb128 0x33
 5813 14dc C7100000 		.4byte	0x10c7
 5814 14e0 01       		.uleb128 0x1
 5815 14e1 50       		.byte	0x50
 5816 14e2 33       		.uleb128 0x33
 5817 14e3 D3100000 		.4byte	0x10d3
 5818 14e7 01       		.uleb128 0x1
 5819 14e8 51       		.byte	0x51
 5820 14e9 00       		.byte	0
 5821 14ea 42       		.uleb128 0x42
 5822 14eb 5B110000 		.4byte	.LASF248
 5823 14ef 01       		.byte	0x1
 5824 14f0 4801     		.2byte	0x148
 5825 14f2 900B0000 		.4byte	.LASF250
 5826 14f6 00000000 		.4byte	.LFB280
 5827 14fa 3C000000 		.4byte	.LFE280-.LFB280
 5828 14fe 01       		.uleb128 0x1
 5829 14ff 9C       		.byte	0x9c
 5830 1500 74150000 		.4byte	0x1574
 5831 1504 43       		.uleb128 0x43
 5832 1505 7F0E0000 		.4byte	.LASF211
 5833 1509 01       		.byte	0x1
 5834 150a 4801     		.2byte	0x148
 5835 150c C60F0000 		.4byte	0xfc6
 5836 1510 6F010000 		.4byte	.LLST12
 5837 1514 44       		.uleb128 0x44
 5838 1515 72656700 		.ascii	"reg\000"
 5839 1519 01       		.byte	0x1
 5840 151a 4801     		.2byte	0x148
 5841 151c AE000000 		.4byte	0xae
 5842 1520 8D010000 		.4byte	.LLST13
 5843 1524 43       		.uleb128 0x43
 5844 1525 F8030000 		.4byte	.LASF223
 5845 1529 01       		.byte	0x1
 5846 152a 4801     		.2byte	0x148
 5847 152c AE000000 		.4byte	0xae
 5848 1530 AE010000 		.4byte	.LLST14
 5849 1534 3B       		.uleb128 0x3b
 5850 1535 38000000 		.4byte	.Ldebug_ranges0+0x38
 5851 1539 45       		.uleb128 0x45
 5852 153a 6F7000   		.ascii	"op\000"
 5853 153d 01       		.byte	0x1
 5854 153e 4A01     		.2byte	0x14a
 5855 1540 74150000 		.4byte	0x1574
 5856 1544 02       		.uleb128 0x2
 5857 1545 91       		.byte	0x91
 5858 1546 74       		.sleb128 -12
 5859 1547 3D       		.uleb128 0x3d
 5860 1548 20000000 		.4byte	.LVL26
 5861 154c 43300000 		.4byte	0x3043
 5862 1550 3E       		.uleb128 0x3e
 5863 1551 2E000000 		.4byte	.LVL27
 5864 1555 AB300000 		.4byte	0x30ab
 5865 1559 69150000 		.4byte	0x1569
 5866 155d 38       		.uleb128 0x38
ARM GAS  /var/folders/m4/4md61f0s1_g0rzfghffqnxvr0000gn/T//ccmevqMd.s 			page 104


 5867 155e 01       		.uleb128 0x1
 5868 155f 52       		.byte	0x52
 5869 1560 02       		.uleb128 0x2
 5870 1561 91       		.byte	0x91
 5871 1562 74       		.sleb128 -12
 5872 1563 38       		.uleb128 0x38
 5873 1564 01       		.uleb128 0x1
 5874 1565 51       		.byte	0x51
 5875 1566 01       		.uleb128 0x1
 5876 1567 32       		.byte	0x32
 5877 1568 00       		.byte	0
 5878 1569 3D       		.uleb128 0x3d
 5879 156a 38000000 		.4byte	.LVL28
 5880 156e 99300000 		.4byte	0x3099
 5881 1572 00       		.byte	0
 5882 1573 00       		.byte	0
 5883 1574 1B       		.uleb128 0x1b
 5884 1575 63000000 		.4byte	0x63
 5885 1579 84150000 		.4byte	0x1584
 5886 157d 1C       		.uleb128 0x1c
 5887 157e DE040000 		.4byte	0x4de
 5888 1582 01       		.byte	0x1
 5889 1583 00       		.byte	0
 5890 1584 46       		.uleb128 0x46
 5891 1585 EC110000 		.4byte	.LASF254
 5892 1589 01       		.byte	0x1
 5893 158a 5101     		.2byte	0x151
 5894 158c E9060000 		.4byte	.LASF256
 5895 1590 AE000000 		.4byte	0xae
 5896 1594 00000000 		.4byte	.LFB281
 5897 1598 48000000 		.4byte	.LFE281-.LFB281
 5898 159c 01       		.uleb128 0x1
 5899 159d 9C       		.byte	0x9c
 5900 159e 17160000 		.4byte	0x1617
 5901 15a2 43       		.uleb128 0x43
 5902 15a3 7F0E0000 		.4byte	.LASF211
 5903 15a7 01       		.byte	0x1
 5904 15a8 5101     		.2byte	0x151
 5905 15aa C60F0000 		.4byte	0xfc6
 5906 15ae CF010000 		.4byte	.LLST15
 5907 15b2 44       		.uleb128 0x44
 5908 15b3 72656700 		.ascii	"reg\000"
 5909 15b7 01       		.byte	0x1
 5910 15b8 5101     		.2byte	0x151
 5911 15ba AE000000 		.4byte	0xae
 5912 15be ED010000 		.4byte	.LLST16
 5913 15c2 3B       		.uleb128 0x3b
 5914 15c3 58000000 		.4byte	.Ldebug_ranges0+0x58
 5915 15c7 45       		.uleb128 0x45
 5916 15c8 6F7000   		.ascii	"op\000"
 5917 15cb 01       		.byte	0x1
 5918 15cc 5301     		.2byte	0x153
 5919 15ce 74150000 		.4byte	0x1574
 5920 15d2 02       		.uleb128 0x2
 5921 15d3 91       		.byte	0x91
 5922 15d4 70       		.sleb128 -16
 5923 15d5 47       		.uleb128 0x47
ARM GAS  /var/folders/m4/4md61f0s1_g0rzfghffqnxvr0000gn/T//ccmevqMd.s 			page 105


 5924 15d6 89130000 		.4byte	.LASF230
 5925 15da 01       		.byte	0x1
 5926 15db 5401     		.2byte	0x154
 5927 15dd 74150000 		.4byte	0x1574
 5928 15e1 02       		.uleb128 0x2
 5929 15e2 91       		.byte	0x91
 5930 15e3 74       		.sleb128 -12
 5931 15e4 3D       		.uleb128 0x3d
 5932 15e5 26000000 		.4byte	.LVL32
 5933 15e9 43300000 		.4byte	0x3043
 5934 15ed 3E       		.uleb128 0x3e
 5935 15ee 36000000 		.4byte	.LVL33
 5936 15f2 55300000 		.4byte	0x3055
 5937 15f6 0C160000 		.4byte	0x160c
 5938 15fa 38       		.uleb128 0x38
 5939 15fb 01       		.uleb128 0x1
 5940 15fc 53       		.byte	0x53
 5941 15fd 02       		.uleb128 0x2
 5942 15fe 91       		.byte	0x91
 5943 15ff 74       		.sleb128 -12
 5944 1600 38       		.uleb128 0x38
 5945 1601 01       		.uleb128 0x1
 5946 1602 52       		.byte	0x52
 5947 1603 02       		.uleb128 0x2
 5948 1604 7D       		.byte	0x7d
 5949 1605 00       		.sleb128 0
 5950 1606 38       		.uleb128 0x38
 5951 1607 01       		.uleb128 0x1
 5952 1608 51       		.byte	0x51
 5953 1609 01       		.uleb128 0x1
 5954 160a 32       		.byte	0x32
 5955 160b 00       		.byte	0
 5956 160c 3D       		.uleb128 0x3d
 5957 160d 40000000 		.4byte	.LVL34
 5958 1611 99300000 		.4byte	0x3099
 5959 1615 00       		.byte	0
 5960 1616 00       		.byte	0
 5961 1617 42       		.uleb128 0x42
 5962 1618 65090000 		.4byte	.LASF249
 5963 161c 01       		.byte	0x1
 5964 161d 5D01     		.2byte	0x15d
 5965 161f E9080000 		.4byte	.LASF251
 5966 1623 00000000 		.4byte	.LFB282
 5967 1627 4A000000 		.4byte	.LFE282-.LFB282
 5968 162b 01       		.uleb128 0x1
 5969 162c 9C       		.byte	0x9c
 5970 162d BA160000 		.4byte	0x16ba
 5971 1631 43       		.uleb128 0x43
 5972 1632 7F0E0000 		.4byte	.LASF211
 5973 1636 01       		.byte	0x1
 5974 1637 5D01     		.2byte	0x15d
 5975 1639 C60F0000 		.4byte	0xfc6
 5976 163d 0E020000 		.4byte	.LLST17
 5977 1641 44       		.uleb128 0x44
 5978 1642 72656700 		.ascii	"reg\000"
 5979 1646 01       		.byte	0x1
 5980 1647 5D01     		.2byte	0x15d
ARM GAS  /var/folders/m4/4md61f0s1_g0rzfghffqnxvr0000gn/T//ccmevqMd.s 			page 106


 5981 1649 AE000000 		.4byte	0xae
 5982 164d 2C020000 		.4byte	.LLST18
 5983 1651 43       		.uleb128 0x43
 5984 1652 F8030000 		.4byte	.LASF223
 5985 1656 01       		.byte	0x1
 5986 1657 5D01     		.2byte	0x15d
 5987 1659 2A090000 		.4byte	0x92a
 5988 165d 4D020000 		.4byte	.LLST19
 5989 1661 3B       		.uleb128 0x3b
 5990 1662 70000000 		.4byte	.Ldebug_ranges0+0x70
 5991 1666 45       		.uleb128 0x45
 5992 1667 6F7000   		.ascii	"op\000"
 5993 166a 01       		.byte	0x1
 5994 166b 5F01     		.2byte	0x15f
 5995 166d AE000000 		.4byte	0xae
 5996 1671 02       		.uleb128 0x2
 5997 1672 91       		.byte	0x91
 5998 1673 6F       		.sleb128 -17
 5999 1674 3D       		.uleb128 0x3d
 6000 1675 20000000 		.4byte	.LVL38
 6001 1679 43300000 		.4byte	0x3043
 6002 167d 3E       		.uleb128 0x3e
 6003 167e 2E000000 		.4byte	.LVL39
 6004 1682 AB300000 		.4byte	0x30ab
 6005 1686 96160000 		.4byte	0x1696
 6006 168a 38       		.uleb128 0x38
 6007 168b 01       		.uleb128 0x1
 6008 168c 52       		.byte	0x52
 6009 168d 02       		.uleb128 0x2
 6010 168e 75       		.byte	0x75
 6011 168f 00       		.sleb128 0
 6012 1690 38       		.uleb128 0x38
 6013 1691 01       		.uleb128 0x1
 6014 1692 51       		.byte	0x51
 6015 1693 01       		.uleb128 0x1
 6016 1694 31       		.byte	0x31
 6017 1695 00       		.byte	0
 6018 1696 3E       		.uleb128 0x3e
 6019 1697 3C000000 		.4byte	.LVL40
 6020 169b AB300000 		.4byte	0x30ab
 6021 169f AF160000 		.4byte	0x16af
 6022 16a3 38       		.uleb128 0x38
 6023 16a4 01       		.uleb128 0x1
 6024 16a5 52       		.byte	0x52
 6025 16a6 02       		.uleb128 0x2
 6026 16a7 76       		.byte	0x76
 6027 16a8 00       		.sleb128 0
 6028 16a9 38       		.uleb128 0x38
 6029 16aa 01       		.uleb128 0x1
 6030 16ab 51       		.byte	0x51
 6031 16ac 01       		.uleb128 0x1
 6032 16ad 35       		.byte	0x35
 6033 16ae 00       		.byte	0
 6034 16af 3D       		.uleb128 0x3d
 6035 16b0 46000000 		.4byte	.LVL41
 6036 16b4 99300000 		.4byte	0x3099
 6037 16b8 00       		.byte	0
ARM GAS  /var/folders/m4/4md61f0s1_g0rzfghffqnxvr0000gn/T//ccmevqMd.s 			page 107


 6038 16b9 00       		.byte	0
 6039 16ba 42       		.uleb128 0x42
 6040 16bb 9E070000 		.4byte	.LASF252
 6041 16bf 01       		.byte	0x1
 6042 16c0 6701     		.2byte	0x167
 6043 16c2 2C060000 		.4byte	.LASF253
 6044 16c6 00000000 		.4byte	.LFB283
 6045 16ca 46000000 		.4byte	.LFE283-.LFB283
 6046 16ce 01       		.uleb128 0x1
 6047 16cf 9C       		.byte	0x9c
 6048 16d0 5D170000 		.4byte	0x175d
 6049 16d4 43       		.uleb128 0x43
 6050 16d5 7F0E0000 		.4byte	.LASF211
 6051 16d9 01       		.byte	0x1
 6052 16da 6701     		.2byte	0x167
 6053 16dc C60F0000 		.4byte	0xfc6
 6054 16e0 6B020000 		.4byte	.LLST20
 6055 16e4 44       		.uleb128 0x44
 6056 16e5 72656700 		.ascii	"reg\000"
 6057 16e9 01       		.byte	0x1
 6058 16ea 6701     		.2byte	0x167
 6059 16ec AE000000 		.4byte	0xae
 6060 16f0 89020000 		.4byte	.LLST21
 6061 16f4 43       		.uleb128 0x43
 6062 16f5 F8030000 		.4byte	.LASF223
 6063 16f9 01       		.byte	0x1
 6064 16fa 6701     		.2byte	0x167
 6065 16fc 0B090000 		.4byte	0x90b
 6066 1700 AA020000 		.4byte	.LLST22
 6067 1704 3B       		.uleb128 0x3b
 6068 1705 90000000 		.4byte	.Ldebug_ranges0+0x90
 6069 1709 45       		.uleb128 0x45
 6070 170a 6F7000   		.ascii	"op\000"
 6071 170d 01       		.byte	0x1
 6072 170e 6901     		.2byte	0x169
 6073 1710 AE000000 		.4byte	0xae
 6074 1714 02       		.uleb128 0x2
 6075 1715 91       		.byte	0x91
 6076 1716 6F       		.sleb128 -17
 6077 1717 3D       		.uleb128 0x3d
 6078 1718 1C000000 		.4byte	.LVL45
 6079 171c 43300000 		.4byte	0x3043
 6080 1720 3E       		.uleb128 0x3e
 6081 1721 2A000000 		.4byte	.LVL46
 6082 1725 AB300000 		.4byte	0x30ab
 6083 1729 39170000 		.4byte	0x1739
 6084 172d 38       		.uleb128 0x38
 6085 172e 01       		.uleb128 0x1
 6086 172f 52       		.byte	0x52
 6087 1730 02       		.uleb128 0x2
 6088 1731 75       		.byte	0x75
 6089 1732 00       		.sleb128 0
 6090 1733 38       		.uleb128 0x38
 6091 1734 01       		.uleb128 0x1
 6092 1735 51       		.byte	0x51
 6093 1736 01       		.uleb128 0x1
 6094 1737 31       		.byte	0x31
ARM GAS  /var/folders/m4/4md61f0s1_g0rzfghffqnxvr0000gn/T//ccmevqMd.s 			page 108


 6095 1738 00       		.byte	0
 6096 1739 3E       		.uleb128 0x3e
 6097 173a 38000000 		.4byte	.LVL47
 6098 173e 7D300000 		.4byte	0x307d
 6099 1742 52170000 		.4byte	0x1752
 6100 1746 38       		.uleb128 0x38
 6101 1747 01       		.uleb128 0x1
 6102 1748 52       		.byte	0x52
 6103 1749 02       		.uleb128 0x2
 6104 174a 76       		.byte	0x76
 6105 174b 00       		.sleb128 0
 6106 174c 38       		.uleb128 0x38
 6107 174d 01       		.uleb128 0x1
 6108 174e 51       		.byte	0x51
 6109 174f 01       		.uleb128 0x1
 6110 1750 35       		.byte	0x35
 6111 1751 00       		.byte	0
 6112 1752 3D       		.uleb128 0x3d
 6113 1753 42000000 		.4byte	.LVL48
 6114 1757 99300000 		.4byte	0x3099
 6115 175b 00       		.byte	0
 6116 175c 00       		.byte	0
 6117 175d 46       		.uleb128 0x46
 6118 175e 72000000 		.4byte	.LASF255
 6119 1762 01       		.byte	0x1
 6120 1763 7101     		.2byte	0x171
 6121 1765 6D100000 		.4byte	.LASF257
 6122 1769 AE000000 		.4byte	0xae
 6123 176d 00000000 		.4byte	.LFB284
 6124 1771 3C000000 		.4byte	.LFE284-.LFB284
 6125 1775 01       		.uleb128 0x1
 6126 1776 9C       		.byte	0x9c
 6127 1777 E0170000 		.4byte	0x17e0
 6128 177b 43       		.uleb128 0x43
 6129 177c 7F0E0000 		.4byte	.LASF211
 6130 1780 01       		.byte	0x1
 6131 1781 7101     		.2byte	0x171
 6132 1783 C60F0000 		.4byte	0xfc6
 6133 1787 C8020000 		.4byte	.LLST23
 6134 178b 3B       		.uleb128 0x3b
 6135 178c B0000000 		.4byte	.Ldebug_ranges0+0xb0
 6136 1790 45       		.uleb128 0x45
 6137 1791 6F7000   		.ascii	"op\000"
 6138 1794 01       		.byte	0x1
 6139 1795 7301     		.2byte	0x173
 6140 1797 AE000000 		.4byte	0xae
 6141 179b 02       		.uleb128 0x2
 6142 179c 91       		.byte	0x91
 6143 179d 6E       		.sleb128 -18
 6144 179e 47       		.uleb128 0x47
 6145 179f 89130000 		.4byte	.LASF230
 6146 17a3 01       		.byte	0x1
 6147 17a4 7401     		.2byte	0x174
 6148 17a6 AE000000 		.4byte	0xae
 6149 17aa 02       		.uleb128 0x2
 6150 17ab 91       		.byte	0x91
 6151 17ac 6F       		.sleb128 -17
ARM GAS  /var/folders/m4/4md61f0s1_g0rzfghffqnxvr0000gn/T//ccmevqMd.s 			page 109


 6152 17ad 3D       		.uleb128 0x3d
 6153 17ae 18000000 		.4byte	.LVL51
 6154 17b2 43300000 		.4byte	0x3043
 6155 17b6 3E       		.uleb128 0x3e
 6156 17b7 2A000000 		.4byte	.LVL52
 6157 17bb 55300000 		.4byte	0x3055
 6158 17bf D5170000 		.4byte	0x17d5
 6159 17c3 38       		.uleb128 0x38
 6160 17c4 01       		.uleb128 0x1
 6161 17c5 53       		.byte	0x53
 6162 17c6 02       		.uleb128 0x2
 6163 17c7 91       		.byte	0x91
 6164 17c8 6F       		.sleb128 -17
 6165 17c9 38       		.uleb128 0x38
 6166 17ca 01       		.uleb128 0x1
 6167 17cb 52       		.byte	0x52
 6168 17cc 02       		.uleb128 0x2
 6169 17cd 75       		.byte	0x75
 6170 17ce 00       		.sleb128 0
 6171 17cf 38       		.uleb128 0x38
 6172 17d0 01       		.uleb128 0x1
 6173 17d1 51       		.byte	0x51
 6174 17d2 01       		.uleb128 0x1
 6175 17d3 31       		.byte	0x31
 6176 17d4 00       		.byte	0
 6177 17d5 3D       		.uleb128 0x3d
 6178 17d6 34000000 		.4byte	.LVL53
 6179 17da 99300000 		.4byte	0x3099
 6180 17de 00       		.byte	0
 6181 17df 00       		.byte	0
 6182 17e0 42       		.uleb128 0x42
 6183 17e1 840E0000 		.4byte	.LASF258
 6184 17e5 01       		.byte	0x1
 6185 17e6 7D01     		.2byte	0x17d
 6186 17e8 0B0B0000 		.4byte	.LASF259
 6187 17ec 00000000 		.4byte	.LFB285
 6188 17f0 1C000000 		.4byte	.LFE285-.LFB285
 6189 17f4 01       		.uleb128 0x1
 6190 17f5 9C       		.byte	0x9c
 6191 17f6 50180000 		.4byte	0x1850
 6192 17fa 43       		.uleb128 0x43
 6193 17fb 7F0E0000 		.4byte	.LASF211
 6194 17ff 01       		.byte	0x1
 6195 1800 7D01     		.2byte	0x17d
 6196 1802 C60F0000 		.4byte	0xfc6
 6197 1806 E6020000 		.4byte	.LLST24
 6198 180a 3B       		.uleb128 0x3b
 6199 180b C8000000 		.4byte	.Ldebug_ranges0+0xc8
 6200 180f 48       		.uleb128 0x48
 6201 1810 72656700 		.ascii	"reg\000"
 6202 1814 01       		.byte	0x1
 6203 1815 7F01     		.2byte	0x17f
 6204 1817 AE000000 		.4byte	0xae
 6205 181b 1D030000 		.4byte	.LLST25
 6206 181f 3E       		.uleb128 0x3e
 6207 1820 0A000000 		.4byte	.LVL55
 6208 1824 84150000 		.4byte	0x1584
ARM GAS  /var/folders/m4/4md61f0s1_g0rzfghffqnxvr0000gn/T//ccmevqMd.s 			page 110


 6209 1828 38180000 		.4byte	0x1838
 6210 182c 38       		.uleb128 0x38
 6211 182d 01       		.uleb128 0x1
 6212 182e 51       		.byte	0x51
 6213 182f 01       		.uleb128 0x1
 6214 1830 30       		.byte	0x30
 6215 1831 38       		.uleb128 0x38
 6216 1832 01       		.uleb128 0x1
 6217 1833 50       		.byte	0x50
 6218 1834 02       		.uleb128 0x2
 6219 1835 74       		.byte	0x74
 6220 1836 00       		.sleb128 0
 6221 1837 00       		.byte	0
 6222 1838 49       		.uleb128 0x49
 6223 1839 1C000000 		.4byte	.LVL58
 6224 183d EA140000 		.4byte	0x14ea
 6225 1841 38       		.uleb128 0x38
 6226 1842 01       		.uleb128 0x1
 6227 1843 51       		.byte	0x51
 6228 1844 01       		.uleb128 0x1
 6229 1845 30       		.byte	0x30
 6230 1846 38       		.uleb128 0x38
 6231 1847 01       		.uleb128 0x1
 6232 1848 50       		.byte	0x50
 6233 1849 03       		.uleb128 0x3
 6234 184a F3       		.byte	0xf3
 6235 184b 01       		.uleb128 0x1
 6236 184c 50       		.byte	0x50
 6237 184d 00       		.byte	0
 6238 184e 00       		.byte	0
 6239 184f 00       		.byte	0
 6240 1850 42       		.uleb128 0x42
 6241 1851 710B0000 		.4byte	.LASF260
 6242 1855 01       		.byte	0x1
 6243 1856 8401     		.2byte	0x184
 6244 1858 62130000 		.4byte	.LASF261
 6245 185c 00000000 		.4byte	.LFB286
 6246 1860 1A000000 		.4byte	.LFE286-.LFB286
 6247 1864 01       		.uleb128 0x1
 6248 1865 9C       		.byte	0x9c
 6249 1866 C0180000 		.4byte	0x18c0
 6250 186a 43       		.uleb128 0x43
 6251 186b 7F0E0000 		.4byte	.LASF211
 6252 186f 01       		.byte	0x1
 6253 1870 8401     		.2byte	0x184
 6254 1872 C60F0000 		.4byte	0xfc6
 6255 1876 34030000 		.4byte	.LLST26
 6256 187a 3B       		.uleb128 0x3b
 6257 187b E8000000 		.4byte	.Ldebug_ranges0+0xe8
 6258 187f 48       		.uleb128 0x48
 6259 1880 72656700 		.ascii	"reg\000"
 6260 1884 01       		.byte	0x1
 6261 1885 8601     		.2byte	0x186
 6262 1887 AE000000 		.4byte	0xae
 6263 188b 6B030000 		.4byte	.LLST27
 6264 188f 3E       		.uleb128 0x3e
 6265 1890 0A000000 		.4byte	.LVL60
ARM GAS  /var/folders/m4/4md61f0s1_g0rzfghffqnxvr0000gn/T//ccmevqMd.s 			page 111


 6266 1894 84150000 		.4byte	0x1584
 6267 1898 A8180000 		.4byte	0x18a8
 6268 189c 38       		.uleb128 0x38
 6269 189d 01       		.uleb128 0x1
 6270 189e 51       		.byte	0x51
 6271 189f 01       		.uleb128 0x1
 6272 18a0 30       		.byte	0x30
 6273 18a1 38       		.uleb128 0x38
 6274 18a2 01       		.uleb128 0x1
 6275 18a3 50       		.byte	0x50
 6276 18a4 02       		.uleb128 0x2
 6277 18a5 74       		.byte	0x74
 6278 18a6 00       		.sleb128 0
 6279 18a7 00       		.byte	0
 6280 18a8 49       		.uleb128 0x49
 6281 18a9 1A000000 		.4byte	.LVL63
 6282 18ad EA140000 		.4byte	0x14ea
 6283 18b1 38       		.uleb128 0x38
 6284 18b2 01       		.uleb128 0x1
 6285 18b3 51       		.byte	0x51
 6286 18b4 01       		.uleb128 0x1
 6287 18b5 30       		.byte	0x30
 6288 18b6 38       		.uleb128 0x38
 6289 18b7 01       		.uleb128 0x1
 6290 18b8 50       		.byte	0x50
 6291 18b9 03       		.uleb128 0x3
 6292 18ba F3       		.byte	0xf3
 6293 18bb 01       		.uleb128 0x1
 6294 18bc 50       		.byte	0x50
 6295 18bd 00       		.byte	0
 6296 18be 00       		.byte	0
 6297 18bf 00       		.byte	0
 6298 18c0 42       		.uleb128 0x42
 6299 18c1 EC0A0000 		.4byte	.LASF262
 6300 18c5 01       		.byte	0x1
 6301 18c6 8B01     		.2byte	0x18b
 6302 18c8 BA060000 		.4byte	.LASF263
 6303 18cc 00000000 		.4byte	.LFB287
 6304 18d0 10000000 		.4byte	.LFE287-.LFB287
 6305 18d4 01       		.uleb128 0x1
 6306 18d5 9C       		.byte	0x9c
 6307 18d6 3B190000 		.4byte	0x193b
 6308 18da 43       		.uleb128 0x43
 6309 18db 7F0E0000 		.4byte	.LASF211
 6310 18df 01       		.byte	0x1
 6311 18e0 8B01     		.2byte	0x18b
 6312 18e2 C60F0000 		.4byte	0xfc6
 6313 18e6 83030000 		.4byte	.LLST28
 6314 18ea 43       		.uleb128 0x43
 6315 18eb 8B010000 		.4byte	.LASF264
 6316 18ef 01       		.byte	0x1
 6317 18f0 8B01     		.2byte	0x18b
 6318 18f2 AE000000 		.4byte	0xae
 6319 18f6 A4030000 		.4byte	.LLST29
 6320 18fa 43       		.uleb128 0x43
 6321 18fb B0010000 		.4byte	.LASF265
 6322 18ff 01       		.byte	0x1
ARM GAS  /var/folders/m4/4md61f0s1_g0rzfghffqnxvr0000gn/T//ccmevqMd.s 			page 112


 6323 1900 8B01     		.2byte	0x18b
 6324 1902 AE000000 		.4byte	0xae
 6325 1906 C5030000 		.4byte	.LLST30
 6326 190a 4A       		.uleb128 0x4a
 6327 190b 00000000 		.4byte	.LBB171
 6328 190f 10000000 		.4byte	.LBE171-.LBB171
 6329 1913 48       		.uleb128 0x48
 6330 1914 72656700 		.ascii	"reg\000"
 6331 1918 01       		.byte	0x1
 6332 1919 8D01     		.2byte	0x18d
 6333 191b AE000000 		.4byte	0xae
 6334 191f E6030000 		.4byte	.LLST31
 6335 1923 49       		.uleb128 0x49
 6336 1924 10000000 		.4byte	.LVL67
 6337 1928 EA140000 		.4byte	0x14ea
 6338 192c 38       		.uleb128 0x38
 6339 192d 01       		.uleb128 0x1
 6340 192e 51       		.byte	0x51
 6341 192f 01       		.uleb128 0x1
 6342 1930 34       		.byte	0x34
 6343 1931 38       		.uleb128 0x38
 6344 1932 01       		.uleb128 0x1
 6345 1933 50       		.byte	0x50
 6346 1934 03       		.uleb128 0x3
 6347 1935 F3       		.byte	0xf3
 6348 1936 01       		.uleb128 0x1
 6349 1937 50       		.byte	0x50
 6350 1938 00       		.byte	0
 6351 1939 00       		.byte	0
 6352 193a 00       		.byte	0
 6353 193b 42       		.uleb128 0x42
 6354 193c 7C070000 		.4byte	.LASF266
 6355 1940 01       		.byte	0x1
 6356 1941 9101     		.2byte	0x191
 6357 1943 680C0000 		.4byte	.LASF267
 6358 1947 00000000 		.4byte	.LFB288
 6359 194b 0A000000 		.4byte	.LFE288-.LFB288
 6360 194f 01       		.uleb128 0x1
 6361 1950 9C       		.byte	0x9c
 6362 1951 A6190000 		.4byte	0x19a6
 6363 1955 43       		.uleb128 0x43
 6364 1956 7F0E0000 		.4byte	.LASF211
 6365 195a 01       		.byte	0x1
 6366 195b 9101     		.2byte	0x191
 6367 195d C60F0000 		.4byte	0xfc6
 6368 1961 2D040000 		.4byte	.LLST32
 6369 1965 43       		.uleb128 0x43
 6370 1966 6E080000 		.4byte	.LASF245
 6371 196a 01       		.byte	0x1
 6372 196b 9101     		.2byte	0x191
 6373 196d AE000000 		.4byte	0xae
 6374 1971 4E040000 		.4byte	.LLST33
 6375 1975 4A       		.uleb128 0x4a
 6376 1976 00000000 		.4byte	.LBB172
 6377 197a 0A000000 		.4byte	.LBE172-.LBB172
 6378 197e 48       		.uleb128 0x48
 6379 197f 72656700 		.ascii	"reg\000"
ARM GAS  /var/folders/m4/4md61f0s1_g0rzfghffqnxvr0000gn/T//ccmevqMd.s 			page 113


 6380 1983 01       		.byte	0x1
 6381 1984 9301     		.2byte	0x193
 6382 1986 AE000000 		.4byte	0xae
 6383 198a 6F040000 		.4byte	.LLST34
 6384 198e 49       		.uleb128 0x49
 6385 198f 0A000000 		.4byte	.LVL70
 6386 1993 EA140000 		.4byte	0x14ea
 6387 1997 38       		.uleb128 0x38
 6388 1998 01       		.uleb128 0x1
 6389 1999 51       		.byte	0x51
 6390 199a 01       		.uleb128 0x1
 6391 199b 35       		.byte	0x35
 6392 199c 38       		.uleb128 0x38
 6393 199d 01       		.uleb128 0x1
 6394 199e 50       		.byte	0x50
 6395 199f 03       		.uleb128 0x3
 6396 19a0 F3       		.byte	0xf3
 6397 19a1 01       		.uleb128 0x1
 6398 19a2 50       		.byte	0x50
 6399 19a3 00       		.byte	0
 6400 19a4 00       		.byte	0
 6401 19a5 00       		.byte	0
 6402 19a6 3F       		.uleb128 0x3f
 6403 19a7 E0100000 		.4byte	0x10e0
 6404 19ab 24100000 		.4byte	.LASF268
 6405 19af 00000000 		.4byte	.LFB289
 6406 19b3 0A000000 		.4byte	.LFE289-.LFB289
 6407 19b7 01       		.uleb128 0x1
 6408 19b8 9C       		.byte	0x9c
 6409 19b9 E6190000 		.4byte	0x19e6
 6410 19bd 3A       		.uleb128 0x3a
 6411 19be ED100000 		.4byte	0x10ed
 6412 19c2 98040000 		.4byte	.LLST35
 6413 19c6 3A       		.uleb128 0x3a
 6414 19c7 F9100000 		.4byte	0x10f9
 6415 19cb B9040000 		.4byte	.LLST36
 6416 19cf 49       		.uleb128 0x49
 6417 19d0 0A000000 		.4byte	.LVL73
 6418 19d4 EA140000 		.4byte	0x14ea
 6419 19d8 38       		.uleb128 0x38
 6420 19d9 01       		.uleb128 0x1
 6421 19da 51       		.byte	0x51
 6422 19db 01       		.uleb128 0x1
 6423 19dc 37       		.byte	0x37
 6424 19dd 38       		.uleb128 0x38
 6425 19de 01       		.uleb128 0x1
 6426 19df 50       		.byte	0x50
 6427 19e0 03       		.uleb128 0x3
 6428 19e1 F3       		.byte	0xf3
 6429 19e2 01       		.uleb128 0x1
 6430 19e3 50       		.byte	0x50
 6431 19e4 00       		.byte	0
 6432 19e5 00       		.byte	0
 6433 19e6 3F       		.uleb128 0x3f
 6434 19e7 940F0000 		.4byte	0xf94
 6435 19eb AA000000 		.4byte	.LASF269
 6436 19ef 00000000 		.4byte	.LFB290
ARM GAS  /var/folders/m4/4md61f0s1_g0rzfghffqnxvr0000gn/T//ccmevqMd.s 			page 114


 6437 19f3 40000000 		.4byte	.LFE290-.LFB290
 6438 19f7 01       		.uleb128 0x1
 6439 19f8 9C       		.byte	0x9c
 6440 19f9 861A0000 		.4byte	0x1a86
 6441 19fd 3A       		.uleb128 0x3a
 6442 19fe A10F0000 		.4byte	0xfa1
 6443 1a02 DA040000 		.4byte	.LLST37
 6444 1a06 3A       		.uleb128 0x3a
 6445 1a07 AD0F0000 		.4byte	0xfad
 6446 1a0b 35050000 		.4byte	.LLST38
 6447 1a0f 3A       		.uleb128 0x3a
 6448 1a10 B90F0000 		.4byte	0xfb9
 6449 1a14 56050000 		.4byte	.LLST39
 6450 1a18 4B       		.uleb128 0x4b
 6451 1a19 08010000 		.4byte	.Ldebug_ranges0+0x108
 6452 1a1d 4E1A0000 		.4byte	0x1a4e
 6453 1a21 3A       		.uleb128 0x3a
 6454 1a22 B90F0000 		.4byte	0xfb9
 6455 1a26 A6050000 		.4byte	.LLST40
 6456 1a2a 3A       		.uleb128 0x3a
 6457 1a2b AD0F0000 		.4byte	0xfad
 6458 1a2f C7050000 		.4byte	.LLST41
 6459 1a33 3A       		.uleb128 0x3a
 6460 1a34 A10F0000 		.4byte	0xfa1
 6461 1a38 DA050000 		.4byte	.LLST42
 6462 1a3c 49       		.uleb128 0x49
 6463 1a3d 2E000000 		.4byte	.LVL80
 6464 1a41 EA140000 		.4byte	0x14ea
 6465 1a45 38       		.uleb128 0x38
 6466 1a46 01       		.uleb128 0x1
 6467 1a47 50       		.byte	0x50
 6468 1a48 03       		.uleb128 0x3
 6469 1a49 F3       		.byte	0xf3
 6470 1a4a 01       		.uleb128 0x1
 6471 1a4b 50       		.byte	0x50
 6472 1a4c 00       		.byte	0
 6473 1a4d 00       		.byte	0
 6474 1a4e 3E       		.uleb128 0x3e
 6475 1a4f 10000000 		.4byte	.LVL77
 6476 1a53 EA140000 		.4byte	0x14ea
 6477 1a57 6D1A0000 		.4byte	0x1a6d
 6478 1a5b 38       		.uleb128 0x38
 6479 1a5c 01       		.uleb128 0x1
 6480 1a5d 52       		.byte	0x52
 6481 1a5e 02       		.uleb128 0x2
 6482 1a5f 09       		.byte	0x9
 6483 1a60 80       		.byte	0x80
 6484 1a61 38       		.uleb128 0x38
 6485 1a62 01       		.uleb128 0x1
 6486 1a63 51       		.byte	0x51
 6487 1a64 01       		.uleb128 0x1
 6488 1a65 33       		.byte	0x33
 6489 1a66 38       		.uleb128 0x38
 6490 1a67 01       		.uleb128 0x1
 6491 1a68 50       		.byte	0x50
 6492 1a69 02       		.uleb128 0x2
 6493 1a6a 76       		.byte	0x76
ARM GAS  /var/folders/m4/4md61f0s1_g0rzfghffqnxvr0000gn/T//ccmevqMd.s 			page 115


 6494 1a6b 00       		.sleb128 0
 6495 1a6c 00       		.byte	0
 6496 1a6d 49       		.uleb128 0x49
 6497 1a6e 40000000 		.4byte	.LVL82
 6498 1a72 17160000 		.4byte	0x1617
 6499 1a76 38       		.uleb128 0x38
 6500 1a77 01       		.uleb128 0x1
 6501 1a78 52       		.byte	0x52
 6502 1a79 03       		.uleb128 0x3
 6503 1a7a F3       		.byte	0xf3
 6504 1a7b 01       		.uleb128 0x1
 6505 1a7c 52       		.byte	0x52
 6506 1a7d 38       		.uleb128 0x38
 6507 1a7e 01       		.uleb128 0x1
 6508 1a7f 50       		.byte	0x50
 6509 1a80 03       		.uleb128 0x3
 6510 1a81 F3       		.byte	0xf3
 6511 1a82 01       		.uleb128 0x1
 6512 1a83 50       		.byte	0x50
 6513 1a84 00       		.byte	0
 6514 1a85 00       		.byte	0
 6515 1a86 42       		.uleb128 0x42
 6516 1a87 D9050000 		.4byte	.LASF270
 6517 1a8b 01       		.byte	0x1
 6518 1a8c A501     		.2byte	0x1a5
 6519 1a8e 260A0000 		.4byte	.LASF271
 6520 1a92 00000000 		.4byte	.LFB291
 6521 1a96 1C000000 		.4byte	.LFE291-.LFB291
 6522 1a9a 01       		.uleb128 0x1
 6523 1a9b 9C       		.byte	0x9c
 6524 1a9c FD1A0000 		.4byte	0x1afd
 6525 1aa0 43       		.uleb128 0x43
 6526 1aa1 7F0E0000 		.4byte	.LASF211
 6527 1aa5 01       		.byte	0x1
 6528 1aa6 A501     		.2byte	0x1a5
 6529 1aa8 C60F0000 		.4byte	0xfc6
 6530 1aac 06060000 		.4byte	.LLST43
 6531 1ab0 43       		.uleb128 0x43
 6532 1ab1 630A0000 		.4byte	.LASF225
 6533 1ab5 01       		.byte	0x1
 6534 1ab6 A501     		.2byte	0x1a5
 6535 1ab8 2A090000 		.4byte	0x92a
 6536 1abc 3D060000 		.4byte	.LLST44
 6537 1ac0 3E       		.uleb128 0x3e
 6538 1ac1 0E000000 		.4byte	.LVL85
 6539 1ac5 EA140000 		.4byte	0x14ea
 6540 1ac9 DF1A0000 		.4byte	0x1adf
 6541 1acd 38       		.uleb128 0x38
 6542 1ace 01       		.uleb128 0x1
 6543 1acf 52       		.byte	0x52
 6544 1ad0 02       		.uleb128 0x2
 6545 1ad1 09       		.byte	0x9
 6546 1ad2 80       		.byte	0x80
 6547 1ad3 38       		.uleb128 0x38
 6548 1ad4 01       		.uleb128 0x1
 6549 1ad5 51       		.byte	0x51
 6550 1ad6 01       		.uleb128 0x1
ARM GAS  /var/folders/m4/4md61f0s1_g0rzfghffqnxvr0000gn/T//ccmevqMd.s 			page 116


 6551 1ad7 33       		.byte	0x33
 6552 1ad8 38       		.uleb128 0x38
 6553 1ad9 01       		.uleb128 0x1
 6554 1ada 50       		.byte	0x50
 6555 1adb 02       		.uleb128 0x2
 6556 1adc 75       		.byte	0x75
 6557 1add 00       		.sleb128 0
 6558 1ade 00       		.byte	0
 6559 1adf 49       		.uleb128 0x49
 6560 1ae0 1C000000 		.4byte	.LVL87
 6561 1ae4 17160000 		.4byte	0x1617
 6562 1ae8 38       		.uleb128 0x38
 6563 1ae9 01       		.uleb128 0x1
 6564 1aea 52       		.byte	0x52
 6565 1aeb 03       		.uleb128 0x3
 6566 1aec F3       		.byte	0xf3
 6567 1aed 01       		.uleb128 0x1
 6568 1aee 51       		.byte	0x51
 6569 1aef 38       		.uleb128 0x38
 6570 1af0 01       		.uleb128 0x1
 6571 1af1 51       		.byte	0x51
 6572 1af2 01       		.uleb128 0x1
 6573 1af3 40       		.byte	0x40
 6574 1af4 38       		.uleb128 0x38
 6575 1af5 01       		.uleb128 0x1
 6576 1af6 50       		.byte	0x50
 6577 1af7 03       		.uleb128 0x3
 6578 1af8 F3       		.byte	0xf3
 6579 1af9 01       		.uleb128 0x1
 6580 1afa 50       		.byte	0x50
 6581 1afb 00       		.byte	0
 6582 1afc 00       		.byte	0
 6583 1afd 3F       		.uleb128 0x3f
 6584 1afe CC0F0000 		.4byte	0xfcc
 6585 1b02 DC120000 		.4byte	.LASF272
 6586 1b06 00000000 		.4byte	.LFB292
 6587 1b0a 12000000 		.4byte	.LFE292-.LFB292
 6588 1b0e 01       		.uleb128 0x1
 6589 1b0f 9C       		.byte	0x9c
 6590 1b10 5A1B0000 		.4byte	0x1b5a
 6591 1b14 3A       		.uleb128 0x3a
 6592 1b15 D90F0000 		.4byte	0xfd9
 6593 1b19 74060000 		.4byte	.LLST45
 6594 1b1d 3A       		.uleb128 0x3a
 6595 1b1e E50F0000 		.4byte	0xfe5
 6596 1b22 95060000 		.4byte	.LLST46
 6597 1b26 3A       		.uleb128 0x3a
 6598 1b27 F10F0000 		.4byte	0xff1
 6599 1b2b B6060000 		.4byte	.LLST47
 6600 1b2f 4A       		.uleb128 0x4a
 6601 1b30 04000000 		.4byte	.LBB181
 6602 1b34 0E000000 		.4byte	.LBE181-.LBB181
 6603 1b38 3A       		.uleb128 0x3a
 6604 1b39 F10F0000 		.4byte	0xff1
 6605 1b3d D7060000 		.4byte	.LLST48
 6606 1b41 3A       		.uleb128 0x3a
 6607 1b42 E50F0000 		.4byte	0xfe5
ARM GAS  /var/folders/m4/4md61f0s1_g0rzfghffqnxvr0000gn/T//ccmevqMd.s 			page 117


 6608 1b46 03070000 		.4byte	.LLST49
 6609 1b4a 4C       		.uleb128 0x4c
 6610 1b4b D90F0000 		.4byte	0xfd9
 6611 1b4f 4D       		.uleb128 0x4d
 6612 1b50 12000000 		.4byte	.LVL93
 6613 1b54 EA140000 		.4byte	0x14ea
 6614 1b58 00       		.byte	0
 6615 1b59 00       		.byte	0
 6616 1b5a 3F       		.uleb128 0x3f
 6617 1b5b 34110000 		.4byte	0x1134
 6618 1b5f 7D0D0000 		.4byte	.LASF273
 6619 1b63 00000000 		.4byte	.LFB293
 6620 1b67 06000000 		.4byte	.LFE293-.LFB293
 6621 1b6b 01       		.uleb128 0x1
 6622 1b6c 9C       		.byte	0x9c
 6623 1b6d 911B0000 		.4byte	0x1b91
 6624 1b71 3A       		.uleb128 0x3a
 6625 1b72 45110000 		.4byte	0x1145
 6626 1b76 2F070000 		.4byte	.LLST50
 6627 1b7a 49       		.uleb128 0x49
 6628 1b7b 06000000 		.4byte	.LVL95
 6629 1b7f 84150000 		.4byte	0x1584
 6630 1b83 38       		.uleb128 0x38
 6631 1b84 01       		.uleb128 0x1
 6632 1b85 51       		.byte	0x51
 6633 1b86 01       		.uleb128 0x1
 6634 1b87 47       		.byte	0x47
 6635 1b88 38       		.uleb128 0x38
 6636 1b89 01       		.uleb128 0x1
 6637 1b8a 50       		.byte	0x50
 6638 1b8b 03       		.uleb128 0x3
 6639 1b8c F3       		.byte	0xf3
 6640 1b8d 01       		.uleb128 0x1
 6641 1b8e 50       		.byte	0x50
 6642 1b8f 00       		.byte	0
 6643 1b90 00       		.byte	0
 6644 1b91 42       		.uleb128 0x42
 6645 1b92 470E0000 		.4byte	.LASF274
 6646 1b96 01       		.byte	0x1
 6647 1b97 CA01     		.2byte	0x1ca
 6648 1b99 FF130000 		.4byte	.LASF275
 6649 1b9d 00000000 		.4byte	.LFB295
 6650 1ba1 22000000 		.4byte	.LFE295-.LFB295
 6651 1ba5 01       		.uleb128 0x1
 6652 1ba6 9C       		.byte	0x9c
 6653 1ba7 111C0000 		.4byte	0x1c11
 6654 1bab 43       		.uleb128 0x43
 6655 1bac 7F0E0000 		.4byte	.LASF211
 6656 1bb0 01       		.byte	0x1
 6657 1bb1 CA01     		.2byte	0x1ca
 6658 1bb3 C60F0000 		.4byte	0xfc6
 6659 1bb7 50070000 		.4byte	.LLST51
 6660 1bbb 43       		.uleb128 0x43
 6661 1bbc E7020000 		.4byte	.LASF276
 6662 1bc0 01       		.byte	0x1
 6663 1bc1 CA01     		.2byte	0x1ca
 6664 1bc3 AE000000 		.4byte	0xae
ARM GAS  /var/folders/m4/4md61f0s1_g0rzfghffqnxvr0000gn/T//ccmevqMd.s 			page 118


 6665 1bc7 87070000 		.4byte	.LLST52
 6666 1bcb 3B       		.uleb128 0x3b
 6667 1bcc 20010000 		.4byte	.Ldebug_ranges0+0x120
 6668 1bd0 48       		.uleb128 0x48
 6669 1bd1 72656700 		.ascii	"reg\000"
 6670 1bd5 01       		.byte	0x1
 6671 1bd6 CC01     		.2byte	0x1cc
 6672 1bd8 AE000000 		.4byte	0xae
 6673 1bdc A8070000 		.4byte	.LLST53
 6674 1be0 3E       		.uleb128 0x3e
 6675 1be1 0C000000 		.4byte	.LVL98
 6676 1be5 84150000 		.4byte	0x1584
 6677 1be9 F91B0000 		.4byte	0x1bf9
 6678 1bed 38       		.uleb128 0x38
 6679 1bee 01       		.uleb128 0x1
 6680 1bef 51       		.byte	0x51
 6681 1bf0 01       		.uleb128 0x1
 6682 1bf1 4C       		.byte	0x4c
 6683 1bf2 38       		.uleb128 0x38
 6684 1bf3 01       		.uleb128 0x1
 6685 1bf4 50       		.byte	0x50
 6686 1bf5 02       		.uleb128 0x2
 6687 1bf6 75       		.byte	0x75
 6688 1bf7 00       		.sleb128 0
 6689 1bf8 00       		.byte	0
 6690 1bf9 49       		.uleb128 0x49
 6691 1bfa 22000000 		.4byte	.LVL101
 6692 1bfe EA140000 		.4byte	0x14ea
 6693 1c02 38       		.uleb128 0x38
 6694 1c03 01       		.uleb128 0x1
 6695 1c04 51       		.byte	0x51
 6696 1c05 01       		.uleb128 0x1
 6697 1c06 4C       		.byte	0x4c
 6698 1c07 38       		.uleb128 0x38
 6699 1c08 01       		.uleb128 0x1
 6700 1c09 50       		.byte	0x50
 6701 1c0a 03       		.uleb128 0x3
 6702 1c0b F3       		.byte	0xf3
 6703 1c0c 01       		.uleb128 0x1
 6704 1c0d 50       		.byte	0x50
 6705 1c0e 00       		.byte	0
 6706 1c0f 00       		.byte	0
 6707 1c10 00       		.byte	0
 6708 1c11 42       		.uleb128 0x42
 6709 1c12 78120000 		.4byte	.LASF277
 6710 1c16 01       		.byte	0x1
 6711 1c17 D101     		.2byte	0x1d1
 6712 1c19 1C070000 		.4byte	.LASF278
 6713 1c1d 00000000 		.4byte	.LFB296
 6714 1c21 1A000000 		.4byte	.LFE296-.LFB296
 6715 1c25 01       		.uleb128 0x1
 6716 1c26 9C       		.byte	0x9c
 6717 1c27 811C0000 		.4byte	0x1c81
 6718 1c2b 43       		.uleb128 0x43
 6719 1c2c 7F0E0000 		.4byte	.LASF211
 6720 1c30 01       		.byte	0x1
 6721 1c31 D101     		.2byte	0x1d1
ARM GAS  /var/folders/m4/4md61f0s1_g0rzfghffqnxvr0000gn/T//ccmevqMd.s 			page 119


 6722 1c33 C60F0000 		.4byte	0xfc6
 6723 1c37 C6070000 		.4byte	.LLST54
 6724 1c3b 3B       		.uleb128 0x3b
 6725 1c3c 40010000 		.4byte	.Ldebug_ranges0+0x140
 6726 1c40 48       		.uleb128 0x48
 6727 1c41 72656700 		.ascii	"reg\000"
 6728 1c45 01       		.byte	0x1
 6729 1c46 D301     		.2byte	0x1d3
 6730 1c48 AE000000 		.4byte	0xae
 6731 1c4c FD070000 		.4byte	.LLST55
 6732 1c50 3E       		.uleb128 0x3e
 6733 1c51 0A000000 		.4byte	.LVL103
 6734 1c55 84150000 		.4byte	0x1584
 6735 1c59 691C0000 		.4byte	0x1c69
 6736 1c5d 38       		.uleb128 0x38
 6737 1c5e 01       		.uleb128 0x1
 6738 1c5f 51       		.byte	0x51
 6739 1c60 01       		.uleb128 0x1
 6740 1c61 4D       		.byte	0x4d
 6741 1c62 38       		.uleb128 0x38
 6742 1c63 01       		.uleb128 0x1
 6743 1c64 50       		.byte	0x50
 6744 1c65 02       		.uleb128 0x2
 6745 1c66 74       		.byte	0x74
 6746 1c67 00       		.sleb128 0
 6747 1c68 00       		.byte	0
 6748 1c69 49       		.uleb128 0x49
 6749 1c6a 1A000000 		.4byte	.LVL106
 6750 1c6e EA140000 		.4byte	0x14ea
 6751 1c72 38       		.uleb128 0x38
 6752 1c73 01       		.uleb128 0x1
 6753 1c74 51       		.byte	0x51
 6754 1c75 01       		.uleb128 0x1
 6755 1c76 4D       		.byte	0x4d
 6756 1c77 38       		.uleb128 0x38
 6757 1c78 01       		.uleb128 0x1
 6758 1c79 50       		.byte	0x50
 6759 1c7a 03       		.uleb128 0x3
 6760 1c7b F3       		.byte	0xf3
 6761 1c7c 01       		.uleb128 0x1
 6762 1c7d 50       		.byte	0x50
 6763 1c7e 00       		.byte	0
 6764 1c7f 00       		.byte	0
 6765 1c80 00       		.byte	0
 6766 1c81 42       		.uleb128 0x42
 6767 1c82 1E0E0000 		.4byte	.LASF279
 6768 1c86 01       		.byte	0x1
 6769 1c87 D801     		.2byte	0x1d8
 6770 1c89 BE130000 		.4byte	.LASF280
 6771 1c8d 00000000 		.4byte	.LFB297
 6772 1c91 22000000 		.4byte	.LFE297-.LFB297
 6773 1c95 01       		.uleb128 0x1
 6774 1c96 9C       		.byte	0x9c
 6775 1c97 011D0000 		.4byte	0x1d01
 6776 1c9b 43       		.uleb128 0x43
 6777 1c9c 7F0E0000 		.4byte	.LASF211
 6778 1ca0 01       		.byte	0x1
ARM GAS  /var/folders/m4/4md61f0s1_g0rzfghffqnxvr0000gn/T//ccmevqMd.s 			page 120


 6779 1ca1 D801     		.2byte	0x1d8
 6780 1ca3 C60F0000 		.4byte	0xfc6
 6781 1ca7 15080000 		.4byte	.LLST56
 6782 1cab 43       		.uleb128 0x43
 6783 1cac E7020000 		.4byte	.LASF276
 6784 1cb0 01       		.byte	0x1
 6785 1cb1 D801     		.2byte	0x1d8
 6786 1cb3 AE000000 		.4byte	0xae
 6787 1cb7 4C080000 		.4byte	.LLST57
 6788 1cbb 3B       		.uleb128 0x3b
 6789 1cbc 60010000 		.4byte	.Ldebug_ranges0+0x160
 6790 1cc0 48       		.uleb128 0x48
 6791 1cc1 72656700 		.ascii	"reg\000"
 6792 1cc5 01       		.byte	0x1
 6793 1cc6 DA01     		.2byte	0x1da
 6794 1cc8 AE000000 		.4byte	0xae
 6795 1ccc 6D080000 		.4byte	.LLST58
 6796 1cd0 3E       		.uleb128 0x3e
 6797 1cd1 0C000000 		.4byte	.LVL109
 6798 1cd5 84150000 		.4byte	0x1584
 6799 1cd9 E91C0000 		.4byte	0x1ce9
 6800 1cdd 38       		.uleb128 0x38
 6801 1cde 01       		.uleb128 0x1
 6802 1cdf 51       		.byte	0x51
 6803 1ce0 01       		.uleb128 0x1
 6804 1ce1 4C       		.byte	0x4c
 6805 1ce2 38       		.uleb128 0x38
 6806 1ce3 01       		.uleb128 0x1
 6807 1ce4 50       		.byte	0x50
 6808 1ce5 02       		.uleb128 0x2
 6809 1ce6 75       		.byte	0x75
 6810 1ce7 00       		.sleb128 0
 6811 1ce8 00       		.byte	0
 6812 1ce9 49       		.uleb128 0x49
 6813 1cea 22000000 		.4byte	.LVL112
 6814 1cee EA140000 		.4byte	0x14ea
 6815 1cf2 38       		.uleb128 0x38
 6816 1cf3 01       		.uleb128 0x1
 6817 1cf4 51       		.byte	0x51
 6818 1cf5 01       		.uleb128 0x1
 6819 1cf6 4C       		.byte	0x4c
 6820 1cf7 38       		.uleb128 0x38
 6821 1cf8 01       		.uleb128 0x1
 6822 1cf9 50       		.byte	0x50
 6823 1cfa 03       		.uleb128 0x3
 6824 1cfb F3       		.byte	0xf3
 6825 1cfc 01       		.uleb128 0x1
 6826 1cfd 50       		.byte	0x50
 6827 1cfe 00       		.byte	0
 6828 1cff 00       		.byte	0
 6829 1d00 00       		.byte	0
 6830 1d01 3F       		.uleb128 0x3f
 6831 1d02 FE0F0000 		.4byte	0xffe
 6832 1d06 77110000 		.4byte	.LASF281
 6833 1d0a 00000000 		.4byte	.LFB298
 6834 1d0e 0A000000 		.4byte	.LFE298-.LFB298
 6835 1d12 01       		.uleb128 0x1
ARM GAS  /var/folders/m4/4md61f0s1_g0rzfghffqnxvr0000gn/T//ccmevqMd.s 			page 121


 6836 1d13 9C       		.byte	0x9c
 6837 1d14 5E1D0000 		.4byte	0x1d5e
 6838 1d18 3A       		.uleb128 0x3a
 6839 1d19 0B100000 		.4byte	0x100b
 6840 1d1d 8B080000 		.4byte	.LLST59
 6841 1d21 3A       		.uleb128 0x3a
 6842 1d22 17100000 		.4byte	0x1017
 6843 1d26 AC080000 		.4byte	.LLST60
 6844 1d2a 3A       		.uleb128 0x3a
 6845 1d2b 23100000 		.4byte	0x1023
 6846 1d2f CD080000 		.4byte	.LLST61
 6847 1d33 3A       		.uleb128 0x3a
 6848 1d34 2F100000 		.4byte	0x102f
 6849 1d38 EE080000 		.4byte	.LLST62
 6850 1d3c 40       		.uleb128 0x40
 6851 1d3d 00000000 		.4byte	.LBB192
 6852 1d41 06000000 		.4byte	.LBE192-.LBB192
 6853 1d45 541D0000 		.4byte	0x1d54
 6854 1d49 4E       		.uleb128 0x4e
 6855 1d4a 3C100000 		.4byte	0x103c
 6856 1d4e 4E       		.uleb128 0x4e
 6857 1d4f 47100000 		.4byte	0x1047
 6858 1d53 00       		.byte	0
 6859 1d54 4D       		.uleb128 0x4d
 6860 1d55 0A000000 		.4byte	.LVL114
 6861 1d59 3F130000 		.4byte	0x133f
 6862 1d5d 00       		.byte	0
 6863 1d5e 3F       		.uleb128 0x3f
 6864 1d5f 55100000 		.4byte	0x1055
 6865 1d63 11110000 		.4byte	.LASF282
 6866 1d67 00000000 		.4byte	.LFB299
 6867 1d6b 0A000000 		.4byte	.LFE299-.LFB299
 6868 1d6f 01       		.uleb128 0x1
 6869 1d70 9C       		.byte	0x9c
 6870 1d71 AD1D0000 		.4byte	0x1dad
 6871 1d75 3A       		.uleb128 0x3a
 6872 1d76 62100000 		.4byte	0x1062
 6873 1d7a 0F090000 		.4byte	.LLST63
 6874 1d7e 3A       		.uleb128 0x3a
 6875 1d7f 6E100000 		.4byte	0x106e
 6876 1d83 30090000 		.4byte	.LLST64
 6877 1d87 3A       		.uleb128 0x3a
 6878 1d88 7A100000 		.4byte	0x107a
 6879 1d8c 51090000 		.4byte	.LLST65
 6880 1d90 40       		.uleb128 0x40
 6881 1d91 00000000 		.4byte	.LBB193
 6882 1d95 06000000 		.4byte	.LBE193-.LBB193
 6883 1d99 A31D0000 		.4byte	0x1da3
 6884 1d9d 4E       		.uleb128 0x4e
 6885 1d9e 87100000 		.4byte	0x1087
 6886 1da2 00       		.byte	0
 6887 1da3 4D       		.uleb128 0x4d
 6888 1da4 0A000000 		.4byte	.LVL116
 6889 1da8 D8130000 		.4byte	0x13d8
 6890 1dac 00       		.byte	0
 6891 1dad 42       		.uleb128 0x42
 6892 1dae 63010000 		.4byte	.LASF283
ARM GAS  /var/folders/m4/4md61f0s1_g0rzfghffqnxvr0000gn/T//ccmevqMd.s 			page 122


 6893 1db2 01       		.byte	0x1
 6894 1db3 FC01     		.2byte	0x1fc
 6895 1db5 E40B0000 		.4byte	.LASF284
 6896 1db9 00000000 		.4byte	.LFB300
 6897 1dbd 38000000 		.4byte	.LFE300-.LFB300
 6898 1dc1 01       		.uleb128 0x1
 6899 1dc2 9C       		.byte	0x9c
 6900 1dc3 171E0000 		.4byte	0x1e17
 6901 1dc7 43       		.uleb128 0x43
 6902 1dc8 7F0E0000 		.4byte	.LASF211
 6903 1dcc 01       		.byte	0x1
 6904 1dcd FC01     		.2byte	0x1fc
 6905 1dcf C60F0000 		.4byte	0xfc6
 6906 1dd3 72090000 		.4byte	.LLST66
 6907 1dd7 3B       		.uleb128 0x3b
 6908 1dd8 80010000 		.4byte	.Ldebug_ranges0+0x180
 6909 1ddc 45       		.uleb128 0x45
 6910 1ddd 6F7000   		.ascii	"op\000"
 6911 1de0 01       		.byte	0x1
 6912 1de1 FE01     		.2byte	0x1fe
 6913 1de3 74150000 		.4byte	0x1574
 6914 1de7 02       		.uleb128 0x2
 6915 1de8 91       		.byte	0x91
 6916 1de9 74       		.sleb128 -12
 6917 1dea 3D       		.uleb128 0x3d
 6918 1deb 18000000 		.4byte	.LVL119
 6919 1def 43300000 		.4byte	0x3043
 6920 1df3 3E       		.uleb128 0x3e
 6921 1df4 26000000 		.4byte	.LVL120
 6922 1df8 AB300000 		.4byte	0x30ab
 6923 1dfc 0C1E0000 		.4byte	0x1e0c
 6924 1e00 38       		.uleb128 0x38
 6925 1e01 01       		.uleb128 0x1
 6926 1e02 52       		.byte	0x52
 6927 1e03 02       		.uleb128 0x2
 6928 1e04 91       		.byte	0x91
 6929 1e05 74       		.sleb128 -12
 6930 1e06 38       		.uleb128 0x38
 6931 1e07 01       		.uleb128 0x1
 6932 1e08 51       		.byte	0x51
 6933 1e09 01       		.uleb128 0x1
 6934 1e0a 32       		.byte	0x32
 6935 1e0b 00       		.byte	0
 6936 1e0c 3D       		.uleb128 0x3d
 6937 1e0d 30000000 		.4byte	.LVL121
 6938 1e11 99300000 		.4byte	0x3099
 6939 1e15 00       		.byte	0
 6940 1e16 00       		.byte	0
 6941 1e17 42       		.uleb128 0x42
 6942 1e18 0B060000 		.4byte	.LASF285
 6943 1e1c 01       		.byte	0x1
 6944 1e1d B801     		.2byte	0x1b8
 6945 1e1f 340D0000 		.4byte	.LASF286
 6946 1e23 00000000 		.4byte	.LFB294
 6947 1e27 40000000 		.4byte	.LFE294-.LFB294
 6948 1e2b 01       		.uleb128 0x1
 6949 1e2c 9C       		.byte	0x9c
ARM GAS  /var/folders/m4/4md61f0s1_g0rzfghffqnxvr0000gn/T//ccmevqMd.s 			page 123


 6950 1e2d CD1E0000 		.4byte	0x1ecd
 6951 1e31 43       		.uleb128 0x43
 6952 1e32 7F0E0000 		.4byte	.LASF211
 6953 1e36 01       		.byte	0x1
 6954 1e37 B801     		.2byte	0x1b8
 6955 1e39 C60F0000 		.4byte	0xfc6
 6956 1e3d 9E090000 		.4byte	.LLST67
 6957 1e41 3B       		.uleb128 0x3b
 6958 1e42 98010000 		.4byte	.Ldebug_ranges0+0x198
 6959 1e46 48       		.uleb128 0x48
 6960 1e47 72656700 		.ascii	"reg\000"
 6961 1e4b 01       		.byte	0x1
 6962 1e4c BA01     		.2byte	0x1ba
 6963 1e4e AE000000 		.4byte	0xae
 6964 1e52 D5090000 		.4byte	.LLST68
 6965 1e56 3E       		.uleb128 0x3e
 6966 1e57 0A000000 		.4byte	.LVL124
 6967 1e5b 84150000 		.4byte	0x1584
 6968 1e5f 6F1E0000 		.4byte	0x1e6f
 6969 1e63 38       		.uleb128 0x38
 6970 1e64 01       		.uleb128 0x1
 6971 1e65 51       		.byte	0x51
 6972 1e66 01       		.uleb128 0x1
 6973 1e67 4D       		.byte	0x4d
 6974 1e68 38       		.uleb128 0x38
 6975 1e69 01       		.uleb128 0x1
 6976 1e6a 50       		.byte	0x50
 6977 1e6b 02       		.uleb128 0x2
 6978 1e6c 74       		.byte	0x74
 6979 1e6d 00       		.sleb128 0
 6980 1e6e 00       		.byte	0
 6981 1e6f 3E       		.uleb128 0x3e
 6982 1e70 1E000000 		.4byte	.LVL127
 6983 1e74 EA140000 		.4byte	0x14ea
 6984 1e78 881E0000 		.4byte	0x1e88
 6985 1e7c 38       		.uleb128 0x38
 6986 1e7d 01       		.uleb128 0x1
 6987 1e7e 51       		.byte	0x51
 6988 1e7f 01       		.uleb128 0x1
 6989 1e80 4D       		.byte	0x4d
 6990 1e81 38       		.uleb128 0x38
 6991 1e82 01       		.uleb128 0x1
 6992 1e83 50       		.byte	0x50
 6993 1e84 02       		.uleb128 0x2
 6994 1e85 74       		.byte	0x74
 6995 1e86 00       		.sleb128 0
 6996 1e87 00       		.byte	0
 6997 1e88 3E       		.uleb128 0x3e
 6998 1e89 26000000 		.4byte	.LVL128
 6999 1e8d 84150000 		.4byte	0x1584
 7000 1e91 A11E0000 		.4byte	0x1ea1
 7001 1e95 38       		.uleb128 0x38
 7002 1e96 01       		.uleb128 0x1
 7003 1e97 51       		.byte	0x51
 7004 1e98 01       		.uleb128 0x1
 7005 1e99 4D       		.byte	0x4d
 7006 1e9a 38       		.uleb128 0x38
ARM GAS  /var/folders/m4/4md61f0s1_g0rzfghffqnxvr0000gn/T//ccmevqMd.s 			page 124


 7007 1e9b 01       		.uleb128 0x1
 7008 1e9c 50       		.byte	0x50
 7009 1e9d 02       		.uleb128 0x2
 7010 1e9e 74       		.byte	0x74
 7011 1e9f 00       		.sleb128 0
 7012 1ea0 00       		.byte	0
 7013 1ea1 3E       		.uleb128 0x3e
 7014 1ea2 32000000 		.4byte	.LVL131
 7015 1ea6 AD1D0000 		.4byte	0x1dad
 7016 1eaa B51E0000 		.4byte	0x1eb5
 7017 1eae 38       		.uleb128 0x38
 7018 1eaf 01       		.uleb128 0x1
 7019 1eb0 50       		.byte	0x50
 7020 1eb1 02       		.uleb128 0x2
 7021 1eb2 74       		.byte	0x74
 7022 1eb3 00       		.sleb128 0
 7023 1eb4 00       		.byte	0
 7024 1eb5 49       		.uleb128 0x49
 7025 1eb6 40000000 		.4byte	.LVL133
 7026 1eba EA140000 		.4byte	0x14ea
 7027 1ebe 38       		.uleb128 0x38
 7028 1ebf 01       		.uleb128 0x1
 7029 1ec0 51       		.byte	0x51
 7030 1ec1 01       		.uleb128 0x1
 7031 1ec2 4D       		.byte	0x4d
 7032 1ec3 38       		.uleb128 0x38
 7033 1ec4 01       		.uleb128 0x1
 7034 1ec5 50       		.byte	0x50
 7035 1ec6 03       		.uleb128 0x3
 7036 1ec7 F3       		.byte	0xf3
 7037 1ec8 01       		.uleb128 0x1
 7038 1ec9 50       		.byte	0x50
 7039 1eca 00       		.byte	0
 7040 1ecb 00       		.byte	0
 7041 1ecc 00       		.byte	0
 7042 1ecd 42       		.uleb128 0x42
 7043 1ece 60040000 		.4byte	.LASF287
 7044 1ed2 01       		.byte	0x1
 7045 1ed3 0502     		.2byte	0x205
 7046 1ed5 C40D0000 		.4byte	.LASF288
 7047 1ed9 00000000 		.4byte	.LFB301
 7048 1edd 34000000 		.4byte	.LFE301-.LFB301
 7049 1ee1 01       		.uleb128 0x1
 7050 1ee2 9C       		.byte	0x9c
 7051 1ee3 371F0000 		.4byte	0x1f37
 7052 1ee7 43       		.uleb128 0x43
 7053 1ee8 7F0E0000 		.4byte	.LASF211
 7054 1eec 01       		.byte	0x1
 7055 1eed 0502     		.2byte	0x205
 7056 1eef C60F0000 		.4byte	0xfc6
 7057 1ef3 020A0000 		.4byte	.LLST69
 7058 1ef7 3B       		.uleb128 0x3b
 7059 1ef8 B8010000 		.4byte	.Ldebug_ranges0+0x1b8
 7060 1efc 45       		.uleb128 0x45
 7061 1efd 6F7000   		.ascii	"op\000"
 7062 1f00 01       		.byte	0x1
 7063 1f01 0702     		.2byte	0x207
ARM GAS  /var/folders/m4/4md61f0s1_g0rzfghffqnxvr0000gn/T//ccmevqMd.s 			page 125


 7064 1f03 AE000000 		.4byte	0xae
 7065 1f07 02       		.uleb128 0x2
 7066 1f08 91       		.byte	0x91
 7067 1f09 6F       		.sleb128 -17
 7068 1f0a 3D       		.uleb128 0x3d
 7069 1f0b 18000000 		.4byte	.LVL136
 7070 1f0f 43300000 		.4byte	0x3043
 7071 1f13 3E       		.uleb128 0x3e
 7072 1f14 26000000 		.4byte	.LVL137
 7073 1f18 AB300000 		.4byte	0x30ab
 7074 1f1c 2C1F0000 		.4byte	0x1f2c
 7075 1f20 38       		.uleb128 0x38
 7076 1f21 01       		.uleb128 0x1
 7077 1f22 52       		.byte	0x52
 7078 1f23 02       		.uleb128 0x2
 7079 1f24 75       		.byte	0x75
 7080 1f25 00       		.sleb128 0
 7081 1f26 38       		.uleb128 0x38
 7082 1f27 01       		.uleb128 0x1
 7083 1f28 51       		.byte	0x51
 7084 1f29 01       		.uleb128 0x1
 7085 1f2a 31       		.byte	0x31
 7086 1f2b 00       		.byte	0
 7087 1f2c 3D       		.uleb128 0x3d
 7088 1f2d 30000000 		.4byte	.LVL138
 7089 1f31 99300000 		.4byte	0x3099
 7090 1f35 00       		.byte	0
 7091 1f36 00       		.byte	0
 7092 1f37 42       		.uleb128 0x42
 7093 1f38 6C070000 		.4byte	.LASF289
 7094 1f3c 01       		.byte	0x1
 7095 1f3d 0E02     		.2byte	0x20e
 7096 1f3f 48120000 		.4byte	.LASF290
 7097 1f43 00000000 		.4byte	.LFB302
 7098 1f47 34000000 		.4byte	.LFE302-.LFB302
 7099 1f4b 01       		.uleb128 0x1
 7100 1f4c 9C       		.byte	0x9c
 7101 1f4d A11F0000 		.4byte	0x1fa1
 7102 1f51 43       		.uleb128 0x43
 7103 1f52 7F0E0000 		.4byte	.LASF211
 7104 1f56 01       		.byte	0x1
 7105 1f57 0E02     		.2byte	0x20e
 7106 1f59 C60F0000 		.4byte	0xfc6
 7107 1f5d 200A0000 		.4byte	.LLST70
 7108 1f61 3B       		.uleb128 0x3b
 7109 1f62 D0010000 		.4byte	.Ldebug_ranges0+0x1d0
 7110 1f66 45       		.uleb128 0x45
 7111 1f67 6F7000   		.ascii	"op\000"
 7112 1f6a 01       		.byte	0x1
 7113 1f6b 1002     		.2byte	0x210
 7114 1f6d AE000000 		.4byte	0xae
 7115 1f71 02       		.uleb128 0x2
 7116 1f72 91       		.byte	0x91
 7117 1f73 6F       		.sleb128 -17
 7118 1f74 3D       		.uleb128 0x3d
 7119 1f75 18000000 		.4byte	.LVL141
 7120 1f79 43300000 		.4byte	0x3043
ARM GAS  /var/folders/m4/4md61f0s1_g0rzfghffqnxvr0000gn/T//ccmevqMd.s 			page 126


 7121 1f7d 3E       		.uleb128 0x3e
 7122 1f7e 26000000 		.4byte	.LVL142
 7123 1f82 AB300000 		.4byte	0x30ab
 7124 1f86 961F0000 		.4byte	0x1f96
 7125 1f8a 38       		.uleb128 0x38
 7126 1f8b 01       		.uleb128 0x1
 7127 1f8c 52       		.byte	0x52
 7128 1f8d 02       		.uleb128 0x2
 7129 1f8e 75       		.byte	0x75
 7130 1f8f 00       		.sleb128 0
 7131 1f90 38       		.uleb128 0x38
 7132 1f91 01       		.uleb128 0x1
 7133 1f92 51       		.byte	0x51
 7134 1f93 01       		.uleb128 0x1
 7135 1f94 31       		.byte	0x31
 7136 1f95 00       		.byte	0
 7137 1f96 3D       		.uleb128 0x3d
 7138 1f97 30000000 		.4byte	.LVL143
 7139 1f9b 99300000 		.4byte	0x3099
 7140 1f9f 00       		.byte	0
 7141 1fa0 00       		.byte	0
 7142 1fa1 4F       		.uleb128 0x4f
 7143 1fa2 5A0B0000 		.4byte	.LASF291
 7144 1fa6 01       		.byte	0x1
 7145 1fa7 3A       		.byte	0x3a
 7146 1fa8 AE0E0000 		.4byte	.LASF335
 7147 1fac 00000000 		.4byte	.LFB269
 7148 1fb0 F0000000 		.4byte	.LFE269-.LFB269
 7149 1fb4 01       		.uleb128 0x1
 7150 1fb5 9C       		.byte	0x9c
 7151 1fb6 47220000 		.4byte	0x2247
 7152 1fba 50       		.uleb128 0x50
 7153 1fbb 94100000 		.4byte	0x1094
 7154 1fbf 40000000 		.4byte	.LBB218
 7155 1fc3 E8010000 		.4byte	.Ldebug_ranges0+0x1e8
 7156 1fc7 01       		.byte	0x1
 7157 1fc8 44       		.byte	0x44
 7158 1fc9 28200000 		.4byte	0x2028
 7159 1fcd 33       		.uleb128 0x33
 7160 1fce A1100000 		.4byte	0x10a1
 7161 1fd2 06       		.uleb128 0x6
 7162 1fd3 03       		.byte	0x3
 7163 1fd4 00000000 		.4byte	nrf24l01
 7164 1fd8 9F       		.byte	0x9f
 7165 1fd9 40       		.uleb128 0x40
 7166 1fda 40000000 		.4byte	.LBB220
 7167 1fde 20000000 		.4byte	.LBE220-.LBB220
 7168 1fe2 0A200000 		.4byte	0x200a
 7169 1fe6 41       		.uleb128 0x41
 7170 1fe7 AE100000 		.4byte	0x10ae
 7171 1feb 3E0A0000 		.4byte	.LLST71
 7172 1fef 35       		.uleb128 0x35
 7173 1ff0 760F0000 		.4byte	0xf76
 7174 1ff4 56000000 		.4byte	.LBB221
 7175 1ff8 04000000 		.4byte	.LBE221-.LBB221
 7176 1ffc 01       		.byte	0x1
 7177 1ffd 3D01     		.2byte	0x13d
ARM GAS  /var/folders/m4/4md61f0s1_g0rzfghffqnxvr0000gn/T//ccmevqMd.s 			page 127


 7178 1fff 3A       		.uleb128 0x3a
 7179 2000 820F0000 		.4byte	0xf82
 7180 2004 520A0000 		.4byte	.LLST72
 7181 2008 00       		.byte	0
 7182 2009 00       		.byte	0
 7183 200a 51       		.uleb128 0x51
 7184 200b 760F0000 		.4byte	0xf76
 7185 200f 60000000 		.4byte	.LBB223
 7186 2013 00020000 		.4byte	.Ldebug_ranges0+0x200
 7187 2017 01       		.byte	0x1
 7188 2018 4001     		.2byte	0x140
 7189 201a 33       		.uleb128 0x33
 7190 201b 820F0000 		.4byte	0xf82
 7191 201f 06       		.uleb128 0x6
 7192 2020 03       		.byte	0x3
 7193 2021 20010000 		.4byte	nrf24l01+288
 7194 2025 9F       		.byte	0x9f
 7195 2026 00       		.byte	0
 7196 2027 00       		.byte	0
 7197 2028 50       		.uleb128 0x50
 7198 2029 BA100000 		.4byte	0x10ba
 7199 202d 64000000 		.4byte	.LBB228
 7200 2031 18020000 		.4byte	.Ldebug_ranges0+0x218
 7201 2035 01       		.byte	0x1
 7202 2036 45       		.byte	0x45
 7203 2037 54200000 		.4byte	0x2054
 7204 203b 33       		.uleb128 0x33
 7205 203c D3100000 		.4byte	0x10d3
 7206 2040 06       		.uleb128 0x6
 7207 2041 03       		.byte	0x3
 7208 2042 00000000 		.4byte	_ZL14nrf24l01Config
 7209 2046 9F       		.byte	0x9f
 7210 2047 33       		.uleb128 0x33
 7211 2048 C7100000 		.4byte	0x10c7
 7212 204c 06       		.uleb128 0x6
 7213 204d 03       		.byte	0x3
 7214 204e 00000000 		.4byte	nrf24l01
 7215 2052 9F       		.byte	0x9f
 7216 2053 00       		.byte	0
 7217 2054 52       		.uleb128 0x52
 7218 2055 CC0F0000 		.4byte	0xfcc
 7219 2059 96000000 		.4byte	.LBB233
 7220 205d 0A000000 		.4byte	.LBE233-.LBB233
 7221 2061 01       		.byte	0x1
 7222 2062 4D       		.byte	0x4d
 7223 2063 BD200000 		.4byte	0x20bd
 7224 2067 36       		.uleb128 0x36
 7225 2068 F10F0000 		.4byte	0xff1
 7226 206c 20       		.byte	0x20
 7227 206d 36       		.uleb128 0x36
 7228 206e E50F0000 		.4byte	0xfe5
 7229 2072 00       		.byte	0
 7230 2073 33       		.uleb128 0x33
 7231 2074 D90F0000 		.4byte	0xfd9
 7232 2078 06       		.uleb128 0x6
 7233 2079 03       		.byte	0x3
 7234 207a 00000000 		.4byte	nrf24l01
ARM GAS  /var/folders/m4/4md61f0s1_g0rzfghffqnxvr0000gn/T//ccmevqMd.s 			page 128


 7235 207e 9F       		.byte	0x9f
 7236 207f 4A       		.uleb128 0x4a
 7237 2080 96000000 		.4byte	.LBB234
 7238 2084 0A000000 		.4byte	.LBE234-.LBB234
 7239 2088 36       		.uleb128 0x36
 7240 2089 F10F0000 		.4byte	0xff1
 7241 208d 20       		.byte	0x20
 7242 208e 36       		.uleb128 0x36
 7243 208f E50F0000 		.4byte	0xfe5
 7244 2093 00       		.byte	0
 7245 2094 33       		.uleb128 0x33
 7246 2095 D90F0000 		.4byte	0xfd9
 7247 2099 06       		.uleb128 0x6
 7248 209a 03       		.byte	0x3
 7249 209b 00000000 		.4byte	nrf24l01
 7250 209f 9F       		.byte	0x9f
 7251 20a0 37       		.uleb128 0x37
 7252 20a1 A0000000 		.4byte	.LVL160
 7253 20a5 EA140000 		.4byte	0x14ea
 7254 20a9 38       		.uleb128 0x38
 7255 20aa 01       		.uleb128 0x1
 7256 20ab 52       		.byte	0x52
 7257 20ac 02       		.uleb128 0x2
 7258 20ad 08       		.byte	0x8
 7259 20ae 20       		.byte	0x20
 7260 20af 38       		.uleb128 0x38
 7261 20b0 01       		.uleb128 0x1
 7262 20b1 51       		.byte	0x51
 7263 20b2 01       		.uleb128 0x1
 7264 20b3 41       		.byte	0x41
 7265 20b4 38       		.uleb128 0x38
 7266 20b5 01       		.uleb128 0x1
 7267 20b6 50       		.byte	0x50
 7268 20b7 02       		.uleb128 0x2
 7269 20b8 74       		.byte	0x74
 7270 20b9 00       		.sleb128 0
 7271 20ba 00       		.byte	0
 7272 20bb 00       		.byte	0
 7273 20bc 00       		.byte	0
 7274 20bd 52       		.uleb128 0x52
 7275 20be E0100000 		.4byte	0x10e0
 7276 20c2 AC000000 		.4byte	.LBB236
 7277 20c6 0A000000 		.4byte	.LBE236-.LBB236
 7278 20ca 01       		.byte	0x1
 7279 20cb 51       		.byte	0x51
 7280 20cc FE200000 		.4byte	0x20fe
 7281 20d0 36       		.uleb128 0x36
 7282 20d1 F9100000 		.4byte	0x10f9
 7283 20d5 70       		.byte	0x70
 7284 20d6 33       		.uleb128 0x33
 7285 20d7 ED100000 		.4byte	0x10ed
 7286 20db 06       		.uleb128 0x6
 7287 20dc 03       		.byte	0x3
 7288 20dd 00000000 		.4byte	nrf24l01
 7289 20e1 9F       		.byte	0x9f
 7290 20e2 37       		.uleb128 0x37
 7291 20e3 B6000000 		.4byte	.LVL163
ARM GAS  /var/folders/m4/4md61f0s1_g0rzfghffqnxvr0000gn/T//ccmevqMd.s 			page 129


 7292 20e7 EA140000 		.4byte	0x14ea
 7293 20eb 38       		.uleb128 0x38
 7294 20ec 01       		.uleb128 0x1
 7295 20ed 52       		.byte	0x52
 7296 20ee 02       		.uleb128 0x2
 7297 20ef 08       		.byte	0x8
 7298 20f0 70       		.byte	0x70
 7299 20f1 38       		.uleb128 0x38
 7300 20f2 01       		.uleb128 0x1
 7301 20f3 51       		.byte	0x51
 7302 20f4 01       		.uleb128 0x1
 7303 20f5 37       		.byte	0x37
 7304 20f6 38       		.uleb128 0x38
 7305 20f7 01       		.uleb128 0x1
 7306 20f8 50       		.byte	0x50
 7307 20f9 02       		.uleb128 0x2
 7308 20fa 74       		.byte	0x74
 7309 20fb 00       		.sleb128 0
 7310 20fc 00       		.byte	0
 7311 20fd 00       		.byte	0
 7312 20fe 3E       		.uleb128 0x3e
 7313 20ff 10000000 		.4byte	.LVL144
 7314 2103 C7300000 		.4byte	0x30c7
 7315 2107 1C210000 		.4byte	0x211c
 7316 210b 38       		.uleb128 0x38
 7317 210c 01       		.uleb128 0x1
 7318 210d 52       		.byte	0x52
 7319 210e 01       		.uleb128 0x1
 7320 210f 31       		.byte	0x31
 7321 2110 38       		.uleb128 0x38
 7322 2111 01       		.uleb128 0x1
 7323 2112 51       		.byte	0x51
 7324 2113 01       		.uleb128 0x1
 7325 2114 40       		.byte	0x40
 7326 2115 38       		.uleb128 0x38
 7327 2116 01       		.uleb128 0x1
 7328 2117 50       		.byte	0x50
 7329 2118 02       		.uleb128 0x2
 7330 2119 75       		.byte	0x75
 7331 211a 00       		.sleb128 0
 7332 211b 00       		.byte	0
 7333 211c 3E       		.uleb128 0x3e
 7334 211d 1E000000 		.4byte	.LVL145
 7335 2121 C7300000 		.4byte	0x30c7
 7336 2125 3A210000 		.4byte	0x213a
 7337 2129 38       		.uleb128 0x38
 7338 212a 01       		.uleb128 0x1
 7339 212b 52       		.byte	0x52
 7340 212c 01       		.uleb128 0x1
 7341 212d 31       		.byte	0x31
 7342 212e 38       		.uleb128 0x38
 7343 212f 01       		.uleb128 0x1
 7344 2130 51       		.byte	0x51
 7345 2131 01       		.uleb128 0x1
 7346 2132 32       		.byte	0x32
 7347 2133 38       		.uleb128 0x38
 7348 2134 01       		.uleb128 0x1
ARM GAS  /var/folders/m4/4md61f0s1_g0rzfghffqnxvr0000gn/T//ccmevqMd.s 			page 130


 7349 2135 50       		.byte	0x50
 7350 2136 02       		.uleb128 0x2
 7351 2137 74       		.byte	0x74
 7352 2138 00       		.sleb128 0
 7353 2139 00       		.byte	0
 7354 213a 3E       		.uleb128 0x3e
 7355 213b 2E000000 		.4byte	.LVL146
 7356 213f C7300000 		.4byte	0x30c7
 7357 2143 5D210000 		.4byte	0x215d
 7358 2147 38       		.uleb128 0x38
 7359 2148 01       		.uleb128 0x1
 7360 2149 52       		.byte	0x52
 7361 214a 02       		.uleb128 0x2
 7362 214b 08       		.byte	0x8
 7363 214c 20       		.byte	0x20
 7364 214d 38       		.uleb128 0x38
 7365 214e 01       		.uleb128 0x1
 7366 214f 51       		.byte	0x51
 7367 2150 02       		.uleb128 0x2
 7368 2151 08       		.byte	0x8
 7369 2152 20       		.byte	0x20
 7370 2153 38       		.uleb128 0x38
 7371 2154 01       		.uleb128 0x1
 7372 2155 50       		.byte	0x50
 7373 2156 05       		.uleb128 0x5
 7374 2157 0C       		.byte	0xc
 7375 2158 00080240 		.4byte	0x40020800
 7376 215c 00       		.byte	0
 7377 215d 3E       		.uleb128 0x3e
 7378 215e 36000000 		.4byte	.LVL147
 7379 2162 E3300000 		.4byte	0x30e3
 7380 2166 74210000 		.4byte	0x2174
 7381 216a 38       		.uleb128 0x38
 7382 216b 01       		.uleb128 0x1
 7383 216c 51       		.byte	0x51
 7384 216d 05       		.uleb128 0x5
 7385 216e 03       		.byte	0x3
 7386 216f 00000000 		.4byte	.LANCHOR3
 7387 2173 00       		.byte	0
 7388 2174 3E       		.uleb128 0x3e
 7389 2175 3E000000 		.4byte	.LVL148
 7390 2179 FA300000 		.4byte	0x30fa
 7391 217d 8B210000 		.4byte	0x218b
 7392 2181 38       		.uleb128 0x38
 7393 2182 01       		.uleb128 0x1
 7394 2183 51       		.byte	0x51
 7395 2184 05       		.uleb128 0x5
 7396 2185 03       		.byte	0x3
 7397 2186 00000000 		.4byte	.LANCHOR4
 7398 218a 00       		.byte	0
 7399 218b 3E       		.uleb128 0x3e
 7400 218c 76000000 		.4byte	.LVL155
 7401 2190 10310000 		.4byte	0x3110
 7402 2194 9E210000 		.4byte	0x219e
 7403 2198 38       		.uleb128 0x38
 7404 2199 01       		.uleb128 0x1
 7405 219a 51       		.byte	0x51
ARM GAS  /var/folders/m4/4md61f0s1_g0rzfghffqnxvr0000gn/T//ccmevqMd.s 			page 131


 7406 219b 01       		.uleb128 0x1
 7407 219c 35       		.byte	0x35
 7408 219d 00       		.byte	0
 7409 219e 3E       		.uleb128 0x3e
 7410 219f 7C000000 		.4byte	.LVL156
 7411 21a3 171E0000 		.4byte	0x1e17
 7412 21a7 B2210000 		.4byte	0x21b2
 7413 21ab 38       		.uleb128 0x38
 7414 21ac 01       		.uleb128 0x1
 7415 21ad 50       		.byte	0x50
 7416 21ae 02       		.uleb128 0x2
 7417 21af 74       		.byte	0x74
 7418 21b0 00       		.sleb128 0
 7419 21b1 00       		.byte	0
 7420 21b2 3E       		.uleb128 0x3e
 7421 21b3 84000000 		.4byte	.LVL157
 7422 21b7 911B0000 		.4byte	0x1b91
 7423 21bb CC210000 		.4byte	0x21cc
 7424 21bf 38       		.uleb128 0x38
 7425 21c0 01       		.uleb128 0x1
 7426 21c1 51       		.byte	0x51
 7427 21c2 02       		.uleb128 0x2
 7428 21c3 08       		.byte	0x8
 7429 21c4 3F       		.byte	0x3f
 7430 21c5 38       		.uleb128 0x38
 7431 21c6 01       		.uleb128 0x1
 7432 21c7 50       		.byte	0x50
 7433 21c8 02       		.uleb128 0x2
 7434 21c9 74       		.byte	0x74
 7435 21ca 00       		.sleb128 0
 7436 21cb 00       		.byte	0
 7437 21cc 3E       		.uleb128 0x3e
 7438 21cd 8C000000 		.4byte	.LVL158
 7439 21d1 861A0000 		.4byte	0x1a86
 7440 21d5 E9210000 		.4byte	0x21e9
 7441 21d9 38       		.uleb128 0x38
 7442 21da 01       		.uleb128 0x1
 7443 21db 51       		.byte	0x51
 7444 21dc 05       		.uleb128 0x5
 7445 21dd 03       		.byte	0x3
 7446 21de 00000000 		.4byte	.LANCHOR6
 7447 21e2 38       		.uleb128 0x38
 7448 21e3 01       		.uleb128 0x1
 7449 21e4 50       		.byte	0x50
 7450 21e5 02       		.uleb128 0x2
 7451 21e6 74       		.byte	0x74
 7452 21e7 00       		.sleb128 0
 7453 21e8 00       		.byte	0
 7454 21e9 3E       		.uleb128 0x3e
 7455 21ea 96000000 		.4byte	.LVL159
 7456 21ee 940F0000 		.4byte	0xf94
 7457 21f2 0B220000 		.4byte	0x220b
 7458 21f6 38       		.uleb128 0x38
 7459 21f7 01       		.uleb128 0x1
 7460 21f8 52       		.byte	0x52
 7461 21f9 05       		.uleb128 0x5
 7462 21fa 03       		.byte	0x3
ARM GAS  /var/folders/m4/4md61f0s1_g0rzfghffqnxvr0000gn/T//ccmevqMd.s 			page 132


 7463 21fb 00000000 		.4byte	.LANCHOR6
 7464 21ff 38       		.uleb128 0x38
 7465 2200 01       		.uleb128 0x1
 7466 2201 51       		.byte	0x51
 7467 2202 01       		.uleb128 0x1
 7468 2203 30       		.byte	0x30
 7469 2204 38       		.uleb128 0x38
 7470 2205 01       		.uleb128 0x1
 7471 2206 50       		.byte	0x50
 7472 2207 02       		.uleb128 0x2
 7473 2208 74       		.byte	0x74
 7474 2209 00       		.sleb128 0
 7475 220a 00       		.byte	0
 7476 220b 3E       		.uleb128 0x3e
 7477 220c A6000000 		.4byte	.LVL161
 7478 2210 CD1E0000 		.4byte	0x1ecd
 7479 2214 1F220000 		.4byte	0x221f
 7480 2218 38       		.uleb128 0x38
 7481 2219 01       		.uleb128 0x1
 7482 221a 50       		.byte	0x50
 7483 221b 02       		.uleb128 0x2
 7484 221c 74       		.byte	0x74
 7485 221d 00       		.sleb128 0
 7486 221e 00       		.byte	0
 7487 221f 3E       		.uleb128 0x3e
 7488 2220 AC000000 		.4byte	.LVL162
 7489 2224 371F0000 		.4byte	0x1f37
 7490 2228 33220000 		.4byte	0x2233
 7491 222c 38       		.uleb128 0x38
 7492 222d 01       		.uleb128 0x1
 7493 222e 50       		.byte	0x50
 7494 222f 02       		.uleb128 0x2
 7495 2230 74       		.byte	0x74
 7496 2231 00       		.sleb128 0
 7497 2232 00       		.byte	0
 7498 2233 49       		.uleb128 0x49
 7499 2234 C0000000 		.4byte	.LVL164
 7500 2238 E0170000 		.4byte	0x17e0
 7501 223c 38       		.uleb128 0x38
 7502 223d 01       		.uleb128 0x1
 7503 223e 50       		.byte	0x50
 7504 223f 05       		.uleb128 0x5
 7505 2240 03       		.byte	0x3
 7506 2241 00000000 		.4byte	.LANCHOR0
 7507 2245 00       		.byte	0
 7508 2246 00       		.byte	0
 7509 2247 46       		.uleb128 0x46
 7510 2248 A6110000 		.4byte	.LASF292
 7511 224c 01       		.byte	0x1
 7512 224d 1702     		.2byte	0x217
 7513 224f 1D010000 		.4byte	.LASF293
 7514 2253 AE000000 		.4byte	0xae
 7515 2257 00000000 		.4byte	.LFB303
 7516 225b 46000000 		.4byte	.LFE303-.LFB303
 7517 225f 01       		.uleb128 0x1
 7518 2260 9C       		.byte	0x9c
 7519 2261 CA220000 		.4byte	0x22ca
ARM GAS  /var/folders/m4/4md61f0s1_g0rzfghffqnxvr0000gn/T//ccmevqMd.s 			page 133


 7520 2265 43       		.uleb128 0x43
 7521 2266 7F0E0000 		.4byte	.LASF211
 7522 226a 01       		.byte	0x1
 7523 226b 1702     		.2byte	0x217
 7524 226d C60F0000 		.4byte	0xfc6
 7525 2271 720A0000 		.4byte	.LLST73
 7526 2275 3B       		.uleb128 0x3b
 7527 2276 30020000 		.4byte	.Ldebug_ranges0+0x230
 7528 227a 45       		.uleb128 0x45
 7529 227b 6F7000   		.ascii	"op\000"
 7530 227e 01       		.byte	0x1
 7531 227f 1902     		.2byte	0x219
 7532 2281 74150000 		.4byte	0x1574
 7533 2285 02       		.uleb128 0x2
 7534 2286 91       		.byte	0x91
 7535 2287 70       		.sleb128 -16
 7536 2288 47       		.uleb128 0x47
 7537 2289 89130000 		.4byte	.LASF230
 7538 228d 01       		.byte	0x1
 7539 228e 1A02     		.2byte	0x21a
 7540 2290 74150000 		.4byte	0x1574
 7541 2294 02       		.uleb128 0x2
 7542 2295 91       		.byte	0x91
 7543 2296 74       		.sleb128 -12
 7544 2297 3D       		.uleb128 0x3d
 7545 2298 24000000 		.4byte	.LVL167
 7546 229c 43300000 		.4byte	0x3043
 7547 22a0 3E       		.uleb128 0x3e
 7548 22a1 34000000 		.4byte	.LVL168
 7549 22a5 55300000 		.4byte	0x3055
 7550 22a9 BF220000 		.4byte	0x22bf
 7551 22ad 38       		.uleb128 0x38
 7552 22ae 01       		.uleb128 0x1
 7553 22af 53       		.byte	0x53
 7554 22b0 02       		.uleb128 0x2
 7555 22b1 91       		.byte	0x91
 7556 22b2 74       		.sleb128 -12
 7557 22b3 38       		.uleb128 0x38
 7558 22b4 01       		.uleb128 0x1
 7559 22b5 52       		.byte	0x52
 7560 22b6 02       		.uleb128 0x2
 7561 22b7 7D       		.byte	0x7d
 7562 22b8 00       		.sleb128 0
 7563 22b9 38       		.uleb128 0x38
 7564 22ba 01       		.uleb128 0x1
 7565 22bb 51       		.byte	0x51
 7566 22bc 01       		.uleb128 0x1
 7567 22bd 32       		.byte	0x32
 7568 22be 00       		.byte	0
 7569 22bf 3D       		.uleb128 0x3d
 7570 22c0 3E000000 		.4byte	.LVL169
 7571 22c4 99300000 		.4byte	0x3099
 7572 22c8 00       		.byte	0
 7573 22c9 00       		.byte	0
 7574 22ca 42       		.uleb128 0x42
 7575 22cb 3A0B0000 		.4byte	.LASF294
 7576 22cf 01       		.byte	0x1
ARM GAS  /var/folders/m4/4md61f0s1_g0rzfghffqnxvr0000gn/T//ccmevqMd.s 			page 134


 7577 22d0 2302     		.2byte	0x223
 7578 22d2 11130000 		.4byte	.LASF295
 7579 22d6 00000000 		.4byte	.LFB304
 7580 22da 3A000000 		.4byte	.LFE304-.LFB304
 7581 22de 01       		.uleb128 0x1
 7582 22df 9C       		.byte	0x9c
 7583 22e0 39230000 		.4byte	0x2339
 7584 22e4 43       		.uleb128 0x43
 7585 22e5 7F0E0000 		.4byte	.LASF211
 7586 22e9 01       		.byte	0x1
 7587 22ea 2302     		.2byte	0x223
 7588 22ec C60F0000 		.4byte	0xfc6
 7589 22f0 900A0000 		.4byte	.LLST74
 7590 22f4 3B       		.uleb128 0x3b
 7591 22f5 48020000 		.4byte	.Ldebug_ranges0+0x248
 7592 22f9 48       		.uleb128 0x48
 7593 22fa 72656700 		.ascii	"reg\000"
 7594 22fe 01       		.byte	0x1
 7595 22ff 2702     		.2byte	0x227
 7596 2301 AE000000 		.4byte	0xae
 7597 2305 AE0A0000 		.4byte	.LLST75
 7598 2309 3E       		.uleb128 0x3e
 7599 230a 1C000000 		.4byte	.LVL171
 7600 230e 84150000 		.4byte	0x1584
 7601 2312 22230000 		.4byte	0x2322
 7602 2316 38       		.uleb128 0x38
 7603 2317 01       		.uleb128 0x1
 7604 2318 51       		.byte	0x51
 7605 2319 01       		.uleb128 0x1
 7606 231a 30       		.byte	0x30
 7607 231b 38       		.uleb128 0x38
 7608 231c 01       		.uleb128 0x1
 7609 231d 50       		.byte	0x50
 7610 231e 02       		.uleb128 0x2
 7611 231f 75       		.byte	0x75
 7612 2320 00       		.sleb128 0
 7613 2321 00       		.byte	0
 7614 2322 37       		.uleb128 0x37
 7615 2323 2A000000 		.4byte	.LVL173
 7616 2327 EA140000 		.4byte	0x14ea
 7617 232b 38       		.uleb128 0x38
 7618 232c 01       		.uleb128 0x1
 7619 232d 51       		.byte	0x51
 7620 232e 01       		.uleb128 0x1
 7621 232f 30       		.byte	0x30
 7622 2330 38       		.uleb128 0x38
 7623 2331 01       		.uleb128 0x1
 7624 2332 50       		.byte	0x50
 7625 2333 02       		.uleb128 0x2
 7626 2334 75       		.byte	0x75
 7627 2335 00       		.sleb128 0
 7628 2336 00       		.byte	0
 7629 2337 00       		.byte	0
 7630 2338 00       		.byte	0
 7631 2339 53       		.uleb128 0x53
 7632 233a 16020000 		.4byte	.LASF209
 7633 233e 01       		.byte	0x1
ARM GAS  /var/folders/m4/4md61f0s1_g0rzfghffqnxvr0000gn/T//ccmevqMd.s 			page 135


 7634 233f 92       		.byte	0x92
 7635 2340 2C000000 		.4byte	0x2c
 7636 2344 00000000 		.4byte	.LFB271
 7637 2348 2E020000 		.4byte	.LFE271-.LFB271
 7638 234c 01       		.uleb128 0x1
 7639 234d 9C       		.byte	0x9c
 7640 234e 0C280000 		.4byte	0x280c
 7641 2352 31       		.uleb128 0x31
 7642 2353 0E010000 		.4byte	.LASF239
 7643 2357 01       		.byte	0x1
 7644 2358 92       		.byte	0x92
 7645 2359 A8030000 		.4byte	0x3a8
 7646 235d C50A0000 		.4byte	.LLST76
 7647 2361 54       		.uleb128 0x54
 7648 2362 627000   		.ascii	"bp\000"
 7649 2365 01       		.byte	0x1
 7650 2366 92       		.byte	0x92
 7651 2367 0B090000 		.4byte	0x90b
 7652 236b FC0A0000 		.4byte	.LLST77
 7653 236f 54       		.uleb128 0x54
 7654 2370 6E00     		.ascii	"n\000"
 7655 2372 01       		.byte	0x1
 7656 2373 92       		.byte	0x92
 7657 2374 2C000000 		.4byte	0x2c
 7658 2378 1A0B0000 		.4byte	.LLST78
 7659 237c 31       		.uleb128 0x31
 7660 237d 290F0000 		.4byte	.LASF240
 7661 2381 01       		.byte	0x1
 7662 2382 92       		.byte	0x92
 7663 2383 48010000 		.4byte	0x148
 7664 2387 380B0000 		.4byte	.LLST79
 7665 238b 3B       		.uleb128 0x3b
 7666 238c 60020000 		.4byte	.Ldebug_ranges0+0x260
 7667 2390 55       		.uleb128 0x55
 7668 2391 C70E0000 		.4byte	.LASF296
 7669 2395 01       		.byte	0x1
 7670 2396 94       		.byte	0x94
 7671 2397 8D080000 		.4byte	0x88d
 7672 239b 02       		.uleb128 0x2
 7673 239c 91       		.byte	0x91
 7674 239d 44       		.sleb128 -60
 7675 239e 55       		.uleb128 0x55
 7676 239f 7F0E0000 		.4byte	.LASF211
 7677 23a3 01       		.byte	0x1
 7678 23a4 95       		.byte	0x95
 7679 23a5 C60F0000 		.4byte	0xfc6
 7680 23a9 01       		.uleb128 0x1
 7681 23aa 59       		.byte	0x59
 7682 23ab 56       		.uleb128 0x56
 7683 23ac 63687000 		.ascii	"chp\000"
 7684 23b0 01       		.byte	0x1
 7685 23b1 96       		.byte	0x96
 7686 23b2 D9110000 		.4byte	0x11d9
 7687 23b6 890B0000 		.4byte	.LLST80
 7688 23ba 57       		.uleb128 0x57
 7689 23bb 52110000 		.4byte	.LASF297
 7690 23bf 01       		.byte	0x1
ARM GAS  /var/folders/m4/4md61f0s1_g0rzfghffqnxvr0000gn/T//ccmevqMd.s 			page 136


 7691 23c0 A4       		.byte	0xa4
 7692 23c1 B9000000 		.4byte	0xb9
 7693 23c5 A80B0000 		.4byte	.LLST81
 7694 23c9 40       		.uleb128 0x40
 7695 23ca 12000000 		.4byte	.LBB243
 7696 23ce 0C000000 		.4byte	.LBE243-.LBB243
 7697 23d2 E4230000 		.4byte	0x23e4
 7698 23d6 56       		.uleb128 0x56
 7699 23d7 6900     		.ascii	"i\000"
 7700 23d9 01       		.byte	0x1
 7701 23da 98       		.byte	0x98
 7702 23db 25000000 		.4byte	0x25
 7703 23df DD0B0000 		.4byte	.LLST82
 7704 23e3 00       		.byte	0
 7705 23e4 52       		.uleb128 0x52
 7706 23e5 06110000 		.4byte	0x1106
 7707 23e9 2C000000 		.4byte	.LBB244
 7708 23ed 12000000 		.4byte	.LBE244-.LBB244
 7709 23f1 01       		.byte	0x1
 7710 23f2 A6       		.byte	0xa6
 7711 23f3 33240000 		.4byte	0x2433
 7712 23f7 36       		.uleb128 0x36
 7713 23f8 28110000 		.4byte	0x1128
 7714 23fc 01       		.byte	0x1
 7715 23fd 3A       		.uleb128 0x3a
 7716 23fe 1D110000 		.4byte	0x111d
 7717 2402 F10B0000 		.4byte	.LLST83
 7718 2406 33       		.uleb128 0x33
 7719 2407 12110000 		.4byte	0x1112
 7720 240b 03       		.uleb128 0x3
 7721 240c 91       		.byte	0x91
 7722 240d BC7F     		.sleb128 -68
 7723 240f 37       		.uleb128 0x37
 7724 2410 3E000000 		.4byte	.LVL184
 7725 2414 26310000 		.4byte	0x3126
 7726 2418 38       		.uleb128 0x38
 7727 2419 01       		.uleb128 0x1
 7728 241a 53       		.byte	0x53
 7729 241b 02       		.uleb128 0x2
 7730 241c 09       		.byte	0x9
 7731 241d FF       		.byte	0xff
 7732 241e 38       		.uleb128 0x38
 7733 241f 01       		.uleb128 0x1
 7734 2420 52       		.byte	0x52
 7735 2421 01       		.uleb128 0x1
 7736 2422 31       		.byte	0x31
 7737 2423 38       		.uleb128 0x38
 7738 2424 01       		.uleb128 0x1
 7739 2425 51       		.byte	0x51
 7740 2426 02       		.uleb128 0x2
 7741 2427 91       		.byte	0x91
 7742 2428 44       		.sleb128 -60
 7743 2429 38       		.uleb128 0x38
 7744 242a 01       		.uleb128 0x1
 7745 242b 50       		.byte	0x50
 7746 242c 04       		.uleb128 0x4
 7747 242d 91       		.byte	0x91
ARM GAS  /var/folders/m4/4md61f0s1_g0rzfghffqnxvr0000gn/T//ccmevqMd.s 			page 137


 7748 242e BC7F     		.sleb128 -68
 7749 2430 06       		.byte	0x6
 7750 2431 00       		.byte	0
 7751 2432 00       		.byte	0
 7752 2433 4B       		.uleb128 0x4b
 7753 2434 98020000 		.4byte	.Ldebug_ranges0+0x298
 7754 2438 A8270000 		.4byte	0x27a8
 7755 243c 57       		.uleb128 0x57
 7756 243d CA0F0000 		.4byte	.LASF298
 7757 2441 01       		.byte	0x1
 7758 2442 B5       		.byte	0xb5
 7759 2443 AE000000 		.4byte	0xae
 7760 2447 4E0C0000 		.4byte	.LLST84
 7761 244b 4B       		.uleb128 0x4b
 7762 244c D0020000 		.4byte	.Ldebug_ranges0+0x2d0
 7763 2450 7B240000 		.4byte	0x247b
 7764 2454 56       		.uleb128 0x56
 7765 2455 6C656E00 		.ascii	"len\000"
 7766 2459 01       		.byte	0x1
 7767 245a AE       		.byte	0xae
 7768 245b AE000000 		.4byte	0xae
 7769 245f 610C0000 		.4byte	.LLST85
 7770 2463 4A       		.uleb128 0x4a
 7771 2464 5E000000 		.4byte	.LBB249
 7772 2468 20000000 		.4byte	.LBE249-.LBB249
 7773 246c 56       		.uleb128 0x56
 7774 246d 6900     		.ascii	"i\000"
 7775 246f 01       		.byte	0x1
 7776 2470 AF       		.byte	0xaf
 7777 2471 AE000000 		.4byte	0xae
 7778 2475 740C0000 		.4byte	.LLST86
 7779 2479 00       		.byte	0
 7780 247a 00       		.byte	0
 7781 247b 52       		.uleb128 0x52
 7782 247c 34110000 		.4byte	0x1134
 7783 2480 B8000000 		.4byte	.LBB252
 7784 2484 08000000 		.4byte	.LBE252-.LBB252
 7785 2488 01       		.byte	0x1
 7786 2489 B5       		.byte	0xb5
 7787 248a AD240000 		.4byte	0x24ad
 7788 248e 3A       		.uleb128 0x3a
 7789 248f 45110000 		.4byte	0x1145
 7790 2493 930C0000 		.4byte	.LLST87
 7791 2497 37       		.uleb128 0x37
 7792 2498 C0000000 		.4byte	.LVL198
 7793 249c 84150000 		.4byte	0x1584
 7794 24a0 38       		.uleb128 0x38
 7795 24a1 01       		.uleb128 0x1
 7796 24a2 51       		.byte	0x51
 7797 24a3 01       		.uleb128 0x1
 7798 24a4 47       		.byte	0x47
 7799 24a5 38       		.uleb128 0x38
 7800 24a6 01       		.uleb128 0x1
 7801 24a7 50       		.byte	0x50
 7802 24a8 02       		.uleb128 0x2
 7803 24a9 79       		.byte	0x79
 7804 24aa 00       		.sleb128 0
ARM GAS  /var/folders/m4/4md61f0s1_g0rzfghffqnxvr0000gn/T//ccmevqMd.s 			page 138


 7805 24ab 00       		.byte	0
 7806 24ac 00       		.byte	0
 7807 24ad 4B       		.uleb128 0x4b
 7808 24ae E8020000 		.4byte	.Ldebug_ranges0+0x2e8
 7809 24b2 03270000 		.4byte	0x2703
 7810 24b6 55       		.uleb128 0x55
 7811 24b7 AB090000 		.4byte	.LASF224
 7812 24bb 01       		.byte	0x1
 7813 24bc B9       		.byte	0xb9
 7814 24bd AE000000 		.4byte	0xae
 7815 24c1 02       		.uleb128 0x2
 7816 24c2 91       		.byte	0x91
 7817 24c3 43       		.sleb128 -61
 7818 24c4 57       		.uleb128 0x57
 7819 24c5 85020000 		.4byte	.LASF299
 7820 24c9 01       		.byte	0x1
 7821 24ca BA       		.byte	0xba
 7822 24cb AE000000 		.4byte	0xae
 7823 24cf B10C0000 		.4byte	.LLST88
 7824 24d3 57       		.uleb128 0x57
 7825 24d4 76080000 		.4byte	.LASF300
 7826 24d8 01       		.byte	0x1
 7827 24d9 BB       		.byte	0xbb
 7828 24da D9110000 		.4byte	0x11d9
 7829 24de 060D0000 		.4byte	.LLST89
 7830 24e2 40       		.uleb128 0x40
 7831 24e3 FC000000 		.4byte	.LBB260
 7832 24e7 24000000 		.4byte	.LBE260-.LBB260
 7833 24eb FD240000 		.4byte	0x24fd
 7834 24ef 56       		.uleb128 0x56
 7835 24f0 6900     		.ascii	"i\000"
 7836 24f2 01       		.byte	0x1
 7837 24f3 C9       		.byte	0xc9
 7838 24f4 AE000000 		.4byte	0xae
 7839 24f8 5A0D0000 		.4byte	.LLST90
 7840 24fc 00       		.byte	0
 7841 24fd 50       		.uleb128 0x50
 7842 24fe FE0F0000 		.4byte	0xffe
 7843 2502 20010000 		.4byte	.LBB261
 7844 2506 10030000 		.4byte	.Ldebug_ranges0+0x310
 7845 250a 01       		.byte	0x1
 7846 250b CC       		.byte	0xcc
 7847 250c 74250000 		.4byte	0x2574
 7848 2510 3A       		.uleb128 0x3a
 7849 2511 2F100000 		.4byte	0x102f
 7850 2515 830D0000 		.4byte	.LLST91
 7851 2519 4C       		.uleb128 0x4c
 7852 251a 23100000 		.4byte	0x1023
 7853 251e 3A       		.uleb128 0x3a
 7854 251f 17100000 		.4byte	0x1017
 7855 2523 BD0D0000 		.4byte	.LLST92
 7856 2527 4C       		.uleb128 0x4c
 7857 2528 0B100000 		.4byte	0x100b
 7858 252c 40       		.uleb128 0x40
 7859 252d 20010000 		.4byte	.LBB263
 7860 2531 06000000 		.4byte	.LBE263-.LBB263
 7861 2535 44250000 		.4byte	0x2544
ARM GAS  /var/folders/m4/4md61f0s1_g0rzfghffqnxvr0000gn/T//ccmevqMd.s 			page 139


 7862 2539 4E       		.uleb128 0x4e
 7863 253a 3C100000 		.4byte	0x103c
 7864 253e 4E       		.uleb128 0x4e
 7865 253f 47100000 		.4byte	0x1047
 7866 2543 00       		.byte	0
 7867 2544 37       		.uleb128 0x37
 7868 2545 E4010000 		.4byte	.LVL232
 7869 2549 3F130000 		.4byte	0x133f
 7870 254d 38       		.uleb128 0x38
 7871 254e 01       		.uleb128 0x1
 7872 254f 53       		.byte	0x53
 7873 2550 02       		.uleb128 0x2
 7874 2551 91       		.byte	0x91
 7875 2552 43       		.sleb128 -61
 7876 2553 38       		.uleb128 0x38
 7877 2554 01       		.uleb128 0x1
 7878 2555 52       		.byte	0x52
 7879 2556 0F       		.uleb128 0xf
 7880 2557 7B       		.byte	0x7b
 7881 2558 00       		.sleb128 0
 7882 2559 76       		.byte	0x76
 7883 255a 00       		.sleb128 0
 7884 255b 22       		.byte	0x22
 7885 255c 34       		.byte	0x34
 7886 255d 24       		.byte	0x24
 7887 255e 79       		.byte	0x79
 7888 255f 00       		.sleb128 0
 7889 2560 22       		.byte	0x22
 7890 2561 78       		.byte	0x78
 7891 2562 00       		.sleb128 0
 7892 2563 1C       		.byte	0x1c
 7893 2564 23       		.byte	0x23
 7894 2565 28       		.uleb128 0x28
 7895 2566 38       		.uleb128 0x38
 7896 2567 01       		.uleb128 0x1
 7897 2568 51       		.byte	0x51
 7898 2569 02       		.uleb128 0x2
 7899 256a 78       		.byte	0x78
 7900 256b 00       		.sleb128 0
 7901 256c 38       		.uleb128 0x38
 7902 256d 01       		.uleb128 0x1
 7903 256e 50       		.byte	0x50
 7904 256f 02       		.uleb128 0x2
 7905 2570 79       		.byte	0x79
 7906 2571 00       		.sleb128 0
 7907 2572 00       		.byte	0
 7908 2573 00       		.byte	0
 7909 2574 50       		.uleb128 0x50
 7910 2575 FE0F0000 		.4byte	0xffe
 7911 2579 70010000 		.4byte	.LBB266
 7912 257d 28030000 		.4byte	.Ldebug_ranges0+0x328
 7913 2581 01       		.byte	0x1
 7914 2582 C3       		.byte	0xc3
 7915 2583 EB250000 		.4byte	0x25eb
 7916 2587 3A       		.uleb128 0x3a
 7917 2588 2F100000 		.4byte	0x102f
 7918 258c DB0D0000 		.4byte	.LLST93
ARM GAS  /var/folders/m4/4md61f0s1_g0rzfghffqnxvr0000gn/T//ccmevqMd.s 			page 140


 7919 2590 4C       		.uleb128 0x4c
 7920 2591 23100000 		.4byte	0x1023
 7921 2595 3A       		.uleb128 0x3a
 7922 2596 17100000 		.4byte	0x1017
 7923 259a 080E0000 		.4byte	.LLST94
 7924 259e 4C       		.uleb128 0x4c
 7925 259f 0B100000 		.4byte	0x100b
 7926 25a3 40       		.uleb128 0x40
 7927 25a4 70010000 		.4byte	.LBB268
 7928 25a8 06000000 		.4byte	.LBE268-.LBB268
 7929 25ac BB250000 		.4byte	0x25bb
 7930 25b0 4E       		.uleb128 0x4e
 7931 25b1 3C100000 		.4byte	0x103c
 7932 25b5 4E       		.uleb128 0x4e
 7933 25b6 47100000 		.4byte	0x1047
 7934 25ba 00       		.byte	0
 7935 25bb 37       		.uleb128 0x37
 7936 25bc 9C010000 		.4byte	.LVL220
 7937 25c0 3F130000 		.4byte	0x133f
 7938 25c4 38       		.uleb128 0x38
 7939 25c5 01       		.uleb128 0x1
 7940 25c6 53       		.byte	0x53
 7941 25c7 02       		.uleb128 0x2
 7942 25c8 91       		.byte	0x91
 7943 25c9 43       		.sleb128 -61
 7944 25ca 38       		.uleb128 0x38
 7945 25cb 01       		.uleb128 0x1
 7946 25cc 52       		.byte	0x52
 7947 25cd 0F       		.uleb128 0xf
 7948 25ce 7B       		.byte	0x7b
 7949 25cf 00       		.sleb128 0
 7950 25d0 76       		.byte	0x76
 7951 25d1 00       		.sleb128 0
 7952 25d2 22       		.byte	0x22
 7953 25d3 34       		.byte	0x34
 7954 25d4 24       		.byte	0x24
 7955 25d5 79       		.byte	0x79
 7956 25d6 00       		.sleb128 0
 7957 25d7 22       		.byte	0x22
 7958 25d8 78       		.byte	0x78
 7959 25d9 00       		.sleb128 0
 7960 25da 1C       		.byte	0x1c
 7961 25db 23       		.byte	0x23
 7962 25dc 28       		.uleb128 0x28
 7963 25dd 38       		.uleb128 0x38
 7964 25de 01       		.uleb128 0x1
 7965 25df 51       		.byte	0x51
 7966 25e0 02       		.uleb128 0x2
 7967 25e1 78       		.byte	0x78
 7968 25e2 00       		.sleb128 0
 7969 25e3 38       		.uleb128 0x38
 7970 25e4 01       		.uleb128 0x1
 7971 25e5 50       		.byte	0x50
 7972 25e6 02       		.uleb128 0x2
 7973 25e7 79       		.byte	0x79
 7974 25e8 00       		.sleb128 0
 7975 25e9 00       		.byte	0
ARM GAS  /var/folders/m4/4md61f0s1_g0rzfghffqnxvr0000gn/T//ccmevqMd.s 			page 141


 7976 25ea 00       		.byte	0
 7977 25eb 50       		.uleb128 0x50
 7978 25ec FE0F0000 		.4byte	0xffe
 7979 25f0 A4010000 		.4byte	.LBB275
 7980 25f4 40030000 		.4byte	.Ldebug_ranges0+0x340
 7981 25f8 01       		.byte	0x1
 7982 25f9 D5       		.byte	0xd5
 7983 25fa 58260000 		.4byte	0x2658
 7984 25fe 3A       		.uleb128 0x3a
 7985 25ff 2F100000 		.4byte	0x102f
 7986 2603 1B0E0000 		.4byte	.LLST95
 7987 2607 4C       		.uleb128 0x4c
 7988 2608 23100000 		.4byte	0x1023
 7989 260c 3A       		.uleb128 0x3a
 7990 260d 17100000 		.4byte	0x1017
 7991 2611 550E0000 		.4byte	.LLST96
 7992 2615 4C       		.uleb128 0x4c
 7993 2616 0B100000 		.4byte	0x100b
 7994 261a 40       		.uleb128 0x40
 7995 261b A4010000 		.4byte	.LBB277
 7996 261f 04000000 		.4byte	.LBE277-.LBB277
 7997 2623 32260000 		.4byte	0x2632
 7998 2627 4E       		.uleb128 0x4e
 7999 2628 3C100000 		.4byte	0x103c
 8000 262c 4E       		.uleb128 0x4e
 8001 262d 47100000 		.4byte	0x1047
 8002 2631 00       		.byte	0
 8003 2632 37       		.uleb128 0x37
 8004 2633 2C020000 		.4byte	.LVL244
 8005 2637 3F130000 		.4byte	0x133f
 8006 263b 38       		.uleb128 0x38
 8007 263c 01       		.uleb128 0x1
 8008 263d 53       		.byte	0x53
 8009 263e 02       		.uleb128 0x2
 8010 263f 91       		.byte	0x91
 8011 2640 43       		.sleb128 -61
 8012 2641 38       		.uleb128 0x38
 8013 2642 01       		.uleb128 0x1
 8014 2643 52       		.byte	0x52
 8015 2644 05       		.uleb128 0x5
 8016 2645 7A       		.byte	0x7a
 8017 2646 00       		.sleb128 0
 8018 2647 75       		.byte	0x75
 8019 2648 00       		.sleb128 0
 8020 2649 22       		.byte	0x22
 8021 264a 38       		.uleb128 0x38
 8022 264b 01       		.uleb128 0x1
 8023 264c 51       		.byte	0x51
 8024 264d 02       		.uleb128 0x2
 8025 264e 78       		.byte	0x78
 8026 264f 00       		.sleb128 0
 8027 2650 38       		.uleb128 0x38
 8028 2651 01       		.uleb128 0x1
 8029 2652 50       		.byte	0x50
 8030 2653 02       		.uleb128 0x2
 8031 2654 79       		.byte	0x79
 8032 2655 00       		.sleb128 0
ARM GAS  /var/folders/m4/4md61f0s1_g0rzfghffqnxvr0000gn/T//ccmevqMd.s 			page 142


 8033 2656 00       		.byte	0
 8034 2657 00       		.byte	0
 8035 2658 50       		.uleb128 0x50
 8036 2659 FE0F0000 		.4byte	0xffe
 8037 265d BA010000 		.4byte	.LBB279
 8038 2661 58030000 		.4byte	.Ldebug_ranges0+0x358
 8039 2665 01       		.byte	0x1
 8040 2666 DA       		.byte	0xda
 8041 2667 CF260000 		.4byte	0x26cf
 8042 266b 3A       		.uleb128 0x3a
 8043 266c 2F100000 		.4byte	0x102f
 8044 2670 730E0000 		.4byte	.LLST97
 8045 2674 4C       		.uleb128 0x4c
 8046 2675 23100000 		.4byte	0x1023
 8047 2679 3A       		.uleb128 0x3a
 8048 267a 17100000 		.4byte	0x1017
 8049 267e AD0E0000 		.4byte	.LLST98
 8050 2682 4C       		.uleb128 0x4c
 8051 2683 0B100000 		.4byte	0x100b
 8052 2687 40       		.uleb128 0x40
 8053 2688 BA010000 		.4byte	.LBB281
 8054 268c 04000000 		.4byte	.LBE281-.LBB281
 8055 2690 9F260000 		.4byte	0x269f
 8056 2694 4E       		.uleb128 0x4e
 8057 2695 3C100000 		.4byte	0x103c
 8058 2699 4E       		.uleb128 0x4e
 8059 269a 47100000 		.4byte	0x1047
 8060 269e 00       		.byte	0
 8061 269f 37       		.uleb128 0x37
 8062 26a0 1A020000 		.4byte	.LVL240
 8063 26a4 3F130000 		.4byte	0x133f
 8064 26a8 38       		.uleb128 0x38
 8065 26a9 01       		.uleb128 0x1
 8066 26aa 53       		.byte	0x53
 8067 26ab 02       		.uleb128 0x2
 8068 26ac 91       		.byte	0x91
 8069 26ad 43       		.sleb128 -61
 8070 26ae 38       		.uleb128 0x38
 8071 26af 01       		.uleb128 0x1
 8072 26b0 52       		.byte	0x52
 8073 26b1 0F       		.uleb128 0xf
 8074 26b2 7B       		.byte	0x7b
 8075 26b3 00       		.sleb128 0
 8076 26b4 76       		.byte	0x76
 8077 26b5 00       		.sleb128 0
 8078 26b6 22       		.byte	0x22
 8079 26b7 34       		.byte	0x34
 8080 26b8 24       		.byte	0x24
 8081 26b9 79       		.byte	0x79
 8082 26ba 00       		.sleb128 0
 8083 26bb 22       		.byte	0x22
 8084 26bc 78       		.byte	0x78
 8085 26bd 00       		.sleb128 0
 8086 26be 1C       		.byte	0x1c
 8087 26bf 23       		.byte	0x23
 8088 26c0 28       		.uleb128 0x28
 8089 26c1 38       		.uleb128 0x38
ARM GAS  /var/folders/m4/4md61f0s1_g0rzfghffqnxvr0000gn/T//ccmevqMd.s 			page 143


 8090 26c2 01       		.uleb128 0x1
 8091 26c3 51       		.byte	0x51
 8092 26c4 02       		.uleb128 0x2
 8093 26c5 78       		.byte	0x78
 8094 26c6 00       		.sleb128 0
 8095 26c7 38       		.uleb128 0x38
 8096 26c8 01       		.uleb128 0x1
 8097 26c9 50       		.byte	0x50
 8098 26ca 02       		.uleb128 0x2
 8099 26cb 79       		.byte	0x79
 8100 26cc 00       		.sleb128 0
 8101 26cd 00       		.byte	0
 8102 26ce 00       		.byte	0
 8103 26cf 3E       		.uleb128 0x3e
 8104 26d0 D2000000 		.4byte	.LVL199
 8105 26d4 47220000 		.4byte	0x2247
 8106 26d8 E3260000 		.4byte	0x26e3
 8107 26dc 38       		.uleb128 0x38
 8108 26dd 01       		.uleb128 0x1
 8109 26de 50       		.byte	0x50
 8110 26df 02       		.uleb128 0x2
 8111 26e0 79       		.byte	0x79
 8112 26e1 00       		.sleb128 0
 8113 26e2 00       		.byte	0
 8114 26e3 37       		.uleb128 0x37
 8115 26e4 48010000 		.4byte	.LVL209
 8116 26e8 46310000 		.4byte	0x3146
 8117 26ec 38       		.uleb128 0x38
 8118 26ed 01       		.uleb128 0x1
 8119 26ee 51       		.byte	0x51
 8120 26ef 01       		.uleb128 0x1
 8121 26f0 34       		.byte	0x34
 8122 26f1 38       		.uleb128 0x38
 8123 26f2 01       		.uleb128 0x1
 8124 26f3 50       		.byte	0x50
 8125 26f4 0C       		.uleb128 0xc
 8126 26f5 7B       		.byte	0x7b
 8127 26f6 00       		.sleb128 0
 8128 26f7 76       		.byte	0x76
 8129 26f8 00       		.sleb128 0
 8130 26f9 22       		.byte	0x22
 8131 26fa 34       		.byte	0x34
 8132 26fb 24       		.byte	0x24
 8133 26fc 79       		.byte	0x79
 8134 26fd 00       		.sleb128 0
 8135 26fe 22       		.byte	0x22
 8136 26ff 23       		.byte	0x23
 8137 2700 2C       		.uleb128 0x2c
 8138 2701 00       		.byte	0
 8139 2702 00       		.byte	0
 8140 2703 52       		.uleb128 0x52
 8141 2704 E0100000 		.4byte	0x10e0
 8142 2708 64010000 		.4byte	.LBB293
 8143 270c 0C000000 		.4byte	.LBE293-.LBB293
 8144 2710 01       		.byte	0x1
 8145 2711 EB       		.byte	0xeb
 8146 2712 44270000 		.4byte	0x2744
ARM GAS  /var/folders/m4/4md61f0s1_g0rzfghffqnxvr0000gn/T//ccmevqMd.s 			page 144


 8147 2716 3A       		.uleb128 0x3a
 8148 2717 F9100000 		.4byte	0x10f9
 8149 271b CB0E0000 		.4byte	.LLST99
 8150 271f 3A       		.uleb128 0x3a
 8151 2720 ED100000 		.4byte	0x10ed
 8152 2724 E00E0000 		.4byte	.LLST100
 8153 2728 37       		.uleb128 0x37
 8154 2729 6E010000 		.4byte	.LVL214
 8155 272d EA140000 		.4byte	0x14ea
 8156 2731 38       		.uleb128 0x38
 8157 2732 01       		.uleb128 0x1
 8158 2733 52       		.byte	0x52
 8159 2734 02       		.uleb128 0x2
 8160 2735 08       		.byte	0x8
 8161 2736 40       		.byte	0x40
 8162 2737 38       		.uleb128 0x38
 8163 2738 01       		.uleb128 0x1
 8164 2739 51       		.byte	0x51
 8165 273a 01       		.uleb128 0x1
 8166 273b 37       		.byte	0x37
 8167 273c 38       		.uleb128 0x38
 8168 273d 01       		.uleb128 0x1
 8169 273e 50       		.byte	0x50
 8170 273f 02       		.uleb128 0x2
 8171 2740 79       		.byte	0x79
 8172 2741 00       		.sleb128 0
 8173 2742 00       		.byte	0
 8174 2743 00       		.byte	0
 8175 2744 50       		.uleb128 0x50
 8176 2745 52110000 		.4byte	0x1152
 8177 2749 EE010000 		.4byte	.LBB297
 8178 274d 70030000 		.4byte	.Ldebug_ranges0+0x370
 8179 2751 01       		.byte	0x1
 8180 2752 E4       		.byte	0xe4
 8181 2753 61270000 		.4byte	0x2761
 8182 2757 3A       		.uleb128 0x3a
 8183 2758 5F110000 		.4byte	0x115f
 8184 275c F30E0000 		.4byte	.LLST101
 8185 2760 00       		.byte	0
 8186 2761 3E       		.uleb128 0x3e
 8187 2762 56010000 		.4byte	.LVL210
 8188 2766 5C310000 		.4byte	0x315c
 8189 276a 7B270000 		.4byte	0x277b
 8190 276e 38       		.uleb128 0x38
 8191 276f 01       		.uleb128 0x1
 8192 2770 51       		.byte	0x51
 8193 2771 03       		.uleb128 0x3
 8194 2772 7D       		.byte	0x7d
 8195 2773 00       		.sleb128 0
 8196 2774 06       		.byte	0x6
 8197 2775 38       		.uleb128 0x38
 8198 2776 01       		.uleb128 0x1
 8199 2777 50       		.byte	0x50
 8200 2778 01       		.uleb128 0x1
 8201 2779 31       		.byte	0x31
 8202 277a 00       		.byte	0
 8203 277b 3E       		.uleb128 0x3e
ARM GAS  /var/folders/m4/4md61f0s1_g0rzfghffqnxvr0000gn/T//ccmevqMd.s 			page 145


 8204 277c 60010000 		.4byte	.LVL211
 8205 2780 5D170000 		.4byte	0x175d
 8206 2784 8F270000 		.4byte	0x278f
 8207 2788 38       		.uleb128 0x38
 8208 2789 01       		.uleb128 0x1
 8209 278a 50       		.byte	0x50
 8210 278b 02       		.uleb128 0x2
 8211 278c 79       		.byte	0x79
 8212 278d 00       		.sleb128 0
 8213 278e 00       		.byte	0
 8214 278f 37       		.uleb128 0x37
 8215 2790 EE010000 		.4byte	.LVL235
 8216 2794 76310000 		.4byte	0x3176
 8217 2798 38       		.uleb128 0x38
 8218 2799 01       		.uleb128 0x1
 8219 279a 51       		.byte	0x51
 8220 279b 02       		.uleb128 0x2
 8221 279c 91       		.byte	0x91
 8222 279d 44       		.sleb128 -60
 8223 279e 38       		.uleb128 0x38
 8224 279f 01       		.uleb128 0x1
 8225 27a0 50       		.byte	0x50
 8226 27a1 04       		.uleb128 0x4
 8227 27a2 91       		.byte	0x91
 8228 27a3 BC7F     		.sleb128 -68
 8229 27a5 06       		.byte	0x6
 8230 27a6 00       		.byte	0
 8231 27a7 00       		.byte	0
 8232 27a8 50       		.uleb128 0x50
 8233 27a9 52110000 		.4byte	0x1152
 8234 27ad 98000000 		.4byte	.LBB303
 8235 27b1 88030000 		.4byte	.Ldebug_ranges0+0x388
 8236 27b5 01       		.byte	0x1
 8237 27b6 F1       		.byte	0xf1
 8238 27b7 C5270000 		.4byte	0x27c5
 8239 27bb 3A       		.uleb128 0x3a
 8240 27bc 5F110000 		.4byte	0x115f
 8241 27c0 060F0000 		.4byte	.LLST102
 8242 27c4 00       		.byte	0
 8243 27c5 3E       		.uleb128 0x3e
 8244 27c6 44000000 		.4byte	.LVL185
 8245 27ca CA220000 		.4byte	0x22ca
 8246 27ce D9270000 		.4byte	0x27d9
 8247 27d2 38       		.uleb128 0x38
 8248 27d3 01       		.uleb128 0x1
 8249 27d4 50       		.byte	0x50
 8250 27d5 02       		.uleb128 0x2
 8251 27d6 79       		.byte	0x79
 8252 27d7 00       		.sleb128 0
 8253 27d8 00       		.byte	0
 8254 27d9 3E       		.uleb128 0x3e
 8255 27da B0000000 		.4byte	.LVL195
 8256 27de 76310000 		.4byte	0x3176
 8257 27e2 F5270000 		.4byte	0x27f5
 8258 27e6 38       		.uleb128 0x38
 8259 27e7 01       		.uleb128 0x1
 8260 27e8 51       		.byte	0x51
ARM GAS  /var/folders/m4/4md61f0s1_g0rzfghffqnxvr0000gn/T//ccmevqMd.s 			page 146


 8261 27e9 02       		.uleb128 0x2
 8262 27ea 91       		.byte	0x91
 8263 27eb 44       		.sleb128 -60
 8264 27ec 38       		.uleb128 0x38
 8265 27ed 01       		.uleb128 0x1
 8266 27ee 50       		.byte	0x50
 8267 27ef 04       		.uleb128 0x4
 8268 27f0 91       		.byte	0x91
 8269 27f1 BC7F     		.sleb128 -68
 8270 27f3 06       		.byte	0x6
 8271 27f4 00       		.byte	0
 8272 27f5 37       		.uleb128 0x37
 8273 27f6 B8010000 		.4byte	.LVL227
 8274 27fa 46310000 		.4byte	0x3146
 8275 27fe 38       		.uleb128 0x38
 8276 27ff 01       		.uleb128 0x1
 8277 2800 51       		.byte	0x51
 8278 2801 01       		.uleb128 0x1
 8279 2802 34       		.byte	0x34
 8280 2803 38       		.uleb128 0x38
 8281 2804 01       		.uleb128 0x1
 8282 2805 50       		.byte	0x50
 8283 2806 02       		.uleb128 0x2
 8284 2807 74       		.byte	0x74
 8285 2808 2C       		.sleb128 44
 8286 2809 00       		.byte	0
 8287 280a 00       		.byte	0
 8288 280b 00       		.byte	0
 8289 280c 39       		.uleb128 0x39
 8290 280d 6C110000 		.4byte	0x116c
 8291 2811 00000000 		.4byte	.LFB273
 8292 2815 54000000 		.4byte	.LFE273-.LFB273
 8293 2819 01       		.uleb128 0x1
 8294 281a 9C       		.byte	0x9c
 8295 281b CD280000 		.4byte	0x28cd
 8296 281f 3A       		.uleb128 0x3a
 8297 2820 7C110000 		.4byte	0x117c
 8298 2824 190F0000 		.4byte	.LLST103
 8299 2828 3A       		.uleb128 0x3a
 8300 2829 87110000 		.4byte	0x1187
 8301 282d 6C0F0000 		.4byte	.LLST104
 8302 2831 4B       		.uleb128 0x4b
 8303 2832 A8030000 		.4byte	.Ldebug_ranges0+0x3a8
 8304 2836 73280000 		.4byte	0x2873
 8305 283a 4E       		.uleb128 0x4e
 8306 283b 93110000 		.4byte	0x1193
 8307 283f 41       		.uleb128 0x41
 8308 2840 9F110000 		.4byte	0x119f
 8309 2844 980F0000 		.4byte	.LLST105
 8310 2848 40       		.uleb128 0x40
 8311 2849 0A000000 		.4byte	.LBB330
 8312 284d 0C000000 		.4byte	.LBE330-.LBB330
 8313 2851 5F280000 		.4byte	0x285f
 8314 2855 41       		.uleb128 0x41
 8315 2856 B0110000 		.4byte	0x11b0
 8316 285a DE0F0000 		.4byte	.LLST106
 8317 285e 00       		.byte	0
ARM GAS  /var/folders/m4/4md61f0s1_g0rzfghffqnxvr0000gn/T//ccmevqMd.s 			page 147


 8318 285f 4A       		.uleb128 0x4a
 8319 2860 24000000 		.4byte	.LBB332
 8320 2864 0E000000 		.4byte	.LBE332-.LBB332
 8321 2868 41       		.uleb128 0x41
 8322 2869 C0110000 		.4byte	0x11c0
 8323 286d F20F0000 		.4byte	.LLST107
 8324 2871 00       		.byte	0
 8325 2872 00       		.byte	0
 8326 2873 3B       		.uleb128 0x3b
 8327 2874 C8030000 		.4byte	.Ldebug_ranges0+0x3c8
 8328 2878 3A       		.uleb128 0x3a
 8329 2879 87110000 		.4byte	0x1187
 8330 287d 05100000 		.4byte	.LLST108
 8331 2881 3A       		.uleb128 0x3a
 8332 2882 7C110000 		.4byte	0x117c
 8333 2886 26100000 		.4byte	.LLST109
 8334 288a 3B       		.uleb128 0x3b
 8335 288b C8030000 		.4byte	.Ldebug_ranges0+0x3c8
 8336 288f 4E       		.uleb128 0x4e
 8337 2890 93110000 		.4byte	0x1193
 8338 2894 4E       		.uleb128 0x4e
 8339 2895 9F110000 		.4byte	0x119f
 8340 2899 3B       		.uleb128 0x3b
 8341 289a C8030000 		.4byte	.Ldebug_ranges0+0x3c8
 8342 289e 3C       		.uleb128 0x3c
 8343 289f CC110000 		.4byte	0x11cc
 8344 28a3 02       		.uleb128 0x2
 8345 28a4 91       		.byte	0x91
 8346 28a5 77       		.sleb128 -9
 8347 28a6 37       		.uleb128 0x37
 8348 28a7 42000000 		.4byte	.LVL255
 8349 28ab 39230000 		.4byte	0x2339
 8350 28af 38       		.uleb128 0x38
 8351 28b0 01       		.uleb128 0x1
 8352 28b1 53       		.byte	0x53
 8353 28b2 03       		.uleb128 0x3
 8354 28b3 F3       		.byte	0xf3
 8355 28b4 01       		.uleb128 0x1
 8356 28b5 51       		.byte	0x51
 8357 28b6 38       		.uleb128 0x38
 8358 28b7 01       		.uleb128 0x1
 8359 28b8 52       		.byte	0x52
 8360 28b9 01       		.uleb128 0x1
 8361 28ba 31       		.byte	0x31
 8362 28bb 38       		.uleb128 0x38
 8363 28bc 01       		.uleb128 0x1
 8364 28bd 51       		.byte	0x51
 8365 28be 02       		.uleb128 0x2
 8366 28bf 91       		.byte	0x91
 8367 28c0 77       		.sleb128 -9
 8368 28c1 38       		.uleb128 0x38
 8369 28c2 01       		.uleb128 0x1
 8370 28c3 50       		.byte	0x50
 8371 28c4 03       		.uleb128 0x3
 8372 28c5 F3       		.byte	0xf3
 8373 28c6 01       		.uleb128 0x1
 8374 28c7 50       		.byte	0x50
ARM GAS  /var/folders/m4/4md61f0s1_g0rzfghffqnxvr0000gn/T//ccmevqMd.s 			page 148


 8375 28c8 00       		.byte	0
 8376 28c9 00       		.byte	0
 8377 28ca 00       		.byte	0
 8378 28cb 00       		.byte	0
 8379 28cc 00       		.byte	0
 8380 28cd 58       		.uleb128 0x58
 8381 28ce 67657400 		.ascii	"get\000"
 8382 28d2 01       		.byte	0x1
 8383 28d3 2D01     		.2byte	0x12d
 8384 28d5 1C010000 		.4byte	0x11c
 8385 28d9 00000000 		.4byte	.LFB277
 8386 28dd 08000000 		.4byte	.LFE277-.LFB277
 8387 28e1 01       		.uleb128 0x1
 8388 28e2 9C       		.byte	0x9c
 8389 28e3 0F290000 		.4byte	0x290f
 8390 28e7 43       		.uleb128 0x43
 8391 28e8 0E010000 		.4byte	.LASF239
 8392 28ec 01       		.byte	0x1
 8393 28ed 2D01     		.2byte	0x12d
 8394 28ef A8030000 		.4byte	0x3a8
 8395 28f3 47100000 		.4byte	.LLST110
 8396 28f7 49       		.uleb128 0x49
 8397 28f8 08000000 		.4byte	.LVL257
 8398 28fc 6C110000 		.4byte	0x116c
 8399 2900 38       		.uleb128 0x38
 8400 2901 01       		.uleb128 0x1
 8401 2902 51       		.byte	0x51
 8402 2903 02       		.uleb128 0x2
 8403 2904 09       		.byte	0x9
 8404 2905 FF       		.byte	0xff
 8405 2906 38       		.uleb128 0x38
 8406 2907 01       		.uleb128 0x1
 8407 2908 50       		.byte	0x50
 8408 2909 03       		.uleb128 0x3
 8409 290a F3       		.byte	0xf3
 8410 290b 01       		.uleb128 0x1
 8411 290c 50       		.byte	0x50
 8412 290d 00       		.byte	0
 8413 290e 00       		.byte	0
 8414 290f 59       		.uleb128 0x59
 8415 2910 7C0A0000 		.4byte	.LASF205
 8416 2914 01       		.byte	0x1
 8417 2915 2301     		.2byte	0x123
 8418 2917 2C000000 		.4byte	0x2c
 8419 291b 00000000 		.4byte	.LFB275
 8420 291f 08000000 		.4byte	.LFE275-.LFB275
 8421 2923 01       		.uleb128 0x1
 8422 2924 9C       		.byte	0x9c
 8423 2925 7C290000 		.4byte	0x297c
 8424 2929 43       		.uleb128 0x43
 8425 292a 0E010000 		.4byte	.LASF239
 8426 292e 01       		.byte	0x1
 8427 292f 2301     		.2byte	0x123
 8428 2931 A8030000 		.4byte	0x3a8
 8429 2935 68100000 		.4byte	.LLST111
 8430 2939 44       		.uleb128 0x44
 8431 293a 627000   		.ascii	"bp\000"
ARM GAS  /var/folders/m4/4md61f0s1_g0rzfghffqnxvr0000gn/T//ccmevqMd.s 			page 149


 8432 293d 01       		.byte	0x1
 8433 293e 2301     		.2byte	0x123
 8434 2940 0B090000 		.4byte	0x90b
 8435 2944 89100000 		.4byte	.LLST112
 8436 2948 44       		.uleb128 0x44
 8437 2949 6E00     		.ascii	"n\000"
 8438 294b 01       		.byte	0x1
 8439 294c 2301     		.2byte	0x123
 8440 294e 2C000000 		.4byte	0x2c
 8441 2952 AA100000 		.4byte	.LLST113
 8442 2956 49       		.uleb128 0x49
 8443 2957 08000000 		.4byte	.LVL259
 8444 295b 39230000 		.4byte	0x2339
 8445 295f 38       		.uleb128 0x38
 8446 2960 01       		.uleb128 0x1
 8447 2961 53       		.byte	0x53
 8448 2962 02       		.uleb128 0x2
 8449 2963 09       		.byte	0x9
 8450 2964 FF       		.byte	0xff
 8451 2965 38       		.uleb128 0x38
 8452 2966 01       		.uleb128 0x1
 8453 2967 52       		.byte	0x52
 8454 2968 03       		.uleb128 0x3
 8455 2969 F3       		.byte	0xf3
 8456 296a 01       		.uleb128 0x1
 8457 296b 52       		.byte	0x52
 8458 296c 38       		.uleb128 0x38
 8459 296d 01       		.uleb128 0x1
 8460 296e 51       		.byte	0x51
 8461 296f 03       		.uleb128 0x3
 8462 2970 F3       		.byte	0xf3
 8463 2971 01       		.uleb128 0x1
 8464 2972 51       		.byte	0x51
 8465 2973 38       		.uleb128 0x38
 8466 2974 01       		.uleb128 0x1
 8467 2975 50       		.byte	0x50
 8468 2976 03       		.uleb128 0x3
 8469 2977 F3       		.byte	0xf3
 8470 2978 01       		.uleb128 0x1
 8471 2979 50       		.byte	0x50
 8472 297a 00       		.byte	0
 8473 297b 00       		.byte	0
 8474 297c 42       		.uleb128 0x42
 8475 297d 4A0B0000 		.4byte	.LASF301
 8476 2981 01       		.byte	0x1
 8477 2982 2E02     		.2byte	0x22e
 8478 2984 DD100000 		.4byte	.LASF302
 8479 2988 00000000 		.4byte	.LFB305
 8480 298c 38000000 		.4byte	.LFE305-.LFB305
 8481 2990 01       		.uleb128 0x1
 8482 2991 9C       		.byte	0x9c
 8483 2992 EB290000 		.4byte	0x29eb
 8484 2996 43       		.uleb128 0x43
 8485 2997 7F0E0000 		.4byte	.LASF211
 8486 299b 01       		.byte	0x1
 8487 299c 2E02     		.2byte	0x22e
 8488 299e C60F0000 		.4byte	0xfc6
ARM GAS  /var/folders/m4/4md61f0s1_g0rzfghffqnxvr0000gn/T//ccmevqMd.s 			page 150


 8489 29a2 CB100000 		.4byte	.LLST114
 8490 29a6 3B       		.uleb128 0x3b
 8491 29a7 E0030000 		.4byte	.Ldebug_ranges0+0x3e0
 8492 29ab 48       		.uleb128 0x48
 8493 29ac 72656700 		.ascii	"reg\000"
 8494 29b0 01       		.byte	0x1
 8495 29b1 3202     		.2byte	0x232
 8496 29b3 AE000000 		.4byte	0xae
 8497 29b7 E9100000 		.4byte	.LLST115
 8498 29bb 3E       		.uleb128 0x3e
 8499 29bc 1C000000 		.4byte	.LVL261
 8500 29c0 84150000 		.4byte	0x1584
 8501 29c4 D4290000 		.4byte	0x29d4
 8502 29c8 38       		.uleb128 0x38
 8503 29c9 01       		.uleb128 0x1
 8504 29ca 51       		.byte	0x51
 8505 29cb 01       		.uleb128 0x1
 8506 29cc 30       		.byte	0x30
 8507 29cd 38       		.uleb128 0x38
 8508 29ce 01       		.uleb128 0x1
 8509 29cf 50       		.byte	0x50
 8510 29d0 02       		.uleb128 0x2
 8511 29d1 75       		.byte	0x75
 8512 29d2 00       		.sleb128 0
 8513 29d3 00       		.byte	0
 8514 29d4 37       		.uleb128 0x37
 8515 29d5 28000000 		.4byte	.LVL263
 8516 29d9 EA140000 		.4byte	0x14ea
 8517 29dd 38       		.uleb128 0x38
 8518 29de 01       		.uleb128 0x1
 8519 29df 51       		.byte	0x51
 8520 29e0 01       		.uleb128 0x1
 8521 29e1 30       		.byte	0x30
 8522 29e2 38       		.uleb128 0x38
 8523 29e3 01       		.uleb128 0x1
 8524 29e4 50       		.byte	0x50
 8525 29e5 02       		.uleb128 0x2
 8526 29e6 75       		.byte	0x75
 8527 29e7 00       		.sleb128 0
 8528 29e8 00       		.byte	0
 8529 29e9 00       		.byte	0
 8530 29ea 00       		.byte	0
 8531 29eb 53       		.uleb128 0x53
 8532 29ec A3000000 		.4byte	.LASF208
 8533 29f0 01       		.byte	0x1
 8534 29f1 56       		.byte	0x56
 8535 29f2 2C000000 		.4byte	0x2c
 8536 29f6 00000000 		.4byte	.LFB270
 8537 29fa F2000000 		.4byte	.LFE270-.LFB270
 8538 29fe 01       		.uleb128 0x1
 8539 29ff 9C       		.byte	0x9c
 8540 2a00 C72C0000 		.4byte	0x2cc7
 8541 2a04 31       		.uleb128 0x31
 8542 2a05 0E010000 		.4byte	.LASF239
 8543 2a09 01       		.byte	0x1
 8544 2a0a 56       		.byte	0x56
 8545 2a0b A8030000 		.4byte	0x3a8
ARM GAS  /var/folders/m4/4md61f0s1_g0rzfghffqnxvr0000gn/T//ccmevqMd.s 			page 151


 8546 2a0f 01110000 		.4byte	.LLST116
 8547 2a13 54       		.uleb128 0x54
 8548 2a14 627000   		.ascii	"bp\000"
 8549 2a17 01       		.byte	0x1
 8550 2a18 56       		.byte	0x56
 8551 2a19 2A090000 		.4byte	0x92a
 8552 2a1d 3B110000 		.4byte	.LLST117
 8553 2a21 54       		.uleb128 0x54
 8554 2a22 6E00     		.ascii	"n\000"
 8555 2a24 01       		.byte	0x1
 8556 2a25 56       		.byte	0x56
 8557 2a26 2C000000 		.4byte	0x2c
 8558 2a2a 72110000 		.4byte	.LLST118
 8559 2a2e 31       		.uleb128 0x31
 8560 2a2f 290F0000 		.4byte	.LASF240
 8561 2a33 01       		.byte	0x1
 8562 2a34 56       		.byte	0x56
 8563 2a35 48010000 		.4byte	0x148
 8564 2a39 A9110000 		.4byte	.LLST119
 8565 2a3d 3B       		.uleb128 0x3b
 8566 2a3e F8030000 		.4byte	.Ldebug_ranges0+0x3f8
 8567 2a42 55       		.uleb128 0x55
 8568 2a43 C70E0000 		.4byte	.LASF296
 8569 2a47 01       		.byte	0x1
 8570 2a48 58       		.byte	0x58
 8571 2a49 8D080000 		.4byte	0x88d
 8572 2a4d 02       		.uleb128 0x2
 8573 2a4e 91       		.byte	0x91
 8574 2a4f 44       		.sleb128 -60
 8575 2a50 55       		.uleb128 0x55
 8576 2a51 7F0E0000 		.4byte	.LASF211
 8577 2a55 01       		.byte	0x1
 8578 2a56 59       		.byte	0x59
 8579 2a57 C60F0000 		.4byte	0xfc6
 8580 2a5b 01       		.uleb128 0x1
 8581 2a5c 56       		.byte	0x56
 8582 2a5d 57       		.uleb128 0x57
 8583 2a5e 810A0000 		.4byte	.LASF303
 8584 2a62 01       		.byte	0x1
 8585 2a63 5F       		.byte	0x5f
 8586 2a64 B9000000 		.4byte	0xb9
 8587 2a68 E0110000 		.4byte	.LLST120
 8588 2a6c 57       		.uleb128 0x57
 8589 2a6d CA0F0000 		.4byte	.LASF298
 8590 2a71 01       		.byte	0x1
 8591 2a72 60       		.byte	0x60
 8592 2a73 AE000000 		.4byte	0xae
 8593 2a77 16120000 		.4byte	.LLST121
 8594 2a7b 52       		.uleb128 0x52
 8595 2a7c 06110000 		.4byte	0x1106
 8596 2a80 1C000000 		.4byte	.LBB344
 8597 2a84 14000000 		.4byte	.LBE344-.LBB344
 8598 2a88 01       		.byte	0x1
 8599 2a89 5D       		.byte	0x5d
 8600 2a8a C62A0000 		.4byte	0x2ac6
 8601 2a8e 36       		.uleb128 0x36
 8602 2a8f 28110000 		.4byte	0x1128
ARM GAS  /var/folders/m4/4md61f0s1_g0rzfghffqnxvr0000gn/T//ccmevqMd.s 			page 152


 8603 2a93 01       		.byte	0x1
 8604 2a94 3A       		.uleb128 0x3a
 8605 2a95 1D110000 		.4byte	0x111d
 8606 2a99 4A120000 		.4byte	.LLST122
 8607 2a9d 33       		.uleb128 0x33
 8608 2a9e 12110000 		.4byte	0x1112
 8609 2aa2 01       		.uleb128 0x1
 8610 2aa3 5A       		.byte	0x5a
 8611 2aa4 37       		.uleb128 0x37
 8612 2aa5 30000000 		.4byte	.LVL273
 8613 2aa9 26310000 		.4byte	0x3126
 8614 2aad 38       		.uleb128 0x38
 8615 2aae 01       		.uleb128 0x1
 8616 2aaf 53       		.byte	0x53
 8617 2ab0 02       		.uleb128 0x2
 8618 2ab1 09       		.byte	0x9
 8619 2ab2 FF       		.byte	0xff
 8620 2ab3 38       		.uleb128 0x38
 8621 2ab4 01       		.uleb128 0x1
 8622 2ab5 52       		.byte	0x52
 8623 2ab6 01       		.uleb128 0x1
 8624 2ab7 31       		.byte	0x31
 8625 2ab8 38       		.uleb128 0x38
 8626 2ab9 01       		.uleb128 0x1
 8627 2aba 51       		.byte	0x51
 8628 2abb 02       		.uleb128 0x2
 8629 2abc 91       		.byte	0x91
 8630 2abd 44       		.sleb128 -60
 8631 2abe 38       		.uleb128 0x38
 8632 2abf 01       		.uleb128 0x1
 8633 2ac0 50       		.byte	0x50
 8634 2ac1 02       		.uleb128 0x2
 8635 2ac2 7A       		.byte	0x7a
 8636 2ac3 00       		.sleb128 0
 8637 2ac4 00       		.byte	0
 8638 2ac5 00       		.byte	0
 8639 2ac6 4B       		.uleb128 0x4b
 8640 2ac7 18040000 		.4byte	.Ldebug_ranges0+0x418
 8641 2acb 372C0000 		.4byte	0x2c37
 8642 2acf 57       		.uleb128 0x57
 8643 2ad0 A5090000 		.4byte	.LASF304
 8644 2ad4 01       		.byte	0x1
 8645 2ad5 6E       		.byte	0x6e
 8646 2ad6 AE000000 		.4byte	0xae
 8647 2ada D7120000 		.4byte	.LLST123
 8648 2ade 52       		.uleb128 0x52
 8649 2adf 55100000 		.4byte	0x1055
 8650 2ae3 5C000000 		.4byte	.LBB347
 8651 2ae7 0C000000 		.4byte	.LBE347-.LBB347
 8652 2aeb 01       		.byte	0x1
 8653 2aec 70       		.byte	0x70
 8654 2aed 2C2B0000 		.4byte	0x2b2c
 8655 2af1 3A       		.uleb128 0x3a
 8656 2af2 7A100000 		.4byte	0x107a
 8657 2af6 26130000 		.4byte	.LLST124
 8658 2afa 3A       		.uleb128 0x3a
 8659 2afb 6E100000 		.4byte	0x106e
ARM GAS  /var/folders/m4/4md61f0s1_g0rzfghffqnxvr0000gn/T//ccmevqMd.s 			page 153


 8660 2aff D7120000 		.4byte	.LLST123
 8661 2b03 3A       		.uleb128 0x3a
 8662 2b04 62100000 		.4byte	0x1062
 8663 2b08 79130000 		.4byte	.LLST126
 8664 2b0c 37       		.uleb128 0x37
 8665 2b0d 68000000 		.4byte	.LVL284
 8666 2b11 D8130000 		.4byte	0x13d8
 8667 2b15 38       		.uleb128 0x38
 8668 2b16 01       		.uleb128 0x1
 8669 2b17 52       		.byte	0x52
 8670 2b18 05       		.uleb128 0x5
 8671 2b19 78       		.byte	0x78
 8672 2b1a 00       		.sleb128 0
 8673 2b1b 75       		.byte	0x75
 8674 2b1c 00       		.sleb128 0
 8675 2b1d 22       		.byte	0x22
 8676 2b1e 38       		.uleb128 0x38
 8677 2b1f 01       		.uleb128 0x1
 8678 2b20 51       		.byte	0x51
 8679 2b21 02       		.uleb128 0x2
 8680 2b22 74       		.byte	0x74
 8681 2b23 00       		.sleb128 0
 8682 2b24 38       		.uleb128 0x38
 8683 2b25 01       		.uleb128 0x1
 8684 2b26 50       		.byte	0x50
 8685 2b27 02       		.uleb128 0x2
 8686 2b28 76       		.byte	0x76
 8687 2b29 00       		.sleb128 0
 8688 2b2a 00       		.byte	0
 8689 2b2b 00       		.byte	0
 8690 2b2c 52       		.uleb128 0x52
 8691 2b2d E0100000 		.4byte	0x10e0
 8692 2b31 80000000 		.4byte	.LBB349
 8693 2b35 0C000000 		.4byte	.LBE349-.LBB349
 8694 2b39 01       		.byte	0x1
 8695 2b3a 85       		.byte	0x85
 8696 2b3b 6D2B0000 		.4byte	0x2b6d
 8697 2b3f 3A       		.uleb128 0x3a
 8698 2b40 F9100000 		.4byte	0x10f9
 8699 2b44 A2130000 		.4byte	.LLST127
 8700 2b48 3A       		.uleb128 0x3a
 8701 2b49 ED100000 		.4byte	0x10ed
 8702 2b4d B7130000 		.4byte	.LLST128
 8703 2b51 37       		.uleb128 0x37
 8704 2b52 8A000000 		.4byte	.LVL289
 8705 2b56 EA140000 		.4byte	0x14ea
 8706 2b5a 38       		.uleb128 0x38
 8707 2b5b 01       		.uleb128 0x1
 8708 2b5c 52       		.byte	0x52
 8709 2b5d 02       		.uleb128 0x2
 8710 2b5e 08       		.byte	0x8
 8711 2b5f 20       		.byte	0x20
 8712 2b60 38       		.uleb128 0x38
 8713 2b61 01       		.uleb128 0x1
 8714 2b62 51       		.byte	0x51
 8715 2b63 01       		.uleb128 0x1
 8716 2b64 37       		.byte	0x37
ARM GAS  /var/folders/m4/4md61f0s1_g0rzfghffqnxvr0000gn/T//ccmevqMd.s 			page 154


 8717 2b65 38       		.uleb128 0x38
 8718 2b66 01       		.uleb128 0x1
 8719 2b67 50       		.byte	0x50
 8720 2b68 02       		.uleb128 0x2
 8721 2b69 76       		.byte	0x76
 8722 2b6a 00       		.sleb128 0
 8723 2b6b 00       		.byte	0
 8724 2b6c 00       		.byte	0
 8725 2b6d 52       		.uleb128 0x52
 8726 2b6e 52110000 		.4byte	0x1152
 8727 2b72 C6000000 		.4byte	.LBB351
 8728 2b76 10000000 		.4byte	.LBE351-.LBB351
 8729 2b7a 01       		.byte	0x1
 8730 2b7b 80       		.byte	0x80
 8731 2b7c 8A2B0000 		.4byte	0x2b8a
 8732 2b80 3A       		.uleb128 0x3a
 8733 2b81 5F110000 		.4byte	0x115f
 8734 2b85 CA130000 		.4byte	.LLST129
 8735 2b89 00       		.byte	0
 8736 2b8a 52       		.uleb128 0x52
 8737 2b8b E0100000 		.4byte	0x10e0
 8738 2b8f E0000000 		.4byte	.LBB353
 8739 2b93 0A000000 		.4byte	.LBE353-.LBB353
 8740 2b97 01       		.byte	0x1
 8741 2b98 7E       		.byte	0x7e
 8742 2b99 C52B0000 		.4byte	0x2bc5
 8743 2b9d 36       		.uleb128 0x36
 8744 2b9e F9100000 		.4byte	0x10f9
 8745 2ba2 10       		.byte	0x10
 8746 2ba3 33       		.uleb128 0x33
 8747 2ba4 ED100000 		.4byte	0x10ed
 8748 2ba8 01       		.uleb128 0x1
 8749 2ba9 56       		.byte	0x56
 8750 2baa 37       		.uleb128 0x37
 8751 2bab EA000000 		.4byte	.LVL305
 8752 2baf EA140000 		.4byte	0x14ea
 8753 2bb3 38       		.uleb128 0x38
 8754 2bb4 01       		.uleb128 0x1
 8755 2bb5 52       		.byte	0x52
 8756 2bb6 01       		.uleb128 0x1
 8757 2bb7 40       		.byte	0x40
 8758 2bb8 38       		.uleb128 0x38
 8759 2bb9 01       		.uleb128 0x1
 8760 2bba 51       		.byte	0x51
 8761 2bbb 01       		.uleb128 0x1
 8762 2bbc 37       		.byte	0x37
 8763 2bbd 38       		.uleb128 0x38
 8764 2bbe 01       		.uleb128 0x1
 8765 2bbf 50       		.byte	0x50
 8766 2bc0 02       		.uleb128 0x2
 8767 2bc1 76       		.byte	0x76
 8768 2bc2 00       		.sleb128 0
 8769 2bc3 00       		.byte	0
 8770 2bc4 00       		.byte	0
 8771 2bc5 3E       		.uleb128 0x3e
 8772 2bc6 70000000 		.4byte	.LVL285
 8773 2bca 5C310000 		.4byte	0x315c
ARM GAS  /var/folders/m4/4md61f0s1_g0rzfghffqnxvr0000gn/T//ccmevqMd.s 			page 155


 8774 2bce DE2B0000 		.4byte	0x2bde
 8775 2bd2 38       		.uleb128 0x38
 8776 2bd3 01       		.uleb128 0x1
 8777 2bd4 51       		.byte	0x51
 8778 2bd5 02       		.uleb128 0x2
 8779 2bd6 79       		.byte	0x79
 8780 2bd7 00       		.sleb128 0
 8781 2bd8 38       		.uleb128 0x38
 8782 2bd9 01       		.uleb128 0x1
 8783 2bda 50       		.byte	0x50
 8784 2bdb 01       		.uleb128 0x1
 8785 2bdc 31       		.byte	0x31
 8786 2bdd 00       		.byte	0
 8787 2bde 3E       		.uleb128 0x3e
 8788 2bdf 78000000 		.4byte	.LVL286
 8789 2be3 5D170000 		.4byte	0x175d
 8790 2be7 F22B0000 		.4byte	0x2bf2
 8791 2beb 38       		.uleb128 0x38
 8792 2bec 01       		.uleb128 0x1
 8793 2bed 50       		.byte	0x50
 8794 2bee 02       		.uleb128 0x2
 8795 2bef 76       		.byte	0x76
 8796 2bf0 00       		.sleb128 0
 8797 2bf1 00       		.byte	0
 8798 2bf2 3E       		.uleb128 0x3e
 8799 2bf3 C6000000 		.4byte	.LVL300
 8800 2bf7 76310000 		.4byte	0x3176
 8801 2bfb 0C2C0000 		.4byte	0x2c0c
 8802 2bff 38       		.uleb128 0x38
 8803 2c00 01       		.uleb128 0x1
 8804 2c01 51       		.byte	0x51
 8805 2c02 02       		.uleb128 0x2
 8806 2c03 91       		.byte	0x91
 8807 2c04 44       		.sleb128 -60
 8808 2c05 38       		.uleb128 0x38
 8809 2c06 01       		.uleb128 0x1
 8810 2c07 50       		.byte	0x50
 8811 2c08 02       		.uleb128 0x2
 8812 2c09 7A       		.byte	0x7a
 8813 2c0a 00       		.sleb128 0
 8814 2c0b 00       		.byte	0
 8815 2c0c 3E       		.uleb128 0x3e
 8816 2c0d E0000000 		.4byte	.LVL304
 8817 2c11 76310000 		.4byte	0x3176
 8818 2c15 262C0000 		.4byte	0x2c26
 8819 2c19 38       		.uleb128 0x38
 8820 2c1a 01       		.uleb128 0x1
 8821 2c1b 51       		.byte	0x51
 8822 2c1c 02       		.uleb128 0x2
 8823 2c1d 91       		.byte	0x91
 8824 2c1e 44       		.sleb128 -60
 8825 2c1f 38       		.uleb128 0x38
 8826 2c20 01       		.uleb128 0x1
 8827 2c21 50       		.byte	0x50
 8828 2c22 02       		.uleb128 0x2
 8829 2c23 7A       		.byte	0x7a
 8830 2c24 00       		.sleb128 0
ARM GAS  /var/folders/m4/4md61f0s1_g0rzfghffqnxvr0000gn/T//ccmevqMd.s 			page 156


 8831 2c25 00       		.byte	0
 8832 2c26 37       		.uleb128 0x37
 8833 2c27 F0000000 		.4byte	.LVL306
 8834 2c2b 371F0000 		.4byte	0x1f37
 8835 2c2f 38       		.uleb128 0x38
 8836 2c30 01       		.uleb128 0x1
 8837 2c31 50       		.byte	0x50
 8838 2c32 02       		.uleb128 0x2
 8839 2c33 76       		.byte	0x76
 8840 2c34 00       		.sleb128 0
 8841 2c35 00       		.byte	0
 8842 2c36 00       		.byte	0
 8843 2c37 50       		.uleb128 0x50
 8844 2c38 52110000 		.4byte	0x1152
 8845 2c3c 9A000000 		.4byte	.LBB356
 8846 2c40 38040000 		.4byte	.Ldebug_ranges0+0x438
 8847 2c44 01       		.byte	0x1
 8848 2c45 8A       		.byte	0x8a
 8849 2c46 542C0000 		.4byte	0x2c54
 8850 2c4a 3A       		.uleb128 0x3a
 8851 2c4b 5F110000 		.4byte	0x115f
 8852 2c4f DD130000 		.4byte	.LLST130
 8853 2c53 00       		.byte	0
 8854 2c54 3E       		.uleb128 0x3e
 8855 2c55 36000000 		.4byte	.LVL274
 8856 2c59 5D170000 		.4byte	0x175d
 8857 2c5d 682C0000 		.4byte	0x2c68
 8858 2c61 38       		.uleb128 0x38
 8859 2c62 01       		.uleb128 0x1
 8860 2c63 50       		.byte	0x50
 8861 2c64 02       		.uleb128 0x2
 8862 2c65 76       		.byte	0x76
 8863 2c66 00       		.sleb128 0
 8864 2c67 00       		.byte	0
 8865 2c68 3E       		.uleb128 0x3e
 8866 2c69 42000000 		.4byte	.LVL276
 8867 2c6d 7C290000 		.4byte	0x297c
 8868 2c71 7C2C0000 		.4byte	0x2c7c
 8869 2c75 38       		.uleb128 0x38
 8870 2c76 01       		.uleb128 0x1
 8871 2c77 50       		.byte	0x50
 8872 2c78 02       		.uleb128 0x2
 8873 2c79 76       		.byte	0x76
 8874 2c7a 00       		.sleb128 0
 8875 2c7b 00       		.byte	0
 8876 2c7c 3E       		.uleb128 0x3e
 8877 2c7d 94000000 		.4byte	.LVL293
 8878 2c81 76310000 		.4byte	0x3176
 8879 2c85 962C0000 		.4byte	0x2c96
 8880 2c89 38       		.uleb128 0x38
 8881 2c8a 01       		.uleb128 0x1
 8882 2c8b 51       		.byte	0x51
 8883 2c8c 02       		.uleb128 0x2
 8884 2c8d 91       		.byte	0x91
 8885 2c8e 44       		.sleb128 -60
 8886 2c8f 38       		.uleb128 0x38
 8887 2c90 01       		.uleb128 0x1
ARM GAS  /var/folders/m4/4md61f0s1_g0rzfghffqnxvr0000gn/T//ccmevqMd.s 			page 157


 8888 2c91 50       		.byte	0x50
 8889 2c92 02       		.uleb128 0x2
 8890 2c93 7A       		.byte	0x7a
 8891 2c94 00       		.sleb128 0
 8892 2c95 00       		.byte	0
 8893 2c96 3E       		.uleb128 0x3e
 8894 2c97 B4000000 		.4byte	.LVL295
 8895 2c9b 46310000 		.4byte	0x3146
 8896 2c9f AF2C0000 		.4byte	0x2caf
 8897 2ca3 38       		.uleb128 0x38
 8898 2ca4 01       		.uleb128 0x1
 8899 2ca5 51       		.byte	0x51
 8900 2ca6 01       		.uleb128 0x1
 8901 2ca7 48       		.byte	0x48
 8902 2ca8 38       		.uleb128 0x38
 8903 2ca9 01       		.uleb128 0x1
 8904 2caa 50       		.byte	0x50
 8905 2cab 02       		.uleb128 0x2
 8906 2cac 76       		.byte	0x76
 8907 2cad 2C       		.sleb128 44
 8908 2cae 00       		.byte	0
 8909 2caf 37       		.uleb128 0x37
 8910 2cb0 BC000000 		.4byte	.LVL297
 8911 2cb4 76310000 		.4byte	0x3176
 8912 2cb8 38       		.uleb128 0x38
 8913 2cb9 01       		.uleb128 0x1
 8914 2cba 51       		.byte	0x51
 8915 2cbb 02       		.uleb128 0x2
 8916 2cbc 91       		.byte	0x91
 8917 2cbd 44       		.sleb128 -60
 8918 2cbe 38       		.uleb128 0x38
 8919 2cbf 01       		.uleb128 0x1
 8920 2cc0 50       		.byte	0x50
 8921 2cc1 02       		.uleb128 0x2
 8922 2cc2 7A       		.byte	0x7a
 8923 2cc3 00       		.sleb128 0
 8924 2cc4 00       		.byte	0
 8925 2cc5 00       		.byte	0
 8926 2cc6 00       		.byte	0
 8927 2cc7 39       		.uleb128 0x39
 8928 2cc8 DF110000 		.4byte	0x11df
 8929 2ccc 00000000 		.4byte	.LFB272
 8930 2cd0 20000000 		.4byte	.LFE272-.LFB272
 8931 2cd4 01       		.uleb128 0x1
 8932 2cd5 9C       		.byte	0x9c
 8933 2cd6 192D0000 		.4byte	0x2d19
 8934 2cda 3A       		.uleb128 0x3a
 8935 2cdb EF110000 		.4byte	0x11ef
 8936 2cdf F0130000 		.4byte	.LLST131
 8937 2ce3 3A       		.uleb128 0x3a
 8938 2ce4 FA110000 		.4byte	0x11fa
 8939 2ce8 11140000 		.4byte	.LLST132
 8940 2cec 3A       		.uleb128 0x3a
 8941 2ced 03120000 		.4byte	0x1203
 8942 2cf1 3C140000 		.4byte	.LLST133
 8943 2cf5 37       		.uleb128 0x37
 8944 2cf6 14000000 		.4byte	.LVL310
ARM GAS  /var/folders/m4/4md61f0s1_g0rzfghffqnxvr0000gn/T//ccmevqMd.s 			page 158


 8945 2cfa EB290000 		.4byte	0x29eb
 8946 2cfe 38       		.uleb128 0x38
 8947 2cff 01       		.uleb128 0x1
 8948 2d00 53       		.byte	0x53
 8949 2d01 03       		.uleb128 0x3
 8950 2d02 F3       		.byte	0xf3
 8951 2d03 01       		.uleb128 0x1
 8952 2d04 52       		.byte	0x52
 8953 2d05 38       		.uleb128 0x38
 8954 2d06 01       		.uleb128 0x1
 8955 2d07 52       		.byte	0x52
 8956 2d08 01       		.uleb128 0x1
 8957 2d09 31       		.byte	0x31
 8958 2d0a 38       		.uleb128 0x38
 8959 2d0b 01       		.uleb128 0x1
 8960 2d0c 51       		.byte	0x51
 8961 2d0d 02       		.uleb128 0x2
 8962 2d0e 74       		.byte	0x74
 8963 2d0f 00       		.sleb128 0
 8964 2d10 38       		.uleb128 0x38
 8965 2d11 01       		.uleb128 0x1
 8966 2d12 50       		.byte	0x50
 8967 2d13 03       		.uleb128 0x3
 8968 2d14 F3       		.byte	0xf3
 8969 2d15 01       		.uleb128 0x1
 8970 2d16 50       		.byte	0x50
 8971 2d17 00       		.byte	0
 8972 2d18 00       		.byte	0
 8973 2d19 58       		.uleb128 0x58
 8974 2d1a 70757400 		.ascii	"put\000"
 8975 2d1e 01       		.byte	0x1
 8976 2d1f 2801     		.2byte	0x128
 8977 2d21 1C010000 		.4byte	0x11c
 8978 2d25 00000000 		.4byte	.LFB276
 8979 2d29 22000000 		.4byte	.LFE276-.LFB276
 8980 2d2d 01       		.uleb128 0x1
 8981 2d2e 9C       		.byte	0x9c
 8982 2d2f 9C2D0000 		.4byte	0x2d9c
 8983 2d33 43       		.uleb128 0x43
 8984 2d34 0E010000 		.4byte	.LASF239
 8985 2d38 01       		.byte	0x1
 8986 2d39 2801     		.2byte	0x128
 8987 2d3b A8030000 		.4byte	0x3a8
 8988 2d3f 68140000 		.4byte	.LLST134
 8989 2d43 44       		.uleb128 0x44
 8990 2d44 6200     		.ascii	"b\000"
 8991 2d46 01       		.byte	0x1
 8992 2d47 2801     		.2byte	0x128
 8993 2d49 AE000000 		.4byte	0xae
 8994 2d4d 89140000 		.4byte	.LLST135
 8995 2d51 35       		.uleb128 0x35
 8996 2d52 DF110000 		.4byte	0x11df
 8997 2d56 06000000 		.4byte	.LBB363
 8998 2d5a 16000000 		.4byte	.LBE363-.LBB363
 8999 2d5e 01       		.byte	0x1
 9000 2d5f 2A01     		.2byte	0x12a
 9001 2d61 5A       		.uleb128 0x5a
ARM GAS  /var/folders/m4/4md61f0s1_g0rzfghffqnxvr0000gn/T//ccmevqMd.s 			page 159


 9002 2d62 03120000 		.4byte	0x1203
 9003 2d66 7F       		.sleb128 -1
 9004 2d67 33       		.uleb128 0x33
 9005 2d68 FA110000 		.4byte	0x11fa
 9006 2d6c 02       		.uleb128 0x2
 9007 2d6d 91       		.byte	0x91
 9008 2d6e 77       		.sleb128 -9
 9009 2d6f 3A       		.uleb128 0x3a
 9010 2d70 EF110000 		.4byte	0x11ef
 9011 2d74 68140000 		.4byte	.LLST134
 9012 2d78 37       		.uleb128 0x37
 9013 2d79 16000000 		.4byte	.LVL314
 9014 2d7d EB290000 		.4byte	0x29eb
 9015 2d81 38       		.uleb128 0x38
 9016 2d82 01       		.uleb128 0x1
 9017 2d83 53       		.byte	0x53
 9018 2d84 02       		.uleb128 0x2
 9019 2d85 09       		.byte	0x9
 9020 2d86 FF       		.byte	0xff
 9021 2d87 38       		.uleb128 0x38
 9022 2d88 01       		.uleb128 0x1
 9023 2d89 52       		.byte	0x52
 9024 2d8a 01       		.uleb128 0x1
 9025 2d8b 31       		.byte	0x31
 9026 2d8c 38       		.uleb128 0x38
 9027 2d8d 01       		.uleb128 0x1
 9028 2d8e 51       		.byte	0x51
 9029 2d8f 02       		.uleb128 0x2
 9030 2d90 74       		.byte	0x74
 9031 2d91 00       		.sleb128 0
 9032 2d92 38       		.uleb128 0x38
 9033 2d93 01       		.uleb128 0x1
 9034 2d94 50       		.byte	0x50
 9035 2d95 03       		.uleb128 0x3
 9036 2d96 F3       		.byte	0xf3
 9037 2d97 01       		.uleb128 0x1
 9038 2d98 50       		.byte	0x50
 9039 2d99 00       		.byte	0
 9040 2d9a 00       		.byte	0
 9041 2d9b 00       		.byte	0
 9042 2d9c 59       		.uleb128 0x59
 9043 2d9d 17010000 		.4byte	.LASF204
 9044 2da1 01       		.byte	0x1
 9045 2da2 1E01     		.2byte	0x11e
 9046 2da4 2C000000 		.4byte	0x2c
 9047 2da8 00000000 		.4byte	.LFB274
 9048 2dac 08000000 		.4byte	.LFE274-.LFB274
 9049 2db0 01       		.uleb128 0x1
 9050 2db1 9C       		.byte	0x9c
 9051 2db2 092E0000 		.4byte	0x2e09
 9052 2db6 43       		.uleb128 0x43
 9053 2db7 0E010000 		.4byte	.LASF239
 9054 2dbb 01       		.byte	0x1
 9055 2dbc 1E01     		.2byte	0x11e
 9056 2dbe A8030000 		.4byte	0x3a8
 9057 2dc2 B6140000 		.4byte	.LLST137
 9058 2dc6 44       		.uleb128 0x44
ARM GAS  /var/folders/m4/4md61f0s1_g0rzfghffqnxvr0000gn/T//ccmevqMd.s 			page 160


 9059 2dc7 627000   		.ascii	"bp\000"
 9060 2dca 01       		.byte	0x1
 9061 2dcb 1E01     		.2byte	0x11e
 9062 2dcd 2A090000 		.4byte	0x92a
 9063 2dd1 D7140000 		.4byte	.LLST138
 9064 2dd5 44       		.uleb128 0x44
 9065 2dd6 6E00     		.ascii	"n\000"
 9066 2dd8 01       		.byte	0x1
 9067 2dd9 1E01     		.2byte	0x11e
 9068 2ddb 2C000000 		.4byte	0x2c
 9069 2ddf F8140000 		.4byte	.LLST139
 9070 2de3 49       		.uleb128 0x49
 9071 2de4 08000000 		.4byte	.LVL316
 9072 2de8 EB290000 		.4byte	0x29eb
 9073 2dec 38       		.uleb128 0x38
 9074 2ded 01       		.uleb128 0x1
 9075 2dee 53       		.byte	0x53
 9076 2def 02       		.uleb128 0x2
 9077 2df0 09       		.byte	0x9
 9078 2df1 FF       		.byte	0xff
 9079 2df2 38       		.uleb128 0x38
 9080 2df3 01       		.uleb128 0x1
 9081 2df4 52       		.byte	0x52
 9082 2df5 03       		.uleb128 0x3
 9083 2df6 F3       		.byte	0xf3
 9084 2df7 01       		.uleb128 0x1
 9085 2df8 52       		.byte	0x52
 9086 2df9 38       		.uleb128 0x38
 9087 2dfa 01       		.uleb128 0x1
 9088 2dfb 51       		.byte	0x51
 9089 2dfc 03       		.uleb128 0x3
 9090 2dfd F3       		.byte	0xf3
 9091 2dfe 01       		.uleb128 0x1
 9092 2dff 51       		.byte	0x51
 9093 2e00 38       		.uleb128 0x38
 9094 2e01 01       		.uleb128 0x1
 9095 2e02 50       		.byte	0x50
 9096 2e03 03       		.uleb128 0x3
 9097 2e04 F3       		.byte	0xf3
 9098 2e05 01       		.uleb128 0x1
 9099 2e06 50       		.byte	0x50
 9100 2e07 00       		.byte	0
 9101 2e08 00       		.byte	0
 9102 2e09 3F       		.uleb128 0x3f
 9103 2e0a 52110000 		.4byte	0x1152
 9104 2e0e BF080000 		.4byte	.LASF305
 9105 2e12 00000000 		.4byte	.LFB306
 9106 2e16 12000000 		.4byte	.LFE306-.LFB306
 9107 2e1a 01       		.uleb128 0x1
 9108 2e1b 9C       		.byte	0x9c
 9109 2e1c 282E0000 		.4byte	0x2e28
 9110 2e20 33       		.uleb128 0x33
 9111 2e21 5F110000 		.4byte	0x115f
 9112 2e25 01       		.uleb128 0x1
 9113 2e26 50       		.byte	0x50
 9114 2e27 00       		.byte	0
 9115 2e28 42       		.uleb128 0x42
ARM GAS  /var/folders/m4/4md61f0s1_g0rzfghffqnxvr0000gn/T//ccmevqMd.s 			page 161


 9116 2e29 C3110000 		.4byte	.LASF306
 9117 2e2d 01       		.byte	0x1
 9118 2e2e 3E02     		.2byte	0x23e
 9119 2e30 EC0F0000 		.4byte	.LASF307
 9120 2e34 00000000 		.4byte	.LFB307
 9121 2e38 22000000 		.4byte	.LFE307-.LFB307
 9122 2e3c 01       		.uleb128 0x1
 9123 2e3d 9C       		.byte	0x9c
 9124 2e3e A82E0000 		.4byte	0x2ea8
 9125 2e42 43       		.uleb128 0x43
 9126 2e43 7F0E0000 		.4byte	.LASF211
 9127 2e47 01       		.byte	0x1
 9128 2e48 3E02     		.2byte	0x23e
 9129 2e4a C60F0000 		.4byte	0xfc6
 9130 2e4e 19150000 		.4byte	.LLST140
 9131 2e52 43       		.uleb128 0x43
 9132 2e53 E7020000 		.4byte	.LASF276
 9133 2e57 01       		.byte	0x1
 9134 2e58 3E02     		.2byte	0x23e
 9135 2e5a AE000000 		.4byte	0xae
 9136 2e5e 50150000 		.4byte	.LLST141
 9137 2e62 3B       		.uleb128 0x3b
 9138 2e63 50040000 		.4byte	.Ldebug_ranges0+0x450
 9139 2e67 48       		.uleb128 0x48
 9140 2e68 72656700 		.ascii	"reg\000"
 9141 2e6c 01       		.byte	0x1
 9142 2e6d 4002     		.2byte	0x240
 9143 2e6f AE000000 		.4byte	0xae
 9144 2e73 71150000 		.4byte	.LLST142
 9145 2e77 3E       		.uleb128 0x3e
 9146 2e78 0C000000 		.4byte	.LVL320
 9147 2e7c 84150000 		.4byte	0x1584
 9148 2e80 902E0000 		.4byte	0x2e90
 9149 2e84 38       		.uleb128 0x38
 9150 2e85 01       		.uleb128 0x1
 9151 2e86 51       		.byte	0x51
 9152 2e87 01       		.uleb128 0x1
 9153 2e88 32       		.byte	0x32
 9154 2e89 38       		.uleb128 0x38
 9155 2e8a 01       		.uleb128 0x1
 9156 2e8b 50       		.byte	0x50
 9157 2e8c 02       		.uleb128 0x2
 9158 2e8d 75       		.byte	0x75
 9159 2e8e 00       		.sleb128 0
 9160 2e8f 00       		.byte	0
 9161 2e90 49       		.uleb128 0x49
 9162 2e91 22000000 		.4byte	.LVL323
 9163 2e95 EA140000 		.4byte	0x14ea
 9164 2e99 38       		.uleb128 0x38
 9165 2e9a 01       		.uleb128 0x1
 9166 2e9b 51       		.byte	0x51
 9167 2e9c 01       		.uleb128 0x1
 9168 2e9d 32       		.byte	0x32
 9169 2e9e 38       		.uleb128 0x38
 9170 2e9f 01       		.uleb128 0x1
 9171 2ea0 50       		.byte	0x50
 9172 2ea1 03       		.uleb128 0x3
ARM GAS  /var/folders/m4/4md61f0s1_g0rzfghffqnxvr0000gn/T//ccmevqMd.s 			page 162


 9173 2ea2 F3       		.byte	0xf3
 9174 2ea3 01       		.uleb128 0x1
 9175 2ea4 50       		.byte	0x50
 9176 2ea5 00       		.byte	0
 9177 2ea6 00       		.byte	0
 9178 2ea7 00       		.byte	0
 9179 2ea8 3F       		.uleb128 0x3f
 9180 2ea9 21120000 		.4byte	0x1221
 9181 2ead A8120000 		.4byte	.LASF308
 9182 2eb1 00000000 		.4byte	.LFB308
 9183 2eb5 1A000000 		.4byte	.LFE308-.LFB308
 9184 2eb9 01       		.uleb128 0x1
 9185 2eba 9C       		.byte	0x9c
 9186 2ebb 7E2F0000 		.4byte	0x2f7e
 9187 2ebf 3A       		.uleb128 0x3a
 9188 2ec0 2E120000 		.4byte	0x122e
 9189 2ec4 8F150000 		.4byte	.LLST143
 9190 2ec8 34       		.uleb128 0x34
 9191 2ec9 0F120000 		.4byte	0x120f
 9192 2ecd 02000000 		.4byte	.LBB368
 9193 2ed1 06000000 		.4byte	.LBE368-.LBB368
 9194 2ed5 01       		.byte	0x1
 9195 2ed6 4702     		.2byte	0x247
 9196 2ed8 162F0000 		.4byte	0x2f16
 9197 2edc 35       		.uleb128 0x35
 9198 2edd 640F0000 		.4byte	0xf64
 9199 2ee1 02000000 		.4byte	.LBB369
 9200 2ee5 06000000 		.4byte	.LBE369-.LBB369
 9201 2ee9 18       		.byte	0x18
 9202 2eea 8401     		.2byte	0x184
 9203 2eec 35       		.uleb128 0x35
 9204 2eed 520F0000 		.4byte	0xf52
 9205 2ef1 02000000 		.4byte	.LBB370
 9206 2ef5 06000000 		.4byte	.LBE370-.LBB370
 9207 2ef9 0D       		.byte	0xd
 9208 2efa F101     		.2byte	0x1f1
 9209 2efc 35       		.uleb128 0x35
 9210 2efd 380F0000 		.4byte	0xf38
 9211 2f01 02000000 		.4byte	.LBB371
 9212 2f05 06000000 		.4byte	.LBE371-.LBB371
 9213 2f09 0D       		.byte	0xd
 9214 2f0a D001     		.2byte	0x1d0
 9215 2f0c 36       		.uleb128 0x36
 9216 2f0d 450F0000 		.4byte	0xf45
 9217 2f11 20       		.byte	0x20
 9218 2f12 00       		.byte	0
 9219 2f13 00       		.byte	0
 9220 2f14 00       		.byte	0
 9221 2f15 00       		.byte	0
 9222 2f16 34       		.uleb128 0x34
 9223 2f17 18120000 		.4byte	0x1218
 9224 2f1b 12000000 		.4byte	.LBB373
 9225 2f1f 08000000 		.4byte	.LBE373-.LBB373
 9226 2f23 01       		.byte	0x1
 9227 2f24 4902     		.2byte	0x249
 9228 2f26 642F0000 		.4byte	0x2f64
 9229 2f2a 35       		.uleb128 0x35
ARM GAS  /var/folders/m4/4md61f0s1_g0rzfghffqnxvr0000gn/T//ccmevqMd.s 			page 163


 9230 2f2b 6D0F0000 		.4byte	0xf6d
 9231 2f2f 12000000 		.4byte	.LBB374
 9232 2f33 08000000 		.4byte	.LBE374-.LBB374
 9233 2f37 18       		.byte	0x18
 9234 2f38 9A01     		.2byte	0x19a
 9235 2f3a 35       		.uleb128 0x35
 9236 2f3b 5B0F0000 		.4byte	0xf5b
 9237 2f3f 12000000 		.4byte	.LBB375
 9238 2f43 08000000 		.4byte	.LBE375-.LBB375
 9239 2f47 0D       		.byte	0xd
 9240 2f48 FC01     		.2byte	0x1fc
 9241 2f4a 35       		.uleb128 0x35
 9242 2f4b 380F0000 		.4byte	0xf38
 9243 2f4f 12000000 		.4byte	.LBB376
 9244 2f53 08000000 		.4byte	.LBE376-.LBB376
 9245 2f57 0D       		.byte	0xd
 9246 2f58 E301     		.2byte	0x1e3
 9247 2f5a 36       		.uleb128 0x36
 9248 2f5b 450F0000 		.4byte	0xf45
 9249 2f5f 00       		.byte	0
 9250 2f60 00       		.byte	0
 9251 2f61 00       		.byte	0
 9252 2f62 00       		.byte	0
 9253 2f63 00       		.byte	0
 9254 2f64 37       		.uleb128 0x37
 9255 2f65 12000000 		.4byte	.LVL326
 9256 2f69 2D300000 		.4byte	0x302d
 9257 2f6d 38       		.uleb128 0x38
 9258 2f6e 01       		.uleb128 0x1
 9259 2f6f 51       		.byte	0x51
 9260 2f70 01       		.uleb128 0x1
 9261 2f71 31       		.byte	0x31
 9262 2f72 38       		.uleb128 0x38
 9263 2f73 01       		.uleb128 0x1
 9264 2f74 50       		.byte	0x50
 9265 2f75 06       		.uleb128 0x6
 9266 2f76 F3       		.byte	0xf3
 9267 2f77 01       		.uleb128 0x1
 9268 2f78 50       		.byte	0x50
 9269 2f79 23       		.byte	0x23
 9270 2f7a A002     		.uleb128 0x120
 9271 2f7c 00       		.byte	0
 9272 2f7d 00       		.byte	0
 9273 2f7e 5B       		.uleb128 0x5b
 9274 2f7f F4090000 		.4byte	.LASF309
 9275 2f83 19       		.byte	0x19
 9276 2f84 FA06     		.2byte	0x6fa
 9277 2f86 8A2F0000 		.4byte	0x2f8a
 9278 2f8a 12       		.uleb128 0x12
 9279 2f8b C4000000 		.4byte	0xc4
 9280 2f8f 5C       		.uleb128 0x5c
 9281 2f90 636800   		.ascii	"ch\000"
 9282 2f93 09       		.byte	0x9
 9283 2f94 0902     		.2byte	0x209
 9284 2f96 77040000 		.4byte	0x477
 9285 2f9a 5D       		.uleb128 0x5d
 9286 2f9b 82090000 		.4byte	.LASF310
ARM GAS  /var/folders/m4/4md61f0s1_g0rzfghffqnxvr0000gn/T//ccmevqMd.s 			page 164


 9287 2f9f 14       		.byte	0x14
 9288 2fa0 88       		.byte	0x88
 9289 2fa1 B40B0000 		.4byte	0xbb4
 9290 2fa5 5B       		.uleb128 0x5b
 9291 2fa6 5D010000 		.4byte	.LASF311
 9292 2faa 16       		.byte	0x16
 9293 2fab F201     		.2byte	0x1f2
 9294 2fad BA0C0000 		.4byte	0xcba
 9295 2fb1 5E       		.uleb128 0x5e
 9296 2fb2 BF090000 		.4byte	.LASF312
 9297 2fb6 01       		.byte	0x1
 9298 2fb7 15       		.byte	0x15
 9299 2fb8 2D0F0000 		.4byte	0xf2d
 9300 2fbc 05       		.uleb128 0x5
 9301 2fbd 03       		.byte	0x3
 9302 2fbe 00000000 		.4byte	nrf24l01
 9303 2fc2 55       		.uleb128 0x55
 9304 2fc3 A8130000 		.4byte	.LASF313
 9305 2fc7 01       		.byte	0x1
 9306 2fc8 06       		.byte	0x6
 9307 2fc9 C00D0000 		.4byte	0xdc0
 9308 2fcd 05       		.uleb128 0x5
 9309 2fce 03       		.byte	0x3
 9310 2fcf 00000000 		.4byte	_ZL11nrf24l01SPI
 9311 2fd3 55       		.uleb128 0x55
 9312 2fd4 A80C0000 		.4byte	.LASF314
 9313 2fd8 01       		.byte	0x1
 9314 2fd9 0E       		.byte	0xe
 9315 2fda 280F0000 		.4byte	0xf28
 9316 2fde 05       		.uleb128 0x5
 9317 2fdf 03       		.byte	0x3
 9318 2fe0 00000000 		.4byte	_ZL14nrf24l01Config
 9319 2fe4 1B       		.uleb128 0x1b
 9320 2fe5 63000000 		.4byte	0x63
 9321 2fe9 F42F0000 		.4byte	0x2ff4
 9322 2fed 1C       		.uleb128 0x1c
 9323 2fee DE040000 		.4byte	0x4de
 9324 2ff2 04       		.byte	0x4
 9325 2ff3 00       		.byte	0
 9326 2ff4 55       		.uleb128 0x55
 9327 2ff5 630A0000 		.4byte	.LASF225
 9328 2ff9 01       		.byte	0x1
 9329 2ffa 16       		.byte	0x16
 9330 2ffb 05300000 		.4byte	0x3005
 9331 2fff 05       		.uleb128 0x5
 9332 3000 03       		.byte	0x3
 9333 3001 00000000 		.4byte	_ZL4addr
 9334 3005 1A       		.uleb128 0x1a
 9335 3006 E42F0000 		.4byte	0x2fe4
 9336 300a 55       		.uleb128 0x55
 9337 300b A40A0000 		.4byte	.LASF315
 9338 300f 01       		.byte	0x1
 9339 3010 1D       		.byte	0x1d
 9340 3011 7F0C0000 		.4byte	0xc7f
 9341 3015 05       		.uleb128 0x5
 9342 3016 03       		.byte	0x3
 9343 3017 00000000 		.4byte	_ZL6extcfg
ARM GAS  /var/folders/m4/4md61f0s1_g0rzfghffqnxvr0000gn/T//ccmevqMd.s 			page 165


 9344 301b 45       		.uleb128 0x45
 9345 301c 766D7400 		.ascii	"vmt\000"
 9346 3020 01       		.byte	0x1
 9347 3021 3201     		.2byte	0x132
 9348 3023 C30E0000 		.4byte	0xec3
 9349 3027 05       		.uleb128 0x5
 9350 3028 03       		.byte	0x3
 9351 3029 00000000 		.4byte	_ZL3vmt
 9352 302d 5F       		.uleb128 0x5f
 9353 302e 150C0000 		.4byte	.LASF316
 9354 3032 03       		.byte	0x3
 9355 3033 87       		.byte	0x87
 9356 3034 43300000 		.4byte	0x3043
 9357 3038 0F       		.uleb128 0xf
 9358 3039 8E0F0000 		.4byte	0xf8e
 9359 303d 0F       		.uleb128 0xf
 9360 303e 32010000 		.4byte	0x132
 9361 3042 00       		.byte	0
 9362 3043 60       		.uleb128 0x60
 9363 3044 4B100000 		.4byte	.LASF317
 9364 3048 15       		.byte	0x15
 9365 3049 0A01     		.2byte	0x10a
 9366 304b 55300000 		.4byte	0x3055
 9367 304f 0F       		.uleb128 0xf
 9368 3050 660D0000 		.4byte	0xd66
 9369 3054 00       		.byte	0
 9370 3055 60       		.uleb128 0x60
 9371 3056 B50A0000 		.4byte	.LASF318
 9372 305a 15       		.byte	0x15
 9373 305b 1301     		.2byte	0x113
 9374 305d 76300000 		.4byte	0x3076
 9375 3061 0F       		.uleb128 0xf
 9376 3062 660D0000 		.4byte	0xd66
 9377 3066 0F       		.uleb128 0xf
 9378 3067 2C000000 		.4byte	0x2c
 9379 306b 0F       		.uleb128 0xf
 9380 306c 76300000 		.4byte	0x3076
 9381 3070 0F       		.uleb128 0xf
 9382 3071 A8030000 		.4byte	0x3a8
 9383 3075 00       		.byte	0
 9384 3076 0C       		.uleb128 0xc
 9385 3077 04       		.byte	0x4
 9386 3078 7C300000 		.4byte	0x307c
 9387 307c 61       		.uleb128 0x61
 9388 307d 60       		.uleb128 0x60
 9389 307e 7D0F0000 		.4byte	.LASF319
 9390 3082 15       		.byte	0x15
 9391 3083 1501     		.2byte	0x115
 9392 3085 99300000 		.4byte	0x3099
 9393 3089 0F       		.uleb128 0xf
 9394 308a 660D0000 		.4byte	0xd66
 9395 308e 0F       		.uleb128 0xf
 9396 308f 2C000000 		.4byte	0x2c
 9397 3093 0F       		.uleb128 0xf
 9398 3094 A8030000 		.4byte	0x3a8
 9399 3098 00       		.byte	0
 9400 3099 60       		.uleb128 0x60
ARM GAS  /var/folders/m4/4md61f0s1_g0rzfghffqnxvr0000gn/T//ccmevqMd.s 			page 166


 9401 309a 40080000 		.4byte	.LASF320
 9402 309e 15       		.byte	0x15
 9403 309f 0B01     		.2byte	0x10b
 9404 30a1 AB300000 		.4byte	0x30ab
 9405 30a5 0F       		.uleb128 0xf
 9406 30a6 660D0000 		.4byte	0xd66
 9407 30aa 00       		.byte	0
 9408 30ab 60       		.uleb128 0x60
 9409 30ac 940E0000 		.4byte	.LASF321
 9410 30b0 15       		.byte	0x15
 9411 30b1 1401     		.2byte	0x114
 9412 30b3 C7300000 		.4byte	0x30c7
 9413 30b7 0F       		.uleb128 0xf
 9414 30b8 660D0000 		.4byte	0xd66
 9415 30bc 0F       		.uleb128 0xf
 9416 30bd 2C000000 		.4byte	0x2c
 9417 30c1 0F       		.uleb128 0xf
 9418 30c2 76300000 		.4byte	0x3076
 9419 30c6 00       		.byte	0
 9420 30c7 60       		.uleb128 0x60
 9421 30c8 9A010000 		.4byte	.LASF322
 9422 30cc 12       		.byte	0x12
 9423 30cd 2402     		.2byte	0x224
 9424 30cf E3300000 		.4byte	0x30e3
 9425 30d3 0F       		.uleb128 0xf
 9426 30d4 6D0B0000 		.4byte	0xb6d
 9427 30d8 0F       		.uleb128 0xf
 9428 30d9 550B0000 		.4byte	0xb55
 9429 30dd 0F       		.uleb128 0xf
 9430 30de 610B0000 		.4byte	0xb61
 9431 30e2 00       		.byte	0
 9432 30e3 60       		.uleb128 0x60
 9433 30e4 1F000000 		.4byte	.LASF323
 9434 30e8 15       		.byte	0x15
 9435 30e9 0801     		.2byte	0x108
 9436 30eb FA300000 		.4byte	0x30fa
 9437 30ef 0F       		.uleb128 0xf
 9438 30f0 660D0000 		.4byte	0xd66
 9439 30f4 0F       		.uleb128 0xf
 9440 30f5 BA0D0000 		.4byte	0xdba
 9441 30f9 00       		.byte	0
 9442 30fa 5F       		.uleb128 0x5f
 9443 30fb 13030000 		.4byte	.LASF324
 9444 30ff 13       		.byte	0x13
 9445 3100 87       		.byte	0x87
 9446 3101 10310000 		.4byte	0x3110
 9447 3105 0F       		.uleb128 0xf
 9448 3106 100C0000 		.4byte	0xc10
 9449 310a 0F       		.uleb128 0xf
 9450 310b 790C0000 		.4byte	0xc79
 9451 310f 00       		.byte	0
 9452 3110 5F       		.uleb128 0x5f
 9453 3111 FE030000 		.4byte	.LASF325
 9454 3115 13       		.byte	0x13
 9455 3116 89       		.byte	0x89
 9456 3117 26310000 		.4byte	0x3126
 9457 311b 0F       		.uleb128 0xf
ARM GAS  /var/folders/m4/4md61f0s1_g0rzfghffqnxvr0000gn/T//ccmevqMd.s 			page 167


 9458 311c 100C0000 		.4byte	0xc10
 9459 3120 0F       		.uleb128 0xf
 9460 3121 E40B0000 		.4byte	0xbe4
 9461 3125 00       		.byte	0
 9462 3126 5F       		.uleb128 0x5f
 9463 3127 C2070000 		.4byte	.LASF326
 9464 312b 03       		.byte	0x3
 9465 312c 7B       		.byte	0x7b
 9466 312d 46310000 		.4byte	0x3146
 9467 3131 0F       		.uleb128 0xf
 9468 3132 8E0F0000 		.4byte	0xf8e
 9469 3136 0F       		.uleb128 0xf
 9470 3137 E1080000 		.4byte	0x8e1
 9471 313b 0F       		.uleb128 0xf
 9472 313c 27010000 		.4byte	0x127
 9473 3140 0F       		.uleb128 0xf
 9474 3141 32010000 		.4byte	0x132
 9475 3145 00       		.byte	0
 9476 3146 5F       		.uleb128 0x5f
 9477 3147 7E060000 		.4byte	.LASF327
 9478 314b 03       		.byte	0x3
 9479 314c 86       		.byte	0x86
 9480 314d 5C310000 		.4byte	0x315c
 9481 3151 0F       		.uleb128 0xf
 9482 3152 8E0F0000 		.4byte	0xf8e
 9483 3156 0F       		.uleb128 0xf
 9484 3157 32010000 		.4byte	0x132
 9485 315b 00       		.byte	0
 9486 315c 62       		.uleb128 0x62
 9487 315d E10C0000 		.4byte	.LASF329
 9488 3161 03       		.byte	0x3
 9489 3162 8F       		.byte	0x8f
 9490 3163 27010000 		.4byte	0x127
 9491 3167 76310000 		.4byte	0x3176
 9492 316b 0F       		.uleb128 0xf
 9493 316c 27010000 		.4byte	0x127
 9494 3170 0F       		.uleb128 0xf
 9495 3171 48010000 		.4byte	0x148
 9496 3175 00       		.byte	0
 9497 3176 63       		.uleb128 0x63
 9498 3177 650E0000 		.4byte	.LASF336
 9499 317b 03       		.byte	0x3
 9500 317c 7F       		.byte	0x7f
 9501 317d 0F       		.uleb128 0xf
 9502 317e 8E0F0000 		.4byte	0xf8e
 9503 3182 0F       		.uleb128 0xf
 9504 3183 E1080000 		.4byte	0x8e1
 9505 3187 00       		.byte	0
 9506 3188 00       		.byte	0
 9507              		.section	.debug_abbrev,"",%progbits
 9508              	.Ldebug_abbrev0:
 9509 0000 01       		.uleb128 0x1
 9510 0001 11       		.uleb128 0x11
 9511 0002 01       		.byte	0x1
 9512 0003 25       		.uleb128 0x25
 9513 0004 0E       		.uleb128 0xe
 9514 0005 13       		.uleb128 0x13
ARM GAS  /var/folders/m4/4md61f0s1_g0rzfghffqnxvr0000gn/T//ccmevqMd.s 			page 168


 9515 0006 0B       		.uleb128 0xb
 9516 0007 03       		.uleb128 0x3
 9517 0008 0E       		.uleb128 0xe
 9518 0009 1B       		.uleb128 0x1b
 9519 000a 0E       		.uleb128 0xe
 9520 000b 55       		.uleb128 0x55
 9521 000c 17       		.uleb128 0x17
 9522 000d 11       		.uleb128 0x11
 9523 000e 01       		.uleb128 0x1
 9524 000f 10       		.uleb128 0x10
 9525 0010 17       		.uleb128 0x17
 9526 0011 00       		.byte	0
 9527 0012 00       		.byte	0
 9528 0013 02       		.uleb128 0x2
 9529 0014 24       		.uleb128 0x24
 9530 0015 00       		.byte	0
 9531 0016 0B       		.uleb128 0xb
 9532 0017 0B       		.uleb128 0xb
 9533 0018 3E       		.uleb128 0x3e
 9534 0019 0B       		.uleb128 0xb
 9535 001a 03       		.uleb128 0x3
 9536 001b 08       		.uleb128 0x8
 9537 001c 00       		.byte	0
 9538 001d 00       		.byte	0
 9539 001e 03       		.uleb128 0x3
 9540 001f 16       		.uleb128 0x16
 9541 0020 00       		.byte	0
 9542 0021 03       		.uleb128 0x3
 9543 0022 0E       		.uleb128 0xe
 9544 0023 3A       		.uleb128 0x3a
 9545 0024 0B       		.uleb128 0xb
 9546 0025 3B       		.uleb128 0x3b
 9547 0026 0B       		.uleb128 0xb
 9548 0027 49       		.uleb128 0x49
 9549 0028 13       		.uleb128 0x13
 9550 0029 00       		.byte	0
 9551 002a 00       		.byte	0
 9552 002b 04       		.uleb128 0x4
 9553 002c 24       		.uleb128 0x24
 9554 002d 00       		.byte	0
 9555 002e 0B       		.uleb128 0xb
 9556 002f 0B       		.uleb128 0xb
 9557 0030 3E       		.uleb128 0x3e
 9558 0031 0B       		.uleb128 0xb
 9559 0032 03       		.uleb128 0x3
 9560 0033 0E       		.uleb128 0xe
 9561 0034 00       		.byte	0
 9562 0035 00       		.byte	0
 9563 0036 05       		.uleb128 0x5
 9564 0037 3B       		.uleb128 0x3b
 9565 0038 00       		.byte	0
 9566 0039 03       		.uleb128 0x3
 9567 003a 0E       		.uleb128 0xe
 9568 003b 00       		.byte	0
 9569 003c 00       		.byte	0
 9570 003d 06       		.uleb128 0x6
 9571 003e 13       		.uleb128 0x13
ARM GAS  /var/folders/m4/4md61f0s1_g0rzfghffqnxvr0000gn/T//ccmevqMd.s 			page 169


 9572 003f 01       		.byte	0x1
 9573 0040 03       		.uleb128 0x3
 9574 0041 0E       		.uleb128 0xe
 9575 0042 0B       		.uleb128 0xb
 9576 0043 0B       		.uleb128 0xb
 9577 0044 3A       		.uleb128 0x3a
 9578 0045 0B       		.uleb128 0xb
 9579 0046 3B       		.uleb128 0x3b
 9580 0047 0B       		.uleb128 0xb
 9581 0048 01       		.uleb128 0x1
 9582 0049 13       		.uleb128 0x13
 9583 004a 00       		.byte	0
 9584 004b 00       		.byte	0
 9585 004c 07       		.uleb128 0x7
 9586 004d 17       		.uleb128 0x17
 9587 004e 01       		.byte	0x1
 9588 004f 0B       		.uleb128 0xb
 9589 0050 0B       		.uleb128 0xb
 9590 0051 3A       		.uleb128 0x3a
 9591 0052 0B       		.uleb128 0xb
 9592 0053 3B       		.uleb128 0x3b
 9593 0054 0B       		.uleb128 0xb
 9594 0055 01       		.uleb128 0x1
 9595 0056 13       		.uleb128 0x13
 9596 0057 00       		.byte	0
 9597 0058 00       		.byte	0
 9598 0059 08       		.uleb128 0x8
 9599 005a 0D       		.uleb128 0xd
 9600 005b 00       		.byte	0
 9601 005c 03       		.uleb128 0x3
 9602 005d 0E       		.uleb128 0xe
 9603 005e 3A       		.uleb128 0x3a
 9604 005f 0B       		.uleb128 0xb
 9605 0060 3B       		.uleb128 0x3b
 9606 0061 05       		.uleb128 0x5
 9607 0062 49       		.uleb128 0x49
 9608 0063 13       		.uleb128 0x13
 9609 0064 00       		.byte	0
 9610 0065 00       		.byte	0
 9611 0066 09       		.uleb128 0x9
 9612 0067 0D       		.uleb128 0xd
 9613 0068 00       		.byte	0
 9614 0069 03       		.uleb128 0x3
 9615 006a 0E       		.uleb128 0xe
 9616 006b 3A       		.uleb128 0x3a
 9617 006c 0B       		.uleb128 0xb
 9618 006d 3B       		.uleb128 0x3b
 9619 006e 0B       		.uleb128 0xb
 9620 006f 49       		.uleb128 0x49
 9621 0070 13       		.uleb128 0x13
 9622 0071 38       		.uleb128 0x38
 9623 0072 0B       		.uleb128 0xb
 9624 0073 00       		.byte	0
 9625 0074 00       		.byte	0
 9626 0075 0A       		.uleb128 0xa
 9627 0076 0D       		.uleb128 0xd
 9628 0077 00       		.byte	0
ARM GAS  /var/folders/m4/4md61f0s1_g0rzfghffqnxvr0000gn/T//ccmevqMd.s 			page 170


 9629 0078 03       		.uleb128 0x3
 9630 0079 08       		.uleb128 0x8
 9631 007a 3A       		.uleb128 0x3a
 9632 007b 0B       		.uleb128 0xb
 9633 007c 3B       		.uleb128 0x3b
 9634 007d 05       		.uleb128 0x5
 9635 007e 49       		.uleb128 0x49
 9636 007f 13       		.uleb128 0x13
 9637 0080 38       		.uleb128 0x38
 9638 0081 0B       		.uleb128 0xb
 9639 0082 00       		.byte	0
 9640 0083 00       		.byte	0
 9641 0084 0B       		.uleb128 0xb
 9642 0085 0D       		.uleb128 0xd
 9643 0086 00       		.byte	0
 9644 0087 03       		.uleb128 0x3
 9645 0088 0E       		.uleb128 0xe
 9646 0089 3A       		.uleb128 0x3a
 9647 008a 0B       		.uleb128 0xb
 9648 008b 3B       		.uleb128 0x3b
 9649 008c 05       		.uleb128 0x5
 9650 008d 49       		.uleb128 0x49
 9651 008e 13       		.uleb128 0x13
 9652 008f 38       		.uleb128 0x38
 9653 0090 0B       		.uleb128 0xb
 9654 0091 00       		.byte	0
 9655 0092 00       		.byte	0
 9656 0093 0C       		.uleb128 0xc
 9657 0094 0F       		.uleb128 0xf
 9658 0095 00       		.byte	0
 9659 0096 0B       		.uleb128 0xb
 9660 0097 0B       		.uleb128 0xb
 9661 0098 49       		.uleb128 0x49
 9662 0099 13       		.uleb128 0x13
 9663 009a 00       		.byte	0
 9664 009b 00       		.byte	0
 9665 009c 0D       		.uleb128 0xd
 9666 009d 13       		.uleb128 0x13
 9667 009e 01       		.byte	0x1
 9668 009f 03       		.uleb128 0x3
 9669 00a0 0E       		.uleb128 0xe
 9670 00a1 0B       		.uleb128 0xb
 9671 00a2 0B       		.uleb128 0xb
 9672 00a3 3A       		.uleb128 0x3a
 9673 00a4 0B       		.uleb128 0xb
 9674 00a5 3B       		.uleb128 0x3b
 9675 00a6 05       		.uleb128 0x5
 9676 00a7 01       		.uleb128 0x1
 9677 00a8 13       		.uleb128 0x13
 9678 00a9 00       		.byte	0
 9679 00aa 00       		.byte	0
 9680 00ab 0E       		.uleb128 0xe
 9681 00ac 15       		.uleb128 0x15
 9682 00ad 01       		.byte	0x1
 9683 00ae 01       		.uleb128 0x1
 9684 00af 13       		.uleb128 0x13
 9685 00b0 00       		.byte	0
ARM GAS  /var/folders/m4/4md61f0s1_g0rzfghffqnxvr0000gn/T//ccmevqMd.s 			page 171


 9686 00b1 00       		.byte	0
 9687 00b2 0F       		.uleb128 0xf
 9688 00b3 05       		.uleb128 0x5
 9689 00b4 00       		.byte	0
 9690 00b5 49       		.uleb128 0x49
 9691 00b6 13       		.uleb128 0x13
 9692 00b7 00       		.byte	0
 9693 00b8 00       		.byte	0
 9694 00b9 10       		.uleb128 0x10
 9695 00ba 0F       		.uleb128 0xf
 9696 00bb 00       		.byte	0
 9697 00bc 0B       		.uleb128 0xb
 9698 00bd 0B       		.uleb128 0xb
 9699 00be 00       		.byte	0
 9700 00bf 00       		.byte	0
 9701 00c0 11       		.uleb128 0x11
 9702 00c1 13       		.uleb128 0x13
 9703 00c2 01       		.byte	0x1
 9704 00c3 03       		.uleb128 0x3
 9705 00c4 0E       		.uleb128 0xe
 9706 00c5 0B       		.uleb128 0xb
 9707 00c6 05       		.uleb128 0x5
 9708 00c7 3A       		.uleb128 0x3a
 9709 00c8 0B       		.uleb128 0xb
 9710 00c9 3B       		.uleb128 0x3b
 9711 00ca 05       		.uleb128 0x5
 9712 00cb 01       		.uleb128 0x1
 9713 00cc 13       		.uleb128 0x13
 9714 00cd 00       		.byte	0
 9715 00ce 00       		.byte	0
 9716 00cf 12       		.uleb128 0x12
 9717 00d0 35       		.uleb128 0x35
 9718 00d1 00       		.byte	0
 9719 00d2 49       		.uleb128 0x49
 9720 00d3 13       		.uleb128 0x13
 9721 00d4 00       		.byte	0
 9722 00d5 00       		.byte	0
 9723 00d6 13       		.uleb128 0x13
 9724 00d7 13       		.uleb128 0x13
 9725 00d8 01       		.byte	0x1
 9726 00d9 0B       		.uleb128 0xb
 9727 00da 0B       		.uleb128 0xb
 9728 00db 3A       		.uleb128 0x3a
 9729 00dc 0B       		.uleb128 0xb
 9730 00dd 3B       		.uleb128 0x3b
 9731 00de 05       		.uleb128 0x5
 9732 00df 6E       		.uleb128 0x6e
 9733 00e0 0E       		.uleb128 0xe
 9734 00e1 01       		.uleb128 0x1
 9735 00e2 13       		.uleb128 0x13
 9736 00e3 00       		.byte	0
 9737 00e4 00       		.byte	0
 9738 00e5 14       		.uleb128 0x14
 9739 00e6 16       		.uleb128 0x16
 9740 00e7 00       		.byte	0
 9741 00e8 03       		.uleb128 0x3
 9742 00e9 0E       		.uleb128 0xe
ARM GAS  /var/folders/m4/4md61f0s1_g0rzfghffqnxvr0000gn/T//ccmevqMd.s 			page 172


 9743 00ea 3A       		.uleb128 0x3a
 9744 00eb 0B       		.uleb128 0xb
 9745 00ec 3B       		.uleb128 0x3b
 9746 00ed 05       		.uleb128 0x5
 9747 00ee 49       		.uleb128 0x49
 9748 00ef 13       		.uleb128 0x13
 9749 00f0 00       		.byte	0
 9750 00f1 00       		.byte	0
 9751 00f2 15       		.uleb128 0x15
 9752 00f3 04       		.uleb128 0x4
 9753 00f4 01       		.byte	0x1
 9754 00f5 0B       		.uleb128 0xb
 9755 00f6 0B       		.uleb128 0xb
 9756 00f7 3A       		.uleb128 0x3a
 9757 00f8 0B       		.uleb128 0xb
 9758 00f9 3B       		.uleb128 0x3b
 9759 00fa 0B       		.uleb128 0xb
 9760 00fb 6E       		.uleb128 0x6e
 9761 00fc 0E       		.uleb128 0xe
 9762 00fd 01       		.uleb128 0x1
 9763 00fe 13       		.uleb128 0x13
 9764 00ff 00       		.byte	0
 9765 0100 00       		.byte	0
 9766 0101 16       		.uleb128 0x16
 9767 0102 28       		.uleb128 0x28
 9768 0103 00       		.byte	0
 9769 0104 03       		.uleb128 0x3
 9770 0105 0E       		.uleb128 0xe
 9771 0106 1C       		.uleb128 0x1c
 9772 0107 0D       		.uleb128 0xd
 9773 0108 00       		.byte	0
 9774 0109 00       		.byte	0
 9775 010a 17       		.uleb128 0x17
 9776 010b 28       		.uleb128 0x28
 9777 010c 00       		.byte	0
 9778 010d 03       		.uleb128 0x3
 9779 010e 08       		.uleb128 0x8
 9780 010f 1C       		.uleb128 0x1c
 9781 0110 0D       		.uleb128 0xd
 9782 0111 00       		.byte	0
 9783 0112 00       		.byte	0
 9784 0113 18       		.uleb128 0x18
 9785 0114 0D       		.uleb128 0xd
 9786 0115 00       		.byte	0
 9787 0116 03       		.uleb128 0x3
 9788 0117 08       		.uleb128 0x8
 9789 0118 3A       		.uleb128 0x3a
 9790 0119 0B       		.uleb128 0xb
 9791 011a 3B       		.uleb128 0x3b
 9792 011b 0B       		.uleb128 0xb
 9793 011c 49       		.uleb128 0x49
 9794 011d 13       		.uleb128 0x13
 9795 011e 38       		.uleb128 0x38
 9796 011f 0B       		.uleb128 0xb
 9797 0120 00       		.byte	0
 9798 0121 00       		.byte	0
 9799 0122 19       		.uleb128 0x19
ARM GAS  /var/folders/m4/4md61f0s1_g0rzfghffqnxvr0000gn/T//ccmevqMd.s 			page 173


 9800 0123 13       		.uleb128 0x13
 9801 0124 01       		.byte	0x1
 9802 0125 0B       		.uleb128 0xb
 9803 0126 0B       		.uleb128 0xb
 9804 0127 3A       		.uleb128 0x3a
 9805 0128 0B       		.uleb128 0xb
 9806 0129 3B       		.uleb128 0x3b
 9807 012a 0B       		.uleb128 0xb
 9808 012b 6E       		.uleb128 0x6e
 9809 012c 0E       		.uleb128 0xe
 9810 012d 01       		.uleb128 0x1
 9811 012e 13       		.uleb128 0x13
 9812 012f 00       		.byte	0
 9813 0130 00       		.byte	0
 9814 0131 1A       		.uleb128 0x1a
 9815 0132 26       		.uleb128 0x26
 9816 0133 00       		.byte	0
 9817 0134 49       		.uleb128 0x49
 9818 0135 13       		.uleb128 0x13
 9819 0136 00       		.byte	0
 9820 0137 00       		.byte	0
 9821 0138 1B       		.uleb128 0x1b
 9822 0139 01       		.uleb128 0x1
 9823 013a 01       		.byte	0x1
 9824 013b 49       		.uleb128 0x49
 9825 013c 13       		.uleb128 0x13
 9826 013d 01       		.uleb128 0x1
 9827 013e 13       		.uleb128 0x13
 9828 013f 00       		.byte	0
 9829 0140 00       		.byte	0
 9830 0141 1C       		.uleb128 0x1c
 9831 0142 21       		.uleb128 0x21
 9832 0143 00       		.byte	0
 9833 0144 49       		.uleb128 0x49
 9834 0145 13       		.uleb128 0x13
 9835 0146 2F       		.uleb128 0x2f
 9836 0147 0B       		.uleb128 0xb
 9837 0148 00       		.byte	0
 9838 0149 00       		.byte	0
 9839 014a 1D       		.uleb128 0x1d
 9840 014b 15       		.uleb128 0x15
 9841 014c 01       		.byte	0x1
 9842 014d 49       		.uleb128 0x49
 9843 014e 13       		.uleb128 0x13
 9844 014f 01       		.uleb128 0x1
 9845 0150 13       		.uleb128 0x13
 9846 0151 00       		.byte	0
 9847 0152 00       		.byte	0
 9848 0153 1E       		.uleb128 0x1e
 9849 0154 13       		.uleb128 0x13
 9850 0155 01       		.byte	0x1
 9851 0156 0B       		.uleb128 0xb
 9852 0157 0B       		.uleb128 0xb
 9853 0158 3A       		.uleb128 0x3a
 9854 0159 0B       		.uleb128 0xb
 9855 015a 3B       		.uleb128 0x3b
 9856 015b 0B       		.uleb128 0xb
ARM GAS  /var/folders/m4/4md61f0s1_g0rzfghffqnxvr0000gn/T//ccmevqMd.s 			page 174


 9857 015c 01       		.uleb128 0x1
 9858 015d 13       		.uleb128 0x13
 9859 015e 00       		.byte	0
 9860 015f 00       		.byte	0
 9861 0160 1F       		.uleb128 0x1f
 9862 0161 0D       		.uleb128 0xd
 9863 0162 00       		.byte	0
 9864 0163 03       		.uleb128 0x3
 9865 0164 08       		.uleb128 0x8
 9866 0165 3A       		.uleb128 0x3a
 9867 0166 0B       		.uleb128 0xb
 9868 0167 3B       		.uleb128 0x3b
 9869 0168 0B       		.uleb128 0xb
 9870 0169 49       		.uleb128 0x49
 9871 016a 13       		.uleb128 0x13
 9872 016b 00       		.byte	0
 9873 016c 00       		.byte	0
 9874 016d 20       		.uleb128 0x20
 9875 016e 13       		.uleb128 0x13
 9876 016f 01       		.byte	0x1
 9877 0170 03       		.uleb128 0x3
 9878 0171 0E       		.uleb128 0xe
 9879 0172 0B       		.uleb128 0xb
 9880 0173 05       		.uleb128 0x5
 9881 0174 3A       		.uleb128 0x3a
 9882 0175 0B       		.uleb128 0xb
 9883 0176 3B       		.uleb128 0x3b
 9884 0177 0B       		.uleb128 0xb
 9885 0178 01       		.uleb128 0x1
 9886 0179 13       		.uleb128 0x13
 9887 017a 00       		.byte	0
 9888 017b 00       		.byte	0
 9889 017c 21       		.uleb128 0x21
 9890 017d 0D       		.uleb128 0xd
 9891 017e 00       		.byte	0
 9892 017f 03       		.uleb128 0x3
 9893 0180 0E       		.uleb128 0xe
 9894 0181 3A       		.uleb128 0x3a
 9895 0182 0B       		.uleb128 0xb
 9896 0183 3B       		.uleb128 0x3b
 9897 0184 0B       		.uleb128 0xb
 9898 0185 49       		.uleb128 0x49
 9899 0186 13       		.uleb128 0x13
 9900 0187 38       		.uleb128 0x38
 9901 0188 05       		.uleb128 0x5
 9902 0189 00       		.byte	0
 9903 018a 00       		.byte	0
 9904 018b 22       		.uleb128 0x22
 9905 018c 2E       		.uleb128 0x2e
 9906 018d 01       		.byte	0x1
 9907 018e 03       		.uleb128 0x3
 9908 018f 0E       		.uleb128 0xe
 9909 0190 3A       		.uleb128 0x3a
 9910 0191 0B       		.uleb128 0xb
 9911 0192 3B       		.uleb128 0x3b
 9912 0193 05       		.uleb128 0x5
 9913 0194 20       		.uleb128 0x20
ARM GAS  /var/folders/m4/4md61f0s1_g0rzfghffqnxvr0000gn/T//ccmevqMd.s 			page 175


 9914 0195 0B       		.uleb128 0xb
 9915 0196 01       		.uleb128 0x1
 9916 0197 13       		.uleb128 0x13
 9917 0198 00       		.byte	0
 9918 0199 00       		.byte	0
 9919 019a 23       		.uleb128 0x23
 9920 019b 05       		.uleb128 0x5
 9921 019c 00       		.byte	0
 9922 019d 03       		.uleb128 0x3
 9923 019e 0E       		.uleb128 0xe
 9924 019f 3A       		.uleb128 0x3a
 9925 01a0 0B       		.uleb128 0xb
 9926 01a1 3B       		.uleb128 0x3b
 9927 01a2 05       		.uleb128 0x5
 9928 01a3 49       		.uleb128 0x49
 9929 01a4 13       		.uleb128 0x13
 9930 01a5 00       		.byte	0
 9931 01a6 00       		.byte	0
 9932 01a7 24       		.uleb128 0x24
 9933 01a8 2E       		.uleb128 0x2e
 9934 01a9 00       		.byte	0
 9935 01aa 03       		.uleb128 0x3
 9936 01ab 0E       		.uleb128 0xe
 9937 01ac 3A       		.uleb128 0x3a
 9938 01ad 0B       		.uleb128 0xb
 9939 01ae 3B       		.uleb128 0x3b
 9940 01af 05       		.uleb128 0x5
 9941 01b0 20       		.uleb128 0x20
 9942 01b1 0B       		.uleb128 0xb
 9943 01b2 00       		.byte	0
 9944 01b3 00       		.byte	0
 9945 01b4 25       		.uleb128 0x25
 9946 01b5 2E       		.uleb128 0x2e
 9947 01b6 01       		.byte	0x1
 9948 01b7 03       		.uleb128 0x3
 9949 01b8 0E       		.uleb128 0xe
 9950 01b9 3A       		.uleb128 0x3a
 9951 01ba 0B       		.uleb128 0xb
 9952 01bb 3B       		.uleb128 0x3b
 9953 01bc 0B       		.uleb128 0xb
 9954 01bd 20       		.uleb128 0x20
 9955 01be 0B       		.uleb128 0xb
 9956 01bf 01       		.uleb128 0x1
 9957 01c0 13       		.uleb128 0x13
 9958 01c1 00       		.byte	0
 9959 01c2 00       		.byte	0
 9960 01c3 26       		.uleb128 0x26
 9961 01c4 05       		.uleb128 0x5
 9962 01c5 00       		.byte	0
 9963 01c6 03       		.uleb128 0x3
 9964 01c7 08       		.uleb128 0x8
 9965 01c8 3A       		.uleb128 0x3a
 9966 01c9 0B       		.uleb128 0xb
 9967 01ca 3B       		.uleb128 0x3b
 9968 01cb 0B       		.uleb128 0xb
 9969 01cc 49       		.uleb128 0x49
 9970 01cd 13       		.uleb128 0x13
ARM GAS  /var/folders/m4/4md61f0s1_g0rzfghffqnxvr0000gn/T//ccmevqMd.s 			page 176


 9971 01ce 00       		.byte	0
 9972 01cf 00       		.byte	0
 9973 01d0 27       		.uleb128 0x27
 9974 01d1 2E       		.uleb128 0x2e
 9975 01d2 01       		.byte	0x1
 9976 01d3 3F       		.uleb128 0x3f
 9977 01d4 19       		.uleb128 0x19
 9978 01d5 03       		.uleb128 0x3
 9979 01d6 0E       		.uleb128 0xe
 9980 01d7 3A       		.uleb128 0x3a
 9981 01d8 0B       		.uleb128 0xb
 9982 01d9 3B       		.uleb128 0x3b
 9983 01da 05       		.uleb128 0x5
 9984 01db 20       		.uleb128 0x20
 9985 01dc 0B       		.uleb128 0xb
 9986 01dd 01       		.uleb128 0x1
 9987 01de 13       		.uleb128 0x13
 9988 01df 00       		.byte	0
 9989 01e0 00       		.byte	0
 9990 01e1 28       		.uleb128 0x28
 9991 01e2 0B       		.uleb128 0xb
 9992 01e3 01       		.byte	0x1
 9993 01e4 00       		.byte	0
 9994 01e5 00       		.byte	0
 9995 01e6 29       		.uleb128 0x29
 9996 01e7 34       		.uleb128 0x34
 9997 01e8 00       		.byte	0
 9998 01e9 03       		.uleb128 0x3
 9999 01ea 08       		.uleb128 0x8
 10000 01eb 3A       		.uleb128 0x3a
 10001 01ec 0B       		.uleb128 0xb
 10002 01ed 3B       		.uleb128 0x3b
 10003 01ee 05       		.uleb128 0x5
 10004 01ef 49       		.uleb128 0x49
 10005 01f0 13       		.uleb128 0x13
 10006 01f1 00       		.byte	0
 10007 01f2 00       		.byte	0
 10008 01f3 2A       		.uleb128 0x2a
 10009 01f4 34       		.uleb128 0x34
 10010 01f5 00       		.byte	0
 10011 01f6 03       		.uleb128 0x3
 10012 01f7 0E       		.uleb128 0xe
 10013 01f8 3A       		.uleb128 0x3a
 10014 01f9 0B       		.uleb128 0xb
 10015 01fa 3B       		.uleb128 0x3b
 10016 01fb 05       		.uleb128 0x5
 10017 01fc 49       		.uleb128 0x49
 10018 01fd 13       		.uleb128 0x13
 10019 01fe 00       		.byte	0
 10020 01ff 00       		.byte	0
 10021 0200 2B       		.uleb128 0x2b
 10022 0201 05       		.uleb128 0x5
 10023 0202 00       		.byte	0
 10024 0203 03       		.uleb128 0x3
 10025 0204 08       		.uleb128 0x8
 10026 0205 3A       		.uleb128 0x3a
 10027 0206 0B       		.uleb128 0xb
ARM GAS  /var/folders/m4/4md61f0s1_g0rzfghffqnxvr0000gn/T//ccmevqMd.s 			page 177


 10028 0207 3B       		.uleb128 0x3b
 10029 0208 05       		.uleb128 0x5
 10030 0209 49       		.uleb128 0x49
 10031 020a 13       		.uleb128 0x13
 10032 020b 00       		.byte	0
 10033 020c 00       		.byte	0
 10034 020d 2C       		.uleb128 0x2c
 10035 020e 05       		.uleb128 0x5
 10036 020f 00       		.byte	0
 10037 0210 03       		.uleb128 0x3
 10038 0211 0E       		.uleb128 0xe
 10039 0212 3A       		.uleb128 0x3a
 10040 0213 0B       		.uleb128 0xb
 10041 0214 3B       		.uleb128 0x3b
 10042 0215 0B       		.uleb128 0xb
 10043 0216 49       		.uleb128 0x49
 10044 0217 13       		.uleb128 0x13
 10045 0218 00       		.byte	0
 10046 0219 00       		.byte	0
 10047 021a 2D       		.uleb128 0x2d
 10048 021b 2E       		.uleb128 0x2e
 10049 021c 01       		.byte	0x1
 10050 021d 3F       		.uleb128 0x3f
 10051 021e 19       		.uleb128 0x19
 10052 021f 03       		.uleb128 0x3
 10053 0220 0E       		.uleb128 0xe
 10054 0221 3A       		.uleb128 0x3a
 10055 0222 0B       		.uleb128 0xb
 10056 0223 3B       		.uleb128 0x3b
 10057 0224 05       		.uleb128 0x5
 10058 0225 49       		.uleb128 0x49
 10059 0226 13       		.uleb128 0x13
 10060 0227 20       		.uleb128 0x20
 10061 0228 0B       		.uleb128 0xb
 10062 0229 01       		.uleb128 0x1
 10063 022a 13       		.uleb128 0x13
 10064 022b 00       		.byte	0
 10065 022c 00       		.byte	0
 10066 022d 2E       		.uleb128 0x2e
 10067 022e 2E       		.uleb128 0x2e
 10068 022f 01       		.byte	0x1
 10069 0230 03       		.uleb128 0x3
 10070 0231 0E       		.uleb128 0xe
 10071 0232 3A       		.uleb128 0x3a
 10072 0233 0B       		.uleb128 0xb
 10073 0234 3B       		.uleb128 0x3b
 10074 0235 0B       		.uleb128 0xb
 10075 0236 49       		.uleb128 0x49
 10076 0237 13       		.uleb128 0x13
 10077 0238 20       		.uleb128 0x20
 10078 0239 0B       		.uleb128 0xb
 10079 023a 01       		.uleb128 0x1
 10080 023b 13       		.uleb128 0x13
 10081 023c 00       		.byte	0
 10082 023d 00       		.byte	0
 10083 023e 2F       		.uleb128 0x2f
 10084 023f 0B       		.uleb128 0xb
ARM GAS  /var/folders/m4/4md61f0s1_g0rzfghffqnxvr0000gn/T//ccmevqMd.s 			page 178


 10085 0240 01       		.byte	0x1
 10086 0241 01       		.uleb128 0x1
 10087 0242 13       		.uleb128 0x13
 10088 0243 00       		.byte	0
 10089 0244 00       		.byte	0
 10090 0245 30       		.uleb128 0x30
 10091 0246 2E       		.uleb128 0x2e
 10092 0247 01       		.byte	0x1
 10093 0248 03       		.uleb128 0x3
 10094 0249 0E       		.uleb128 0xe
 10095 024a 3A       		.uleb128 0x3a
 10096 024b 0B       		.uleb128 0xb
 10097 024c 3B       		.uleb128 0x3b
 10098 024d 0B       		.uleb128 0xb
 10099 024e 11       		.uleb128 0x11
 10100 024f 01       		.uleb128 0x1
 10101 0250 12       		.uleb128 0x12
 10102 0251 06       		.uleb128 0x6
 10103 0252 40       		.uleb128 0x40
 10104 0253 18       		.uleb128 0x18
 10105 0254 9742     		.uleb128 0x2117
 10106 0256 19       		.uleb128 0x19
 10107 0257 01       		.uleb128 0x1
 10108 0258 13       		.uleb128 0x13
 10109 0259 00       		.byte	0
 10110 025a 00       		.byte	0
 10111 025b 31       		.uleb128 0x31
 10112 025c 05       		.uleb128 0x5
 10113 025d 00       		.byte	0
 10114 025e 03       		.uleb128 0x3
 10115 025f 0E       		.uleb128 0xe
 10116 0260 3A       		.uleb128 0x3a
 10117 0261 0B       		.uleb128 0xb
 10118 0262 3B       		.uleb128 0x3b
 10119 0263 0B       		.uleb128 0xb
 10120 0264 49       		.uleb128 0x49
 10121 0265 13       		.uleb128 0x13
 10122 0266 02       		.uleb128 0x2
 10123 0267 17       		.uleb128 0x17
 10124 0268 00       		.byte	0
 10125 0269 00       		.byte	0
 10126 026a 32       		.uleb128 0x32
 10127 026b 1D       		.uleb128 0x1d
 10128 026c 01       		.byte	0x1
 10129 026d 31       		.uleb128 0x31
 10130 026e 13       		.uleb128 0x13
 10131 026f 11       		.uleb128 0x11
 10132 0270 01       		.uleb128 0x1
 10133 0271 12       		.uleb128 0x12
 10134 0272 06       		.uleb128 0x6
 10135 0273 58       		.uleb128 0x58
 10136 0274 0B       		.uleb128 0xb
 10137 0275 59       		.uleb128 0x59
 10138 0276 0B       		.uleb128 0xb
 10139 0277 00       		.byte	0
 10140 0278 00       		.byte	0
 10141 0279 33       		.uleb128 0x33
ARM GAS  /var/folders/m4/4md61f0s1_g0rzfghffqnxvr0000gn/T//ccmevqMd.s 			page 179


 10142 027a 05       		.uleb128 0x5
 10143 027b 00       		.byte	0
 10144 027c 31       		.uleb128 0x31
 10145 027d 13       		.uleb128 0x13
 10146 027e 02       		.uleb128 0x2
 10147 027f 18       		.uleb128 0x18
 10148 0280 00       		.byte	0
 10149 0281 00       		.byte	0
 10150 0282 34       		.uleb128 0x34
 10151 0283 1D       		.uleb128 0x1d
 10152 0284 01       		.byte	0x1
 10153 0285 31       		.uleb128 0x31
 10154 0286 13       		.uleb128 0x13
 10155 0287 11       		.uleb128 0x11
 10156 0288 01       		.uleb128 0x1
 10157 0289 12       		.uleb128 0x12
 10158 028a 06       		.uleb128 0x6
 10159 028b 58       		.uleb128 0x58
 10160 028c 0B       		.uleb128 0xb
 10161 028d 59       		.uleb128 0x59
 10162 028e 05       		.uleb128 0x5
 10163 028f 01       		.uleb128 0x1
 10164 0290 13       		.uleb128 0x13
 10165 0291 00       		.byte	0
 10166 0292 00       		.byte	0
 10167 0293 35       		.uleb128 0x35
 10168 0294 1D       		.uleb128 0x1d
 10169 0295 01       		.byte	0x1
 10170 0296 31       		.uleb128 0x31
 10171 0297 13       		.uleb128 0x13
 10172 0298 11       		.uleb128 0x11
 10173 0299 01       		.uleb128 0x1
 10174 029a 12       		.uleb128 0x12
 10175 029b 06       		.uleb128 0x6
 10176 029c 58       		.uleb128 0x58
 10177 029d 0B       		.uleb128 0xb
 10178 029e 59       		.uleb128 0x59
 10179 029f 05       		.uleb128 0x5
 10180 02a0 00       		.byte	0
 10181 02a1 00       		.byte	0
 10182 02a2 36       		.uleb128 0x36
 10183 02a3 05       		.uleb128 0x5
 10184 02a4 00       		.byte	0
 10185 02a5 31       		.uleb128 0x31
 10186 02a6 13       		.uleb128 0x13
 10187 02a7 1C       		.uleb128 0x1c
 10188 02a8 0B       		.uleb128 0xb
 10189 02a9 00       		.byte	0
 10190 02aa 00       		.byte	0
 10191 02ab 37       		.uleb128 0x37
 10192 02ac 898201   		.uleb128 0x4109
 10193 02af 01       		.byte	0x1
 10194 02b0 11       		.uleb128 0x11
 10195 02b1 01       		.uleb128 0x1
 10196 02b2 31       		.uleb128 0x31
 10197 02b3 13       		.uleb128 0x13
 10198 02b4 00       		.byte	0
ARM GAS  /var/folders/m4/4md61f0s1_g0rzfghffqnxvr0000gn/T//ccmevqMd.s 			page 180


 10199 02b5 00       		.byte	0
 10200 02b6 38       		.uleb128 0x38
 10201 02b7 8A8201   		.uleb128 0x410a
 10202 02ba 00       		.byte	0
 10203 02bb 02       		.uleb128 0x2
 10204 02bc 18       		.uleb128 0x18
 10205 02bd 9142     		.uleb128 0x2111
 10206 02bf 18       		.uleb128 0x18
 10207 02c0 00       		.byte	0
 10208 02c1 00       		.byte	0
 10209 02c2 39       		.uleb128 0x39
 10210 02c3 2E       		.uleb128 0x2e
 10211 02c4 01       		.byte	0x1
 10212 02c5 31       		.uleb128 0x31
 10213 02c6 13       		.uleb128 0x13
 10214 02c7 11       		.uleb128 0x11
 10215 02c8 01       		.uleb128 0x1
 10216 02c9 12       		.uleb128 0x12
 10217 02ca 06       		.uleb128 0x6
 10218 02cb 40       		.uleb128 0x40
 10219 02cc 18       		.uleb128 0x18
 10220 02cd 9742     		.uleb128 0x2117
 10221 02cf 19       		.uleb128 0x19
 10222 02d0 01       		.uleb128 0x1
 10223 02d1 13       		.uleb128 0x13
 10224 02d2 00       		.byte	0
 10225 02d3 00       		.byte	0
 10226 02d4 3A       		.uleb128 0x3a
 10227 02d5 05       		.uleb128 0x5
 10228 02d6 00       		.byte	0
 10229 02d7 31       		.uleb128 0x31
 10230 02d8 13       		.uleb128 0x13
 10231 02d9 02       		.uleb128 0x2
 10232 02da 17       		.uleb128 0x17
 10233 02db 00       		.byte	0
 10234 02dc 00       		.byte	0
 10235 02dd 3B       		.uleb128 0x3b
 10236 02de 0B       		.uleb128 0xb
 10237 02df 01       		.byte	0x1
 10238 02e0 55       		.uleb128 0x55
 10239 02e1 17       		.uleb128 0x17
 10240 02e2 00       		.byte	0
 10241 02e3 00       		.byte	0
 10242 02e4 3C       		.uleb128 0x3c
 10243 02e5 34       		.uleb128 0x34
 10244 02e6 00       		.byte	0
 10245 02e7 31       		.uleb128 0x31
 10246 02e8 13       		.uleb128 0x13
 10247 02e9 02       		.uleb128 0x2
 10248 02ea 18       		.uleb128 0x18
 10249 02eb 00       		.byte	0
 10250 02ec 00       		.byte	0
 10251 02ed 3D       		.uleb128 0x3d
 10252 02ee 898201   		.uleb128 0x4109
 10253 02f1 00       		.byte	0
 10254 02f2 11       		.uleb128 0x11
 10255 02f3 01       		.uleb128 0x1
ARM GAS  /var/folders/m4/4md61f0s1_g0rzfghffqnxvr0000gn/T//ccmevqMd.s 			page 181


 10256 02f4 31       		.uleb128 0x31
 10257 02f5 13       		.uleb128 0x13
 10258 02f6 00       		.byte	0
 10259 02f7 00       		.byte	0
 10260 02f8 3E       		.uleb128 0x3e
 10261 02f9 898201   		.uleb128 0x4109
 10262 02fc 01       		.byte	0x1
 10263 02fd 11       		.uleb128 0x11
 10264 02fe 01       		.uleb128 0x1
 10265 02ff 31       		.uleb128 0x31
 10266 0300 13       		.uleb128 0x13
 10267 0301 01       		.uleb128 0x1
 10268 0302 13       		.uleb128 0x13
 10269 0303 00       		.byte	0
 10270 0304 00       		.byte	0
 10271 0305 3F       		.uleb128 0x3f
 10272 0306 2E       		.uleb128 0x2e
 10273 0307 01       		.byte	0x1
 10274 0308 31       		.uleb128 0x31
 10275 0309 13       		.uleb128 0x13
 10276 030a 6E       		.uleb128 0x6e
 10277 030b 0E       		.uleb128 0xe
 10278 030c 11       		.uleb128 0x11
 10279 030d 01       		.uleb128 0x1
 10280 030e 12       		.uleb128 0x12
 10281 030f 06       		.uleb128 0x6
 10282 0310 40       		.uleb128 0x40
 10283 0311 18       		.uleb128 0x18
 10284 0312 9742     		.uleb128 0x2117
 10285 0314 19       		.uleb128 0x19
 10286 0315 01       		.uleb128 0x1
 10287 0316 13       		.uleb128 0x13
 10288 0317 00       		.byte	0
 10289 0318 00       		.byte	0
 10290 0319 40       		.uleb128 0x40
 10291 031a 0B       		.uleb128 0xb
 10292 031b 01       		.byte	0x1
 10293 031c 11       		.uleb128 0x11
 10294 031d 01       		.uleb128 0x1
 10295 031e 12       		.uleb128 0x12
 10296 031f 06       		.uleb128 0x6
 10297 0320 01       		.uleb128 0x1
 10298 0321 13       		.uleb128 0x13
 10299 0322 00       		.byte	0
 10300 0323 00       		.byte	0
 10301 0324 41       		.uleb128 0x41
 10302 0325 34       		.uleb128 0x34
 10303 0326 00       		.byte	0
 10304 0327 31       		.uleb128 0x31
 10305 0328 13       		.uleb128 0x13
 10306 0329 02       		.uleb128 0x2
 10307 032a 17       		.uleb128 0x17
 10308 032b 00       		.byte	0
 10309 032c 00       		.byte	0
 10310 032d 42       		.uleb128 0x42
 10311 032e 2E       		.uleb128 0x2e
 10312 032f 01       		.byte	0x1
ARM GAS  /var/folders/m4/4md61f0s1_g0rzfghffqnxvr0000gn/T//ccmevqMd.s 			page 182


 10313 0330 3F       		.uleb128 0x3f
 10314 0331 19       		.uleb128 0x19
 10315 0332 03       		.uleb128 0x3
 10316 0333 0E       		.uleb128 0xe
 10317 0334 3A       		.uleb128 0x3a
 10318 0335 0B       		.uleb128 0xb
 10319 0336 3B       		.uleb128 0x3b
 10320 0337 05       		.uleb128 0x5
 10321 0338 6E       		.uleb128 0x6e
 10322 0339 0E       		.uleb128 0xe
 10323 033a 11       		.uleb128 0x11
 10324 033b 01       		.uleb128 0x1
 10325 033c 12       		.uleb128 0x12
 10326 033d 06       		.uleb128 0x6
 10327 033e 40       		.uleb128 0x40
 10328 033f 18       		.uleb128 0x18
 10329 0340 9742     		.uleb128 0x2117
 10330 0342 19       		.uleb128 0x19
 10331 0343 01       		.uleb128 0x1
 10332 0344 13       		.uleb128 0x13
 10333 0345 00       		.byte	0
 10334 0346 00       		.byte	0
 10335 0347 43       		.uleb128 0x43
 10336 0348 05       		.uleb128 0x5
 10337 0349 00       		.byte	0
 10338 034a 03       		.uleb128 0x3
 10339 034b 0E       		.uleb128 0xe
 10340 034c 3A       		.uleb128 0x3a
 10341 034d 0B       		.uleb128 0xb
 10342 034e 3B       		.uleb128 0x3b
 10343 034f 05       		.uleb128 0x5
 10344 0350 49       		.uleb128 0x49
 10345 0351 13       		.uleb128 0x13
 10346 0352 02       		.uleb128 0x2
 10347 0353 17       		.uleb128 0x17
 10348 0354 00       		.byte	0
 10349 0355 00       		.byte	0
 10350 0356 44       		.uleb128 0x44
 10351 0357 05       		.uleb128 0x5
 10352 0358 00       		.byte	0
 10353 0359 03       		.uleb128 0x3
 10354 035a 08       		.uleb128 0x8
 10355 035b 3A       		.uleb128 0x3a
 10356 035c 0B       		.uleb128 0xb
 10357 035d 3B       		.uleb128 0x3b
 10358 035e 05       		.uleb128 0x5
 10359 035f 49       		.uleb128 0x49
 10360 0360 13       		.uleb128 0x13
 10361 0361 02       		.uleb128 0x2
 10362 0362 17       		.uleb128 0x17
 10363 0363 00       		.byte	0
 10364 0364 00       		.byte	0
 10365 0365 45       		.uleb128 0x45
 10366 0366 34       		.uleb128 0x34
 10367 0367 00       		.byte	0
 10368 0368 03       		.uleb128 0x3
 10369 0369 08       		.uleb128 0x8
ARM GAS  /var/folders/m4/4md61f0s1_g0rzfghffqnxvr0000gn/T//ccmevqMd.s 			page 183


 10370 036a 3A       		.uleb128 0x3a
 10371 036b 0B       		.uleb128 0xb
 10372 036c 3B       		.uleb128 0x3b
 10373 036d 05       		.uleb128 0x5
 10374 036e 49       		.uleb128 0x49
 10375 036f 13       		.uleb128 0x13
 10376 0370 02       		.uleb128 0x2
 10377 0371 18       		.uleb128 0x18
 10378 0372 00       		.byte	0
 10379 0373 00       		.byte	0
 10380 0374 46       		.uleb128 0x46
 10381 0375 2E       		.uleb128 0x2e
 10382 0376 01       		.byte	0x1
 10383 0377 3F       		.uleb128 0x3f
 10384 0378 19       		.uleb128 0x19
 10385 0379 03       		.uleb128 0x3
 10386 037a 0E       		.uleb128 0xe
 10387 037b 3A       		.uleb128 0x3a
 10388 037c 0B       		.uleb128 0xb
 10389 037d 3B       		.uleb128 0x3b
 10390 037e 05       		.uleb128 0x5
 10391 037f 6E       		.uleb128 0x6e
 10392 0380 0E       		.uleb128 0xe
 10393 0381 49       		.uleb128 0x49
 10394 0382 13       		.uleb128 0x13
 10395 0383 11       		.uleb128 0x11
 10396 0384 01       		.uleb128 0x1
 10397 0385 12       		.uleb128 0x12
 10398 0386 06       		.uleb128 0x6
 10399 0387 40       		.uleb128 0x40
 10400 0388 18       		.uleb128 0x18
 10401 0389 9742     		.uleb128 0x2117
 10402 038b 19       		.uleb128 0x19
 10403 038c 01       		.uleb128 0x1
 10404 038d 13       		.uleb128 0x13
 10405 038e 00       		.byte	0
 10406 038f 00       		.byte	0
 10407 0390 47       		.uleb128 0x47
 10408 0391 34       		.uleb128 0x34
 10409 0392 00       		.byte	0
 10410 0393 03       		.uleb128 0x3
 10411 0394 0E       		.uleb128 0xe
 10412 0395 3A       		.uleb128 0x3a
 10413 0396 0B       		.uleb128 0xb
 10414 0397 3B       		.uleb128 0x3b
 10415 0398 05       		.uleb128 0x5
 10416 0399 49       		.uleb128 0x49
 10417 039a 13       		.uleb128 0x13
 10418 039b 02       		.uleb128 0x2
 10419 039c 18       		.uleb128 0x18
 10420 039d 00       		.byte	0
 10421 039e 00       		.byte	0
 10422 039f 48       		.uleb128 0x48
 10423 03a0 34       		.uleb128 0x34
 10424 03a1 00       		.byte	0
 10425 03a2 03       		.uleb128 0x3
 10426 03a3 08       		.uleb128 0x8
ARM GAS  /var/folders/m4/4md61f0s1_g0rzfghffqnxvr0000gn/T//ccmevqMd.s 			page 184


 10427 03a4 3A       		.uleb128 0x3a
 10428 03a5 0B       		.uleb128 0xb
 10429 03a6 3B       		.uleb128 0x3b
 10430 03a7 05       		.uleb128 0x5
 10431 03a8 49       		.uleb128 0x49
 10432 03a9 13       		.uleb128 0x13
 10433 03aa 02       		.uleb128 0x2
 10434 03ab 17       		.uleb128 0x17
 10435 03ac 00       		.byte	0
 10436 03ad 00       		.byte	0
 10437 03ae 49       		.uleb128 0x49
 10438 03af 898201   		.uleb128 0x4109
 10439 03b2 01       		.byte	0x1
 10440 03b3 11       		.uleb128 0x11
 10441 03b4 01       		.uleb128 0x1
 10442 03b5 9542     		.uleb128 0x2115
 10443 03b7 19       		.uleb128 0x19
 10444 03b8 31       		.uleb128 0x31
 10445 03b9 13       		.uleb128 0x13
 10446 03ba 00       		.byte	0
 10447 03bb 00       		.byte	0
 10448 03bc 4A       		.uleb128 0x4a
 10449 03bd 0B       		.uleb128 0xb
 10450 03be 01       		.byte	0x1
 10451 03bf 11       		.uleb128 0x11
 10452 03c0 01       		.uleb128 0x1
 10453 03c1 12       		.uleb128 0x12
 10454 03c2 06       		.uleb128 0x6
 10455 03c3 00       		.byte	0
 10456 03c4 00       		.byte	0
 10457 03c5 4B       		.uleb128 0x4b
 10458 03c6 0B       		.uleb128 0xb
 10459 03c7 01       		.byte	0x1
 10460 03c8 55       		.uleb128 0x55
 10461 03c9 17       		.uleb128 0x17
 10462 03ca 01       		.uleb128 0x1
 10463 03cb 13       		.uleb128 0x13
 10464 03cc 00       		.byte	0
 10465 03cd 00       		.byte	0
 10466 03ce 4C       		.uleb128 0x4c
 10467 03cf 05       		.uleb128 0x5
 10468 03d0 00       		.byte	0
 10469 03d1 31       		.uleb128 0x31
 10470 03d2 13       		.uleb128 0x13
 10471 03d3 00       		.byte	0
 10472 03d4 00       		.byte	0
 10473 03d5 4D       		.uleb128 0x4d
 10474 03d6 898201   		.uleb128 0x4109
 10475 03d9 00       		.byte	0
 10476 03da 11       		.uleb128 0x11
 10477 03db 01       		.uleb128 0x1
 10478 03dc 9542     		.uleb128 0x2115
 10479 03de 19       		.uleb128 0x19
 10480 03df 31       		.uleb128 0x31
 10481 03e0 13       		.uleb128 0x13
 10482 03e1 00       		.byte	0
 10483 03e2 00       		.byte	0
ARM GAS  /var/folders/m4/4md61f0s1_g0rzfghffqnxvr0000gn/T//ccmevqMd.s 			page 185


 10484 03e3 4E       		.uleb128 0x4e
 10485 03e4 34       		.uleb128 0x34
 10486 03e5 00       		.byte	0
 10487 03e6 31       		.uleb128 0x31
 10488 03e7 13       		.uleb128 0x13
 10489 03e8 00       		.byte	0
 10490 03e9 00       		.byte	0
 10491 03ea 4F       		.uleb128 0x4f
 10492 03eb 2E       		.uleb128 0x2e
 10493 03ec 01       		.byte	0x1
 10494 03ed 3F       		.uleb128 0x3f
 10495 03ee 19       		.uleb128 0x19
 10496 03ef 03       		.uleb128 0x3
 10497 03f0 0E       		.uleb128 0xe
 10498 03f1 3A       		.uleb128 0x3a
 10499 03f2 0B       		.uleb128 0xb
 10500 03f3 3B       		.uleb128 0x3b
 10501 03f4 0B       		.uleb128 0xb
 10502 03f5 6E       		.uleb128 0x6e
 10503 03f6 0E       		.uleb128 0xe
 10504 03f7 11       		.uleb128 0x11
 10505 03f8 01       		.uleb128 0x1
 10506 03f9 12       		.uleb128 0x12
 10507 03fa 06       		.uleb128 0x6
 10508 03fb 40       		.uleb128 0x40
 10509 03fc 18       		.uleb128 0x18
 10510 03fd 9742     		.uleb128 0x2117
 10511 03ff 19       		.uleb128 0x19
 10512 0400 01       		.uleb128 0x1
 10513 0401 13       		.uleb128 0x13
 10514 0402 00       		.byte	0
 10515 0403 00       		.byte	0
 10516 0404 50       		.uleb128 0x50
 10517 0405 1D       		.uleb128 0x1d
 10518 0406 01       		.byte	0x1
 10519 0407 31       		.uleb128 0x31
 10520 0408 13       		.uleb128 0x13
 10521 0409 52       		.uleb128 0x52
 10522 040a 01       		.uleb128 0x1
 10523 040b 55       		.uleb128 0x55
 10524 040c 17       		.uleb128 0x17
 10525 040d 58       		.uleb128 0x58
 10526 040e 0B       		.uleb128 0xb
 10527 040f 59       		.uleb128 0x59
 10528 0410 0B       		.uleb128 0xb
 10529 0411 01       		.uleb128 0x1
 10530 0412 13       		.uleb128 0x13
 10531 0413 00       		.byte	0
 10532 0414 00       		.byte	0
 10533 0415 51       		.uleb128 0x51
 10534 0416 1D       		.uleb128 0x1d
 10535 0417 01       		.byte	0x1
 10536 0418 31       		.uleb128 0x31
 10537 0419 13       		.uleb128 0x13
 10538 041a 52       		.uleb128 0x52
 10539 041b 01       		.uleb128 0x1
 10540 041c 55       		.uleb128 0x55
ARM GAS  /var/folders/m4/4md61f0s1_g0rzfghffqnxvr0000gn/T//ccmevqMd.s 			page 186


 10541 041d 17       		.uleb128 0x17
 10542 041e 58       		.uleb128 0x58
 10543 041f 0B       		.uleb128 0xb
 10544 0420 59       		.uleb128 0x59
 10545 0421 05       		.uleb128 0x5
 10546 0422 00       		.byte	0
 10547 0423 00       		.byte	0
 10548 0424 52       		.uleb128 0x52
 10549 0425 1D       		.uleb128 0x1d
 10550 0426 01       		.byte	0x1
 10551 0427 31       		.uleb128 0x31
 10552 0428 13       		.uleb128 0x13
 10553 0429 11       		.uleb128 0x11
 10554 042a 01       		.uleb128 0x1
 10555 042b 12       		.uleb128 0x12
 10556 042c 06       		.uleb128 0x6
 10557 042d 58       		.uleb128 0x58
 10558 042e 0B       		.uleb128 0xb
 10559 042f 59       		.uleb128 0x59
 10560 0430 0B       		.uleb128 0xb
 10561 0431 01       		.uleb128 0x1
 10562 0432 13       		.uleb128 0x13
 10563 0433 00       		.byte	0
 10564 0434 00       		.byte	0
 10565 0435 53       		.uleb128 0x53
 10566 0436 2E       		.uleb128 0x2e
 10567 0437 01       		.byte	0x1
 10568 0438 03       		.uleb128 0x3
 10569 0439 0E       		.uleb128 0xe
 10570 043a 3A       		.uleb128 0x3a
 10571 043b 0B       		.uleb128 0xb
 10572 043c 3B       		.uleb128 0x3b
 10573 043d 0B       		.uleb128 0xb
 10574 043e 49       		.uleb128 0x49
 10575 043f 13       		.uleb128 0x13
 10576 0440 11       		.uleb128 0x11
 10577 0441 01       		.uleb128 0x1
 10578 0442 12       		.uleb128 0x12
 10579 0443 06       		.uleb128 0x6
 10580 0444 40       		.uleb128 0x40
 10581 0445 18       		.uleb128 0x18
 10582 0446 9742     		.uleb128 0x2117
 10583 0448 19       		.uleb128 0x19
 10584 0449 01       		.uleb128 0x1
 10585 044a 13       		.uleb128 0x13
 10586 044b 00       		.byte	0
 10587 044c 00       		.byte	0
 10588 044d 54       		.uleb128 0x54
 10589 044e 05       		.uleb128 0x5
 10590 044f 00       		.byte	0
 10591 0450 03       		.uleb128 0x3
 10592 0451 08       		.uleb128 0x8
 10593 0452 3A       		.uleb128 0x3a
 10594 0453 0B       		.uleb128 0xb
 10595 0454 3B       		.uleb128 0x3b
 10596 0455 0B       		.uleb128 0xb
 10597 0456 49       		.uleb128 0x49
ARM GAS  /var/folders/m4/4md61f0s1_g0rzfghffqnxvr0000gn/T//ccmevqMd.s 			page 187


 10598 0457 13       		.uleb128 0x13
 10599 0458 02       		.uleb128 0x2
 10600 0459 17       		.uleb128 0x17
 10601 045a 00       		.byte	0
 10602 045b 00       		.byte	0
 10603 045c 55       		.uleb128 0x55
 10604 045d 34       		.uleb128 0x34
 10605 045e 00       		.byte	0
 10606 045f 03       		.uleb128 0x3
 10607 0460 0E       		.uleb128 0xe
 10608 0461 3A       		.uleb128 0x3a
 10609 0462 0B       		.uleb128 0xb
 10610 0463 3B       		.uleb128 0x3b
 10611 0464 0B       		.uleb128 0xb
 10612 0465 49       		.uleb128 0x49
 10613 0466 13       		.uleb128 0x13
 10614 0467 02       		.uleb128 0x2
 10615 0468 18       		.uleb128 0x18
 10616 0469 00       		.byte	0
 10617 046a 00       		.byte	0
 10618 046b 56       		.uleb128 0x56
 10619 046c 34       		.uleb128 0x34
 10620 046d 00       		.byte	0
 10621 046e 03       		.uleb128 0x3
 10622 046f 08       		.uleb128 0x8
 10623 0470 3A       		.uleb128 0x3a
 10624 0471 0B       		.uleb128 0xb
 10625 0472 3B       		.uleb128 0x3b
 10626 0473 0B       		.uleb128 0xb
 10627 0474 49       		.uleb128 0x49
 10628 0475 13       		.uleb128 0x13
 10629 0476 02       		.uleb128 0x2
 10630 0477 17       		.uleb128 0x17
 10631 0478 00       		.byte	0
 10632 0479 00       		.byte	0
 10633 047a 57       		.uleb128 0x57
 10634 047b 34       		.uleb128 0x34
 10635 047c 00       		.byte	0
 10636 047d 03       		.uleb128 0x3
 10637 047e 0E       		.uleb128 0xe
 10638 047f 3A       		.uleb128 0x3a
 10639 0480 0B       		.uleb128 0xb
 10640 0481 3B       		.uleb128 0x3b
 10641 0482 0B       		.uleb128 0xb
 10642 0483 49       		.uleb128 0x49
 10643 0484 13       		.uleb128 0x13
 10644 0485 02       		.uleb128 0x2
 10645 0486 17       		.uleb128 0x17
 10646 0487 00       		.byte	0
 10647 0488 00       		.byte	0
 10648 0489 58       		.uleb128 0x58
 10649 048a 2E       		.uleb128 0x2e
 10650 048b 01       		.byte	0x1
 10651 048c 03       		.uleb128 0x3
 10652 048d 08       		.uleb128 0x8
 10653 048e 3A       		.uleb128 0x3a
 10654 048f 0B       		.uleb128 0xb
ARM GAS  /var/folders/m4/4md61f0s1_g0rzfghffqnxvr0000gn/T//ccmevqMd.s 			page 188


 10655 0490 3B       		.uleb128 0x3b
 10656 0491 05       		.uleb128 0x5
 10657 0492 49       		.uleb128 0x49
 10658 0493 13       		.uleb128 0x13
 10659 0494 11       		.uleb128 0x11
 10660 0495 01       		.uleb128 0x1
 10661 0496 12       		.uleb128 0x12
 10662 0497 06       		.uleb128 0x6
 10663 0498 40       		.uleb128 0x40
 10664 0499 18       		.uleb128 0x18
 10665 049a 9742     		.uleb128 0x2117
 10666 049c 19       		.uleb128 0x19
 10667 049d 01       		.uleb128 0x1
 10668 049e 13       		.uleb128 0x13
 10669 049f 00       		.byte	0
 10670 04a0 00       		.byte	0
 10671 04a1 59       		.uleb128 0x59
 10672 04a2 2E       		.uleb128 0x2e
 10673 04a3 01       		.byte	0x1
 10674 04a4 03       		.uleb128 0x3
 10675 04a5 0E       		.uleb128 0xe
 10676 04a6 3A       		.uleb128 0x3a
 10677 04a7 0B       		.uleb128 0xb
 10678 04a8 3B       		.uleb128 0x3b
 10679 04a9 05       		.uleb128 0x5
 10680 04aa 49       		.uleb128 0x49
 10681 04ab 13       		.uleb128 0x13
 10682 04ac 11       		.uleb128 0x11
 10683 04ad 01       		.uleb128 0x1
 10684 04ae 12       		.uleb128 0x12
 10685 04af 06       		.uleb128 0x6
 10686 04b0 40       		.uleb128 0x40
 10687 04b1 18       		.uleb128 0x18
 10688 04b2 9742     		.uleb128 0x2117
 10689 04b4 19       		.uleb128 0x19
 10690 04b5 01       		.uleb128 0x1
 10691 04b6 13       		.uleb128 0x13
 10692 04b7 00       		.byte	0
 10693 04b8 00       		.byte	0
 10694 04b9 5A       		.uleb128 0x5a
 10695 04ba 05       		.uleb128 0x5
 10696 04bb 00       		.byte	0
 10697 04bc 31       		.uleb128 0x31
 10698 04bd 13       		.uleb128 0x13
 10699 04be 1C       		.uleb128 0x1c
 10700 04bf 0D       		.uleb128 0xd
 10701 04c0 00       		.byte	0
 10702 04c1 00       		.byte	0
 10703 04c2 5B       		.uleb128 0x5b
 10704 04c3 34       		.uleb128 0x34
 10705 04c4 00       		.byte	0
 10706 04c5 03       		.uleb128 0x3
 10707 04c6 0E       		.uleb128 0xe
 10708 04c7 3A       		.uleb128 0x3a
 10709 04c8 0B       		.uleb128 0xb
 10710 04c9 3B       		.uleb128 0x3b
 10711 04ca 05       		.uleb128 0x5
ARM GAS  /var/folders/m4/4md61f0s1_g0rzfghffqnxvr0000gn/T//ccmevqMd.s 			page 189


 10712 04cb 49       		.uleb128 0x49
 10713 04cc 13       		.uleb128 0x13
 10714 04cd 3F       		.uleb128 0x3f
 10715 04ce 19       		.uleb128 0x19
 10716 04cf 3C       		.uleb128 0x3c
 10717 04d0 19       		.uleb128 0x19
 10718 04d1 00       		.byte	0
 10719 04d2 00       		.byte	0
 10720 04d3 5C       		.uleb128 0x5c
 10721 04d4 34       		.uleb128 0x34
 10722 04d5 00       		.byte	0
 10723 04d6 03       		.uleb128 0x3
 10724 04d7 08       		.uleb128 0x8
 10725 04d8 3A       		.uleb128 0x3a
 10726 04d9 0B       		.uleb128 0xb
 10727 04da 3B       		.uleb128 0x3b
 10728 04db 05       		.uleb128 0x5
 10729 04dc 49       		.uleb128 0x49
 10730 04dd 13       		.uleb128 0x13
 10731 04de 3F       		.uleb128 0x3f
 10732 04df 19       		.uleb128 0x19
 10733 04e0 3C       		.uleb128 0x3c
 10734 04e1 19       		.uleb128 0x19
 10735 04e2 00       		.byte	0
 10736 04e3 00       		.byte	0
 10737 04e4 5D       		.uleb128 0x5d
 10738 04e5 34       		.uleb128 0x34
 10739 04e6 00       		.byte	0
 10740 04e7 03       		.uleb128 0x3
 10741 04e8 0E       		.uleb128 0xe
 10742 04e9 3A       		.uleb128 0x3a
 10743 04ea 0B       		.uleb128 0xb
 10744 04eb 3B       		.uleb128 0x3b
 10745 04ec 0B       		.uleb128 0xb
 10746 04ed 49       		.uleb128 0x49
 10747 04ee 13       		.uleb128 0x13
 10748 04ef 3F       		.uleb128 0x3f
 10749 04f0 19       		.uleb128 0x19
 10750 04f1 3C       		.uleb128 0x3c
 10751 04f2 19       		.uleb128 0x19
 10752 04f3 00       		.byte	0
 10753 04f4 00       		.byte	0
 10754 04f5 5E       		.uleb128 0x5e
 10755 04f6 34       		.uleb128 0x34
 10756 04f7 00       		.byte	0
 10757 04f8 03       		.uleb128 0x3
 10758 04f9 0E       		.uleb128 0xe
 10759 04fa 3A       		.uleb128 0x3a
 10760 04fb 0B       		.uleb128 0xb
 10761 04fc 3B       		.uleb128 0x3b
 10762 04fd 0B       		.uleb128 0xb
 10763 04fe 49       		.uleb128 0x49
 10764 04ff 13       		.uleb128 0x13
 10765 0500 3F       		.uleb128 0x3f
 10766 0501 19       		.uleb128 0x19
 10767 0502 02       		.uleb128 0x2
 10768 0503 18       		.uleb128 0x18
ARM GAS  /var/folders/m4/4md61f0s1_g0rzfghffqnxvr0000gn/T//ccmevqMd.s 			page 190


 10769 0504 00       		.byte	0
 10770 0505 00       		.byte	0
 10771 0506 5F       		.uleb128 0x5f
 10772 0507 2E       		.uleb128 0x2e
 10773 0508 01       		.byte	0x1
 10774 0509 3F       		.uleb128 0x3f
 10775 050a 19       		.uleb128 0x19
 10776 050b 03       		.uleb128 0x3
 10777 050c 0E       		.uleb128 0xe
 10778 050d 3A       		.uleb128 0x3a
 10779 050e 0B       		.uleb128 0xb
 10780 050f 3B       		.uleb128 0x3b
 10781 0510 0B       		.uleb128 0xb
 10782 0511 3C       		.uleb128 0x3c
 10783 0512 19       		.uleb128 0x19
 10784 0513 01       		.uleb128 0x1
 10785 0514 13       		.uleb128 0x13
 10786 0515 00       		.byte	0
 10787 0516 00       		.byte	0
 10788 0517 60       		.uleb128 0x60
 10789 0518 2E       		.uleb128 0x2e
 10790 0519 01       		.byte	0x1
 10791 051a 3F       		.uleb128 0x3f
 10792 051b 19       		.uleb128 0x19
 10793 051c 03       		.uleb128 0x3
 10794 051d 0E       		.uleb128 0xe
 10795 051e 3A       		.uleb128 0x3a
 10796 051f 0B       		.uleb128 0xb
 10797 0520 3B       		.uleb128 0x3b
 10798 0521 05       		.uleb128 0x5
 10799 0522 3C       		.uleb128 0x3c
 10800 0523 19       		.uleb128 0x19
 10801 0524 01       		.uleb128 0x1
 10802 0525 13       		.uleb128 0x13
 10803 0526 00       		.byte	0
 10804 0527 00       		.byte	0
 10805 0528 61       		.uleb128 0x61
 10806 0529 26       		.uleb128 0x26
 10807 052a 00       		.byte	0
 10808 052b 00       		.byte	0
 10809 052c 00       		.byte	0
 10810 052d 62       		.uleb128 0x62
 10811 052e 2E       		.uleb128 0x2e
 10812 052f 01       		.byte	0x1
 10813 0530 3F       		.uleb128 0x3f
 10814 0531 19       		.uleb128 0x19
 10815 0532 03       		.uleb128 0x3
 10816 0533 0E       		.uleb128 0xe
 10817 0534 3A       		.uleb128 0x3a
 10818 0535 0B       		.uleb128 0xb
 10819 0536 3B       		.uleb128 0x3b
 10820 0537 0B       		.uleb128 0xb
 10821 0538 49       		.uleb128 0x49
 10822 0539 13       		.uleb128 0x13
 10823 053a 3C       		.uleb128 0x3c
 10824 053b 19       		.uleb128 0x19
 10825 053c 01       		.uleb128 0x1
ARM GAS  /var/folders/m4/4md61f0s1_g0rzfghffqnxvr0000gn/T//ccmevqMd.s 			page 191


 10826 053d 13       		.uleb128 0x13
 10827 053e 00       		.byte	0
 10828 053f 00       		.byte	0
 10829 0540 63       		.uleb128 0x63
 10830 0541 2E       		.uleb128 0x2e
 10831 0542 01       		.byte	0x1
 10832 0543 3F       		.uleb128 0x3f
 10833 0544 19       		.uleb128 0x19
 10834 0545 03       		.uleb128 0x3
 10835 0546 0E       		.uleb128 0xe
 10836 0547 3A       		.uleb128 0x3a
 10837 0548 0B       		.uleb128 0xb
 10838 0549 3B       		.uleb128 0x3b
 10839 054a 0B       		.uleb128 0xb
 10840 054b 3C       		.uleb128 0x3c
 10841 054c 19       		.uleb128 0x19
 10842 054d 00       		.byte	0
 10843 054e 00       		.byte	0
 10844 054f 00       		.byte	0
 10845              		.section	.debug_loc,"",%progbits
 10846              	.Ldebug_loc0:
 10847              	.LLST0:
 10848 0000 00000000 		.4byte	.LVL0
 10849 0004 0A000000 		.4byte	.LVL1
 10850 0008 0100     		.2byte	0x1
 10851 000a 50       		.byte	0x50
 10852 000b 0A000000 		.4byte	.LVL1
 10853 000f 1C000000 		.4byte	.LFE268
 10854 0013 0400     		.2byte	0x4
 10855 0015 F3       		.byte	0xf3
 10856 0016 01       		.uleb128 0x1
 10857 0017 50       		.byte	0x50
 10858 0018 9F       		.byte	0x9f
 10859 0019 00000000 		.4byte	0
 10860 001d 00000000 		.4byte	0
 10861              	.LLST1:
 10862 0021 00000000 		.4byte	.LVL0
 10863 0025 0C000000 		.4byte	.LVL2
 10864 0029 0100     		.2byte	0x1
 10865 002b 51       		.byte	0x51
 10866 002c 0C000000 		.4byte	.LVL2
 10867 0030 1C000000 		.4byte	.LFE268
 10868 0034 0400     		.2byte	0x4
 10869 0036 F3       		.byte	0xf3
 10870 0037 01       		.uleb128 0x1
 10871 0038 51       		.byte	0x51
 10872 0039 9F       		.byte	0x9f
 10873 003a 00000000 		.4byte	0
 10874 003e 00000000 		.4byte	0
 10875              	.LLST2:
 10876 0042 00000000 		.4byte	.LVL4
 10877 0046 14000000 		.4byte	.LVL5
 10878 004a 0100     		.2byte	0x1
 10879 004c 50       		.byte	0x50
 10880 004d 14000000 		.4byte	.LVL5
 10881 0051 5A000000 		.4byte	.LFE311
 10882 0055 0100     		.2byte	0x1
ARM GAS  /var/folders/m4/4md61f0s1_g0rzfghffqnxvr0000gn/T//ccmevqMd.s 			page 192


 10883 0057 54       		.byte	0x54
 10884 0058 00000000 		.4byte	0
 10885 005c 00000000 		.4byte	0
 10886              	.LLST3:
 10887 0060 00000000 		.4byte	.LVL4
 10888 0064 1F000000 		.4byte	.LVL6-1
 10889 0068 0100     		.2byte	0x1
 10890 006a 51       		.byte	0x51
 10891 006b 1F000000 		.4byte	.LVL6-1
 10892 006f 5A000000 		.4byte	.LFE311
 10893 0073 0400     		.2byte	0x4
 10894 0075 F3       		.byte	0xf3
 10895 0076 01       		.uleb128 0x1
 10896 0077 51       		.byte	0x51
 10897 0078 9F       		.byte	0x9f
 10898 0079 00000000 		.4byte	0
 10899 007d 00000000 		.4byte	0
 10900              	.LLST4:
 10901 0081 00000000 		.4byte	.LVL4
 10902 0085 1F000000 		.4byte	.LVL6-1
 10903 0089 0100     		.2byte	0x1
 10904 008b 52       		.byte	0x52
 10905 008c 1F000000 		.4byte	.LVL6-1
 10906 0090 5A000000 		.4byte	.LFE311
 10907 0094 0100     		.2byte	0x1
 10908 0096 57       		.byte	0x57
 10909 0097 00000000 		.4byte	0
 10910 009b 00000000 		.4byte	0
 10911              	.LLST5:
 10912 009f 00000000 		.4byte	.LVL4
 10913 00a3 1F000000 		.4byte	.LVL6-1
 10914 00a7 0100     		.2byte	0x1
 10915 00a9 53       		.byte	0x53
 10916 00aa 1F000000 		.4byte	.LVL6-1
 10917 00ae 5A000000 		.4byte	.LFE311
 10918 00b2 0100     		.2byte	0x1
 10919 00b4 56       		.byte	0x56
 10920 00b5 00000000 		.4byte	0
 10921 00b9 00000000 		.4byte	0
 10922              	.LLST6:
 10923 00bd 00000000 		.4byte	.LVL10
 10924 00c1 0A000000 		.4byte	.LVL11
 10925 00c5 0100     		.2byte	0x1
 10926 00c7 50       		.byte	0x50
 10927 00c8 0A000000 		.4byte	.LVL11
 10928 00cc 46000000 		.4byte	.LFE312
 10929 00d0 0100     		.2byte	0x1
 10930 00d2 54       		.byte	0x54
 10931 00d3 00000000 		.4byte	0
 10932 00d7 00000000 		.4byte	0
 10933              	.LLST7:
 10934 00db 00000000 		.4byte	.LVL10
 10935 00df 1B000000 		.4byte	.LVL12-1
 10936 00e3 0100     		.2byte	0x1
 10937 00e5 51       		.byte	0x51
 10938 00e6 1B000000 		.4byte	.LVL12-1
 10939 00ea 46000000 		.4byte	.LFE312
ARM GAS  /var/folders/m4/4md61f0s1_g0rzfghffqnxvr0000gn/T//ccmevqMd.s 			page 193


 10940 00ee 0400     		.2byte	0x4
 10941 00f0 F3       		.byte	0xf3
 10942 00f1 01       		.uleb128 0x1
 10943 00f2 51       		.byte	0x51
 10944 00f3 9F       		.byte	0x9f
 10945 00f4 00000000 		.4byte	0
 10946 00f8 00000000 		.4byte	0
 10947              	.LLST8:
 10948 00fc 00000000 		.4byte	.LVL10
 10949 0100 1B000000 		.4byte	.LVL12-1
 10950 0104 0100     		.2byte	0x1
 10951 0106 52       		.byte	0x52
 10952 0107 1B000000 		.4byte	.LVL12-1
 10953 010b 46000000 		.4byte	.LFE312
 10954 010f 0100     		.2byte	0x1
 10955 0111 56       		.byte	0x56
 10956 0112 00000000 		.4byte	0
 10957 0116 00000000 		.4byte	0
 10958              	.LLST9:
 10959 011a 00000000 		.4byte	.LVL16
 10960 011e 0E000000 		.4byte	.LVL17
 10961 0122 0200     		.2byte	0x2
 10962 0124 30       		.byte	0x30
 10963 0125 9F       		.byte	0x9f
 10964 0126 00000000 		.4byte	0
 10965 012a 00000000 		.4byte	0
 10966              	.LLST10:
 10967 012e 1A000000 		.4byte	.LVL18
 10968 0132 1E000000 		.4byte	.LVL19
 10969 0136 0100     		.2byte	0x1
 10970 0138 53       		.byte	0x53
 10971 0139 1E000000 		.4byte	.LVL19
 10972 013d 26000000 		.4byte	.LVL21
 10973 0141 0300     		.2byte	0x3
 10974 0143 73       		.byte	0x73
 10975 0144 50       		.sleb128 -48
 10976 0145 9F       		.byte	0x9f
 10977 0146 00000000 		.4byte	0
 10978 014a 00000000 		.4byte	0
 10979              	.LLST11:
 10980 014e 22000000 		.4byte	.LVL20
 10981 0152 26000000 		.4byte	.LVL21
 10982 0156 0400     		.2byte	0x4
 10983 0158 70       		.byte	0x70
 10984 0159 A002     		.sleb128 288
 10985 015b 9F       		.byte	0x9f
 10986 015c 26000000 		.4byte	.LVL21
 10987 0160 34000000 		.4byte	.LFE278
 10988 0164 0100     		.2byte	0x1
 10989 0166 53       		.byte	0x53
 10990 0167 00000000 		.4byte	0
 10991 016b 00000000 		.4byte	0
 10992              	.LLST12:
 10993 016f 00000000 		.4byte	.LVL23
 10994 0173 1C000000 		.4byte	.LVL25
 10995 0177 0100     		.2byte	0x1
 10996 0179 50       		.byte	0x50
ARM GAS  /var/folders/m4/4md61f0s1_g0rzfghffqnxvr0000gn/T//ccmevqMd.s 			page 194


 10997 017a 1C000000 		.4byte	.LVL25
 10998 017e 3C000000 		.4byte	.LFE280
 10999 0182 0100     		.2byte	0x1
 11000 0184 54       		.byte	0x54
 11001 0185 00000000 		.4byte	0
 11002 0189 00000000 		.4byte	0
 11003              	.LLST13:
 11004 018d 00000000 		.4byte	.LVL23
 11005 0191 06000000 		.4byte	.LVL24
 11006 0195 0100     		.2byte	0x1
 11007 0197 51       		.byte	0x51
 11008 0198 06000000 		.4byte	.LVL24
 11009 019c 3C000000 		.4byte	.LFE280
 11010 01a0 0400     		.2byte	0x4
 11011 01a2 F3       		.byte	0xf3
 11012 01a3 01       		.uleb128 0x1
 11013 01a4 51       		.byte	0x51
 11014 01a5 9F       		.byte	0x9f
 11015 01a6 00000000 		.4byte	0
 11016 01aa 00000000 		.4byte	0
 11017              	.LLST14:
 11018 01ae 00000000 		.4byte	.LVL23
 11019 01b2 1F000000 		.4byte	.LVL26-1
 11020 01b6 0100     		.2byte	0x1
 11021 01b8 52       		.byte	0x52
 11022 01b9 1F000000 		.4byte	.LVL26-1
 11023 01bd 3C000000 		.4byte	.LFE280
 11024 01c1 0400     		.2byte	0x4
 11025 01c3 F3       		.byte	0xf3
 11026 01c4 01       		.uleb128 0x1
 11027 01c5 52       		.byte	0x52
 11028 01c6 9F       		.byte	0x9f
 11029 01c7 00000000 		.4byte	0
 11030 01cb 00000000 		.4byte	0
 11031              	.LLST15:
 11032 01cf 00000000 		.4byte	.LVL29
 11033 01d3 22000000 		.4byte	.LVL31
 11034 01d7 0100     		.2byte	0x1
 11035 01d9 50       		.byte	0x50
 11036 01da 22000000 		.4byte	.LVL31
 11037 01de 48000000 		.4byte	.LFE281
 11038 01e2 0100     		.2byte	0x1
 11039 01e4 54       		.byte	0x54
 11040 01e5 00000000 		.4byte	0
 11041 01e9 00000000 		.4byte	0
 11042              	.LLST16:
 11043 01ed 00000000 		.4byte	.LVL29
 11044 01f1 0A000000 		.4byte	.LVL30
 11045 01f5 0100     		.2byte	0x1
 11046 01f7 51       		.byte	0x51
 11047 01f8 0A000000 		.4byte	.LVL30
 11048 01fc 48000000 		.4byte	.LFE281
 11049 0200 0400     		.2byte	0x4
 11050 0202 F3       		.byte	0xf3
 11051 0203 01       		.uleb128 0x1
 11052 0204 51       		.byte	0x51
 11053 0205 9F       		.byte	0x9f
ARM GAS  /var/folders/m4/4md61f0s1_g0rzfghffqnxvr0000gn/T//ccmevqMd.s 			page 195


 11054 0206 00000000 		.4byte	0
 11055 020a 00000000 		.4byte	0
 11056              	.LLST17:
 11057 020e 00000000 		.4byte	.LVL35
 11058 0212 1A000000 		.4byte	.LVL37
 11059 0216 0100     		.2byte	0x1
 11060 0218 50       		.byte	0x50
 11061 0219 1A000000 		.4byte	.LVL37
 11062 021d 4A000000 		.4byte	.LFE282
 11063 0221 0100     		.2byte	0x1
 11064 0223 54       		.byte	0x54
 11065 0224 00000000 		.4byte	0
 11066 0228 00000000 		.4byte	0
 11067              	.LLST18:
 11068 022c 00000000 		.4byte	.LVL35
 11069 0230 0A000000 		.4byte	.LVL36
 11070 0234 0100     		.2byte	0x1
 11071 0236 51       		.byte	0x51
 11072 0237 0A000000 		.4byte	.LVL36
 11073 023b 4A000000 		.4byte	.LFE282
 11074 023f 0400     		.2byte	0x4
 11075 0241 F3       		.byte	0xf3
 11076 0242 01       		.uleb128 0x1
 11077 0243 51       		.byte	0x51
 11078 0244 9F       		.byte	0x9f
 11079 0245 00000000 		.4byte	0
 11080 0249 00000000 		.4byte	0
 11081              	.LLST19:
 11082 024d 00000000 		.4byte	.LVL35
 11083 0251 1F000000 		.4byte	.LVL38-1
 11084 0255 0100     		.2byte	0x1
 11085 0257 52       		.byte	0x52
 11086 0258 1F000000 		.4byte	.LVL38-1
 11087 025c 4A000000 		.4byte	.LFE282
 11088 0260 0100     		.2byte	0x1
 11089 0262 56       		.byte	0x56
 11090 0263 00000000 		.4byte	0
 11091 0267 00000000 		.4byte	0
 11092              	.LLST20:
 11093 026b 00000000 		.4byte	.LVL42
 11094 026f 16000000 		.4byte	.LVL44
 11095 0273 0100     		.2byte	0x1
 11096 0275 50       		.byte	0x50
 11097 0276 16000000 		.4byte	.LVL44
 11098 027a 46000000 		.4byte	.LFE283
 11099 027e 0100     		.2byte	0x1
 11100 0280 54       		.byte	0x54
 11101 0281 00000000 		.4byte	0
 11102 0285 00000000 		.4byte	0
 11103              	.LLST21:
 11104 0289 00000000 		.4byte	.LVL42
 11105 028d 0A000000 		.4byte	.LVL43
 11106 0291 0100     		.2byte	0x1
 11107 0293 51       		.byte	0x51
 11108 0294 0A000000 		.4byte	.LVL43
 11109 0298 46000000 		.4byte	.LFE283
 11110 029c 0400     		.2byte	0x4
ARM GAS  /var/folders/m4/4md61f0s1_g0rzfghffqnxvr0000gn/T//ccmevqMd.s 			page 196


 11111 029e F3       		.byte	0xf3
 11112 029f 01       		.uleb128 0x1
 11113 02a0 51       		.byte	0x51
 11114 02a1 9F       		.byte	0x9f
 11115 02a2 00000000 		.4byte	0
 11116 02a6 00000000 		.4byte	0
 11117              	.LLST22:
 11118 02aa 00000000 		.4byte	.LVL42
 11119 02ae 1B000000 		.4byte	.LVL45-1
 11120 02b2 0100     		.2byte	0x1
 11121 02b4 52       		.byte	0x52
 11122 02b5 1B000000 		.4byte	.LVL45-1
 11123 02b9 46000000 		.4byte	.LFE283
 11124 02bd 0100     		.2byte	0x1
 11125 02bf 56       		.byte	0x56
 11126 02c0 00000000 		.4byte	0
 11127 02c4 00000000 		.4byte	0
 11128              	.LLST23:
 11129 02c8 00000000 		.4byte	.LVL49
 11130 02cc 14000000 		.4byte	.LVL50
 11131 02d0 0100     		.2byte	0x1
 11132 02d2 50       		.byte	0x50
 11133 02d3 14000000 		.4byte	.LVL50
 11134 02d7 3C000000 		.4byte	.LFE284
 11135 02db 0100     		.2byte	0x1
 11136 02dd 54       		.byte	0x54
 11137 02de 00000000 		.4byte	0
 11138 02e2 00000000 		.4byte	0
 11139              	.LLST24:
 11140 02e6 00000000 		.4byte	.LVL54
 11141 02ea 09000000 		.4byte	.LVL55-1
 11142 02ee 0100     		.2byte	0x1
 11143 02f0 50       		.byte	0x50
 11144 02f1 09000000 		.4byte	.LVL55-1
 11145 02f5 18000000 		.4byte	.LVL57
 11146 02f9 0100     		.2byte	0x1
 11147 02fb 54       		.byte	0x54
 11148 02fc 18000000 		.4byte	.LVL57
 11149 0300 1B000000 		.4byte	.LVL58-1
 11150 0304 0100     		.2byte	0x1
 11151 0306 50       		.byte	0x50
 11152 0307 1B000000 		.4byte	.LVL58-1
 11153 030b 1C000000 		.4byte	.LFE285
 11154 030f 0400     		.2byte	0x4
 11155 0311 F3       		.byte	0xf3
 11156 0312 01       		.uleb128 0x1
 11157 0313 50       		.byte	0x50
 11158 0314 9F       		.byte	0x9f
 11159 0315 00000000 		.4byte	0
 11160 0319 00000000 		.4byte	0
 11161              	.LLST25:
 11162 031d 0A000000 		.4byte	.LVL55
 11163 0321 12000000 		.4byte	.LVL56
 11164 0325 0500     		.2byte	0x5
 11165 0327 70       		.byte	0x70
 11166 0328 00       		.sleb128 0
 11167 0329 32       		.byte	0x32
ARM GAS  /var/folders/m4/4md61f0s1_g0rzfghffqnxvr0000gn/T//ccmevqMd.s 			page 197


 11168 032a 21       		.byte	0x21
 11169 032b 9F       		.byte	0x9f
 11170 032c 00000000 		.4byte	0
 11171 0330 00000000 		.4byte	0
 11172              	.LLST26:
 11173 0334 00000000 		.4byte	.LVL59
 11174 0338 09000000 		.4byte	.LVL60-1
 11175 033c 0100     		.2byte	0x1
 11176 033e 50       		.byte	0x50
 11177 033f 09000000 		.4byte	.LVL60-1
 11178 0343 16000000 		.4byte	.LVL62
 11179 0347 0100     		.2byte	0x1
 11180 0349 54       		.byte	0x54
 11181 034a 16000000 		.4byte	.LVL62
 11182 034e 19000000 		.4byte	.LVL63-1
 11183 0352 0100     		.2byte	0x1
 11184 0354 50       		.byte	0x50
 11185 0355 19000000 		.4byte	.LVL63-1
 11186 0359 1A000000 		.4byte	.LFE286
 11187 035d 0400     		.2byte	0x4
 11188 035f F3       		.byte	0xf3
 11189 0360 01       		.uleb128 0x1
 11190 0361 50       		.byte	0x50
 11191 0362 9F       		.byte	0x9f
 11192 0363 00000000 		.4byte	0
 11193 0367 00000000 		.4byte	0
 11194              	.LLST27:
 11195 036b 0A000000 		.4byte	.LVL60
 11196 036f 12000000 		.4byte	.LVL61
 11197 0373 0600     		.2byte	0x6
 11198 0375 70       		.byte	0x70
 11199 0376 00       		.sleb128 0
 11200 0377 09       		.byte	0x9
 11201 0378 FD       		.byte	0xfd
 11202 0379 1A       		.byte	0x1a
 11203 037a 9F       		.byte	0x9f
 11204 037b 00000000 		.4byte	0
 11205 037f 00000000 		.4byte	0
 11206              	.LLST28:
 11207 0383 00000000 		.4byte	.LVL64
 11208 0387 0F000000 		.4byte	.LVL67-1
 11209 038b 0100     		.2byte	0x1
 11210 038d 50       		.byte	0x50
 11211 038e 0F000000 		.4byte	.LVL67-1
 11212 0392 10000000 		.4byte	.LFE287
 11213 0396 0400     		.2byte	0x4
 11214 0398 F3       		.byte	0xf3
 11215 0399 01       		.uleb128 0x1
 11216 039a 50       		.byte	0x50
 11217 039b 9F       		.byte	0x9f
 11218 039c 00000000 		.4byte	0
 11219 03a0 00000000 		.4byte	0
 11220              	.LLST29:
 11221 03a4 00000000 		.4byte	.LVL64
 11222 03a8 0C000000 		.4byte	.LVL66
 11223 03ac 0100     		.2byte	0x1
 11224 03ae 51       		.byte	0x51
ARM GAS  /var/folders/m4/4md61f0s1_g0rzfghffqnxvr0000gn/T//ccmevqMd.s 			page 198


 11225 03af 0C000000 		.4byte	.LVL66
 11226 03b3 10000000 		.4byte	.LFE287
 11227 03b7 0400     		.2byte	0x4
 11228 03b9 F3       		.byte	0xf3
 11229 03ba 01       		.uleb128 0x1
 11230 03bb 51       		.byte	0x51
 11231 03bc 9F       		.byte	0x9f
 11232 03bd 00000000 		.4byte	0
 11233 03c1 00000000 		.4byte	0
 11234              	.LLST30:
 11235 03c5 00000000 		.4byte	.LVL64
 11236 03c9 04000000 		.4byte	.LVL65
 11237 03cd 0100     		.2byte	0x1
 11238 03cf 52       		.byte	0x52
 11239 03d0 04000000 		.4byte	.LVL65
 11240 03d4 10000000 		.4byte	.LFE287
 11241 03d8 0400     		.2byte	0x4
 11242 03da F3       		.byte	0xf3
 11243 03db 01       		.uleb128 0x1
 11244 03dc 52       		.byte	0x52
 11245 03dd 9F       		.byte	0x9f
 11246 03de 00000000 		.4byte	0
 11247 03e2 00000000 		.4byte	0
 11248              	.LLST31:
 11249 03e6 00000000 		.4byte	.LVL64
 11250 03ea 04000000 		.4byte	.LVL65
 11251 03ee 0A00     		.2byte	0xa
 11252 03f0 72       		.byte	0x72
 11253 03f1 00       		.sleb128 0
 11254 03f2 3F       		.byte	0x3f
 11255 03f3 1A       		.byte	0x1a
 11256 03f4 71       		.byte	0x71
 11257 03f5 00       		.sleb128 0
 11258 03f6 34       		.byte	0x34
 11259 03f7 24       		.byte	0x24
 11260 03f8 21       		.byte	0x21
 11261 03f9 9F       		.byte	0x9f
 11262 03fa 04000000 		.4byte	.LVL65
 11263 03fe 0C000000 		.4byte	.LVL66
 11264 0402 0B00     		.2byte	0xb
 11265 0404 F3       		.byte	0xf3
 11266 0405 01       		.uleb128 0x1
 11267 0406 52       		.byte	0x52
 11268 0407 3F       		.byte	0x3f
 11269 0408 1A       		.byte	0x1a
 11270 0409 71       		.byte	0x71
 11271 040a 00       		.sleb128 0
 11272 040b 34       		.byte	0x34
 11273 040c 24       		.byte	0x24
 11274 040d 21       		.byte	0x21
 11275 040e 9F       		.byte	0x9f
 11276 040f 0C000000 		.4byte	.LVL66
 11277 0413 10000000 		.4byte	.LFE287
 11278 0417 0C00     		.2byte	0xc
 11279 0419 F3       		.byte	0xf3
 11280 041a 01       		.uleb128 0x1
 11281 041b 52       		.byte	0x52
ARM GAS  /var/folders/m4/4md61f0s1_g0rzfghffqnxvr0000gn/T//ccmevqMd.s 			page 199


 11282 041c 3F       		.byte	0x3f
 11283 041d 1A       		.byte	0x1a
 11284 041e F3       		.byte	0xf3
 11285 041f 01       		.uleb128 0x1
 11286 0420 51       		.byte	0x51
 11287 0421 34       		.byte	0x34
 11288 0422 24       		.byte	0x24
 11289 0423 21       		.byte	0x21
 11290 0424 9F       		.byte	0x9f
 11291 0425 00000000 		.4byte	0
 11292 0429 00000000 		.4byte	0
 11293              	.LLST32:
 11294 042d 00000000 		.4byte	.LVL68
 11295 0431 09000000 		.4byte	.LVL70-1
 11296 0435 0100     		.2byte	0x1
 11297 0437 50       		.byte	0x50
 11298 0438 09000000 		.4byte	.LVL70-1
 11299 043c 0A000000 		.4byte	.LFE288
 11300 0440 0400     		.2byte	0x4
 11301 0442 F3       		.byte	0xf3
 11302 0443 01       		.uleb128 0x1
 11303 0444 50       		.byte	0x50
 11304 0445 9F       		.byte	0x9f
 11305 0446 00000000 		.4byte	0
 11306 044a 00000000 		.4byte	0
 11307              	.LLST33:
 11308 044e 00000000 		.4byte	.LVL68
 11309 0452 06000000 		.4byte	.LVL69
 11310 0456 0100     		.2byte	0x1
 11311 0458 51       		.byte	0x51
 11312 0459 06000000 		.4byte	.LVL69
 11313 045d 0A000000 		.4byte	.LFE288
 11314 0461 0400     		.2byte	0x4
 11315 0463 F3       		.byte	0xf3
 11316 0464 01       		.uleb128 0x1
 11317 0465 51       		.byte	0x51
 11318 0466 9F       		.byte	0x9f
 11319 0467 00000000 		.4byte	0
 11320 046b 00000000 		.4byte	0
 11321              	.LLST34:
 11322 046f 00000000 		.4byte	.LVL68
 11323 0473 06000000 		.4byte	.LVL69
 11324 0477 0600     		.2byte	0x6
 11325 0479 71       		.byte	0x71
 11326 047a 00       		.sleb128 0
 11327 047b 08       		.byte	0x8
 11328 047c 7F       		.byte	0x7f
 11329 047d 1A       		.byte	0x1a
 11330 047e 9F       		.byte	0x9f
 11331 047f 06000000 		.4byte	.LVL69
 11332 0483 0A000000 		.4byte	.LFE288
 11333 0487 0700     		.2byte	0x7
 11334 0489 F3       		.byte	0xf3
 11335 048a 01       		.uleb128 0x1
 11336 048b 51       		.byte	0x51
 11337 048c 08       		.byte	0x8
 11338 048d 7F       		.byte	0x7f
ARM GAS  /var/folders/m4/4md61f0s1_g0rzfghffqnxvr0000gn/T//ccmevqMd.s 			page 200


 11339 048e 1A       		.byte	0x1a
 11340 048f 9F       		.byte	0x9f
 11341 0490 00000000 		.4byte	0
 11342 0494 00000000 		.4byte	0
 11343              	.LLST35:
 11344 0498 00000000 		.4byte	.LVL71
 11345 049c 09000000 		.4byte	.LVL73-1
 11346 04a0 0100     		.2byte	0x1
 11347 04a2 50       		.byte	0x50
 11348 04a3 09000000 		.4byte	.LVL73-1
 11349 04a7 0A000000 		.4byte	.LFE289
 11350 04ab 0400     		.2byte	0x4
 11351 04ad F3       		.byte	0xf3
 11352 04ae 01       		.uleb128 0x1
 11353 04af 50       		.byte	0x50
 11354 04b0 9F       		.byte	0x9f
 11355 04b1 00000000 		.4byte	0
 11356 04b5 00000000 		.4byte	0
 11357              	.LLST36:
 11358 04b9 00000000 		.4byte	.LVL71
 11359 04bd 06000000 		.4byte	.LVL72
 11360 04c1 0100     		.2byte	0x1
 11361 04c3 51       		.byte	0x51
 11362 04c4 06000000 		.4byte	.LVL72
 11363 04c8 0A000000 		.4byte	.LFE289
 11364 04cc 0400     		.2byte	0x4
 11365 04ce F3       		.byte	0xf3
 11366 04cf 01       		.uleb128 0x1
 11367 04d0 51       		.byte	0x51
 11368 04d1 9F       		.byte	0x9f
 11369 04d2 00000000 		.4byte	0
 11370 04d6 00000000 		.4byte	0
 11371              	.LLST37:
 11372 04da 00000000 		.4byte	.LVL74
 11373 04de 0F000000 		.4byte	.LVL77-1
 11374 04e2 0100     		.2byte	0x1
 11375 04e4 50       		.byte	0x50
 11376 04e5 0F000000 		.4byte	.LVL77-1
 11377 04e9 2A000000 		.4byte	.LVL79
 11378 04ed 0100     		.2byte	0x1
 11379 04ef 56       		.byte	0x56
 11380 04f0 2A000000 		.4byte	.LVL79
 11381 04f4 2D000000 		.4byte	.LVL80-1
 11382 04f8 0100     		.2byte	0x1
 11383 04fa 50       		.byte	0x50
 11384 04fb 2D000000 		.4byte	.LVL80-1
 11385 04ff 2E000000 		.4byte	.LVL80
 11386 0503 0400     		.2byte	0x4
 11387 0505 F3       		.byte	0xf3
 11388 0506 01       		.uleb128 0x1
 11389 0507 50       		.byte	0x50
 11390 0508 9F       		.byte	0x9f
 11391 0509 2E000000 		.4byte	.LVL80
 11392 050d 3C000000 		.4byte	.LVL81
 11393 0511 0100     		.2byte	0x1
 11394 0513 56       		.byte	0x56
 11395 0514 3C000000 		.4byte	.LVL81
ARM GAS  /var/folders/m4/4md61f0s1_g0rzfghffqnxvr0000gn/T//ccmevqMd.s 			page 201


 11396 0518 3F000000 		.4byte	.LVL82-1
 11397 051c 0100     		.2byte	0x1
 11398 051e 50       		.byte	0x50
 11399 051f 3F000000 		.4byte	.LVL82-1
 11400 0523 40000000 		.4byte	.LFE290
 11401 0527 0400     		.2byte	0x4
 11402 0529 F3       		.byte	0xf3
 11403 052a 01       		.uleb128 0x1
 11404 052b 50       		.byte	0x50
 11405 052c 9F       		.byte	0x9f
 11406 052d 00000000 		.4byte	0
 11407 0531 00000000 		.4byte	0
 11408              	.LLST38:
 11409 0535 00000000 		.4byte	.LVL74
 11410 0539 08000000 		.4byte	.LVL75
 11411 053d 0100     		.2byte	0x1
 11412 053f 51       		.byte	0x51
 11413 0540 08000000 		.4byte	.LVL75
 11414 0544 40000000 		.4byte	.LFE290
 11415 0548 0400     		.2byte	0x4
 11416 054a F3       		.byte	0xf3
 11417 054b 01       		.uleb128 0x1
 11418 054c 51       		.byte	0x51
 11419 054d 9F       		.byte	0x9f
 11420 054e 00000000 		.4byte	0
 11421 0552 00000000 		.4byte	0
 11422              	.LLST39:
 11423 0556 00000000 		.4byte	.LVL74
 11424 055a 0A000000 		.4byte	.LVL76
 11425 055e 0100     		.2byte	0x1
 11426 0560 52       		.byte	0x52
 11427 0561 0A000000 		.4byte	.LVL76
 11428 0565 2A000000 		.4byte	.LVL79
 11429 0569 0100     		.2byte	0x1
 11430 056b 55       		.byte	0x55
 11431 056c 2A000000 		.4byte	.LVL79
 11432 0570 2E000000 		.4byte	.LVL80
 11433 0574 0400     		.2byte	0x4
 11434 0576 F3       		.byte	0xf3
 11435 0577 01       		.uleb128 0x1
 11436 0578 52       		.byte	0x52
 11437 0579 9F       		.byte	0x9f
 11438 057a 2E000000 		.4byte	.LVL80
 11439 057e 3C000000 		.4byte	.LVL81
 11440 0582 0100     		.2byte	0x1
 11441 0584 55       		.byte	0x55
 11442 0585 3C000000 		.4byte	.LVL81
 11443 0589 3F000000 		.4byte	.LVL82-1
 11444 058d 0100     		.2byte	0x1
 11445 058f 52       		.byte	0x52
 11446 0590 3F000000 		.4byte	.LVL82-1
 11447 0594 40000000 		.4byte	.LFE290
 11448 0598 0400     		.2byte	0x4
 11449 059a F3       		.byte	0xf3
 11450 059b 01       		.uleb128 0x1
 11451 059c 52       		.byte	0x52
 11452 059d 9F       		.byte	0x9f
ARM GAS  /var/folders/m4/4md61f0s1_g0rzfghffqnxvr0000gn/T//ccmevqMd.s 			page 202


 11453 059e 00000000 		.4byte	0
 11454 05a2 00000000 		.4byte	0
 11455              	.LLST40:
 11456 05a6 1C000000 		.4byte	.LVL78
 11457 05aa 2A000000 		.4byte	.LVL79
 11458 05ae 0100     		.2byte	0x1
 11459 05b0 55       		.byte	0x55
 11460 05b1 2A000000 		.4byte	.LVL79
 11461 05b5 2E000000 		.4byte	.LVL80
 11462 05b9 0400     		.2byte	0x4
 11463 05bb F3       		.byte	0xf3
 11464 05bc 01       		.uleb128 0x1
 11465 05bd 52       		.byte	0x52
 11466 05be 9F       		.byte	0x9f
 11467 05bf 00000000 		.4byte	0
 11468 05c3 00000000 		.4byte	0
 11469              	.LLST41:
 11470 05c7 1C000000 		.4byte	.LVL78
 11471 05cb 2A000000 		.4byte	.LVL79
 11472 05cf 0100     		.2byte	0x1
 11473 05d1 54       		.byte	0x54
 11474 05d2 00000000 		.4byte	0
 11475 05d6 00000000 		.4byte	0
 11476              	.LLST42:
 11477 05da 1C000000 		.4byte	.LVL78
 11478 05de 2A000000 		.4byte	.LVL79
 11479 05e2 0100     		.2byte	0x1
 11480 05e4 56       		.byte	0x56
 11481 05e5 2A000000 		.4byte	.LVL79
 11482 05e9 2D000000 		.4byte	.LVL80-1
 11483 05ed 0100     		.2byte	0x1
 11484 05ef 50       		.byte	0x50
 11485 05f0 2D000000 		.4byte	.LVL80-1
 11486 05f4 2E000000 		.4byte	.LVL80
 11487 05f8 0400     		.2byte	0x4
 11488 05fa F3       		.byte	0xf3
 11489 05fb 01       		.uleb128 0x1
 11490 05fc 50       		.byte	0x50
 11491 05fd 9F       		.byte	0x9f
 11492 05fe 00000000 		.4byte	0
 11493 0602 00000000 		.4byte	0
 11494              	.LLST43:
 11495 0606 00000000 		.4byte	.LVL83
 11496 060a 0D000000 		.4byte	.LVL85-1
 11497 060e 0100     		.2byte	0x1
 11498 0610 50       		.byte	0x50
 11499 0611 0D000000 		.4byte	.LVL85-1
 11500 0615 18000000 		.4byte	.LVL86
 11501 0619 0100     		.2byte	0x1
 11502 061b 55       		.byte	0x55
 11503 061c 18000000 		.4byte	.LVL86
 11504 0620 1B000000 		.4byte	.LVL87-1
 11505 0624 0100     		.2byte	0x1
 11506 0626 50       		.byte	0x50
 11507 0627 1B000000 		.4byte	.LVL87-1
 11508 062b 1C000000 		.4byte	.LFE291
 11509 062f 0400     		.2byte	0x4
ARM GAS  /var/folders/m4/4md61f0s1_g0rzfghffqnxvr0000gn/T//ccmevqMd.s 			page 203


 11510 0631 F3       		.byte	0xf3
 11511 0632 01       		.uleb128 0x1
 11512 0633 50       		.byte	0x50
 11513 0634 9F       		.byte	0x9f
 11514 0635 00000000 		.4byte	0
 11515 0639 00000000 		.4byte	0
 11516              	.LLST44:
 11517 063d 00000000 		.4byte	.LVL83
 11518 0641 0A000000 		.4byte	.LVL84
 11519 0645 0100     		.2byte	0x1
 11520 0647 51       		.byte	0x51
 11521 0648 0A000000 		.4byte	.LVL84
 11522 064c 18000000 		.4byte	.LVL86
 11523 0650 0100     		.2byte	0x1
 11524 0652 54       		.byte	0x54
 11525 0653 18000000 		.4byte	.LVL86
 11526 0657 1B000000 		.4byte	.LVL87-1
 11527 065b 0100     		.2byte	0x1
 11528 065d 52       		.byte	0x52
 11529 065e 1B000000 		.4byte	.LVL87-1
 11530 0662 1C000000 		.4byte	.LFE291
 11531 0666 0400     		.2byte	0x4
 11532 0668 F3       		.byte	0xf3
 11533 0669 01       		.uleb128 0x1
 11534 066a 51       		.byte	0x51
 11535 066b 9F       		.byte	0x9f
 11536 066c 00000000 		.4byte	0
 11537 0670 00000000 		.4byte	0
 11538              	.LLST45:
 11539 0674 00000000 		.4byte	.LVL88
 11540 0678 11000000 		.4byte	.LVL93-1
 11541 067c 0100     		.2byte	0x1
 11542 067e 50       		.byte	0x50
 11543 067f 11000000 		.4byte	.LVL93-1
 11544 0683 12000000 		.4byte	.LFE292
 11545 0687 0400     		.2byte	0x4
 11546 0689 F3       		.byte	0xf3
 11547 068a 01       		.uleb128 0x1
 11548 068b 50       		.byte	0x50
 11549 068c 9F       		.byte	0x9f
 11550 068d 00000000 		.4byte	0
 11551 0691 00000000 		.4byte	0
 11552              	.LLST46:
 11553 0695 00000000 		.4byte	.LVL88
 11554 0699 0C000000 		.4byte	.LVL92
 11555 069d 0100     		.2byte	0x1
 11556 069f 51       		.byte	0x51
 11557 06a0 0C000000 		.4byte	.LVL92
 11558 06a4 12000000 		.4byte	.LFE292
 11559 06a8 0400     		.2byte	0x4
 11560 06aa F3       		.byte	0xf3
 11561 06ab 01       		.uleb128 0x1
 11562 06ac 51       		.byte	0x51
 11563 06ad 9F       		.byte	0x9f
 11564 06ae 00000000 		.4byte	0
 11565 06b2 00000000 		.4byte	0
 11566              	.LLST47:
ARM GAS  /var/folders/m4/4md61f0s1_g0rzfghffqnxvr0000gn/T//ccmevqMd.s 			page 204


 11567 06b6 00000000 		.4byte	.LVL88
 11568 06ba 11000000 		.4byte	.LVL93-1
 11569 06be 0100     		.2byte	0x1
 11570 06c0 52       		.byte	0x52
 11571 06c1 11000000 		.4byte	.LVL93-1
 11572 06c5 12000000 		.4byte	.LFE292
 11573 06c9 0400     		.2byte	0x4
 11574 06cb F3       		.byte	0xf3
 11575 06cc 01       		.uleb128 0x1
 11576 06cd 52       		.byte	0x52
 11577 06ce 9F       		.byte	0x9f
 11578 06cf 00000000 		.4byte	0
 11579 06d3 00000000 		.4byte	0
 11580              	.LLST48:
 11581 06d7 04000000 		.4byte	.LVL89
 11582 06db 08000000 		.4byte	.LVL90
 11583 06df 0100     		.2byte	0x1
 11584 06e1 52       		.byte	0x52
 11585 06e2 0A000000 		.4byte	.LVL91
 11586 06e6 11000000 		.4byte	.LVL93-1
 11587 06ea 0100     		.2byte	0x1
 11588 06ec 52       		.byte	0x52
 11589 06ed 11000000 		.4byte	.LVL93-1
 11590 06f1 12000000 		.4byte	.LFE292
 11591 06f5 0400     		.2byte	0x4
 11592 06f7 F3       		.byte	0xf3
 11593 06f8 01       		.uleb128 0x1
 11594 06f9 52       		.byte	0x52
 11595 06fa 9F       		.byte	0x9f
 11596 06fb 00000000 		.4byte	0
 11597 06ff 00000000 		.4byte	0
 11598              	.LLST49:
 11599 0703 04000000 		.4byte	.LVL89
 11600 0707 08000000 		.4byte	.LVL90
 11601 070b 0100     		.2byte	0x1
 11602 070d 51       		.byte	0x51
 11603 070e 0A000000 		.4byte	.LVL91
 11604 0712 0C000000 		.4byte	.LVL92
 11605 0716 0100     		.2byte	0x1
 11606 0718 51       		.byte	0x51
 11607 0719 0C000000 		.4byte	.LVL92
 11608 071d 12000000 		.4byte	.LFE292
 11609 0721 0400     		.2byte	0x4
 11610 0723 F3       		.byte	0xf3
 11611 0724 01       		.uleb128 0x1
 11612 0725 51       		.byte	0x51
 11613 0726 9F       		.byte	0x9f
 11614 0727 00000000 		.4byte	0
 11615 072b 00000000 		.4byte	0
 11616              	.LLST50:
 11617 072f 00000000 		.4byte	.LVL94
 11618 0733 05000000 		.4byte	.LVL95-1
 11619 0737 0100     		.2byte	0x1
 11620 0739 50       		.byte	0x50
 11621 073a 05000000 		.4byte	.LVL95-1
 11622 073e 06000000 		.4byte	.LFE293
 11623 0742 0400     		.2byte	0x4
ARM GAS  /var/folders/m4/4md61f0s1_g0rzfghffqnxvr0000gn/T//ccmevqMd.s 			page 205


 11624 0744 F3       		.byte	0xf3
 11625 0745 01       		.uleb128 0x1
 11626 0746 50       		.byte	0x50
 11627 0747 9F       		.byte	0x9f
 11628 0748 00000000 		.4byte	0
 11629 074c 00000000 		.4byte	0
 11630              	.LLST51:
 11631 0750 00000000 		.4byte	.LVL96
 11632 0754 0B000000 		.4byte	.LVL98-1
 11633 0758 0100     		.2byte	0x1
 11634 075a 50       		.byte	0x50
 11635 075b 0B000000 		.4byte	.LVL98-1
 11636 075f 1E000000 		.4byte	.LVL100
 11637 0763 0100     		.2byte	0x1
 11638 0765 55       		.byte	0x55
 11639 0766 1E000000 		.4byte	.LVL100
 11640 076a 21000000 		.4byte	.LVL101-1
 11641 076e 0100     		.2byte	0x1
 11642 0770 50       		.byte	0x50
 11643 0771 21000000 		.4byte	.LVL101-1
 11644 0775 22000000 		.4byte	.LFE295
 11645 0779 0400     		.2byte	0x4
 11646 077b F3       		.byte	0xf3
 11647 077c 01       		.uleb128 0x1
 11648 077d 50       		.byte	0x50
 11649 077e 9F       		.byte	0x9f
 11650 077f 00000000 		.4byte	0
 11651 0783 00000000 		.4byte	0
 11652              	.LLST52:
 11653 0787 00000000 		.4byte	.LVL96
 11654 078b 06000000 		.4byte	.LVL97
 11655 078f 0100     		.2byte	0x1
 11656 0791 51       		.byte	0x51
 11657 0792 06000000 		.4byte	.LVL97
 11658 0796 22000000 		.4byte	.LFE295
 11659 079a 0400     		.2byte	0x4
 11660 079c F3       		.byte	0xf3
 11661 079d 01       		.uleb128 0x1
 11662 079e 51       		.byte	0x51
 11663 079f 9F       		.byte	0x9f
 11664 07a0 00000000 		.4byte	0
 11665 07a4 00000000 		.4byte	0
 11666              	.LLST53:
 11667 07a8 0C000000 		.4byte	.LVL98
 11668 07ac 14000000 		.4byte	.LVL99
 11669 07b0 0100     		.2byte	0x1
 11670 07b2 50       		.byte	0x50
 11671 07b3 14000000 		.4byte	.LVL99
 11672 07b7 21000000 		.4byte	.LVL101-1
 11673 07bb 0100     		.2byte	0x1
 11674 07bd 52       		.byte	0x52
 11675 07be 00000000 		.4byte	0
 11676 07c2 00000000 		.4byte	0
 11677              	.LLST54:
 11678 07c6 00000000 		.4byte	.LVL102
 11679 07ca 09000000 		.4byte	.LVL103-1
 11680 07ce 0100     		.2byte	0x1
ARM GAS  /var/folders/m4/4md61f0s1_g0rzfghffqnxvr0000gn/T//ccmevqMd.s 			page 206


 11681 07d0 50       		.byte	0x50
 11682 07d1 09000000 		.4byte	.LVL103-1
 11683 07d5 16000000 		.4byte	.LVL105
 11684 07d9 0100     		.2byte	0x1
 11685 07db 54       		.byte	0x54
 11686 07dc 16000000 		.4byte	.LVL105
 11687 07e0 19000000 		.4byte	.LVL106-1
 11688 07e4 0100     		.2byte	0x1
 11689 07e6 50       		.byte	0x50
 11690 07e7 19000000 		.4byte	.LVL106-1
 11691 07eb 1A000000 		.4byte	.LFE296
 11692 07ef 0400     		.2byte	0x4
 11693 07f1 F3       		.byte	0xf3
 11694 07f2 01       		.uleb128 0x1
 11695 07f3 50       		.byte	0x50
 11696 07f4 9F       		.byte	0x9f
 11697 07f5 00000000 		.4byte	0
 11698 07f9 00000000 		.4byte	0
 11699              	.LLST55:
 11700 07fd 0A000000 		.4byte	.LVL103
 11701 0801 12000000 		.4byte	.LVL104
 11702 0805 0600     		.2byte	0x6
 11703 0807 70       		.byte	0x70
 11704 0808 00       		.sleb128 0
 11705 0809 09       		.byte	0x9
 11706 080a FB       		.byte	0xfb
 11707 080b 1A       		.byte	0x1a
 11708 080c 9F       		.byte	0x9f
 11709 080d 00000000 		.4byte	0
 11710 0811 00000000 		.4byte	0
 11711              	.LLST56:
 11712 0815 00000000 		.4byte	.LVL107
 11713 0819 0B000000 		.4byte	.LVL109-1
 11714 081d 0100     		.2byte	0x1
 11715 081f 50       		.byte	0x50
 11716 0820 0B000000 		.4byte	.LVL109-1
 11717 0824 1E000000 		.4byte	.LVL111
 11718 0828 0100     		.2byte	0x1
 11719 082a 55       		.byte	0x55
 11720 082b 1E000000 		.4byte	.LVL111
 11721 082f 21000000 		.4byte	.LVL112-1
 11722 0833 0100     		.2byte	0x1
 11723 0835 50       		.byte	0x50
 11724 0836 21000000 		.4byte	.LVL112-1
 11725 083a 22000000 		.4byte	.LFE297
 11726 083e 0400     		.2byte	0x4
 11727 0840 F3       		.byte	0xf3
 11728 0841 01       		.uleb128 0x1
 11729 0842 50       		.byte	0x50
 11730 0843 9F       		.byte	0x9f
 11731 0844 00000000 		.4byte	0
 11732 0848 00000000 		.4byte	0
 11733              	.LLST57:
 11734 084c 00000000 		.4byte	.LVL107
 11735 0850 06000000 		.4byte	.LVL108
 11736 0854 0100     		.2byte	0x1
 11737 0856 51       		.byte	0x51
ARM GAS  /var/folders/m4/4md61f0s1_g0rzfghffqnxvr0000gn/T//ccmevqMd.s 			page 207


 11738 0857 06000000 		.4byte	.LVL108
 11739 085b 22000000 		.4byte	.LFE297
 11740 085f 0400     		.2byte	0x4
 11741 0861 F3       		.byte	0xf3
 11742 0862 01       		.uleb128 0x1
 11743 0863 51       		.byte	0x51
 11744 0864 9F       		.byte	0x9f
 11745 0865 00000000 		.4byte	0
 11746 0869 00000000 		.4byte	0
 11747              	.LLST58:
 11748 086d 0C000000 		.4byte	.LVL109
 11749 0871 14000000 		.4byte	.LVL110
 11750 0875 0100     		.2byte	0x1
 11751 0877 50       		.byte	0x50
 11752 0878 14000000 		.4byte	.LVL110
 11753 087c 21000000 		.4byte	.LVL112-1
 11754 0880 0100     		.2byte	0x1
 11755 0882 52       		.byte	0x52
 11756 0883 00000000 		.4byte	0
 11757 0887 00000000 		.4byte	0
 11758              	.LLST59:
 11759 088b 00000000 		.4byte	.LVL113
 11760 088f 09000000 		.4byte	.LVL114-1
 11761 0893 0100     		.2byte	0x1
 11762 0895 50       		.byte	0x50
 11763 0896 09000000 		.4byte	.LVL114-1
 11764 089a 0A000000 		.4byte	.LFE298
 11765 089e 0400     		.2byte	0x4
 11766 08a0 F3       		.byte	0xf3
 11767 08a1 01       		.uleb128 0x1
 11768 08a2 50       		.byte	0x50
 11769 08a3 9F       		.byte	0x9f
 11770 08a4 00000000 		.4byte	0
 11771 08a8 00000000 		.4byte	0
 11772              	.LLST60:
 11773 08ac 00000000 		.4byte	.LVL113
 11774 08b0 09000000 		.4byte	.LVL114-1
 11775 08b4 0100     		.2byte	0x1
 11776 08b6 51       		.byte	0x51
 11777 08b7 09000000 		.4byte	.LVL114-1
 11778 08bb 0A000000 		.4byte	.LFE298
 11779 08bf 0400     		.2byte	0x4
 11780 08c1 F3       		.byte	0xf3
 11781 08c2 01       		.uleb128 0x1
 11782 08c3 51       		.byte	0x51
 11783 08c4 9F       		.byte	0x9f
 11784 08c5 00000000 		.4byte	0
 11785 08c9 00000000 		.4byte	0
 11786              	.LLST61:
 11787 08cd 00000000 		.4byte	.LVL113
 11788 08d1 09000000 		.4byte	.LVL114-1
 11789 08d5 0100     		.2byte	0x1
 11790 08d7 52       		.byte	0x52
 11791 08d8 09000000 		.4byte	.LVL114-1
 11792 08dc 0A000000 		.4byte	.LFE298
 11793 08e0 0400     		.2byte	0x4
 11794 08e2 F3       		.byte	0xf3
ARM GAS  /var/folders/m4/4md61f0s1_g0rzfghffqnxvr0000gn/T//ccmevqMd.s 			page 208


 11795 08e3 01       		.uleb128 0x1
 11796 08e4 52       		.byte	0x52
 11797 08e5 9F       		.byte	0x9f
 11798 08e6 00000000 		.4byte	0
 11799 08ea 00000000 		.4byte	0
 11800              	.LLST62:
 11801 08ee 00000000 		.4byte	.LVL113
 11802 08f2 09000000 		.4byte	.LVL114-1
 11803 08f6 0100     		.2byte	0x1
 11804 08f8 53       		.byte	0x53
 11805 08f9 09000000 		.4byte	.LVL114-1
 11806 08fd 0A000000 		.4byte	.LFE298
 11807 0901 0400     		.2byte	0x4
 11808 0903 F3       		.byte	0xf3
 11809 0904 01       		.uleb128 0x1
 11810 0905 53       		.byte	0x53
 11811 0906 9F       		.byte	0x9f
 11812 0907 00000000 		.4byte	0
 11813 090b 00000000 		.4byte	0
 11814              	.LLST63:
 11815 090f 00000000 		.4byte	.LVL115
 11816 0913 09000000 		.4byte	.LVL116-1
 11817 0917 0100     		.2byte	0x1
 11818 0919 50       		.byte	0x50
 11819 091a 09000000 		.4byte	.LVL116-1
 11820 091e 0A000000 		.4byte	.LFE299
 11821 0922 0400     		.2byte	0x4
 11822 0924 F3       		.byte	0xf3
 11823 0925 01       		.uleb128 0x1
 11824 0926 50       		.byte	0x50
 11825 0927 9F       		.byte	0x9f
 11826 0928 00000000 		.4byte	0
 11827 092c 00000000 		.4byte	0
 11828              	.LLST64:
 11829 0930 00000000 		.4byte	.LVL115
 11830 0934 09000000 		.4byte	.LVL116-1
 11831 0938 0100     		.2byte	0x1
 11832 093a 51       		.byte	0x51
 11833 093b 09000000 		.4byte	.LVL116-1
 11834 093f 0A000000 		.4byte	.LFE299
 11835 0943 0400     		.2byte	0x4
 11836 0945 F3       		.byte	0xf3
 11837 0946 01       		.uleb128 0x1
 11838 0947 51       		.byte	0x51
 11839 0948 9F       		.byte	0x9f
 11840 0949 00000000 		.4byte	0
 11841 094d 00000000 		.4byte	0
 11842              	.LLST65:
 11843 0951 00000000 		.4byte	.LVL115
 11844 0955 09000000 		.4byte	.LVL116-1
 11845 0959 0100     		.2byte	0x1
 11846 095b 52       		.byte	0x52
 11847 095c 09000000 		.4byte	.LVL116-1
 11848 0960 0A000000 		.4byte	.LFE299
 11849 0964 0400     		.2byte	0x4
 11850 0966 F3       		.byte	0xf3
 11851 0967 01       		.uleb128 0x1
ARM GAS  /var/folders/m4/4md61f0s1_g0rzfghffqnxvr0000gn/T//ccmevqMd.s 			page 209


 11852 0968 52       		.byte	0x52
 11853 0969 9F       		.byte	0x9f
 11854 096a 00000000 		.4byte	0
 11855 096e 00000000 		.4byte	0
 11856              	.LLST66:
 11857 0972 00000000 		.4byte	.LVL117
 11858 0976 14000000 		.4byte	.LVL118
 11859 097a 0100     		.2byte	0x1
 11860 097c 50       		.byte	0x50
 11861 097d 14000000 		.4byte	.LVL118
 11862 0981 34000000 		.4byte	.LVL122
 11863 0985 0100     		.2byte	0x1
 11864 0987 54       		.byte	0x54
 11865 0988 34000000 		.4byte	.LVL122
 11866 098c 38000000 		.4byte	.LFE300
 11867 0990 0400     		.2byte	0x4
 11868 0992 F3       		.byte	0xf3
 11869 0993 01       		.uleb128 0x1
 11870 0994 50       		.byte	0x50
 11871 0995 9F       		.byte	0x9f
 11872 0996 00000000 		.4byte	0
 11873 099a 00000000 		.4byte	0
 11874              	.LLST67:
 11875 099e 00000000 		.4byte	.LVL123
 11876 09a2 09000000 		.4byte	.LVL124-1
 11877 09a6 0100     		.2byte	0x1
 11878 09a8 50       		.byte	0x50
 11879 09a9 09000000 		.4byte	.LVL124-1
 11880 09ad 3C000000 		.4byte	.LVL132
 11881 09b1 0100     		.2byte	0x1
 11882 09b3 54       		.byte	0x54
 11883 09b4 3C000000 		.4byte	.LVL132
 11884 09b8 3F000000 		.4byte	.LVL133-1
 11885 09bc 0100     		.2byte	0x1
 11886 09be 50       		.byte	0x50
 11887 09bf 3F000000 		.4byte	.LVL133-1
 11888 09c3 40000000 		.4byte	.LFE294
 11889 09c7 0400     		.2byte	0x4
 11890 09c9 F3       		.byte	0xf3
 11891 09ca 01       		.uleb128 0x1
 11892 09cb 50       		.byte	0x50
 11893 09cc 9F       		.byte	0x9f
 11894 09cd 00000000 		.4byte	0
 11895 09d1 00000000 		.4byte	0
 11896              	.LLST68:
 11897 09d5 0A000000 		.4byte	.LVL124
 11898 09d9 10000000 		.4byte	.LVL125
 11899 09dd 0100     		.2byte	0x1
 11900 09df 50       		.byte	0x50
 11901 09e0 10000000 		.4byte	.LVL125
 11902 09e4 18000000 		.4byte	.LVL126
 11903 09e8 0500     		.2byte	0x5
 11904 09ea 70       		.byte	0x70
 11905 09eb 00       		.sleb128 0
 11906 09ec 34       		.byte	0x34
 11907 09ed 21       		.byte	0x21
 11908 09ee 9F       		.byte	0x9f
ARM GAS  /var/folders/m4/4md61f0s1_g0rzfghffqnxvr0000gn/T//ccmevqMd.s 			page 210


 11909 09ef 2A000000 		.4byte	.LVL129
 11910 09f3 2E000000 		.4byte	.LVL130
 11911 09f7 0100     		.2byte	0x1
 11912 09f9 50       		.byte	0x50
 11913 09fa 00000000 		.4byte	0
 11914 09fe 00000000 		.4byte	0
 11915              	.LLST69:
 11916 0a02 00000000 		.4byte	.LVL134
 11917 0a06 14000000 		.4byte	.LVL135
 11918 0a0a 0100     		.2byte	0x1
 11919 0a0c 50       		.byte	0x50
 11920 0a0d 14000000 		.4byte	.LVL135
 11921 0a11 34000000 		.4byte	.LFE301
 11922 0a15 0100     		.2byte	0x1
 11923 0a17 54       		.byte	0x54
 11924 0a18 00000000 		.4byte	0
 11925 0a1c 00000000 		.4byte	0
 11926              	.LLST70:
 11927 0a20 00000000 		.4byte	.LVL139
 11928 0a24 14000000 		.4byte	.LVL140
 11929 0a28 0100     		.2byte	0x1
 11930 0a2a 50       		.byte	0x50
 11931 0a2b 14000000 		.4byte	.LVL140
 11932 0a2f 34000000 		.4byte	.LFE302
 11933 0a33 0100     		.2byte	0x1
 11934 0a35 54       		.byte	0x54
 11935 0a36 00000000 		.4byte	0
 11936 0a3a 00000000 		.4byte	0
 11937              	.LLST71:
 11938 0a3e 3E000000 		.4byte	.LVL148
 11939 0a42 4A000000 		.4byte	.LVL149
 11940 0a46 0200     		.2byte	0x2
 11941 0a48 30       		.byte	0x30
 11942 0a49 9F       		.byte	0x9f
 11943 0a4a 00000000 		.4byte	0
 11944 0a4e 00000000 		.4byte	0
 11945              	.LLST72:
 11946 0a52 56000000 		.4byte	.LVL150
 11947 0a56 5A000000 		.4byte	.LVL151
 11948 0a5a 0100     		.2byte	0x1
 11949 0a5c 53       		.byte	0x53
 11950 0a5d 5A000000 		.4byte	.LVL151
 11951 0a61 66000000 		.4byte	.LVL153
 11952 0a65 0300     		.2byte	0x3
 11953 0a67 73       		.byte	0x73
 11954 0a68 50       		.sleb128 -48
 11955 0a69 9F       		.byte	0x9f
 11956 0a6a 00000000 		.4byte	0
 11957 0a6e 00000000 		.4byte	0
 11958              	.LLST73:
 11959 0a72 00000000 		.4byte	.LVL165
 11960 0a76 20000000 		.4byte	.LVL166
 11961 0a7a 0100     		.2byte	0x1
 11962 0a7c 50       		.byte	0x50
 11963 0a7d 20000000 		.4byte	.LVL166
 11964 0a81 46000000 		.4byte	.LFE303
 11965 0a85 0100     		.2byte	0x1
ARM GAS  /var/folders/m4/4md61f0s1_g0rzfghffqnxvr0000gn/T//ccmevqMd.s 			page 211


 11966 0a87 54       		.byte	0x54
 11967 0a88 00000000 		.4byte	0
 11968 0a8c 00000000 		.4byte	0
 11969              	.LLST74:
 11970 0a90 00000000 		.4byte	.LVL170
 11971 0a94 1B000000 		.4byte	.LVL171-1
 11972 0a98 0100     		.2byte	0x1
 11973 0a9a 50       		.byte	0x50
 11974 0a9b 1B000000 		.4byte	.LVL171-1
 11975 0a9f 3A000000 		.4byte	.LFE304
 11976 0aa3 0100     		.2byte	0x1
 11977 0aa5 55       		.byte	0x55
 11978 0aa6 00000000 		.4byte	0
 11979 0aaa 00000000 		.4byte	0
 11980              	.LLST75:
 11981 0aae 1C000000 		.4byte	.LVL171
 11982 0ab2 24000000 		.4byte	.LVL172
 11983 0ab6 0500     		.2byte	0x5
 11984 0ab8 70       		.byte	0x70
 11985 0ab9 00       		.sleb128 0
 11986 0aba 31       		.byte	0x31
 11987 0abb 21       		.byte	0x21
 11988 0abc 9F       		.byte	0x9f
 11989 0abd 00000000 		.4byte	0
 11990 0ac1 00000000 		.4byte	0
 11991              	.LLST76:
 11992 0ac5 00000000 		.4byte	.LVL174
 11993 0ac9 22000000 		.4byte	.LVL177
 11994 0acd 0100     		.2byte	0x1
 11995 0acf 50       		.byte	0x50
 11996 0ad0 22000000 		.4byte	.LVL177
 11997 0ad4 28000000 		.4byte	.LVL178
 11998 0ad8 0400     		.2byte	0x4
 11999 0ada F3       		.byte	0xf3
 12000 0adb 01       		.uleb128 0x1
 12001 0adc 50       		.byte	0x50
 12002 0add 9F       		.byte	0x9f
 12003 0ade 28000000 		.4byte	.LVL178
 12004 0ae2 32000000 		.4byte	.LVL181
 12005 0ae6 0100     		.2byte	0x1
 12006 0ae8 50       		.byte	0x50
 12007 0ae9 32000000 		.4byte	.LVL181
 12008 0aed 2E020000 		.4byte	.LFE271
 12009 0af1 0100     		.2byte	0x1
 12010 0af3 54       		.byte	0x54
 12011 0af4 00000000 		.4byte	0
 12012 0af8 00000000 		.4byte	0
 12013              	.LLST77:
 12014 0afc 00000000 		.4byte	.LVL174
 12015 0b00 3A000000 		.4byte	.LVL183
 12016 0b04 0100     		.2byte	0x1
 12017 0b06 51       		.byte	0x51
 12018 0b07 3A000000 		.4byte	.LVL183
 12019 0b0b 2E020000 		.4byte	.LFE271
 12020 0b0f 0100     		.2byte	0x1
 12021 0b11 5A       		.byte	0x5a
 12022 0b12 00000000 		.4byte	0
ARM GAS  /var/folders/m4/4md61f0s1_g0rzfghffqnxvr0000gn/T//ccmevqMd.s 			page 212


 12023 0b16 00000000 		.4byte	0
 12024              	.LLST78:
 12025 0b1a 00000000 		.4byte	.LVL174
 12026 0b1e 38000000 		.4byte	.LVL182
 12027 0b22 0100     		.2byte	0x1
 12028 0b24 52       		.byte	0x52
 12029 0b25 38000000 		.4byte	.LVL182
 12030 0b29 2E020000 		.4byte	.LFE271
 12031 0b2d 0100     		.2byte	0x1
 12032 0b2f 57       		.byte	0x57
 12033 0b30 00000000 		.4byte	0
 12034 0b34 00000000 		.4byte	0
 12035              	.LLST79:
 12036 0b38 00000000 		.4byte	.LVL174
 12037 0b3c 30000000 		.4byte	.LVL180
 12038 0b40 0100     		.2byte	0x1
 12039 0b42 53       		.byte	0x53
 12040 0b43 30000000 		.4byte	.LVL180
 12041 0b47 B4000000 		.4byte	.LVL196
 12042 0b4b 0200     		.2byte	0x2
 12043 0b4d 7D       		.byte	0x7d
 12044 0b4e 00       		.sleb128 0
 12045 0b4f B4000000 		.4byte	.LVL196
 12046 0b53 B8000000 		.4byte	.LVL197
 12047 0b57 0300     		.2byte	0x3
 12048 0b59 91       		.byte	0x91
 12049 0b5a B87F     		.sleb128 -72
 12050 0b5c B8000000 		.4byte	.LVL197
 12051 0b60 02020000 		.4byte	.LVL236
 12052 0b64 0200     		.2byte	0x2
 12053 0b66 7D       		.byte	0x7d
 12054 0b67 00       		.sleb128 0
 12055 0b68 02020000 		.4byte	.LVL236
 12056 0b6c 06020000 		.4byte	.LVL237
 12057 0b70 0300     		.2byte	0x3
 12058 0b72 91       		.byte	0x91
 12059 0b73 B87F     		.sleb128 -72
 12060 0b75 06020000 		.4byte	.LVL237
 12061 0b79 2E020000 		.4byte	.LFE271
 12062 0b7d 0200     		.2byte	0x2
 12063 0b7f 7D       		.byte	0x7d
 12064 0b80 00       		.sleb128 0
 12065 0b81 00000000 		.4byte	0
 12066 0b85 00000000 		.4byte	0
 12067              	.LLST80:
 12068 0b89 08000000 		.4byte	.LVL175
 12069 0b8d 2C000000 		.4byte	.LVL179
 12070 0b91 0200     		.2byte	0x2
 12071 0b93 30       		.byte	0x30
 12072 0b94 9F       		.byte	0x9f
 12073 0b95 2C000000 		.4byte	.LVL179
 12074 0b99 2E020000 		.4byte	.LFE271
 12075 0b9d 0100     		.2byte	0x1
 12076 0b9f 54       		.byte	0x54
 12077 0ba0 00000000 		.4byte	0
 12078 0ba4 00000000 		.4byte	0
 12079              	.LLST81:
ARM GAS  /var/folders/m4/4md61f0s1_g0rzfghffqnxvr0000gn/T//ccmevqMd.s 			page 213


 12080 0ba8 2C000000 		.4byte	.LVL179
 12081 0bac 4A000000 		.4byte	.LVL186
 12082 0bb0 0200     		.2byte	0x2
 12083 0bb2 30       		.byte	0x30
 12084 0bb3 9F       		.byte	0x9f
 12085 0bb4 4A000000 		.4byte	.LVL186
 12086 0bb8 80000000 		.4byte	.LVL190
 12087 0bbc 0100     		.2byte	0x1
 12088 0bbe 55       		.byte	0x55
 12089 0bbf 82000000 		.4byte	.LVL191
 12090 0bc3 AA010000 		.4byte	.LVL224
 12091 0bc7 0100     		.2byte	0x1
 12092 0bc9 55       		.byte	0x55
 12093 0bca AC010000 		.4byte	.LVL225
 12094 0bce 2E020000 		.4byte	.LFE271
 12095 0bd2 0100     		.2byte	0x1
 12096 0bd4 55       		.byte	0x55
 12097 0bd5 00000000 		.4byte	0
 12098 0bd9 00000000 		.4byte	0
 12099              	.LLST82:
 12100 0bdd 08000000 		.4byte	.LVL175
 12101 0be1 12000000 		.4byte	.LVL176
 12102 0be5 0200     		.2byte	0x2
 12103 0be7 30       		.byte	0x30
 12104 0be8 9F       		.byte	0x9f
 12105 0be9 00000000 		.4byte	0
 12106 0bed 00000000 		.4byte	0
 12107              	.LLST83:
 12108 0bf1 2C000000 		.4byte	.LVL179
 12109 0bf5 3A000000 		.4byte	.LVL183
 12110 0bf9 0300     		.2byte	0x3
 12111 0bfb 91       		.byte	0x91
 12112 0bfc 44       		.sleb128 -60
 12113 0bfd 9F       		.byte	0x9f
 12114 0bfe 3A000000 		.4byte	.LVL183
 12115 0c02 3D000000 		.4byte	.LVL184-1
 12116 0c06 0100     		.2byte	0x1
 12117 0c08 51       		.byte	0x51
 12118 0c09 3D000000 		.4byte	.LVL184-1
 12119 0c0d AA000000 		.4byte	.LVL194
 12120 0c11 0300     		.2byte	0x3
 12121 0c13 91       		.byte	0x91
 12122 0c14 44       		.sleb128 -60
 12123 0c15 9F       		.byte	0x9f
 12124 0c16 AA000000 		.4byte	.LVL194
 12125 0c1a AF000000 		.4byte	.LVL195-1
 12126 0c1e 0100     		.2byte	0x1
 12127 0c20 51       		.byte	0x51
 12128 0c21 AF000000 		.4byte	.LVL195-1
 12129 0c25 EA010000 		.4byte	.LVL234
 12130 0c29 0300     		.2byte	0x3
 12131 0c2b 91       		.byte	0x91
 12132 0c2c 44       		.sleb128 -60
 12133 0c2d 9F       		.byte	0x9f
 12134 0c2e EA010000 		.4byte	.LVL234
 12135 0c32 ED010000 		.4byte	.LVL235-1
 12136 0c36 0100     		.2byte	0x1
ARM GAS  /var/folders/m4/4md61f0s1_g0rzfghffqnxvr0000gn/T//ccmevqMd.s 			page 214


 12137 0c38 51       		.byte	0x51
 12138 0c39 ED010000 		.4byte	.LVL235-1
 12139 0c3d 2E020000 		.4byte	.LFE271
 12140 0c41 0300     		.2byte	0x3
 12141 0c43 91       		.byte	0x91
 12142 0c44 44       		.sleb128 -60
 12143 0c45 9F       		.byte	0x9f
 12144 0c46 00000000 		.4byte	0
 12145 0c4a 00000000 		.4byte	0
 12146              	.LLST84:
 12147 0c4e 60010000 		.4byte	.LVL211
 12148 0c52 66010000 		.4byte	.LVL213
 12149 0c56 0100     		.2byte	0x1
 12150 0c58 50       		.byte	0x50
 12151 0c59 00000000 		.4byte	0
 12152 0c5d 00000000 		.4byte	0
 12153              	.LLST85:
 12154 0c61 5E000000 		.4byte	.LVL187
 12155 0c65 92000000 		.4byte	.LVL192
 12156 0c69 0100     		.2byte	0x1
 12157 0c6b 5E       		.byte	0x5e
 12158 0c6c 00000000 		.4byte	0
 12159 0c70 00000000 		.4byte	0
 12160              	.LLST86:
 12161 0c74 5E000000 		.4byte	.LVL187
 12162 0c78 66000000 		.4byte	.LVL188
 12163 0c7c 0200     		.2byte	0x2
 12164 0c7e 30       		.byte	0x30
 12165 0c7f 9F       		.byte	0x9f
 12166 0c80 66000000 		.4byte	.LVL188
 12167 0c84 6C000000 		.4byte	.LVL189
 12168 0c88 0100     		.2byte	0x1
 12169 0c8a 51       		.byte	0x51
 12170 0c8b 00000000 		.4byte	0
 12171 0c8f 00000000 		.4byte	0
 12172              	.LLST87:
 12173 0c93 B8000000 		.4byte	.LVL197
 12174 0c97 AE010000 		.4byte	.LVL226
 12175 0c9b 0100     		.2byte	0x1
 12176 0c9d 59       		.byte	0x59
 12177 0c9e BA010000 		.4byte	.LVL228
 12178 0ca2 2E020000 		.4byte	.LFE271
 12179 0ca6 0100     		.2byte	0x1
 12180 0ca8 59       		.byte	0x59
 12181 0ca9 00000000 		.4byte	0
 12182 0cad 00000000 		.4byte	0
 12183              	.LLST88:
 12184 0cb1 E8000000 		.4byte	.LVL200
 12185 0cb5 0E010000 		.4byte	.LVL202
 12186 0cb9 0100     		.2byte	0x1
 12187 0cbb 50       		.byte	0x50
 12188 0cbc 70010000 		.4byte	.LVL215
 12189 0cc0 76010000 		.4byte	.LVL216
 12190 0cc4 0100     		.2byte	0x1
 12191 0cc6 50       		.byte	0x50
 12192 0cc7 84010000 		.4byte	.LVL217
 12193 0ccb 92010000 		.4byte	.LVL218
ARM GAS  /var/folders/m4/4md61f0s1_g0rzfghffqnxvr0000gn/T//ccmevqMd.s 			page 215


 12194 0ccf 0100     		.2byte	0x1
 12195 0cd1 50       		.byte	0x50
 12196 0cd2 9E010000 		.4byte	.LVL221
 12197 0cd6 A8010000 		.4byte	.LVL223
 12198 0cda 0100     		.2byte	0x1
 12199 0cdc 50       		.byte	0x50
 12200 0cdd BA010000 		.4byte	.LVL228
 12201 0ce1 BE010000 		.4byte	.LVL229
 12202 0ce5 0100     		.2byte	0x1
 12203 0ce7 50       		.byte	0x50
 12204 0ce8 06020000 		.4byte	.LVL237
 12205 0cec 10020000 		.4byte	.LVL238
 12206 0cf0 0100     		.2byte	0x1
 12207 0cf2 50       		.byte	0x50
 12208 0cf3 1C020000 		.4byte	.LVL241
 12209 0cf7 1E020000 		.4byte	.LVL242
 12210 0cfb 0100     		.2byte	0x1
 12211 0cfd 50       		.byte	0x50
 12212 0cfe 00000000 		.4byte	0
 12213 0d02 00000000 		.4byte	0
 12214              	.LLST89:
 12215 0d06 E8000000 		.4byte	.LVL200
 12216 0d0a 48010000 		.4byte	.LVL209
 12217 0d0e 0900     		.2byte	0x9
 12218 0d10 76       		.byte	0x76
 12219 0d11 00       		.sleb128 0
 12220 0d12 08       		.byte	0x8
 12221 0d13 30       		.byte	0x30
 12222 0d14 1E       		.byte	0x1e
 12223 0d15 79       		.byte	0x79
 12224 0d16 00       		.sleb128 0
 12225 0d17 22       		.byte	0x22
 12226 0d18 9F       		.byte	0x9f
 12227 0d19 70010000 		.4byte	.LVL215
 12228 0d1d AE010000 		.4byte	.LVL226
 12229 0d21 0900     		.2byte	0x9
 12230 0d23 76       		.byte	0x76
 12231 0d24 00       		.sleb128 0
 12232 0d25 08       		.byte	0x8
 12233 0d26 30       		.byte	0x30
 12234 0d27 1E       		.byte	0x1e
 12235 0d28 79       		.byte	0x79
 12236 0d29 00       		.sleb128 0
 12237 0d2a 22       		.byte	0x22
 12238 0d2b 9F       		.byte	0x9f
 12239 0d2c BA010000 		.4byte	.LVL228
 12240 0d30 E6010000 		.4byte	.LVL233
 12241 0d34 0900     		.2byte	0x9
 12242 0d36 76       		.byte	0x76
 12243 0d37 00       		.sleb128 0
 12244 0d38 08       		.byte	0x8
 12245 0d39 30       		.byte	0x30
 12246 0d3a 1E       		.byte	0x1e
 12247 0d3b 79       		.byte	0x79
 12248 0d3c 00       		.sleb128 0
 12249 0d3d 22       		.byte	0x22
 12250 0d3e 9F       		.byte	0x9f
ARM GAS  /var/folders/m4/4md61f0s1_g0rzfghffqnxvr0000gn/T//ccmevqMd.s 			page 216


 12251 0d3f 06020000 		.4byte	.LVL237
 12252 0d43 2E020000 		.4byte	.LFE271
 12253 0d47 0900     		.2byte	0x9
 12254 0d49 76       		.byte	0x76
 12255 0d4a 00       		.sleb128 0
 12256 0d4b 08       		.byte	0x8
 12257 0d4c 30       		.byte	0x30
 12258 0d4d 1E       		.byte	0x1e
 12259 0d4e 79       		.byte	0x79
 12260 0d4f 00       		.sleb128 0
 12261 0d50 22       		.byte	0x22
 12262 0d51 9F       		.byte	0x9f
 12263 0d52 00000000 		.4byte	0
 12264 0d56 00000000 		.4byte	0
 12265              	.LLST90:
 12266 0d5a 00010000 		.4byte	.LVL201
 12267 0d5e 16010000 		.4byte	.LVL203
 12268 0d62 0100     		.2byte	0x1
 12269 0d64 53       		.byte	0x53
 12270 0d65 18010000 		.4byte	.LVL204
 12271 0d69 26010000 		.4byte	.LVL206
 12272 0d6d 0100     		.2byte	0x1
 12273 0d6f 53       		.byte	0x53
 12274 0d70 CC010000 		.4byte	.LVL230
 12275 0d74 E0010000 		.4byte	.LVL231
 12276 0d78 0100     		.2byte	0x1
 12277 0d7a 53       		.byte	0x53
 12278 0d7b 00000000 		.4byte	0
 12279 0d7f 00000000 		.4byte	0
 12280              	.LLST91:
 12281 0d83 20010000 		.4byte	.LVL205
 12282 0d87 38010000 		.4byte	.LVL208
 12283 0d8b 0300     		.2byte	0x3
 12284 0d8d 91       		.byte	0x91
 12285 0d8e 43       		.sleb128 -61
 12286 0d8f 9F       		.byte	0x9f
 12287 0d90 CC010000 		.4byte	.LVL230
 12288 0d94 E0010000 		.4byte	.LVL231
 12289 0d98 0300     		.2byte	0x3
 12290 0d9a 91       		.byte	0x91
 12291 0d9b 43       		.sleb128 -61
 12292 0d9c 9F       		.byte	0x9f
 12293 0d9d E0010000 		.4byte	.LVL231
 12294 0da1 E3010000 		.4byte	.LVL232-1
 12295 0da5 0100     		.2byte	0x1
 12296 0da7 53       		.byte	0x53
 12297 0da8 E3010000 		.4byte	.LVL232-1
 12298 0dac E6010000 		.4byte	.LVL233
 12299 0db0 0300     		.2byte	0x3
 12300 0db2 91       		.byte	0x91
 12301 0db3 43       		.sleb128 -61
 12302 0db4 9F       		.byte	0x9f
 12303 0db5 00000000 		.4byte	0
 12304 0db9 00000000 		.4byte	0
 12305              	.LLST92:
 12306 0dbd 20010000 		.4byte	.LVL205
 12307 0dc1 34010000 		.4byte	.LVL207
ARM GAS  /var/folders/m4/4md61f0s1_g0rzfghffqnxvr0000gn/T//ccmevqMd.s 			page 217


 12308 0dc5 0100     		.2byte	0x1
 12309 0dc7 58       		.byte	0x58
 12310 0dc8 CC010000 		.4byte	.LVL230
 12311 0dcc E6010000 		.4byte	.LVL233
 12312 0dd0 0100     		.2byte	0x1
 12313 0dd2 58       		.byte	0x58
 12314 0dd3 00000000 		.4byte	0
 12315 0dd7 00000000 		.4byte	0
 12316              	.LLST93:
 12317 0ddb 70010000 		.4byte	.LVL215
 12318 0ddf 98010000 		.4byte	.LVL219
 12319 0de3 0300     		.2byte	0x3
 12320 0de5 91       		.byte	0x91
 12321 0de6 43       		.sleb128 -61
 12322 0de7 9F       		.byte	0x9f
 12323 0de8 98010000 		.4byte	.LVL219
 12324 0dec 9B010000 		.4byte	.LVL220-1
 12325 0df0 0100     		.2byte	0x1
 12326 0df2 53       		.byte	0x53
 12327 0df3 9B010000 		.4byte	.LVL220-1
 12328 0df7 9E010000 		.4byte	.LVL221
 12329 0dfb 0300     		.2byte	0x3
 12330 0dfd 91       		.byte	0x91
 12331 0dfe 43       		.sleb128 -61
 12332 0dff 9F       		.byte	0x9f
 12333 0e00 00000000 		.4byte	0
 12334 0e04 00000000 		.4byte	0
 12335              	.LLST94:
 12336 0e08 70010000 		.4byte	.LVL215
 12337 0e0c 9E010000 		.4byte	.LVL221
 12338 0e10 0100     		.2byte	0x1
 12339 0e12 58       		.byte	0x58
 12340 0e13 00000000 		.4byte	0
 12341 0e17 00000000 		.4byte	0
 12342              	.LLST95:
 12343 0e1b A4010000 		.4byte	.LVL222
 12344 0e1f AE010000 		.4byte	.LVL226
 12345 0e23 0300     		.2byte	0x3
 12346 0e25 91       		.byte	0x91
 12347 0e26 43       		.sleb128 -61
 12348 0e27 9F       		.byte	0x9f
 12349 0e28 1C020000 		.4byte	.LVL241
 12350 0e2c 28020000 		.4byte	.LVL243
 12351 0e30 0300     		.2byte	0x3
 12352 0e32 91       		.byte	0x91
 12353 0e33 43       		.sleb128 -61
 12354 0e34 9F       		.byte	0x9f
 12355 0e35 28020000 		.4byte	.LVL243
 12356 0e39 2B020000 		.4byte	.LVL244-1
 12357 0e3d 0100     		.2byte	0x1
 12358 0e3f 53       		.byte	0x53
 12359 0e40 2B020000 		.4byte	.LVL244-1
 12360 0e44 2E020000 		.4byte	.LFE271
 12361 0e48 0300     		.2byte	0x3
 12362 0e4a 91       		.byte	0x91
 12363 0e4b 43       		.sleb128 -61
 12364 0e4c 9F       		.byte	0x9f
ARM GAS  /var/folders/m4/4md61f0s1_g0rzfghffqnxvr0000gn/T//ccmevqMd.s 			page 218


 12365 0e4d 00000000 		.4byte	0
 12366 0e51 00000000 		.4byte	0
 12367              	.LLST96:
 12368 0e55 A4010000 		.4byte	.LVL222
 12369 0e59 A8010000 		.4byte	.LVL223
 12370 0e5d 0100     		.2byte	0x1
 12371 0e5f 50       		.byte	0x50
 12372 0e60 1C020000 		.4byte	.LVL241
 12373 0e64 1E020000 		.4byte	.LVL242
 12374 0e68 0100     		.2byte	0x1
 12375 0e6a 50       		.byte	0x50
 12376 0e6b 00000000 		.4byte	0
 12377 0e6f 00000000 		.4byte	0
 12378              	.LLST97:
 12379 0e73 BA010000 		.4byte	.LVL228
 12380 0e77 CC010000 		.4byte	.LVL230
 12381 0e7b 0300     		.2byte	0x3
 12382 0e7d 91       		.byte	0x91
 12383 0e7e 43       		.sleb128 -61
 12384 0e7f 9F       		.byte	0x9f
 12385 0e80 06020000 		.4byte	.LVL237
 12386 0e84 16020000 		.4byte	.LVL239
 12387 0e88 0300     		.2byte	0x3
 12388 0e8a 91       		.byte	0x91
 12389 0e8b 43       		.sleb128 -61
 12390 0e8c 9F       		.byte	0x9f
 12391 0e8d 16020000 		.4byte	.LVL239
 12392 0e91 19020000 		.4byte	.LVL240-1
 12393 0e95 0100     		.2byte	0x1
 12394 0e97 53       		.byte	0x53
 12395 0e98 19020000 		.4byte	.LVL240-1
 12396 0e9c 1C020000 		.4byte	.LVL241
 12397 0ea0 0300     		.2byte	0x3
 12398 0ea2 91       		.byte	0x91
 12399 0ea3 43       		.sleb128 -61
 12400 0ea4 9F       		.byte	0x9f
 12401 0ea5 00000000 		.4byte	0
 12402 0ea9 00000000 		.4byte	0
 12403              	.LLST98:
 12404 0ead BA010000 		.4byte	.LVL228
 12405 0eb1 BE010000 		.4byte	.LVL229
 12406 0eb5 0100     		.2byte	0x1
 12407 0eb7 50       		.byte	0x50
 12408 0eb8 06020000 		.4byte	.LVL237
 12409 0ebc 10020000 		.4byte	.LVL238
 12410 0ec0 0100     		.2byte	0x1
 12411 0ec2 50       		.byte	0x50
 12412 0ec3 00000000 		.4byte	0
 12413 0ec7 00000000 		.4byte	0
 12414              	.LLST99:
 12415 0ecb 64010000 		.4byte	.LVL212
 12416 0ecf 70010000 		.4byte	.LVL215
 12417 0ed3 0300     		.2byte	0x3
 12418 0ed5 08       		.byte	0x8
 12419 0ed6 40       		.byte	0x40
 12420 0ed7 9F       		.byte	0x9f
 12421 0ed8 00000000 		.4byte	0
ARM GAS  /var/folders/m4/4md61f0s1_g0rzfghffqnxvr0000gn/T//ccmevqMd.s 			page 219


 12422 0edc 00000000 		.4byte	0
 12423              	.LLST100:
 12424 0ee0 64010000 		.4byte	.LVL212
 12425 0ee4 70010000 		.4byte	.LVL215
 12426 0ee8 0100     		.2byte	0x1
 12427 0eea 59       		.byte	0x59
 12428 0eeb 00000000 		.4byte	0
 12429 0eef 00000000 		.4byte	0
 12430              	.LLST101:
 12431 0ef3 EE010000 		.4byte	.LVL235
 12432 0ef7 06020000 		.4byte	.LVL237
 12433 0efb 0100     		.2byte	0x1
 12434 0efd 59       		.byte	0x59
 12435 0efe 00000000 		.4byte	0
 12436 0f02 00000000 		.4byte	0
 12437              	.LLST102:
 12438 0f06 98000000 		.4byte	.LVL193
 12439 0f0a B8000000 		.4byte	.LVL197
 12440 0f0e 0100     		.2byte	0x1
 12441 0f10 59       		.byte	0x59
 12442 0f11 00000000 		.4byte	0
 12443 0f15 00000000 		.4byte	0
 12444              	.LLST103:
 12445 0f19 00000000 		.4byte	.LVL245
 12446 0f1d 1A000000 		.4byte	.LVL248
 12447 0f21 0100     		.2byte	0x1
 12448 0f23 50       		.byte	0x50
 12449 0f24 1A000000 		.4byte	.LVL248
 12450 0f28 1E000000 		.4byte	.LVL249
 12451 0f2c 0400     		.2byte	0x4
 12452 0f2e F3       		.byte	0xf3
 12453 0f2f 01       		.uleb128 0x1
 12454 0f30 50       		.byte	0x50
 12455 0f31 9F       		.byte	0x9f
 12456 0f32 1E000000 		.4byte	.LVL249
 12457 0f36 32000000 		.4byte	.LVL251
 12458 0f3a 0100     		.2byte	0x1
 12459 0f3c 50       		.byte	0x50
 12460 0f3d 32000000 		.4byte	.LVL251
 12461 0f41 36000000 		.4byte	.LVL252
 12462 0f45 0400     		.2byte	0x4
 12463 0f47 F3       		.byte	0xf3
 12464 0f48 01       		.uleb128 0x1
 12465 0f49 50       		.byte	0x50
 12466 0f4a 9F       		.byte	0x9f
 12467 0f4b 36000000 		.4byte	.LVL252
 12468 0f4f 41000000 		.4byte	.LVL255-1
 12469 0f53 0100     		.2byte	0x1
 12470 0f55 50       		.byte	0x50
 12471 0f56 41000000 		.4byte	.LVL255-1
 12472 0f5a 54000000 		.4byte	.LFE273
 12473 0f5e 0400     		.2byte	0x4
 12474 0f60 F3       		.byte	0xf3
 12475 0f61 01       		.uleb128 0x1
 12476 0f62 50       		.byte	0x50
 12477 0f63 9F       		.byte	0x9f
 12478 0f64 00000000 		.4byte	0
ARM GAS  /var/folders/m4/4md61f0s1_g0rzfghffqnxvr0000gn/T//ccmevqMd.s 			page 220


 12479 0f68 00000000 		.4byte	0
 12480              	.LLST104:
 12481 0f6c 00000000 		.4byte	.LVL245
 12482 0f70 3E000000 		.4byte	.LVL254
 12483 0f74 0100     		.2byte	0x1
 12484 0f76 51       		.byte	0x51
 12485 0f77 3E000000 		.4byte	.LVL254
 12486 0f7b 41000000 		.4byte	.LVL255-1
 12487 0f7f 0100     		.2byte	0x1
 12488 0f81 53       		.byte	0x53
 12489 0f82 41000000 		.4byte	.LVL255-1
 12490 0f86 54000000 		.4byte	.LFE273
 12491 0f8a 0400     		.2byte	0x4
 12492 0f8c F3       		.byte	0xf3
 12493 0f8d 01       		.uleb128 0x1
 12494 0f8e 51       		.byte	0x51
 12495 0f8f 9F       		.byte	0x9f
 12496 0f90 00000000 		.4byte	0
 12497 0f94 00000000 		.4byte	0
 12498              	.LLST105:
 12499 0f98 04000000 		.4byte	.LVL246
 12500 0f9c 1E000000 		.4byte	.LVL249
 12501 0fa0 0200     		.2byte	0x2
 12502 0fa2 30       		.byte	0x30
 12503 0fa3 9F       		.byte	0x9f
 12504 0fa4 1E000000 		.4byte	.LVL249
 12505 0fa8 32000000 		.4byte	.LVL251
 12506 0fac 0100     		.2byte	0x1
 12507 0fae 50       		.byte	0x50
 12508 0faf 32000000 		.4byte	.LVL251
 12509 0fb3 36000000 		.4byte	.LVL252
 12510 0fb7 0400     		.2byte	0x4
 12511 0fb9 F3       		.byte	0xf3
 12512 0fba 01       		.uleb128 0x1
 12513 0fbb 50       		.byte	0x50
 12514 0fbc 9F       		.byte	0x9f
 12515 0fbd 36000000 		.4byte	.LVL252
 12516 0fc1 41000000 		.4byte	.LVL255-1
 12517 0fc5 0100     		.2byte	0x1
 12518 0fc7 50       		.byte	0x50
 12519 0fc8 41000000 		.4byte	.LVL255-1
 12520 0fcc 54000000 		.4byte	.LFE273
 12521 0fd0 0400     		.2byte	0x4
 12522 0fd2 F3       		.byte	0xf3
 12523 0fd3 01       		.uleb128 0x1
 12524 0fd4 50       		.byte	0x50
 12525 0fd5 9F       		.byte	0x9f
 12526 0fd6 00000000 		.4byte	0
 12527 0fda 00000000 		.4byte	0
 12528              	.LLST106:
 12529 0fde 04000000 		.4byte	.LVL246
 12530 0fe2 0A000000 		.4byte	.LVL247
 12531 0fe6 0200     		.2byte	0x2
 12532 0fe8 30       		.byte	0x30
 12533 0fe9 9F       		.byte	0x9f
 12534 0fea 00000000 		.4byte	0
 12535 0fee 00000000 		.4byte	0
ARM GAS  /var/folders/m4/4md61f0s1_g0rzfghffqnxvr0000gn/T//ccmevqMd.s 			page 221


 12536              	.LLST107:
 12537 0ff2 2C000000 		.4byte	.LVL250
 12538 0ff6 36000000 		.4byte	.LVL252
 12539 0ffa 0100     		.2byte	0x1
 12540 0ffc 53       		.byte	0x53
 12541 0ffd 00000000 		.4byte	0
 12542 1001 00000000 		.4byte	0
 12543              	.LLST108:
 12544 1005 38000000 		.4byte	.LVL253
 12545 1009 41000000 		.4byte	.LVL255-1
 12546 100d 0100     		.2byte	0x1
 12547 100f 53       		.byte	0x53
 12548 1010 41000000 		.4byte	.LVL255-1
 12549 1014 54000000 		.4byte	.LFE273
 12550 1018 0400     		.2byte	0x4
 12551 101a F3       		.byte	0xf3
 12552 101b 01       		.uleb128 0x1
 12553 101c 51       		.byte	0x51
 12554 101d 9F       		.byte	0x9f
 12555 101e 00000000 		.4byte	0
 12556 1022 00000000 		.4byte	0
 12557              	.LLST109:
 12558 1026 36000000 		.4byte	.LVL252
 12559 102a 41000000 		.4byte	.LVL255-1
 12560 102e 0100     		.2byte	0x1
 12561 1030 50       		.byte	0x50
 12562 1031 41000000 		.4byte	.LVL255-1
 12563 1035 54000000 		.4byte	.LFE273
 12564 1039 0400     		.2byte	0x4
 12565 103b F3       		.byte	0xf3
 12566 103c 01       		.uleb128 0x1
 12567 103d 50       		.byte	0x50
 12568 103e 9F       		.byte	0x9f
 12569 103f 00000000 		.4byte	0
 12570 1043 00000000 		.4byte	0
 12571              	.LLST110:
 12572 1047 00000000 		.4byte	.LVL256
 12573 104b 07000000 		.4byte	.LVL257-1
 12574 104f 0100     		.2byte	0x1
 12575 1051 50       		.byte	0x50
 12576 1052 07000000 		.4byte	.LVL257-1
 12577 1056 08000000 		.4byte	.LFE277
 12578 105a 0400     		.2byte	0x4
 12579 105c F3       		.byte	0xf3
 12580 105d 01       		.uleb128 0x1
 12581 105e 50       		.byte	0x50
 12582 105f 9F       		.byte	0x9f
 12583 1060 00000000 		.4byte	0
 12584 1064 00000000 		.4byte	0
 12585              	.LLST111:
 12586 1068 00000000 		.4byte	.LVL258
 12587 106c 07000000 		.4byte	.LVL259-1
 12588 1070 0100     		.2byte	0x1
 12589 1072 50       		.byte	0x50
 12590 1073 07000000 		.4byte	.LVL259-1
 12591 1077 08000000 		.4byte	.LFE275
 12592 107b 0400     		.2byte	0x4
ARM GAS  /var/folders/m4/4md61f0s1_g0rzfghffqnxvr0000gn/T//ccmevqMd.s 			page 222


 12593 107d F3       		.byte	0xf3
 12594 107e 01       		.uleb128 0x1
 12595 107f 50       		.byte	0x50
 12596 1080 9F       		.byte	0x9f
 12597 1081 00000000 		.4byte	0
 12598 1085 00000000 		.4byte	0
 12599              	.LLST112:
 12600 1089 00000000 		.4byte	.LVL258
 12601 108d 07000000 		.4byte	.LVL259-1
 12602 1091 0100     		.2byte	0x1
 12603 1093 51       		.byte	0x51
 12604 1094 07000000 		.4byte	.LVL259-1
 12605 1098 08000000 		.4byte	.LFE275
 12606 109c 0400     		.2byte	0x4
 12607 109e F3       		.byte	0xf3
 12608 109f 01       		.uleb128 0x1
 12609 10a0 51       		.byte	0x51
 12610 10a1 9F       		.byte	0x9f
 12611 10a2 00000000 		.4byte	0
 12612 10a6 00000000 		.4byte	0
 12613              	.LLST113:
 12614 10aa 00000000 		.4byte	.LVL258
 12615 10ae 07000000 		.4byte	.LVL259-1
 12616 10b2 0100     		.2byte	0x1
 12617 10b4 52       		.byte	0x52
 12618 10b5 07000000 		.4byte	.LVL259-1
 12619 10b9 08000000 		.4byte	.LFE275
 12620 10bd 0400     		.2byte	0x4
 12621 10bf F3       		.byte	0xf3
 12622 10c0 01       		.uleb128 0x1
 12623 10c1 52       		.byte	0x52
 12624 10c2 9F       		.byte	0x9f
 12625 10c3 00000000 		.4byte	0
 12626 10c7 00000000 		.4byte	0
 12627              	.LLST114:
 12628 10cb 00000000 		.4byte	.LVL260
 12629 10cf 1B000000 		.4byte	.LVL261-1
 12630 10d3 0100     		.2byte	0x1
 12631 10d5 50       		.byte	0x50
 12632 10d6 1B000000 		.4byte	.LVL261-1
 12633 10da 38000000 		.4byte	.LFE305
 12634 10de 0100     		.2byte	0x1
 12635 10e0 55       		.byte	0x55
 12636 10e1 00000000 		.4byte	0
 12637 10e5 00000000 		.4byte	0
 12638              	.LLST115:
 12639 10e9 1C000000 		.4byte	.LVL261
 12640 10ed 24000000 		.4byte	.LVL262
 12641 10f1 0600     		.2byte	0x6
 12642 10f3 70       		.byte	0x70
 12643 10f4 00       		.sleb128 0
 12644 10f5 09       		.byte	0x9
 12645 10f6 FE       		.byte	0xfe
 12646 10f7 1A       		.byte	0x1a
 12647 10f8 9F       		.byte	0x9f
 12648 10f9 00000000 		.4byte	0
 12649 10fd 00000000 		.4byte	0
ARM GAS  /var/folders/m4/4md61f0s1_g0rzfghffqnxvr0000gn/T//ccmevqMd.s 			page 223


 12650              	.LLST116:
 12651 1101 00000000 		.4byte	.LVL264
 12652 1105 10000000 		.4byte	.LVL266
 12653 1109 0100     		.2byte	0x1
 12654 110b 50       		.byte	0x50
 12655 110c 10000000 		.4byte	.LVL266
 12656 1110 18000000 		.4byte	.LVL267
 12657 1114 0400     		.2byte	0x4
 12658 1116 F3       		.byte	0xf3
 12659 1117 01       		.uleb128 0x1
 12660 1118 50       		.byte	0x50
 12661 1119 9F       		.byte	0x9f
 12662 111a 18000000 		.4byte	.LVL267
 12663 111e 1E000000 		.4byte	.LVL269
 12664 1122 0100     		.2byte	0x1
 12665 1124 50       		.byte	0x50
 12666 1125 1E000000 		.4byte	.LVL269
 12667 1129 F2000000 		.4byte	.LFE270
 12668 112d 0400     		.2byte	0x4
 12669 112f F3       		.byte	0xf3
 12670 1130 01       		.uleb128 0x1
 12671 1131 50       		.byte	0x50
 12672 1132 9F       		.byte	0x9f
 12673 1133 00000000 		.4byte	0
 12674 1137 00000000 		.4byte	0
 12675              	.LLST117:
 12676 113b 00000000 		.4byte	.LVL264
 12677 113f 10000000 		.4byte	.LVL266
 12678 1143 0100     		.2byte	0x1
 12679 1145 51       		.byte	0x51
 12680 1146 10000000 		.4byte	.LVL266
 12681 114a 18000000 		.4byte	.LVL267
 12682 114e 0400     		.2byte	0x4
 12683 1150 F3       		.byte	0xf3
 12684 1151 01       		.uleb128 0x1
 12685 1152 51       		.byte	0x51
 12686 1153 9F       		.byte	0x9f
 12687 1154 18000000 		.4byte	.LVL267
 12688 1158 2C000000 		.4byte	.LVL272
 12689 115c 0100     		.2byte	0x1
 12690 115e 51       		.byte	0x51
 12691 115f 2C000000 		.4byte	.LVL272
 12692 1163 F2000000 		.4byte	.LFE270
 12693 1167 0100     		.2byte	0x1
 12694 1169 58       		.byte	0x58
 12695 116a 00000000 		.4byte	0
 12696 116e 00000000 		.4byte	0
 12697              	.LLST118:
 12698 1172 00000000 		.4byte	.LVL264
 12699 1176 10000000 		.4byte	.LVL266
 12700 117a 0100     		.2byte	0x1
 12701 117c 52       		.byte	0x52
 12702 117d 10000000 		.4byte	.LVL266
 12703 1181 18000000 		.4byte	.LVL267
 12704 1185 0400     		.2byte	0x4
 12705 1187 F3       		.byte	0xf3
 12706 1188 01       		.uleb128 0x1
ARM GAS  /var/folders/m4/4md61f0s1_g0rzfghffqnxvr0000gn/T//ccmevqMd.s 			page 224


 12707 1189 52       		.byte	0x52
 12708 118a 9F       		.byte	0x9f
 12709 118b 18000000 		.4byte	.LVL267
 12710 118f 28000000 		.4byte	.LVL271
 12711 1193 0100     		.2byte	0x1
 12712 1195 52       		.byte	0x52
 12713 1196 28000000 		.4byte	.LVL271
 12714 119a F2000000 		.4byte	.LFE270
 12715 119e 0100     		.2byte	0x1
 12716 11a0 57       		.byte	0x57
 12717 11a1 00000000 		.4byte	0
 12718 11a5 00000000 		.4byte	0
 12719              	.LLST119:
 12720 11a9 00000000 		.4byte	.LVL264
 12721 11ad 10000000 		.4byte	.LVL266
 12722 11b1 0100     		.2byte	0x1
 12723 11b3 53       		.byte	0x53
 12724 11b4 10000000 		.4byte	.LVL266
 12725 11b8 18000000 		.4byte	.LVL267
 12726 11bc 0400     		.2byte	0x4
 12727 11be F3       		.byte	0xf3
 12728 11bf 01       		.uleb128 0x1
 12729 11c0 53       		.byte	0x53
 12730 11c1 9F       		.byte	0x9f
 12731 11c2 18000000 		.4byte	.LVL267
 12732 11c6 26000000 		.4byte	.LVL270
 12733 11ca 0100     		.2byte	0x1
 12734 11cc 53       		.byte	0x53
 12735 11cd 26000000 		.4byte	.LVL270
 12736 11d1 F2000000 		.4byte	.LFE270
 12737 11d5 0100     		.2byte	0x1
 12738 11d7 59       		.byte	0x59
 12739 11d8 00000000 		.4byte	0
 12740 11dc 00000000 		.4byte	0
 12741              	.LLST120:
 12742 11e0 30000000 		.4byte	.LVL273
 12743 11e4 48000000 		.4byte	.LVL277
 12744 11e8 0200     		.2byte	0x2
 12745 11ea 30       		.byte	0x30
 12746 11eb 9F       		.byte	0x9f
 12747 11ec 48000000 		.4byte	.LVL277
 12748 11f0 8C000000 		.4byte	.LVL290
 12749 11f4 0100     		.2byte	0x1
 12750 11f6 5B       		.byte	0x5b
 12751 11f7 8C000000 		.4byte	.LVL290
 12752 11fb 9A000000 		.4byte	.LVL294
 12753 11ff 0200     		.2byte	0x2
 12754 1201 30       		.byte	0x30
 12755 1202 9F       		.byte	0x9f
 12756 1203 BE000000 		.4byte	.LVL298
 12757 1207 F2000000 		.4byte	.LFE270
 12758 120b 0100     		.2byte	0x1
 12759 120d 5B       		.byte	0x5b
 12760 120e 00000000 		.4byte	0
 12761 1212 00000000 		.4byte	0
 12762              	.LLST121:
 12763 1216 36000000 		.4byte	.LVL274
ARM GAS  /var/folders/m4/4md61f0s1_g0rzfghffqnxvr0000gn/T//ccmevqMd.s 			page 225


 12764 121a 3E000000 		.4byte	.LVL275
 12765 121e 0100     		.2byte	0x1
 12766 1220 50       		.byte	0x50
 12767 1221 78000000 		.4byte	.LVL286
 12768 1225 82000000 		.4byte	.LVL288
 12769 1229 0100     		.2byte	0x1
 12770 122b 50       		.byte	0x50
 12771 122c 8C000000 		.4byte	.LVL290
 12772 1230 8E000000 		.4byte	.LVL291
 12773 1234 0100     		.2byte	0x1
 12774 1236 50       		.byte	0x50
 12775 1237 D8000000 		.4byte	.LVL301
 12776 123b DA000000 		.4byte	.LVL302
 12777 123f 0100     		.2byte	0x1
 12778 1241 50       		.byte	0x50
 12779 1242 00000000 		.4byte	0
 12780 1246 00000000 		.4byte	0
 12781              	.LLST122:
 12782 124a 1C000000 		.4byte	.LVL268
 12783 124e 2C000000 		.4byte	.LVL272
 12784 1252 0300     		.2byte	0x3
 12785 1254 91       		.byte	0x91
 12786 1255 44       		.sleb128 -60
 12787 1256 9F       		.byte	0x9f
 12788 1257 2C000000 		.4byte	.LVL272
 12789 125b 2F000000 		.4byte	.LVL273-1
 12790 125f 0100     		.2byte	0x1
 12791 1261 51       		.byte	0x51
 12792 1262 2F000000 		.4byte	.LVL273-1
 12793 1266 90000000 		.4byte	.LVL292
 12794 126a 0300     		.2byte	0x3
 12795 126c 91       		.byte	0x91
 12796 126d 44       		.sleb128 -60
 12797 126e 9F       		.byte	0x9f
 12798 126f 90000000 		.4byte	.LVL292
 12799 1273 93000000 		.4byte	.LVL293-1
 12800 1277 0100     		.2byte	0x1
 12801 1279 51       		.byte	0x51
 12802 127a 93000000 		.4byte	.LVL293-1
 12803 127e B8000000 		.4byte	.LVL296
 12804 1282 0300     		.2byte	0x3
 12805 1284 91       		.byte	0x91
 12806 1285 44       		.sleb128 -60
 12807 1286 9F       		.byte	0x9f
 12808 1287 B8000000 		.4byte	.LVL296
 12809 128b BB000000 		.4byte	.LVL297-1
 12810 128f 0100     		.2byte	0x1
 12811 1291 51       		.byte	0x51
 12812 1292 BB000000 		.4byte	.LVL297-1
 12813 1296 C2000000 		.4byte	.LVL299
 12814 129a 0300     		.2byte	0x3
 12815 129c 91       		.byte	0x91
 12816 129d 44       		.sleb128 -60
 12817 129e 9F       		.byte	0x9f
 12818 129f C2000000 		.4byte	.LVL299
 12819 12a3 C5000000 		.4byte	.LVL300-1
 12820 12a7 0100     		.2byte	0x1
ARM GAS  /var/folders/m4/4md61f0s1_g0rzfghffqnxvr0000gn/T//ccmevqMd.s 			page 226


 12821 12a9 51       		.byte	0x51
 12822 12aa C5000000 		.4byte	.LVL300-1
 12823 12ae DC000000 		.4byte	.LVL303
 12824 12b2 0300     		.2byte	0x3
 12825 12b4 91       		.byte	0x91
 12826 12b5 44       		.sleb128 -60
 12827 12b6 9F       		.byte	0x9f
 12828 12b7 DC000000 		.4byte	.LVL303
 12829 12bb DF000000 		.4byte	.LVL304-1
 12830 12bf 0100     		.2byte	0x1
 12831 12c1 51       		.byte	0x51
 12832 12c2 DF000000 		.4byte	.LVL304-1
 12833 12c6 F2000000 		.4byte	.LFE270
 12834 12ca 0300     		.2byte	0x3
 12835 12cc 91       		.byte	0x91
 12836 12cd 44       		.sleb128 -60
 12837 12ce 9F       		.byte	0x9f
 12838 12cf 00000000 		.4byte	0
 12839 12d3 00000000 		.4byte	0
 12840              	.LLST123:
 12841 12d7 48000000 		.4byte	.LVL277
 12842 12db 4A000000 		.4byte	.LVL278
 12843 12df 0100     		.2byte	0x1
 12844 12e1 54       		.byte	0x54
 12845 12e2 4A000000 		.4byte	.LVL278
 12846 12e6 52000000 		.4byte	.LVL280
 12847 12ea 1C00     		.2byte	0x1c
 12848 12ec 08       		.byte	0x8
 12849 12ed 20       		.byte	0x20
 12850 12ee 77       		.byte	0x77
 12851 12ef 00       		.sleb128 0
 12852 12f0 75       		.byte	0x75
 12853 12f1 00       		.sleb128 0
 12854 12f2 1C       		.byte	0x1c
 12855 12f3 77       		.byte	0x77
 12856 12f4 00       		.sleb128 0
 12857 12f5 75       		.byte	0x75
 12858 12f6 00       		.sleb128 0
 12859 12f7 1C       		.byte	0x1c
 12860 12f8 40       		.byte	0x40
 12861 12f9 4B       		.byte	0x4b
 12862 12fa 24       		.byte	0x24
 12863 12fb 22       		.byte	0x22
 12864 12fc 0C       		.byte	0xc
 12865 12fd 20000080 		.4byte	0x80000020
 12866 1301 2A       		.byte	0x2a
 12867 1302 28       		.byte	0x28
 12868 1303 0100     		.2byte	0x1
 12869 1305 16       		.byte	0x16
 12870 1306 13       		.byte	0x13
 12871 1307 9F       		.byte	0x9f
 12872 1308 5C000000 		.4byte	.LVL282
 12873 130c 8C000000 		.4byte	.LVL290
 12874 1310 0100     		.2byte	0x1
 12875 1312 54       		.byte	0x54
 12876 1313 BE000000 		.4byte	.LVL298
 12877 1317 F2000000 		.4byte	.LFE270
ARM GAS  /var/folders/m4/4md61f0s1_g0rzfghffqnxvr0000gn/T//ccmevqMd.s 			page 227


 12878 131b 0100     		.2byte	0x1
 12879 131d 54       		.byte	0x54
 12880 131e 00000000 		.4byte	0
 12881 1322 00000000 		.4byte	0
 12882              	.LLST124:
 12883 1326 48000000 		.4byte	.LVL277
 12884 132a 52000000 		.4byte	.LVL280
 12885 132e 0600     		.2byte	0x6
 12886 1330 78       		.byte	0x78
 12887 1331 00       		.sleb128 0
 12888 1332 75       		.byte	0x75
 12889 1333 00       		.sleb128 0
 12890 1334 22       		.byte	0x22
 12891 1335 9F       		.byte	0x9f
 12892 1336 5C000000 		.4byte	.LVL282
 12893 133a 64000000 		.4byte	.LVL283
 12894 133e 0600     		.2byte	0x6
 12895 1340 78       		.byte	0x78
 12896 1341 00       		.sleb128 0
 12897 1342 75       		.byte	0x75
 12898 1343 00       		.sleb128 0
 12899 1344 22       		.byte	0x22
 12900 1345 9F       		.byte	0x9f
 12901 1346 64000000 		.4byte	.LVL283
 12902 134a 67000000 		.4byte	.LVL284-1
 12903 134e 0100     		.2byte	0x1
 12904 1350 52       		.byte	0x52
 12905 1351 67000000 		.4byte	.LVL284-1
 12906 1355 8C000000 		.4byte	.LVL290
 12907 1359 0600     		.2byte	0x6
 12908 135b 78       		.byte	0x78
 12909 135c 00       		.sleb128 0
 12910 135d 75       		.byte	0x75
 12911 135e 00       		.sleb128 0
 12912 135f 22       		.byte	0x22
 12913 1360 9F       		.byte	0x9f
 12914 1361 BE000000 		.4byte	.LVL298
 12915 1365 F2000000 		.4byte	.LFE270
 12916 1369 0600     		.2byte	0x6
 12917 136b 78       		.byte	0x78
 12918 136c 00       		.sleb128 0
 12919 136d 75       		.byte	0x75
 12920 136e 00       		.sleb128 0
 12921 136f 22       		.byte	0x22
 12922 1370 9F       		.byte	0x9f
 12923 1371 00000000 		.4byte	0
 12924 1375 00000000 		.4byte	0
 12925              	.LLST126:
 12926 1379 48000000 		.4byte	.LVL277
 12927 137d 54000000 		.4byte	.LVL281
 12928 1381 0100     		.2byte	0x1
 12929 1383 56       		.byte	0x56
 12930 1384 5C000000 		.4byte	.LVL282
 12931 1388 8C000000 		.4byte	.LVL290
 12932 138c 0100     		.2byte	0x1
 12933 138e 56       		.byte	0x56
 12934 138f BE000000 		.4byte	.LVL298
ARM GAS  /var/folders/m4/4md61f0s1_g0rzfghffqnxvr0000gn/T//ccmevqMd.s 			page 228


 12935 1393 F2000000 		.4byte	.LFE270
 12936 1397 0100     		.2byte	0x1
 12937 1399 56       		.byte	0x56
 12938 139a 00000000 		.4byte	0
 12939 139e 00000000 		.4byte	0
 12940              	.LLST127:
 12941 13a2 80000000 		.4byte	.LVL287
 12942 13a6 8C000000 		.4byte	.LVL290
 12943 13aa 0300     		.2byte	0x3
 12944 13ac 08       		.byte	0x8
 12945 13ad 20       		.byte	0x20
 12946 13ae 9F       		.byte	0x9f
 12947 13af 00000000 		.4byte	0
 12948 13b3 00000000 		.4byte	0
 12949              	.LLST128:
 12950 13b7 80000000 		.4byte	.LVL287
 12951 13bb 8C000000 		.4byte	.LVL290
 12952 13bf 0100     		.2byte	0x1
 12953 13c1 56       		.byte	0x56
 12954 13c2 00000000 		.4byte	0
 12955 13c6 00000000 		.4byte	0
 12956              	.LLST129:
 12957 13ca C6000000 		.4byte	.LVL300
 12958 13ce D8000000 		.4byte	.LVL301
 12959 13d2 0100     		.2byte	0x1
 12960 13d4 56       		.byte	0x56
 12961 13d5 00000000 		.4byte	0
 12962 13d9 00000000 		.4byte	0
 12963              	.LLST130:
 12964 13dd 9A000000 		.4byte	.LVL294
 12965 13e1 BE000000 		.4byte	.LVL298
 12966 13e5 0100     		.2byte	0x1
 12967 13e7 56       		.byte	0x56
 12968 13e8 00000000 		.4byte	0
 12969 13ec 00000000 		.4byte	0
 12970              	.LLST131:
 12971 13f0 00000000 		.4byte	.LVL307
 12972 13f4 13000000 		.4byte	.LVL310-1
 12973 13f8 0100     		.2byte	0x1
 12974 13fa 50       		.byte	0x50
 12975 13fb 13000000 		.4byte	.LVL310-1
 12976 13ff 20000000 		.4byte	.LFE272
 12977 1403 0400     		.2byte	0x4
 12978 1405 F3       		.byte	0xf3
 12979 1406 01       		.uleb128 0x1
 12980 1407 50       		.byte	0x50
 12981 1408 9F       		.byte	0x9f
 12982 1409 00000000 		.4byte	0
 12983 140d 00000000 		.4byte	0
 12984              	.LLST132:
 12985 1411 00000000 		.4byte	.LVL307
 12986 1415 10000000 		.4byte	.LVL309
 12987 1419 0100     		.2byte	0x1
 12988 141b 51       		.byte	0x51
 12989 141c 10000000 		.4byte	.LVL309
 12990 1420 13000000 		.4byte	.LVL310-1
 12991 1424 0200     		.2byte	0x2
ARM GAS  /var/folders/m4/4md61f0s1_g0rzfghffqnxvr0000gn/T//ccmevqMd.s 			page 229


 12992 1426 71       		.byte	0x71
 12993 1427 00       		.sleb128 0
 12994 1428 13000000 		.4byte	.LVL310-1
 12995 142c 20000000 		.4byte	.LFE272
 12996 1430 0200     		.2byte	0x2
 12997 1432 74       		.byte	0x74
 12998 1433 00       		.sleb128 0
 12999 1434 00000000 		.4byte	0
 13000 1438 00000000 		.4byte	0
 13001              	.LLST133:
 13002 143c 00000000 		.4byte	.LVL307
 13003 1440 0E000000 		.4byte	.LVL308
 13004 1444 0100     		.2byte	0x1
 13005 1446 52       		.byte	0x52
 13006 1447 0E000000 		.4byte	.LVL308
 13007 144b 13000000 		.4byte	.LVL310-1
 13008 144f 0100     		.2byte	0x1
 13009 1451 53       		.byte	0x53
 13010 1452 13000000 		.4byte	.LVL310-1
 13011 1456 20000000 		.4byte	.LFE272
 13012 145a 0400     		.2byte	0x4
 13013 145c F3       		.byte	0xf3
 13014 145d 01       		.uleb128 0x1
 13015 145e 52       		.byte	0x52
 13016 145f 9F       		.byte	0x9f
 13017 1460 00000000 		.4byte	0
 13018 1464 00000000 		.4byte	0
 13019              	.LLST134:
 13020 1468 00000000 		.4byte	.LVL311
 13021 146c 15000000 		.4byte	.LVL314-1
 13022 1470 0100     		.2byte	0x1
 13023 1472 50       		.byte	0x50
 13024 1473 15000000 		.4byte	.LVL314-1
 13025 1477 22000000 		.4byte	.LFE276
 13026 147b 0400     		.2byte	0x4
 13027 147d F3       		.byte	0xf3
 13028 147e 01       		.uleb128 0x1
 13029 147f 50       		.byte	0x50
 13030 1480 9F       		.byte	0x9f
 13031 1481 00000000 		.4byte	0
 13032 1485 00000000 		.4byte	0
 13033              	.LLST135:
 13034 1489 00000000 		.4byte	.LVL311
 13035 148d 12000000 		.4byte	.LVL313
 13036 1491 0100     		.2byte	0x1
 13037 1493 51       		.byte	0x51
 13038 1494 12000000 		.4byte	.LVL313
 13039 1498 15000000 		.4byte	.LVL314-1
 13040 149c 0200     		.2byte	0x2
 13041 149e 71       		.byte	0x71
 13042 149f 00       		.sleb128 0
 13043 14a0 15000000 		.4byte	.LVL314-1
 13044 14a4 22000000 		.4byte	.LFE276
 13045 14a8 0400     		.2byte	0x4
 13046 14aa F3       		.byte	0xf3
 13047 14ab 01       		.uleb128 0x1
 13048 14ac 51       		.byte	0x51
ARM GAS  /var/folders/m4/4md61f0s1_g0rzfghffqnxvr0000gn/T//ccmevqMd.s 			page 230


 13049 14ad 9F       		.byte	0x9f
 13050 14ae 00000000 		.4byte	0
 13051 14b2 00000000 		.4byte	0
 13052              	.LLST137:
 13053 14b6 00000000 		.4byte	.LVL315
 13054 14ba 07000000 		.4byte	.LVL316-1
 13055 14be 0100     		.2byte	0x1
 13056 14c0 50       		.byte	0x50
 13057 14c1 07000000 		.4byte	.LVL316-1
 13058 14c5 08000000 		.4byte	.LFE274
 13059 14c9 0400     		.2byte	0x4
 13060 14cb F3       		.byte	0xf3
 13061 14cc 01       		.uleb128 0x1
 13062 14cd 50       		.byte	0x50
 13063 14ce 9F       		.byte	0x9f
 13064 14cf 00000000 		.4byte	0
 13065 14d3 00000000 		.4byte	0
 13066              	.LLST138:
 13067 14d7 00000000 		.4byte	.LVL315
 13068 14db 07000000 		.4byte	.LVL316-1
 13069 14df 0100     		.2byte	0x1
 13070 14e1 51       		.byte	0x51
 13071 14e2 07000000 		.4byte	.LVL316-1
 13072 14e6 08000000 		.4byte	.LFE274
 13073 14ea 0400     		.2byte	0x4
 13074 14ec F3       		.byte	0xf3
 13075 14ed 01       		.uleb128 0x1
 13076 14ee 51       		.byte	0x51
 13077 14ef 9F       		.byte	0x9f
 13078 14f0 00000000 		.4byte	0
 13079 14f4 00000000 		.4byte	0
 13080              	.LLST139:
 13081 14f8 00000000 		.4byte	.LVL315
 13082 14fc 07000000 		.4byte	.LVL316-1
 13083 1500 0100     		.2byte	0x1
 13084 1502 52       		.byte	0x52
 13085 1503 07000000 		.4byte	.LVL316-1
 13086 1507 08000000 		.4byte	.LFE274
 13087 150b 0400     		.2byte	0x4
 13088 150d F3       		.byte	0xf3
 13089 150e 01       		.uleb128 0x1
 13090 150f 52       		.byte	0x52
 13091 1510 9F       		.byte	0x9f
 13092 1511 00000000 		.4byte	0
 13093 1515 00000000 		.4byte	0
 13094              	.LLST140:
 13095 1519 00000000 		.4byte	.LVL318
 13096 151d 0B000000 		.4byte	.LVL320-1
 13097 1521 0100     		.2byte	0x1
 13098 1523 50       		.byte	0x50
 13099 1524 0B000000 		.4byte	.LVL320-1
 13100 1528 1E000000 		.4byte	.LVL322
 13101 152c 0100     		.2byte	0x1
 13102 152e 55       		.byte	0x55
 13103 152f 1E000000 		.4byte	.LVL322
 13104 1533 21000000 		.4byte	.LVL323-1
 13105 1537 0100     		.2byte	0x1
ARM GAS  /var/folders/m4/4md61f0s1_g0rzfghffqnxvr0000gn/T//ccmevqMd.s 			page 231


 13106 1539 50       		.byte	0x50
 13107 153a 21000000 		.4byte	.LVL323-1
 13108 153e 22000000 		.4byte	.LFE307
 13109 1542 0400     		.2byte	0x4
 13110 1544 F3       		.byte	0xf3
 13111 1545 01       		.uleb128 0x1
 13112 1546 50       		.byte	0x50
 13113 1547 9F       		.byte	0x9f
 13114 1548 00000000 		.4byte	0
 13115 154c 00000000 		.4byte	0
 13116              	.LLST141:
 13117 1550 00000000 		.4byte	.LVL318
 13118 1554 06000000 		.4byte	.LVL319
 13119 1558 0100     		.2byte	0x1
 13120 155a 51       		.byte	0x51
 13121 155b 06000000 		.4byte	.LVL319
 13122 155f 22000000 		.4byte	.LFE307
 13123 1563 0400     		.2byte	0x4
 13124 1565 F3       		.byte	0xf3
 13125 1566 01       		.uleb128 0x1
 13126 1567 51       		.byte	0x51
 13127 1568 9F       		.byte	0x9f
 13128 1569 00000000 		.4byte	0
 13129 156d 00000000 		.4byte	0
 13130              	.LLST142:
 13131 1571 0C000000 		.4byte	.LVL320
 13132 1575 14000000 		.4byte	.LVL321
 13133 1579 0100     		.2byte	0x1
 13134 157b 50       		.byte	0x50
 13135 157c 14000000 		.4byte	.LVL321
 13136 1580 21000000 		.4byte	.LVL323-1
 13137 1584 0100     		.2byte	0x1
 13138 1586 52       		.byte	0x52
 13139 1587 00000000 		.4byte	0
 13140 158b 00000000 		.4byte	0
 13141              	.LLST143:
 13142 158f 00000000 		.4byte	.LVL324
 13143 1593 0E000000 		.4byte	.LVL325
 13144 1597 0100     		.2byte	0x1
 13145 1599 50       		.byte	0x50
 13146 159a 0E000000 		.4byte	.LVL325
 13147 159e 11000000 		.4byte	.LVL326-1
 13148 15a2 0400     		.2byte	0x4
 13149 15a4 70       		.byte	0x70
 13150 15a5 E07D     		.sleb128 -288
 13151 15a7 9F       		.byte	0x9f
 13152 15a8 11000000 		.4byte	.LVL326-1
 13153 15ac 1A000000 		.4byte	.LFE308
 13154 15b0 0400     		.2byte	0x4
 13155 15b2 F3       		.byte	0xf3
 13156 15b3 01       		.uleb128 0x1
 13157 15b4 50       		.byte	0x50
 13158 15b5 9F       		.byte	0x9f
 13159 15b6 00000000 		.4byte	0
 13160 15ba 00000000 		.4byte	0
 13161              		.section	.debug_aranges,"",%progbits
 13162 0000 6C010000 		.4byte	0x16c
ARM GAS  /var/folders/m4/4md61f0s1_g0rzfghffqnxvr0000gn/T//ccmevqMd.s 			page 232


 13163 0004 0200     		.2byte	0x2
 13164 0006 00000000 		.4byte	.Ldebug_info0
 13165 000a 04       		.byte	0x4
 13166 000b 00       		.byte	0
 13167 000c 0000     		.2byte	0
 13168 000e 0000     		.2byte	0
 13169 0010 00000000 		.4byte	.LFB268
 13170 0014 1C000000 		.4byte	.LFE268-.LFB268
 13171 0018 00000000 		.4byte	.LFB311
 13172 001c 5A000000 		.4byte	.LFE311-.LFB311
 13173 0020 00000000 		.4byte	.LFB312
 13174 0024 46000000 		.4byte	.LFE312-.LFB312
 13175 0028 00000000 		.4byte	.LFB278
 13176 002c 34000000 		.4byte	.LFE278-.LFB278
 13177 0030 00000000 		.4byte	.LFB279
 13178 0034 06000000 		.4byte	.LFE279-.LFB279
 13179 0038 00000000 		.4byte	.LFB280
 13180 003c 3C000000 		.4byte	.LFE280-.LFB280
 13181 0040 00000000 		.4byte	.LFB281
 13182 0044 48000000 		.4byte	.LFE281-.LFB281
 13183 0048 00000000 		.4byte	.LFB282
 13184 004c 4A000000 		.4byte	.LFE282-.LFB282
 13185 0050 00000000 		.4byte	.LFB283
 13186 0054 46000000 		.4byte	.LFE283-.LFB283
 13187 0058 00000000 		.4byte	.LFB284
 13188 005c 3C000000 		.4byte	.LFE284-.LFB284
 13189 0060 00000000 		.4byte	.LFB285
 13190 0064 1C000000 		.4byte	.LFE285-.LFB285
 13191 0068 00000000 		.4byte	.LFB286
 13192 006c 1A000000 		.4byte	.LFE286-.LFB286
 13193 0070 00000000 		.4byte	.LFB287
 13194 0074 10000000 		.4byte	.LFE287-.LFB287
 13195 0078 00000000 		.4byte	.LFB288
 13196 007c 0A000000 		.4byte	.LFE288-.LFB288
 13197 0080 00000000 		.4byte	.LFB289
 13198 0084 0A000000 		.4byte	.LFE289-.LFB289
 13199 0088 00000000 		.4byte	.LFB290
 13200 008c 40000000 		.4byte	.LFE290-.LFB290
 13201 0090 00000000 		.4byte	.LFB291
 13202 0094 1C000000 		.4byte	.LFE291-.LFB291
 13203 0098 00000000 		.4byte	.LFB292
 13204 009c 12000000 		.4byte	.LFE292-.LFB292
 13205 00a0 00000000 		.4byte	.LFB293
 13206 00a4 06000000 		.4byte	.LFE293-.LFB293
 13207 00a8 00000000 		.4byte	.LFB295
 13208 00ac 22000000 		.4byte	.LFE295-.LFB295
 13209 00b0 00000000 		.4byte	.LFB296
 13210 00b4 1A000000 		.4byte	.LFE296-.LFB296
 13211 00b8 00000000 		.4byte	.LFB297
 13212 00bc 22000000 		.4byte	.LFE297-.LFB297
 13213 00c0 00000000 		.4byte	.LFB298
 13214 00c4 0A000000 		.4byte	.LFE298-.LFB298
 13215 00c8 00000000 		.4byte	.LFB299
 13216 00cc 0A000000 		.4byte	.LFE299-.LFB299
 13217 00d0 00000000 		.4byte	.LFB300
 13218 00d4 38000000 		.4byte	.LFE300-.LFB300
 13219 00d8 00000000 		.4byte	.LFB294
ARM GAS  /var/folders/m4/4md61f0s1_g0rzfghffqnxvr0000gn/T//ccmevqMd.s 			page 233


 13220 00dc 40000000 		.4byte	.LFE294-.LFB294
 13221 00e0 00000000 		.4byte	.LFB301
 13222 00e4 34000000 		.4byte	.LFE301-.LFB301
 13223 00e8 00000000 		.4byte	.LFB302
 13224 00ec 34000000 		.4byte	.LFE302-.LFB302
 13225 00f0 00000000 		.4byte	.LFB269
 13226 00f4 F0000000 		.4byte	.LFE269-.LFB269
 13227 00f8 00000000 		.4byte	.LFB303
 13228 00fc 46000000 		.4byte	.LFE303-.LFB303
 13229 0100 00000000 		.4byte	.LFB304
 13230 0104 3A000000 		.4byte	.LFE304-.LFB304
 13231 0108 00000000 		.4byte	.LFB271
 13232 010c 2E020000 		.4byte	.LFE271-.LFB271
 13233 0110 00000000 		.4byte	.LFB273
 13234 0114 54000000 		.4byte	.LFE273-.LFB273
 13235 0118 00000000 		.4byte	.LFB277
 13236 011c 08000000 		.4byte	.LFE277-.LFB277
 13237 0120 00000000 		.4byte	.LFB275
 13238 0124 08000000 		.4byte	.LFE275-.LFB275
 13239 0128 00000000 		.4byte	.LFB305
 13240 012c 38000000 		.4byte	.LFE305-.LFB305
 13241 0130 00000000 		.4byte	.LFB270
 13242 0134 F2000000 		.4byte	.LFE270-.LFB270
 13243 0138 00000000 		.4byte	.LFB272
 13244 013c 20000000 		.4byte	.LFE272-.LFB272
 13245 0140 00000000 		.4byte	.LFB276
 13246 0144 22000000 		.4byte	.LFE276-.LFB276
 13247 0148 00000000 		.4byte	.LFB274
 13248 014c 08000000 		.4byte	.LFE274-.LFB274
 13249 0150 00000000 		.4byte	.LFB306
 13250 0154 12000000 		.4byte	.LFE306-.LFB306
 13251 0158 00000000 		.4byte	.LFB307
 13252 015c 22000000 		.4byte	.LFE307-.LFB307
 13253 0160 00000000 		.4byte	.LFB308
 13254 0164 1A000000 		.4byte	.LFE308-.LFB308
 13255 0168 00000000 		.4byte	0
 13256 016c 00000000 		.4byte	0
 13257              		.section	.debug_ranges,"",%progbits
 13258              	.Ldebug_ranges0:
 13259 0000 06000000 		.4byte	.LBB141
 13260 0004 0A000000 		.4byte	.LBE141
 13261 0008 0C000000 		.4byte	.LBB142
 13262 000c 16000000 		.4byte	.LBE142
 13263 0010 1C000000 		.4byte	.LBB143
 13264 0014 54000000 		.4byte	.LBE143
 13265 0018 00000000 		.4byte	0
 13266 001c 00000000 		.4byte	0
 13267 0020 06000000 		.4byte	.LBB144
 13268 0024 14000000 		.4byte	.LBE144
 13269 0028 18000000 		.4byte	.LBB145
 13270 002c 42000000 		.4byte	.LBE145
 13271 0030 00000000 		.4byte	0
 13272 0034 00000000 		.4byte	0
 13273 0038 02000000 		.4byte	.LBB152
 13274 003c 06000000 		.4byte	.LBE152
 13275 0040 08000000 		.4byte	.LBB153
 13276 0044 14000000 		.4byte	.LBE153
ARM GAS  /var/folders/m4/4md61f0s1_g0rzfghffqnxvr0000gn/T//ccmevqMd.s 			page 234


 13277 0048 16000000 		.4byte	.LBB154
 13278 004c 38000000 		.4byte	.LBE154
 13279 0050 00000000 		.4byte	0
 13280 0054 00000000 		.4byte	0
 13281 0058 04000000 		.4byte	.LBB155
 13282 005c 12000000 		.4byte	.LBE155
 13283 0060 14000000 		.4byte	.LBB156
 13284 0064 40000000 		.4byte	.LBE156
 13285 0068 00000000 		.4byte	0
 13286 006c 00000000 		.4byte	0
 13287 0070 04000000 		.4byte	.LBB157
 13288 0074 16000000 		.4byte	.LBE157
 13289 0078 18000000 		.4byte	.LBB158
 13290 007c 1A000000 		.4byte	.LBE158
 13291 0080 1C000000 		.4byte	.LBB159
 13292 0084 46000000 		.4byte	.LBE159
 13293 0088 00000000 		.4byte	0
 13294 008c 00000000 		.4byte	0
 13295 0090 04000000 		.4byte	.LBB160
 13296 0094 12000000 		.4byte	.LBE160
 13297 0098 14000000 		.4byte	.LBB161
 13298 009c 16000000 		.4byte	.LBE161
 13299 00a0 18000000 		.4byte	.LBB162
 13300 00a4 42000000 		.4byte	.LBE162
 13301 00a8 00000000 		.4byte	0
 13302 00ac 00000000 		.4byte	0
 13303 00b0 04000000 		.4byte	.LBB163
 13304 00b4 10000000 		.4byte	.LBE163
 13305 00b8 12000000 		.4byte	.LBB164
 13306 00bc 34000000 		.4byte	.LBE164
 13307 00c0 00000000 		.4byte	0
 13308 00c4 00000000 		.4byte	0
 13309 00c8 02000000 		.4byte	.LBB165
 13310 00cc 04000000 		.4byte	.LBE165
 13311 00d0 06000000 		.4byte	.LBB166
 13312 00d4 14000000 		.4byte	.LBE166
 13313 00d8 18000000 		.4byte	.LBB167
 13314 00dc 1C000000 		.4byte	.LBE167
 13315 00e0 00000000 		.4byte	0
 13316 00e4 00000000 		.4byte	0
 13317 00e8 02000000 		.4byte	.LBB168
 13318 00ec 04000000 		.4byte	.LBE168
 13319 00f0 06000000 		.4byte	.LBB169
 13320 00f4 12000000 		.4byte	.LBE169
 13321 00f8 16000000 		.4byte	.LBB170
 13322 00fc 1A000000 		.4byte	.LBE170
 13323 0100 00000000 		.4byte	0
 13324 0104 00000000 		.4byte	0
 13325 0108 1C000000 		.4byte	.LBB175
 13326 010c 26000000 		.4byte	.LBE175
 13327 0110 2A000000 		.4byte	.LBB178
 13328 0114 2E000000 		.4byte	.LBE178
 13329 0118 00000000 		.4byte	0
 13330 011c 00000000 		.4byte	0
 13331 0120 04000000 		.4byte	.LBB183
 13332 0124 06000000 		.4byte	.LBE183
 13333 0128 08000000 		.4byte	.LBB184
ARM GAS  /var/folders/m4/4md61f0s1_g0rzfghffqnxvr0000gn/T//ccmevqMd.s 			page 235


 13334 012c 1A000000 		.4byte	.LBE184
 13335 0130 1E000000 		.4byte	.LBB185
 13336 0134 22000000 		.4byte	.LBE185
 13337 0138 00000000 		.4byte	0
 13338 013c 00000000 		.4byte	0
 13339 0140 02000000 		.4byte	.LBB186
 13340 0144 04000000 		.4byte	.LBE186
 13341 0148 06000000 		.4byte	.LBB187
 13342 014c 12000000 		.4byte	.LBE187
 13343 0150 16000000 		.4byte	.LBB188
 13344 0154 1A000000 		.4byte	.LBE188
 13345 0158 00000000 		.4byte	0
 13346 015c 00000000 		.4byte	0
 13347 0160 04000000 		.4byte	.LBB189
 13348 0164 06000000 		.4byte	.LBE189
 13349 0168 08000000 		.4byte	.LBB190
 13350 016c 1A000000 		.4byte	.LBE190
 13351 0170 1E000000 		.4byte	.LBB191
 13352 0174 22000000 		.4byte	.LBE191
 13353 0178 00000000 		.4byte	0
 13354 017c 00000000 		.4byte	0
 13355 0180 02000000 		.4byte	.LBB194
 13356 0184 0A000000 		.4byte	.LBE194
 13357 0188 0E000000 		.4byte	.LBB195
 13358 018c 30000000 		.4byte	.LBE195
 13359 0190 00000000 		.4byte	0
 13360 0194 00000000 		.4byte	0
 13361 0198 02000000 		.4byte	.LBB196
 13362 019c 04000000 		.4byte	.LBE196
 13363 01a0 06000000 		.4byte	.LBB197
 13364 01a4 38000000 		.4byte	.LBE197
 13365 01a8 3C000000 		.4byte	.LBB198
 13366 01ac 40000000 		.4byte	.LBE198
 13367 01b0 00000000 		.4byte	0
 13368 01b4 00000000 		.4byte	0
 13369 01b8 04000000 		.4byte	.LBB199
 13370 01bc 10000000 		.4byte	.LBE199
 13371 01c0 12000000 		.4byte	.LBB200
 13372 01c4 30000000 		.4byte	.LBE200
 13373 01c8 00000000 		.4byte	0
 13374 01cc 00000000 		.4byte	0
 13375 01d0 04000000 		.4byte	.LBB201
 13376 01d4 10000000 		.4byte	.LBE201
 13377 01d8 12000000 		.4byte	.LBB202
 13378 01dc 30000000 		.4byte	.LBE202
 13379 01e0 00000000 		.4byte	0
 13380 01e4 00000000 		.4byte	0
 13381 01e8 40000000 		.4byte	.LBB218
 13382 01ec 64000000 		.4byte	.LBE218
 13383 01f0 66000000 		.4byte	.LBB231
 13384 01f4 6A000000 		.4byte	.LBE231
 13385 01f8 00000000 		.4byte	0
 13386 01fc 00000000 		.4byte	0
 13387 0200 60000000 		.4byte	.LBB223
 13388 0204 64000000 		.4byte	.LBE223
 13389 0208 66000000 		.4byte	.LBB226
 13390 020c 6A000000 		.4byte	.LBE226
ARM GAS  /var/folders/m4/4md61f0s1_g0rzfghffqnxvr0000gn/T//ccmevqMd.s 			page 236


 13391 0210 00000000 		.4byte	0
 13392 0214 00000000 		.4byte	0
 13393 0218 64000000 		.4byte	.LBB228
 13394 021c 66000000 		.4byte	.LBE228
 13395 0220 6E000000 		.4byte	.LBB232
 13396 0224 72000000 		.4byte	.LBE232
 13397 0228 00000000 		.4byte	0
 13398 022c 00000000 		.4byte	0
 13399 0230 04000000 		.4byte	.LBB238
 13400 0234 10000000 		.4byte	.LBE238
 13401 0238 12000000 		.4byte	.LBB239
 13402 023c 3E000000 		.4byte	.LBE239
 13403 0240 00000000 		.4byte	0
 13404 0244 00000000 		.4byte	0
 13405 0248 02000000 		.4byte	.LBB240
 13406 024c 16000000 		.4byte	.LBE240
 13407 0250 18000000 		.4byte	.LBB241
 13408 0254 3A000000 		.4byte	.LBE241
 13409 0258 00000000 		.4byte	0
 13410 025c 00000000 		.4byte	0
 13411 0260 04000000 		.4byte	.LBB242
 13412 0264 08000000 		.4byte	.LBE242
 13413 0268 12000000 		.4byte	.LBB313
 13414 026c 20000000 		.4byte	.LBE313
 13415 0270 2C000000 		.4byte	.LBB314
 13416 0274 B0000000 		.4byte	.LBE314
 13417 0278 B8000000 		.4byte	.LBB315
 13418 027c FC010000 		.4byte	.LBE315
 13419 0280 FE010000 		.4byte	.LBB316
 13420 0284 00020000 		.4byte	.LBE316
 13421 0288 06020000 		.4byte	.LBB317
 13422 028c 2E020000 		.4byte	.LBE317
 13423 0290 00000000 		.4byte	0
 13424 0294 00000000 		.4byte	0
 13425 0298 50000000 		.4byte	.LBB246
 13426 029c 88000000 		.4byte	.LBE246
 13427 02a0 8A000000 		.4byte	.LBB302
 13428 02a4 8E000000 		.4byte	.LBE302
 13429 02a8 B8000000 		.4byte	.LBB309
 13430 02ac AE010000 		.4byte	.LBE309
 13431 02b0 BA010000 		.4byte	.LBB310
 13432 02b4 FC010000 		.4byte	.LBE310
 13433 02b8 FE010000 		.4byte	.LBB311
 13434 02bc 00020000 		.4byte	.LBE311
 13435 02c0 06020000 		.4byte	.LBB312
 13436 02c4 2E020000 		.4byte	.LBE312
 13437 02c8 00000000 		.4byte	0
 13438 02cc 00000000 		.4byte	0
 13439 02d0 52000000 		.4byte	.LBB248
 13440 02d4 88000000 		.4byte	.LBE248
 13441 02d8 8A000000 		.4byte	.LBB250
 13442 02dc 8E000000 		.4byte	.LBE250
 13443 02e0 00000000 		.4byte	0
 13444 02e4 00000000 		.4byte	0
 13445 02e8 C4000000 		.4byte	.LBB255
 13446 02ec 4E010000 		.4byte	.LBE255
 13447 02f0 70010000 		.4byte	.LBB290
ARM GAS  /var/folders/m4/4md61f0s1_g0rzfghffqnxvr0000gn/T//ccmevqMd.s 			page 237


 13448 02f4 AE010000 		.4byte	.LBE290
 13449 02f8 BA010000 		.4byte	.LBB291
 13450 02fc E6010000 		.4byte	.LBE291
 13451 0300 06020000 		.4byte	.LBB292
 13452 0304 2E020000 		.4byte	.LBE292
 13453 0308 00000000 		.4byte	0
 13454 030c 00000000 		.4byte	0
 13455 0310 20010000 		.4byte	.LBB261
 13456 0314 26010000 		.4byte	.LBE261
 13457 0318 D6010000 		.4byte	.LBB265
 13458 031c E6010000 		.4byte	.LBE265
 13459 0320 00000000 		.4byte	0
 13460 0324 00000000 		.4byte	0
 13461 0328 70010000 		.4byte	.LBB266
 13462 032c 76010000 		.4byte	.LBE266
 13463 0330 8E010000 		.4byte	.LBB270
 13464 0334 9E010000 		.4byte	.LBE270
 13465 0338 00000000 		.4byte	0
 13466 033c 00000000 		.4byte	0
 13467 0340 A4010000 		.4byte	.LBB275
 13468 0344 A8010000 		.4byte	.LBE275
 13469 0348 1C020000 		.4byte	.LBB285
 13470 034c 2E020000 		.4byte	.LBE285
 13471 0350 00000000 		.4byte	0
 13472 0354 00000000 		.4byte	0
 13473 0358 BA010000 		.4byte	.LBB279
 13474 035c BE010000 		.4byte	.LBE279
 13475 0360 0C020000 		.4byte	.LBB284
 13476 0364 1C020000 		.4byte	.LBE284
 13477 0368 00000000 		.4byte	0
 13478 036c 00000000 		.4byte	0
 13479 0370 EE010000 		.4byte	.LBB297
 13480 0374 FC010000 		.4byte	.LBE297
 13481 0378 FE010000 		.4byte	.LBB300
 13482 037c 00020000 		.4byte	.LBE300
 13483 0380 00000000 		.4byte	0
 13484 0384 00000000 		.4byte	0
 13485 0388 98000000 		.4byte	.LBB303
 13486 038c 9C000000 		.4byte	.LBE303
 13487 0390 9E000000 		.4byte	.LBB307
 13488 0394 A8000000 		.4byte	.LBE307
 13489 0398 AA000000 		.4byte	.LBB308
 13490 039c AC000000 		.4byte	.LBE308
 13491 03a0 00000000 		.4byte	0
 13492 03a4 00000000 		.4byte	0
 13493 03a8 02000000 		.4byte	.LBB329
 13494 03ac 04000000 		.4byte	.LBE329
 13495 03b0 0A000000 		.4byte	.LBB333
 13496 03b4 1A000000 		.4byte	.LBE333
 13497 03b8 1E000000 		.4byte	.LBB334
 13498 03bc 32000000 		.4byte	.LBE334
 13499 03c0 00000000 		.4byte	0
 13500 03c4 00000000 		.4byte	0
 13501 03c8 38000000 		.4byte	.LBB335
 13502 03cc 48000000 		.4byte	.LBE335
 13503 03d0 4C000000 		.4byte	.LBB340
 13504 03d4 50000000 		.4byte	.LBE340
ARM GAS  /var/folders/m4/4md61f0s1_g0rzfghffqnxvr0000gn/T//ccmevqMd.s 			page 238


 13505 03d8 00000000 		.4byte	0
 13506 03dc 00000000 		.4byte	0
 13507 03e0 02000000 		.4byte	.LBB341
 13508 03e4 16000000 		.4byte	.LBE341
 13509 03e8 18000000 		.4byte	.LBB342
 13510 03ec 38000000 		.4byte	.LBE342
 13511 03f0 00000000 		.4byte	0
 13512 03f4 00000000 		.4byte	0
 13513 03f8 04000000 		.4byte	.LBB343
 13514 03fc 08000000 		.4byte	.LBE343
 13515 0400 0A000000 		.4byte	.LBB361
 13516 0404 10000000 		.4byte	.LBE361
 13517 0408 18000000 		.4byte	.LBB362
 13518 040c F2000000 		.4byte	.LBE362
 13519 0410 00000000 		.4byte	0
 13520 0414 00000000 		.4byte	0
 13521 0418 48000000 		.4byte	.LBB346
 13522 041c 4E000000 		.4byte	.LBE346
 13523 0420 54000000 		.4byte	.LBB355
 13524 0424 8C000000 		.4byte	.LBE355
 13525 0428 BE000000 		.4byte	.LBB360
 13526 042c F2000000 		.4byte	.LBE360
 13527 0430 00000000 		.4byte	0
 13528 0434 00000000 		.4byte	0
 13529 0438 9A000000 		.4byte	.LBB356
 13530 043c A8000000 		.4byte	.LBE356
 13531 0440 AC000000 		.4byte	.LBB359
 13532 0444 AE000000 		.4byte	.LBE359
 13533 0448 00000000 		.4byte	0
 13534 044c 00000000 		.4byte	0
 13535 0450 04000000 		.4byte	.LBB365
 13536 0454 06000000 		.4byte	.LBE365
 13537 0458 08000000 		.4byte	.LBB366
 13538 045c 1A000000 		.4byte	.LBE366
 13539 0460 1E000000 		.4byte	.LBB367
 13540 0464 22000000 		.4byte	.LBE367
 13541 0468 00000000 		.4byte	0
 13542 046c 00000000 		.4byte	0
 13543 0470 00000000 		.4byte	.LFB268
 13544 0474 1C000000 		.4byte	.LFE268
 13545 0478 00000000 		.4byte	.LFB311
 13546 047c 5A000000 		.4byte	.LFE311
 13547 0480 00000000 		.4byte	.LFB312
 13548 0484 46000000 		.4byte	.LFE312
 13549 0488 00000000 		.4byte	.LFB278
 13550 048c 34000000 		.4byte	.LFE278
 13551 0490 00000000 		.4byte	.LFB279
 13552 0494 06000000 		.4byte	.LFE279
 13553 0498 00000000 		.4byte	.LFB280
 13554 049c 3C000000 		.4byte	.LFE280
 13555 04a0 00000000 		.4byte	.LFB281
 13556 04a4 48000000 		.4byte	.LFE281
 13557 04a8 00000000 		.4byte	.LFB282
 13558 04ac 4A000000 		.4byte	.LFE282
 13559 04b0 00000000 		.4byte	.LFB283
 13560 04b4 46000000 		.4byte	.LFE283
 13561 04b8 00000000 		.4byte	.LFB284
ARM GAS  /var/folders/m4/4md61f0s1_g0rzfghffqnxvr0000gn/T//ccmevqMd.s 			page 239


 13562 04bc 3C000000 		.4byte	.LFE284
 13563 04c0 00000000 		.4byte	.LFB285
 13564 04c4 1C000000 		.4byte	.LFE285
 13565 04c8 00000000 		.4byte	.LFB286
 13566 04cc 1A000000 		.4byte	.LFE286
 13567 04d0 00000000 		.4byte	.LFB287
 13568 04d4 10000000 		.4byte	.LFE287
 13569 04d8 00000000 		.4byte	.LFB288
 13570 04dc 0A000000 		.4byte	.LFE288
 13571 04e0 00000000 		.4byte	.LFB289
 13572 04e4 0A000000 		.4byte	.LFE289
 13573 04e8 00000000 		.4byte	.LFB290
 13574 04ec 40000000 		.4byte	.LFE290
 13575 04f0 00000000 		.4byte	.LFB291
 13576 04f4 1C000000 		.4byte	.LFE291
 13577 04f8 00000000 		.4byte	.LFB292
 13578 04fc 12000000 		.4byte	.LFE292
 13579 0500 00000000 		.4byte	.LFB293
 13580 0504 06000000 		.4byte	.LFE293
 13581 0508 00000000 		.4byte	.LFB295
 13582 050c 22000000 		.4byte	.LFE295
 13583 0510 00000000 		.4byte	.LFB296
 13584 0514 1A000000 		.4byte	.LFE296
 13585 0518 00000000 		.4byte	.LFB297
 13586 051c 22000000 		.4byte	.LFE297
 13587 0520 00000000 		.4byte	.LFB298
 13588 0524 0A000000 		.4byte	.LFE298
 13589 0528 00000000 		.4byte	.LFB299
 13590 052c 0A000000 		.4byte	.LFE299
 13591 0530 00000000 		.4byte	.LFB300
 13592 0534 38000000 		.4byte	.LFE300
 13593 0538 00000000 		.4byte	.LFB294
 13594 053c 40000000 		.4byte	.LFE294
 13595 0540 00000000 		.4byte	.LFB301
 13596 0544 34000000 		.4byte	.LFE301
 13597 0548 00000000 		.4byte	.LFB302
 13598 054c 34000000 		.4byte	.LFE302
 13599 0550 00000000 		.4byte	.LFB269
 13600 0554 F0000000 		.4byte	.LFE269
 13601 0558 00000000 		.4byte	.LFB303
 13602 055c 46000000 		.4byte	.LFE303
 13603 0560 00000000 		.4byte	.LFB304
 13604 0564 3A000000 		.4byte	.LFE304
 13605 0568 00000000 		.4byte	.LFB271
 13606 056c 2E020000 		.4byte	.LFE271
 13607 0570 00000000 		.4byte	.LFB273
 13608 0574 54000000 		.4byte	.LFE273
 13609 0578 00000000 		.4byte	.LFB277
 13610 057c 08000000 		.4byte	.LFE277
 13611 0580 00000000 		.4byte	.LFB275
 13612 0584 08000000 		.4byte	.LFE275
 13613 0588 00000000 		.4byte	.LFB305
 13614 058c 38000000 		.4byte	.LFE305
 13615 0590 00000000 		.4byte	.LFB270
 13616 0594 F2000000 		.4byte	.LFE270
 13617 0598 00000000 		.4byte	.LFB272
 13618 059c 20000000 		.4byte	.LFE272
ARM GAS  /var/folders/m4/4md61f0s1_g0rzfghffqnxvr0000gn/T//ccmevqMd.s 			page 240


 13619 05a0 00000000 		.4byte	.LFB276
 13620 05a4 22000000 		.4byte	.LFE276
 13621 05a8 00000000 		.4byte	.LFB274
 13622 05ac 08000000 		.4byte	.LFE274
 13623 05b0 00000000 		.4byte	.LFB306
 13624 05b4 12000000 		.4byte	.LFE306
 13625 05b8 00000000 		.4byte	.LFB307
 13626 05bc 22000000 		.4byte	.LFE307
 13627 05c0 00000000 		.4byte	.LFB308
 13628 05c4 1A000000 		.4byte	.LFE308
 13629 05c8 00000000 		.4byte	0
 13630 05cc 00000000 		.4byte	0
 13631              		.section	.debug_line,"",%progbits
 13632              	.Ldebug_line0:
 13633 0000 50090000 		.section	.debug_str,"MS",%progbits,1
 13633      0200DB03 
 13633      00000201 
 13633      FB0E0D00 
 13633      01010101 
 13634              	.LASF94:
 13635 0000 4D314152 		.ascii	"M1AR\000"
 13635      00
 13636              	.LASF145:
 13637 0005 73746D33 		.ascii	"stm32_dma_stream_t\000"
 13637      325F646D 
 13637      615F7374 
 13637      7265616D 
 13637      5F7400
 13638              	.LASF4:
 13639 0018 73697A65 		.ascii	"size_t\000"
 13639      5F7400
 13640              	.LASF323:
 13641 001f 73706953 		.ascii	"spiStart\000"
 13641      74617274 
 13641      00
 13642              	.LASF91:
 13643 0028 73697A65 		.ascii	"sizetype\000"
 13643      74797065 
 13643      00
 13644              	.LASF229:
 13645 0031 6E726632 		.ascii	"nrf24l01ReadPayload\000"
 13645      346C3031 
 13645      52656164 
 13645      5061796C 
 13645      6F616400 
 13646              	.LASF35:
 13647 0045 77747365 		.ascii	"wtsemp\000"
 13647      6D7000
 13648              	.LASF29:
 13649 004c 73797374 		.ascii	"systime_t\000"
 13649      696D655F 
 13649      7400
 13650              	.LASF41:
 13651 0056 705F6374 		.ascii	"p_ctx\000"
 13651      7800
 13652              	.LASF24:
 13653 005c 74707269 		.ascii	"tprio_t\000"
ARM GAS  /var/folders/m4/4md61f0s1_g0rzfghffqnxvr0000gn/T//ccmevqMd.s 			page 241


 13653      6F5F7400 
 13654              	.LASF111:
 13655 0064 31314572 		.ascii	"11ErrorStatus\000"
 13655      726F7253 
 13655      74617475 
 13655      7300
 13656              	.LASF255:
 13657 0072 6E726632 		.ascii	"nrf24l01GetStatus\000"
 13657      346C3031 
 13657      47657453 
 13657      74617475 
 13657      7300
 13658              	.LASF51:
 13659 0084 705F6D73 		.ascii	"p_msgqueue\000"
 13659      67717565 
 13659      756500
 13660              	.LASF67:
 13661 008f 725F6374 		.ascii	"r_ctx\000"
 13661      7800
 13662              	.LASF212:
 13663 0095 72784275 		.ascii	"rxBuf\000"
 13663      6600
 13664              	.LASF17:
 13665 009b 696E7433 		.ascii	"int32_t\000"
 13665      325F7400 
 13666              	.LASF208:
 13667 00a3 77726974 		.ascii	"writet\000"
 13667      657400
 13668              	.LASF269:
 13669 00aa 5F5A3230 		.ascii	"_Z20nrf24l01SetRXAddressP14NRF24L01DriverhPKh\000"
 13669      6E726632 
 13669      346C3031 
 13669      53657452 
 13669      58416464 
 13670              	.LASF71:
 13671 00d8 76746675 		.ascii	"vtfunc_t\000"
 13671      6E635F74 
 13671      00
 13672              	.LASF80:
 13673 00e1 63685F76 		.ascii	"ch_virtual_timers_list\000"
 13673      69727475 
 13673      616C5F74 
 13673      696D6572 
 13673      735F6C69 
 13674              	.LASF195:
 13675 00f8 7373706F 		.ascii	"ssport\000"
 13675      727400
 13676              	.LASF215:
 13677 00ff 4E524632 		.ascii	"NRF24L01Driver\000"
 13677      344C3031 
 13677      44726976 
 13677      657200
 13678              	.LASF239:
 13679 010e 696E7374 		.ascii	"instance\000"
 13679      616E6365 
 13679      00
 13680              	.LASF204:
ARM GAS  /var/folders/m4/4md61f0s1_g0rzfghffqnxvr0000gn/T//ccmevqMd.s 			page 242


 13681 0117 77726974 		.ascii	"write\000"
 13681      6500
 13682              	.LASF293:
 13683 011d 5F5A3135 		.ascii	"_Z15nrf24l01GetSizeP14NRF24L01Driver\000"
 13683      6E726632 
 13683      346C3031 
 13683      47657453 
 13683      697A6550 
 13684              	.LASF134:
 13685 0142 656C5F66 		.ascii	"el_flags\000"
 13685      6C616773 
 13685      00
 13686              	.LASF169:
 13687 014b 636F6E66 		.ascii	"config\000"
 13687      696700
 13688              	.LASF168:
 13689 0152 73746174 		.ascii	"state\000"
 13689      6500
 13690              	.LASF206:
 13691 0158 70757474 		.ascii	"putt\000"
 13691      00
 13692              	.LASF311:
 13693 015d 53504944 		.ascii	"SPID1\000"
 13693      3100
 13694              	.LASF283:
 13695 0163 6E726632 		.ascii	"nrf24l01ToggleFeatures\000"
 13695      346C3031 
 13695      546F6767 
 13695      6C654665 
 13695      61747572 
 13696              	.LASF174:
 13697 017a 45585443 		.ascii	"EXTChannelConfig\000"
 13697      68616E6E 
 13697      656C436F 
 13697      6E666967 
 13697      00
 13698              	.LASF264:
 13699 018b 64656C61 		.ascii	"delay\000"
 13699      7900
 13700              	.LASF160:
 13701 0191 696F6D6F 		.ascii	"iomode_t\000"
 13701      64655F74 
 13701      00
 13702              	.LASF322:
 13703 019a 5F70616C 		.ascii	"_pal_lld_setgroupmode\000"
 13703      5F6C6C64 
 13703      5F736574 
 13703      67726F75 
 13703      706D6F64 
 13704              	.LASF265:
 13705 01b0 636F756E 		.ascii	"count\000"
 13705      7400
 13706              	.LASF125:
 13707 01b6 6D5F6F77 		.ascii	"m_owner\000"
 13707      6E657200 
 13708              	.LASF78:
 13709 01be 76745F70 		.ascii	"vt_par\000"
ARM GAS  /var/folders/m4/4md61f0s1_g0rzfghffqnxvr0000gn/T//ccmevqMd.s 			page 243


 13709      617200
 13710              	.LASF194:
 13711 01c5 656E645F 		.ascii	"end_cb\000"
 13711      636200
 13712              	.LASF32:
 13713 01cc 65786974 		.ascii	"exitcode\000"
 13713      636F6465 
 13713      00
 13714              	.LASF101:
 13715 01d5 49325343 		.ascii	"I2SCFGR\000"
 13715      46475200 
 13716              	.LASF5:
 13717 01dd 5F5F7569 		.ascii	"__uint8_t\000"
 13717      6E74385F 
 13717      7400
 13718              	.LASF244:
 13719 01e7 65787470 		.ascii	"extp\000"
 13719      00
 13720              	.LASF331:
 13721 01ec 6E726632 		.ascii	"nrf24l01.cpp\000"
 13721      346C3031 
 13721      2E637070 
 13721      00
 13722              	.LASF227:
 13723 01f9 6E726632 		.ascii	"nrf24l01SetPayloadSize\000"
 13723      346C3031 
 13723      53657450 
 13723      61796C6F 
 13723      61645369 
 13724              	.LASF153:
 13725 0210 50555044 		.ascii	"PUPDR\000"
 13725      5200
 13726              	.LASF209:
 13727 0216 72656164 		.ascii	"readt\000"
 13727      7400
 13728              	.LASF97:
 13729 021c 31315350 		.ascii	"11SPI_TypeDef\000"
 13729      495F5479 
 13729      70654465 
 13729      6600
 13730              	.LASF175:
 13731 022a 39455854 		.ascii	"9EXTConfig\000"
 13731      436F6E66 
 13731      696700
 13732              	.LASF42:
 13733 0235 705F6E65 		.ascii	"p_newer\000"
 13733      77657200 
 13734              	.LASF180:
 13735 023d 5350495F 		.ascii	"SPI_STOP\000"
 13735      53544F50 
 13735      00
 13736              	.LASF11:
 13737 0246 6C6F6E67 		.ascii	"long int\000"
 13737      20696E74 
 13737      00
 13738              	.LASF179:
 13739 024f 5350495F 		.ascii	"SPI_UNINIT\000"
ARM GAS  /var/folders/m4/4md61f0s1_g0rzfghffqnxvr0000gn/T//ccmevqMd.s 			page 244


 13739      554E494E 
 13739      495400
 13740              	.LASF38:
 13741 025a 705F6E65 		.ascii	"p_next\000"
 13741      787400
 13742              	.LASF218:
 13743 0261 706F7274 		.ascii	"port_unlock\000"
 13743      5F756E6C 
 13743      6F636B00 
 13744              	.LASF39:
 13745 026d 705F7072 		.ascii	"p_prev\000"
 13745      657600
 13746              	.LASF241:
 13747 0274 63685379 		.ascii	"chSysLockFromISR\000"
 13747      734C6F63 
 13747      6B46726F 
 13747      6D495352 
 13747      00
 13748              	.LASF299:
 13749 0285 7061636B 		.ascii	"packetSize\000"
 13749      65745369 
 13749      7A6500
 13750              	.LASF161:
 13751 0290 696F706F 		.ascii	"ioportid_t\000"
 13751      72746964 
 13751      5F7400
 13752              	.LASF21:
 13753 029b 74737461 		.ascii	"tstate_t\000"
 13753      74655F74 
 13753      00
 13754              	.LASF61:
 13755 02a4 74687265 		.ascii	"threads_queue_t\000"
 13755      6164735F 
 13755      71756575 
 13755      655F7400 
 13756              	.LASF54:
 13757 02b4 705F6D74 		.ascii	"p_mtxlist\000"
 13757      786C6973 
 13757      7400
 13758              	.LASF115:
 13759 02be 72656761 		.ascii	"regarm_t\000"
 13759      726D5F74 
 13759      00
 13760              	.LASF106:
 13761 02c7 3130466C 		.ascii	"10FlagStatus\000"
 13761      61675374 
 13761      61747573 
 13761      00
 13762              	.LASF233:
 13763 02d4 6E726632 		.ascii	"nrf24l01ObjectInit\000"
 13763      346C3031 
 13763      4F626A65 
 13763      6374496E 
 13763      697400
 13764              	.LASF276:
 13765 02e7 70697065 		.ascii	"pipes\000"
 13765      7300
ARM GAS  /var/folders/m4/4md61f0s1_g0rzfghffqnxvr0000gn/T//ccmevqMd.s 			page 245


 13766              	.LASF166:
 13767 02ed 65787473 		.ascii	"extstate_t\000"
 13767      74617465 
 13767      5F7400
 13768              	.LASF3:
 13769 02f8 7369676E 		.ascii	"signed char\000"
 13769      65642063 
 13769      68617200 
 13770              	.LASF37:
 13771 0304 65776D61 		.ascii	"ewmask\000"
 13771      736B00
 13772              	.LASF15:
 13773 030b 75696E74 		.ascii	"uint8_t\000"
 13773      385F7400 
 13774              	.LASF324:
 13775 0313 65787453 		.ascii	"extStart\000"
 13775      74617274 
 13775      00
 13776              	.LASF26:
 13777 031c 6576656E 		.ascii	"eventmask_t\000"
 13777      746D6173 
 13777      6B5F7400 
 13778              	.LASF116:
 13779 0328 636F6E74 		.ascii	"context\000"
 13779      65787400 
 13780              	.LASF34:
 13781 0330 77747472 		.ascii	"wttrp\000"
 13781      7000
 13782              	.LASF242:
 13783 0336 63685379 		.ascii	"chSysUnlockFromISR\000"
 13783      73556E6C 
 13783      6F636B46 
 13783      726F6D49 
 13783      535200
 13784              	.LASF6:
 13785 0349 756E7369 		.ascii	"unsigned char\000"
 13785      676E6564 
 13785      20636861 
 13785      7200
 13786              	.LASF158:
 13787 0357 73746D33 		.ascii	"stm32_gpio_t\000"
 13787      325F6770 
 13787      696F5F74 
 13787      00
 13788              	.LASF192:
 13789 0364 73706963 		.ascii	"spicallback_t\000"
 13789      616C6C62 
 13789      61636B5F 
 13789      7400
 13790              	.LASF84:
 13791 0372 70616E69 		.ascii	"panic_msg\000"
 13791      635F6D73 
 13791      6700
 13792              	.LASF243:
 13793 037c 6E726632 		.ascii	"nrf24l01ExtIRQ\000"
 13793      346C3031 
 13793      45787449 
ARM GAS  /var/folders/m4/4md61f0s1_g0rzfghffqnxvr0000gn/T//ccmevqMd.s 			page 246


 13793      525100
 13794              	.LASF107:
 13795 038b 31354675 		.ascii	"15FunctionalState\000"
 13795      6E637469 
 13795      6F6E616C 
 13795      53746174 
 13795      6500
 13796              	.LASF68:
 13797 039d 725F6E65 		.ascii	"r_newer\000"
 13797      77657200 
 13798              	.LASF82:
 13799 03a5 73797374 		.ascii	"system_debug_t\000"
 13799      656D5F64 
 13799      65627567 
 13799      5F7400
 13800              	.LASF247:
 13801 03b4 5F5A3133 		.ascii	"_Z13nrf24l01StartP14NRF24L01DriverPK14NRF24L01Confi"
 13801      6E726632 
 13801      346C3031 
 13801      53746172 
 13801      74503134 
 13802 03e7 6700     		.ascii	"g\000"
 13803              	.LASF148:
 13804 03e9 31327374 		.ascii	"12stm32_gpio_t\000"
 13804      6D33325F 
 13804      6770696F 
 13804      5F7400
 13805              	.LASF223:
 13806 03f8 76616C75 		.ascii	"value\000"
 13806      6500
 13807              	.LASF325:
 13808 03fe 65787443 		.ascii	"extChannelEnable\000"
 13808      68616E6E 
 13808      656C456E 
 13808      61626C65 
 13808      00
 13809              	.LASF127:
 13810 040f 63686172 		.ascii	"char\000"
 13810      00
 13811              	.LASF222:
 13812 0414 63684576 		.ascii	"chEvtObjectInit\000"
 13812      744F626A 
 13812      65637449 
 13812      6E697400 
 13813              	.LASF142:
 13814 0424 69736869 		.ascii	"ishift\000"
 13814      667400
 13815              	.LASF40:
 13816 042b 705F7072 		.ascii	"p_prio\000"
 13816      696F00
 13817              	.LASF185:
 13818 0432 53504944 		.ascii	"SPIDriver\000"
 13818      72697665 
 13818      7200
 13819              	.LASF8:
 13820 043c 5F5F7569 		.ascii	"__uint16_t\000"
 13820      6E743136 
ARM GAS  /var/folders/m4/4md61f0s1_g0rzfghffqnxvr0000gn/T//ccmevqMd.s 			page 247


 13820      5F7400
 13821              	.LASF33:
 13822 0447 77746F62 		.ascii	"wtobjp\000"
 13822      6A7000
 13823              	.LASF333:
 13824 044e 6465636C 		.ascii	"decltype(nullptr)\000"
 13824      74797065 
 13824      286E756C 
 13824      6C707472 
 13824      2900
 13825              	.LASF287:
 13826 0460 6E726632 		.ascii	"nrf24l01FlushRX\000"
 13826      346C3031 
 13826      466C7573 
 13826      68525800 
 13827              	.LASF203:
 13828 0470 4E524632 		.ascii	"NRF24L01ChannelVMT\000"
 13828      344C3031 
 13828      4368616E 
 13828      6E656C56 
 13828      4D5400
 13829              	.LASF207:
 13830 0483 67657474 		.ascii	"gett\000"
 13830      00
 13831              	.LASF198:
 13832 0488 31344E52 		.ascii	"14NRF24L01Config\000"
 13832      4632344C 
 13832      3031436F 
 13832      6E666967 
 13832      00
 13833              	.LASF330:
 13834 0499 474E5520 		.ascii	"GNU C++ 4.9.3 20150529 (release) [ARM/embedded-4_9-"
 13834      432B2B20 
 13834      342E392E 
 13834      33203230 
 13834      31353035 
 13835 04cc 6272616E 		.ascii	"branch revision 224288] -mcpu=cortex-m4 -mfloat-abi"
 13835      63682072 
 13835      65766973 
 13835      696F6E20 
 13835      32323432 
 13836 04ff 3D686172 		.ascii	"=hard -mfpu=fpv4-sp-d16 -mno-thumb-interwork -mthum"
 13836      64202D6D 
 13836      6670753D 
 13836      66707634 
 13836      2D73702D 
 13837 0532 62202D67 		.ascii	"b -ggdb -O2 -std=c++11 -fomit-frame-pointer -falign"
 13837      67646220 
 13837      2D4F3220 
 13837      2D737464 
 13837      3D632B2B 
 13838 0565 2D66756E 		.ascii	"-functions=16 -ffunction-sections -fdata-sections -"
 13838      6374696F 
 13838      6E733D31 
 13838      36202D66 
 13838      66756E63 
 13839 0598 666E6F2D 		.ascii	"fno-common -fsingle-precision-constant -fno-rtti -f"
ARM GAS  /var/folders/m4/4md61f0s1_g0rzfghffqnxvr0000gn/T//ccmevqMd.s 			page 248


 13839      636F6D6D 
 13839      6F6E202D 
 13839      6673696E 
 13839      676C652D 
 13840 05cb 6E6F2D65 		.ascii	"no-exceptions\000"
 13840      78636570 
 13840      74696F6E 
 13840      7300
 13841              	.LASF270:
 13842 05d9 6E726632 		.ascii	"nrf24l01SetTXAddress\000"
 13842      346C3031 
 13842      53657454 
 13842      58416464 
 13842      72657373 
 13843              	.LASF234:
 13844 05ee 6E726632 		.ascii	"nrf24l01Start\000"
 13844      346C3031 
 13844      53746172 
 13844      7400
 13845              	.LASF202:
 13846 05fc 4E524632 		.ascii	"NRF24L01Config\000"
 13846      344C3031 
 13846      436F6E66 
 13846      696700
 13847              	.LASF285:
 13848 060b 6E726632 		.ascii	"nrf24l01EnableDynamicSize\000"
 13848      346C3031 
 13848      456E6162 
 13848      6C654479 
 13848      6E616D69 
 13849              	.LASF140:
 13850 0625 73747265 		.ascii	"stream\000"
 13850      616D00
 13851              	.LASF253:
 13852 062c 5F5A3237 		.ascii	"_Z27nrf24l01ReadAddressRegisterP14NRF24L01DriverhPh"
 13852      6E726632 
 13852      346C3031 
 13852      52656164 
 13852      41646472 
 13853 065f 00       		.ascii	"\000"
 13854              	.LASF129:
 13855 0660 6576656E 		.ascii	"event_listener_t\000"
 13855      745F6C69 
 13855      7374656E 
 13855      65725F74 
 13855      00
 13856              	.LASF159:
 13857 0671 696F706F 		.ascii	"ioportmask_t\000"
 13857      72746D61 
 13857      736B5F74 
 13857      00
 13858              	.LASF327:
 13859 067e 63684576 		.ascii	"chEvtBroadcastFlags\000"
 13859      7442726F 
 13859      61646361 
 13859      7374466C 
 13859      61677300 
ARM GAS  /var/folders/m4/4md61f0s1_g0rzfghffqnxvr0000gn/T//ccmevqMd.s 			page 249


 13860              	.LASF238:
 13861 0692 6E726632 		.ascii	"nrf24l01EnterStandby\000"
 13861      346C3031 
 13861      456E7465 
 13861      72537461 
 13861      6E646279 
 13862              	.LASF178:
 13863 06a7 31307370 		.ascii	"10spistate_t\000"
 13863      69737461 
 13863      74655F74 
 13863      00
 13864              	.LASF28:
 13865 06b4 636E745F 		.ascii	"cnt_t\000"
 13865      7400
 13866              	.LASF263:
 13867 06ba 5F5A3233 		.ascii	"_Z23nrf24l01SetupRetransmitP14NRF24L01Driverhh\000"
 13867      6E726632 
 13867      346C3031 
 13867      53657475 
 13867      70526574 
 13868              	.LASF256:
 13869 06e9 5F5A3230 		.ascii	"_Z20nrf24l01ReadRegisterP14NRF24L01Driverh\000"
 13869      6E726632 
 13869      346C3031 
 13869      52656164 
 13869      52656769 
 13870              	.LASF77:
 13871 0714 76745F66 		.ascii	"vt_func\000"
 13871      756E6300 
 13872              	.LASF278:
 13873 071c 5F5A3236 		.ascii	"_Z26nrf24l01DisableDynamicSizeP14NRF24L01Driver\000"
 13873      6E726632 
 13873      346C3031 
 13873      44697361 
 13873      626C6544 
 13874              	.LASF53:
 13875 074c 705F6570 		.ascii	"p_epending\000"
 13875      656E6469 
 13875      6E6700
 13876              	.LASF36:
 13877 0757 77746D74 		.ascii	"wtmtxp\000"
 13877      787000
 13878              	.LASF64:
 13879 075e 63685F72 		.ascii	"ch_ready_list\000"
 13879      65616479 
 13879      5F6C6973 
 13879      7400
 13880              	.LASF289:
 13881 076c 6E726632 		.ascii	"nrf24l01FlushTX\000"
 13881      346C3031 
 13881      466C7573 
 13881      68545800 
 13882              	.LASF266:
 13883 077c 6E726632 		.ascii	"nrf24l01SetChannel\000"
 13883      346C3031 
 13883      53657443 
 13883      68616E6E 
ARM GAS  /var/folders/m4/4md61f0s1_g0rzfghffqnxvr0000gn/T//ccmevqMd.s 			page 250


 13883      656C00
 13884              	.LASF164:
 13885 078f 4558545F 		.ascii	"EXT_STOP\000"
 13885      53544F50 
 13885      00
 13886              	.LASF149:
 13887 0798 636C6561 		.ascii	"clear\000"
 13887      7200
 13888              	.LASF252:
 13889 079e 6E726632 		.ascii	"nrf24l01ReadAddressRegister\000"
 13889      346C3031 
 13889      52656164 
 13889      41646472 
 13889      65737352 
 13890              	.LASF137:
 13891 07ba 65735F6E 		.ascii	"es_next\000"
 13891      65787400 
 13892              	.LASF326:
 13893 07c2 63684576 		.ascii	"chEvtRegisterMaskWithFlags\000"
 13893      74526567 
 13893      69737465 
 13893      724D6173 
 13893      6B576974 
 13894              	.LASF163:
 13895 07dd 4558545F 		.ascii	"EXT_UNINIT\000"
 13895      554E494E 
 13895      495400
 13896              	.LASF13:
 13897 07e8 6C6F6E67 		.ascii	"long unsigned int\000"
 13897      20756E73 
 13897      69676E65 
 13897      6420696E 
 13897      7400
 13898              	.LASF231:
 13899 07fa 73746174 		.ascii	"status\000"
 13899      757300
 13900              	.LASF120:
 13901 0801 63685F73 		.ascii	"ch_semaphore\000"
 13901      656D6170 
 13901      686F7265 
 13901      00
 13902              	.LASF177:
 13903 080e 45585443 		.ascii	"EXTConfig\000"
 13903      6F6E6669 
 13903      6700
 13904              	.LASF59:
 13905 0818 63685F74 		.ascii	"ch_thread\000"
 13905      68726561 
 13905      6400
 13906              	.LASF79:
 13907 0822 76697274 		.ascii	"virtual_timers_list_t\000"
 13907      75616C5F 
 13907      74696D65 
 13907      72735F6C 
 13907      6973745F 
 13908              	.LASF131:
 13909 0838 656C5F6E 		.ascii	"el_next\000"
ARM GAS  /var/folders/m4/4md61f0s1_g0rzfghffqnxvr0000gn/T//ccmevqMd.s 			page 251


 13909      65787400 
 13910              	.LASF320:
 13911 0840 73706955 		.ascii	"spiUnselect\000"
 13911      6E73656C 
 13911      65637400 
 13912              	.LASF72:
 13913 084c 76697274 		.ascii	"virtual_timer_t\000"
 13913      75616C5F 
 13913      74696D65 
 13913      725F7400 
 13914              	.LASF63:
 13915 085c 72656164 		.ascii	"ready_list_t\000"
 13915      795F6C69 
 13915      73745F74 
 13915      00
 13916              	.LASF155:
 13917 0869 4C434B52 		.ascii	"LCKR\000"
 13917      00
 13918              	.LASF245:
 13919 086e 6368616E 		.ascii	"channel\000"
 13919      6E656C00 
 13920              	.LASF300:
 13921 0876 72786370 		.ascii	"rxcp\000"
 13921      00
 13922              	.LASF112:
 13923 087b 4552524F 		.ascii	"ERROR\000"
 13923      5200
 13924              	.LASF60:
 13925 0881 63685F74 		.ascii	"ch_threads_list\000"
 13925      68726561 
 13925      64735F6C 
 13925      69737400 
 13926              	.LASF152:
 13927 0891 4F535045 		.ascii	"OSPEEDR\000"
 13927      45445200 
 13928              	.LASF167:
 13929 0899 45585444 		.ascii	"EXTDriver\000"
 13929      72697665 
 13929      7200
 13930              	.LASF213:
 13931 08a3 72784275 		.ascii	"rxBufCount\000"
 13931      66436F75 
 13931      6E7400
 13932              	.LASF188:
 13933 08ae 646D6172 		.ascii	"dmarx\000"
 13933      7800
 13934              	.LASF12:
 13935 08b4 5F5F7569 		.ascii	"__uint32_t\000"
 13935      6E743332 
 13935      5F7400
 13936              	.LASF305:
 13937 08bf 5F5A3230 		.ascii	"_Z20nrf24l01EnterStandbyP14NRF24L01Driver\000"
 13937      6E726632 
 13937      346C3031 
 13937      456E7465 
 13937      72537461 
 13938              	.LASF251:
ARM GAS  /var/folders/m4/4md61f0s1_g0rzfghffqnxvr0000gn/T//ccmevqMd.s 			page 252


 13939 08e9 5F5A3238 		.ascii	"_Z28nrf24l01WriteAddressRegisterP14NRF24L01DriverhP"
 13939      6E726632 
 13939      346C3031 
 13939      57726974 
 13939      65416464 
 13940 091c 4B6800   		.ascii	"Kh\000"
 13941              	.LASF181:
 13942 091f 5350495F 		.ascii	"SPI_READY\000"
 13942      52454144 
 13942      5900
 13943              	.LASF1:
 13944 0929 6C6F6E67 		.ascii	"long long int\000"
 13944      206C6F6E 
 13944      6720696E 
 13944      7400
 13945              	.LASF124:
 13946 0937 6D5F7175 		.ascii	"m_queue\000"
 13946      65756500 
 13947              	.LASF219:
 13948 093f 706F7274 		.ascii	"port_lock_from_isr\000"
 13948      5F6C6F63 
 13948      6B5F6672 
 13948      6F6D5F69 
 13948      737200
 13949              	.LASF165:
 13950 0952 4558545F 		.ascii	"EXT_ACTIVE\000"
 13950      41435449 
 13950      564500
 13951              	.LASF74:
 13952 095d 76745F6E 		.ascii	"vt_next\000"
 13952      65787400 
 13953              	.LASF249:
 13954 0965 6E726632 		.ascii	"nrf24l01WriteAddressRegister\000"
 13954      346C3031 
 13954      57726974 
 13954      65416464 
 13954      72657373 
 13955              	.LASF310:
 13956 0982 45585444 		.ascii	"EXTD1\000"
 13956      3100
 13957              	.LASF75:
 13958 0988 76745F70 		.ascii	"vt_prev\000"
 13958      72657600 
 13959              	.LASF96:
 13960 0990 3138444D 		.ascii	"18DMA_Stream_TypeDef\000"
 13960      415F5374 
 13960      7265616D 
 13960      5F547970 
 13960      65446566 
 13961              	.LASF304:
 13962 09a5 7073697A 		.ascii	"psize\000"
 13962      6500
 13963              	.LASF224:
 13964 09ab 70697065 		.ascii	"pipe\000"
 13964      00
 13965              	.LASF138:
 13966 09b0 6576656E 		.ascii	"event_source_t\000"
ARM GAS  /var/folders/m4/4md61f0s1_g0rzfghffqnxvr0000gn/T//ccmevqMd.s 			page 253


 13966      745F736F 
 13966      75726365 
 13966      5F7400
 13967              	.LASF312:
 13968 09bf 6E726632 		.ascii	"nrf24l01\000"
 13968      346C3031 
 13968      00
 13969              	.LASF187:
 13970 09c8 6D757465 		.ascii	"mutex\000"
 13970      7800
 13971              	.LASF235:
 13972 09ce 6E726632 		.ascii	"nrf24l01ClearIRQ\000"
 13972      346C3031 
 13972      436C6561 
 13972      72495251 
 13972      00
 13973              	.LASF226:
 13974 09df 6E726632 		.ascii	"nrf24l01SetRXAddress\000"
 13974      346C3031 
 13974      53657452 
 13974      58416464 
 13974      72657373 
 13975              	.LASF309:
 13976 09f4 49544D5F 		.ascii	"ITM_RxBuffer\000"
 13976      52784275 
 13976      66666572 
 13976      00
 13977              	.LASF99:
 13978 0a01 52584352 		.ascii	"RXCRCR\000"
 13978      435200
 13979              	.LASF334:
 13980 0a08 6E726645 		.ascii	"nrfExtCallback\000"
 13980      78744361 
 13980      6C6C6261 
 13980      636B00
 13981              	.LASF190:
 13982 0a17 7278646D 		.ascii	"rxdmamode\000"
 13982      616D6F64 
 13982      6500
 13983              	.LASF199:
 13984 0a21 73706970 		.ascii	"spip\000"
 13984      00
 13985              	.LASF271:
 13986 0a26 5F5A3230 		.ascii	"_Z20nrf24l01SetTXAddressP14NRF24L01DriverPKh\000"
 13986      6E726632 
 13986      346C3031 
 13986      53657454 
 13986      58416464 
 13987              	.LASF50:
 13988 0a53 705F7761 		.ascii	"p_waiting\000"
 13988      6974696E 
 13988      6700
 13989              	.LASF214:
 13990 0a5d 6576656E 		.ascii	"event\000"
 13990      7400
 13991              	.LASF225:
 13992 0a63 61646472 		.ascii	"addr\000"
ARM GAS  /var/folders/m4/4md61f0s1_g0rzfghffqnxvr0000gn/T//ccmevqMd.s 			page 254


 13992      00
 13993              	.LASF189:
 13994 0a68 646D6174 		.ascii	"dmatx\000"
 13994      7800
 13995              	.LASF150:
 13996 0a6e 4D4F4445 		.ascii	"MODER\000"
 13996      5200
 13997              	.LASF46:
 13998 0a74 705F666C 		.ascii	"p_flags\000"
 13998      61677300 
 13999              	.LASF205:
 14000 0a7c 72656164 		.ascii	"read\000"
 14000      00
 14001              	.LASF303:
 14002 0a81 73656E64 		.ascii	"sended\000"
 14002      656400
 14003              	.LASF90:
 14004 0a88 69646C65 		.ascii	"idle_thread_wa\000"
 14004      5F746872 
 14004      6561645F 
 14004      776100
 14005              	.LASF0:
 14006 0a97 756E7369 		.ascii	"unsigned int\000"
 14006      676E6564 
 14006      20696E74 
 14006      00
 14007              	.LASF315:
 14008 0aa4 65787463 		.ascii	"extcfg\000"
 14008      666700
 14009              	.LASF197:
 14010 0aab 53504943 		.ascii	"SPIConfig\000"
 14010      6F6E6669 
 14010      6700
 14011              	.LASF318:
 14012 0ab5 73706945 		.ascii	"spiExchange\000"
 14012      78636861 
 14012      6E676500 
 14013              	.LASF182:
 14014 0ac1 5350495F 		.ascii	"SPI_ACTIVE\000"
 14014      41435449 
 14014      564500
 14015              	.LASF19:
 14016 0acc 7274636E 		.ascii	"rtcnt_t\000"
 14016      745F7400 
 14017              	.LASF56:
 14018 0ad4 705F6D70 		.ascii	"p_mpool\000"
 14018      6F6F6C00 
 14019              	.LASF176:
 14020 0adc 6368616E 		.ascii	"channels\000"
 14020      6E656C73 
 14020      00
 14021              	.LASF47:
 14022 0ae5 705F7265 		.ascii	"p_refs\000"
 14022      667300
 14023              	.LASF262:
 14024 0aec 6E726632 		.ascii	"nrf24l01SetupRetransmit\000"
 14024      346C3031 
ARM GAS  /var/folders/m4/4md61f0s1_g0rzfghffqnxvr0000gn/T//ccmevqMd.s 			page 255


 14024      53657475 
 14024      70526574 
 14024      72616E73 
 14025              	.LASF200:
 14026 0b04 6365506F 		.ascii	"cePort\000"
 14026      727400
 14027              	.LASF259:
 14028 0b0b 5F5A3135 		.ascii	"_Z15nrf24l01PowerUpP14NRF24L01Driver\000"
 14028      6E726632 
 14028      346C3031 
 14028      506F7765 
 14028      72557050 
 14029              	.LASF135:
 14030 0b30 656C5F77 		.ascii	"el_wflags\000"
 14030      666C6167 
 14030      7300
 14031              	.LASF294:
 14032 0b3a 6E726632 		.ascii	"nrf24l01EnterRX\000"
 14032      346C3031 
 14032      456E7465 
 14032      72525800 
 14033              	.LASF301:
 14034 0b4a 6E726632 		.ascii	"nrf24l01EnterTX\000"
 14034      346C3031 
 14034      456E7465 
 14034      72545800 
 14035              	.LASF291:
 14036 0b5a 696E6974 		.ascii	"initNRF24L01\000"
 14036      4E524632 
 14036      344C3031 
 14036      00
 14037              	.LASF133:
 14038 0b67 656C5F65 		.ascii	"el_events\000"
 14038      76656E74 
 14038      7300
 14039              	.LASF260:
 14040 0b71 6E726632 		.ascii	"nrf24l01PowerDown\000"
 14040      346C3031 
 14040      506F7765 
 14040      72446F77 
 14040      6E00
 14041              	.LASF201:
 14042 0b83 63655061 		.ascii	"cePad\000"
 14042      6400
 14043              	.LASF118:
 14044 0b89 6F666673 		.ascii	"offset\000"
 14044      657400
 14045              	.LASF250:
 14046 0b90 5F5A3231 		.ascii	"_Z21nrf24l01WriteRegisterP14NRF24L01Driverhh\000"
 14046      6E726632 
 14046      346C3031 
 14046      57726974 
 14046      65526567 
 14047              	.LASF162:
 14048 0bbd 31306578 		.ascii	"10extstate_t\000"
 14048      74737461 
 14048      74655F74 
ARM GAS  /var/folders/m4/4md61f0s1_g0rzfghffqnxvr0000gn/T//ccmevqMd.s 			page 256


 14048      00
 14049              	.LASF95:
 14050 0bca 444D415F 		.ascii	"DMA_Stream_TypeDef\000"
 14050      53747265 
 14050      616D5F54 
 14050      79706544 
 14050      656600
 14051              	.LASF49:
 14052 0bdd 705F7469 		.ascii	"p_time\000"
 14052      6D6500
 14053              	.LASF284:
 14054 0be4 5F5A3232 		.ascii	"_Z22nrf24l01ToggleFeaturesP14NRF24L01Driver\000"
 14054      6E726632 
 14054      346C3031 
 14054      546F6767 
 14054      6C654665 
 14055              	.LASF146:
 14056 0c10 626F6F6C 		.ascii	"bool\000"
 14056      00
 14057              	.LASF316:
 14058 0c15 63684576 		.ascii	"chEvtBroadcastFlagsI\000"
 14058      7442726F 
 14058      61646361 
 14058      7374466C 
 14058      61677349 
 14059              	.LASF171:
 14060 0c2a 65787463 		.ascii	"extcallback_t\000"
 14060      616C6C62 
 14060      61636B5F 
 14060      7400
 14061              	.LASF108:
 14062 0c38 44495341 		.ascii	"DISABLE\000"
 14062      424C4500 
 14063              	.LASF30:
 14064 0c40 74687265 		.ascii	"thread_t\000"
 14064      61645F74 
 14064      00
 14065              	.LASF2:
 14066 0c49 6C6F6E67 		.ascii	"long double\000"
 14066      20646F75 
 14066      626C6500 
 14067              	.LASF57:
 14068 0c55 74687265 		.ascii	"thread_reference_t\000"
 14068      61645F72 
 14068      65666572 
 14068      656E6365 
 14068      5F7400
 14069              	.LASF267:
 14070 0c68 5F5A3138 		.ascii	"_Z18nrf24l01SetChannelP14NRF24L01Driverh\000"
 14070      6E726632 
 14070      346C3031 
 14070      53657443 
 14070      68616E6E 
 14071              	.LASF55:
 14072 0c91 705F7265 		.ascii	"p_realprio\000"
 14072      616C7072 
 14072      696F00
ARM GAS  /var/folders/m4/4md61f0s1_g0rzfghffqnxvr0000gn/T//ccmevqMd.s 			page 257


 14073              	.LASF117:
 14074 0c9c 706F7274 		.ascii	"port_intctx\000"
 14074      5F696E74 
 14074      63747800 
 14075              	.LASF314:
 14076 0ca8 6E726632 		.ascii	"nrf24l01Config\000"
 14076      346C3031 
 14076      436F6E66 
 14076      696700
 14077              	.LASF220:
 14078 0cb7 706F7274 		.ascii	"port_unlock_from_isr\000"
 14078      5F756E6C 
 14078      6F636B5F 
 14078      66726F6D 
 14078      5F697372 
 14079              	.LASF76:
 14080 0ccc 76745F64 		.ascii	"vt_delta\000"
 14080      656C7461 
 14080      00
 14081              	.LASF114:
 14082 0cd5 4572726F 		.ascii	"ErrorStatus\000"
 14082      72537461 
 14082      74757300 
 14083              	.LASF329:
 14084 0ce1 63684576 		.ascii	"chEvtWaitOneTimeout\000"
 14084      74576169 
 14084      744F6E65 
 14084      54696D65 
 14084      6F757400 
 14085              	.LASF139:
 14086 0cf5 31387374 		.ascii	"18stm32_dma_stream_t\000"
 14086      6D33325F 
 14086      646D615F 
 14086      73747265 
 14086      616D5F74 
 14087              	.LASF73:
 14088 0d0a 63685F76 		.ascii	"ch_virtual_timer\000"
 14088      69727475 
 14088      616C5F74 
 14088      696D6572 
 14088      00
 14089              	.LASF147:
 14090 0d1b 3136746D 		.ascii	"16tm_calibration_t\000"
 14090      5F63616C 
 14090      69627261 
 14090      74696F6E 
 14090      5F7400
 14091              	.LASF122:
 14092 0d2e 735F636E 		.ascii	"s_cnt\000"
 14092      7400
 14093              	.LASF286:
 14094 0d34 5F5A3235 		.ascii	"_Z25nrf24l01EnableDynamicSizeP14NRF24L01Driver\000"
 14094      6E726632 
 14094      346C3031 
 14094      456E6162 
 14094      6C654479 
 14095              	.LASF110:
ARM GAS  /var/folders/m4/4md61f0s1_g0rzfghffqnxvr0000gn/T//ccmevqMd.s 			page 258


 14096 0d63 46756E63 		.ascii	"FunctionalState\000"
 14096      74696F6E 
 14096      616C5374 
 14096      61746500 
 14097              	.LASF143:
 14098 0d73 73656C66 		.ascii	"selfindex\000"
 14098      696E6465 
 14098      7800
 14099              	.LASF273:
 14100 0d7d 5F5A3231 		.ascii	"_Z21nrf24l01GetFIFOStatusP14NRF24L01Driver\000"
 14100      6E726632 
 14100      346C3031 
 14100      47657446 
 14100      49464F53 
 14101              	.LASF228:
 14102 0da8 73697A65 		.ascii	"size\000"
 14102      00
 14103              	.LASF14:
 14104 0dad 6C6F6E67 		.ascii	"long long unsigned int\000"
 14104      206C6F6E 
 14104      6720756E 
 14104      7369676E 
 14104      65642069 
 14105              	.LASF288:
 14106 0dc4 5F5A3135 		.ascii	"_Z15nrf24l01FlushRXP14NRF24L01Driver\000"
 14106      6E726632 
 14106      346C3031 
 14106      466C7573 
 14106      68525850 
 14107              	.LASF43:
 14108 0de9 705F6F6C 		.ascii	"p_older\000"
 14108      64657200 
 14109              	.LASF16:
 14110 0df1 75696E74 		.ascii	"uint16_t\000"
 14110      31365F74 
 14110      00
 14111              	.LASF25:
 14112 0dfa 6D73675F 		.ascii	"msg_t\000"
 14112      7400
 14113              	.LASF62:
 14114 0e00 63685F74 		.ascii	"ch_threads_queue\000"
 14114      68726561 
 14114      64735F71 
 14114      75657565 
 14114      00
 14115              	.LASF27:
 14116 0e11 6576656E 		.ascii	"eventflags_t\000"
 14116      74666C61 
 14116      67735F74 
 14116      00
 14117              	.LASF279:
 14118 0e1e 6E726632 		.ascii	"nrf24l01DisableDynamicPipeSize\000"
 14118      346C3031 
 14118      44697361 
 14118      626C6544 
 14118      796E616D 
 14119              	.LASF23:
ARM GAS  /var/folders/m4/4md61f0s1_g0rzfghffqnxvr0000gn/T//ccmevqMd.s 			page 259


 14120 0e3d 74736C69 		.ascii	"tslices_t\000"
 14120      6365735F 
 14120      7400
 14121              	.LASF274:
 14122 0e47 6E726632 		.ascii	"nrf24l01EnableDynamicPipeSize\000"
 14122      346C3031 
 14122      456E6162 
 14122      6C654479 
 14122      6E616D69 
 14123              	.LASF336:
 14124 0e65 63684576 		.ascii	"chEvtUnregister\000"
 14124      74556E72 
 14124      65676973 
 14124      74657200 
 14125              	.LASF70:
 14126 0e75 725F6375 		.ascii	"r_current\000"
 14126      7272656E 
 14126      7400
 14127              	.LASF211:
 14128 0e7f 6E726670 		.ascii	"nrfp\000"
 14128      00
 14129              	.LASF258:
 14130 0e84 6E726632 		.ascii	"nrf24l01PowerUp\000"
 14130      346C3031 
 14130      506F7765 
 14130      72557000 
 14131              	.LASF321:
 14132 0e94 73706953 		.ascii	"spiSend\000"
 14132      656E6400 
 14133              	.LASF157:
 14134 0e9c 41465248 		.ascii	"AFRH\000"
 14134      00
 14135              	.LASF113:
 14136 0ea1 53554343 		.ascii	"SUCCESS\000"
 14136      45535300 
 14137              	.LASF156:
 14138 0ea9 4146524C 		.ascii	"AFRL\000"
 14138      00
 14139              	.LASF335:
 14140 0eae 5F5A3132 		.ascii	"_Z12initNRF24L01v\000"
 14140      696E6974 
 14140      4E524632 
 14140      344C3031 
 14140      7600
 14141              	.LASF144:
 14142 0ec0 76656374 		.ascii	"vector\000"
 14142      6F7200
 14143              	.LASF296:
 14144 0ec7 6E72664C 		.ascii	"nrfListener\000"
 14144      69737465 
 14144      6E657200 
 14145              	.LASF89:
 14146 0ed3 6D61696E 		.ascii	"mainthread\000"
 14146      74687265 
 14146      616400
 14147              	.LASF221:
 14148 0ede 5F5F7365 		.ascii	"__set_BASEPRI\000"
ARM GAS  /var/folders/m4/4md61f0s1_g0rzfghffqnxvr0000gn/T//ccmevqMd.s 			page 260


 14148      745F4241 
 14148      53455052 
 14148      4900
 14149              	.LASF246:
 14150 0eec 5F5A3138 		.ascii	"_Z18nrf24l01ObjectInitP14NRF24L01Driver\000"
 14150      6E726632 
 14150      346C3031 
 14150      4F626A65 
 14150      6374496E 
 14151              	.LASF104:
 14152 0f14 52455345 		.ascii	"RESET\000"
 14152      5400
 14153              	.LASF65:
 14154 0f1a 725F7175 		.ascii	"r_queue\000"
 14154      65756500 
 14155              	.LASF151:
 14156 0f22 4F545950 		.ascii	"OTYPER\000"
 14156      455200
 14157              	.LASF240:
 14158 0f29 74696D65 		.ascii	"time\000"
 14158      00
 14159              	.LASF210:
 14160 0f2e 4E524632 		.ascii	"NRF24L01Channel\000"
 14160      344C3031 
 14160      4368616E 
 14160      6E656C00 
 14161              	.LASF100:
 14162 0f3e 54584352 		.ascii	"TXCRCR\000"
 14162      435200
 14163              	.LASF103:
 14164 0f45 5350495F 		.ascii	"SPI_TypeDef\000"
 14164      54797065 
 14164      44656600 
 14165              	.LASF105:
 14166 0f51 466C6167 		.ascii	"FlagStatus\000"
 14166      53746174 
 14166      757300
 14167              	.LASF87:
 14168 0f5c 726C6973 		.ascii	"rlist\000"
 14168      7400
 14169              	.LASF20:
 14170 0f62 746D6F64 		.ascii	"tmode_t\000"
 14170      655F7400 
 14171              	.LASF98:
 14172 0f6a 43524350 		.ascii	"CRCPR\000"
 14172      5200
 14173              	.LASF170:
 14174 0f70 65787063 		.ascii	"expchannel_t\000"
 14174      68616E6E 
 14174      656C5F74 
 14174      00
 14175              	.LASF319:
 14176 0f7d 73706952 		.ascii	"spiReceive\000"
 14176      65636569 
 14176      766500
 14177              	.LASF81:
 14178 0f88 76745F73 		.ascii	"vt_systime\000"
ARM GAS  /var/folders/m4/4md61f0s1_g0rzfghffqnxvr0000gn/T//ccmevqMd.s 			page 261


 14178      79737469 
 14178      6D6500
 14179              	.LASF69:
 14180 0f93 725F6F6C 		.ascii	"r_older\000"
 14180      64657200 
 14181              	.LASF119:
 14182 0f9b 746D5F63 		.ascii	"tm_calibration_t\000"
 14182      616C6962 
 14182      72617469 
 14182      6F6E5F74 
 14182      00
 14183              	.LASF186:
 14184 0fac 74687265 		.ascii	"thread\000"
 14184      616400
 14185              	.LASF93:
 14186 0fb3 4D304152 		.ascii	"M0AR\000"
 14186      00
 14187              	.LASF217:
 14188 0fb8 706F7274 		.ascii	"port_lock\000"
 14188      5F6C6F63 
 14188      6B00
 14189              	.LASF121:
 14190 0fc2 735F7175 		.ascii	"s_queue\000"
 14190      65756500 
 14191              	.LASF298:
 14192 0fca 73746174 		.ascii	"status_reg\000"
 14192      75735F72 
 14192      656700
 14193              	.LASF7:
 14194 0fd5 73686F72 		.ascii	"short int\000"
 14194      7420696E 
 14194      7400
 14195              	.LASF136:
 14196 0fdf 6576656E 		.ascii	"event_source\000"
 14196      745F736F 
 14196      75726365 
 14196      00
 14197              	.LASF307:
 14198 0fec 5F5A3139 		.ascii	"_Z19nrf24l01EnablePipesP14NRF24L01Driverh\000"
 14198      6E726632 
 14198      346C3031 
 14198      456E6162 
 14198      6C655069 
 14199              	.LASF173:
 14200 1016 6D6F6465 		.ascii	"mode\000"
 14200      00
 14201              	.LASF123:
 14202 101b 63685F6D 		.ascii	"ch_mutex\000"
 14202      75746578 
 14202      00
 14203              	.LASF268:
 14204 1024 5F5A3136 		.ascii	"_Z16nrf24l01ClearIRQP14NRF24L01Driverh\000"
 14204      6E726632 
 14204      346C3031 
 14204      436C6561 
 14204      72495251 
 14205              	.LASF317:
ARM GAS  /var/folders/m4/4md61f0s1_g0rzfghffqnxvr0000gn/T//ccmevqMd.s 			page 262


 14206 104b 73706953 		.ascii	"spiSelect\000"
 14206      656C6563 
 14206      7400
 14207              	.LASF237:
 14208 1055 6576656E 		.ascii	"events\000"
 14208      747300
 14209              	.LASF48:
 14210 105c 705F7072 		.ascii	"p_preempt\000"
 14210      65656D70 
 14210      7400
 14211              	.LASF66:
 14212 1066 725F7072 		.ascii	"r_prio\000"
 14212      696F00
 14213              	.LASF257:
 14214 106d 5F5A3137 		.ascii	"_Z17nrf24l01GetStatusP14NRF24L01Driver\000"
 14214      6E726632 
 14214      346C3031 
 14214      47657453 
 14214      74617475 
 14215              	.LASF83:
 14216 1094 63685F73 		.ascii	"ch_system_debug\000"
 14216      79737465 
 14216      6D5F6465 
 14216      62756700 
 14217              	.LASF109:
 14218 10a4 454E4142 		.ascii	"ENABLE\000"
 14218      4C4500
 14219              	.LASF154:
 14220 10ab 42535252 		.ascii	"BSRR\000"
 14220      00
 14221              	.LASF328:
 14222 10b0 6E726632 		.ascii	"nrf24l01GetFIFOStatus\000"
 14222      346C3031 
 14222      47657446 
 14222      49464F53 
 14222      74617475 
 14223              	.LASF88:
 14224 10c6 76746C69 		.ascii	"vtlist\000"
 14224      737400
 14225              	.LASF128:
 14226 10cd 6D757465 		.ascii	"mutex_t\000"
 14226      785F7400 
 14227              	.LASF22:
 14228 10d5 74726566 		.ascii	"trefs_t\000"
 14228      735F7400 
 14229              	.LASF302:
 14230 10dd 5F5A3135 		.ascii	"_Z15nrf24l01EnterTXP14NRF24L01Driver\000"
 14230      6E726632 
 14230      346C3031 
 14230      456E7465 
 14230      72545850 
 14231              	.LASF58:
 14232 1102 74687265 		.ascii	"threads_list_t\000"
 14232      6164735F 
 14232      6C697374 
 14232      5F7400
 14233              	.LASF282:
ARM GAS  /var/folders/m4/4md61f0s1_g0rzfghffqnxvr0000gn/T//ccmevqMd.s 			page 263


 14234 1111 5F5A3230 		.ascii	"_Z20nrf24l01WritePayloadP14NRF24L01DriverhPKh\000"
 14234      6E726632 
 14234      346C3031 
 14234      57726974 
 14234      65506179 
 14235              	.LASF86:
 14236 113f 63685F73 		.ascii	"ch_system\000"
 14236      79737465 
 14236      6D00
 14237              	.LASF18:
 14238 1149 75696E74 		.ascii	"uint32_t\000"
 14238      33325F74 
 14238      00
 14239              	.LASF297:
 14240 1152 72656365 		.ascii	"received\000"
 14240      69766564 
 14240      00
 14241              	.LASF248:
 14242 115b 6E726632 		.ascii	"nrf24l01WriteRegister\000"
 14242      346C3031 
 14242      57726974 
 14242      65526567 
 14242      69737465 
 14243              	.LASF102:
 14244 1171 49325350 		.ascii	"I2SPR\000"
 14244      5200
 14245              	.LASF281:
 14246 1177 5F5A3139 		.ascii	"_Z19nrf24l01ReadPayloadP14NRF24L01DriverhPhS1_\000"
 14246      6E726632 
 14246      346C3031 
 14246      52656164 
 14246      5061796C 
 14247              	.LASF292:
 14248 11a6 6E726632 		.ascii	"nrf24l01GetSize\000"
 14248      346C3031 
 14248      47657453 
 14248      697A6500 
 14249              	.LASF183:
 14250 11b6 5350495F 		.ascii	"SPI_COMPLETE\000"
 14250      434F4D50 
 14250      4C455445 
 14250      00
 14251              	.LASF306:
 14252 11c3 6E726632 		.ascii	"nrf24l01EnablePipes\000"
 14252      346C3031 
 14252      456E6162 
 14252      6C655069 
 14252      70657300 
 14253              	.LASF232:
 14254 11d7 6E726632 		.ascii	"nrf24l01WritePayload\000"
 14254      346C3031 
 14254      57726974 
 14254      65506179 
 14254      6C6F6164 
 14255              	.LASF254:
 14256 11ec 6E726632 		.ascii	"nrf24l01ReadRegister\000"
 14256      346C3031 
ARM GAS  /var/folders/m4/4md61f0s1_g0rzfghffqnxvr0000gn/T//ccmevqMd.s 			page 264


 14256      52656164 
 14256      52656769 
 14256      73746572 
 14257              	.LASF130:
 14258 1201 6576656E 		.ascii	"event_listener\000"
 14258      745F6C69 
 14258      7374656E 
 14258      657200
 14259              	.LASF31:
 14260 1210 7264796D 		.ascii	"rdymsg\000"
 14260      736700
 14261              	.LASF236:
 14262 1217 63684576 		.ascii	"chEvtRegisterMask\000"
 14262      74526567 
 14262      69737465 
 14262      724D6173 
 14262      6B00
 14263              	.LASF9:
 14264 1229 73686F72 		.ascii	"short unsigned int\000"
 14264      7420756E 
 14264      7369676E 
 14264      65642069 
 14264      6E7400
 14265              	.LASF85:
 14266 123c 63685F73 		.ascii	"ch_system_t\000"
 14266      79737465 
 14266      6D5F7400 
 14267              	.LASF290:
 14268 1248 5F5A3135 		.ascii	"_Z15nrf24l01FlushTXP14NRF24L01Driver\000"
 14268      6E726632 
 14268      346C3031 
 14268      466C7573 
 14268      68545850 
 14269              	.LASF184:
 14270 126d 73706973 		.ascii	"spistate_t\000"
 14270      74617465 
 14270      5F7400
 14271              	.LASF277:
 14272 1278 6E726632 		.ascii	"nrf24l01DisableDynamicSize\000"
 14272      346C3031 
 14272      44697361 
 14272      626C6544 
 14272      796E616D 
 14273              	.LASF10:
 14274 1293 5F5F696E 		.ascii	"__int32_t\000"
 14274      7433325F 
 14274      7400
 14275              	.LASF193:
 14276 129d 39535049 		.ascii	"9SPIConfig\000"
 14276      436F6E66 
 14276      696700
 14277              	.LASF308:
 14278 12a8 5F5A3134 		.ascii	"_Z14nrf24l01ExtIRQP14NRF24L01Driver\000"
 14278      6E726632 
 14278      346C3031 
 14278      45787449 
 14278      52515031 
ARM GAS  /var/folders/m4/4md61f0s1_g0rzfghffqnxvr0000gn/T//ccmevqMd.s 			page 265


 14279              	.LASF92:
 14280 12cc 4E445452 		.ascii	"NDTR\000"
 14280      00
 14281              	.LASF141:
 14282 12d1 69666372 		.ascii	"ifcr\000"
 14282      00
 14283              	.LASF196:
 14284 12d6 73737061 		.ascii	"sspad\000"
 14284      6400
 14285              	.LASF272:
 14286 12dc 5F5A3232 		.ascii	"_Z22nrf24l01SetPayloadSizeP14NRF24L01Driverhh\000"
 14286      6E726632 
 14286      346C3031 
 14286      53657450 
 14286      61796C6F 
 14287              	.LASF44:
 14288 130a 705F6E61 		.ascii	"p_name\000"
 14288      6D6500
 14289              	.LASF295:
 14290 1311 5F5A3135 		.ascii	"_Z15nrf24l01EnterRXP14NRF24L01Driver\000"
 14290      6E726632 
 14290      346C3031 
 14290      456E7465 
 14290      72525850 
 14291              	.LASF332:
 14292 1336 2F557365 		.ascii	"/Users/raphael/Documents/pcb-quadrotor/code\000"
 14292      72732F72 
 14292      61706861 
 14292      656C2F44 
 14292      6F63756D 
 14293              	.LASF261:
 14294 1362 5F5A3137 		.ascii	"_Z17nrf24l01PowerDownP14NRF24L01Driver\000"
 14294      6E726632 
 14294      346C3031 
 14294      506F7765 
 14294      72446F77 
 14295              	.LASF230:
 14296 1389 64617461 		.ascii	"data\000"
 14296      00
 14297              	.LASF126:
 14298 138e 6D5F6E65 		.ascii	"m_next\000"
 14298      787400
 14299              	.LASF172:
 14300 1395 31364558 		.ascii	"16EXTChannelConfig\000"
 14300      54436861 
 14300      6E6E656C 
 14300      436F6E66 
 14300      696700
 14301              	.LASF313:
 14302 13a8 6E726632 		.ascii	"nrf24l01SPI\000"
 14302      346C3031 
 14302      53504900 
 14303              	.LASF191:
 14304 13b4 7478646D 		.ascii	"txdmamode\000"
 14304      616D6F64 
 14304      6500
 14305              	.LASF280:
ARM GAS  /var/folders/m4/4md61f0s1_g0rzfghffqnxvr0000gn/T//ccmevqMd.s 			page 266


 14306 13be 5F5A3330 		.ascii	"_Z30nrf24l01DisableDynamicPipeSizeP14NRF24L01Driver"
 14306      6E726632 
 14306      346C3031 
 14306      44697361 
 14306      626C6544 
 14307 13f1 6800     		.ascii	"h\000"
 14308              	.LASF216:
 14309 13f3 6576656E 		.ascii	"eventSource\000"
 14309      74536F75 
 14309      72636500 
 14310              	.LASF275:
 14311 13ff 5F5A3239 		.ascii	"_Z29nrf24l01EnableDynamicPipeSizeP14NRF24L01Driverh"
 14311      6E726632 
 14311      346C3031 
 14311      456E6162 
 14311      6C654479 
 14312 1432 00       		.ascii	"\000"
 14313              	.LASF52:
 14314 1433 705F6D73 		.ascii	"p_msg\000"
 14314      6700
 14315              	.LASF132:
 14316 1439 656C5F6C 		.ascii	"el_listener\000"
 14316      69737465 
 14316      6E657200 
 14317              	.LASF45:
 14318 1445 705F7374 		.ascii	"p_state\000"
 14318      61746500 
 14319              		.ident	"GCC: (GNU Tools for ARM Embedded Processors) 4.9.3 20150529 (release) [ARM/embedded-4_9-br
ARM GAS  /var/folders/m4/4md61f0s1_g0rzfghffqnxvr0000gn/T//ccmevqMd.s 			page 267


DEFINED SYMBOLS
                            *ABS*:0000000000000000 nrf24l01.cpp
/var/folders/m4/4md61f0s1_g0rzfghffqnxvr0000gn/T//ccmevqMd.s:21     .text._ZL14nrfExtCallbackP9EXTDriverm:0000000000000000 $t
/var/folders/m4/4md61f0s1_g0rzfghffqnxvr0000gn/T//ccmevqMd.s:26     .text._ZL14nrfExtCallbackP9EXTDriverm:0000000000000000 _ZL14nrfExtCallbackP9EXTDriverm
/var/folders/m4/4md61f0s1_g0rzfghffqnxvr0000gn/T//ccmevqMd.s:79     .text._ZL14nrfExtCallbackP9EXTDriverm:0000000000000018 $d
/var/folders/m4/4md61f0s1_g0rzfghffqnxvr0000gn/T//ccmevqMd.s:91     .text._Z19nrf24l01ReadPayloadP14NRF24L01DriverhPhS1_.part.2:0000000000000000 $t
/var/folders/m4/4md61f0s1_g0rzfghffqnxvr0000gn/T//ccmevqMd.s:96     .text._Z19nrf24l01ReadPayloadP14NRF24L01DriverhPhS1_.part.2:0000000000000000 _Z19nrf24l01ReadPayloadP14NRF24L01DriverhPhS1_.part.2
/var/folders/m4/4md61f0s1_g0rzfghffqnxvr0000gn/T//ccmevqMd.s:170    .text._Z20nrf24l01WritePayloadP14NRF24L01DriverhPKh.part.3:0000000000000000 $t
/var/folders/m4/4md61f0s1_g0rzfghffqnxvr0000gn/T//ccmevqMd.s:175    .text._Z20nrf24l01WritePayloadP14NRF24L01DriverhPKh.part.3:0000000000000000 _Z20nrf24l01WritePayloadP14NRF24L01DriverhPKh.part.3
/var/folders/m4/4md61f0s1_g0rzfghffqnxvr0000gn/T//ccmevqMd.s:241    .text._Z18nrf24l01ObjectInitP14NRF24L01Driver:0000000000000000 $t
/var/folders/m4/4md61f0s1_g0rzfghffqnxvr0000gn/T//ccmevqMd.s:247    .text._Z18nrf24l01ObjectInitP14NRF24L01Driver:0000000000000000 _Z18nrf24l01ObjectInitP14NRF24L01Driver
/var/folders/m4/4md61f0s1_g0rzfghffqnxvr0000gn/T//ccmevqMd.s:306    .text._Z18nrf24l01ObjectInitP14NRF24L01Driver:0000000000000030 $d
/var/folders/m4/4md61f0s1_g0rzfghffqnxvr0000gn/T//ccmevqMd.s:311    .text._Z13nrf24l01StartP14NRF24L01DriverPK14NRF24L01Config:0000000000000000 $t
/var/folders/m4/4md61f0s1_g0rzfghffqnxvr0000gn/T//ccmevqMd.s:317    .text._Z13nrf24l01StartP14NRF24L01DriverPK14NRF24L01Config:0000000000000000 _Z13nrf24l01StartP14NRF24L01DriverPK14NRF24L01Config
/var/folders/m4/4md61f0s1_g0rzfghffqnxvr0000gn/T//ccmevqMd.s:332    .text._Z21nrf24l01WriteRegisterP14NRF24L01Driverhh:0000000000000000 $t
/var/folders/m4/4md61f0s1_g0rzfghffqnxvr0000gn/T//ccmevqMd.s:338    .text._Z21nrf24l01WriteRegisterP14NRF24L01Driverhh:0000000000000000 _Z21nrf24l01WriteRegisterP14NRF24L01Driverhh
/var/folders/m4/4md61f0s1_g0rzfghffqnxvr0000gn/T//ccmevqMd.s:397    .text._Z20nrf24l01ReadRegisterP14NRF24L01Driverh:0000000000000000 $t
/var/folders/m4/4md61f0s1_g0rzfghffqnxvr0000gn/T//ccmevqMd.s:403    .text._Z20nrf24l01ReadRegisterP14NRF24L01Driverh:0000000000000000 _Z20nrf24l01ReadRegisterP14NRF24L01Driverh
/var/folders/m4/4md61f0s1_g0rzfghffqnxvr0000gn/T//ccmevqMd.s:464    .text._Z28nrf24l01WriteAddressRegisterP14NRF24L01DriverhPKh:0000000000000000 $t
/var/folders/m4/4md61f0s1_g0rzfghffqnxvr0000gn/T//ccmevqMd.s:470    .text._Z28nrf24l01WriteAddressRegisterP14NRF24L01DriverhPKh:0000000000000000 _Z28nrf24l01WriteAddressRegisterP14NRF24L01DriverhPKh
/var/folders/m4/4md61f0s1_g0rzfghffqnxvr0000gn/T//ccmevqMd.s:537    .text._Z27nrf24l01ReadAddressRegisterP14NRF24L01DriverhPh:0000000000000000 $t
/var/folders/m4/4md61f0s1_g0rzfghffqnxvr0000gn/T//ccmevqMd.s:543    .text._Z27nrf24l01ReadAddressRegisterP14NRF24L01DriverhPh:0000000000000000 _Z27nrf24l01ReadAddressRegisterP14NRF24L01DriverhPh
/var/folders/m4/4md61f0s1_g0rzfghffqnxvr0000gn/T//ccmevqMd.s:609    .text._Z17nrf24l01GetStatusP14NRF24L01Driver:0000000000000000 $t
/var/folders/m4/4md61f0s1_g0rzfghffqnxvr0000gn/T//ccmevqMd.s:615    .text._Z17nrf24l01GetStatusP14NRF24L01Driver:0000000000000000 _Z17nrf24l01GetStatusP14NRF24L01Driver
/var/folders/m4/4md61f0s1_g0rzfghffqnxvr0000gn/T//ccmevqMd.s:669    .text._Z15nrf24l01PowerUpP14NRF24L01Driver:0000000000000000 $t
/var/folders/m4/4md61f0s1_g0rzfghffqnxvr0000gn/T//ccmevqMd.s:675    .text._Z15nrf24l01PowerUpP14NRF24L01Driver:0000000000000000 _Z15nrf24l01PowerUpP14NRF24L01Driver
/var/folders/m4/4md61f0s1_g0rzfghffqnxvr0000gn/T//ccmevqMd.s:719    .text._Z17nrf24l01PowerDownP14NRF24L01Driver:0000000000000000 $t
/var/folders/m4/4md61f0s1_g0rzfghffqnxvr0000gn/T//ccmevqMd.s:725    .text._Z17nrf24l01PowerDownP14NRF24L01Driver:0000000000000000 _Z17nrf24l01PowerDownP14NRF24L01Driver
/var/folders/m4/4md61f0s1_g0rzfghffqnxvr0000gn/T//ccmevqMd.s:767    .text._Z23nrf24l01SetupRetransmitP14NRF24L01Driverhh:0000000000000000 $t
/var/folders/m4/4md61f0s1_g0rzfghffqnxvr0000gn/T//ccmevqMd.s:773    .text._Z23nrf24l01SetupRetransmitP14NRF24L01Driverhh:0000000000000000 _Z23nrf24l01SetupRetransmitP14NRF24L01Driverhh
/var/folders/m4/4md61f0s1_g0rzfghffqnxvr0000gn/T//ccmevqMd.s:797    .text._Z18nrf24l01SetChannelP14NRF24L01Driverh:0000000000000000 $t
/var/folders/m4/4md61f0s1_g0rzfghffqnxvr0000gn/T//ccmevqMd.s:803    .text._Z18nrf24l01SetChannelP14NRF24L01Driverh:0000000000000000 _Z18nrf24l01SetChannelP14NRF24L01Driverh
/var/folders/m4/4md61f0s1_g0rzfghffqnxvr0000gn/T//ccmevqMd.s:823    .text._Z16nrf24l01ClearIRQP14NRF24L01Driverh:0000000000000000 $t
/var/folders/m4/4md61f0s1_g0rzfghffqnxvr0000gn/T//ccmevqMd.s:829    .text._Z16nrf24l01ClearIRQP14NRF24L01Driverh:0000000000000000 _Z16nrf24l01ClearIRQP14NRF24L01Driverh
/var/folders/m4/4md61f0s1_g0rzfghffqnxvr0000gn/T//ccmevqMd.s:847    .text._Z20nrf24l01SetRXAddressP14NRF24L01DriverhPKh:0000000000000000 $t
/var/folders/m4/4md61f0s1_g0rzfghffqnxvr0000gn/T//ccmevqMd.s:853    .text._Z20nrf24l01SetRXAddressP14NRF24L01DriverhPKh:0000000000000000 _Z20nrf24l01SetRXAddressP14NRF24L01DriverhPKh
/var/folders/m4/4md61f0s1_g0rzfghffqnxvr0000gn/T//ccmevqMd.s:936    .text._Z20nrf24l01SetTXAddressP14NRF24L01DriverPKh:0000000000000000 $t
/var/folders/m4/4md61f0s1_g0rzfghffqnxvr0000gn/T//ccmevqMd.s:942    .text._Z20nrf24l01SetTXAddressP14NRF24L01DriverPKh:0000000000000000 _Z20nrf24l01SetTXAddressP14NRF24L01DriverPKh
/var/folders/m4/4md61f0s1_g0rzfghffqnxvr0000gn/T//ccmevqMd.s:984    .text._Z22nrf24l01SetPayloadSizeP14NRF24L01Driverhh:0000000000000000 $t
/var/folders/m4/4md61f0s1_g0rzfghffqnxvr0000gn/T//ccmevqMd.s:990    .text._Z22nrf24l01SetPayloadSizeP14NRF24L01Driverhh:0000000000000000 _Z22nrf24l01SetPayloadSizeP14NRF24L01Driverhh
/var/folders/m4/4md61f0s1_g0rzfghffqnxvr0000gn/T//ccmevqMd.s:1023   .text._Z21nrf24l01GetFIFOStatusP14NRF24L01Driver:0000000000000000 $t
/var/folders/m4/4md61f0s1_g0rzfghffqnxvr0000gn/T//ccmevqMd.s:1029   .text._Z21nrf24l01GetFIFOStatusP14NRF24L01Driver:0000000000000000 _Z21nrf24l01GetFIFOStatusP14NRF24L01Driver
/var/folders/m4/4md61f0s1_g0rzfghffqnxvr0000gn/T//ccmevqMd.s:1045   .text._Z29nrf24l01EnableDynamicPipeSizeP14NRF24L01Driverh:0000000000000000 $t
/var/folders/m4/4md61f0s1_g0rzfghffqnxvr0000gn/T//ccmevqMd.s:1051   .text._Z29nrf24l01EnableDynamicPipeSizeP14NRF24L01Driverh:0000000000000000 _Z29nrf24l01EnableDynamicPipeSizeP14NRF24L01Driverh
/var/folders/m4/4md61f0s1_g0rzfghffqnxvr0000gn/T//ccmevqMd.s:1103   .text._Z26nrf24l01DisableDynamicSizeP14NRF24L01Driver:0000000000000000 $t
/var/folders/m4/4md61f0s1_g0rzfghffqnxvr0000gn/T//ccmevqMd.s:1109   .text._Z26nrf24l01DisableDynamicSizeP14NRF24L01Driver:0000000000000000 _Z26nrf24l01DisableDynamicSizeP14NRF24L01Driver
/var/folders/m4/4md61f0s1_g0rzfghffqnxvr0000gn/T//ccmevqMd.s:1151   .text._Z30nrf24l01DisableDynamicPipeSizeP14NRF24L01Driverh:0000000000000000 $t
/var/folders/m4/4md61f0s1_g0rzfghffqnxvr0000gn/T//ccmevqMd.s:1157   .text._Z30nrf24l01DisableDynamicPipeSizeP14NRF24L01Driverh:0000000000000000 _Z30nrf24l01DisableDynamicPipeSizeP14NRF24L01Driverh
/var/folders/m4/4md61f0s1_g0rzfghffqnxvr0000gn/T//ccmevqMd.s:1209   .text._Z19nrf24l01ReadPayloadP14NRF24L01DriverhPhS1_:0000000000000000 $t
/var/folders/m4/4md61f0s1_g0rzfghffqnxvr0000gn/T//ccmevqMd.s:1215   .text._Z19nrf24l01ReadPayloadP14NRF24L01DriverhPhS1_:0000000000000000 _Z19nrf24l01ReadPayloadP14NRF24L01DriverhPhS1_
/var/folders/m4/4md61f0s1_g0rzfghffqnxvr0000gn/T//ccmevqMd.s:1236   .text._Z20nrf24l01WritePayloadP14NRF24L01DriverhPKh:0000000000000000 $t
/var/folders/m4/4md61f0s1_g0rzfghffqnxvr0000gn/T//ccmevqMd.s:1242   .text._Z20nrf24l01WritePayloadP14NRF24L01DriverhPKh:0000000000000000 _Z20nrf24l01WritePayloadP14NRF24L01DriverhPKh
/var/folders/m4/4md61f0s1_g0rzfghffqnxvr0000gn/T//ccmevqMd.s:1263   .text._Z22nrf24l01ToggleFeaturesP14NRF24L01Driver:0000000000000000 $t
/var/folders/m4/4md61f0s1_g0rzfghffqnxvr0000gn/T//ccmevqMd.s:1269   .text._Z22nrf24l01ToggleFeaturesP14NRF24L01Driver:0000000000000000 _Z22nrf24l01ToggleFeaturesP14NRF24L01Driver
/var/folders/m4/4md61f0s1_g0rzfghffqnxvr0000gn/T//ccmevqMd.s:1323   .text._Z22nrf24l01ToggleFeaturesP14NRF24L01Driver:0000000000000034 $d
/var/folders/m4/4md61f0s1_g0rzfghffqnxvr0000gn/T//ccmevqMd.s:1328   .text._Z25nrf24l01EnableDynamicSizeP14NRF24L01Driver:0000000000000000 $t
/var/folders/m4/4md61f0s1_g0rzfghffqnxvr0000gn/T//ccmevqMd.s:1334   .text._Z25nrf24l01EnableDynamicSizeP14NRF24L01Driver:0000000000000000 _Z25nrf24l01EnableDynamicSizeP14NRF24L01Driver
ARM GAS  /var/folders/m4/4md61f0s1_g0rzfghffqnxvr0000gn/T//ccmevqMd.s 			page 268


/var/folders/m4/4md61f0s1_g0rzfghffqnxvr0000gn/T//ccmevqMd.s:1412   .text._Z15nrf24l01FlushRXP14NRF24L01Driver:0000000000000000 $t
/var/folders/m4/4md61f0s1_g0rzfghffqnxvr0000gn/T//ccmevqMd.s:1418   .text._Z15nrf24l01FlushRXP14NRF24L01Driver:0000000000000000 _Z15nrf24l01FlushRXP14NRF24L01Driver
/var/folders/m4/4md61f0s1_g0rzfghffqnxvr0000gn/T//ccmevqMd.s:1470   .text._Z15nrf24l01FlushTXP14NRF24L01Driver:0000000000000000 $t
/var/folders/m4/4md61f0s1_g0rzfghffqnxvr0000gn/T//ccmevqMd.s:1476   .text._Z15nrf24l01FlushTXP14NRF24L01Driver:0000000000000000 _Z15nrf24l01FlushTXP14NRF24L01Driver
/var/folders/m4/4md61f0s1_g0rzfghffqnxvr0000gn/T//ccmevqMd.s:1528   .text._Z12initNRF24L01v:0000000000000000 $t
/var/folders/m4/4md61f0s1_g0rzfghffqnxvr0000gn/T//ccmevqMd.s:1534   .text._Z12initNRF24L01v:0000000000000000 _Z12initNRF24L01v
/var/folders/m4/4md61f0s1_g0rzfghffqnxvr0000gn/T//ccmevqMd.s:1723   .text._Z12initNRF24L01v:00000000000000c0 $d
/var/folders/m4/4md61f0s1_g0rzfghffqnxvr0000gn/T//ccmevqMd.s:1739   .text._Z15nrf24l01GetSizeP14NRF24L01Driver:0000000000000000 $t
/var/folders/m4/4md61f0s1_g0rzfghffqnxvr0000gn/T//ccmevqMd.s:1745   .text._Z15nrf24l01GetSizeP14NRF24L01Driver:0000000000000000 _Z15nrf24l01GetSizeP14NRF24L01Driver
/var/folders/m4/4md61f0s1_g0rzfghffqnxvr0000gn/T//ccmevqMd.s:1804   .text._Z15nrf24l01EnterRXP14NRF24L01Driver:0000000000000000 $t
/var/folders/m4/4md61f0s1_g0rzfghffqnxvr0000gn/T//ccmevqMd.s:1810   .text._Z15nrf24l01EnterRXP14NRF24L01Driver:0000000000000000 _Z15nrf24l01EnterRXP14NRF24L01Driver
/var/folders/m4/4md61f0s1_g0rzfghffqnxvr0000gn/T//ccmevqMd.s:1863   .text._ZL5readtPvPhjm:0000000000000000 $t
/var/folders/m4/4md61f0s1_g0rzfghffqnxvr0000gn/T//ccmevqMd.s:1868   .text._ZL5readtPvPhjm:0000000000000000 _ZL5readtPvPhjm
/var/folders/m4/4md61f0s1_g0rzfghffqnxvr0000gn/T//ccmevqMd.s:2429   .text._ZL4gettPvm:0000000000000000 $t
/var/folders/m4/4md61f0s1_g0rzfghffqnxvr0000gn/T//ccmevqMd.s:2434   .text._ZL4gettPvm:0000000000000000 _ZL4gettPvm
/var/folders/m4/4md61f0s1_g0rzfghffqnxvr0000gn/T//ccmevqMd.s:2551   .text._ZL3getPv:0000000000000000 $t
/var/folders/m4/4md61f0s1_g0rzfghffqnxvr0000gn/T//ccmevqMd.s:2556   .text._ZL3getPv:0000000000000000 _ZL3getPv
/var/folders/m4/4md61f0s1_g0rzfghffqnxvr0000gn/T//ccmevqMd.s:2572   .text._ZL4readPvPhj:0000000000000000 $t
/var/folders/m4/4md61f0s1_g0rzfghffqnxvr0000gn/T//ccmevqMd.s:2577   .text._ZL4readPvPhj:0000000000000000 _ZL4readPvPhj
/var/folders/m4/4md61f0s1_g0rzfghffqnxvr0000gn/T//ccmevqMd.s:2593   .text._Z15nrf24l01EnterTXP14NRF24L01Driver:0000000000000000 $t
/var/folders/m4/4md61f0s1_g0rzfghffqnxvr0000gn/T//ccmevqMd.s:2599   .text._Z15nrf24l01EnterTXP14NRF24L01Driver:0000000000000000 _Z15nrf24l01EnterTXP14NRF24L01Driver
/var/folders/m4/4md61f0s1_g0rzfghffqnxvr0000gn/T//ccmevqMd.s:2650   .text._ZL6writetPvPKhjm:0000000000000000 $t
/var/folders/m4/4md61f0s1_g0rzfghffqnxvr0000gn/T//ccmevqMd.s:2655   .text._ZL6writetPvPKhjm:0000000000000000 _ZL6writetPvPKhjm
/var/folders/m4/4md61f0s1_g0rzfghffqnxvr0000gn/T//ccmevqMd.s:2905   .text._ZL4puttPvhm:0000000000000000 $t
/var/folders/m4/4md61f0s1_g0rzfghffqnxvr0000gn/T//ccmevqMd.s:2910   .text._ZL4puttPvhm:0000000000000000 _ZL4puttPvhm
/var/folders/m4/4md61f0s1_g0rzfghffqnxvr0000gn/T//ccmevqMd.s:2946   .text._ZL3putPvh:0000000000000000 $t
/var/folders/m4/4md61f0s1_g0rzfghffqnxvr0000gn/T//ccmevqMd.s:2951   .text._ZL3putPvh:0000000000000000 _ZL3putPvh
/var/folders/m4/4md61f0s1_g0rzfghffqnxvr0000gn/T//ccmevqMd.s:2990   .text._ZL5writePvPKhj:0000000000000000 $t
/var/folders/m4/4md61f0s1_g0rzfghffqnxvr0000gn/T//ccmevqMd.s:2995   .text._ZL5writePvPKhj:0000000000000000 _ZL5writePvPKhj
/var/folders/m4/4md61f0s1_g0rzfghffqnxvr0000gn/T//ccmevqMd.s:3011   .text._Z20nrf24l01EnterStandbyP14NRF24L01Driver:0000000000000000 $t
/var/folders/m4/4md61f0s1_g0rzfghffqnxvr0000gn/T//ccmevqMd.s:3017   .text._Z20nrf24l01EnterStandbyP14NRF24L01Driver:0000000000000000 _Z20nrf24l01EnterStandbyP14NRF24L01Driver
/var/folders/m4/4md61f0s1_g0rzfghffqnxvr0000gn/T//ccmevqMd.s:3038   .text._Z19nrf24l01EnablePipesP14NRF24L01Driverh:0000000000000000 $t
/var/folders/m4/4md61f0s1_g0rzfghffqnxvr0000gn/T//ccmevqMd.s:3044   .text._Z19nrf24l01EnablePipesP14NRF24L01Driverh:0000000000000000 _Z19nrf24l01EnablePipesP14NRF24L01Driverh
/var/folders/m4/4md61f0s1_g0rzfghffqnxvr0000gn/T//ccmevqMd.s:3096   .text._Z14nrf24l01ExtIRQP14NRF24L01Driver:0000000000000000 $t
/var/folders/m4/4md61f0s1_g0rzfghffqnxvr0000gn/T//ccmevqMd.s:3102   .text._Z14nrf24l01ExtIRQP14NRF24L01Driver:0000000000000000 _Z14nrf24l01ExtIRQP14NRF24L01Driver
/var/folders/m4/4md61f0s1_g0rzfghffqnxvr0000gn/T//ccmevqMd.s:3250   .bss.nrf24l01:0000000000000000 nrf24l01
/var/folders/m4/4md61f0s1_g0rzfghffqnxvr0000gn/T//ccmevqMd.s:3157   .rodata:0000000000000000 $d
/var/folders/m4/4md61f0s1_g0rzfghffqnxvr0000gn/T//ccmevqMd.s:3163   .rodata._ZL4addr:0000000000000000 $d
/var/folders/m4/4md61f0s1_g0rzfghffqnxvr0000gn/T//ccmevqMd.s:3167   .rodata._ZL4addr:0000000000000000 _ZL4addr
/var/folders/m4/4md61f0s1_g0rzfghffqnxvr0000gn/T//ccmevqMd.s:3170   .rodata._ZL6extcfg:0000000000000000 $d
/var/folders/m4/4md61f0s1_g0rzfghffqnxvr0000gn/T//ccmevqMd.s:3174   .rodata._ZL6extcfg:0000000000000000 _ZL6extcfg
/var/folders/m4/4md61f0s1_g0rzfghffqnxvr0000gn/T//ccmevqMd.s:3222   .rodata._ZL14nrf24l01Config:0000000000000000 $d
/var/folders/m4/4md61f0s1_g0rzfghffqnxvr0000gn/T//ccmevqMd.s:3226   .rodata._ZL14nrf24l01Config:0000000000000000 _ZL14nrf24l01Config
/var/folders/m4/4md61f0s1_g0rzfghffqnxvr0000gn/T//ccmevqMd.s:3232   .rodata._ZL3vmt:0000000000000000 $d
/var/folders/m4/4md61f0s1_g0rzfghffqnxvr0000gn/T//ccmevqMd.s:3236   .rodata._ZL3vmt:0000000000000000 _ZL3vmt
/var/folders/m4/4md61f0s1_g0rzfghffqnxvr0000gn/T//ccmevqMd.s:3246   .bss.nrf24l01:0000000000000000 $d
/var/folders/m4/4md61f0s1_g0rzfghffqnxvr0000gn/T//ccmevqMd.s:3253   .rodata._ZL11nrf24l01SPI:0000000000000000 $d
/var/folders/m4/4md61f0s1_g0rzfghffqnxvr0000gn/T//ccmevqMd.s:3257   .rodata._ZL11nrf24l01SPI:0000000000000000 _ZL11nrf24l01SPI
                     .debug_frame:0000000000000010 $d

UNDEFINED SYMBOLS
chEvtBroadcastFlagsI
spiSelect
spiExchange
spiReceive
spiUnselect
spiSend
ARM GAS  /var/folders/m4/4md61f0s1_g0rzfghffqnxvr0000gn/T//ccmevqMd.s 			page 269


_pal_lld_setgroupmode
spiStart
extStart
extChannelEnable
SPID1
EXTD1
chEvtRegisterMaskWithFlags
chEvtUnregister
chEvtBroadcastFlags
chEvtWaitOneTimeout
