ARM GAS  /var/folders/m4/4md61f0s1_g0rzfghffqnxvr0000gn/T//ccmevqMd.s 			page 1


   1              		.syntax unified
   2              		.cpu cortex-m4
   3              		.eabi_attribute 27, 1
   4              		.eabi_attribute 28, 1
   5              		.fpu fpv4-sp-d16
   6              		.eabi_attribute 20, 1
   7              		.eabi_attribute 21, 1
   8              		.eabi_attribute 23, 3
   9              		.eabi_attribute 24, 1
  10              		.eabi_attribute 25, 1
  11              		.eabi_attribute 26, 1
  12              		.eabi_attribute 30, 2
  13              		.eabi_attribute 34, 1
  14              		.eabi_attribute 18, 4
  15              		.thumb
  16              		.file	"nrf24l01.cpp"
  17              		.text
  18              	.Ltext0:
  19              		.cfi_sections	.debug_frame
  20              		.section	.text._ZL14nrfExtCallbackP9EXTDriverm,"ax",%progbits
  21              		.align	2
  22              		.p2align 4,,15
  23              		.thumb
  24              		.thumb_func
  25              		.type	_ZL14nrfExtCallbackP9EXTDriverm, %function
  26              	_ZL14nrfExtCallbackP9EXTDriverm:
  27              	.LFB268:
  28              		.file 1 "nrf24l01.cpp"
  29              		.loc 1 25 0
  30              		.cfi_startproc
  31              		@ args = 0, pretend = 0, frame = 0
  32              		@ frame_needed = 0, uses_anonymous_args = 0
  33              	.LVL0:
  34 0000 08B5     		push	{r3, lr}
  35              		.cfi_def_cfa_offset 8
  36              		.cfi_offset 3, -8
  37              		.cfi_offset 14, -4
  38              	.LBB129:
  39              	.LBB130:
  40              	.LBB131:
  41              	.LBB132:
  42              	.LBB133:
  43              	.LBB134:
  44              	.LBB135:
  45              		.file 2 "ChibiOS_16.1.4/os/ext/CMSIS/include/core_cmFunc.h"
  46              		.loc 2 548 0
  47 0002 2023     		movs	r3, #32
  48              	@ 548 "ChibiOS_16.1.4/os/ext/CMSIS/include/core_cmFunc.h" 1
  49 0004 83F31188 		MSR basepri, r3
  50              	@ 0 "" 2
  51              		.thumb
  52              	.LBE135:
  53              	.LBE134:
  54              	.LBE133:
  55              	.LBE132:
  56              	.LBE131:
  57              		.loc 1 584 0
ARM GAS  /var/folders/m4/4md61f0s1_g0rzfghffqnxvr0000gn/T//ccmevqMd.s 			page 2


  58 0008 0348     		ldr	r0, .L3
  59              	.LVL1:
  60 000a 0121     		movs	r1, #1
  61              	.LVL2:
  62 000c FFF7FEFF 		bl	chEvtBroadcastFlagsI
  63              	.LVL3:
  64              	.LBB136:
  65              	.LBB137:
  66              	.LBB138:
  67              	.LBB139:
  68              	.LBB140:
  69              		.loc 2 548 0
  70 0010 0023     		movs	r3, #0
  71              	@ 548 "ChibiOS_16.1.4/os/ext/CMSIS/include/core_cmFunc.h" 1
  72 0012 83F31188 		MSR basepri, r3
  73              	@ 0 "" 2
  74              		.thumb
  75 0016 08BD     		pop	{r3, pc}
  76              	.L4:
  77              		.align	2
  78              	.L3:
  79 0018 20010000 		.word	.LANCHOR0+288
  80              	.LBE140:
  81              	.LBE139:
  82              	.LBE138:
  83              	.LBE137:
  84              	.LBE136:
  85              	.LBE130:
  86              	.LBE129:
  87              		.cfi_endproc
  88              	.LFE268:
  89              		.size	_ZL14nrfExtCallbackP9EXTDriverm, .-_ZL14nrfExtCallbackP9EXTDriverm
  90              		.section	.text._Z19nrf24l01ReadPayloadP14NRF24L01DriverhPhS1_.part.2,"ax",%progbits
  91              		.align	2
  92              		.p2align 4,,15
  93              		.thumb
  94              		.thumb_func
  95              		.type	_Z19nrf24l01ReadPayloadP14NRF24L01DriverhPhS1_.part.2, %function
  96              	_Z19nrf24l01ReadPayloadP14NRF24L01DriverhPhS1_.part.2:
  97              	.LFB311:
  98              		.loc 1 479 0
  99              		.cfi_startproc
 100              		@ args = 0, pretend = 0, frame = 8
 101              		@ frame_needed = 0, uses_anonymous_args = 0
 102              	.LVL4:
 103 0000 2DE9F041 		push	{r4, r5, r6, r7, r8, lr}
 104              		.cfi_def_cfa_offset 24
 105              		.cfi_offset 4, -24
 106              		.cfi_offset 5, -20
 107              		.cfi_offset 6, -16
 108              		.cfi_offset 7, -12
 109              		.cfi_offset 8, -8
 110              		.cfi_offset 14, -4
 111 0004 82B0     		sub	sp, sp, #8
 112              		.cfi_def_cfa_offset 32
 113              	.LBB141:
 114              		.loc 1 484 0
ARM GAS  /var/folders/m4/4md61f0s1_g0rzfghffqnxvr0000gn/T//ccmevqMd.s 			page 3


 115 0006 02AD     		add	r5, sp, #8
 116 0008 6126     		movs	r6, #97
 117              	.LBE141:
 118              		.loc 1 479 0
 119 000a 0446     		mov	r4, r0
 120              	.LBB142:
 121              		.loc 1 484 0
 122 000c 05F8026D 		strb	r6, [r5, #-2]!
 123              		.loc 1 487 0
 124 0010 D0F82401 		ldr	r0, [r0, #292]
 125              	.LVL5:
 126 0014 0068     		ldr	r0, [r0]
 127              	.LBE142:
 128              		.loc 1 479 0
 129 0016 8846     		mov	r8, r1
 130 0018 1746     		mov	r7, r2
 131 001a 1E46     		mov	r6, r3
 132              	.LBB143:
 133              		.loc 1 487 0
 134 001c FFF7FEFF 		bl	spiSelect
 135              	.LVL6:
 136              		.loc 1 488 0
 137 0020 D4F82431 		ldr	r3, [r4, #292]
 138 0024 2A46     		mov	r2, r5
 139 0026 1868     		ldr	r0, [r3]
 140 0028 0121     		movs	r1, #1
 141 002a 0DF10703 		add	r3, sp, #7
 142 002e FFF7FEFF 		bl	spiExchange
 143              	.LVL7:
 144              		.loc 1 489 0
 145 0032 D4F82431 		ldr	r3, [r4, #292]
 146 0036 4146     		mov	r1, r8
 147 0038 3A46     		mov	r2, r7
 148 003a 1868     		ldr	r0, [r3]
 149 003c FFF7FEFF 		bl	spiReceive
 150              	.LVL8:
 151              		.loc 1 490 0
 152 0040 D4F82431 		ldr	r3, [r4, #292]
 153 0044 1868     		ldr	r0, [r3]
 154 0046 FFF7FEFF 		bl	spiUnselect
 155              	.LVL9:
 156              		.loc 1 492 0
 157 004a 9DF80730 		ldrb	r3, [sp, #7]	@ zero_extendqisi2
 158 004e C3F34203 		ubfx	r3, r3, #1, #3
 159 0052 3370     		strb	r3, [r6]
 160              	.LBE143:
 161              		.loc 1 493 0
 162 0054 02B0     		add	sp, sp, #8
 163              		.cfi_def_cfa_offset 24
 164              		@ sp needed
 165 0056 BDE8F081 		pop	{r4, r5, r6, r7, r8, pc}
 166              		.cfi_endproc
 167              	.LFE311:
 168              		.size	_Z19nrf24l01ReadPayloadP14NRF24L01DriverhPhS1_.part.2, .-_Z19nrf24l01ReadPayloadP14NRF24L01D
 169 005a 00BF     		.section	.text._Z20nrf24l01WritePayloadP14NRF24L01DriverhPKh.part.3,"ax",%progbits
 170              		.align	2
 171              		.p2align 4,,15
ARM GAS  /var/folders/m4/4md61f0s1_g0rzfghffqnxvr0000gn/T//ccmevqMd.s 			page 4


 172              		.thumb
 173              		.thumb_func
 174              		.type	_Z20nrf24l01WritePayloadP14NRF24L01DriverhPKh.part.3, %function
 175              	_Z20nrf24l01WritePayloadP14NRF24L01DriverhPKh.part.3:
 176              	.LFB312:
 177              		.loc 1 495 0
 178              		.cfi_startproc
 179              		@ args = 0, pretend = 0, frame = 8
 180              		@ frame_needed = 0, uses_anonymous_args = 0
 181              	.LVL10:
 182 0000 F0B5     		push	{r4, r5, r6, r7, lr}
 183              		.cfi_def_cfa_offset 20
 184              		.cfi_offset 4, -20
 185              		.cfi_offset 5, -16
 186              		.cfi_offset 6, -12
 187              		.cfi_offset 7, -8
 188              		.cfi_offset 14, -4
 189 0002 83B0     		sub	sp, sp, #12
 190              		.cfi_def_cfa_offset 32
 191              		.loc 1 495 0
 192 0004 0446     		mov	r4, r0
 193              	.LBB144:
 194              		.loc 1 500 0
 195 0006 02AD     		add	r5, sp, #8
 196 0008 A020     		movs	r0, #160
 197              	.LVL11:
 198              		.loc 1 502 0
 199 000a D4F82431 		ldr	r3, [r4, #292]
 200              		.loc 1 500 0
 201 000e 05F8010D 		strb	r0, [r5, #-1]!
 202              		.loc 1 502 0
 203 0012 1868     		ldr	r0, [r3]
 204              	.LBE144:
 205              		.loc 1 495 0
 206 0014 0F46     		mov	r7, r1
 207 0016 1646     		mov	r6, r2
 208              	.LBB145:
 209              		.loc 1 502 0
 210 0018 FFF7FEFF 		bl	spiSelect
 211              	.LVL12:
 212              		.loc 1 503 0
 213 001c D4F82431 		ldr	r3, [r4, #292]
 214 0020 2A46     		mov	r2, r5
 215 0022 1868     		ldr	r0, [r3]
 216 0024 0121     		movs	r1, #1
 217 0026 FFF7FEFF 		bl	spiSend
 218              	.LVL13:
 219              		.loc 1 504 0
 220 002a D4F82431 		ldr	r3, [r4, #292]
 221 002e 3946     		mov	r1, r7
 222 0030 3246     		mov	r2, r6
 223 0032 1868     		ldr	r0, [r3]
 224 0034 FFF7FEFF 		bl	spiSend
 225              	.LVL14:
 226              		.loc 1 505 0
 227 0038 D4F82431 		ldr	r3, [r4, #292]
 228 003c 1868     		ldr	r0, [r3]
ARM GAS  /var/folders/m4/4md61f0s1_g0rzfghffqnxvr0000gn/T//ccmevqMd.s 			page 5


 229 003e FFF7FEFF 		bl	spiUnselect
 230              	.LVL15:
 231              	.LBE145:
 232              		.loc 1 506 0
 233 0042 03B0     		add	sp, sp, #12
 234              		.cfi_def_cfa_offset 20
 235              		@ sp needed
 236 0044 F0BD     		pop	{r4, r5, r6, r7, pc}
 237              		.cfi_endproc
 238              	.LFE312:
 239              		.size	_Z20nrf24l01WritePayloadP14NRF24L01DriverhPKh.part.3, .-_Z20nrf24l01WritePayloadP14NRF24L01D
 240 0046 00BF     		.section	.text._Z18nrf24l01ObjectInitP14NRF24L01Driver,"ax",%progbits
 241              		.align	2
 242              		.p2align 4,,15
 243              		.global	_Z18nrf24l01ObjectInitP14NRF24L01Driver
 244              		.thumb
 245              		.thumb_func
 246              		.type	_Z18nrf24l01ObjectInitP14NRF24L01Driver, %function
 247              	_Z18nrf24l01ObjectInitP14NRF24L01Driver:
 248              	.LFB278:
 249              		.loc 1 311 0
 250              		.cfi_startproc
 251              		@ args = 0, pretend = 0, frame = 0
 252              		@ frame_needed = 0, uses_anonymous_args = 0
 253              		@ link register save eliminated.
 254              	.LVL16:
 255 0000 10B4     		push	{r4}
 256              		.cfi_def_cfa_offset 4
 257              		.cfi_offset 4, -4
 258 0002 0B4C     		ldr	r4, .L14
 259 0004 00F12C03 		add	r3, r0, #44
 260 0008 00F5A671 		add	r1, r0, #332
 261              	.LBB146:
 262              	.LBB147:
 263              		.loc 1 315 0
 264 000c 0022     		movs	r2, #0
 265              	.LVL17:
 266              	.L10:
 267              		.loc 1 314 0 discriminator 3
 268 000e 43F82C4C 		str	r4, [r3, #-44]
 269              		.loc 1 315 0 discriminator 3
 270 0012 03F8042C 		strb	r2, [r3, #-4]
 271              		.loc 1 316 0 discriminator 3
 272 0016 43F8280C 		str	r0, [r3, #-40]
 273              	.LVL18:
 274              	.LBB148:
 275              	.LBB149:
 276              		.file 3 "ChibiOS_16.1.4/os/rt/include/chevents.h"
 277              		.loc 3 172 0 discriminator 3
 278 001a 1B60     		str	r3, [r3]
 279 001c 3033     		adds	r3, r3, #48
 280              	.LVL19:
 281              	.LBE149:
 282              	.LBE148:
 283              		.loc 1 312 0 discriminator 3
 284 001e 8B42     		cmp	r3, r1
 285 0020 F5D1     		bne	.L10
ARM GAS  /var/folders/m4/4md61f0s1_g0rzfghffqnxvr0000gn/T//ccmevqMd.s 			page 6


 286              	.LVL20:
 287              	.LBE147:
 288              		.loc 1 320 0
 289 0022 00F59073 		add	r3, r0, #288
 290              	.LVL21:
 291              	.LBB150:
 292              	.LBB151:
 293              		.loc 3 172 0
 294 0026 C0F82031 		str	r3, [r0, #288]
 295              	.LBE151:
 296              	.LBE150:
 297              	.LBE146:
 298              		.loc 1 321 0
 299 002a 5DF8044B 		ldr	r4, [sp], #4
 300              		.cfi_restore 4
 301              		.cfi_def_cfa_offset 0
 302 002e 7047     		bx	lr
 303              	.L15:
 304              		.align	2
 305              	.L14:
 306 0030 00000000 		.word	.LANCHOR1
 307              		.cfi_endproc
 308              	.LFE278:
 309              		.size	_Z18nrf24l01ObjectInitP14NRF24L01Driver, .-_Z18nrf24l01ObjectInitP14NRF24L01Driver
 310              		.section	.text._Z13nrf24l01StartP14NRF24L01DriverPK14NRF24L01Config,"ax",%progbits
 311              		.align	2
 312              		.p2align 4,,15
 313              		.global	_Z13nrf24l01StartP14NRF24L01DriverPK14NRF24L01Config
 314              		.thumb
 315              		.thumb_func
 316              		.type	_Z13nrf24l01StartP14NRF24L01DriverPK14NRF24L01Config, %function
 317              	_Z13nrf24l01StartP14NRF24L01DriverPK14NRF24L01Config:
 318              	.LFB279:
 319              		.loc 1 324 0
 320              		.cfi_startproc
 321              		@ args = 0, pretend = 0, frame = 0
 322              		@ frame_needed = 0, uses_anonymous_args = 0
 323              		@ link register save eliminated.
 324              	.LVL22:
 325              		.loc 1 325 0
 326 0000 C0F82411 		str	r1, [r0, #292]
 327 0004 7047     		bx	lr
 328              		.cfi_endproc
 329              	.LFE279:
 330              		.size	_Z13nrf24l01StartP14NRF24L01DriverPK14NRF24L01Config, .-_Z13nrf24l01StartP14NRF24L01DriverPK
 331 0006 00BF     		.section	.text._Z21nrf24l01WriteRegisterP14NRF24L01Driverhh,"ax",%progbits
 332              		.align	2
 333              		.p2align 4,,15
 334              		.global	_Z21nrf24l01WriteRegisterP14NRF24L01Driverhh
 335              		.thumb
 336              		.thumb_func
 337              		.type	_Z21nrf24l01WriteRegisterP14NRF24L01Driverhh, %function
 338              	_Z21nrf24l01WriteRegisterP14NRF24L01Driverhh:
 339              	.LFB280:
 340              		.loc 1 329 0
 341              		.cfi_startproc
 342              		@ args = 0, pretend = 0, frame = 8
ARM GAS  /var/folders/m4/4md61f0s1_g0rzfghffqnxvr0000gn/T//ccmevqMd.s 			page 7


 343              		@ frame_needed = 0, uses_anonymous_args = 0
 344              	.LVL23:
 345 0000 10B5     		push	{r4, lr}
 346              		.cfi_def_cfa_offset 8
 347              		.cfi_offset 4, -8
 348              		.cfi_offset 14, -4
 349              	.LBB152:
 350              		.loc 1 330 0
 351 0002 01F01F01 		and	r1, r1, #31
 352              	.LVL24:
 353              	.LBE152:
 354              		.loc 1 329 0
 355 0006 82B0     		sub	sp, sp, #8
 356              		.cfi_def_cfa_offset 16
 357              	.LBB153:
 358              		.loc 1 330 0
 359 0008 41F02001 		orr	r1, r1, #32
 360              		.loc 1 332 0
 361 000c D0F82431 		ldr	r3, [r0, #292]
 362              		.loc 1 330 0
 363 0010 8DF80410 		strb	r1, [sp, #4]
 364              	.LBE153:
 365              		.loc 1 329 0
 366 0014 0446     		mov	r4, r0
 367              	.LBB154:
 368              		.loc 1 330 0
 369 0016 8DF80520 		strb	r2, [sp, #5]
 370              		.loc 1 332 0
 371 001a 1868     		ldr	r0, [r3]
 372              	.LVL25:
 373 001c FFF7FEFF 		bl	spiSelect
 374              	.LVL26:
 375              		.loc 1 333 0
 376 0020 D4F82431 		ldr	r3, [r4, #292]
 377 0024 0221     		movs	r1, #2
 378 0026 1868     		ldr	r0, [r3]
 379 0028 01AA     		add	r2, sp, #4
 380 002a FFF7FEFF 		bl	spiSend
 381              	.LVL27:
 382              		.loc 1 334 0
 383 002e D4F82431 		ldr	r3, [r4, #292]
 384 0032 1868     		ldr	r0, [r3]
 385 0034 FFF7FEFF 		bl	spiUnselect
 386              	.LVL28:
 387              	.LBE154:
 388              		.loc 1 335 0
 389 0038 02B0     		add	sp, sp, #8
 390              		.cfi_def_cfa_offset 8
 391              		@ sp needed
 392 003a 10BD     		pop	{r4, pc}
 393              		.cfi_endproc
 394              	.LFE280:
 395              		.size	_Z21nrf24l01WriteRegisterP14NRF24L01Driverhh, .-_Z21nrf24l01WriteRegisterP14NRF24L01Driverhh
 396              		.section	.text._Z20nrf24l01ReadRegisterP14NRF24L01Driverh,"ax",%progbits
 397              		.align	2
 398              		.p2align 4,,15
 399              		.global	_Z20nrf24l01ReadRegisterP14NRF24L01Driverh
ARM GAS  /var/folders/m4/4md61f0s1_g0rzfghffqnxvr0000gn/T//ccmevqMd.s 			page 8


 400              		.thumb
 401              		.thumb_func
 402              		.type	_Z20nrf24l01ReadRegisterP14NRF24L01Driverh, %function
 403              	_Z20nrf24l01ReadRegisterP14NRF24L01Driverh:
 404              	.LFB281:
 405              		.loc 1 338 0
 406              		.cfi_startproc
 407              		@ args = 0, pretend = 0, frame = 8
 408              		@ frame_needed = 0, uses_anonymous_args = 0
 409              	.LVL29:
 410 0000 10B5     		push	{r4, lr}
 411              		.cfi_def_cfa_offset 8
 412              		.cfi_offset 4, -8
 413              		.cfi_offset 14, -4
 414 0002 82B0     		sub	sp, sp, #8
 415              		.cfi_def_cfa_offset 16
 416              	.LBB155:
 417              		.loc 1 339 0
 418 0004 0023     		movs	r3, #0
 419 0006 01F01F01 		and	r1, r1, #31
 420              	.LVL30:
 421              		.loc 1 342 0
 422 000a D0F82421 		ldr	r2, [r0, #292]
 423              		.loc 1 339 0
 424 000e ADF80030 		strh	r3, [sp]	@ movhi
 425              	.LBE155:
 426              		.loc 1 338 0
 427 0012 0446     		mov	r4, r0
 428              	.LBB156:
 429              		.loc 1 340 0
 430 0014 8DF80430 		strb	r3, [sp, #4]
 431              		.loc 1 339 0
 432 0018 8DF80010 		strb	r1, [sp]
 433              		.loc 1 340 0
 434 001c 8DF80530 		strb	r3, [sp, #5]
 435              		.loc 1 342 0
 436 0020 1068     		ldr	r0, [r2]
 437              	.LVL31:
 438 0022 FFF7FEFF 		bl	spiSelect
 439              	.LVL32:
 440              		.loc 1 343 0
 441 0026 D4F82431 		ldr	r3, [r4, #292]
 442 002a 0221     		movs	r1, #2
 443 002c 1868     		ldr	r0, [r3]
 444 002e 6A46     		mov	r2, sp
 445 0030 01AB     		add	r3, sp, #4
 446 0032 FFF7FEFF 		bl	spiExchange
 447              	.LVL33:
 448              		.loc 1 344 0
 449 0036 D4F82431 		ldr	r3, [r4, #292]
 450 003a 1868     		ldr	r0, [r3]
 451 003c FFF7FEFF 		bl	spiUnselect
 452              	.LVL34:
 453              	.LBE156:
 454              		.loc 1 347 0
 455 0040 9DF80500 		ldrb	r0, [sp, #5]	@ zero_extendqisi2
 456 0044 02B0     		add	sp, sp, #8
ARM GAS  /var/folders/m4/4md61f0s1_g0rzfghffqnxvr0000gn/T//ccmevqMd.s 			page 9


 457              		.cfi_def_cfa_offset 8
 458              		@ sp needed
 459 0046 10BD     		pop	{r4, pc}
 460              		.cfi_endproc
 461              	.LFE281:
 462              		.size	_Z20nrf24l01ReadRegisterP14NRF24L01Driverh, .-_Z20nrf24l01ReadRegisterP14NRF24L01Driverh
 463              		.section	.text._Z28nrf24l01WriteAddressRegisterP14NRF24L01DriverhPKh,"ax",%progbits
 464              		.align	2
 465              		.p2align 4,,15
 466              		.global	_Z28nrf24l01WriteAddressRegisterP14NRF24L01DriverhPKh
 467              		.thumb
 468              		.thumb_func
 469              		.type	_Z28nrf24l01WriteAddressRegisterP14NRF24L01DriverhPKh, %function
 470              	_Z28nrf24l01WriteAddressRegisterP14NRF24L01DriverhPKh:
 471              	.LFB282:
 472              		.loc 1 350 0
 473              		.cfi_startproc
 474              		@ args = 0, pretend = 0, frame = 8
 475              		@ frame_needed = 0, uses_anonymous_args = 0
 476              	.LVL35:
 477 0000 70B5     		push	{r4, r5, r6, lr}
 478              		.cfi_def_cfa_offset 16
 479              		.cfi_offset 4, -16
 480              		.cfi_offset 5, -12
 481              		.cfi_offset 6, -8
 482              		.cfi_offset 14, -4
 483 0002 82B0     		sub	sp, sp, #8
 484              		.cfi_def_cfa_offset 24
 485              	.LBB157:
 486              		.loc 1 351 0
 487 0004 02AD     		add	r5, sp, #8
 488 0006 01F01F01 		and	r1, r1, #31
 489              	.LVL36:
 490 000a 41F02001 		orr	r1, r1, #32
 491 000e 05F8011D 		strb	r1, [r5, #-1]!
 492              		.loc 1 353 0
 493 0012 D0F82431 		ldr	r3, [r0, #292]
 494              	.LBE157:
 495              		.loc 1 350 0
 496 0016 0446     		mov	r4, r0
 497              	.LBB158:
 498              		.loc 1 353 0
 499 0018 1868     		ldr	r0, [r3]
 500              	.LVL37:
 501              	.LBE158:
 502              		.loc 1 350 0
 503 001a 1646     		mov	r6, r2
 504              	.LBB159:
 505              		.loc 1 353 0
 506 001c FFF7FEFF 		bl	spiSelect
 507              	.LVL38:
 508              		.loc 1 354 0
 509 0020 D4F82431 		ldr	r3, [r4, #292]
 510 0024 2A46     		mov	r2, r5
 511 0026 1868     		ldr	r0, [r3]
 512 0028 0121     		movs	r1, #1
 513 002a FFF7FEFF 		bl	spiSend
ARM GAS  /var/folders/m4/4md61f0s1_g0rzfghffqnxvr0000gn/T//ccmevqMd.s 			page 10


 514              	.LVL39:
 515              		.loc 1 355 0
 516 002e D4F82431 		ldr	r3, [r4, #292]
 517 0032 3246     		mov	r2, r6
 518 0034 1868     		ldr	r0, [r3]
 519 0036 0521     		movs	r1, #5
 520 0038 FFF7FEFF 		bl	spiSend
 521              	.LVL40:
 522              		.loc 1 356 0
 523 003c D4F82431 		ldr	r3, [r4, #292]
 524 0040 1868     		ldr	r0, [r3]
 525 0042 FFF7FEFF 		bl	spiUnselect
 526              	.LVL41:
 527              	.LBE159:
 528              		.loc 1 357 0
 529 0046 02B0     		add	sp, sp, #8
 530              		.cfi_def_cfa_offset 16
 531              		@ sp needed
 532 0048 70BD     		pop	{r4, r5, r6, pc}
 533              		.cfi_endproc
 534              	.LFE282:
 535              		.size	_Z28nrf24l01WriteAddressRegisterP14NRF24L01DriverhPKh, .-_Z28nrf24l01WriteAddressRegisterP14
 536 004a 00BF     		.section	.text._Z27nrf24l01ReadAddressRegisterP14NRF24L01DriverhPh,"ax",%progbits
 537              		.align	2
 538              		.p2align 4,,15
 539              		.global	_Z27nrf24l01ReadAddressRegisterP14NRF24L01DriverhPh
 540              		.thumb
 541              		.thumb_func
 542              		.type	_Z27nrf24l01ReadAddressRegisterP14NRF24L01DriverhPh, %function
 543              	_Z27nrf24l01ReadAddressRegisterP14NRF24L01DriverhPh:
 544              	.LFB283:
 545              		.loc 1 360 0
 546              		.cfi_startproc
 547              		@ args = 0, pretend = 0, frame = 8
 548              		@ frame_needed = 0, uses_anonymous_args = 0
 549              	.LVL42:
 550 0000 70B5     		push	{r4, r5, r6, lr}
 551              		.cfi_def_cfa_offset 16
 552              		.cfi_offset 4, -16
 553              		.cfi_offset 5, -12
 554              		.cfi_offset 6, -8
 555              		.cfi_offset 14, -4
 556 0002 82B0     		sub	sp, sp, #8
 557              		.cfi_def_cfa_offset 24
 558              	.LBB160:
 559              		.loc 1 361 0
 560 0004 02AD     		add	r5, sp, #8
 561 0006 01F01F01 		and	r1, r1, #31
 562              	.LVL43:
 563 000a 05F8011D 		strb	r1, [r5, #-1]!
 564              		.loc 1 363 0
 565 000e D0F82431 		ldr	r3, [r0, #292]
 566              	.LBE160:
 567              		.loc 1 360 0
 568 0012 0446     		mov	r4, r0
 569              	.LBB161:
 570              		.loc 1 363 0
ARM GAS  /var/folders/m4/4md61f0s1_g0rzfghffqnxvr0000gn/T//ccmevqMd.s 			page 11


 571 0014 1868     		ldr	r0, [r3]
 572              	.LVL44:
 573              	.LBE161:
 574              		.loc 1 360 0
 575 0016 1646     		mov	r6, r2
 576              	.LBB162:
 577              		.loc 1 363 0
 578 0018 FFF7FEFF 		bl	spiSelect
 579              	.LVL45:
 580              		.loc 1 364 0
 581 001c D4F82431 		ldr	r3, [r4, #292]
 582 0020 2A46     		mov	r2, r5
 583 0022 1868     		ldr	r0, [r3]
 584 0024 0121     		movs	r1, #1
 585 0026 FFF7FEFF 		bl	spiSend
 586              	.LVL46:
 587              		.loc 1 365 0
 588 002a D4F82431 		ldr	r3, [r4, #292]
 589 002e 3246     		mov	r2, r6
 590 0030 1868     		ldr	r0, [r3]
 591 0032 0521     		movs	r1, #5
 592 0034 FFF7FEFF 		bl	spiReceive
 593              	.LVL47:
 594              		.loc 1 366 0
 595 0038 D4F82431 		ldr	r3, [r4, #292]
 596 003c 1868     		ldr	r0, [r3]
 597 003e FFF7FEFF 		bl	spiUnselect
 598              	.LVL48:
 599              	.LBE162:
 600              		.loc 1 367 0
 601 0042 02B0     		add	sp, sp, #8
 602              		.cfi_def_cfa_offset 16
 603              		@ sp needed
 604 0044 70BD     		pop	{r4, r5, r6, pc}
 605              		.cfi_endproc
 606              	.LFE283:
 607              		.size	_Z27nrf24l01ReadAddressRegisterP14NRF24L01DriverhPh, .-_Z27nrf24l01ReadAddressRegisterP14NRF
 608 0046 00BF     		.section	.text._Z17nrf24l01GetStatusP14NRF24L01Driver,"ax",%progbits
 609              		.align	2
 610              		.p2align 4,,15
 611              		.global	_Z17nrf24l01GetStatusP14NRF24L01Driver
 612              		.thumb
 613              		.thumb_func
 614              		.type	_Z17nrf24l01GetStatusP14NRF24L01Driver, %function
 615              	_Z17nrf24l01GetStatusP14NRF24L01Driver:
 616              	.LFB284:
 617              		.loc 1 370 0
 618              		.cfi_startproc
 619              		@ args = 0, pretend = 0, frame = 8
 620              		@ frame_needed = 0, uses_anonymous_args = 0
 621              	.LVL49:
 622 0000 30B5     		push	{r4, r5, lr}
 623              		.cfi_def_cfa_offset 12
 624              		.cfi_offset 4, -12
 625              		.cfi_offset 5, -8
 626              		.cfi_offset 14, -4
 627 0002 83B0     		sub	sp, sp, #12
ARM GAS  /var/folders/m4/4md61f0s1_g0rzfghffqnxvr0000gn/T//ccmevqMd.s 			page 12


 628              		.cfi_def_cfa_offset 24
 629              	.LBB163:
 630              		.loc 1 371 0
 631 0004 02AD     		add	r5, sp, #8
 632 0006 FF22     		movs	r2, #255
 633 0008 05F8022D 		strb	r2, [r5, #-2]!
 634              		.loc 1 374 0
 635 000c D0F82431 		ldr	r3, [r0, #292]
 636              	.LBE163:
 637              		.loc 1 370 0
 638 0010 0446     		mov	r4, r0
 639              	.LBB164:
 640              		.loc 1 374 0
 641 0012 1868     		ldr	r0, [r3]
 642              	.LVL50:
 643 0014 FFF7FEFF 		bl	spiSelect
 644              	.LVL51:
 645              		.loc 1 375 0
 646 0018 D4F82431 		ldr	r3, [r4, #292]
 647 001c 2A46     		mov	r2, r5
 648 001e 1868     		ldr	r0, [r3]
 649 0020 0121     		movs	r1, #1
 650 0022 0DF10703 		add	r3, sp, #7
 651 0026 FFF7FEFF 		bl	spiExchange
 652              	.LVL52:
 653              		.loc 1 376 0
 654 002a D4F82431 		ldr	r3, [r4, #292]
 655 002e 1868     		ldr	r0, [r3]
 656 0030 FFF7FEFF 		bl	spiUnselect
 657              	.LVL53:
 658              	.LBE164:
 659              		.loc 1 379 0
 660 0034 9DF80700 		ldrb	r0, [sp, #7]	@ zero_extendqisi2
 661 0038 03B0     		add	sp, sp, #12
 662              		.cfi_def_cfa_offset 12
 663              		@ sp needed
 664 003a 30BD     		pop	{r4, r5, pc}
 665              		.cfi_endproc
 666              	.LFE284:
 667              		.size	_Z17nrf24l01GetStatusP14NRF24L01Driver, .-_Z17nrf24l01GetStatusP14NRF24L01Driver
 668              		.section	.text._Z15nrf24l01PowerUpP14NRF24L01Driver,"ax",%progbits
 669              		.align	2
 670              		.p2align 4,,15
 671              		.global	_Z15nrf24l01PowerUpP14NRF24L01Driver
 672              		.thumb
 673              		.thumb_func
 674              		.type	_Z15nrf24l01PowerUpP14NRF24L01Driver, %function
 675              	_Z15nrf24l01PowerUpP14NRF24L01Driver:
 676              	.LFB285:
 677              		.loc 1 382 0
 678              		.cfi_startproc
 679              		@ args = 0, pretend = 0, frame = 0
 680              		@ frame_needed = 0, uses_anonymous_args = 0
 681              	.LVL54:
 682 0000 10B5     		push	{r4, lr}
 683              		.cfi_def_cfa_offset 8
 684              		.cfi_offset 4, -8
ARM GAS  /var/folders/m4/4md61f0s1_g0rzfghffqnxvr0000gn/T//ccmevqMd.s 			page 13


 685              		.cfi_offset 14, -4
 686              	.LBB165:
 687              		.loc 1 383 0
 688 0002 0021     		movs	r1, #0
 689              	.LBE165:
 690              		.loc 1 382 0
 691 0004 0446     		mov	r4, r0
 692              	.LBB166:
 693              		.loc 1 383 0
 694 0006 FFF7FEFF 		bl	_Z20nrf24l01ReadRegisterP14NRF24L01Driverh
 695              	.LVL55:
 696              		.loc 1 384 0
 697 000a 40F00202 		orr	r2, r0, #2
 698              		.loc 1 385 0
 699 000e D2B2     		uxtb	r2, r2
 700 0010 2046     		mov	r0, r4
 701              	.LVL56:
 702 0012 0021     		movs	r1, #0
 703              	.LBE166:
 704              		.loc 1 386 0
 705 0014 BDE81040 		pop	{r4, lr}
 706              		.cfi_restore 14
 707              		.cfi_restore 4
 708              		.cfi_def_cfa_offset 0
 709              	.LVL57:
 710              	.LBB167:
 711              		.loc 1 385 0
 712 0018 FFF7FEBF 		b	_Z21nrf24l01WriteRegisterP14NRF24L01Driverhh
 713              	.LVL58:
 714              	.LBE167:
 715              		.cfi_endproc
 716              	.LFE285:
 717              		.size	_Z15nrf24l01PowerUpP14NRF24L01Driver, .-_Z15nrf24l01PowerUpP14NRF24L01Driver
 718              		.section	.text._Z17nrf24l01PowerDownP14NRF24L01Driver,"ax",%progbits
 719              		.align	2
 720              		.p2align 4,,15
 721              		.global	_Z17nrf24l01PowerDownP14NRF24L01Driver
 722              		.thumb
 723              		.thumb_func
 724              		.type	_Z17nrf24l01PowerDownP14NRF24L01Driver, %function
 725              	_Z17nrf24l01PowerDownP14NRF24L01Driver:
 726              	.LFB286:
 727              		.loc 1 389 0
 728              		.cfi_startproc
 729              		@ args = 0, pretend = 0, frame = 0
 730              		@ frame_needed = 0, uses_anonymous_args = 0
 731              	.LVL59:
 732 0000 10B5     		push	{r4, lr}
 733              		.cfi_def_cfa_offset 8
 734              		.cfi_offset 4, -8
 735              		.cfi_offset 14, -4
 736              	.LBB168:
 737              		.loc 1 390 0
 738 0002 0021     		movs	r1, #0
 739              	.LBE168:
 740              		.loc 1 389 0
 741 0004 0446     		mov	r4, r0
ARM GAS  /var/folders/m4/4md61f0s1_g0rzfghffqnxvr0000gn/T//ccmevqMd.s 			page 14


 742              	.LBB169:
 743              		.loc 1 390 0
 744 0006 FFF7FEFF 		bl	_Z20nrf24l01ReadRegisterP14NRF24L01Driverh
 745              	.LVL60:
 746              		.loc 1 392 0
 747 000a 0021     		movs	r1, #0
 748 000c 00F0FD02 		and	r2, r0, #253
 749 0010 2046     		mov	r0, r4
 750              	.LVL61:
 751              	.LBE169:
 752              		.loc 1 393 0
 753 0012 BDE81040 		pop	{r4, lr}
 754              		.cfi_restore 14
 755              		.cfi_restore 4
 756              		.cfi_def_cfa_offset 0
 757              	.LVL62:
 758              	.LBB170:
 759              		.loc 1 392 0
 760 0016 FFF7FEBF 		b	_Z21nrf24l01WriteRegisterP14NRF24L01Driverhh
 761              	.LVL63:
 762              	.LBE170:
 763              		.cfi_endproc
 764              	.LFE286:
 765              		.size	_Z17nrf24l01PowerDownP14NRF24L01Driver, .-_Z17nrf24l01PowerDownP14NRF24L01Driver
 766 001a 00BF     		.section	.text._Z23nrf24l01SetupRetransmitP14NRF24L01Driverhh,"ax",%progbits
 767              		.align	2
 768              		.p2align 4,,15
 769              		.global	_Z23nrf24l01SetupRetransmitP14NRF24L01Driverhh
 770              		.thumb
 771              		.thumb_func
 772              		.type	_Z23nrf24l01SetupRetransmitP14NRF24L01Driverhh, %function
 773              	_Z23nrf24l01SetupRetransmitP14NRF24L01Driverhh:
 774              	.LFB287:
 775              		.loc 1 396 0
 776              		.cfi_startproc
 777              		@ args = 0, pretend = 0, frame = 0
 778              		@ frame_needed = 0, uses_anonymous_args = 0
 779              		@ link register save eliminated.
 780              	.LVL64:
 781              	.LBB171:
 782              		.loc 1 397 0
 783 0000 02F00F02 		and	r2, r2, #15
 784              	.LVL65:
 785 0004 42EA0112 		orr	r2, r2, r1, lsl #4
 786              		.loc 1 398 0
 787 0008 D2B2     		uxtb	r2, r2
 788 000a 0421     		movs	r1, #4
 789              	.LVL66:
 790 000c FFF7FEBF 		b	_Z21nrf24l01WriteRegisterP14NRF24L01Driverhh
 791              	.LVL67:
 792              	.LBE171:
 793              		.cfi_endproc
 794              	.LFE287:
 795              		.size	_Z23nrf24l01SetupRetransmitP14NRF24L01Driverhh, .-_Z23nrf24l01SetupRetransmitP14NRF24L01Driv
 796              		.section	.text._Z18nrf24l01SetChannelP14NRF24L01Driverh,"ax",%progbits
 797              		.align	2
 798              		.p2align 4,,15
ARM GAS  /var/folders/m4/4md61f0s1_g0rzfghffqnxvr0000gn/T//ccmevqMd.s 			page 15


 799              		.global	_Z18nrf24l01SetChannelP14NRF24L01Driverh
 800              		.thumb
 801              		.thumb_func
 802              		.type	_Z18nrf24l01SetChannelP14NRF24L01Driverh, %function
 803              	_Z18nrf24l01SetChannelP14NRF24L01Driverh:
 804              	.LFB288:
 805              		.loc 1 402 0
 806              		.cfi_startproc
 807              		@ args = 0, pretend = 0, frame = 0
 808              		@ frame_needed = 0, uses_anonymous_args = 0
 809              		@ link register save eliminated.
 810              	.LVL68:
 811              	.LBB172:
 812              		.loc 1 404 0
 813 0000 01F07F02 		and	r2, r1, #127
 814 0004 0521     		movs	r1, #5
 815              	.LVL69:
 816 0006 FFF7FEBF 		b	_Z21nrf24l01WriteRegisterP14NRF24L01Driverhh
 817              	.LVL70:
 818              	.LBE172:
 819              		.cfi_endproc
 820              	.LFE288:
 821              		.size	_Z18nrf24l01SetChannelP14NRF24L01Driverh, .-_Z18nrf24l01SetChannelP14NRF24L01Driverh
 822 000a 00BF     		.section	.text._Z16nrf24l01ClearIRQP14NRF24L01Driverh,"ax",%progbits
 823              		.align	2
 824              		.p2align 4,,15
 825              		.global	_Z16nrf24l01ClearIRQP14NRF24L01Driverh
 826              		.thumb
 827              		.thumb_func
 828              		.type	_Z16nrf24l01ClearIRQP14NRF24L01Driverh, %function
 829              	_Z16nrf24l01ClearIRQP14NRF24L01Driverh:
 830              	.LFB289:
 831              		.loc 1 408 0
 832              		.cfi_startproc
 833              		@ args = 0, pretend = 0, frame = 0
 834              		@ frame_needed = 0, uses_anonymous_args = 0
 835              		@ link register save eliminated.
 836              	.LVL71:
 837              		.loc 1 409 0
 838 0000 01F07002 		and	r2, r1, #112
 839 0004 0721     		movs	r1, #7
 840              	.LVL72:
 841 0006 FFF7FEBF 		b	_Z21nrf24l01WriteRegisterP14NRF24L01Driverhh
 842              	.LVL73:
 843              		.cfi_endproc
 844              	.LFE289:
 845              		.size	_Z16nrf24l01ClearIRQP14NRF24L01Driverh, .-_Z16nrf24l01ClearIRQP14NRF24L01Driverh
 846 000a 00BF     		.section	.text._Z20nrf24l01SetRXAddressP14NRF24L01DriverhPKh,"ax",%progbits
 847              		.align	2
 848              		.p2align 4,,15
 849              		.global	_Z20nrf24l01SetRXAddressP14NRF24L01DriverhPKh
 850              		.thumb
 851              		.thumb_func
 852              		.type	_Z20nrf24l01SetRXAddressP14NRF24L01DriverhPKh, %function
 853              	_Z20nrf24l01SetRXAddressP14NRF24L01DriverhPKh:
 854              	.LFB290:
 855              		.loc 1 413 0
ARM GAS  /var/folders/m4/4md61f0s1_g0rzfghffqnxvr0000gn/T//ccmevqMd.s 			page 16


 856              		.cfi_startproc
 857              		@ args = 0, pretend = 0, frame = 0
 858              		@ frame_needed = 0, uses_anonymous_args = 0
 859              	.LVL74:
 860 0000 70B5     		push	{r4, r5, r6, lr}
 861              		.cfi_def_cfa_offset 16
 862              		.cfi_offset 4, -16
 863              		.cfi_offset 5, -12
 864              		.cfi_offset 6, -8
 865              		.cfi_offset 14, -4
 866              		.loc 1 413 0
 867 0002 0C46     		mov	r4, r1
 868 0004 1546     		mov	r5, r2
 869              		.loc 1 414 0
 870 0006 0321     		movs	r1, #3
 871              	.LVL75:
 872 0008 8022     		movs	r2, #128
 873              	.LVL76:
 874              		.loc 1 413 0
 875 000a 0646     		mov	r6, r0
 876              		.loc 1 414 0
 877 000c FFF7FEFF 		bl	_Z21nrf24l01WriteRegisterP14NRF24L01Driverhh
 878              	.LVL77:
 879              		.loc 1 415 0
 880 0010 012C     		cmp	r4, #1
 881 0012 0CD9     		bls	.L38
 882              		.loc 1 417 0
 883 0014 E31E     		subs	r3, r4, #3
 884 0016 022B     		cmp	r3, #2
 885 0018 00D9     		bls	.L39
 886 001a 70BD     		pop	{r4, r5, r6, pc}
 887              	.LVL78:
 888              	.L39:
 889              	.LBB175:
 890              	.LBB176:
 891              		.loc 1 418 0
 892 001c 04F10A01 		add	r1, r4, #10
 893 0020 3046     		mov	r0, r6
 894 0022 2A78     		ldrb	r2, [r5]	@ zero_extendqisi2
 895 0024 C9B2     		uxtb	r1, r1
 896              	.LBE176:
 897              	.LBE175:
 898              		.loc 1 419 0
 899 0026 BDE87040 		pop	{r4, r5, r6, lr}
 900              		.cfi_remember_state
 901              		.cfi_restore 14
 902              		.cfi_restore 6
 903              		.cfi_restore 5
 904              		.cfi_restore 4
 905              		.cfi_def_cfa_offset 0
 906              	.LVL79:
 907              	.LBB178:
 908              	.LBB177:
 909              		.loc 1 418 0
 910 002a FFF7FEBF 		b	_Z21nrf24l01WriteRegisterP14NRF24L01Driverhh
 911              	.LVL80:
 912              	.L38:
ARM GAS  /var/folders/m4/4md61f0s1_g0rzfghffqnxvr0000gn/T//ccmevqMd.s 			page 17


 913              		.cfi_restore_state
 914              	.LBE177:
 915              	.LBE178:
 916              		.loc 1 416 0
 917 002e 04F10A01 		add	r1, r4, #10
 918 0032 3046     		mov	r0, r6
 919 0034 2A46     		mov	r2, r5
 920 0036 C9B2     		uxtb	r1, r1
 921              		.loc 1 419 0
 922 0038 BDE87040 		pop	{r4, r5, r6, lr}
 923              		.cfi_restore 14
 924              		.cfi_restore 6
 925              		.cfi_restore 5
 926              		.cfi_restore 4
 927              		.cfi_def_cfa_offset 0
 928              	.LVL81:
 929              		.loc 1 416 0
 930 003c FFF7FEBF 		b	_Z28nrf24l01WriteAddressRegisterP14NRF24L01DriverhPKh
 931              	.LVL82:
 932              		.cfi_endproc
 933              	.LFE290:
 934              		.size	_Z20nrf24l01SetRXAddressP14NRF24L01DriverhPKh, .-_Z20nrf24l01SetRXAddressP14NRF24L01DriverhP
 935              		.section	.text._Z20nrf24l01SetTXAddressP14NRF24L01DriverPKh,"ax",%progbits
 936              		.align	2
 937              		.p2align 4,,15
 938              		.global	_Z20nrf24l01SetTXAddressP14NRF24L01DriverPKh
 939              		.thumb
 940              		.thumb_func
 941              		.type	_Z20nrf24l01SetTXAddressP14NRF24L01DriverPKh, %function
 942              	_Z20nrf24l01SetTXAddressP14NRF24L01DriverPKh:
 943              	.LFB291:
 944              		.loc 1 422 0
 945              		.cfi_startproc
 946              		@ args = 0, pretend = 0, frame = 0
 947              		@ frame_needed = 0, uses_anonymous_args = 0
 948              	.LVL83:
 949 0000 38B5     		push	{r3, r4, r5, lr}
 950              		.cfi_def_cfa_offset 16
 951              		.cfi_offset 3, -16
 952              		.cfi_offset 4, -12
 953              		.cfi_offset 5, -8
 954              		.cfi_offset 14, -4
 955              		.loc 1 423 0
 956 0002 8022     		movs	r2, #128
 957              		.loc 1 422 0
 958 0004 0C46     		mov	r4, r1
 959 0006 0546     		mov	r5, r0
 960              		.loc 1 423 0
 961 0008 0321     		movs	r1, #3
 962              	.LVL84:
 963 000a FFF7FEFF 		bl	_Z21nrf24l01WriteRegisterP14NRF24L01Driverhh
 964              	.LVL85:
 965              		.loc 1 424 0
 966 000e 2846     		mov	r0, r5
 967 0010 2246     		mov	r2, r4
 968 0012 1021     		movs	r1, #16
 969              		.loc 1 425 0
ARM GAS  /var/folders/m4/4md61f0s1_g0rzfghffqnxvr0000gn/T//ccmevqMd.s 			page 18


 970 0014 BDE83840 		pop	{r3, r4, r5, lr}
 971              		.cfi_restore 14
 972              		.cfi_restore 5
 973              		.cfi_restore 4
 974              		.cfi_restore 3
 975              		.cfi_def_cfa_offset 0
 976              	.LVL86:
 977              		.loc 1 424 0
 978 0018 FFF7FEBF 		b	_Z28nrf24l01WriteAddressRegisterP14NRF24L01DriverhPKh
 979              	.LVL87:
 980              		.cfi_endproc
 981              	.LFE291:
 982              		.size	_Z20nrf24l01SetTXAddressP14NRF24L01DriverPKh, .-_Z20nrf24l01SetTXAddressP14NRF24L01DriverPKh
 983              		.section	.text._Z22nrf24l01SetPayloadSizeP14NRF24L01Driverhh,"ax",%progbits
 984              		.align	2
 985              		.p2align 4,,15
 986              		.global	_Z22nrf24l01SetPayloadSizeP14NRF24L01Driverhh
 987              		.thumb
 988              		.thumb_func
 989              		.type	_Z22nrf24l01SetPayloadSizeP14NRF24L01Driverhh, %function
 990              	_Z22nrf24l01SetPayloadSizeP14NRF24L01Driverhh:
 991              	.LFB292:
 992              		.loc 1 428 0
 993              		.cfi_startproc
 994              		@ args = 0, pretend = 0, frame = 0
 995              		@ frame_needed = 0, uses_anonymous_args = 0
 996              		@ link register save eliminated.
 997              	.LVL88:
 998              		.loc 1 429 0
 999 0000 0529     		cmp	r1, #5
 1000 0002 01D8     		bhi	.L42
 1001              	.LVL89:
 1002              	.LBB181:
 1003              	.LBB182:
 1004 0004 202A     		cmp	r2, #32
 1005 0006 00D9     		bls	.L44
 1006              	.LVL90:
 1007              	.L42:
 1008 0008 7047     		bx	lr
 1009              	.LVL91:
 1010              	.L44:
 1011              		.loc 1 432 0
 1012 000a 1131     		adds	r1, r1, #17
 1013              	.LVL92:
 1014 000c C9B2     		uxtb	r1, r1
 1015 000e FFF7FEBF 		b	_Z21nrf24l01WriteRegisterP14NRF24L01Driverhh
 1016              	.LVL93:
 1017              	.LBE182:
 1018              	.LBE181:
 1019              		.cfi_endproc
 1020              	.LFE292:
 1021              		.size	_Z22nrf24l01SetPayloadSizeP14NRF24L01Driverhh, .-_Z22nrf24l01SetPayloadSizeP14NRF24L01Driver
 1022 0012 00BF     		.section	.text._Z21nrf24l01GetFIFOStatusP14NRF24L01Driver,"ax",%progbits
 1023              		.align	2
 1024              		.p2align 4,,15
 1025              		.global	_Z21nrf24l01GetFIFOStatusP14NRF24L01Driver
 1026              		.thumb
ARM GAS  /var/folders/m4/4md61f0s1_g0rzfghffqnxvr0000gn/T//ccmevqMd.s 			page 19


 1027              		.thumb_func
 1028              		.type	_Z21nrf24l01GetFIFOStatusP14NRF24L01Driver, %function
 1029              	_Z21nrf24l01GetFIFOStatusP14NRF24L01Driver:
 1030              	.LFB293:
 1031              		.loc 1 436 0
 1032              		.cfi_startproc
 1033              		@ args = 0, pretend = 0, frame = 0
 1034              		@ frame_needed = 0, uses_anonymous_args = 0
 1035              		@ link register save eliminated.
 1036              	.LVL94:
 1037              		.loc 1 437 0
 1038 0000 1721     		movs	r1, #23
 1039 0002 FFF7FEBF 		b	_Z20nrf24l01ReadRegisterP14NRF24L01Driverh
 1040              	.LVL95:
 1041              		.cfi_endproc
 1042              	.LFE293:
 1043              		.size	_Z21nrf24l01GetFIFOStatusP14NRF24L01Driver, .-_Z21nrf24l01GetFIFOStatusP14NRF24L01Driver
 1044 0006 00BF     		.section	.text._Z29nrf24l01EnableDynamicPipeSizeP14NRF24L01Driverh,"ax",%progbits
 1045              		.align	2
 1046              		.p2align 4,,15
 1047              		.global	_Z29nrf24l01EnableDynamicPipeSizeP14NRF24L01Driverh
 1048              		.thumb
 1049              		.thumb_func
 1050              		.type	_Z29nrf24l01EnableDynamicPipeSizeP14NRF24L01Driverh, %function
 1051              	_Z29nrf24l01EnableDynamicPipeSizeP14NRF24L01Driverh:
 1052              	.LFB295:
 1053              		.loc 1 459 0
 1054              		.cfi_startproc
 1055              		@ args = 0, pretend = 0, frame = 0
 1056              		@ frame_needed = 0, uses_anonymous_args = 0
 1057              	.LVL96:
 1058 0000 38B5     		push	{r3, r4, r5, lr}
 1059              		.cfi_def_cfa_offset 16
 1060              		.cfi_offset 3, -16
 1061              		.cfi_offset 4, -12
 1062              		.cfi_offset 5, -8
 1063              		.cfi_offset 14, -4
 1064              		.loc 1 459 0
 1065 0002 0C46     		mov	r4, r1
 1066              	.LBB183:
 1067              		.loc 1 460 0
 1068 0004 1C21     		movs	r1, #28
 1069              	.LVL97:
 1070              	.LBE183:
 1071              		.loc 1 459 0
 1072 0006 0546     		mov	r5, r0
 1073              	.LBB184:
 1074              		.loc 1 460 0
 1075 0008 FFF7FEFF 		bl	_Z20nrf24l01ReadRegisterP14NRF24L01Driverh
 1076              	.LVL98:
 1077              		.loc 1 461 0
 1078 000c 04F03F04 		and	r4, r4, #63
 1079 0010 40EA0402 		orr	r2, r0, r4
 1080              	.LVL99:
 1081              		.loc 1 462 0
 1082 0014 D2B2     		uxtb	r2, r2
 1083 0016 2846     		mov	r0, r5
ARM GAS  /var/folders/m4/4md61f0s1_g0rzfghffqnxvr0000gn/T//ccmevqMd.s 			page 20


 1084 0018 1C21     		movs	r1, #28
 1085              	.LBE184:
 1086              		.loc 1 463 0
 1087 001a BDE83840 		pop	{r3, r4, r5, lr}
 1088              		.cfi_restore 14
 1089              		.cfi_restore 5
 1090              		.cfi_restore 4
 1091              		.cfi_restore 3
 1092              		.cfi_def_cfa_offset 0
 1093              	.LVL100:
 1094              	.LBB185:
 1095              		.loc 1 462 0
 1096 001e FFF7FEBF 		b	_Z21nrf24l01WriteRegisterP14NRF24L01Driverhh
 1097              	.LVL101:
 1098              	.LBE185:
 1099              		.cfi_endproc
 1100              	.LFE295:
 1101              		.size	_Z29nrf24l01EnableDynamicPipeSizeP14NRF24L01Driverh, .-_Z29nrf24l01EnableDynamicPipeSizeP14N
 1102 0022 00BF     		.section	.text._Z26nrf24l01DisableDynamicSizeP14NRF24L01Driver,"ax",%progbits
 1103              		.align	2
 1104              		.p2align 4,,15
 1105              		.global	_Z26nrf24l01DisableDynamicSizeP14NRF24L01Driver
 1106              		.thumb
 1107              		.thumb_func
 1108              		.type	_Z26nrf24l01DisableDynamicSizeP14NRF24L01Driver, %function
 1109              	_Z26nrf24l01DisableDynamicSizeP14NRF24L01Driver:
 1110              	.LFB296:
 1111              		.loc 1 466 0
 1112              		.cfi_startproc
 1113              		@ args = 0, pretend = 0, frame = 0
 1114              		@ frame_needed = 0, uses_anonymous_args = 0
 1115              	.LVL102:
 1116 0000 10B5     		push	{r4, lr}
 1117              		.cfi_def_cfa_offset 8
 1118              		.cfi_offset 4, -8
 1119              		.cfi_offset 14, -4
 1120              	.LBB186:
 1121              		.loc 1 467 0
 1122 0002 1D21     		movs	r1, #29
 1123              	.LBE186:
 1124              		.loc 1 466 0
 1125 0004 0446     		mov	r4, r0
 1126              	.LBB187:
 1127              		.loc 1 467 0
 1128 0006 FFF7FEFF 		bl	_Z20nrf24l01ReadRegisterP14NRF24L01Driverh
 1129              	.LVL103:
 1130              		.loc 1 469 0
 1131 000a 1D21     		movs	r1, #29
 1132 000c 00F0FB02 		and	r2, r0, #251
 1133 0010 2046     		mov	r0, r4
 1134              	.LVL104:
 1135              	.LBE187:
 1136              		.loc 1 470 0
 1137 0012 BDE81040 		pop	{r4, lr}
 1138              		.cfi_restore 14
 1139              		.cfi_restore 4
 1140              		.cfi_def_cfa_offset 0
ARM GAS  /var/folders/m4/4md61f0s1_g0rzfghffqnxvr0000gn/T//ccmevqMd.s 			page 21


 1141              	.LVL105:
 1142              	.LBB188:
 1143              		.loc 1 469 0
 1144 0016 FFF7FEBF 		b	_Z21nrf24l01WriteRegisterP14NRF24L01Driverhh
 1145              	.LVL106:
 1146              	.LBE188:
 1147              		.cfi_endproc
 1148              	.LFE296:
 1149              		.size	_Z26nrf24l01DisableDynamicSizeP14NRF24L01Driver, .-_Z26nrf24l01DisableDynamicSizeP14NRF24L01
 1150 001a 00BF     		.section	.text._Z30nrf24l01DisableDynamicPipeSizeP14NRF24L01Driverh,"ax",%progbits
 1151              		.align	2
 1152              		.p2align 4,,15
 1153              		.global	_Z30nrf24l01DisableDynamicPipeSizeP14NRF24L01Driverh
 1154              		.thumb
 1155              		.thumb_func
 1156              		.type	_Z30nrf24l01DisableDynamicPipeSizeP14NRF24L01Driverh, %function
 1157              	_Z30nrf24l01DisableDynamicPipeSizeP14NRF24L01Driverh:
 1158              	.LFB297:
 1159              		.loc 1 473 0
 1160              		.cfi_startproc
 1161              		@ args = 0, pretend = 0, frame = 0
 1162              		@ frame_needed = 0, uses_anonymous_args = 0
 1163              	.LVL107:
 1164 0000 38B5     		push	{r3, r4, r5, lr}
 1165              		.cfi_def_cfa_offset 16
 1166              		.cfi_offset 3, -16
 1167              		.cfi_offset 4, -12
 1168              		.cfi_offset 5, -8
 1169              		.cfi_offset 14, -4
 1170              		.loc 1 473 0
 1171 0002 0C46     		mov	r4, r1
 1172              	.LBB189:
 1173              		.loc 1 474 0
 1174 0004 1C21     		movs	r1, #28
 1175              	.LVL108:
 1176              	.LBE189:
 1177              		.loc 1 473 0
 1178 0006 0546     		mov	r5, r0
 1179              	.LBB190:
 1180              		.loc 1 474 0
 1181 0008 FFF7FEFF 		bl	_Z20nrf24l01ReadRegisterP14NRF24L01Driverh
 1182              	.LVL109:
 1183              		.loc 1 475 0
 1184 000c 04F03F04 		and	r4, r4, #63
 1185 0010 20EA0402 		bic	r2, r0, r4
 1186              	.LVL110:
 1187              		.loc 1 476 0
 1188 0014 D2B2     		uxtb	r2, r2
 1189 0016 2846     		mov	r0, r5
 1190 0018 1C21     		movs	r1, #28
 1191              	.LBE190:
 1192              		.loc 1 477 0
 1193 001a BDE83840 		pop	{r3, r4, r5, lr}
 1194              		.cfi_restore 14
 1195              		.cfi_restore 5
 1196              		.cfi_restore 4
 1197              		.cfi_restore 3
ARM GAS  /var/folders/m4/4md61f0s1_g0rzfghffqnxvr0000gn/T//ccmevqMd.s 			page 22


 1198              		.cfi_def_cfa_offset 0
 1199              	.LVL111:
 1200              	.LBB191:
 1201              		.loc 1 476 0
 1202 001e FFF7FEBF 		b	_Z21nrf24l01WriteRegisterP14NRF24L01Driverhh
 1203              	.LVL112:
 1204              	.LBE191:
 1205              		.cfi_endproc
 1206              	.LFE297:
 1207              		.size	_Z30nrf24l01DisableDynamicPipeSizeP14NRF24L01Driverh, .-_Z30nrf24l01DisableDynamicPipeSizeP1
 1208 0022 00BF     		.section	.text._Z19nrf24l01ReadPayloadP14NRF24L01DriverhPhS1_,"ax",%progbits
 1209              		.align	2
 1210              		.p2align 4,,15
 1211              		.global	_Z19nrf24l01ReadPayloadP14NRF24L01DriverhPhS1_
 1212              		.thumb
 1213              		.thumb_func
 1214              		.type	_Z19nrf24l01ReadPayloadP14NRF24L01DriverhPhS1_, %function
 1215              	_Z19nrf24l01ReadPayloadP14NRF24L01DriverhPhS1_:
 1216              	.LFB298:
 1217              		.loc 1 480 0
 1218              		.cfi_startproc
 1219              		@ args = 0, pretend = 0, frame = 0
 1220              		@ frame_needed = 0, uses_anonymous_args = 0
 1221              		@ link register save eliminated.
 1222              	.LVL113:
 1223              	.LBB192:
 1224              		.loc 1 481 0
 1225 0000 2029     		cmp	r1, #32
 1226 0002 00D9     		bls	.L54
 1227 0004 7047     		bx	lr
 1228              	.L54:
 1229              	.LBE192:
 1230 0006 FFF7FEBF 		b	_Z19nrf24l01ReadPayloadP14NRF24L01DriverhPhS1_.part.2
 1231              	.LVL114:
 1232              		.cfi_endproc
 1233              	.LFE298:
 1234              		.size	_Z19nrf24l01ReadPayloadP14NRF24L01DriverhPhS1_, .-_Z19nrf24l01ReadPayloadP14NRF24L01DriverhP
 1235 000a 00BF     		.section	.text._Z20nrf24l01WritePayloadP14NRF24L01DriverhPKh,"ax",%progbits
 1236              		.align	2
 1237              		.p2align 4,,15
 1238              		.global	_Z20nrf24l01WritePayloadP14NRF24L01DriverhPKh
 1239              		.thumb
 1240              		.thumb_func
 1241              		.type	_Z20nrf24l01WritePayloadP14NRF24L01DriverhPKh, %function
 1242              	_Z20nrf24l01WritePayloadP14NRF24L01DriverhPKh:
 1243              	.LFB299:
 1244              		.loc 1 496 0
 1245              		.cfi_startproc
 1246              		@ args = 0, pretend = 0, frame = 0
 1247              		@ frame_needed = 0, uses_anonymous_args = 0
 1248              		@ link register save eliminated.
 1249              	.LVL115:
 1250              	.LBB193:
 1251              		.loc 1 497 0
 1252 0000 2029     		cmp	r1, #32
 1253 0002 00D9     		bls	.L57
 1254 0004 7047     		bx	lr
ARM GAS  /var/folders/m4/4md61f0s1_g0rzfghffqnxvr0000gn/T//ccmevqMd.s 			page 23


 1255              	.L57:
 1256              	.LBE193:
 1257 0006 FFF7FEBF 		b	_Z20nrf24l01WritePayloadP14NRF24L01DriverhPKh.part.3
 1258              	.LVL116:
 1259              		.cfi_endproc
 1260              	.LFE299:
 1261              		.size	_Z20nrf24l01WritePayloadP14NRF24L01DriverhPKh, .-_Z20nrf24l01WritePayloadP14NRF24L01DriverhP
 1262 000a 00BF     		.section	.text._Z22nrf24l01ToggleFeaturesP14NRF24L01Driver,"ax",%progbits
 1263              		.align	2
 1264              		.p2align 4,,15
 1265              		.global	_Z22nrf24l01ToggleFeaturesP14NRF24L01Driver
 1266              		.thumb
 1267              		.thumb_func
 1268              		.type	_Z22nrf24l01ToggleFeaturesP14NRF24L01Driver, %function
 1269              	_Z22nrf24l01ToggleFeaturesP14NRF24L01Driver:
 1270              	.LFB300:
 1271              		.loc 1 509 0
 1272              		.cfi_startproc
 1273              		@ args = 0, pretend = 0, frame = 8
 1274              		@ frame_needed = 0, uses_anonymous_args = 0
 1275              	.LVL117:
 1276 0000 10B5     		push	{r4, lr}
 1277              		.cfi_def_cfa_offset 8
 1278              		.cfi_offset 4, -8
 1279              		.cfi_offset 14, -4
 1280              	.LBB194:
 1281              		.loc 1 510 0
 1282 0002 0C4A     		ldr	r2, .L60
 1283              		.loc 1 512 0
 1284 0004 D0F82431 		ldr	r3, [r0, #292]
 1285              		.loc 1 510 0
 1286 0008 1288     		ldrh	r2, [r2]	@ unaligned
 1287              	.LBE194:
 1288              		.loc 1 509 0
 1289 000a 82B0     		sub	sp, sp, #8
 1290              		.cfi_def_cfa_offset 16
 1291              		.loc 1 509 0
 1292 000c 0446     		mov	r4, r0
 1293              	.LBB195:
 1294              		.loc 1 510 0
 1295 000e ADF80420 		strh	r2, [sp, #4]	@ unaligned
 1296              		.loc 1 512 0
 1297 0012 1868     		ldr	r0, [r3]
 1298              	.LVL118:
 1299 0014 FFF7FEFF 		bl	spiSelect
 1300              	.LVL119:
 1301              		.loc 1 513 0
 1302 0018 D4F82431 		ldr	r3, [r4, #292]
 1303 001c 01AA     		add	r2, sp, #4
 1304 001e 1868     		ldr	r0, [r3]
 1305 0020 0221     		movs	r1, #2
 1306 0022 FFF7FEFF 		bl	spiSend
 1307              	.LVL120:
 1308              		.loc 1 514 0
 1309 0026 D4F82431 		ldr	r3, [r4, #292]
 1310 002a 1868     		ldr	r0, [r3]
 1311 002c FFF7FEFF 		bl	spiUnselect
ARM GAS  /var/folders/m4/4md61f0s1_g0rzfghffqnxvr0000gn/T//ccmevqMd.s 			page 24


 1312              	.LVL121:
 1313              	.LBE195:
 1314              		.loc 1 515 0
 1315 0030 02B0     		add	sp, sp, #8
 1316              		.cfi_def_cfa_offset 8
 1317              		@ sp needed
 1318 0032 10BD     		pop	{r4, pc}
 1319              	.LVL122:
 1320              	.L61:
 1321              		.align	2
 1322              	.L60:
 1323 0034 00000000 		.word	.LANCHOR2
 1324              		.cfi_endproc
 1325              	.LFE300:
 1326              		.size	_Z22nrf24l01ToggleFeaturesP14NRF24L01Driver, .-_Z22nrf24l01ToggleFeaturesP14NRF24L01Driver
 1327              		.section	.text._Z25nrf24l01EnableDynamicSizeP14NRF24L01Driver,"ax",%progbits
 1328              		.align	2
 1329              		.p2align 4,,15
 1330              		.global	_Z25nrf24l01EnableDynamicSizeP14NRF24L01Driver
 1331              		.thumb
 1332              		.thumb_func
 1333              		.type	_Z25nrf24l01EnableDynamicSizeP14NRF24L01Driver, %function
 1334              	_Z25nrf24l01EnableDynamicSizeP14NRF24L01Driver:
 1335              	.LFB294:
 1336              		.loc 1 441 0
 1337              		.cfi_startproc
 1338              		@ args = 0, pretend = 0, frame = 0
 1339              		@ frame_needed = 0, uses_anonymous_args = 0
 1340              	.LVL123:
 1341 0000 38B5     		push	{r3, r4, r5, lr}
 1342              		.cfi_def_cfa_offset 16
 1343              		.cfi_offset 3, -16
 1344              		.cfi_offset 4, -12
 1345              		.cfi_offset 5, -8
 1346              		.cfi_offset 14, -4
 1347              	.LBB196:
 1348              		.loc 1 442 0
 1349 0002 1D21     		movs	r1, #29
 1350              	.LBE196:
 1351              		.loc 1 441 0
 1352 0004 0446     		mov	r4, r0
 1353              	.LBB197:
 1354              		.loc 1 442 0
 1355 0006 FFF7FEFF 		bl	_Z20nrf24l01ReadRegisterP14NRF24L01Driverh
 1356              	.LVL124:
 1357              		.loc 1 444 0
 1358 000a 4207     		lsls	r2, r0, #29
 1359 000c 00D5     		bpl	.L67
 1360              	.L62:
 1361 000e 38BD     		pop	{r3, r4, r5, pc}
 1362              	.LVL125:
 1363              	.L67:
 1364              		.loc 1 447 0
 1365 0010 40F00402 		orr	r2, r0, #4
 1366              		.loc 1 448 0
 1367 0014 D2B2     		uxtb	r2, r2
 1368 0016 2046     		mov	r0, r4
ARM GAS  /var/folders/m4/4md61f0s1_g0rzfghffqnxvr0000gn/T//ccmevqMd.s 			page 25


 1369              	.LVL126:
 1370 0018 1D21     		movs	r1, #29
 1371 001a FFF7FEFF 		bl	_Z21nrf24l01WriteRegisterP14NRF24L01Driverhh
 1372              	.LVL127:
 1373              		.loc 1 450 0
 1374 001e 2046     		mov	r0, r4
 1375 0020 1D21     		movs	r1, #29
 1376 0022 FFF7FEFF 		bl	_Z20nrf24l01ReadRegisterP14NRF24L01Driverh
 1377              	.LVL128:
 1378              		.loc 1 451 0
 1379 0026 4307     		lsls	r3, r0, #29
 1380              		.loc 1 450 0
 1381 0028 0546     		mov	r5, r0
 1382              	.LVL129:
 1383              		.loc 1 451 0
 1384 002a F0D4     		bmi	.L62
 1385              		.loc 1 453 0
 1386 002c 2046     		mov	r0, r4
 1387              	.LVL130:
 1388 002e FFF7FEFF 		bl	_Z22nrf24l01ToggleFeaturesP14NRF24L01Driver
 1389              	.LVL131:
 1390              		.loc 1 454 0
 1391 0032 2046     		mov	r0, r4
 1392 0034 2A46     		mov	r2, r5
 1393 0036 1D21     		movs	r1, #29
 1394              	.LBE197:
 1395              		.loc 1 456 0
 1396 0038 BDE83840 		pop	{r3, r4, r5, lr}
 1397              		.cfi_restore 14
 1398              		.cfi_restore 5
 1399              		.cfi_restore 4
 1400              		.cfi_restore 3
 1401              		.cfi_def_cfa_offset 0
 1402              	.LVL132:
 1403              	.LBB198:
 1404              		.loc 1 454 0
 1405 003c FFF7FEBF 		b	_Z21nrf24l01WriteRegisterP14NRF24L01Driverhh
 1406              	.LVL133:
 1407              	.LBE198:
 1408              		.cfi_endproc
 1409              	.LFE294:
 1410              		.size	_Z25nrf24l01EnableDynamicSizeP14NRF24L01Driver, .-_Z25nrf24l01EnableDynamicSizeP14NRF24L01Dr
 1411              		.section	.text._Z15nrf24l01FlushRXP14NRF24L01Driver,"ax",%progbits
 1412              		.align	2
 1413              		.p2align 4,,15
 1414              		.global	_Z15nrf24l01FlushRXP14NRF24L01Driver
 1415              		.thumb
 1416              		.thumb_func
 1417              		.type	_Z15nrf24l01FlushRXP14NRF24L01Driver, %function
 1418              	_Z15nrf24l01FlushRXP14NRF24L01Driver:
 1419              	.LFB301:
 1420              		.loc 1 518 0
 1421              		.cfi_startproc
 1422              		@ args = 0, pretend = 0, frame = 8
 1423              		@ frame_needed = 0, uses_anonymous_args = 0
 1424              	.LVL134:
 1425 0000 30B5     		push	{r4, r5, lr}
ARM GAS  /var/folders/m4/4md61f0s1_g0rzfghffqnxvr0000gn/T//ccmevqMd.s 			page 26


 1426              		.cfi_def_cfa_offset 12
 1427              		.cfi_offset 4, -12
 1428              		.cfi_offset 5, -8
 1429              		.cfi_offset 14, -4
 1430 0002 83B0     		sub	sp, sp, #12
 1431              		.cfi_def_cfa_offset 24
 1432              	.LBB199:
 1433              		.loc 1 519 0
 1434 0004 02AD     		add	r5, sp, #8
 1435 0006 E222     		movs	r2, #226
 1436 0008 05F8012D 		strb	r2, [r5, #-1]!
 1437              		.loc 1 521 0
 1438 000c D0F82431 		ldr	r3, [r0, #292]
 1439              	.LBE199:
 1440              		.loc 1 518 0
 1441 0010 0446     		mov	r4, r0
 1442              	.LBB200:
 1443              		.loc 1 521 0
 1444 0012 1868     		ldr	r0, [r3]
 1445              	.LVL135:
 1446 0014 FFF7FEFF 		bl	spiSelect
 1447              	.LVL136:
 1448              		.loc 1 522 0
 1449 0018 D4F82431 		ldr	r3, [r4, #292]
 1450 001c 2A46     		mov	r2, r5
 1451 001e 1868     		ldr	r0, [r3]
 1452 0020 0121     		movs	r1, #1
 1453 0022 FFF7FEFF 		bl	spiSend
 1454              	.LVL137:
 1455              		.loc 1 523 0
 1456 0026 D4F82431 		ldr	r3, [r4, #292]
 1457 002a 1868     		ldr	r0, [r3]
 1458 002c FFF7FEFF 		bl	spiUnselect
 1459              	.LVL138:
 1460              	.LBE200:
 1461              		.loc 1 524 0
 1462 0030 03B0     		add	sp, sp, #12
 1463              		.cfi_def_cfa_offset 12
 1464              		@ sp needed
 1465 0032 30BD     		pop	{r4, r5, pc}
 1466              		.cfi_endproc
 1467              	.LFE301:
 1468              		.size	_Z15nrf24l01FlushRXP14NRF24L01Driver, .-_Z15nrf24l01FlushRXP14NRF24L01Driver
 1469              		.section	.text._Z15nrf24l01FlushTXP14NRF24L01Driver,"ax",%progbits
 1470              		.align	2
 1471              		.p2align 4,,15
 1472              		.global	_Z15nrf24l01FlushTXP14NRF24L01Driver
 1473              		.thumb
 1474              		.thumb_func
 1475              		.type	_Z15nrf24l01FlushTXP14NRF24L01Driver, %function
 1476              	_Z15nrf24l01FlushTXP14NRF24L01Driver:
 1477              	.LFB302:
 1478              		.loc 1 527 0
 1479              		.cfi_startproc
 1480              		@ args = 0, pretend = 0, frame = 8
 1481              		@ frame_needed = 0, uses_anonymous_args = 0
 1482              	.LVL139:
ARM GAS  /var/folders/m4/4md61f0s1_g0rzfghffqnxvr0000gn/T//ccmevqMd.s 			page 27


 1483 0000 30B5     		push	{r4, r5, lr}
 1484              		.cfi_def_cfa_offset 12
 1485              		.cfi_offset 4, -12
 1486              		.cfi_offset 5, -8
 1487              		.cfi_offset 14, -4
 1488 0002 83B0     		sub	sp, sp, #12
 1489              		.cfi_def_cfa_offset 24
 1490              	.LBB201:
 1491              		.loc 1 528 0
 1492 0004 02AD     		add	r5, sp, #8
 1493 0006 E122     		movs	r2, #225
 1494 0008 05F8012D 		strb	r2, [r5, #-1]!
 1495              		.loc 1 530 0
 1496 000c D0F82431 		ldr	r3, [r0, #292]
 1497              	.LBE201:
 1498              		.loc 1 527 0
 1499 0010 0446     		mov	r4, r0
 1500              	.LBB202:
 1501              		.loc 1 530 0
 1502 0012 1868     		ldr	r0, [r3]
 1503              	.LVL140:
 1504 0014 FFF7FEFF 		bl	spiSelect
 1505              	.LVL141:
 1506              		.loc 1 531 0
 1507 0018 D4F82431 		ldr	r3, [r4, #292]
 1508 001c 2A46     		mov	r2, r5
 1509 001e 1868     		ldr	r0, [r3]
 1510 0020 0121     		movs	r1, #1
 1511 0022 FFF7FEFF 		bl	spiSend
 1512              	.LVL142:
 1513              		.loc 1 532 0
 1514 0026 D4F82431 		ldr	r3, [r4, #292]
 1515 002a 1868     		ldr	r0, [r3]
 1516 002c FFF7FEFF 		bl	spiUnselect
 1517              	.LVL143:
 1518              	.LBE202:
 1519              		.loc 1 533 0
 1520 0030 03B0     		add	sp, sp, #12
 1521              		.cfi_def_cfa_offset 12
 1522              		@ sp needed
 1523 0032 30BD     		pop	{r4, r5, pc}
 1524              		.cfi_endproc
 1525              	.LFE302:
 1526              		.size	_Z15nrf24l01FlushTXP14NRF24L01Driver, .-_Z15nrf24l01FlushTXP14NRF24L01Driver
 1527              		.section	.text._Z12initNRF24L01v,"ax",%progbits
 1528              		.align	2
 1529              		.p2align 4,,15
 1530              		.global	_Z12initNRF24L01v
 1531              		.thumb
 1532              		.thumb_func
 1533              		.type	_Z12initNRF24L01v, %function
 1534              	_Z12initNRF24L01v:
 1535              	.LFB269:
 1536              		.loc 1 59 0
 1537              		.cfi_startproc
 1538              		@ args = 0, pretend = 0, frame = 0
 1539              		@ frame_needed = 0, uses_anonymous_args = 0
ARM GAS  /var/folders/m4/4md61f0s1_g0rzfghffqnxvr0000gn/T//ccmevqMd.s 			page 28


 1540 0000 38B5     		push	{r3, r4, r5, lr}
 1541              		.cfi_def_cfa_offset 16
 1542              		.cfi_offset 3, -16
 1543              		.cfi_offset 4, -12
 1544              		.cfi_offset 5, -8
 1545              		.cfi_offset 14, -4
 1546              		.loc 1 60 0
 1547 0002 2F4D     		ldr	r5, .L76
 1548              		.loc 1 62 0
 1549 0004 2F4C     		ldr	r4, .L76+4
 1550              		.loc 1 60 0
 1551 0006 2846     		mov	r0, r5
 1552 0008 1021     		movs	r1, #16
 1553 000a 0122     		movs	r2, #1
 1554 000c FFF7FEFF 		bl	_pal_lld_setgroupmode
 1555              	.LVL144:
 1556              		.loc 1 61 0
 1557 0010 1023     		movs	r3, #16
 1558 0012 2B83     		strh	r3, [r5, #24]	@ movhi
 1559              		.loc 1 62 0
 1560 0014 2046     		mov	r0, r4
 1561 0016 0221     		movs	r1, #2
 1562 0018 0122     		movs	r2, #1
 1563 001a FFF7FEFF 		bl	_pal_lld_setgroupmode
 1564              	.LVL145:
 1565              		.loc 1 63 0
 1566 001e 0223     		movs	r3, #2
 1567              		.loc 1 64 0
 1568 0020 2021     		movs	r1, #32
 1569 0022 0A46     		mov	r2, r1
 1570              		.loc 1 63 0
 1571 0024 6383     		strh	r3, [r4, #26]	@ movhi
 1572              		.loc 1 64 0
 1573 0026 2848     		ldr	r0, .L76+8
 1574 0028 284D     		ldr	r5, .L76+12
 1575 002a FFF7FEFF 		bl	_pal_lld_setgroupmode
 1576              	.LVL146:
 1577              		.loc 1 66 0
 1578 002e 2848     		ldr	r0, .L76+16
 1579 0030 2849     		ldr	r1, .L76+20
 1580 0032 FFF7FEFF 		bl	spiStart
 1581              	.LVL147:
 1582              		.loc 1 67 0
 1583 0036 2848     		ldr	r0, .L76+24
 1584 0038 2849     		ldr	r1, .L76+28
 1585 003a FFF7FEFF 		bl	extStart
 1586              	.LVL148:
 1587 003e 284B     		ldr	r3, .L76+32
 1588              	.LBB218:
 1589              	.LBB219:
 1590              	.LBB220:
 1591              		.loc 1 315 0
 1592 0040 0022     		movs	r2, #0
 1593 0042 03F59070 		add	r0, r3, #288
 1594 0046 A3F12C01 		sub	r1, r3, #44
 1595              	.LVL149:
 1596              	.L73:
ARM GAS  /var/folders/m4/4md61f0s1_g0rzfghffqnxvr0000gn/T//ccmevqMd.s 			page 29


 1597              		.loc 1 314 0
 1598 004a 43F82C5C 		str	r5, [r3, #-44]
 1599              		.loc 1 315 0
 1600 004e 03F8042C 		strb	r2, [r3, #-4]
 1601              		.loc 1 316 0
 1602 0052 43F8281C 		str	r1, [r3, #-40]
 1603              	.LVL150:
 1604              	.LBB221:
 1605              	.LBB222:
 1606              		.loc 3 172 0
 1607 0056 1B60     		str	r3, [r3]
 1608 0058 3033     		adds	r3, r3, #48
 1609              	.LVL151:
 1610              	.LBE222:
 1611              	.LBE221:
 1612              		.loc 1 312 0
 1613 005a 8342     		cmp	r3, r0
 1614              		.loc 1 316 0
 1615 005c 214C     		ldr	r4, .L76+36
 1616              		.loc 1 312 0
 1617 005e F4D1     		bne	.L73
 1618              	.LVL152:
 1619              	.LBE220:
 1620              	.LBB223:
 1621              	.LBB224:
 1622              		.loc 3 172 0
 1623 0060 04F59072 		add	r2, r4, #288
 1624              	.LBE224:
 1625              	.LBE223:
 1626              	.LBE219:
 1627              	.LBE218:
 1628              	.LBB228:
 1629              	.LBB229:
 1630              		.loc 1 325 0
 1631 0064 204B     		ldr	r3, .L76+40
 1632              	.LVL153:
 1633              	.LBE229:
 1634              	.LBE228:
 1635              	.LBB231:
 1636              	.LBB227:
 1637              	.LBB226:
 1638              	.LBB225:
 1639              		.loc 3 172 0
 1640 0066 C4F82021 		str	r2, [r4, #288]
 1641              	.LVL154:
 1642              	.LBE225:
 1643              	.LBE226:
 1644              	.LBE227:
 1645              	.LBE231:
 1646              		.loc 1 70 0
 1647 006a 0521     		movs	r1, #5
 1648 006c 1A48     		ldr	r0, .L76+24
 1649              	.LBB232:
 1650              	.LBB230:
 1651              		.loc 1 325 0
 1652 006e C4F82431 		str	r3, [r4, #292]
 1653              	.LBE230:
ARM GAS  /var/folders/m4/4md61f0s1_g0rzfghffqnxvr0000gn/T//ccmevqMd.s 			page 30


 1654              	.LBE232:
 1655              		.loc 1 70 0
 1656 0072 FFF7FEFF 		bl	extChannelEnable
 1657              	.LVL155:
 1658              		.loc 1 72 0
 1659 0076 2046     		mov	r0, r4
 1660 0078 FFF7FEFF 		bl	_Z25nrf24l01EnableDynamicSizeP14NRF24L01Driver
 1661              	.LVL156:
 1662              		.loc 1 73 0
 1663 007c 2046     		mov	r0, r4
 1664 007e 3F21     		movs	r1, #63
 1665 0080 FFF7FEFF 		bl	_Z29nrf24l01EnableDynamicPipeSizeP14NRF24L01Driverh
 1666              	.LVL157:
 1667              		.loc 1 75 0
 1668 0084 2046     		mov	r0, r4
 1669 0086 1949     		ldr	r1, .L76+44
 1670 0088 FFF7FEFF 		bl	_Z20nrf24l01SetTXAddressP14NRF24L01DriverPKh
 1671              	.LVL158:
 1672              		.loc 1 76 0
 1673 008c 2046     		mov	r0, r4
 1674 008e 0021     		movs	r1, #0
 1675 0090 164A     		ldr	r2, .L76+44
 1676 0092 FFF7FEFF 		bl	_Z20nrf24l01SetRXAddressP14NRF24L01DriverhPKh
 1677              	.LVL159:
 1678              	.LBB233:
 1679              	.LBB234:
 1680              	.LBB235:
 1681              		.loc 1 432 0
 1682 0096 1121     		movs	r1, #17
 1683 0098 2022     		movs	r2, #32
 1684 009a 2046     		mov	r0, r4
 1685 009c FFF7FEFF 		bl	_Z21nrf24l01WriteRegisterP14NRF24L01Driverhh
 1686              	.LVL160:
 1687              	.LBE235:
 1688              	.LBE234:
 1689              	.LBE233:
 1690              		.loc 1 79 0
 1691 00a0 2046     		mov	r0, r4
 1692 00a2 FFF7FEFF 		bl	_Z15nrf24l01FlushRXP14NRF24L01Driver
 1693              	.LVL161:
 1694              		.loc 1 80 0
 1695 00a6 2046     		mov	r0, r4
 1696 00a8 FFF7FEFF 		bl	_Z15nrf24l01FlushTXP14NRF24L01Driver
 1697              	.LVL162:
 1698              	.LBB236:
 1699              	.LBB237:
 1700              		.loc 1 409 0
 1701 00ac 2046     		mov	r0, r4
 1702 00ae 0721     		movs	r1, #7
 1703 00b0 7022     		movs	r2, #112
 1704 00b2 FFF7FEFF 		bl	_Z21nrf24l01WriteRegisterP14NRF24L01Driverhh
 1705              	.LVL163:
 1706              	.LBE237:
 1707              	.LBE236:
 1708              		.loc 1 83 0
 1709 00b6 2046     		mov	r0, r4
 1710              		.loc 1 84 0
ARM GAS  /var/folders/m4/4md61f0s1_g0rzfghffqnxvr0000gn/T//ccmevqMd.s 			page 31


 1711 00b8 BDE83840 		pop	{r3, r4, r5, lr}
 1712              		.cfi_restore 14
 1713              		.cfi_restore 5
 1714              		.cfi_restore 4
 1715              		.cfi_restore 3
 1716              		.cfi_def_cfa_offset 0
 1717              		.loc 1 83 0
 1718 00bc FFF7FEBF 		b	_Z15nrf24l01PowerUpP14NRF24L01Driver
 1719              	.LVL164:
 1720              	.L77:
 1721              		.align	2
 1722              	.L76:
 1723 00c0 00000240 		.word	1073872896
 1724 00c4 00040240 		.word	1073873920
 1725 00c8 00080240 		.word	1073874944
 1726 00cc 00000000 		.word	.LANCHOR1
 1727 00d0 00000000 		.word	SPID1
 1728 00d4 00000000 		.word	.LANCHOR3
 1729 00d8 00000000 		.word	EXTD1
 1730 00dc 00000000 		.word	.LANCHOR4
 1731 00e0 2C000000 		.word	.LANCHOR0+44
 1732 00e4 00000000 		.word	.LANCHOR0
 1733 00e8 00000000 		.word	.LANCHOR5
 1734 00ec 00000000 		.word	.LANCHOR6
 1735              		.cfi_endproc
 1736              	.LFE269:
 1737              		.size	_Z12initNRF24L01v, .-_Z12initNRF24L01v
 1738              		.section	.text._Z15nrf24l01GetSizeP14NRF24L01Driver,"ax",%progbits
 1739              		.align	2
 1740              		.p2align 4,,15
 1741              		.global	_Z15nrf24l01GetSizeP14NRF24L01Driver
 1742              		.thumb
 1743              		.thumb_func
 1744              		.type	_Z15nrf24l01GetSizeP14NRF24L01Driver, %function
 1745              	_Z15nrf24l01GetSizeP14NRF24L01Driver:
 1746              	.LFB303:
 1747              		.loc 1 536 0
 1748              		.cfi_startproc
 1749              		@ args = 0, pretend = 0, frame = 8
 1750              		@ frame_needed = 0, uses_anonymous_args = 0
 1751              	.LVL165:
 1752 0000 10B5     		push	{r4, lr}
 1753              		.cfi_def_cfa_offset 8
 1754              		.cfi_offset 4, -8
 1755              		.cfi_offset 14, -4
 1756 0002 82B0     		sub	sp, sp, #8
 1757              		.cfi_def_cfa_offset 16
 1758              	.LBB238:
 1759              		.loc 1 537 0
 1760 0004 6023     		movs	r3, #96
 1761 0006 8DF80030 		strb	r3, [sp]
 1762              		.loc 1 540 0
 1763 000a D0F82421 		ldr	r2, [r0, #292]
 1764              		.loc 1 537 0
 1765 000e 0023     		movs	r3, #0
 1766              	.LBE238:
 1767              		.loc 1 536 0
ARM GAS  /var/folders/m4/4md61f0s1_g0rzfghffqnxvr0000gn/T//ccmevqMd.s 			page 32


 1768 0010 0446     		mov	r4, r0
 1769              	.LBB239:
 1770              		.loc 1 537 0
 1771 0012 8DF80130 		strb	r3, [sp, #1]
 1772              		.loc 1 538 0
 1773 0016 8DF80430 		strb	r3, [sp, #4]
 1774 001a 8DF80530 		strb	r3, [sp, #5]
 1775              		.loc 1 540 0
 1776 001e 1068     		ldr	r0, [r2]
 1777              	.LVL166:
 1778 0020 FFF7FEFF 		bl	spiSelect
 1779              	.LVL167:
 1780              		.loc 1 541 0
 1781 0024 D4F82431 		ldr	r3, [r4, #292]
 1782 0028 0221     		movs	r1, #2
 1783 002a 1868     		ldr	r0, [r3]
 1784 002c 6A46     		mov	r2, sp
 1785 002e 01AB     		add	r3, sp, #4
 1786 0030 FFF7FEFF 		bl	spiExchange
 1787              	.LVL168:
 1788              		.loc 1 542 0
 1789 0034 D4F82431 		ldr	r3, [r4, #292]
 1790 0038 1868     		ldr	r0, [r3]
 1791 003a FFF7FEFF 		bl	spiUnselect
 1792              	.LVL169:
 1793              	.LBE239:
 1794              		.loc 1 545 0
 1795 003e 9DF80500 		ldrb	r0, [sp, #5]	@ zero_extendqisi2
 1796 0042 02B0     		add	sp, sp, #8
 1797              		.cfi_def_cfa_offset 8
 1798              		@ sp needed
 1799 0044 10BD     		pop	{r4, pc}
 1800              		.cfi_endproc
 1801              	.LFE303:
 1802              		.size	_Z15nrf24l01GetSizeP14NRF24L01Driver, .-_Z15nrf24l01GetSizeP14NRF24L01Driver
 1803 0046 00BF     		.section	.text._Z15nrf24l01EnterRXP14NRF24L01Driver,"ax",%progbits
 1804              		.align	2
 1805              		.p2align 4,,15
 1806              		.global	_Z15nrf24l01EnterRXP14NRF24L01Driver
 1807              		.thumb
 1808              		.thumb_func
 1809              		.type	_Z15nrf24l01EnterRXP14NRF24L01Driver, %function
 1810              	_Z15nrf24l01EnterRXP14NRF24L01Driver:
 1811              	.LFB304:
 1812              		.loc 1 548 0
 1813              		.cfi_startproc
 1814              		@ args = 0, pretend = 0, frame = 0
 1815              		@ frame_needed = 0, uses_anonymous_args = 0
 1816              	.LVL170:
 1817 0000 38B5     		push	{r3, r4, r5, lr}
 1818              		.cfi_def_cfa_offset 16
 1819              		.cfi_offset 3, -16
 1820              		.cfi_offset 4, -12
 1821              		.cfi_offset 5, -8
 1822              		.cfi_offset 14, -4
 1823              	.LBB240:
 1824              		.loc 1 549 0
ARM GAS  /var/folders/m4/4md61f0s1_g0rzfghffqnxvr0000gn/T//ccmevqMd.s 			page 33


 1825 0002 D0F82431 		ldr	r3, [r0, #292]
 1826 0006 1989     		ldrh	r1, [r3, #8]
 1827 0008 5A68     		ldr	r2, [r3, #4]
 1828 000a 0124     		movs	r4, #1
 1829 000c 04FA01F3 		lsl	r3, r4, r1
 1830 0010 9BB2     		uxth	r3, r3
 1831 0012 5383     		strh	r3, [r2, #26]	@ movhi
 1832              		.loc 1 551 0
 1833 0014 0021     		movs	r1, #0
 1834              	.LBE240:
 1835              		.loc 1 548 0
 1836 0016 0546     		mov	r5, r0
 1837              	.LBB241:
 1838              		.loc 1 551 0
 1839 0018 FFF7FEFF 		bl	_Z20nrf24l01ReadRegisterP14NRF24L01Driverh
 1840              	.LVL171:
 1841              		.loc 1 552 0
 1842 001c 40EA0402 		orr	r2, r0, r4
 1843              		.loc 1 553 0
 1844 0020 D2B2     		uxtb	r2, r2
 1845 0022 2846     		mov	r0, r5
 1846              	.LVL172:
 1847 0024 0021     		movs	r1, #0
 1848 0026 FFF7FEFF 		bl	_Z21nrf24l01WriteRegisterP14NRF24L01Driverhh
 1849              	.LVL173:
 1850              		.loc 1 555 0
 1851 002a D5F82431 		ldr	r3, [r5, #292]
 1852 002e 1A89     		ldrh	r2, [r3, #8]
 1853 0030 5B68     		ldr	r3, [r3, #4]
 1854 0032 9440     		lsls	r4, r4, r2
 1855 0034 A4B2     		uxth	r4, r4
 1856 0036 1C83     		strh	r4, [r3, #24]	@ movhi
 1857 0038 38BD     		pop	{r3, r4, r5, pc}
 1858              	.LBE241:
 1859              		.cfi_endproc
 1860              	.LFE304:
 1861              		.size	_Z15nrf24l01EnterRXP14NRF24L01Driver, .-_Z15nrf24l01EnterRXP14NRF24L01Driver
 1862 003a 00BF     		.section	.text._ZL5readtPvPhjm,"ax",%progbits
 1863              		.align	2
 1864              		.p2align 4,,15
 1865              		.thumb
 1866              		.thumb_func
 1867              		.type	_ZL5readtPvPhjm, %function
 1868              	_ZL5readtPvPhjm:
 1869              	.LFB271:
 1870              		.loc 1 147 0
 1871              		.cfi_startproc
 1872              		@ args = 0, pretend = 0, frame = 32
 1873              		@ frame_needed = 0, uses_anonymous_args = 0
 1874              	.LVL174:
 1875 0000 2DE9F04F 		push	{r4, r5, r6, r7, r8, r9, r10, fp, lr}
 1876              		.cfi_def_cfa_offset 36
 1877              		.cfi_offset 4, -36
 1878              		.cfi_offset 5, -32
 1879              		.cfi_offset 6, -28
 1880              		.cfi_offset 7, -24
 1881              		.cfi_offset 8, -20
ARM GAS  /var/folders/m4/4md61f0s1_g0rzfghffqnxvr0000gn/T//ccmevqMd.s 			page 34


 1882              		.cfi_offset 9, -16
 1883              		.cfi_offset 10, -12
 1884              		.cfi_offset 11, -8
 1885              		.cfi_offset 14, -4
 1886              	.LBB242:
 1887              		.loc 1 149 0
 1888 0004 D0F80490 		ldr	r9, [r0, #4]
 1889              	.LVL175:
 1890              	.LBE242:
 1891              		.loc 1 147 0
 1892 0008 89B0     		sub	sp, sp, #36
 1893              		.cfi_def_cfa_offset 72
 1894 000a 09F59074 		add	r4, r9, #288
 1895 000e 4D46     		mov	r5, r9
 1896 0010 0194     		str	r4, [sp, #4]
 1897              	.LVL176:
 1898              	.L85:
 1899              	.LBB313:
 1900              	.LBB243:
 1901              		.loc 1 154 0
 1902 0012 A842     		cmp	r0, r5
 1903 0014 05F13005 		add	r5, r5, #48
 1904 0018 06D0     		beq	.L123
 1905              		.loc 1 152 0 discriminator 2
 1906 001a A542     		cmp	r5, r4
 1907 001c F9D1     		bne	.L85
 1908              	.LBE243:
 1909              		.loc 1 162 0
 1910 001e 0026     		movs	r6, #0
 1911              	.LBE313:
 1912              		.loc 1 245 0
 1913 0020 3046     		mov	r0, r6
 1914              	.LVL177:
 1915 0022 09B0     		add	sp, sp, #36
 1916              		.cfi_remember_state
 1917              		.cfi_def_cfa_offset 36
 1918              		@ sp needed
 1919 0024 BDE8F08F 		pop	{r4, r5, r6, r7, r8, r9, r10, fp, pc}
 1920              	.LVL178:
 1921              	.L123:
 1922              		.cfi_restore_state
 1923 0028 0093     		str	r3, [sp]
 1924 002a 0446     		mov	r4, r0
 1925              	.LVL179:
 1926              	.LBB314:
 1927              	.LBB244:
 1928              	.LBB245:
 1929              		.loc 3 193 0
 1930 002c 4FF0FF33 		mov	r3, #-1
 1931              	.LVL180:
 1932 0030 0198     		ldr	r0, [sp, #4]
 1933              	.LVL181:
 1934 0032 1746     		mov	r7, r2
 1935 0034 8A46     		mov	r10, r1
 1936 0036 0122     		movs	r2, #1
 1937              	.LVL182:
 1938 0038 03A9     		add	r1, sp, #12
ARM GAS  /var/folders/m4/4md61f0s1_g0rzfghffqnxvr0000gn/T//ccmevqMd.s 			page 35


 1939              	.LVL183:
 1940 003a FFF7FEFF 		bl	chEvtRegisterMaskWithFlags
 1941              	.LVL184:
 1942              	.LBE245:
 1943              	.LBE244:
 1944              		.loc 1 168 0
 1945 003e 4846     		mov	r0, r9
 1946 0040 FFF7FEFF 		bl	_Z15nrf24l01EnterRXP14NRF24L01Driver
 1947              	.LVL185:
 1948 0044 94F82830 		ldrb	r3, [r4, #40]	@ zero_extendqisi2
 1949              		.loc 1 164 0
 1950 0048 0025     		movs	r5, #0
 1951              	.LVL186:
 1952              	.L84:
 1953              		.loc 1 170 0
 1954 004a BD42     		cmp	r5, r7
 1955 004c 2E46     		mov	r6, r5
 1956 004e 20D2     		bcs	.L124
 1957              	.L109:
 1958              	.LBB246:
 1959              	.LBB247:
 1960              		.loc 1 172 0
 1961 0050 93B3     		cbz	r3, .L87
 1962              	.LBB248:
 1963              		.loc 1 174 0
 1964 0052 7E1B     		subs	r6, r7, r5
 1965 0054 9E42     		cmp	r6, r3
 1966 0056 28BF     		it	cs
 1967 0058 1E46     		movcs	r6, r3
 1968 005a 5FFA86FE 		uxtb	lr, r6
 1969              	.LVL187:
 1970              	.LBB249:
 1971              		.loc 1 175 0
 1972 005e 76B1     		cbz	r6, .L88
 1973 0060 0AEB0500 		add	r0, r10, r5
 1974 0064 0021     		movs	r1, #0
 1975              	.LVL188:
 1976              	.L90:
 1977              		.loc 1 176 0 discriminator 3
 1978 0066 6218     		adds	r2, r4, r1
 1979 0068 D31A     		subs	r3, r2, r3
 1980 006a 0131     		adds	r1, r1, #1
 1981              	.LVL189:
 1982 006c 93F82830 		ldrb	r3, [r3, #40]	@ zero_extendqisi2
 1983 0070 00F8013B 		strb	r3, [r0], #1
 1984              		.loc 1 175 0 discriminator 3
 1985 0074 CBB2     		uxtb	r3, r1
 1986 0076 9E45     		cmp	lr, r3
 1987 0078 94F82830 		ldrb	r3, [r4, #40]	@ zero_extendqisi2
 1988 007c F3D8     		bhi	.L90
 1989              	.L88:
 1990              	.LBE249:
 1991              		.loc 1 178 0
 1992 007e 3544     		add	r5, r5, r6
 1993              	.LVL190:
 1994 0080 ADB2     		uxth	r5, r5
 1995              	.LVL191:
ARM GAS  /var/folders/m4/4md61f0s1_g0rzfghffqnxvr0000gn/T//ccmevqMd.s 			page 36


 1996              		.loc 1 177 0
 1997 0082 CEEB0303 		rsb	r3, lr, r3
 1998 0086 DBB2     		uxtb	r3, r3
 1999              	.LBE248:
 2000              	.LBE247:
 2001              	.LBE246:
 2002              		.loc 1 170 0
 2003 0088 BD42     		cmp	r5, r7
 2004              	.LBB302:
 2005              	.LBB251:
 2006              	.LBB250:
 2007              		.loc 1 177 0
 2008 008a 84F82830 		strb	r3, [r4, #40]
 2009              	.LBE250:
 2010              	.LBE251:
 2011              	.LBE302:
 2012              		.loc 1 170 0
 2013 008e 2E46     		mov	r6, r5
 2014 0090 DED3     		bcc	.L109
 2015              	.LVL192:
 2016              	.L124:
 2017              		.loc 1 238 0
 2018 0092 002B     		cmp	r3, #0
 2019 0094 40F08B80 		bne	.L125
 2020              	.L110:
 2021              	.LVL193:
 2022              	.LBB303:
 2023              	.LBB304:
 2024              		.loc 1 571 0
 2025 0098 D9F82431 		ldr	r3, [r9, #292]
 2026              	.LBE304:
 2027              	.LBE303:
 2028              		.loc 1 242 0
 2029 009c 0198     		ldr	r0, [sp, #4]
 2030              	.LBB307:
 2031              	.LBB305:
 2032              		.loc 1 571 0
 2033 009e 1989     		ldrh	r1, [r3, #8]
 2034 00a0 5A68     		ldr	r2, [r3, #4]
 2035 00a2 0123     		movs	r3, #1
 2036 00a4 8B40     		lsls	r3, r3, r1
 2037 00a6 9BB2     		uxth	r3, r3
 2038              	.LBE305:
 2039              	.LBE307:
 2040              		.loc 1 242 0
 2041 00a8 03A9     		add	r1, sp, #12
 2042              	.LVL194:
 2043              	.LBB308:
 2044              	.LBB306:
 2045              		.loc 1 571 0
 2046 00aa 5383     		strh	r3, [r2, #26]	@ movhi
 2047              	.LBE306:
 2048              	.LBE308:
 2049              		.loc 1 242 0
 2050 00ac FFF7FEFF 		bl	chEvtUnregister
 2051              	.LVL195:
 2052              	.LBE314:
ARM GAS  /var/folders/m4/4md61f0s1_g0rzfghffqnxvr0000gn/T//ccmevqMd.s 			page 37


 2053              		.loc 1 245 0
 2054 00b0 3046     		mov	r0, r6
 2055 00b2 09B0     		add	sp, sp, #36
 2056              		.cfi_remember_state
 2057              		.cfi_def_cfa_offset 36
 2058              	.LVL196:
 2059              		@ sp needed
 2060 00b4 BDE8F08F 		pop	{r4, r5, r6, r7, r8, r9, r10, fp, pc}
 2061              	.LVL197:
 2062              	.L87:
 2063              		.cfi_restore_state
 2064              	.LBB315:
 2065              	.LBB309:
 2066              	.LBB252:
 2067              	.LBB253:
 2068              		.loc 1 437 0
 2069 00b8 4846     		mov	r0, r9
 2070 00ba 1721     		movs	r1, #23
 2071 00bc FFF7FEFF 		bl	_Z20nrf24l01ReadRegisterP14NRF24L01Driverh
 2072              	.LVL198:
 2073              	.LBE253:
 2074              	.LBE252:
 2075              	.LBB254:
 2076              		.loc 1 183 0
 2077 00c0 C207     		lsls	r2, r0, #31
 2078 00c2 44D4     		bmi	.L92
 2079              	.LBB255:
 2080              		.loc 1 185 0
 2081 00c4 C0F34203 		ubfx	r3, r0, #1, #3
 2082              		.loc 1 186 0
 2083 00c8 4846     		mov	r0, r9
 2084              		.loc 1 185 0
 2085 00ca 8DF80B30 		strb	r3, [sp, #11]
 2086              		.loc 1 186 0
 2087 00ce FFF7FEFF 		bl	_Z15nrf24l01GetSizeP14NRF24L01Driver
 2088              	.LVL199:
 2089              		.loc 1 188 0
 2090 00d2 9DF80B60 		ldrb	r6, [sp, #11]	@ zero_extendqisi2
 2091 00d6 4FEA460B 		lsl	fp, r6, #1
 2092 00da 0BEB0603 		add	r3, fp, r6
 2093 00de 1B01     		lsls	r3, r3, #4
 2094 00e0 09EB0302 		add	r2, r9, r3
 2095              	.LBB256:
 2096              		.loc 1 190 0
 2097 00e4 9442     		cmp	r4, r2
 2098              	.LBE256:
 2099              		.loc 1 186 0
 2100 00e6 8046     		mov	r8, r0
 2101              	.LVL200:
 2102              	.LBB286:
 2103              		.loc 1 190 0
 2104 00e8 59D0     		beq	.L93
 2105              	.LBB257:
 2106              	.LBB258:
 2107              		.loc 1 192 0
 2108 00ea 92F82830 		ldrb	r3, [r2, #40]	@ zero_extendqisi2
 2109 00ee 1918     		adds	r1, r3, r0
ARM GAS  /var/folders/m4/4md61f0s1_g0rzfghffqnxvr0000gn/T//ccmevqMd.s 			page 38


 2110 00f0 2029     		cmp	r1, #32
 2111 00f2 3DDC     		bgt	.L94
 2112              		.loc 1 192 0 is_stmt 0 discriminator 1
 2113 00f4 002B     		cmp	r3, #0
 2114 00f6 3BD0     		beq	.L94
 2115 00f8 C3F12003 		rsb	r3, r3, #32
 2116              	.LBB259:
 2117              	.LBB260:
 2118              		.loc 1 201 0 is_stmt 1
 2119 00fc 1B1A     		subs	r3, r3, r0
 2120 00fe DBB2     		uxtb	r3, r3
 2121              	.LVL201:
 2122 0100 C0F1200E 		rsb	lr, r0, #32
 2123 0104 9E45     		cmp	lr, r3
 2124              		.loc 1 202 0
 2125 0106 C8BF     		it	gt
 2126 0108 02EB000C 		addgt	ip, r2, r0
 2127              		.loc 1 201 0
 2128 010c 08DD     		ble	.L102
 2129              	.LVL202:
 2130              	.L101:
 2131              		.loc 1 202 0 discriminator 3
 2132 010e 0CEB0300 		add	r0, ip, r3
 2133 0112 D118     		adds	r1, r2, r3
 2134              		.loc 1 201 0 discriminator 3
 2135 0114 0133     		adds	r3, r3, #1
 2136              	.LVL203:
 2137 0116 DBB2     		uxtb	r3, r3
 2138              	.LVL204:
 2139              		.loc 1 202 0 discriminator 3
 2140 0118 007A     		ldrb	r0, [r0, #8]	@ zero_extendqisi2
 2141 011a 0872     		strb	r0, [r1, #8]
 2142              		.loc 1 201 0 discriminator 3
 2143 011c 7345     		cmp	r3, lr
 2144 011e F6DB     		blt	.L101
 2145              	.L102:
 2146              	.LVL205:
 2147              	.LBE260:
 2148              	.LBB261:
 2149              	.LBB262:
 2150              	.LBB263:
 2151              		.loc 1 481 0
 2152 0120 B8F1200F 		cmp	r8, #32
 2153 0124 52D9     		bls	.L126
 2154              	.LVL206:
 2155              	.L99:
 2156              	.LBE263:
 2157              	.LBE262:
 2158              	.LBE261:
 2159              		.loc 1 205 0
 2160 0126 0BEB0603 		add	r3, fp, r6
 2161 012a 09EB0313 		add	r3, r9, r3, lsl #4
 2162 012e 93F82820 		ldrb	r2, [r3, #40]	@ zero_extendqisi2
 2163 0132 9044     		add	r8, r8, r2
 2164              	.LVL207:
 2165 0134 83F82880 		strb	r8, [r3, #40]
 2166              	.LVL208:
ARM GAS  /var/folders/m4/4md61f0s1_g0rzfghffqnxvr0000gn/T//ccmevqMd.s 			page 39


 2167              	.L97:
 2168              	.LBE259:
 2169              	.LBE258:
 2170              		.loc 1 207 0
 2171 0138 0BEB0600 		add	r0, fp, r6
 2172 013c 09EB0010 		add	r0, r9, r0, lsl #4
 2173 0140 2C30     		adds	r0, r0, #44
 2174 0142 0421     		movs	r1, #4
 2175 0144 FFF7FEFF 		bl	chEvtBroadcastFlags
 2176              	.LVL209:
 2177              	.L121:
 2178 0148 94F82830 		ldrb	r3, [r4, #40]	@ zero_extendqisi2
 2179 014c 7DE7     		b	.L84
 2180              	.L92:
 2181              	.LBE257:
 2182              	.LBE286:
 2183              	.LBE255:
 2184              	.LBE254:
 2185              		.loc 1 225 0
 2186 014e 0120     		movs	r0, #1
 2187 0150 0099     		ldr	r1, [sp]
 2188 0152 FFF7FEFF 		bl	chEvtWaitOneTimeout
 2189              	.LVL210:
 2190 0156 0028     		cmp	r0, #0
 2191 0158 45D0     		beq	.L127
 2192              		.loc 1 232 0
 2193 015a 4846     		mov	r0, r9
 2194 015c FFF7FEFF 		bl	_Z17nrf24l01GetStatusP14NRF24L01Driver
 2195              	.LVL211:
 2196              		.loc 1 234 0
 2197 0160 4306     		lsls	r3, r0, #25
 2198 0162 F1D5     		bpl	.L121
 2199              	.LVL212:
 2200              	.LBB293:
 2201              	.LBB294:
 2202              		.loc 1 409 0
 2203 0164 4846     		mov	r0, r9
 2204              	.LVL213:
 2205 0166 0721     		movs	r1, #7
 2206 0168 4022     		movs	r2, #64
 2207 016a FFF7FEFF 		bl	_Z21nrf24l01WriteRegisterP14NRF24L01Driverhh
 2208              	.LVL214:
 2209 016e EBE7     		b	.L121
 2210              	.LVL215:
 2211              	.L94:
 2212              	.LBE294:
 2213              	.LBE293:
 2214              	.LBB295:
 2215              	.LBB290:
 2216              	.LBB287:
 2217              	.LBB274:
 2218              	.LBB272:
 2219              	.LBB266:
 2220              	.LBB267:
 2221              	.LBB268:
 2222              		.loc 1 481 0
 2223 0170 B8F1200F 		cmp	r8, #32
ARM GAS  /var/folders/m4/4md61f0s1_g0rzfghffqnxvr0000gn/T//ccmevqMd.s 			page 40


 2224 0174 06D9     		bls	.L128
 2225              	.LVL216:
 2226              	.L96:
 2227              	.LBE268:
 2228              	.LBE267:
 2229              	.LBE266:
 2230              		.loc 1 196 0
 2231 0176 0BEB0603 		add	r3, fp, r6
 2232 017a 09EB0313 		add	r3, r9, r3, lsl #4
 2233 017e 83F82880 		strb	r8, [r3, #40]
 2234 0182 D9E7     		b	.L97
 2235              	.LVL217:
 2236              	.L128:
 2237              		.loc 1 195 0
 2238 0184 0BEB0602 		add	r2, fp, r6
 2239 0188 C8EB0212 		rsb	r2, r8, r2, lsl #4
 2240 018c 2832     		adds	r2, r2, #40
 2241              	.LBB270:
 2242              	.LBB269:
 2243 018e 4A44     		add	r2, r2, r9
 2244 0190 4846     		mov	r0, r9
 2245              	.LVL218:
 2246 0192 4146     		mov	r1, r8
 2247 0194 0DF10B03 		add	r3, sp, #11
 2248              	.LVL219:
 2249 0198 FFF7FEFF 		bl	_Z19nrf24l01ReadPayloadP14NRF24L01DriverhPhS1_.part.2
 2250              	.LVL220:
 2251 019c EBE7     		b	.L96
 2252              	.LVL221:
 2253              	.L93:
 2254              	.LBE269:
 2255              	.LBE270:
 2256              	.LBE272:
 2257              	.LBE274:
 2258              		.loc 1 211 0
 2259 019e 7A1B     		subs	r2, r7, r5
 2260 01a0 9042     		cmp	r0, r2
 2261 01a2 0AD8     		bhi	.L104
 2262              	.LVL222:
 2263              	.LBB275:
 2264              	.LBB276:
 2265              	.LBB277:
 2266              		.loc 1 481 0
 2267 01a4 2028     		cmp	r0, #32
 2268 01a6 39D9     		bls	.L129
 2269              	.LVL223:
 2270              	.L105:
 2271              	.LBE277:
 2272              	.LBE276:
 2273              	.LBE275:
 2274              		.loc 1 214 0
 2275 01a8 4544     		add	r5, r5, r8
 2276              	.LVL224:
 2277 01aa ADB2     		uxth	r5, r5
 2278              	.LVL225:
 2279 01ac CCE7     		b	.L121
 2280              	.LVL226:
ARM GAS  /var/folders/m4/4md61f0s1_g0rzfghffqnxvr0000gn/T//ccmevqMd.s 			page 41


 2281              	.L125:
 2282              	.LBE287:
 2283              	.LBE290:
 2284              	.LBE295:
 2285              	.LBE309:
 2286              		.loc 1 239 0
 2287 01ae 04F12C00 		add	r0, r4, #44
 2288 01b2 0421     		movs	r1, #4
 2289 01b4 FFF7FEFF 		bl	chEvtBroadcastFlags
 2290              	.LVL227:
 2291 01b8 6EE7     		b	.L110
 2292              	.LVL228:
 2293              	.L104:
 2294              	.LBB310:
 2295              	.LBB296:
 2296              	.LBB291:
 2297              	.LBB288:
 2298              	.LBB279:
 2299              	.LBB280:
 2300              	.LBB281:
 2301              		.loc 1 481 0
 2302 01ba 2028     		cmp	r0, #32
 2303 01bc 23D9     		bls	.L130
 2304              	.LVL229:
 2305              	.L106:
 2306              	.LBE281:
 2307              	.LBE280:
 2308              	.LBE279:
 2309              		.loc 1 219 0
 2310 01be 0BEB0603 		add	r3, fp, r6
 2311 01c2 09EB0313 		add	r3, r9, r3, lsl #4
 2312 01c6 83F82880 		strb	r8, [r3, #40]
 2313 01ca BDE7     		b	.L121
 2314              	.LVL230:
 2315              	.L126:
 2316              	.LBB283:
 2317              	.LBB273:
 2318              	.LBB271:
 2319              		.loc 1 204 0
 2320 01cc 0BEB0602 		add	r2, fp, r6
 2321 01d0 0EEB0212 		add	r2, lr, r2, lsl #4
 2322 01d4 0832     		adds	r2, r2, #8
 2323              	.LBB265:
 2324              	.LBB264:
 2325 01d6 4A44     		add	r2, r2, r9
 2326 01d8 4846     		mov	r0, r9
 2327 01da 4146     		mov	r1, r8
 2328 01dc 0DF10B03 		add	r3, sp, #11
 2329              	.LVL231:
 2330 01e0 FFF7FEFF 		bl	_Z19nrf24l01ReadPayloadP14NRF24L01DriverhPhS1_.part.2
 2331              	.LVL232:
 2332 01e4 9FE7     		b	.L99
 2333              	.LVL233:
 2334              	.L127:
 2335              	.LBE264:
 2336              	.LBE265:
 2337              	.LBE271:
ARM GAS  /var/folders/m4/4md61f0s1_g0rzfghffqnxvr0000gn/T//ccmevqMd.s 			page 42


 2338              	.LBE273:
 2339              	.LBE283:
 2340              	.LBE288:
 2341              	.LBE291:
 2342              	.LBE296:
 2343              		.loc 1 227 0
 2344 01e6 0198     		ldr	r0, [sp, #4]
 2345 01e8 03A9     		add	r1, sp, #12
 2346              	.LVL234:
 2347 01ea FFF7FEFF 		bl	chEvtUnregister
 2348              	.LVL235:
 2349              	.LBB297:
 2350              	.LBB298:
 2351              		.loc 1 571 0
 2352 01ee D9F82431 		ldr	r3, [r9, #292]
 2353 01f2 1989     		ldrh	r1, [r3, #8]
 2354 01f4 5A68     		ldr	r2, [r3, #4]
 2355 01f6 0123     		movs	r3, #1
 2356 01f8 8B40     		lsls	r3, r3, r1
 2357 01fa 9BB2     		uxth	r3, r3
 2358              	.LBE298:
 2359              	.LBE297:
 2360              	.LBE310:
 2361              	.LBE315:
 2362              		.loc 1 245 0
 2363 01fc 3046     		mov	r0, r6
 2364              	.LBB316:
 2365              	.LBB311:
 2366              	.LBB300:
 2367              	.LBB299:
 2368              		.loc 1 571 0
 2369 01fe 5383     		strh	r3, [r2, #26]	@ movhi
 2370              	.LBE299:
 2371              	.LBE300:
 2372              	.LBE311:
 2373              	.LBE316:
 2374              		.loc 1 245 0
 2375 0200 09B0     		add	sp, sp, #36
 2376              		.cfi_remember_state
 2377              		.cfi_def_cfa_offset 36
 2378              	.LVL236:
 2379              		@ sp needed
 2380 0202 BDE8F08F 		pop	{r4, r5, r6, r7, r8, r9, r10, fp, pc}
 2381              	.LVL237:
 2382              	.L130:
 2383              		.cfi_restore_state
 2384              	.LBB317:
 2385              	.LBB312:
 2386              	.LBB301:
 2387              	.LBB292:
 2388              	.LBB289:
 2389              		.loc 1 218 0
 2390 0206 1B1A     		subs	r3, r3, r0
 2391 0208 03F12802 		add	r2, r3, #40
 2392              	.LBB284:
 2393              	.LBB282:
 2394 020c 4A44     		add	r2, r2, r9
ARM GAS  /var/folders/m4/4md61f0s1_g0rzfghffqnxvr0000gn/T//ccmevqMd.s 			page 43


 2395 020e 4846     		mov	r0, r9
 2396              	.LVL238:
 2397 0210 4146     		mov	r1, r8
 2398 0212 0DF10B03 		add	r3, sp, #11
 2399              	.LVL239:
 2400 0216 FFF7FEFF 		bl	_Z19nrf24l01ReadPayloadP14NRF24L01DriverhPhS1_.part.2
 2401              	.LVL240:
 2402 021a D0E7     		b	.L106
 2403              	.LVL241:
 2404              	.L129:
 2405              	.LBE282:
 2406              	.LBE284:
 2407              	.LBB285:
 2408              	.LBB278:
 2409 021c 4846     		mov	r0, r9
 2410              	.LVL242:
 2411 021e 4146     		mov	r1, r8
 2412 0220 0AEB0502 		add	r2, r10, r5
 2413 0224 0DF10B03 		add	r3, sp, #11
 2414              	.LVL243:
 2415 0228 FFF7FEFF 		bl	_Z19nrf24l01ReadPayloadP14NRF24L01DriverhPhS1_.part.2
 2416              	.LVL244:
 2417 022c BCE7     		b	.L105
 2418              	.LBE278:
 2419              	.LBE285:
 2420              	.LBE289:
 2421              	.LBE292:
 2422              	.LBE301:
 2423              	.LBE312:
 2424              	.LBE317:
 2425              		.cfi_endproc
 2426              	.LFE271:
 2427              		.size	_ZL5readtPvPhjm, .-_ZL5readtPvPhjm
 2428 022e 00BF     		.section	.text._ZL4gettPvm,"ax",%progbits
 2429              		.align	2
 2430              		.p2align 4,,15
 2431              		.thumb
 2432              		.thumb_func
 2433              		.type	_ZL4gettPvm, %function
 2434              	_ZL4gettPvm:
 2435              	.LFB273:
 2436              		.loc 1 255 0
 2437              		.cfi_startproc
 2438              		@ args = 0, pretend = 0, frame = 8
 2439              		@ frame_needed = 0, uses_anonymous_args = 0
 2440              	.LVL245:
 2441 0000 10B5     		push	{r4, lr}
 2442              		.cfi_def_cfa_offset 8
 2443              		.cfi_offset 4, -8
 2444              		.cfi_offset 14, -4
 2445              	.LBB329:
 2446              		.loc 1 256 0
 2447 0002 4268     		ldr	r2, [r0, #4]
 2448              	.LVL246:
 2449              	.LBE329:
 2450              		.loc 1 255 0
 2451 0004 82B0     		sub	sp, sp, #8
ARM GAS  /var/folders/m4/4md61f0s1_g0rzfghffqnxvr0000gn/T//ccmevqMd.s 			page 44


 2452              		.cfi_def_cfa_offset 16
 2453 0006 02F59074 		add	r4, r2, #288
 2454              	.LVL247:
 2455              	.L135:
 2456              	.LBB333:
 2457              	.LBB330:
 2458              		.loc 1 261 0
 2459 000a 9042     		cmp	r0, r2
 2460 000c 02F13002 		add	r2, r2, #48
 2461 0010 05D0     		beq	.L143
 2462              		.loc 1 259 0 discriminator 2
 2463 0012 A242     		cmp	r2, r4
 2464 0014 F9D1     		bne	.L135
 2465              	.LBE330:
 2466              		.loc 1 269 0
 2467 0016 6FF00100 		mvn	r0, #1
 2468              	.LVL248:
 2469              	.LBE333:
 2470              		.loc 1 284 0
 2471 001a 02B0     		add	sp, sp, #8
 2472              		.cfi_remember_state
 2473              		.cfi_def_cfa_offset 8
 2474              		@ sp needed
 2475 001c 10BD     		pop	{r4, pc}
 2476              	.LVL249:
 2477              	.L143:
 2478              		.cfi_restore_state
 2479              	.LBB334:
 2480              	.LBB331:
 2481              		.loc 1 271 0
 2482 001e 90F82820 		ldrb	r2, [r0, #40]	@ zero_extendqisi2
 2483 0022 42B1     		cbz	r2, .L144
 2484              	.LBB332:
 2485              		.loc 1 273 0
 2486 0024 831A     		subs	r3, r0, r2
 2487              		.loc 1 274 0
 2488 0026 013A     		subs	r2, r2, #1
 2489              		.loc 1 273 0
 2490 0028 93F82830 		ldrb	r3, [r3, #40]	@ zero_extendqisi2
 2491              	.LVL250:
 2492              		.loc 1 274 0
 2493 002c 80F82820 		strb	r2, [r0, #40]
 2494              		.loc 1 275 0
 2495 0030 1846     		mov	r0, r3
 2496              	.LVL251:
 2497              	.LBE332:
 2498              	.LBE331:
 2499              	.LBE334:
 2500              		.loc 1 284 0
 2501 0032 02B0     		add	sp, sp, #8
 2502              		.cfi_remember_state
 2503              		.cfi_def_cfa_offset 8
 2504              		@ sp needed
 2505 0034 10BD     		pop	{r4, pc}
 2506              	.LVL252:
 2507              	.L144:
 2508              		.cfi_restore_state
ARM GAS  /var/folders/m4/4md61f0s1_g0rzfghffqnxvr0000gn/T//ccmevqMd.s 			page 45


 2509 0036 0B46     		mov	r3, r1
 2510              	.LVL253:
 2511              	.LBB335:
 2512              	.LBB336:
 2513              	.LBB337:
 2514              		.loc 1 280 0
 2515 0038 0122     		movs	r2, #1
 2516 003a 0DF10701 		add	r1, sp, #7
 2517              	.LVL254:
 2518 003e FFF7FEFF 		bl	_ZL5readtPvPhjm
 2519              	.LVL255:
 2520 0042 18B9     		cbnz	r0, .L145
 2521              		.loc 1 281 0
 2522 0044 4FF0FF30 		mov	r0, #-1
 2523              	.LBE337:
 2524              	.LBE336:
 2525              	.LBE335:
 2526              		.loc 1 284 0
 2527 0048 02B0     		add	sp, sp, #8
 2528              		.cfi_remember_state
 2529              		.cfi_def_cfa_offset 8
 2530              		@ sp needed
 2531 004a 10BD     		pop	{r4, pc}
 2532              	.L145:
 2533              		.cfi_restore_state
 2534              	.LBB340:
 2535              	.LBB339:
 2536              	.LBB338:
 2537              		.loc 1 282 0
 2538 004c 9DF80700 		ldrb	r0, [sp, #7]	@ zero_extendqisi2
 2539              	.LBE338:
 2540              	.LBE339:
 2541              	.LBE340:
 2542              		.loc 1 284 0
 2543 0050 02B0     		add	sp, sp, #8
 2544              		.cfi_def_cfa_offset 8
 2545              		@ sp needed
 2546 0052 10BD     		pop	{r4, pc}
 2547              		.cfi_endproc
 2548              	.LFE273:
 2549              		.size	_ZL4gettPvm, .-_ZL4gettPvm
 2550              		.section	.text._ZL3getPv,"ax",%progbits
 2551              		.align	2
 2552              		.p2align 4,,15
 2553              		.thumb
 2554              		.thumb_func
 2555              		.type	_ZL3getPv, %function
 2556              	_ZL3getPv:
 2557              	.LFB277:
 2558              		.loc 1 302 0
 2559              		.cfi_startproc
 2560              		@ args = 0, pretend = 0, frame = 0
 2561              		@ frame_needed = 0, uses_anonymous_args = 0
 2562              		@ link register save eliminated.
 2563              	.LVL256:
 2564              		.loc 1 303 0
 2565 0000 4FF0FF31 		mov	r1, #-1
ARM GAS  /var/folders/m4/4md61f0s1_g0rzfghffqnxvr0000gn/T//ccmevqMd.s 			page 46


 2566 0004 FFF7FEBF 		b	_ZL4gettPvm
 2567              	.LVL257:
 2568              		.cfi_endproc
 2569              	.LFE277:
 2570              		.size	_ZL3getPv, .-_ZL3getPv
 2571              		.section	.text._ZL4readPvPhj,"ax",%progbits
 2572              		.align	2
 2573              		.p2align 4,,15
 2574              		.thumb
 2575              		.thumb_func
 2576              		.type	_ZL4readPvPhj, %function
 2577              	_ZL4readPvPhj:
 2578              	.LFB275:
 2579              		.loc 1 292 0
 2580              		.cfi_startproc
 2581              		@ args = 0, pretend = 0, frame = 0
 2582              		@ frame_needed = 0, uses_anonymous_args = 0
 2583              		@ link register save eliminated.
 2584              	.LVL258:
 2585              		.loc 1 293 0
 2586 0000 4FF0FF33 		mov	r3, #-1
 2587 0004 FFF7FEBF 		b	_ZL5readtPvPhjm
 2588              	.LVL259:
 2589              		.cfi_endproc
 2590              	.LFE275:
 2591              		.size	_ZL4readPvPhj, .-_ZL4readPvPhj
 2592              		.section	.text._Z15nrf24l01EnterTXP14NRF24L01Driver,"ax",%progbits
 2593              		.align	2
 2594              		.p2align 4,,15
 2595              		.global	_Z15nrf24l01EnterTXP14NRF24L01Driver
 2596              		.thumb
 2597              		.thumb_func
 2598              		.type	_Z15nrf24l01EnterTXP14NRF24L01Driver, %function
 2599              	_Z15nrf24l01EnterTXP14NRF24L01Driver:
 2600              	.LFB305:
 2601              		.loc 1 559 0
 2602              		.cfi_startproc
 2603              		@ args = 0, pretend = 0, frame = 0
 2604              		@ frame_needed = 0, uses_anonymous_args = 0
 2605              	.LVL260:
 2606 0000 38B5     		push	{r3, r4, r5, lr}
 2607              		.cfi_def_cfa_offset 16
 2608              		.cfi_offset 3, -16
 2609              		.cfi_offset 4, -12
 2610              		.cfi_offset 5, -8
 2611              		.cfi_offset 14, -4
 2612              	.LBB341:
 2613              		.loc 1 560 0
 2614 0002 D0F82431 		ldr	r3, [r0, #292]
 2615 0006 1989     		ldrh	r1, [r3, #8]
 2616 0008 5A68     		ldr	r2, [r3, #4]
 2617 000a 0124     		movs	r4, #1
 2618 000c 04FA01F3 		lsl	r3, r4, r1
 2619 0010 9BB2     		uxth	r3, r3
 2620 0012 5383     		strh	r3, [r2, #26]	@ movhi
 2621              		.loc 1 562 0
 2622 0014 0021     		movs	r1, #0
ARM GAS  /var/folders/m4/4md61f0s1_g0rzfghffqnxvr0000gn/T//ccmevqMd.s 			page 47


 2623              	.LBE341:
 2624              		.loc 1 559 0
 2625 0016 0546     		mov	r5, r0
 2626              	.LBB342:
 2627              		.loc 1 562 0
 2628 0018 FFF7FEFF 		bl	_Z20nrf24l01ReadRegisterP14NRF24L01Driverh
 2629              	.LVL261:
 2630              		.loc 1 564 0
 2631 001c 0021     		movs	r1, #0
 2632 001e 00F0FE02 		and	r2, r0, #254
 2633 0022 2846     		mov	r0, r5
 2634              	.LVL262:
 2635 0024 FFF7FEFF 		bl	_Z21nrf24l01WriteRegisterP14NRF24L01Driverhh
 2636              	.LVL263:
 2637              		.loc 1 566 0
 2638 0028 D5F82431 		ldr	r3, [r5, #292]
 2639 002c 1A89     		ldrh	r2, [r3, #8]
 2640 002e 5B68     		ldr	r3, [r3, #4]
 2641 0030 9440     		lsls	r4, r4, r2
 2642 0032 A4B2     		uxth	r4, r4
 2643 0034 1C83     		strh	r4, [r3, #24]	@ movhi
 2644 0036 38BD     		pop	{r3, r4, r5, pc}
 2645              	.LBE342:
 2646              		.cfi_endproc
 2647              	.LFE305:
 2648              		.size	_Z15nrf24l01EnterTXP14NRF24L01Driver, .-_Z15nrf24l01EnterTXP14NRF24L01Driver
 2649              		.section	.text._ZL6writetPvPKhjm,"ax",%progbits
 2650              		.align	2
 2651              		.p2align 4,,15
 2652              		.thumb
 2653              		.thumb_func
 2654              		.type	_ZL6writetPvPKhjm, %function
 2655              	_ZL6writetPvPKhjm:
 2656              	.LFB270:
 2657              		.loc 1 87 0
 2658              		.cfi_startproc
 2659              		@ args = 0, pretend = 0, frame = 24
 2660              		@ frame_needed = 0, uses_anonymous_args = 0
 2661              	.LVL264:
 2662 0000 2DE9F04F 		push	{r4, r5, r6, r7, r8, r9, r10, fp, lr}
 2663              		.cfi_def_cfa_offset 36
 2664              		.cfi_offset 4, -36
 2665              		.cfi_offset 5, -32
 2666              		.cfi_offset 6, -28
 2667              		.cfi_offset 7, -24
 2668              		.cfi_offset 8, -20
 2669              		.cfi_offset 9, -16
 2670              		.cfi_offset 10, -12
 2671              		.cfi_offset 11, -8
 2672              		.cfi_offset 14, -4
 2673              	.LBB343:
 2674              		.loc 1 89 0
 2675 0004 4668     		ldr	r6, [r0, #4]
 2676              	.LVL265:
 2677              		.loc 1 90 0
 2678 0006 8642     		cmp	r6, r0
 2679              	.LBE343:
ARM GAS  /var/folders/m4/4md61f0s1_g0rzfghffqnxvr0000gn/T//ccmevqMd.s 			page 48


 2680              		.loc 1 87 0
 2681 0008 87B0     		sub	sp, sp, #28
 2682              		.cfi_def_cfa_offset 64
 2683              	.LBB361:
 2684              		.loc 1 91 0
 2685 000a 18BF     		it	ne
 2686 000c 0025     		movne	r5, #0
 2687              		.loc 1 90 0
 2688 000e 03D0     		beq	.L166
 2689              	.LVL266:
 2690              	.L151:
 2691              	.LBE361:
 2692              		.loc 1 144 0
 2693 0010 2846     		mov	r0, r5
 2694 0012 07B0     		add	sp, sp, #28
 2695              		.cfi_remember_state
 2696              		.cfi_def_cfa_offset 36
 2697              		@ sp needed
 2698 0014 BDE8F08F 		pop	{r4, r5, r6, r7, r8, r9, r10, fp, pc}
 2699              	.LVL267:
 2700              	.L166:
 2701              		.cfi_restore_state
 2702              	.LBB362:
 2703              		.loc 1 93 0
 2704 0018 06F5907A 		add	r10, r6, #288
 2705              	.LVL268:
 2706              	.LBB344:
 2707              	.LBB345:
 2708              		.loc 3 193 0
 2709 001c 5046     		mov	r0, r10
 2710              	.LVL269:
 2711 001e 9946     		mov	r9, r3
 2712 0020 1746     		mov	r7, r2
 2713 0022 4FF0FF33 		mov	r3, #-1
 2714              	.LVL270:
 2715 0026 0122     		movs	r2, #1
 2716              	.LVL271:
 2717 0028 8846     		mov	r8, r1
 2718 002a 01A9     		add	r1, sp, #4
 2719              	.LVL272:
 2720 002c FFF7FEFF 		bl	chEvtRegisterMaskWithFlags
 2721              	.LVL273:
 2722              	.LBE345:
 2723              	.LBE344:
 2724              		.loc 1 98 0
 2725 0030 3046     		mov	r0, r6
 2726 0032 FFF7FEFF 		bl	_Z17nrf24l01GetStatusP14NRF24L01Driver
 2727              	.LVL274:
 2728              		.loc 1 100 0
 2729 0036 10F00105 		ands	r5, r0, #1
 2730 003a 27D1     		bne	.L167
 2731              		.loc 1 106 0
 2732 003c 3046     		mov	r0, r6
 2733              	.LVL275:
 2734 003e FFF7FEFF 		bl	_Z15nrf24l01EnterTXP14NRF24L01Driver
 2735              	.LVL276:
 2736              		.loc 1 108 0
ARM GAS  /var/folders/m4/4md61f0s1_g0rzfghffqnxvr0000gn/T//ccmevqMd.s 			page 49


 2737 0042 4FB3     		cbz	r7, .L159
 2738 0044 AB46     		mov	fp, r5
 2739 0046 05E0     		b	.L157
 2740              	.LVL277:
 2741              	.L156:
 2742              	.LBB346:
 2743              		.loc 1 135 0
 2744 0048 5C44     		add	r4, r4, fp
 2745              	.LVL278:
 2746 004a 1FFA84FB 		uxth	fp, r4
 2747              	.LVL279:
 2748              	.LBE346:
 2749              		.loc 1 108 0
 2750 004e BB45     		cmp	fp, r7
 2751 0050 5D46     		mov	r5, fp
 2752              	.LVL280:
 2753 0052 22D2     		bcs	.L153
 2754              	.LVL281:
 2755              	.L157:
 2756              	.LBB355:
 2757              		.loc 1 110 0
 2758 0054 7C1B     		subs	r4, r7, r5
 2759 0056 202C     		cmp	r4, #32
 2760 0058 28BF     		it	cs
 2761 005a 2024     		movcs	r4, #32
 2762              	.LVL282:
 2763              	.LBB347:
 2764              	.LBB348:
 2765 005c E1B2     		uxtb	r1, r4
 2766 005e 3046     		mov	r0, r6
 2767 0060 08EB0502 		add	r2, r8, r5
 2768              	.LVL283:
 2769 0064 FFF7FEFF 		bl	_Z20nrf24l01WritePayloadP14NRF24L01DriverhPKh.part.3
 2770              	.LVL284:
 2771              	.LBE348:
 2772              	.LBE347:
 2773              		.loc 1 114 0
 2774 0068 0120     		movs	r0, #1
 2775 006a 4946     		mov	r1, r9
 2776 006c FFF7FEFF 		bl	chEvtWaitOneTimeout
 2777              	.LVL285:
 2778 0070 28B3     		cbz	r0, .L168
 2779              		.loc 1 121 0
 2780 0072 3046     		mov	r0, r6
 2781 0074 FFF7FEFF 		bl	_Z17nrf24l01GetStatusP14NRF24L01Driver
 2782              	.LVL286:
 2783              		.loc 1 123 0
 2784 0078 C206     		lsls	r2, r0, #27
 2785 007a 2DD4     		bmi	.L169
 2786              		.loc 1 132 0
 2787 007c 8306     		lsls	r3, r0, #26
 2788 007e E3D5     		bpl	.L156
 2789              	.LVL287:
 2790              	.LBB349:
 2791              	.LBB350:
 2792              		.loc 1 409 0
 2793 0080 3046     		mov	r0, r6
ARM GAS  /var/folders/m4/4md61f0s1_g0rzfghffqnxvr0000gn/T//ccmevqMd.s 			page 50


 2794              	.LVL288:
 2795 0082 0721     		movs	r1, #7
 2796 0084 2022     		movs	r2, #32
 2797 0086 FFF7FEFF 		bl	_Z21nrf24l01WriteRegisterP14NRF24L01Driverhh
 2798              	.LVL289:
 2799 008a DDE7     		b	.L156
 2800              	.LVL290:
 2801              	.L167:
 2802              	.LBE350:
 2803              	.LBE349:
 2804              	.LBE355:
 2805              		.loc 1 102 0
 2806 008c 5046     		mov	r0, r10
 2807              	.LVL291:
 2808 008e 01A9     		add	r1, sp, #4
 2809              	.LVL292:
 2810 0090 FFF7FEFF 		bl	chEvtUnregister
 2811              	.LVL293:
 2812              		.loc 1 103 0
 2813 0094 0025     		movs	r5, #0
 2814 0096 BBE7     		b	.L151
 2815              	.L159:
 2816              		.loc 1 108 0
 2817 0098 3D46     		mov	r5, r7
 2818              	.LVL294:
 2819              	.L153:
 2820              	.LBB356:
 2821              	.LBB357:
 2822              		.loc 1 571 0
 2823 009a D6F82431 		ldr	r3, [r6, #292]
 2824 009e 1989     		ldrh	r1, [r3, #8]
 2825 00a0 5A68     		ldr	r2, [r3, #4]
 2826 00a2 0123     		movs	r3, #1
 2827 00a4 8B40     		lsls	r3, r3, r1
 2828 00a6 9BB2     		uxth	r3, r3
 2829              	.LBE357:
 2830              	.LBE356:
 2831              		.loc 1 140 0
 2832 00a8 06F12C00 		add	r0, r6, #44
 2833              	.LBB359:
 2834              	.LBB358:
 2835              		.loc 1 571 0
 2836 00ac 5383     		strh	r3, [r2, #26]	@ movhi
 2837              	.LBE358:
 2838              	.LBE359:
 2839              		.loc 1 140 0
 2840 00ae 1821     		movs	r1, #24
 2841 00b0 FFF7FEFF 		bl	chEvtBroadcastFlags
 2842              	.LVL295:
 2843              		.loc 1 141 0
 2844 00b4 5046     		mov	r0, r10
 2845 00b6 01A9     		add	r1, sp, #4
 2846              	.LVL296:
 2847 00b8 FFF7FEFF 		bl	chEvtUnregister
 2848              	.LVL297:
 2849              		.loc 1 143 0
 2850 00bc A8E7     		b	.L151
ARM GAS  /var/folders/m4/4md61f0s1_g0rzfghffqnxvr0000gn/T//ccmevqMd.s 			page 51


 2851              	.LVL298:
 2852              	.L168:
 2853              	.LBB360:
 2854              		.loc 1 116 0
 2855 00be 5046     		mov	r0, r10
 2856 00c0 01A9     		add	r1, sp, #4
 2857              	.LVL299:
 2858 00c2 FFF7FEFF 		bl	chEvtUnregister
 2859              	.LVL300:
 2860              	.L165:
 2861              	.LBB351:
 2862              	.LBB352:
 2863              		.loc 1 571 0
 2864 00c6 D6F82431 		ldr	r3, [r6, #292]
 2865 00ca 1989     		ldrh	r1, [r3, #8]
 2866 00cc 5A68     		ldr	r2, [r3, #4]
 2867 00ce 0123     		movs	r3, #1
 2868 00d0 8B40     		lsls	r3, r3, r1
 2869 00d2 9BB2     		uxth	r3, r3
 2870 00d4 5383     		strh	r3, [r2, #26]	@ movhi
 2871              	.LBE352:
 2872              	.LBE351:
 2873              		.loc 1 129 0
 2874 00d6 9BE7     		b	.L151
 2875              	.LVL301:
 2876              	.L169:
 2877              		.loc 1 125 0
 2878 00d8 5046     		mov	r0, r10
 2879              	.LVL302:
 2880 00da 01A9     		add	r1, sp, #4
 2881              	.LVL303:
 2882 00dc FFF7FEFF 		bl	chEvtUnregister
 2883              	.LVL304:
 2884              	.LBB353:
 2885              	.LBB354:
 2886              		.loc 1 409 0
 2887 00e0 3046     		mov	r0, r6
 2888 00e2 0721     		movs	r1, #7
 2889 00e4 1022     		movs	r2, #16
 2890 00e6 FFF7FEFF 		bl	_Z21nrf24l01WriteRegisterP14NRF24L01Driverhh
 2891              	.LVL305:
 2892              	.LBE354:
 2893              	.LBE353:
 2894              		.loc 1 127 0
 2895 00ea 3046     		mov	r0, r6
 2896 00ec FFF7FEFF 		bl	_Z15nrf24l01FlushTXP14NRF24L01Driver
 2897              	.LVL306:
 2898 00f0 E9E7     		b	.L165
 2899              	.LBE360:
 2900              	.LBE362:
 2901              		.cfi_endproc
 2902              	.LFE270:
 2903              		.size	_ZL6writetPvPKhjm, .-_ZL6writetPvPKhjm
 2904 00f2 00BF     		.section	.text._ZL4puttPvhm,"ax",%progbits
 2905              		.align	2
 2906              		.p2align 4,,15
 2907              		.thumb
ARM GAS  /var/folders/m4/4md61f0s1_g0rzfghffqnxvr0000gn/T//ccmevqMd.s 			page 52


 2908              		.thumb_func
 2909              		.type	_ZL4puttPvhm, %function
 2910              	_ZL4puttPvhm:
 2911              	.LFB272:
 2912              		.loc 1 248 0
 2913              		.cfi_startproc
 2914              		@ args = 0, pretend = 0, frame = 8
 2915              		@ frame_needed = 0, uses_anonymous_args = 0
 2916              	.LVL307:
 2917 0000 10B5     		push	{r4, lr}
 2918              		.cfi_def_cfa_offset 8
 2919              		.cfi_offset 4, -8
 2920              		.cfi_offset 14, -4
 2921 0002 82B0     		sub	sp, sp, #8
 2922              		.cfi_def_cfa_offset 16
 2923              		.loc 1 248 0
 2924 0004 02AC     		add	r4, sp, #8
 2925 0006 1346     		mov	r3, r2
 2926 0008 04F8011D 		strb	r1, [r4, #-1]!
 2927              		.loc 1 249 0
 2928 000c 0122     		movs	r2, #1
 2929              	.LVL308:
 2930 000e 2146     		mov	r1, r4
 2931              	.LVL309:
 2932 0010 FFF7FEFF 		bl	_ZL6writetPvPKhjm
 2933              	.LVL310:
 2934 0014 B0FA80F0 		clz	r0, r0
 2935 0018 4009     		lsrs	r0, r0, #5
 2936              		.loc 1 252 0
 2937 001a 4042     		negs	r0, r0
 2938 001c 02B0     		add	sp, sp, #8
 2939              		.cfi_def_cfa_offset 8
 2940              		@ sp needed
 2941 001e 10BD     		pop	{r4, pc}
 2942              		.cfi_endproc
 2943              	.LFE272:
 2944              		.size	_ZL4puttPvhm, .-_ZL4puttPvhm
 2945              		.section	.text._ZL3putPvh,"ax",%progbits
 2946              		.align	2
 2947              		.p2align 4,,15
 2948              		.thumb
 2949              		.thumb_func
 2950              		.type	_ZL3putPvh, %function
 2951              	_ZL3putPvh:
 2952              	.LFB276:
 2953              		.loc 1 297 0
 2954              		.cfi_startproc
 2955              		@ args = 0, pretend = 0, frame = 8
 2956              		@ frame_needed = 0, uses_anonymous_args = 0
 2957              	.LVL311:
 2958 0000 10B5     		push	{r4, lr}
 2959              		.cfi_def_cfa_offset 8
 2960              		.cfi_offset 4, -8
 2961              		.cfi_offset 14, -4
 2962 0002 82B0     		sub	sp, sp, #8
 2963              		.cfi_def_cfa_offset 16
 2964 0004 02AC     		add	r4, sp, #8
ARM GAS  /var/folders/m4/4md61f0s1_g0rzfghffqnxvr0000gn/T//ccmevqMd.s 			page 53


 2965              	.LBB363:
 2966              	.LBB364:
 2967              		.loc 1 249 0
 2968 0006 0122     		movs	r2, #1
 2969 0008 04F8011D 		strb	r1, [r4, #-1]!
 2970              	.LVL312:
 2971 000c 4FF0FF33 		mov	r3, #-1
 2972 0010 2146     		mov	r1, r4
 2973              	.LVL313:
 2974 0012 FFF7FEFF 		bl	_ZL6writetPvPKhjm
 2975              	.LVL314:
 2976 0016 B0FA80F0 		clz	r0, r0
 2977 001a 4009     		lsrs	r0, r0, #5
 2978              	.LBE364:
 2979              	.LBE363:
 2980              		.loc 1 299 0
 2981 001c 4042     		negs	r0, r0
 2982 001e 02B0     		add	sp, sp, #8
 2983              		.cfi_def_cfa_offset 8
 2984              		@ sp needed
 2985 0020 10BD     		pop	{r4, pc}
 2986              		.cfi_endproc
 2987              	.LFE276:
 2988              		.size	_ZL3putPvh, .-_ZL3putPvh
 2989 0022 00BF     		.section	.text._ZL5writePvPKhj,"ax",%progbits
 2990              		.align	2
 2991              		.p2align 4,,15
 2992              		.thumb
 2993              		.thumb_func
 2994              		.type	_ZL5writePvPKhj, %function
 2995              	_ZL5writePvPKhj:
 2996              	.LFB274:
 2997              		.loc 1 287 0
 2998              		.cfi_startproc
 2999              		@ args = 0, pretend = 0, frame = 0
 3000              		@ frame_needed = 0, uses_anonymous_args = 0
 3001              		@ link register save eliminated.
 3002              	.LVL315:
 3003              		.loc 1 288 0
 3004 0000 4FF0FF33 		mov	r3, #-1
 3005 0004 FFF7FEBF 		b	_ZL6writetPvPKhjm
 3006              	.LVL316:
 3007              		.cfi_endproc
 3008              	.LFE274:
 3009              		.size	_ZL5writePvPKhj, .-_ZL5writePvPKhj
 3010              		.section	.text._Z20nrf24l01EnterStandbyP14NRF24L01Driver,"ax",%progbits
 3011              		.align	2
 3012              		.p2align 4,,15
 3013              		.global	_Z20nrf24l01EnterStandbyP14NRF24L01Driver
 3014              		.thumb
 3015              		.thumb_func
 3016              		.type	_Z20nrf24l01EnterStandbyP14NRF24L01Driver, %function
 3017              	_Z20nrf24l01EnterStandbyP14NRF24L01Driver:
 3018              	.LFB306:
 3019              		.loc 1 570 0
 3020              		.cfi_startproc
 3021              		@ args = 0, pretend = 0, frame = 0
ARM GAS  /var/folders/m4/4md61f0s1_g0rzfghffqnxvr0000gn/T//ccmevqMd.s 			page 54


 3022              		@ frame_needed = 0, uses_anonymous_args = 0
 3023              		@ link register save eliminated.
 3024              	.LVL317:
 3025              		.loc 1 571 0
 3026 0000 D0F82431 		ldr	r3, [r0, #292]
 3027 0004 1989     		ldrh	r1, [r3, #8]
 3028 0006 5A68     		ldr	r2, [r3, #4]
 3029 0008 0123     		movs	r3, #1
 3030 000a 8B40     		lsls	r3, r3, r1
 3031 000c 9BB2     		uxth	r3, r3
 3032 000e 5383     		strh	r3, [r2, #26]	@ movhi
 3033 0010 7047     		bx	lr
 3034              		.cfi_endproc
 3035              	.LFE306:
 3036              		.size	_Z20nrf24l01EnterStandbyP14NRF24L01Driver, .-_Z20nrf24l01EnterStandbyP14NRF24L01Driver
 3037 0012 00BF     		.section	.text._Z19nrf24l01EnablePipesP14NRF24L01Driverh,"ax",%progbits
 3038              		.align	2
 3039              		.p2align 4,,15
 3040              		.global	_Z19nrf24l01EnablePipesP14NRF24L01Driverh
 3041              		.thumb
 3042              		.thumb_func
 3043              		.type	_Z19nrf24l01EnablePipesP14NRF24L01Driverh, %function
 3044              	_Z19nrf24l01EnablePipesP14NRF24L01Driverh:
 3045              	.LFB307:
 3046              		.loc 1 575 0
 3047              		.cfi_startproc
 3048              		@ args = 0, pretend = 0, frame = 0
 3049              		@ frame_needed = 0, uses_anonymous_args = 0
 3050              	.LVL318:
 3051 0000 38B5     		push	{r3, r4, r5, lr}
 3052              		.cfi_def_cfa_offset 16
 3053              		.cfi_offset 3, -16
 3054              		.cfi_offset 4, -12
 3055              		.cfi_offset 5, -8
 3056              		.cfi_offset 14, -4
 3057              		.loc 1 575 0
 3058 0002 0C46     		mov	r4, r1
 3059              	.LBB365:
 3060              		.loc 1 576 0
 3061 0004 0221     		movs	r1, #2
 3062              	.LVL319:
 3063              	.LBE365:
 3064              		.loc 1 575 0
 3065 0006 0546     		mov	r5, r0
 3066              	.LBB366:
 3067              		.loc 1 576 0
 3068 0008 FFF7FEFF 		bl	_Z20nrf24l01ReadRegisterP14NRF24L01Driverh
 3069              	.LVL320:
 3070              		.loc 1 577 0
 3071 000c 04F03F04 		and	r4, r4, #63
 3072 0010 20EA0402 		bic	r2, r0, r4
 3073              	.LVL321:
 3074              		.loc 1 578 0
 3075 0014 D2B2     		uxtb	r2, r2
 3076 0016 2846     		mov	r0, r5
 3077 0018 0221     		movs	r1, #2
 3078              	.LBE366:
ARM GAS  /var/folders/m4/4md61f0s1_g0rzfghffqnxvr0000gn/T//ccmevqMd.s 			page 55


 3079              		.loc 1 579 0
 3080 001a BDE83840 		pop	{r3, r4, r5, lr}
 3081              		.cfi_restore 14
 3082              		.cfi_restore 5
 3083              		.cfi_restore 4
 3084              		.cfi_restore 3
 3085              		.cfi_def_cfa_offset 0
 3086              	.LVL322:
 3087              	.LBB367:
 3088              		.loc 1 578 0
 3089 001e FFF7FEBF 		b	_Z21nrf24l01WriteRegisterP14NRF24L01Driverhh
 3090              	.LVL323:
 3091              	.LBE367:
 3092              		.cfi_endproc
 3093              	.LFE307:
 3094              		.size	_Z19nrf24l01EnablePipesP14NRF24L01Driverh, .-_Z19nrf24l01EnablePipesP14NRF24L01Driverh
 3095 0022 00BF     		.section	.text._Z14nrf24l01ExtIRQP14NRF24L01Driver,"ax",%progbits
 3096              		.align	2
 3097              		.p2align 4,,15
 3098              		.global	_Z14nrf24l01ExtIRQP14NRF24L01Driver
 3099              		.thumb
 3100              		.thumb_func
 3101              		.type	_Z14nrf24l01ExtIRQP14NRF24L01Driver, %function
 3102              	_Z14nrf24l01ExtIRQP14NRF24L01Driver:
 3103              	.LFB308:
 3104              		.loc 1 582 0
 3105              		.cfi_startproc
 3106              		@ args = 0, pretend = 0, frame = 0
 3107              		@ frame_needed = 0, uses_anonymous_args = 0
 3108              	.LVL324:
 3109 0000 08B5     		push	{r3, lr}
 3110              		.cfi_def_cfa_offset 8
 3111              		.cfi_offset 3, -8
 3112              		.cfi_offset 14, -4
 3113              	.LBB368:
 3114              	.LBB369:
 3115              	.LBB370:
 3116              	.LBB371:
 3117              	.LBB372:
 3118              		.loc 2 548 0
 3119 0002 2023     		movs	r3, #32
 3120              	@ 548 "ChibiOS_16.1.4/os/ext/CMSIS/include/core_cmFunc.h" 1
 3121 0004 83F31188 		MSR basepri, r3
 3122              	@ 0 "" 2
 3123              		.thumb
 3124              	.LBE372:
 3125              	.LBE371:
 3126              	.LBE370:
 3127              	.LBE369:
 3128              	.LBE368:
 3129              		.loc 1 584 0
 3130 0008 0121     		movs	r1, #1
 3131 000a 00F59070 		add	r0, r0, #288
 3132              	.LVL325:
 3133 000e FFF7FEFF 		bl	chEvtBroadcastFlagsI
 3134              	.LVL326:
 3135              	.LBB373:
ARM GAS  /var/folders/m4/4md61f0s1_g0rzfghffqnxvr0000gn/T//ccmevqMd.s 			page 56


 3136              	.LBB374:
 3137              	.LBB375:
 3138              	.LBB376:
 3139              	.LBB377:
 3140              		.loc 2 548 0
 3141 0012 0023     		movs	r3, #0
 3142              	@ 548 "ChibiOS_16.1.4/os/ext/CMSIS/include/core_cmFunc.h" 1
 3143 0014 83F31188 		MSR basepri, r3
 3144              	@ 0 "" 2
 3145              		.thumb
 3146 0018 08BD     		pop	{r3, pc}
 3147              	.LBE377:
 3148              	.LBE376:
 3149              	.LBE375:
 3150              	.LBE374:
 3151              	.LBE373:
 3152              		.cfi_endproc
 3153              	.LFE308:
 3154              		.size	_Z14nrf24l01ExtIRQP14NRF24L01Driver, .-_Z14nrf24l01ExtIRQP14NRF24L01Driver
 3155              		.global	nrf24l01
 3156 001a 00BF     		.section	.rodata
 3157              		.align	2
 3158              		.set	.LANCHOR2,. + 0
 3159              	.LC0:
 3160 0000 50       		.byte	80
 3161 0001 73       		.byte	115
 3162              		.section	.rodata._ZL4addr,"a",%progbits
 3163              		.align	2
 3164              		.set	.LANCHOR6,. + 0
 3165              		.type	_ZL4addr, %object
 3166              		.size	_ZL4addr, 5
 3167              	_ZL4addr:
 3168 0000 51554144 		.ascii	"QUAD\000"
 3168      00
 3169              		.section	.rodata._ZL6extcfg,"a",%progbits
 3170              		.align	2
 3171              		.set	.LANCHOR4,. + 0
 3172              		.type	_ZL6extcfg, %object
 3173              		.size	_ZL6extcfg, 184
 3174              	_ZL6extcfg:
 3175 0000 00000000 		.word	0
 3176 0004 00000000 		.word	0
 3177 0008 00000000 		.word	0
 3178 000c 00000000 		.word	0
 3179 0010 00000000 		.word	0
 3180 0014 00000000 		.word	0
 3181 0018 00000000 		.word	0
 3182 001c 00000000 		.word	0
 3183 0020 00000000 		.word	0
 3184 0024 00000000 		.word	0
 3185 0028 00000000 		.word	0
 3186 002c 00000000 		.word	0
 3187 0030 00000000 		.word	0
 3188 0034 00000000 		.word	0
 3189 0038 00000000 		.word	0
 3190 003c 00000000 		.word	0
 3191 0040 00000000 		.word	0
ARM GAS  /var/folders/m4/4md61f0s1_g0rzfghffqnxvr0000gn/T//ccmevqMd.s 			page 57


 3192 0044 00000000 		.word	0
 3193 0048 00000000 		.word	0
 3194 004c 00000000 		.word	0
 3195 0050 00000000 		.word	0
 3196 0054 00000000 		.word	0
 3197 0058 00000000 		.word	0
 3198 005c 00000000 		.word	0
 3199 0060 00000000 		.word	0
 3200 0064 00000000 		.word	0
 3201 0068 00000000 		.word	0
 3202 006c 00000000 		.word	0
 3203 0070 00000000 		.word	0
 3204 0074 00000000 		.word	0
 3205 0078 26000000 		.word	38
 3206 007c 00000000 		.word	_ZL14nrfExtCallbackP9EXTDriverm
 3207 0080 00000000 		.word	0
 3208 0084 00000000 		.word	0
 3209 0088 00000000 		.word	0
 3210 008c 00000000 		.word	0
 3211 0090 00000000 		.word	0
 3212 0094 00000000 		.word	0
 3213 0098 00000000 		.word	0
 3214 009c 00000000 		.word	0
 3215 00a0 00000000 		.word	0
 3216 00a4 00000000 		.word	0
 3217 00a8 00000000 		.word	0
 3218 00ac 00000000 		.word	0
 3219 00b0 00000000 		.word	0
 3220 00b4 00000000 		.word	0
 3221              		.section	.rodata._ZL14nrf24l01Config,"a",%progbits
 3222              		.align	2
 3223              		.set	.LANCHOR5,. + 0
 3224              		.type	_ZL14nrf24l01Config, %object
 3225              		.size	_ZL14nrf24l01Config, 12
 3226              	_ZL14nrf24l01Config:
 3227 0000 00000000 		.word	SPID1
 3228 0004 00040240 		.word	1073873920
 3229 0008 0100     		.short	1
 3230 000a 0000     		.space	2
 3231              		.section	.rodata._ZL3vmt,"a",%progbits
 3232              		.align	2
 3233              		.set	.LANCHOR1,. + 0
 3234              		.type	_ZL3vmt, %object
 3235              		.size	_ZL3vmt, 32
 3236              	_ZL3vmt:
 3237 0000 00000000 		.word	_ZL5writePvPKhj
 3238 0004 00000000 		.word	_ZL4readPvPhj
 3239 0008 00000000 		.word	_ZL3putPvh
 3240 000c 00000000 		.word	_ZL3getPv
 3241 0010 00000000 		.word	_ZL4puttPvhm
 3242 0014 00000000 		.word	_ZL4gettPvm
 3243 0018 00000000 		.word	_ZL6writetPvPKhjm
 3244 001c 00000000 		.word	_ZL5readtPvPhjm
 3245              		.section	.bss.nrf24l01,"aw",%nobits
 3246              		.align	2
 3247              		.set	.LANCHOR0,. + 0
 3248              		.type	nrf24l01, %object
ARM GAS  /var/folders/m4/4md61f0s1_g0rzfghffqnxvr0000gn/T//ccmevqMd.s 			page 58


 3249              		.size	nrf24l01, 296
 3250              	nrf24l01:
 3251 0000 00000000 		.space	296
 3251      00000000 
 3251      00000000 
 3251      00000000 
 3251      00000000 
 3252              		.section	.rodata._ZL11nrf24l01SPI,"a",%progbits
 3253              		.align	2
 3254              		.set	.LANCHOR3,. + 0
 3255              		.type	_ZL11nrf24l01SPI, %object
 3256              		.size	_ZL11nrf24l01SPI, 12
 3257              	_ZL11nrf24l01SPI:
 3258 0000 00000000 		.word	0
 3259 0004 00000240 		.word	1073872896
 3260 0008 0400     		.short	4
 3261 000a 0800     		.short	8
 3262              		.text
 3263              	.Letext0:
 3264              		.file 4 "/usr/local/Cellar/gcc-arm-none-eabi-49/20150609/lib/gcc/arm-none-eabi/4.9.3/include/stdde
 3265              		.file 5 "/usr/local/Cellar/gcc-arm-none-eabi-49/20150609/arm-none-eabi/include/machine/_default_ty
 3266              		.file 6 "/usr/local/Cellar/gcc-arm-none-eabi-49/20150609/arm-none-eabi/include/sys/_stdint.h"
 3267              		.file 7 "ChibiOS_16.1.4/os/rt/ports/ARMCMx/compilers/GCC/chtypes.h"
 3268              		.file 8 "ChibiOS_16.1.4/os/rt/include/chsystypes.h"
 3269              		.file 9 "ChibiOS_16.1.4/os/rt/include/chschd.h"
 3270              		.file 10 "ChibiOS_16.1.4/os/ext/CMSIS/ST/STM32F4xx/stm32f446xx.h"
 3271              		.file 11 "ChibiOS_16.1.4/os/ext/CMSIS/ST/STM32F4xx/stm32f4xx.h"
 3272              		.file 12 "ChibiOS_16.1.4/os/rt/ports/ARMCMx/chcore.h"
 3273              		.file 13 "ChibiOS_16.1.4/os/rt/ports/ARMCMx/chcore_v7m.h"
 3274              		.file 14 "ChibiOS_16.1.4/os/rt/include/chtm.h"
 3275              		.file 15 "ChibiOS_16.1.4/os/rt/include/chsem.h"
 3276              		.file 16 "ChibiOS_16.1.4/os/rt/include/chmtx.h"
 3277              		.file 17 "ChibiOS_16.1.4/os/hal/ports/STM32/LLD/DMAv2/stm32_dma.h"
 3278              		.file 18 "ChibiOS_16.1.4/os/hal/ports/STM32/LLD/GPIOv2/pal_lld.h"
 3279              		.file 19 "ChibiOS_16.1.4/os/hal/include/ext.h"
 3280              		.file 20 "ChibiOS_16.1.4/os/hal/ports/STM32/LLD/EXTIv1/ext_lld.h"
 3281              		.file 21 "ChibiOS_16.1.4/os/hal/include/spi.h"
 3282              		.file 22 "ChibiOS_16.1.4/os/hal/ports/STM32/LLD/SPIv1/spi_lld.h"
 3283              		.file 23 "nrf24l01.h"
 3284              		.file 24 "ChibiOS_16.1.4/os/rt/include/chsys.h"
 3285              		.file 25 "ChibiOS_16.1.4/os/ext/CMSIS/include/core_cm4.h"