ARM GAS  /var/folders/m4/4md61f0s1_g0rzfghffqnxvr0000gn/T//cchEhHjd.s 			page 1


   1              		.syntax unified
   2              		.cpu cortex-m4
   3              		.eabi_attribute 27, 1
   4              		.eabi_attribute 28, 1
   5              		.fpu fpv4-sp-d16
   6              		.eabi_attribute 20, 1
   7              		.eabi_attribute 21, 1
   8              		.eabi_attribute 23, 3
   9              		.eabi_attribute 24, 1
  10              		.eabi_attribute 25, 1
  11              		.eabi_attribute 26, 1
  12              		.eabi_attribute 30, 2
  13              		.eabi_attribute 34, 1
  14              		.eabi_attribute 18, 4
  15              		.thumb
  16              		.syntax unified
  17              		.file	"nrf24l01.cpp"
  18              		.text
  19              	.Ltext0:
  20              		.cfi_sections	.debug_frame
  21              		.section	.text._ZL14nrfExtCallbackP9EXTDriverm,"ax",%progbits
  22              		.align	2
  23              		.p2align 4,,15
  24              		.thumb
  25              		.thumb_func
  26              		.type	_ZL14nrfExtCallbackP9EXTDriverm, %function
  27              	_ZL14nrfExtCallbackP9EXTDriverm:
  28              	.LFB268:
  29              		.file 1 "nrf24l01.cpp"
  30              		.loc 1 25 0
  31              		.cfi_startproc
  32              		@ args = 0, pretend = 0, frame = 0
  33              		@ frame_needed = 0, uses_anonymous_args = 0
  34              	.LVL0:
  35 0000 08B5     		push	{r3, lr}
  36              		.cfi_def_cfa_offset 8
  37              		.cfi_offset 3, -8
  38              		.cfi_offset 14, -4
  39              	.LBB117:
  40              	.LBB118:
  41              	.LBB119:
  42              	.LBB120:
  43              	.LBB121:
  44              	.LBB122:
  45              	.LBB123:
  46              		.file 2 "ChibiOS_16.1.4/os/ext/CMSIS/include/core_cmFunc.h"
  47              		.loc 2 548 0
  48 0002 2023     		movs	r3, #32
  49              		.syntax unified
  50              	@ 548 "ChibiOS_16.1.4/os/ext/CMSIS/include/core_cmFunc.h" 1
  51 0004 83F31188 		MSR basepri, r3
  52              	@ 0 "" 2
  53              	.LVL1:
  54              		.thumb
  55              		.syntax unified
  56              	.LBE123:
  57              	.LBE122:
ARM GAS  /var/folders/m4/4md61f0s1_g0rzfghffqnxvr0000gn/T//cchEhHjd.s 			page 2


  58              	.LBE121:
  59              	.LBE120:
  60              	.LBE119:
  61              		.loc 1 584 0
  62 0008 0121     		movs	r1, #1
  63              	.LVL2:
  64 000a 0348     		ldr	r0, .L3
  65              	.LVL3:
  66 000c FFF7FEFF 		bl	chEvtBroadcastFlagsI
  67              	.LVL4:
  68              	.LBB124:
  69              	.LBB125:
  70              	.LBB126:
  71              	.LBB127:
  72              	.LBB128:
  73              		.loc 2 548 0
  74 0010 0023     		movs	r3, #0
  75              		.syntax unified
  76              	@ 548 "ChibiOS_16.1.4/os/ext/CMSIS/include/core_cmFunc.h" 1
  77 0012 83F31188 		MSR basepri, r3
  78              	@ 0 "" 2
  79              	.LVL5:
  80              		.thumb
  81              		.syntax unified
  82 0016 08BD     		pop	{r3, pc}
  83              	.L4:
  84              		.align	2
  85              	.L3:
  86 0018 20010000 		.word	.LANCHOR0+288
  87              	.LBE128:
  88              	.LBE127:
  89              	.LBE126:
  90              	.LBE125:
  91              	.LBE124:
  92              	.LBE118:
  93              	.LBE117:
  94              		.cfi_endproc
  95              	.LFE268:
  96              		.size	_ZL14nrfExtCallbackP9EXTDriverm, .-_ZL14nrfExtCallbackP9EXTDriverm
  97              		.section	.text._Z19nrf24l01ReadPayloadP14NRF24L01DriverhPhS1_.part.2,"ax",%progbits
  98              		.align	2
  99              		.p2align 4,,15
 100              		.thumb
 101              		.thumb_func
 102              		.type	_Z19nrf24l01ReadPayloadP14NRF24L01DriverhPhS1_.part.2, %function
 103              	_Z19nrf24l01ReadPayloadP14NRF24L01DriverhPhS1_.part.2:
 104              	.LFB311:
 105              		.loc 1 479 0
 106              		.cfi_startproc
 107              		@ args = 0, pretend = 0, frame = 8
 108              		@ frame_needed = 0, uses_anonymous_args = 0
 109              	.LVL6:
 110 0000 F0B5     		push	{r4, r5, r6, r7, lr}
 111              		.cfi_def_cfa_offset 20
 112              		.cfi_offset 4, -20
 113              		.cfi_offset 5, -16
 114              		.cfi_offset 6, -12
ARM GAS  /var/folders/m4/4md61f0s1_g0rzfghffqnxvr0000gn/T//cchEhHjd.s 			page 3


 115              		.cfi_offset 7, -8
 116              		.cfi_offset 14, -4
 117 0002 83B0     		sub	sp, sp, #12
 118              		.cfi_def_cfa_offset 32
 119              		.loc 1 479 0
 120 0004 0446     		mov	r4, r0
 121              		.loc 1 484 0
 122 0006 6125     		movs	r5, #97
 123              		.loc 1 487 0
 124 0008 D0F82401 		ldr	r0, [r0, #292]
 125              	.LVL7:
 126              		.loc 1 484 0
 127 000c 8DF80650 		strb	r5, [sp, #6]
 128              		.loc 1 487 0
 129 0010 0068     		ldr	r0, [r0]
 130              		.loc 1 479 0
 131 0012 0E46     		mov	r6, r1
 132 0014 1746     		mov	r7, r2
 133 0016 1D46     		mov	r5, r3
 134              		.loc 1 487 0
 135 0018 FFF7FEFF 		bl	spiSelect
 136              	.LVL8:
 137              		.loc 1 488 0
 138 001c D4F82421 		ldr	r2, [r4, #292]
 139 0020 0DF10703 		add	r3, sp, #7
 140 0024 1068     		ldr	r0, [r2]
 141 0026 0121     		movs	r1, #1
 142 0028 0DF10602 		add	r2, sp, #6
 143 002c FFF7FEFF 		bl	spiExchange
 144              	.LVL9:
 145              		.loc 1 489 0
 146 0030 D4F82431 		ldr	r3, [r4, #292]
 147 0034 3A46     		mov	r2, r7
 148 0036 3146     		mov	r1, r6
 149 0038 1868     		ldr	r0, [r3]
 150 003a FFF7FEFF 		bl	spiReceive
 151              	.LVL10:
 152              		.loc 1 490 0
 153 003e D4F82431 		ldr	r3, [r4, #292]
 154 0042 1868     		ldr	r0, [r3]
 155 0044 FFF7FEFF 		bl	spiUnselect
 156              	.LVL11:
 157              		.loc 1 492 0
 158 0048 9DF80730 		ldrb	r3, [sp, #7]	@ zero_extendqisi2
 159 004c C3F34203 		ubfx	r3, r3, #1, #3
 160 0050 2B70     		strb	r3, [r5]
 161              		.loc 1 493 0
 162 0052 03B0     		add	sp, sp, #12
 163              		.cfi_def_cfa_offset 20
 164              		@ sp needed
 165 0054 F0BD     		pop	{r4, r5, r6, r7, pc}
 166              		.cfi_endproc
 167              	.LFE311:
 168              		.size	_Z19nrf24l01ReadPayloadP14NRF24L01DriverhPhS1_.part.2, .-_Z19nrf24l01ReadPayloadP14NRF24L01D
 169 0056 00BF     		.section	.text._Z20nrf24l01WritePayloadP14NRF24L01DriverhPKh.part.3,"ax",%progbits
 170              		.align	2
 171              		.p2align 4,,15
ARM GAS  /var/folders/m4/4md61f0s1_g0rzfghffqnxvr0000gn/T//cchEhHjd.s 			page 4


 172              		.thumb
 173              		.thumb_func
 174              		.type	_Z20nrf24l01WritePayloadP14NRF24L01DriverhPKh.part.3, %function
 175              	_Z20nrf24l01WritePayloadP14NRF24L01DriverhPKh.part.3:
 176              	.LFB312:
 177              		.loc 1 495 0
 178              		.cfi_startproc
 179              		@ args = 0, pretend = 0, frame = 8
 180              		@ frame_needed = 0, uses_anonymous_args = 0
 181              	.LVL12:
 182 0000 F0B5     		push	{r4, r5, r6, r7, lr}
 183              		.cfi_def_cfa_offset 20
 184              		.cfi_offset 4, -20
 185              		.cfi_offset 5, -16
 186              		.cfi_offset 6, -12
 187              		.cfi_offset 7, -8
 188              		.cfi_offset 14, -4
 189 0002 83B0     		sub	sp, sp, #12
 190              		.cfi_def_cfa_offset 32
 191              		.loc 1 495 0
 192 0004 0446     		mov	r4, r0
 193              		.loc 1 500 0
 194 0006 02AD     		add	r5, sp, #8
 195 0008 A020     		movs	r0, #160
 196              	.LVL13:
 197              		.loc 1 502 0
 198 000a D4F82431 		ldr	r3, [r4, #292]
 199              		.loc 1 500 0
 200 000e 05F8010D 		strb	r0, [r5, #-1]!
 201              		.loc 1 502 0
 202 0012 1868     		ldr	r0, [r3]
 203              		.loc 1 495 0
 204 0014 0E46     		mov	r6, r1
 205 0016 1746     		mov	r7, r2
 206              		.loc 1 502 0
 207 0018 FFF7FEFF 		bl	spiSelect
 208              	.LVL14:
 209              		.loc 1 503 0
 210 001c D4F82431 		ldr	r3, [r4, #292]
 211 0020 2A46     		mov	r2, r5
 212 0022 1868     		ldr	r0, [r3]
 213 0024 0121     		movs	r1, #1
 214 0026 FFF7FEFF 		bl	spiSend
 215              	.LVL15:
 216              		.loc 1 504 0
 217 002a D4F82431 		ldr	r3, [r4, #292]
 218 002e 3A46     		mov	r2, r7
 219 0030 3146     		mov	r1, r6
 220 0032 1868     		ldr	r0, [r3]
 221 0034 FFF7FEFF 		bl	spiSend
 222              	.LVL16:
 223              		.loc 1 505 0
 224 0038 D4F82431 		ldr	r3, [r4, #292]
 225 003c 1868     		ldr	r0, [r3]
 226 003e FFF7FEFF 		bl	spiUnselect
 227              	.LVL17:
 228              		.loc 1 506 0
ARM GAS  /var/folders/m4/4md61f0s1_g0rzfghffqnxvr0000gn/T//cchEhHjd.s 			page 5


 229 0042 03B0     		add	sp, sp, #12
 230              		.cfi_def_cfa_offset 20
 231              		@ sp needed
 232 0044 F0BD     		pop	{r4, r5, r6, r7, pc}
 233              		.cfi_endproc
 234              	.LFE312:
 235              		.size	_Z20nrf24l01WritePayloadP14NRF24L01DriverhPKh.part.3, .-_Z20nrf24l01WritePayloadP14NRF24L01D
 236 0046 00BF     		.section	.text._Z18nrf24l01ObjectInitP14NRF24L01Driver,"ax",%progbits
 237              		.align	2
 238              		.p2align 4,,15
 239              		.global	_Z18nrf24l01ObjectInitP14NRF24L01Driver
 240              		.thumb
 241              		.thumb_func
 242              		.type	_Z18nrf24l01ObjectInitP14NRF24L01Driver, %function
 243              	_Z18nrf24l01ObjectInitP14NRF24L01Driver:
 244              	.LFB278:
 245              		.loc 1 311 0
 246              		.cfi_startproc
 247              		@ args = 0, pretend = 0, frame = 0
 248              		@ frame_needed = 0, uses_anonymous_args = 0
 249              		@ link register save eliminated.
 250              	.LVL18:
 251 0000 10B4     		push	{r4}
 252              		.cfi_def_cfa_offset 4
 253              		.cfi_offset 4, -4
 254 0002 0B4C     		ldr	r4, .L14
 255 0004 00F12C03 		add	r3, r0, #44
 256 0008 00F5A671 		add	r1, r0, #332
 257              	.LBB129:
 258              		.loc 1 315 0
 259 000c 0022     		movs	r2, #0
 260              	.LVL19:
 261              	.L10:
 262              		.loc 1 314 0 discriminator 2
 263 000e 43F82C4C 		str	r4, [r3, #-44]
 264              		.loc 1 315 0 discriminator 2
 265 0012 03F8042C 		strb	r2, [r3, #-4]
 266              		.loc 1 316 0 discriminator 2
 267 0016 43F8280C 		str	r0, [r3, #-40]
 268              	.LVL20:
 269              	.LBB130:
 270              	.LBB131:
 271              		.file 3 "ChibiOS_16.1.4/os/rt/include/chevents.h"
 272              		.loc 3 172 0 discriminator 2
 273 001a 1B60     		str	r3, [r3]
 274              	.LVL21:
 275 001c 3033     		adds	r3, r3, #48
 276              	.LBE131:
 277              	.LBE130:
 278              		.loc 1 312 0 discriminator 2
 279 001e 8B42     		cmp	r3, r1
 280 0020 F5D1     		bne	.L10
 281              	.LVL22:
 282              	.LBE129:
 283              		.loc 1 320 0
 284 0022 00F59073 		add	r3, r0, #288
 285              	.LVL23:
ARM GAS  /var/folders/m4/4md61f0s1_g0rzfghffqnxvr0000gn/T//cchEhHjd.s 			page 6


 286              	.LBB132:
 287              	.LBB133:
 288              		.loc 3 172 0
 289 0026 C0F82031 		str	r3, [r0, #288]
 290              	.LVL24:
 291              	.LBE133:
 292              	.LBE132:
 293              		.loc 1 321 0
 294 002a 5DF8044B 		ldr	r4, [sp], #4
 295              		.cfi_restore 4
 296              		.cfi_def_cfa_offset 0
 297 002e 7047     		bx	lr
 298              	.L15:
 299              		.align	2
 300              	.L14:
 301 0030 00000000 		.word	.LANCHOR1
 302              		.cfi_endproc
 303              	.LFE278:
 304              		.size	_Z18nrf24l01ObjectInitP14NRF24L01Driver, .-_Z18nrf24l01ObjectInitP14NRF24L01Driver
 305              		.section	.text._Z13nrf24l01StartP14NRF24L01DriverPK14NRF24L01Config,"ax",%progbits
 306              		.align	2
 307              		.p2align 4,,15
 308              		.global	_Z13nrf24l01StartP14NRF24L01DriverPK14NRF24L01Config
 309              		.thumb
 310              		.thumb_func
 311              		.type	_Z13nrf24l01StartP14NRF24L01DriverPK14NRF24L01Config, %function
 312              	_Z13nrf24l01StartP14NRF24L01DriverPK14NRF24L01Config:
 313              	.LFB279:
 314              		.loc 1 324 0
 315              		.cfi_startproc
 316              		@ args = 0, pretend = 0, frame = 0
 317              		@ frame_needed = 0, uses_anonymous_args = 0
 318              		@ link register save eliminated.
 319              	.LVL25:
 320              		.loc 1 325 0
 321 0000 C0F82411 		str	r1, [r0, #292]
 322 0004 7047     		bx	lr
 323              		.cfi_endproc
 324              	.LFE279:
 325              		.size	_Z13nrf24l01StartP14NRF24L01DriverPK14NRF24L01Config, .-_Z13nrf24l01StartP14NRF24L01DriverPK
 326 0006 00BF     		.section	.text._Z21nrf24l01WriteRegisterP14NRF24L01Driverhh,"ax",%progbits
 327              		.align	2
 328              		.p2align 4,,15
 329              		.global	_Z21nrf24l01WriteRegisterP14NRF24L01Driverhh
 330              		.thumb
 331              		.thumb_func
 332              		.type	_Z21nrf24l01WriteRegisterP14NRF24L01Driverhh, %function
 333              	_Z21nrf24l01WriteRegisterP14NRF24L01Driverhh:
 334              	.LFB280:
 335              		.loc 1 329 0
 336              		.cfi_startproc
 337              		@ args = 0, pretend = 0, frame = 8
 338              		@ frame_needed = 0, uses_anonymous_args = 0
 339              	.LVL26:
 340 0000 10B5     		push	{r4, lr}
 341              		.cfi_def_cfa_offset 8
 342              		.cfi_offset 4, -8
ARM GAS  /var/folders/m4/4md61f0s1_g0rzfghffqnxvr0000gn/T//cchEhHjd.s 			page 7


 343              		.cfi_offset 14, -4
 344              		.loc 1 330 0
 345 0002 01F01F01 		and	r1, r1, #31
 346              	.LVL27:
 347              		.loc 1 329 0
 348 0006 82B0     		sub	sp, sp, #8
 349              		.cfi_def_cfa_offset 16
 350              		.loc 1 330 0
 351 0008 41F02001 		orr	r1, r1, #32
 352              		.loc 1 332 0
 353 000c D0F82431 		ldr	r3, [r0, #292]
 354              		.loc 1 330 0
 355 0010 8DF80410 		strb	r1, [sp, #4]
 356              		.loc 1 329 0
 357 0014 0446     		mov	r4, r0
 358              		.loc 1 330 0
 359 0016 8DF80520 		strb	r2, [sp, #5]
 360              		.loc 1 332 0
 361 001a 1868     		ldr	r0, [r3]
 362              	.LVL28:
 363 001c FFF7FEFF 		bl	spiSelect
 364              	.LVL29:
 365              		.loc 1 333 0
 366 0020 D4F82431 		ldr	r3, [r4, #292]
 367 0024 01AA     		add	r2, sp, #4
 368 0026 1868     		ldr	r0, [r3]
 369 0028 0221     		movs	r1, #2
 370 002a FFF7FEFF 		bl	spiSend
 371              	.LVL30:
 372              		.loc 1 334 0
 373 002e D4F82431 		ldr	r3, [r4, #292]
 374 0032 1868     		ldr	r0, [r3]
 375 0034 FFF7FEFF 		bl	spiUnselect
 376              	.LVL31:
 377              		.loc 1 335 0
 378 0038 02B0     		add	sp, sp, #8
 379              		.cfi_def_cfa_offset 8
 380              		@ sp needed
 381 003a 10BD     		pop	{r4, pc}
 382              		.cfi_endproc
 383              	.LFE280:
 384              		.size	_Z21nrf24l01WriteRegisterP14NRF24L01Driverhh, .-_Z21nrf24l01WriteRegisterP14NRF24L01Driverhh
 385              		.section	.text._Z20nrf24l01ReadRegisterP14NRF24L01Driverh,"ax",%progbits
 386              		.align	2
 387              		.p2align 4,,15
 388              		.global	_Z20nrf24l01ReadRegisterP14NRF24L01Driverh
 389              		.thumb
 390              		.thumb_func
 391              		.type	_Z20nrf24l01ReadRegisterP14NRF24L01Driverh, %function
 392              	_Z20nrf24l01ReadRegisterP14NRF24L01Driverh:
 393              	.LFB281:
 394              		.loc 1 338 0
 395              		.cfi_startproc
 396              		@ args = 0, pretend = 0, frame = 8
 397              		@ frame_needed = 0, uses_anonymous_args = 0
 398              	.LVL32:
 399 0000 10B5     		push	{r4, lr}
ARM GAS  /var/folders/m4/4md61f0s1_g0rzfghffqnxvr0000gn/T//cchEhHjd.s 			page 8


 400              		.cfi_def_cfa_offset 8
 401              		.cfi_offset 4, -8
 402              		.cfi_offset 14, -4
 403 0002 82B0     		sub	sp, sp, #8
 404              		.cfi_def_cfa_offset 16
 405              		.loc 1 339 0
 406 0004 0023     		movs	r3, #0
 407 0006 01F01F01 		and	r1, r1, #31
 408              	.LVL33:
 409              		.loc 1 342 0
 410 000a D0F82421 		ldr	r2, [r0, #292]
 411              		.loc 1 339 0
 412 000e ADF80030 		strh	r3, [sp]	@ movhi
 413              		.loc 1 338 0
 414 0012 0446     		mov	r4, r0
 415              		.loc 1 340 0
 416 0014 8DF80430 		strb	r3, [sp, #4]
 417              		.loc 1 339 0
 418 0018 8DF80010 		strb	r1, [sp]
 419              		.loc 1 340 0
 420 001c 8DF80530 		strb	r3, [sp, #5]
 421              		.loc 1 342 0
 422 0020 1068     		ldr	r0, [r2]
 423              	.LVL34:
 424 0022 FFF7FEFF 		bl	spiSelect
 425              	.LVL35:
 426              		.loc 1 343 0
 427 0026 D4F82421 		ldr	r2, [r4, #292]
 428 002a 01AB     		add	r3, sp, #4
 429 002c 1068     		ldr	r0, [r2]
 430 002e 0221     		movs	r1, #2
 431 0030 6A46     		mov	r2, sp
 432 0032 FFF7FEFF 		bl	spiExchange
 433              	.LVL36:
 434              		.loc 1 344 0
 435 0036 D4F82431 		ldr	r3, [r4, #292]
 436 003a 1868     		ldr	r0, [r3]
 437 003c FFF7FEFF 		bl	spiUnselect
 438              	.LVL37:
 439              		.loc 1 347 0
 440 0040 9DF80500 		ldrb	r0, [sp, #5]	@ zero_extendqisi2
 441 0044 02B0     		add	sp, sp, #8
 442              		.cfi_def_cfa_offset 8
 443              		@ sp needed
 444 0046 10BD     		pop	{r4, pc}
 445              		.cfi_endproc
 446              	.LFE281:
 447              		.size	_Z20nrf24l01ReadRegisterP14NRF24L01Driverh, .-_Z20nrf24l01ReadRegisterP14NRF24L01Driverh
 448              		.section	.text._Z28nrf24l01WriteAddressRegisterP14NRF24L01DriverhPKh,"ax",%progbits
 449              		.align	2
 450              		.p2align 4,,15
 451              		.global	_Z28nrf24l01WriteAddressRegisterP14NRF24L01DriverhPKh
 452              		.thumb
 453              		.thumb_func
 454              		.type	_Z28nrf24l01WriteAddressRegisterP14NRF24L01DriverhPKh, %function
 455              	_Z28nrf24l01WriteAddressRegisterP14NRF24L01DriverhPKh:
 456              	.LFB282:
ARM GAS  /var/folders/m4/4md61f0s1_g0rzfghffqnxvr0000gn/T//cchEhHjd.s 			page 9


 457              		.loc 1 350 0
 458              		.cfi_startproc
 459              		@ args = 0, pretend = 0, frame = 8
 460              		@ frame_needed = 0, uses_anonymous_args = 0
 461              	.LVL38:
 462 0000 70B5     		push	{r4, r5, r6, lr}
 463              		.cfi_def_cfa_offset 16
 464              		.cfi_offset 4, -16
 465              		.cfi_offset 5, -12
 466              		.cfi_offset 6, -8
 467              		.cfi_offset 14, -4
 468 0002 82B0     		sub	sp, sp, #8
 469              		.cfi_def_cfa_offset 24
 470              		.loc 1 351 0
 471 0004 02AD     		add	r5, sp, #8
 472 0006 01F01F01 		and	r1, r1, #31
 473              	.LVL39:
 474 000a 41F02001 		orr	r1, r1, #32
 475 000e 05F8011D 		strb	r1, [r5, #-1]!
 476              		.loc 1 353 0
 477 0012 D0F82431 		ldr	r3, [r0, #292]
 478              		.loc 1 350 0
 479 0016 0446     		mov	r4, r0
 480              		.loc 1 353 0
 481 0018 1868     		ldr	r0, [r3]
 482              	.LVL40:
 483              		.loc 1 350 0
 484 001a 1646     		mov	r6, r2
 485              		.loc 1 353 0
 486 001c FFF7FEFF 		bl	spiSelect
 487              	.LVL41:
 488              		.loc 1 354 0
 489 0020 D4F82431 		ldr	r3, [r4, #292]
 490 0024 2A46     		mov	r2, r5
 491 0026 1868     		ldr	r0, [r3]
 492 0028 0121     		movs	r1, #1
 493 002a FFF7FEFF 		bl	spiSend
 494              	.LVL42:
 495              		.loc 1 355 0
 496 002e D4F82431 		ldr	r3, [r4, #292]
 497 0032 3246     		mov	r2, r6
 498 0034 1868     		ldr	r0, [r3]
 499 0036 0521     		movs	r1, #5
 500 0038 FFF7FEFF 		bl	spiSend
 501              	.LVL43:
 502              		.loc 1 356 0
 503 003c D4F82431 		ldr	r3, [r4, #292]
 504 0040 1868     		ldr	r0, [r3]
 505 0042 FFF7FEFF 		bl	spiUnselect
 506              	.LVL44:
 507              		.loc 1 357 0
 508 0046 02B0     		add	sp, sp, #8
 509              		.cfi_def_cfa_offset 16
 510              		@ sp needed
 511 0048 70BD     		pop	{r4, r5, r6, pc}
 512              		.cfi_endproc
 513              	.LFE282:
ARM GAS  /var/folders/m4/4md61f0s1_g0rzfghffqnxvr0000gn/T//cchEhHjd.s 			page 10


 514              		.size	_Z28nrf24l01WriteAddressRegisterP14NRF24L01DriverhPKh, .-_Z28nrf24l01WriteAddressRegisterP14
 515 004a 00BF     		.section	.text._Z27nrf24l01ReadAddressRegisterP14NRF24L01DriverhPh,"ax",%progbits
 516              		.align	2
 517              		.p2align 4,,15
 518              		.global	_Z27nrf24l01ReadAddressRegisterP14NRF24L01DriverhPh
 519              		.thumb
 520              		.thumb_func
 521              		.type	_Z27nrf24l01ReadAddressRegisterP14NRF24L01DriverhPh, %function
 522              	_Z27nrf24l01ReadAddressRegisterP14NRF24L01DriverhPh:
 523              	.LFB283:
 524              		.loc 1 360 0
 525              		.cfi_startproc
 526              		@ args = 0, pretend = 0, frame = 8
 527              		@ frame_needed = 0, uses_anonymous_args = 0
 528              	.LVL45:
 529 0000 70B5     		push	{r4, r5, r6, lr}
 530              		.cfi_def_cfa_offset 16
 531              		.cfi_offset 4, -16
 532              		.cfi_offset 5, -12
 533              		.cfi_offset 6, -8
 534              		.cfi_offset 14, -4
 535 0002 82B0     		sub	sp, sp, #8
 536              		.cfi_def_cfa_offset 24
 537              		.loc 1 361 0
 538 0004 02AD     		add	r5, sp, #8
 539 0006 01F01F01 		and	r1, r1, #31
 540              	.LVL46:
 541 000a 05F8011D 		strb	r1, [r5, #-1]!
 542              		.loc 1 363 0
 543 000e D0F82431 		ldr	r3, [r0, #292]
 544              		.loc 1 360 0
 545 0012 0446     		mov	r4, r0
 546              		.loc 1 363 0
 547 0014 1868     		ldr	r0, [r3]
 548              	.LVL47:
 549              		.loc 1 360 0
 550 0016 1646     		mov	r6, r2
 551              		.loc 1 363 0
 552 0018 FFF7FEFF 		bl	spiSelect
 553              	.LVL48:
 554              		.loc 1 364 0
 555 001c D4F82431 		ldr	r3, [r4, #292]
 556 0020 2A46     		mov	r2, r5
 557 0022 1868     		ldr	r0, [r3]
 558 0024 0121     		movs	r1, #1
 559 0026 FFF7FEFF 		bl	spiSend
 560              	.LVL49:
 561              		.loc 1 365 0
 562 002a D4F82431 		ldr	r3, [r4, #292]
 563 002e 3246     		mov	r2, r6
 564 0030 1868     		ldr	r0, [r3]
 565 0032 0521     		movs	r1, #5
 566 0034 FFF7FEFF 		bl	spiReceive
 567              	.LVL50:
 568              		.loc 1 366 0
 569 0038 D4F82431 		ldr	r3, [r4, #292]
 570 003c 1868     		ldr	r0, [r3]
ARM GAS  /var/folders/m4/4md61f0s1_g0rzfghffqnxvr0000gn/T//cchEhHjd.s 			page 11


 571 003e FFF7FEFF 		bl	spiUnselect
 572              	.LVL51:
 573              		.loc 1 367 0
 574 0042 02B0     		add	sp, sp, #8
 575              		.cfi_def_cfa_offset 16
 576              		@ sp needed
 577 0044 70BD     		pop	{r4, r5, r6, pc}
 578              		.cfi_endproc
 579              	.LFE283:
 580              		.size	_Z27nrf24l01ReadAddressRegisterP14NRF24L01DriverhPh, .-_Z27nrf24l01ReadAddressRegisterP14NRF
 581 0046 00BF     		.section	.text._Z17nrf24l01GetStatusP14NRF24L01Driver,"ax",%progbits
 582              		.align	2
 583              		.p2align 4,,15
 584              		.global	_Z17nrf24l01GetStatusP14NRF24L01Driver
 585              		.thumb
 586              		.thumb_func
 587              		.type	_Z17nrf24l01GetStatusP14NRF24L01Driver, %function
 588              	_Z17nrf24l01GetStatusP14NRF24L01Driver:
 589              	.LFB284:
 590              		.loc 1 370 0
 591              		.cfi_startproc
 592              		@ args = 0, pretend = 0, frame = 8
 593              		@ frame_needed = 0, uses_anonymous_args = 0
 594              	.LVL52:
 595 0000 10B5     		push	{r4, lr}
 596              		.cfi_def_cfa_offset 8
 597              		.cfi_offset 4, -8
 598              		.cfi_offset 14, -4
 599 0002 82B0     		sub	sp, sp, #8
 600              		.cfi_def_cfa_offset 16
 601              		.loc 1 371 0
 602 0004 FF22     		movs	r2, #255
 603              		.loc 1 374 0
 604 0006 D0F82431 		ldr	r3, [r0, #292]
 605              		.loc 1 371 0
 606 000a 8DF80620 		strb	r2, [sp, #6]
 607              		.loc 1 370 0
 608 000e 0446     		mov	r4, r0
 609              		.loc 1 374 0
 610 0010 1868     		ldr	r0, [r3]
 611              	.LVL53:
 612 0012 FFF7FEFF 		bl	spiSelect
 613              	.LVL54:
 614              		.loc 1 375 0
 615 0016 D4F82421 		ldr	r2, [r4, #292]
 616 001a 0DF10703 		add	r3, sp, #7
 617 001e 1068     		ldr	r0, [r2]
 618 0020 0121     		movs	r1, #1
 619 0022 0DF10602 		add	r2, sp, #6
 620 0026 FFF7FEFF 		bl	spiExchange
 621              	.LVL55:
 622              		.loc 1 376 0
 623 002a D4F82431 		ldr	r3, [r4, #292]
 624 002e 1868     		ldr	r0, [r3]
 625 0030 FFF7FEFF 		bl	spiUnselect
 626              	.LVL56:
 627              		.loc 1 379 0
ARM GAS  /var/folders/m4/4md61f0s1_g0rzfghffqnxvr0000gn/T//cchEhHjd.s 			page 12


 628 0034 9DF80700 		ldrb	r0, [sp, #7]	@ zero_extendqisi2
 629 0038 02B0     		add	sp, sp, #8
 630              		.cfi_def_cfa_offset 8
 631              		@ sp needed
 632 003a 10BD     		pop	{r4, pc}
 633              		.cfi_endproc
 634              	.LFE284:
 635              		.size	_Z17nrf24l01GetStatusP14NRF24L01Driver, .-_Z17nrf24l01GetStatusP14NRF24L01Driver
 636              		.section	.text._Z15nrf24l01PowerUpP14NRF24L01Driver,"ax",%progbits
 637              		.align	2
 638              		.p2align 4,,15
 639              		.global	_Z15nrf24l01PowerUpP14NRF24L01Driver
 640              		.thumb
 641              		.thumb_func
 642              		.type	_Z15nrf24l01PowerUpP14NRF24L01Driver, %function
 643              	_Z15nrf24l01PowerUpP14NRF24L01Driver:
 644              	.LFB285:
 645              		.loc 1 382 0
 646              		.cfi_startproc
 647              		@ args = 0, pretend = 0, frame = 0
 648              		@ frame_needed = 0, uses_anonymous_args = 0
 649              	.LVL57:
 650 0000 10B5     		push	{r4, lr}
 651              		.cfi_def_cfa_offset 8
 652              		.cfi_offset 4, -8
 653              		.cfi_offset 14, -4
 654              		.loc 1 383 0
 655 0002 0021     		movs	r1, #0
 656              		.loc 1 382 0
 657 0004 0446     		mov	r4, r0
 658              		.loc 1 383 0
 659 0006 FFF7FEFF 		bl	_Z20nrf24l01ReadRegisterP14NRF24L01Driverh
 660              	.LVL58:
 661              		.loc 1 385 0
 662 000a 40F00202 		orr	r2, r0, #2
 663 000e D2B2     		uxtb	r2, r2
 664 0010 2046     		mov	r0, r4
 665              	.LVL59:
 666 0012 0021     		movs	r1, #0
 667              		.loc 1 386 0
 668 0014 BDE81040 		pop	{r4, lr}
 669              		.cfi_restore 14
 670              		.cfi_restore 4
 671              		.cfi_def_cfa_offset 0
 672              	.LVL60:
 673              		.loc 1 385 0
 674 0018 FFF7FEBF 		b	_Z21nrf24l01WriteRegisterP14NRF24L01Driverhh
 675              	.LVL61:
 676              		.cfi_endproc
 677              	.LFE285:
 678              		.size	_Z15nrf24l01PowerUpP14NRF24L01Driver, .-_Z15nrf24l01PowerUpP14NRF24L01Driver
 679              		.section	.text._Z17nrf24l01PowerDownP14NRF24L01Driver,"ax",%progbits
 680              		.align	2
 681              		.p2align 4,,15
 682              		.global	_Z17nrf24l01PowerDownP14NRF24L01Driver
 683              		.thumb
 684              		.thumb_func
ARM GAS  /var/folders/m4/4md61f0s1_g0rzfghffqnxvr0000gn/T//cchEhHjd.s 			page 13


 685              		.type	_Z17nrf24l01PowerDownP14NRF24L01Driver, %function
 686              	_Z17nrf24l01PowerDownP14NRF24L01Driver:
 687              	.LFB286:
 688              		.loc 1 389 0
 689              		.cfi_startproc
 690              		@ args = 0, pretend = 0, frame = 0
 691              		@ frame_needed = 0, uses_anonymous_args = 0
 692              	.LVL62:
 693 0000 10B5     		push	{r4, lr}
 694              		.cfi_def_cfa_offset 8
 695              		.cfi_offset 4, -8
 696              		.cfi_offset 14, -4
 697              		.loc 1 390 0
 698 0002 0021     		movs	r1, #0
 699              		.loc 1 389 0
 700 0004 0446     		mov	r4, r0
 701              		.loc 1 390 0
 702 0006 FFF7FEFF 		bl	_Z20nrf24l01ReadRegisterP14NRF24L01Driverh
 703              	.LVL63:
 704              		.loc 1 392 0
 705 000a 0021     		movs	r1, #0
 706 000c 00F0FD02 		and	r2, r0, #253
 707 0010 2046     		mov	r0, r4
 708              	.LVL64:
 709              		.loc 1 393 0
 710 0012 BDE81040 		pop	{r4, lr}
 711              		.cfi_restore 14
 712              		.cfi_restore 4
 713              		.cfi_def_cfa_offset 0
 714              	.LVL65:
 715              		.loc 1 392 0
 716 0016 FFF7FEBF 		b	_Z21nrf24l01WriteRegisterP14NRF24L01Driverhh
 717              	.LVL66:
 718              		.cfi_endproc
 719              	.LFE286:
 720              		.size	_Z17nrf24l01PowerDownP14NRF24L01Driver, .-_Z17nrf24l01PowerDownP14NRF24L01Driver
 721 001a 00BF     		.section	.text._Z23nrf24l01SetupRetransmitP14NRF24L01Driverhh,"ax",%progbits
 722              		.align	2
 723              		.p2align 4,,15
 724              		.global	_Z23nrf24l01SetupRetransmitP14NRF24L01Driverhh
 725              		.thumb
 726              		.thumb_func
 727              		.type	_Z23nrf24l01SetupRetransmitP14NRF24L01Driverhh, %function
 728              	_Z23nrf24l01SetupRetransmitP14NRF24L01Driverhh:
 729              	.LFB287:
 730              		.loc 1 396 0
 731              		.cfi_startproc
 732              		@ args = 0, pretend = 0, frame = 0
 733              		@ frame_needed = 0, uses_anonymous_args = 0
 734              		@ link register save eliminated.
 735              	.LVL67:
 736              		.loc 1 398 0
 737 0000 02F00F02 		and	r2, r2, #15
 738              	.LVL68:
 739 0004 42EA0112 		orr	r2, r2, r1, lsl #4
 740 0008 D2B2     		uxtb	r2, r2
 741 000a 0421     		movs	r1, #4
ARM GAS  /var/folders/m4/4md61f0s1_g0rzfghffqnxvr0000gn/T//cchEhHjd.s 			page 14


 742              	.LVL69:
 743 000c FFF7FEBF 		b	_Z21nrf24l01WriteRegisterP14NRF24L01Driverhh
 744              	.LVL70:
 745              		.cfi_endproc
 746              	.LFE287:
 747              		.size	_Z23nrf24l01SetupRetransmitP14NRF24L01Driverhh, .-_Z23nrf24l01SetupRetransmitP14NRF24L01Driv
 748              		.section	.text._Z18nrf24l01SetChannelP14NRF24L01Driverh,"ax",%progbits
 749              		.align	2
 750              		.p2align 4,,15
 751              		.global	_Z18nrf24l01SetChannelP14NRF24L01Driverh
 752              		.thumb
 753              		.thumb_func
 754              		.type	_Z18nrf24l01SetChannelP14NRF24L01Driverh, %function
 755              	_Z18nrf24l01SetChannelP14NRF24L01Driverh:
 756              	.LFB288:
 757              		.loc 1 402 0
 758              		.cfi_startproc
 759              		@ args = 0, pretend = 0, frame = 0
 760              		@ frame_needed = 0, uses_anonymous_args = 0
 761              		@ link register save eliminated.
 762              	.LVL71:
 763              		.loc 1 404 0
 764 0000 01F07F02 		and	r2, r1, #127
 765 0004 0521     		movs	r1, #5
 766              	.LVL72:
 767 0006 FFF7FEBF 		b	_Z21nrf24l01WriteRegisterP14NRF24L01Driverhh
 768              	.LVL73:
 769              		.cfi_endproc
 770              	.LFE288:
 771              		.size	_Z18nrf24l01SetChannelP14NRF24L01Driverh, .-_Z18nrf24l01SetChannelP14NRF24L01Driverh
 772 000a 00BF     		.section	.text._Z16nrf24l01ClearIRQP14NRF24L01Driverh,"ax",%progbits
 773              		.align	2
 774              		.p2align 4,,15
 775              		.global	_Z16nrf24l01ClearIRQP14NRF24L01Driverh
 776              		.thumb
 777              		.thumb_func
 778              		.type	_Z16nrf24l01ClearIRQP14NRF24L01Driverh, %function
 779              	_Z16nrf24l01ClearIRQP14NRF24L01Driverh:
 780              	.LFB289:
 781              		.loc 1 408 0
 782              		.cfi_startproc
 783              		@ args = 0, pretend = 0, frame = 0
 784              		@ frame_needed = 0, uses_anonymous_args = 0
 785              		@ link register save eliminated.
 786              	.LVL74:
 787              		.loc 1 409 0
 788 0000 01F07002 		and	r2, r1, #112
 789 0004 0721     		movs	r1, #7
 790              	.LVL75:
 791 0006 FFF7FEBF 		b	_Z21nrf24l01WriteRegisterP14NRF24L01Driverhh
 792              	.LVL76:
 793              		.cfi_endproc
 794              	.LFE289:
 795              		.size	_Z16nrf24l01ClearIRQP14NRF24L01Driverh, .-_Z16nrf24l01ClearIRQP14NRF24L01Driverh
 796 000a 00BF     		.section	.text._Z20nrf24l01SetRXAddressP14NRF24L01DriverhPKh,"ax",%progbits
 797              		.align	2
 798              		.p2align 4,,15
ARM GAS  /var/folders/m4/4md61f0s1_g0rzfghffqnxvr0000gn/T//cchEhHjd.s 			page 15


 799              		.global	_Z20nrf24l01SetRXAddressP14NRF24L01DriverhPKh
 800              		.thumb
 801              		.thumb_func
 802              		.type	_Z20nrf24l01SetRXAddressP14NRF24L01DriverhPKh, %function
 803              	_Z20nrf24l01SetRXAddressP14NRF24L01DriverhPKh:
 804              	.LFB290:
 805              		.loc 1 413 0
 806              		.cfi_startproc
 807              		@ args = 0, pretend = 0, frame = 0
 808              		@ frame_needed = 0, uses_anonymous_args = 0
 809              	.LVL77:
 810 0000 70B5     		push	{r4, r5, r6, lr}
 811              		.cfi_def_cfa_offset 16
 812              		.cfi_offset 4, -16
 813              		.cfi_offset 5, -12
 814              		.cfi_offset 6, -8
 815              		.cfi_offset 14, -4
 816              		.loc 1 413 0
 817 0002 0C46     		mov	r4, r1
 818 0004 1646     		mov	r6, r2
 819              		.loc 1 414 0
 820 0006 0321     		movs	r1, #3
 821              	.LVL78:
 822 0008 8022     		movs	r2, #128
 823              	.LVL79:
 824              		.loc 1 413 0
 825 000a 0546     		mov	r5, r0
 826              		.loc 1 414 0
 827 000c FFF7FEFF 		bl	_Z21nrf24l01WriteRegisterP14NRF24L01Driverhh
 828              	.LVL80:
 829              		.loc 1 415 0
 830 0010 012C     		cmp	r4, #1
 831 0012 0CD9     		bls	.L38
 832              		.loc 1 417 0
 833 0014 E31E     		subs	r3, r4, #3
 834 0016 022B     		cmp	r3, #2
 835 0018 00D9     		bls	.L39
 836 001a 70BD     		pop	{r4, r5, r6, pc}
 837              	.LVL81:
 838              	.L39:
 839              	.LBB136:
 840              	.LBB137:
 841              		.loc 1 418 0
 842 001c 04F10A01 		add	r1, r4, #10
 843 0020 3278     		ldrb	r2, [r6]	@ zero_extendqisi2
 844 0022 2846     		mov	r0, r5
 845 0024 C9B2     		uxtb	r1, r1
 846              	.LBE137:
 847              	.LBE136:
 848              		.loc 1 419 0
 849 0026 BDE87040 		pop	{r4, r5, r6, lr}
 850              		.cfi_remember_state
 851              		.cfi_restore 14
 852              		.cfi_restore 6
 853              		.cfi_restore 5
 854              		.cfi_restore 4
 855              		.cfi_def_cfa_offset 0
ARM GAS  /var/folders/m4/4md61f0s1_g0rzfghffqnxvr0000gn/T//cchEhHjd.s 			page 16


 856              	.LVL82:
 857              	.LBB139:
 858              	.LBB138:
 859              		.loc 1 418 0
 860 002a FFF7FEBF 		b	_Z21nrf24l01WriteRegisterP14NRF24L01Driverhh
 861              	.LVL83:
 862              	.L38:
 863              		.cfi_restore_state
 864              	.LBE138:
 865              	.LBE139:
 866              		.loc 1 416 0
 867 002e 04F10A01 		add	r1, r4, #10
 868 0032 3246     		mov	r2, r6
 869 0034 2846     		mov	r0, r5
 870 0036 C9B2     		uxtb	r1, r1
 871              		.loc 1 419 0
 872 0038 BDE87040 		pop	{r4, r5, r6, lr}
 873              		.cfi_restore 14
 874              		.cfi_restore 6
 875              		.cfi_restore 5
 876              		.cfi_restore 4
 877              		.cfi_def_cfa_offset 0
 878              	.LVL84:
 879              		.loc 1 416 0
 880 003c FFF7FEBF 		b	_Z28nrf24l01WriteAddressRegisterP14NRF24L01DriverhPKh
 881              	.LVL85:
 882              		.cfi_endproc
 883              	.LFE290:
 884              		.size	_Z20nrf24l01SetRXAddressP14NRF24L01DriverhPKh, .-_Z20nrf24l01SetRXAddressP14NRF24L01DriverhP
 885              		.section	.text._Z20nrf24l01SetTXAddressP14NRF24L01DriverPKh,"ax",%progbits
 886              		.align	2
 887              		.p2align 4,,15
 888              		.global	_Z20nrf24l01SetTXAddressP14NRF24L01DriverPKh
 889              		.thumb
 890              		.thumb_func
 891              		.type	_Z20nrf24l01SetTXAddressP14NRF24L01DriverPKh, %function
 892              	_Z20nrf24l01SetTXAddressP14NRF24L01DriverPKh:
 893              	.LFB291:
 894              		.loc 1 422 0
 895              		.cfi_startproc
 896              		@ args = 0, pretend = 0, frame = 0
 897              		@ frame_needed = 0, uses_anonymous_args = 0
 898              	.LVL86:
 899 0000 38B5     		push	{r3, r4, r5, lr}
 900              		.cfi_def_cfa_offset 16
 901              		.cfi_offset 3, -16
 902              		.cfi_offset 4, -12
 903              		.cfi_offset 5, -8
 904              		.cfi_offset 14, -4
 905              		.loc 1 423 0
 906 0002 8022     		movs	r2, #128
 907              		.loc 1 422 0
 908 0004 0D46     		mov	r5, r1
 909 0006 0446     		mov	r4, r0
 910              		.loc 1 423 0
 911 0008 0321     		movs	r1, #3
 912              	.LVL87:
ARM GAS  /var/folders/m4/4md61f0s1_g0rzfghffqnxvr0000gn/T//cchEhHjd.s 			page 17


 913 000a FFF7FEFF 		bl	_Z21nrf24l01WriteRegisterP14NRF24L01Driverhh
 914              	.LVL88:
 915              		.loc 1 424 0
 916 000e 2A46     		mov	r2, r5
 917 0010 2046     		mov	r0, r4
 918 0012 1021     		movs	r1, #16
 919              		.loc 1 425 0
 920 0014 BDE83840 		pop	{r3, r4, r5, lr}
 921              		.cfi_restore 14
 922              		.cfi_restore 5
 923              		.cfi_restore 4
 924              		.cfi_restore 3
 925              		.cfi_def_cfa_offset 0
 926              	.LVL89:
 927              		.loc 1 424 0
 928 0018 FFF7FEBF 		b	_Z28nrf24l01WriteAddressRegisterP14NRF24L01DriverhPKh
 929              	.LVL90:
 930              		.cfi_endproc
 931              	.LFE291:
 932              		.size	_Z20nrf24l01SetTXAddressP14NRF24L01DriverPKh, .-_Z20nrf24l01SetTXAddressP14NRF24L01DriverPKh
 933              		.section	.text._Z22nrf24l01SetPayloadSizeP14NRF24L01Driverhh,"ax",%progbits
 934              		.align	2
 935              		.p2align 4,,15
 936              		.global	_Z22nrf24l01SetPayloadSizeP14NRF24L01Driverhh
 937              		.thumb
 938              		.thumb_func
 939              		.type	_Z22nrf24l01SetPayloadSizeP14NRF24L01Driverhh, %function
 940              	_Z22nrf24l01SetPayloadSizeP14NRF24L01Driverhh:
 941              	.LFB292:
 942              		.loc 1 428 0
 943              		.cfi_startproc
 944              		@ args = 0, pretend = 0, frame = 0
 945              		@ frame_needed = 0, uses_anonymous_args = 0
 946              		@ link register save eliminated.
 947              	.LVL91:
 948              		.loc 1 429 0
 949 0000 0529     		cmp	r1, #5
 950 0002 01D8     		bhi	.L42
 951              	.LVL92:
 952              	.LBB142:
 953              	.LBB143:
 954 0004 202A     		cmp	r2, #32
 955 0006 00D9     		bls	.L44
 956              	.LVL93:
 957              	.L42:
 958 0008 7047     		bx	lr
 959              	.LVL94:
 960              	.L44:
 961              		.loc 1 432 0
 962 000a 1131     		adds	r1, r1, #17
 963              	.LVL95:
 964 000c C9B2     		uxtb	r1, r1
 965 000e FFF7FEBF 		b	_Z21nrf24l01WriteRegisterP14NRF24L01Driverhh
 966              	.LVL96:
 967              	.LBE143:
 968              	.LBE142:
 969              		.cfi_endproc
ARM GAS  /var/folders/m4/4md61f0s1_g0rzfghffqnxvr0000gn/T//cchEhHjd.s 			page 18


 970              	.LFE292:
 971              		.size	_Z22nrf24l01SetPayloadSizeP14NRF24L01Driverhh, .-_Z22nrf24l01SetPayloadSizeP14NRF24L01Driver
 972 0012 00BF     		.section	.text._Z21nrf24l01GetFIFOStatusP14NRF24L01Driver,"ax",%progbits
 973              		.align	2
 974              		.p2align 4,,15
 975              		.global	_Z21nrf24l01GetFIFOStatusP14NRF24L01Driver
 976              		.thumb
 977              		.thumb_func
 978              		.type	_Z21nrf24l01GetFIFOStatusP14NRF24L01Driver, %function
 979              	_Z21nrf24l01GetFIFOStatusP14NRF24L01Driver:
 980              	.LFB293:
 981              		.loc 1 436 0
 982              		.cfi_startproc
 983              		@ args = 0, pretend = 0, frame = 0
 984              		@ frame_needed = 0, uses_anonymous_args = 0
 985              		@ link register save eliminated.
 986              	.LVL97:
 987              		.loc 1 437 0
 988 0000 1721     		movs	r1, #23
 989 0002 FFF7FEBF 		b	_Z20nrf24l01ReadRegisterP14NRF24L01Driverh
 990              	.LVL98:
 991              		.cfi_endproc
 992              	.LFE293:
 993              		.size	_Z21nrf24l01GetFIFOStatusP14NRF24L01Driver, .-_Z21nrf24l01GetFIFOStatusP14NRF24L01Driver
 994 0006 00BF     		.section	.text._Z29nrf24l01EnableDynamicPipeSizeP14NRF24L01Driverh,"ax",%progbits
 995              		.align	2
 996              		.p2align 4,,15
 997              		.global	_Z29nrf24l01EnableDynamicPipeSizeP14NRF24L01Driverh
 998              		.thumb
 999              		.thumb_func
 1000              		.type	_Z29nrf24l01EnableDynamicPipeSizeP14NRF24L01Driverh, %function
 1001              	_Z29nrf24l01EnableDynamicPipeSizeP14NRF24L01Driverh:
 1002              	.LFB295:
 1003              		.loc 1 459 0
 1004              		.cfi_startproc
 1005              		@ args = 0, pretend = 0, frame = 0
 1006              		@ frame_needed = 0, uses_anonymous_args = 0
 1007              	.LVL99:
 1008 0000 38B5     		push	{r3, r4, r5, lr}
 1009              		.cfi_def_cfa_offset 16
 1010              		.cfi_offset 3, -16
 1011              		.cfi_offset 4, -12
 1012              		.cfi_offset 5, -8
 1013              		.cfi_offset 14, -4
 1014              		.loc 1 459 0
 1015 0002 0C46     		mov	r4, r1
 1016              		.loc 1 460 0
 1017 0004 1C21     		movs	r1, #28
 1018              	.LVL100:
 1019              		.loc 1 459 0
 1020 0006 0546     		mov	r5, r0
 1021              		.loc 1 460 0
 1022 0008 FFF7FEFF 		bl	_Z20nrf24l01ReadRegisterP14NRF24L01Driverh
 1023              	.LVL101:
 1024              		.loc 1 461 0
 1025 000c 04F03F04 		and	r4, r4, #63
 1026 0010 44EA0002 		orr	r2, r4, r0
ARM GAS  /var/folders/m4/4md61f0s1_g0rzfghffqnxvr0000gn/T//cchEhHjd.s 			page 19


 1027              	.LVL102:
 1028              		.loc 1 462 0
 1029 0014 D2B2     		uxtb	r2, r2
 1030 0016 2846     		mov	r0, r5
 1031 0018 1C21     		movs	r1, #28
 1032              		.loc 1 463 0
 1033 001a BDE83840 		pop	{r3, r4, r5, lr}
 1034              		.cfi_restore 14
 1035              		.cfi_restore 5
 1036              		.cfi_restore 4
 1037              		.cfi_restore 3
 1038              		.cfi_def_cfa_offset 0
 1039              	.LVL103:
 1040              		.loc 1 462 0
 1041 001e FFF7FEBF 		b	_Z21nrf24l01WriteRegisterP14NRF24L01Driverhh
 1042              	.LVL104:
 1043              		.cfi_endproc
 1044              	.LFE295:
 1045              		.size	_Z29nrf24l01EnableDynamicPipeSizeP14NRF24L01Driverh, .-_Z29nrf24l01EnableDynamicPipeSizeP14N
 1046 0022 00BF     		.section	.text._Z26nrf24l01DisableDynamicSizeP14NRF24L01Driver,"ax",%progbits
 1047              		.align	2
 1048              		.p2align 4,,15
 1049              		.global	_Z26nrf24l01DisableDynamicSizeP14NRF24L01Driver
 1050              		.thumb
 1051              		.thumb_func
 1052              		.type	_Z26nrf24l01DisableDynamicSizeP14NRF24L01Driver, %function
 1053              	_Z26nrf24l01DisableDynamicSizeP14NRF24L01Driver:
 1054              	.LFB296:
 1055              		.loc 1 466 0
 1056              		.cfi_startproc
 1057              		@ args = 0, pretend = 0, frame = 0
 1058              		@ frame_needed = 0, uses_anonymous_args = 0
 1059              	.LVL105:
 1060 0000 10B5     		push	{r4, lr}
 1061              		.cfi_def_cfa_offset 8
 1062              		.cfi_offset 4, -8
 1063              		.cfi_offset 14, -4
 1064              		.loc 1 467 0
 1065 0002 1D21     		movs	r1, #29
 1066              		.loc 1 466 0
 1067 0004 0446     		mov	r4, r0
 1068              		.loc 1 467 0
 1069 0006 FFF7FEFF 		bl	_Z20nrf24l01ReadRegisterP14NRF24L01Driverh
 1070              	.LVL106:
 1071              		.loc 1 469 0
 1072 000a 1D21     		movs	r1, #29
 1073 000c 00F0FB02 		and	r2, r0, #251
 1074 0010 2046     		mov	r0, r4
 1075              	.LVL107:
 1076              		.loc 1 470 0
 1077 0012 BDE81040 		pop	{r4, lr}
 1078              		.cfi_restore 14
 1079              		.cfi_restore 4
 1080              		.cfi_def_cfa_offset 0
 1081              	.LVL108:
 1082              		.loc 1 469 0
 1083 0016 FFF7FEBF 		b	_Z21nrf24l01WriteRegisterP14NRF24L01Driverhh
ARM GAS  /var/folders/m4/4md61f0s1_g0rzfghffqnxvr0000gn/T//cchEhHjd.s 			page 20


 1084              	.LVL109:
 1085              		.cfi_endproc
 1086              	.LFE296:
 1087              		.size	_Z26nrf24l01DisableDynamicSizeP14NRF24L01Driver, .-_Z26nrf24l01DisableDynamicSizeP14NRF24L01
 1088 001a 00BF     		.section	.text._Z30nrf24l01DisableDynamicPipeSizeP14NRF24L01Driverh,"ax",%progbits
 1089              		.align	2
 1090              		.p2align 4,,15
 1091              		.global	_Z30nrf24l01DisableDynamicPipeSizeP14NRF24L01Driverh
 1092              		.thumb
 1093              		.thumb_func
 1094              		.type	_Z30nrf24l01DisableDynamicPipeSizeP14NRF24L01Driverh, %function
 1095              	_Z30nrf24l01DisableDynamicPipeSizeP14NRF24L01Driverh:
 1096              	.LFB297:
 1097              		.loc 1 473 0
 1098              		.cfi_startproc
 1099              		@ args = 0, pretend = 0, frame = 0
 1100              		@ frame_needed = 0, uses_anonymous_args = 0
 1101              	.LVL110:
 1102 0000 38B5     		push	{r3, r4, r5, lr}
 1103              		.cfi_def_cfa_offset 16
 1104              		.cfi_offset 3, -16
 1105              		.cfi_offset 4, -12
 1106              		.cfi_offset 5, -8
 1107              		.cfi_offset 14, -4
 1108              		.loc 1 473 0
 1109 0002 0C46     		mov	r4, r1
 1110              		.loc 1 474 0
 1111 0004 1C21     		movs	r1, #28
 1112              	.LVL111:
 1113              		.loc 1 473 0
 1114 0006 0546     		mov	r5, r0
 1115              		.loc 1 474 0
 1116 0008 FFF7FEFF 		bl	_Z20nrf24l01ReadRegisterP14NRF24L01Driverh
 1117              	.LVL112:
 1118              		.loc 1 475 0
 1119 000c 04F03F04 		and	r4, r4, #63
 1120 0010 20EA0402 		bic	r2, r0, r4
 1121              	.LVL113:
 1122              		.loc 1 476 0
 1123 0014 D2B2     		uxtb	r2, r2
 1124 0016 2846     		mov	r0, r5
 1125 0018 1C21     		movs	r1, #28
 1126              		.loc 1 477 0
 1127 001a BDE83840 		pop	{r3, r4, r5, lr}
 1128              		.cfi_restore 14
 1129              		.cfi_restore 5
 1130              		.cfi_restore 4
 1131              		.cfi_restore 3
 1132              		.cfi_def_cfa_offset 0
 1133              	.LVL114:
 1134              		.loc 1 476 0
 1135 001e FFF7FEBF 		b	_Z21nrf24l01WriteRegisterP14NRF24L01Driverhh
 1136              	.LVL115:
 1137              		.cfi_endproc
 1138              	.LFE297:
 1139              		.size	_Z30nrf24l01DisableDynamicPipeSizeP14NRF24L01Driverh, .-_Z30nrf24l01DisableDynamicPipeSizeP1
 1140 0022 00BF     		.section	.text._Z19nrf24l01ReadPayloadP14NRF24L01DriverhPhS1_,"ax",%progbits
ARM GAS  /var/folders/m4/4md61f0s1_g0rzfghffqnxvr0000gn/T//cchEhHjd.s 			page 21


 1141              		.align	2
 1142              		.p2align 4,,15
 1143              		.global	_Z19nrf24l01ReadPayloadP14NRF24L01DriverhPhS1_
 1144              		.thumb
 1145              		.thumb_func
 1146              		.type	_Z19nrf24l01ReadPayloadP14NRF24L01DriverhPhS1_, %function
 1147              	_Z19nrf24l01ReadPayloadP14NRF24L01DriverhPhS1_:
 1148              	.LFB298:
 1149              		.loc 1 480 0
 1150              		.cfi_startproc
 1151              		@ args = 0, pretend = 0, frame = 0
 1152              		@ frame_needed = 0, uses_anonymous_args = 0
 1153              		@ link register save eliminated.
 1154              	.LVL116:
 1155              		.loc 1 481 0
 1156 0000 2029     		cmp	r1, #32
 1157 0002 00D9     		bls	.L54
 1158 0004 7047     		bx	lr
 1159              	.L54:
 1160 0006 FFF7FEBF 		b	_Z19nrf24l01ReadPayloadP14NRF24L01DriverhPhS1_.part.2
 1161              	.LVL117:
 1162              		.cfi_endproc
 1163              	.LFE298:
 1164              		.size	_Z19nrf24l01ReadPayloadP14NRF24L01DriverhPhS1_, .-_Z19nrf24l01ReadPayloadP14NRF24L01DriverhP
 1165 000a 00BF     		.section	.text._Z20nrf24l01WritePayloadP14NRF24L01DriverhPKh,"ax",%progbits
 1166              		.align	2
 1167              		.p2align 4,,15
 1168              		.global	_Z20nrf24l01WritePayloadP14NRF24L01DriverhPKh
 1169              		.thumb
 1170              		.thumb_func
 1171              		.type	_Z20nrf24l01WritePayloadP14NRF24L01DriverhPKh, %function
 1172              	_Z20nrf24l01WritePayloadP14NRF24L01DriverhPKh:
 1173              	.LFB299:
 1174              		.loc 1 496 0
 1175              		.cfi_startproc
 1176              		@ args = 0, pretend = 0, frame = 0
 1177              		@ frame_needed = 0, uses_anonymous_args = 0
 1178              		@ link register save eliminated.
 1179              	.LVL118:
 1180              		.loc 1 497 0
 1181 0000 2029     		cmp	r1, #32
 1182 0002 00D9     		bls	.L57
 1183 0004 7047     		bx	lr
 1184              	.L57:
 1185 0006 FFF7FEBF 		b	_Z20nrf24l01WritePayloadP14NRF24L01DriverhPKh.part.3
 1186              	.LVL119:
 1187              		.cfi_endproc
 1188              	.LFE299:
 1189              		.size	_Z20nrf24l01WritePayloadP14NRF24L01DriverhPKh, .-_Z20nrf24l01WritePayloadP14NRF24L01DriverhP
 1190 000a 00BF     		.section	.text._Z22nrf24l01ToggleFeaturesP14NRF24L01Driver,"ax",%progbits
 1191              		.align	2
 1192              		.p2align 4,,15
 1193              		.global	_Z22nrf24l01ToggleFeaturesP14NRF24L01Driver
 1194              		.thumb
 1195              		.thumb_func
 1196              		.type	_Z22nrf24l01ToggleFeaturesP14NRF24L01Driver, %function
 1197              	_Z22nrf24l01ToggleFeaturesP14NRF24L01Driver:
ARM GAS  /var/folders/m4/4md61f0s1_g0rzfghffqnxvr0000gn/T//cchEhHjd.s 			page 22


 1198              	.LFB300:
 1199              		.loc 1 509 0
 1200              		.cfi_startproc
 1201              		@ args = 0, pretend = 0, frame = 8
 1202              		@ frame_needed = 0, uses_anonymous_args = 0
 1203              	.LVL120:
 1204 0000 10B5     		push	{r4, lr}
 1205              		.cfi_def_cfa_offset 8
 1206              		.cfi_offset 4, -8
 1207              		.cfi_offset 14, -4
 1208              		.loc 1 510 0
 1209 0002 0C4A     		ldr	r2, .L60
 1210              		.loc 1 512 0
 1211 0004 D0F82431 		ldr	r3, [r0, #292]
 1212              		.loc 1 510 0
 1213 0008 1288     		ldrh	r2, [r2]	@ unaligned
 1214              		.loc 1 509 0
 1215 000a 82B0     		sub	sp, sp, #8
 1216              		.cfi_def_cfa_offset 16
 1217              		.loc 1 509 0
 1218 000c 0446     		mov	r4, r0
 1219              		.loc 1 510 0
 1220 000e ADF80420 		strh	r2, [sp, #4]	@ unaligned
 1221              		.loc 1 512 0
 1222 0012 1868     		ldr	r0, [r3]
 1223              	.LVL121:
 1224 0014 FFF7FEFF 		bl	spiSelect
 1225              	.LVL122:
 1226              		.loc 1 513 0
 1227 0018 D4F82431 		ldr	r3, [r4, #292]
 1228 001c 01AA     		add	r2, sp, #4
 1229 001e 1868     		ldr	r0, [r3]
 1230 0020 0221     		movs	r1, #2
 1231 0022 FFF7FEFF 		bl	spiSend
 1232              	.LVL123:
 1233              		.loc 1 514 0
 1234 0026 D4F82431 		ldr	r3, [r4, #292]
 1235 002a 1868     		ldr	r0, [r3]
 1236 002c FFF7FEFF 		bl	spiUnselect
 1237              	.LVL124:
 1238              		.loc 1 515 0
 1239 0030 02B0     		add	sp, sp, #8
 1240              		.cfi_def_cfa_offset 8
 1241              		@ sp needed
 1242 0032 10BD     		pop	{r4, pc}
 1243              	.LVL125:
 1244              	.L61:
 1245              		.align	2
 1246              	.L60:
 1247 0034 00000000 		.word	.LANCHOR2
 1248              		.cfi_endproc
 1249              	.LFE300:
 1250              		.size	_Z22nrf24l01ToggleFeaturesP14NRF24L01Driver, .-_Z22nrf24l01ToggleFeaturesP14NRF24L01Driver
 1251              		.section	.text._Z25nrf24l01EnableDynamicSizeP14NRF24L01Driver,"ax",%progbits
 1252              		.align	2
 1253              		.p2align 4,,15
 1254              		.global	_Z25nrf24l01EnableDynamicSizeP14NRF24L01Driver
ARM GAS  /var/folders/m4/4md61f0s1_g0rzfghffqnxvr0000gn/T//cchEhHjd.s 			page 23


 1255              		.thumb
 1256              		.thumb_func
 1257              		.type	_Z25nrf24l01EnableDynamicSizeP14NRF24L01Driver, %function
 1258              	_Z25nrf24l01EnableDynamicSizeP14NRF24L01Driver:
 1259              	.LFB294:
 1260              		.loc 1 441 0
 1261              		.cfi_startproc
 1262              		@ args = 0, pretend = 0, frame = 0
 1263              		@ frame_needed = 0, uses_anonymous_args = 0
 1264              	.LVL126:
 1265 0000 38B5     		push	{r3, r4, r5, lr}
 1266              		.cfi_def_cfa_offset 16
 1267              		.cfi_offset 3, -16
 1268              		.cfi_offset 4, -12
 1269              		.cfi_offset 5, -8
 1270              		.cfi_offset 14, -4
 1271              		.loc 1 442 0
 1272 0002 1D21     		movs	r1, #29
 1273              		.loc 1 441 0
 1274 0004 0446     		mov	r4, r0
 1275              		.loc 1 442 0
 1276 0006 FFF7FEFF 		bl	_Z20nrf24l01ReadRegisterP14NRF24L01Driverh
 1277              	.LVL127:
 1278              		.loc 1 444 0
 1279 000a 4207     		lsls	r2, r0, #29
 1280 000c 00D5     		bpl	.L67
 1281              	.L62:
 1282 000e 38BD     		pop	{r3, r4, r5, pc}
 1283              	.LVL128:
 1284              	.L67:
 1285              		.loc 1 448 0
 1286 0010 40F00402 		orr	r2, r0, #4
 1287 0014 D2B2     		uxtb	r2, r2
 1288 0016 1D21     		movs	r1, #29
 1289 0018 2046     		mov	r0, r4
 1290              	.LVL129:
 1291 001a FFF7FEFF 		bl	_Z21nrf24l01WriteRegisterP14NRF24L01Driverhh
 1292              	.LVL130:
 1293              		.loc 1 450 0
 1294 001e 1D21     		movs	r1, #29
 1295 0020 2046     		mov	r0, r4
 1296 0022 FFF7FEFF 		bl	_Z20nrf24l01ReadRegisterP14NRF24L01Driverh
 1297              	.LVL131:
 1298              		.loc 1 451 0
 1299 0026 4307     		lsls	r3, r0, #29
 1300              		.loc 1 450 0
 1301 0028 0546     		mov	r5, r0
 1302              	.LVL132:
 1303              		.loc 1 451 0
 1304 002a F0D4     		bmi	.L62
 1305              		.loc 1 453 0
 1306 002c 2046     		mov	r0, r4
 1307              	.LVL133:
 1308 002e FFF7FEFF 		bl	_Z22nrf24l01ToggleFeaturesP14NRF24L01Driver
 1309              	.LVL134:
 1310              		.loc 1 454 0
 1311 0032 2A46     		mov	r2, r5
ARM GAS  /var/folders/m4/4md61f0s1_g0rzfghffqnxvr0000gn/T//cchEhHjd.s 			page 24


 1312 0034 2046     		mov	r0, r4
 1313 0036 1D21     		movs	r1, #29
 1314              		.loc 1 456 0
 1315 0038 BDE83840 		pop	{r3, r4, r5, lr}
 1316              		.cfi_restore 14
 1317              		.cfi_restore 5
 1318              		.cfi_restore 4
 1319              		.cfi_restore 3
 1320              		.cfi_def_cfa_offset 0
 1321              	.LVL135:
 1322              		.loc 1 454 0
 1323 003c FFF7FEBF 		b	_Z21nrf24l01WriteRegisterP14NRF24L01Driverhh
 1324              	.LVL136:
 1325              		.cfi_endproc
 1326              	.LFE294:
 1327              		.size	_Z25nrf24l01EnableDynamicSizeP14NRF24L01Driver, .-_Z25nrf24l01EnableDynamicSizeP14NRF24L01Dr
 1328              		.section	.text._Z15nrf24l01FlushRXP14NRF24L01Driver,"ax",%progbits
 1329              		.align	2
 1330              		.p2align 4,,15
 1331              		.global	_Z15nrf24l01FlushRXP14NRF24L01Driver
 1332              		.thumb
 1333              		.thumb_func
 1334              		.type	_Z15nrf24l01FlushRXP14NRF24L01Driver, %function
 1335              	_Z15nrf24l01FlushRXP14NRF24L01Driver:
 1336              	.LFB301:
 1337              		.loc 1 518 0
 1338              		.cfi_startproc
 1339              		@ args = 0, pretend = 0, frame = 8
 1340              		@ frame_needed = 0, uses_anonymous_args = 0
 1341              	.LVL137:
 1342 0000 30B5     		push	{r4, r5, lr}
 1343              		.cfi_def_cfa_offset 12
 1344              		.cfi_offset 4, -12
 1345              		.cfi_offset 5, -8
 1346              		.cfi_offset 14, -4
 1347 0002 83B0     		sub	sp, sp, #12
 1348              		.cfi_def_cfa_offset 24
 1349              		.loc 1 519 0
 1350 0004 02AD     		add	r5, sp, #8
 1351 0006 E222     		movs	r2, #226
 1352 0008 05F8012D 		strb	r2, [r5, #-1]!
 1353              		.loc 1 521 0
 1354 000c D0F82431 		ldr	r3, [r0, #292]
 1355              		.loc 1 518 0
 1356 0010 0446     		mov	r4, r0
 1357              		.loc 1 521 0
 1358 0012 1868     		ldr	r0, [r3]
 1359              	.LVL138:
 1360 0014 FFF7FEFF 		bl	spiSelect
 1361              	.LVL139:
 1362              		.loc 1 522 0
 1363 0018 D4F82431 		ldr	r3, [r4, #292]
 1364 001c 2A46     		mov	r2, r5
 1365 001e 1868     		ldr	r0, [r3]
 1366 0020 0121     		movs	r1, #1
 1367 0022 FFF7FEFF 		bl	spiSend
 1368              	.LVL140:
ARM GAS  /var/folders/m4/4md61f0s1_g0rzfghffqnxvr0000gn/T//cchEhHjd.s 			page 25


 1369              		.loc 1 523 0
 1370 0026 D4F82431 		ldr	r3, [r4, #292]
 1371 002a 1868     		ldr	r0, [r3]
 1372 002c FFF7FEFF 		bl	spiUnselect
 1373              	.LVL141:
 1374              		.loc 1 524 0
 1375 0030 03B0     		add	sp, sp, #12
 1376              		.cfi_def_cfa_offset 12
 1377              		@ sp needed
 1378 0032 30BD     		pop	{r4, r5, pc}
 1379              		.cfi_endproc
 1380              	.LFE301:
 1381              		.size	_Z15nrf24l01FlushRXP14NRF24L01Driver, .-_Z15nrf24l01FlushRXP14NRF24L01Driver
 1382              		.section	.text._Z15nrf24l01FlushTXP14NRF24L01Driver,"ax",%progbits
 1383              		.align	2
 1384              		.p2align 4,,15
 1385              		.global	_Z15nrf24l01FlushTXP14NRF24L01Driver
 1386              		.thumb
 1387              		.thumb_func
 1388              		.type	_Z15nrf24l01FlushTXP14NRF24L01Driver, %function
 1389              	_Z15nrf24l01FlushTXP14NRF24L01Driver:
 1390              	.LFB302:
 1391              		.loc 1 527 0
 1392              		.cfi_startproc
 1393              		@ args = 0, pretend = 0, frame = 8
 1394              		@ frame_needed = 0, uses_anonymous_args = 0
 1395              	.LVL142:
 1396 0000 30B5     		push	{r4, r5, lr}
 1397              		.cfi_def_cfa_offset 12
 1398              		.cfi_offset 4, -12
 1399              		.cfi_offset 5, -8
 1400              		.cfi_offset 14, -4
 1401 0002 83B0     		sub	sp, sp, #12
 1402              		.cfi_def_cfa_offset 24
 1403              		.loc 1 528 0
 1404 0004 02AD     		add	r5, sp, #8
 1405 0006 E122     		movs	r2, #225
 1406 0008 05F8012D 		strb	r2, [r5, #-1]!
 1407              		.loc 1 530 0
 1408 000c D0F82431 		ldr	r3, [r0, #292]
 1409              		.loc 1 527 0
 1410 0010 0446     		mov	r4, r0
 1411              		.loc 1 530 0
 1412 0012 1868     		ldr	r0, [r3]
 1413              	.LVL143:
 1414 0014 FFF7FEFF 		bl	spiSelect
 1415              	.LVL144:
 1416              		.loc 1 531 0
 1417 0018 D4F82431 		ldr	r3, [r4, #292]
 1418 001c 2A46     		mov	r2, r5
 1419 001e 1868     		ldr	r0, [r3]
 1420 0020 0121     		movs	r1, #1
 1421 0022 FFF7FEFF 		bl	spiSend
 1422              	.LVL145:
 1423              		.loc 1 532 0
 1424 0026 D4F82431 		ldr	r3, [r4, #292]
 1425 002a 1868     		ldr	r0, [r3]
ARM GAS  /var/folders/m4/4md61f0s1_g0rzfghffqnxvr0000gn/T//cchEhHjd.s 			page 26


 1426 002c FFF7FEFF 		bl	spiUnselect
 1427              	.LVL146:
 1428              		.loc 1 533 0
 1429 0030 03B0     		add	sp, sp, #12
 1430              		.cfi_def_cfa_offset 12
 1431              		@ sp needed
 1432 0032 30BD     		pop	{r4, r5, pc}
 1433              		.cfi_endproc
 1434              	.LFE302:
 1435              		.size	_Z15nrf24l01FlushTXP14NRF24L01Driver, .-_Z15nrf24l01FlushTXP14NRF24L01Driver
 1436              		.section	.text._Z12initNRF24L01v,"ax",%progbits
 1437              		.align	2
 1438              		.p2align 4,,15
 1439              		.global	_Z12initNRF24L01v
 1440              		.thumb
 1441              		.thumb_func
 1442              		.type	_Z12initNRF24L01v, %function
 1443              	_Z12initNRF24L01v:
 1444              	.LFB269:
 1445              		.loc 1 59 0
 1446              		.cfi_startproc
 1447              		@ args = 0, pretend = 0, frame = 0
 1448              		@ frame_needed = 0, uses_anonymous_args = 0
 1449 0000 38B5     		push	{r3, r4, r5, lr}
 1450              		.cfi_def_cfa_offset 16
 1451              		.cfi_offset 3, -16
 1452              		.cfi_offset 4, -12
 1453              		.cfi_offset 5, -8
 1454              		.cfi_offset 14, -4
 1455              		.loc 1 60 0
 1456 0002 2F4D     		ldr	r5, .L76
 1457              		.loc 1 62 0
 1458 0004 2F4C     		ldr	r4, .L76+4
 1459              		.loc 1 60 0
 1460 0006 2846     		mov	r0, r5
 1461 0008 0122     		movs	r2, #1
 1462 000a 1021     		movs	r1, #16
 1463 000c FFF7FEFF 		bl	_pal_lld_setgroupmode
 1464              	.LVL147:
 1465              		.loc 1 61 0
 1466 0010 1023     		movs	r3, #16
 1467 0012 2B83     		strh	r3, [r5, #24]	@ movhi
 1468              		.loc 1 62 0
 1469 0014 2046     		mov	r0, r4
 1470 0016 0122     		movs	r2, #1
 1471 0018 0221     		movs	r1, #2
 1472 001a FFF7FEFF 		bl	_pal_lld_setgroupmode
 1473              	.LVL148:
 1474              		.loc 1 63 0
 1475 001e 0223     		movs	r3, #2
 1476              		.loc 1 64 0
 1477 0020 2022     		movs	r2, #32
 1478 0022 1146     		mov	r1, r2
 1479              		.loc 1 63 0
 1480 0024 6383     		strh	r3, [r4, #26]	@ movhi
 1481              		.loc 1 64 0
 1482 0026 2848     		ldr	r0, .L76+8
ARM GAS  /var/folders/m4/4md61f0s1_g0rzfghffqnxvr0000gn/T//cchEhHjd.s 			page 27


 1483 0028 284D     		ldr	r5, .L76+12
 1484 002a FFF7FEFF 		bl	_pal_lld_setgroupmode
 1485              	.LVL149:
 1486              		.loc 1 66 0
 1487 002e 2849     		ldr	r1, .L76+16
 1488 0030 2848     		ldr	r0, .L76+20
 1489 0032 FFF7FEFF 		bl	spiStart
 1490              	.LVL150:
 1491              		.loc 1 67 0
 1492 0036 2849     		ldr	r1, .L76+24
 1493 0038 2848     		ldr	r0, .L76+28
 1494 003a FFF7FEFF 		bl	extStart
 1495              	.LVL151:
 1496 003e 284B     		ldr	r3, .L76+32
 1497              	.LBB158:
 1498              	.LBB159:
 1499              		.loc 1 315 0
 1500 0040 0022     		movs	r2, #0
 1501 0042 03F59070 		add	r0, r3, #288
 1502 0046 A3F12C01 		sub	r1, r3, #44
 1503              	.LVL152:
 1504              	.L73:
 1505              		.loc 1 314 0
 1506 004a 43F82C5C 		str	r5, [r3, #-44]
 1507              		.loc 1 315 0
 1508 004e 03F8042C 		strb	r2, [r3, #-4]
 1509              		.loc 1 316 0
 1510 0052 43F8281C 		str	r1, [r3, #-40]
 1511              	.LVL153:
 1512              	.LBB160:
 1513              	.LBB161:
 1514              		.loc 3 172 0
 1515 0056 1B60     		str	r3, [r3]
 1516              	.LVL154:
 1517 0058 3033     		adds	r3, r3, #48
 1518              	.LBE161:
 1519              	.LBE160:
 1520              		.loc 1 312 0
 1521 005a 8342     		cmp	r3, r0
 1522              		.loc 1 316 0
 1523 005c 214C     		ldr	r4, .L76+36
 1524              		.loc 1 312 0
 1525 005e F4D1     		bne	.L73
 1526              	.LVL155:
 1527              	.LBE159:
 1528              	.LBB162:
 1529              	.LBB163:
 1530              		.loc 3 172 0
 1531 0060 04F59072 		add	r2, r4, #288
 1532              	.LBE163:
 1533              	.LBE162:
 1534              	.LBE158:
 1535              	.LBB166:
 1536              	.LBB167:
 1537              		.loc 1 325 0
 1538 0064 204B     		ldr	r3, .L76+40
 1539              	.LBE167:
ARM GAS  /var/folders/m4/4md61f0s1_g0rzfghffqnxvr0000gn/T//cchEhHjd.s 			page 28


 1540              	.LBE166:
 1541              	.LBB169:
 1542              	.LBB165:
 1543              	.LBB164:
 1544              		.loc 3 172 0
 1545 0066 C4F82021 		str	r2, [r4, #288]
 1546              	.LVL156:
 1547              	.LBE164:
 1548              	.LBE165:
 1549              	.LBE169:
 1550              		.loc 1 70 0
 1551 006a 0521     		movs	r1, #5
 1552 006c 1B48     		ldr	r0, .L76+28
 1553              	.LBB170:
 1554              	.LBB168:
 1555              		.loc 1 325 0
 1556 006e C4F82431 		str	r3, [r4, #292]
 1557              	.LVL157:
 1558              	.LBE168:
 1559              	.LBE170:
 1560              		.loc 1 70 0
 1561 0072 FFF7FEFF 		bl	extChannelEnable
 1562              	.LVL158:
 1563              		.loc 1 72 0
 1564 0076 2046     		mov	r0, r4
 1565 0078 FFF7FEFF 		bl	_Z25nrf24l01EnableDynamicSizeP14NRF24L01Driver
 1566              	.LVL159:
 1567              		.loc 1 73 0
 1568 007c 2046     		mov	r0, r4
 1569 007e 3F21     		movs	r1, #63
 1570 0080 FFF7FEFF 		bl	_Z29nrf24l01EnableDynamicPipeSizeP14NRF24L01Driverh
 1571              	.LVL160:
 1572              		.loc 1 75 0
 1573 0084 2046     		mov	r0, r4
 1574 0086 1949     		ldr	r1, .L76+44
 1575 0088 FFF7FEFF 		bl	_Z20nrf24l01SetTXAddressP14NRF24L01DriverPKh
 1576              	.LVL161:
 1577              		.loc 1 76 0
 1578 008c 2046     		mov	r0, r4
 1579 008e 174A     		ldr	r2, .L76+44
 1580 0090 0021     		movs	r1, #0
 1581 0092 FFF7FEFF 		bl	_Z20nrf24l01SetRXAddressP14NRF24L01DriverhPKh
 1582              	.LVL162:
 1583              	.LBB171:
 1584              	.LBB172:
 1585              	.LBB173:
 1586              		.loc 1 432 0
 1587 0096 2022     		movs	r2, #32
 1588 0098 1121     		movs	r1, #17
 1589 009a 2046     		mov	r0, r4
 1590 009c FFF7FEFF 		bl	_Z21nrf24l01WriteRegisterP14NRF24L01Driverhh
 1591              	.LVL163:
 1592              	.LBE173:
 1593              	.LBE172:
 1594              	.LBE171:
 1595              		.loc 1 79 0
 1596 00a0 2046     		mov	r0, r4
ARM GAS  /var/folders/m4/4md61f0s1_g0rzfghffqnxvr0000gn/T//cchEhHjd.s 			page 29


 1597 00a2 FFF7FEFF 		bl	_Z15nrf24l01FlushRXP14NRF24L01Driver
 1598              	.LVL164:
 1599              		.loc 1 80 0
 1600 00a6 2046     		mov	r0, r4
 1601 00a8 FFF7FEFF 		bl	_Z15nrf24l01FlushTXP14NRF24L01Driver
 1602              	.LVL165:
 1603              	.LBB174:
 1604              	.LBB175:
 1605              		.loc 1 409 0
 1606 00ac 2046     		mov	r0, r4
 1607 00ae 7022     		movs	r2, #112
 1608 00b0 0721     		movs	r1, #7
 1609 00b2 FFF7FEFF 		bl	_Z21nrf24l01WriteRegisterP14NRF24L01Driverhh
 1610              	.LVL166:
 1611              	.LBE175:
 1612              	.LBE174:
 1613              		.loc 1 83 0
 1614 00b6 2046     		mov	r0, r4
 1615              		.loc 1 84 0
 1616 00b8 BDE83840 		pop	{r3, r4, r5, lr}
 1617              		.cfi_restore 14
 1618              		.cfi_restore 5
 1619              		.cfi_restore 4
 1620              		.cfi_restore 3
 1621              		.cfi_def_cfa_offset 0
 1622              		.loc 1 83 0
 1623 00bc FFF7FEBF 		b	_Z15nrf24l01PowerUpP14NRF24L01Driver
 1624              	.LVL167:
 1625              	.L77:
 1626              		.align	2
 1627              	.L76:
 1628 00c0 00000240 		.word	1073872896
 1629 00c4 00040240 		.word	1073873920
 1630 00c8 00080240 		.word	1073874944
 1631 00cc 00000000 		.word	.LANCHOR1
 1632 00d0 00000000 		.word	.LANCHOR3
 1633 00d4 00000000 		.word	SPID1
 1634 00d8 00000000 		.word	.LANCHOR4
 1635 00dc 00000000 		.word	EXTD1
 1636 00e0 2C000000 		.word	.LANCHOR0+44
 1637 00e4 00000000 		.word	.LANCHOR0
 1638 00e8 00000000 		.word	.LANCHOR5
 1639 00ec 00000000 		.word	.LANCHOR6
 1640              		.cfi_endproc
 1641              	.LFE269:
 1642              		.size	_Z12initNRF24L01v, .-_Z12initNRF24L01v
 1643              		.section	.text._Z15nrf24l01GetSizeP14NRF24L01Driver,"ax",%progbits
 1644              		.align	2
 1645              		.p2align 4,,15
 1646              		.global	_Z15nrf24l01GetSizeP14NRF24L01Driver
 1647              		.thumb
 1648              		.thumb_func
 1649              		.type	_Z15nrf24l01GetSizeP14NRF24L01Driver, %function
 1650              	_Z15nrf24l01GetSizeP14NRF24L01Driver:
 1651              	.LFB303:
 1652              		.loc 1 536 0
 1653              		.cfi_startproc
ARM GAS  /var/folders/m4/4md61f0s1_g0rzfghffqnxvr0000gn/T//cchEhHjd.s 			page 30


 1654              		@ args = 0, pretend = 0, frame = 8
 1655              		@ frame_needed = 0, uses_anonymous_args = 0
 1656              	.LVL168:
 1657 0000 10B5     		push	{r4, lr}
 1658              		.cfi_def_cfa_offset 8
 1659              		.cfi_offset 4, -8
 1660              		.cfi_offset 14, -4
 1661 0002 82B0     		sub	sp, sp, #8
 1662              		.cfi_def_cfa_offset 16
 1663              		.loc 1 537 0
 1664 0004 6023     		movs	r3, #96
 1665 0006 8DF80030 		strb	r3, [sp]
 1666              		.loc 1 540 0
 1667 000a D0F82421 		ldr	r2, [r0, #292]
 1668              		.loc 1 537 0
 1669 000e 0023     		movs	r3, #0
 1670              		.loc 1 536 0
 1671 0010 0446     		mov	r4, r0
 1672              		.loc 1 537 0
 1673 0012 8DF80130 		strb	r3, [sp, #1]
 1674              		.loc 1 538 0
 1675 0016 8DF80430 		strb	r3, [sp, #4]
 1676 001a 8DF80530 		strb	r3, [sp, #5]
 1677              		.loc 1 540 0
 1678 001e 1068     		ldr	r0, [r2]
 1679              	.LVL169:
 1680 0020 FFF7FEFF 		bl	spiSelect
 1681              	.LVL170:
 1682              		.loc 1 541 0
 1683 0024 D4F82421 		ldr	r2, [r4, #292]
 1684 0028 01AB     		add	r3, sp, #4
 1685 002a 1068     		ldr	r0, [r2]
 1686 002c 0221     		movs	r1, #2
 1687 002e 6A46     		mov	r2, sp
 1688 0030 FFF7FEFF 		bl	spiExchange
 1689              	.LVL171:
 1690              		.loc 1 542 0
 1691 0034 D4F82431 		ldr	r3, [r4, #292]
 1692 0038 1868     		ldr	r0, [r3]
 1693 003a FFF7FEFF 		bl	spiUnselect
 1694              	.LVL172:
 1695              		.loc 1 545 0
 1696 003e 9DF80500 		ldrb	r0, [sp, #5]	@ zero_extendqisi2
 1697 0042 02B0     		add	sp, sp, #8
 1698              		.cfi_def_cfa_offset 8
 1699              		@ sp needed
 1700 0044 10BD     		pop	{r4, pc}
 1701              		.cfi_endproc
 1702              	.LFE303:
 1703              		.size	_Z15nrf24l01GetSizeP14NRF24L01Driver, .-_Z15nrf24l01GetSizeP14NRF24L01Driver
 1704 0046 00BF     		.section	.text._Z15nrf24l01EnterRXP14NRF24L01Driver,"ax",%progbits
 1705              		.align	2
 1706              		.p2align 4,,15
 1707              		.global	_Z15nrf24l01EnterRXP14NRF24L01Driver
 1708              		.thumb
 1709              		.thumb_func
 1710              		.type	_Z15nrf24l01EnterRXP14NRF24L01Driver, %function
ARM GAS  /var/folders/m4/4md61f0s1_g0rzfghffqnxvr0000gn/T//cchEhHjd.s 			page 31


 1711              	_Z15nrf24l01EnterRXP14NRF24L01Driver:
 1712              	.LFB304:
 1713              		.loc 1 548 0
 1714              		.cfi_startproc
 1715              		@ args = 0, pretend = 0, frame = 0
 1716              		@ frame_needed = 0, uses_anonymous_args = 0
 1717              	.LVL173:
 1718              		.loc 1 549 0
 1719 0000 D0F82421 		ldr	r2, [r0, #292]
 1720              		.loc 1 548 0
 1721 0004 38B5     		push	{r3, r4, r5, lr}
 1722              		.cfi_def_cfa_offset 16
 1723              		.cfi_offset 3, -16
 1724              		.cfi_offset 4, -12
 1725              		.cfi_offset 5, -8
 1726              		.cfi_offset 14, -4
 1727              		.loc 1 549 0
 1728 0006 1389     		ldrh	r3, [r2, #8]
 1729 0008 5268     		ldr	r2, [r2, #4]
 1730 000a 0124     		movs	r4, #1
 1731 000c 04FA03F3 		lsl	r3, r4, r3
 1732 0010 9BB2     		uxth	r3, r3
 1733 0012 5383     		strh	r3, [r2, #26]	@ movhi
 1734              		.loc 1 551 0
 1735 0014 0021     		movs	r1, #0
 1736              		.loc 1 548 0
 1737 0016 0546     		mov	r5, r0
 1738              		.loc 1 551 0
 1739 0018 FFF7FEFF 		bl	_Z20nrf24l01ReadRegisterP14NRF24L01Driverh
 1740              	.LVL174:
 1741              		.loc 1 553 0
 1742 001c 40EA0402 		orr	r2, r0, r4
 1743 0020 D2B2     		uxtb	r2, r2
 1744 0022 2846     		mov	r0, r5
 1745              	.LVL175:
 1746 0024 0021     		movs	r1, #0
 1747 0026 FFF7FEFF 		bl	_Z21nrf24l01WriteRegisterP14NRF24L01Driverhh
 1748              	.LVL176:
 1749              		.loc 1 555 0
 1750 002a D5F82431 		ldr	r3, [r5, #292]
 1751 002e 1A89     		ldrh	r2, [r3, #8]
 1752 0030 5B68     		ldr	r3, [r3, #4]
 1753 0032 9440     		lsls	r4, r4, r2
 1754 0034 A4B2     		uxth	r4, r4
 1755 0036 1C83     		strh	r4, [r3, #24]	@ movhi
 1756 0038 38BD     		pop	{r3, r4, r5, pc}
 1757              		.cfi_endproc
 1758              	.LFE304:
 1759              		.size	_Z15nrf24l01EnterRXP14NRF24L01Driver, .-_Z15nrf24l01EnterRXP14NRF24L01Driver
 1760 003a 00BF     		.section	.text._ZL5readtPvPhjm,"ax",%progbits
 1761              		.align	2
 1762              		.p2align 4,,15
 1763              		.thumb
 1764              		.thumb_func
 1765              		.type	_ZL5readtPvPhjm, %function
 1766              	_ZL5readtPvPhjm:
 1767              	.LFB271:
ARM GAS  /var/folders/m4/4md61f0s1_g0rzfghffqnxvr0000gn/T//cchEhHjd.s 			page 32


 1768              		.loc 1 147 0
 1769              		.cfi_startproc
 1770              		@ args = 0, pretend = 0, frame = 32
 1771              		@ frame_needed = 0, uses_anonymous_args = 0
 1772              	.LVL177:
 1773 0000 2DE9F04F 		push	{r4, r5, r6, r7, r8, r9, r10, fp, lr}
 1774              		.cfi_def_cfa_offset 36
 1775              		.cfi_offset 4, -36
 1776              		.cfi_offset 5, -32
 1777              		.cfi_offset 6, -28
 1778              		.cfi_offset 7, -24
 1779              		.cfi_offset 8, -20
 1780              		.cfi_offset 9, -16
 1781              		.cfi_offset 10, -12
 1782              		.cfi_offset 11, -8
 1783              		.cfi_offset 14, -4
 1784              		.loc 1 149 0
 1785 0004 D0F804A0 		ldr	r10, [r0, #4]
 1786              	.LVL178:
 1787              		.loc 1 147 0
 1788 0008 89B0     		sub	sp, sp, #36
 1789              		.cfi_def_cfa_offset 72
 1790 000a 0AF59075 		add	r5, r10, #288
 1791 000e 5446     		mov	r4, r10
 1792 0010 0195     		str	r5, [sp, #4]
 1793              	.LVL179:
 1794              	.L85:
 1795              	.LBB176:
 1796              		.loc 1 154 0
 1797 0012 A042     		cmp	r0, r4
 1798 0014 04F13004 		add	r4, r4, #48
 1799 0018 06D0     		beq	.L83
 1800              		.loc 1 152 0 discriminator 2
 1801 001a AC42     		cmp	r4, r5
 1802 001c F9D1     		bne	.L85
 1803              	.LBE176:
 1804              		.loc 1 162 0
 1805 001e 0025     		movs	r5, #0
 1806              		.loc 1 245 0
 1807 0020 2846     		mov	r0, r5
 1808              	.LVL180:
 1809 0022 09B0     		add	sp, sp, #36
 1810              		.cfi_remember_state
 1811              		.cfi_def_cfa_offset 36
 1812              		@ sp needed
 1813 0024 BDE8F08F 		pop	{r4, r5, r6, r7, r8, r9, r10, fp, pc}
 1814              	.LVL181:
 1815              	.L83:
 1816              		.cfi_restore_state
 1817 0028 0093     		str	r3, [sp]
 1818 002a 0646     		mov	r6, r0
 1819              	.LVL182:
 1820              	.LBB177:
 1821              	.LBB178:
 1822              		.loc 3 193 0
 1823 002c 4FF0FF33 		mov	r3, #-1
 1824              	.LVL183:
ARM GAS  /var/folders/m4/4md61f0s1_g0rzfghffqnxvr0000gn/T//cchEhHjd.s 			page 33


 1825 0030 0198     		ldr	r0, [sp, #4]
 1826              	.LVL184:
 1827 0032 1746     		mov	r7, r2
 1828 0034 8B46     		mov	fp, r1
 1829 0036 0122     		movs	r2, #1
 1830              	.LVL185:
 1831 0038 03A9     		add	r1, sp, #12
 1832              	.LVL186:
 1833 003a FFF7FEFF 		bl	chEvtRegisterMaskWithFlags
 1834              	.LVL187:
 1835              	.LBE178:
 1836              	.LBE177:
 1837              		.loc 1 168 0
 1838 003e 5046     		mov	r0, r10
 1839 0040 FFF7FEFF 		bl	_Z15nrf24l01EnterRXP14NRF24L01Driver
 1840              	.LVL188:
 1841 0044 96F82830 		ldrb	r3, [r6, #40]	@ zero_extendqisi2
 1842              		.loc 1 164 0
 1843 0048 0024     		movs	r4, #0
 1844              	.LVL189:
 1845              	.L109:
 1846              		.loc 1 170 0
 1847 004a BC42     		cmp	r4, r7
 1848 004c 2546     		mov	r5, r4
 1849 004e 1DD2     		bcs	.L86
 1850              	.L120:
 1851              	.LBB179:
 1852              	.LBB180:
 1853              		.loc 1 172 0
 1854 0050 7BB3     		cbz	r3, .L87
 1855              	.LBB181:
 1856              		.loc 1 174 0
 1857 0052 3D1B     		subs	r5, r7, r4
 1858 0054 9D42     		cmp	r5, r3
 1859 0056 28BF     		it	cs
 1860 0058 1D46     		movcs	r5, r3
 1861 005a EDB2     		uxtb	r5, r5
 1862              	.LVL190:
 1863 005c 0BEB0400 		add	r0, fp, r4
 1864 0060 0021     		movs	r1, #0
 1865              	.LVL191:
 1866              	.L89:
 1867              	.LBB182:
 1868              		.loc 1 176 0 discriminator 2
 1869 0062 7218     		adds	r2, r6, r1
 1870 0064 D31A     		subs	r3, r2, r3
 1871 0066 0131     		adds	r1, r1, #1
 1872              	.LVL192:
 1873 0068 93F82830 		ldrb	r3, [r3, #40]	@ zero_extendqisi2
 1874 006c 00F8013B 		strb	r3, [r0], #1
 1875              		.loc 1 175 0 discriminator 2
 1876 0070 CBB2     		uxtb	r3, r1
 1877 0072 9D42     		cmp	r5, r3
 1878              	.LBE182:
 1879              		.loc 1 177 0 discriminator 2
 1880 0074 96F82830 		ldrb	r3, [r6, #40]	@ zero_extendqisi2
 1881              	.LBB183:
ARM GAS  /var/folders/m4/4md61f0s1_g0rzfghffqnxvr0000gn/T//cchEhHjd.s 			page 34


 1882              		.loc 1 175 0 discriminator 2
 1883 0078 F3D8     		bhi	.L89
 1884              	.LBE183:
 1885              		.loc 1 178 0
 1886 007a 2C44     		add	r4, r4, r5
 1887              	.LVL193:
 1888              		.loc 1 177 0
 1889 007c 5B1B     		subs	r3, r3, r5
 1890              		.loc 1 178 0
 1891 007e A4B2     		uxth	r4, r4
 1892              	.LVL194:
 1893              		.loc 1 177 0
 1894 0080 DBB2     		uxtb	r3, r3
 1895              	.LBE181:
 1896              	.LBE180:
 1897              	.LBE179:
 1898              		.loc 1 170 0
 1899 0082 BC42     		cmp	r4, r7
 1900              	.LBB232:
 1901              	.LBB185:
 1902              	.LBB184:
 1903              		.loc 1 177 0
 1904 0084 86F82830 		strb	r3, [r6, #40]
 1905              	.LBE184:
 1906              	.LBE185:
 1907              	.LBE232:
 1908              		.loc 1 170 0
 1909 0088 2546     		mov	r5, r4
 1910              	.LVL195:
 1911 008a E1D3     		bcc	.L120
 1912              	.L86:
 1913              		.loc 1 238 0
 1914 008c 002B     		cmp	r3, #0
 1915 008e 40F08F80 		bne	.L121
 1916              	.L108:
 1917              	.LVL196:
 1918              	.LBB233:
 1919              	.LBB234:
 1920              		.loc 1 571 0
 1921 0092 DAF82421 		ldr	r2, [r10, #292]
 1922              	.LBE234:
 1923              	.LBE233:
 1924              		.loc 1 242 0
 1925 0096 0198     		ldr	r0, [sp, #4]
 1926              	.LBB237:
 1927              	.LBB235:
 1928              		.loc 1 571 0
 1929 0098 1189     		ldrh	r1, [r2, #8]
 1930 009a 5268     		ldr	r2, [r2, #4]
 1931 009c 0123     		movs	r3, #1
 1932 009e 8B40     		lsls	r3, r3, r1
 1933 00a0 9BB2     		uxth	r3, r3
 1934              	.LBE235:
 1935              	.LBE237:
 1936              		.loc 1 242 0
 1937 00a2 03A9     		add	r1, sp, #12
 1938              	.LBB238:
ARM GAS  /var/folders/m4/4md61f0s1_g0rzfghffqnxvr0000gn/T//cchEhHjd.s 			page 35


 1939              	.LBB236:
 1940              		.loc 1 571 0
 1941 00a4 5383     		strh	r3, [r2, #26]	@ movhi
 1942              	.LVL197:
 1943              	.LBE236:
 1944              	.LBE238:
 1945              		.loc 1 242 0
 1946 00a6 FFF7FEFF 		bl	chEvtUnregister
 1947              	.LVL198:
 1948              		.loc 1 245 0
 1949 00aa 2846     		mov	r0, r5
 1950 00ac 09B0     		add	sp, sp, #36
 1951              		.cfi_remember_state
 1952              		.cfi_def_cfa_offset 36
 1953              	.LVL199:
 1954              		@ sp needed
 1955 00ae BDE8F08F 		pop	{r4, r5, r6, r7, r8, r9, r10, fp, pc}
 1956              	.LVL200:
 1957              	.L87:
 1958              		.cfi_restore_state
 1959              	.LBB239:
 1960              	.LBB186:
 1961              	.LBB187:
 1962              		.loc 1 437 0
 1963 00b2 1721     		movs	r1, #23
 1964 00b4 5046     		mov	r0, r10
 1965 00b6 FFF7FEFF 		bl	_Z20nrf24l01ReadRegisterP14NRF24L01Driverh
 1966              	.LVL201:
 1967              	.LBE187:
 1968              	.LBE186:
 1969              	.LBB188:
 1970              		.loc 1 183 0
 1971 00ba C207     		lsls	r2, r0, #31
 1972 00bc 2CD4     		bmi	.L91
 1973              	.LBB189:
 1974              		.loc 1 185 0
 1975 00be C0F34203 		ubfx	r3, r0, #1, #3
 1976              		.loc 1 186 0
 1977 00c2 5046     		mov	r0, r10
 1978              		.loc 1 185 0
 1979 00c4 8DF80B30 		strb	r3, [sp, #11]
 1980              		.loc 1 186 0
 1981 00c8 FFF7FEFF 		bl	_Z15nrf24l01GetSizeP14NRF24L01Driver
 1982              	.LVL202:
 1983              		.loc 1 188 0
 1984 00cc 9DF80B50 		ldrb	r5, [sp, #11]	@ zero_extendqisi2
 1985 00d0 4FEA4509 		lsl	r9, r5, #1
 1986 00d4 09EB0503 		add	r3, r9, r5
 1987 00d8 1B01     		lsls	r3, r3, #4
 1988 00da 0AEB0301 		add	r1, r10, r3
 1989              	.LBB190:
 1990              		.loc 1 190 0
 1991 00de 8E42     		cmp	r6, r1
 1992              	.LBE190:
 1993              		.loc 1 186 0
 1994 00e0 8046     		mov	r8, r0
 1995              	.LVL203:
ARM GAS  /var/folders/m4/4md61f0s1_g0rzfghffqnxvr0000gn/T//cchEhHjd.s 			page 36


 1996              	.LBB216:
 1997              		.loc 1 190 0
 1998 00e2 5DD0     		beq	.L92
 1999              	.LBB191:
 2000              	.LBB192:
 2001              		.loc 1 192 0
 2002 00e4 91F82830 		ldrb	r3, [r1, #40]	@ zero_extendqisi2
 2003 00e8 1A18     		adds	r2, r3, r0
 2004 00ea 202A     		cmp	r2, #32
 2005 00ec 00DC     		bgt	.L93
 2006              		.loc 1 192 0 is_stmt 0 discriminator 1
 2007 00ee 33BB     		cbnz	r3, .L94
 2008              	.L93:
 2009              	.LVL204:
 2010              	.LBB193:
 2011              	.LBB194:
 2012              		.loc 1 481 0 is_stmt 1
 2013 00f0 B8F1200F 		cmp	r8, #32
 2014 00f4 46D9     		bls	.L122
 2015              	.LVL205:
 2016              	.L95:
 2017              	.LBE194:
 2018              	.LBE193:
 2019              		.loc 1 196 0
 2020 00f6 09EB0503 		add	r3, r9, r5
 2021 00fa 0AEB0313 		add	r3, r10, r3, lsl #4
 2022 00fe 83F82880 		strb	r8, [r3, #40]
 2023              	.L96:
 2024              	.LBE192:
 2025              		.loc 1 207 0
 2026 0102 09EB0500 		add	r0, r9, r5
 2027 0106 0AEB0010 		add	r0, r10, r0, lsl #4
 2028 010a 2C30     		adds	r0, r0, #44
 2029 010c 0421     		movs	r1, #4
 2030 010e FFF7FEFF 		bl	chEvtBroadcastFlags
 2031              	.LVL206:
 2032              	.L107:
 2033 0112 96F82830 		ldrb	r3, [r6, #40]	@ zero_extendqisi2
 2034 0116 98E7     		b	.L109
 2035              	.L91:
 2036              	.LBE191:
 2037              	.LBE216:
 2038              	.LBE189:
 2039              	.LBE188:
 2040              		.loc 1 225 0
 2041 0118 0099     		ldr	r1, [sp]
 2042 011a 0120     		movs	r0, #1
 2043 011c FFF7FEFF 		bl	chEvtWaitOneTimeout
 2044              	.LVL207:
 2045 0120 0028     		cmp	r0, #0
 2046 0122 61D0     		beq	.L123
 2047              		.loc 1 232 0
 2048 0124 5046     		mov	r0, r10
 2049 0126 FFF7FEFF 		bl	_Z17nrf24l01GetStatusP14NRF24L01Driver
 2050              	.LVL208:
 2051              		.loc 1 234 0
 2052 012a 4306     		lsls	r3, r0, #25
ARM GAS  /var/folders/m4/4md61f0s1_g0rzfghffqnxvr0000gn/T//cchEhHjd.s 			page 37


 2053 012c F1D5     		bpl	.L107
 2054              	.LVL209:
 2055              	.LBB223:
 2056              	.LBB224:
 2057              		.loc 1 409 0
 2058 012e 4022     		movs	r2, #64
 2059 0130 0721     		movs	r1, #7
 2060 0132 5046     		mov	r0, r10
 2061              	.LVL210:
 2062 0134 FFF7FEFF 		bl	_Z21nrf24l01WriteRegisterP14NRF24L01Driverhh
 2063              	.LVL211:
 2064 0138 96F82830 		ldrb	r3, [r6, #40]	@ zero_extendqisi2
 2065 013c 85E7     		b	.L109
 2066              	.LVL212:
 2067              	.L94:
 2068              	.LBE224:
 2069              	.LBE223:
 2070              	.LBB225:
 2071              	.LBB220:
 2072              	.LBB217:
 2073              	.LBB206:
 2074              	.LBB204:
 2075              	.LBB196:
 2076              	.LBB197:
 2077              		.loc 1 201 0
 2078 013e C3F12003 		rsb	r3, r3, #32
 2079 0142 1B1A     		subs	r3, r3, r0
 2080 0144 DBB2     		uxtb	r3, r3
 2081              	.LVL213:
 2082 0146 C0F12002 		rsb	r2, r0, #32
 2083 014a 9A42     		cmp	r2, r3
 2084              		.loc 1 202 0
 2085 014c C8BF     		it	gt
 2086 014e 01EB000C 		addgt	ip, r1, r0
 2087              		.loc 1 201 0
 2088 0152 0ADD     		ble	.L100
 2089              	.LVL214:
 2090              	.L101:
 2091              		.loc 1 202 0 discriminator 2
 2092 0154 0CEB030E 		add	lr, ip, r3
 2093 0158 C818     		adds	r0, r1, r3
 2094              		.loc 1 201 0 discriminator 2
 2095 015a 0133     		adds	r3, r3, #1
 2096              	.LVL215:
 2097 015c DBB2     		uxtb	r3, r3
 2098              	.LVL216:
 2099              		.loc 1 202 0 discriminator 2
 2100 015e 9EF808E0 		ldrb	lr, [lr, #8]	@ zero_extendqisi2
 2101 0162 80F808E0 		strb	lr, [r0, #8]
 2102              		.loc 1 201 0 discriminator 2
 2103 0166 9A42     		cmp	r2, r3
 2104 0168 F4DC     		bgt	.L101
 2105              	.L100:
 2106              	.LVL217:
 2107              	.LBE197:
 2108              	.LBB198:
 2109              	.LBB199:
ARM GAS  /var/folders/m4/4md61f0s1_g0rzfghffqnxvr0000gn/T//cchEhHjd.s 			page 38


 2110              		.loc 1 481 0
 2111 016a B8F1200F 		cmp	r8, #32
 2112 016e 2ED9     		bls	.L124
 2113              	.LVL218:
 2114              	.L98:
 2115              	.LBE199:
 2116              	.LBE198:
 2117              		.loc 1 205 0
 2118 0170 09EB0503 		add	r3, r9, r5
 2119 0174 0AEB0313 		add	r3, r10, r3, lsl #4
 2120 0178 93F82820 		ldrb	r2, [r3, #40]	@ zero_extendqisi2
 2121 017c 9044     		add	r8, r8, r2
 2122 017e 83F82880 		strb	r8, [r3, #40]
 2123 0182 BEE7     		b	.L96
 2124              	.LVL219:
 2125              	.L122:
 2126              	.LBE196:
 2127              		.loc 1 195 0
 2128 0184 09EB0502 		add	r2, r9, r5
 2129 0188 0AEB0212 		add	r2, r10, r2, lsl #4
 2130              	.LBB202:
 2131              	.LBB195:
 2132 018c C8EB0202 		rsb	r2, r8, r2
 2133 0190 2832     		adds	r2, r2, #40
 2134 0192 0DF10B03 		add	r3, sp, #11
 2135              	.LVL220:
 2136 0196 4146     		mov	r1, r8
 2137 0198 5046     		mov	r0, r10
 2138              	.LVL221:
 2139 019a FFF7FEFF 		bl	_Z19nrf24l01ReadPayloadP14NRF24L01DriverhPhS1_.part.2
 2140              	.LVL222:
 2141 019e AAE7     		b	.L95
 2142              	.LVL223:
 2143              	.L92:
 2144              	.LBE195:
 2145              	.LBE202:
 2146              	.LBE204:
 2147              	.LBE206:
 2148              		.loc 1 211 0
 2149 01a0 3A1B     		subs	r2, r7, r4
 2150 01a2 9042     		cmp	r0, r2
 2151 01a4 0AD8     		bhi	.L103
 2152              	.LVL224:
 2153              	.LBB207:
 2154              	.LBB208:
 2155              		.loc 1 481 0
 2156 01a6 2028     		cmp	r0, #32
 2157 01a8 3AD9     		bls	.L125
 2158              	.LVL225:
 2159              	.L104:
 2160              	.LBE208:
 2161              	.LBE207:
 2162              		.loc 1 214 0
 2163 01aa 4444     		add	r4, r4, r8
 2164              	.LVL226:
 2165 01ac A4B2     		uxth	r4, r4
 2166              	.LVL227:
ARM GAS  /var/folders/m4/4md61f0s1_g0rzfghffqnxvr0000gn/T//cchEhHjd.s 			page 39


 2167 01ae B0E7     		b	.L107
 2168              	.LVL228:
 2169              	.L121:
 2170              	.LBE217:
 2171              	.LBE220:
 2172              	.LBE225:
 2173              	.LBE239:
 2174              		.loc 1 239 0
 2175 01b0 06F12C00 		add	r0, r6, #44
 2176 01b4 0421     		movs	r1, #4
 2177 01b6 FFF7FEFF 		bl	chEvtBroadcastFlags
 2178              	.LVL229:
 2179 01ba 6AE7     		b	.L108
 2180              	.LVL230:
 2181              	.L103:
 2182              	.LBB240:
 2183              	.LBB226:
 2184              	.LBB221:
 2185              	.LBB218:
 2186              	.LBB210:
 2187              	.LBB211:
 2188              		.loc 1 481 0
 2189 01bc 2028     		cmp	r0, #32
 2190 01be 23D9     		bls	.L126
 2191              	.LVL231:
 2192              	.L105:
 2193              	.LBE211:
 2194              	.LBE210:
 2195              		.loc 1 219 0
 2196 01c0 09EB0503 		add	r3, r9, r5
 2197 01c4 0AEB0313 		add	r3, r10, r3, lsl #4
 2198 01c8 83F82880 		strb	r8, [r3, #40]
 2199 01cc A1E7     		b	.L107
 2200              	.LVL232:
 2201              	.L124:
 2202              	.LBB213:
 2203              	.LBB205:
 2204              	.LBB203:
 2205              		.loc 1 204 0
 2206 01ce 09EB0503 		add	r3, r9, r5
 2207              	.LVL233:
 2208 01d2 0AEB0313 		add	r3, r10, r3, lsl #4
 2209 01d6 0833     		adds	r3, r3, #8
 2210              	.LBB201:
 2211              	.LBB200:
 2212 01d8 1A44     		add	r2, r2, r3
 2213 01da 4146     		mov	r1, r8
 2214 01dc 0DF10B03 		add	r3, sp, #11
 2215              	.LVL234:
 2216 01e0 5046     		mov	r0, r10
 2217 01e2 FFF7FEFF 		bl	_Z19nrf24l01ReadPayloadP14NRF24L01DriverhPhS1_.part.2
 2218              	.LVL235:
 2219 01e6 C3E7     		b	.L98
 2220              	.LVL236:
 2221              	.L123:
 2222              	.LBE200:
 2223              	.LBE201:
ARM GAS  /var/folders/m4/4md61f0s1_g0rzfghffqnxvr0000gn/T//cchEhHjd.s 			page 40


 2224              	.LBE203:
 2225              	.LBE205:
 2226              	.LBE213:
 2227              	.LBE218:
 2228              	.LBE221:
 2229              	.LBE226:
 2230              		.loc 1 227 0
 2231 01e8 03A9     		add	r1, sp, #12
 2232 01ea 0198     		ldr	r0, [sp, #4]
 2233 01ec FFF7FEFF 		bl	chEvtUnregister
 2234              	.LVL237:
 2235              	.LBB227:
 2236              	.LBB228:
 2237              		.loc 1 571 0
 2238 01f0 DAF82421 		ldr	r2, [r10, #292]
 2239 01f4 1189     		ldrh	r1, [r2, #8]
 2240 01f6 5268     		ldr	r2, [r2, #4]
 2241 01f8 0123     		movs	r3, #1
 2242 01fa 8B40     		lsls	r3, r3, r1
 2243 01fc 9BB2     		uxth	r3, r3
 2244              	.LBE228:
 2245              	.LBE227:
 2246              	.LBE240:
 2247              		.loc 1 245 0
 2248 01fe 2846     		mov	r0, r5
 2249              	.LBB241:
 2250              	.LBB230:
 2251              	.LBB229:
 2252              		.loc 1 571 0
 2253 0200 5383     		strh	r3, [r2, #26]	@ movhi
 2254              	.LVL238:
 2255              	.LBE229:
 2256              	.LBE230:
 2257              	.LBE241:
 2258              		.loc 1 245 0
 2259 0202 09B0     		add	sp, sp, #36
 2260              		.cfi_remember_state
 2261              		.cfi_def_cfa_offset 36
 2262              	.LVL239:
 2263              		@ sp needed
 2264 0204 BDE8F08F 		pop	{r4, r5, r6, r7, r8, r9, r10, fp, pc}
 2265              	.LVL240:
 2266              	.L126:
 2267              		.cfi_restore_state
 2268              	.LBB242:
 2269              	.LBB231:
 2270              	.LBB222:
 2271              	.LBB219:
 2272              		.loc 1 218 0
 2273 0208 0833     		adds	r3, r3, #8
 2274 020a 5344     		add	r3, r3, r10
 2275              	.LBB214:
 2276              	.LBB212:
 2277 020c C0F12002 		rsb	r2, r0, #32
 2278 0210 1A44     		add	r2, r2, r3
 2279 0212 0146     		mov	r1, r0
 2280 0214 0DF10B03 		add	r3, sp, #11
ARM GAS  /var/folders/m4/4md61f0s1_g0rzfghffqnxvr0000gn/T//cchEhHjd.s 			page 41


 2281              	.LVL241:
 2282 0218 5046     		mov	r0, r10
 2283              	.LVL242:
 2284 021a FFF7FEFF 		bl	_Z19nrf24l01ReadPayloadP14NRF24L01DriverhPhS1_.part.2
 2285              	.LVL243:
 2286 021e CFE7     		b	.L105
 2287              	.LVL244:
 2288              	.L125:
 2289              	.LBE212:
 2290              	.LBE214:
 2291              	.LBB215:
 2292              	.LBB209:
 2293 0220 0146     		mov	r1, r0
 2294 0222 0DF10B03 		add	r3, sp, #11
 2295              	.LVL245:
 2296 0226 0BEB0402 		add	r2, fp, r4
 2297 022a 5046     		mov	r0, r10
 2298              	.LVL246:
 2299 022c FFF7FEFF 		bl	_Z19nrf24l01ReadPayloadP14NRF24L01DriverhPhS1_.part.2
 2300              	.LVL247:
 2301 0230 BBE7     		b	.L104
 2302              	.LBE209:
 2303              	.LBE215:
 2304              	.LBE219:
 2305              	.LBE222:
 2306              	.LBE231:
 2307              	.LBE242:
 2308              		.cfi_endproc
 2309              	.LFE271:
 2310              		.size	_ZL5readtPvPhjm, .-_ZL5readtPvPhjm
 2311 0232 00BF     		.section	.text._ZL4gettPvm,"ax",%progbits
 2312              		.align	2
 2313              		.p2align 4,,15
 2314              		.thumb
 2315              		.thumb_func
 2316              		.type	_ZL4gettPvm, %function
 2317              	_ZL4gettPvm:
 2318              	.LFB273:
 2319              		.loc 1 255 0
 2320              		.cfi_startproc
 2321              		@ args = 0, pretend = 0, frame = 8
 2322              		@ frame_needed = 0, uses_anonymous_args = 0
 2323              	.LVL248:
 2324 0000 10B5     		push	{r4, lr}
 2325              		.cfi_def_cfa_offset 8
 2326              		.cfi_offset 4, -8
 2327              		.cfi_offset 14, -4
 2328              		.loc 1 256 0
 2329 0002 4268     		ldr	r2, [r0, #4]
 2330              	.LVL249:
 2331              		.loc 1 255 0
 2332 0004 82B0     		sub	sp, sp, #8
 2333              		.cfi_def_cfa_offset 16
 2334 0006 02F59074 		add	r4, r2, #288
 2335              	.LVL250:
 2336              	.L130:
 2337              	.LBB252:
ARM GAS  /var/folders/m4/4md61f0s1_g0rzfghffqnxvr0000gn/T//cchEhHjd.s 			page 42


 2338              		.loc 1 261 0
 2339 000a 9042     		cmp	r0, r2
 2340 000c 02F13002 		add	r2, r2, #48
 2341 0010 05D0     		beq	.L128
 2342              		.loc 1 259 0 discriminator 2
 2343 0012 A242     		cmp	r2, r4
 2344 0014 F9D1     		bne	.L130
 2345              	.LBE252:
 2346              		.loc 1 269 0
 2347 0016 6FF00100 		mvn	r0, #1
 2348              	.LVL251:
 2349              		.loc 1 284 0
 2350 001a 02B0     		add	sp, sp, #8
 2351              		.cfi_remember_state
 2352              		.cfi_def_cfa_offset 8
 2353              		@ sp needed
 2354 001c 10BD     		pop	{r4, pc}
 2355              	.LVL252:
 2356              	.L128:
 2357              		.cfi_restore_state
 2358              	.LBB253:
 2359              		.loc 1 271 0
 2360 001e 90F82820 		ldrb	r2, [r0, #40]	@ zero_extendqisi2
 2361 0022 42B1     		cbz	r2, .L142
 2362              	.LBB254:
 2363              		.loc 1 273 0
 2364 0024 831A     		subs	r3, r0, r2
 2365              		.loc 1 274 0
 2366 0026 013A     		subs	r2, r2, #1
 2367              		.loc 1 273 0
 2368 0028 93F82830 		ldrb	r3, [r3, #40]	@ zero_extendqisi2
 2369              	.LVL253:
 2370              		.loc 1 274 0
 2371 002c 80F82820 		strb	r2, [r0, #40]
 2372              		.loc 1 275 0
 2373 0030 1846     		mov	r0, r3
 2374              	.LVL254:
 2375              	.LBE254:
 2376              	.LBE253:
 2377              		.loc 1 284 0
 2378 0032 02B0     		add	sp, sp, #8
 2379              		.cfi_remember_state
 2380              		.cfi_def_cfa_offset 8
 2381              		@ sp needed
 2382 0034 10BD     		pop	{r4, pc}
 2383              	.LVL255:
 2384              	.L142:
 2385              		.cfi_restore_state
 2386 0036 0B46     		mov	r3, r1
 2387              	.LVL256:
 2388              	.LBB255:
 2389              	.LBB256:
 2390              	.LBB257:
 2391              		.loc 1 280 0
 2392 0038 0122     		movs	r2, #1
 2393 003a 0DF10701 		add	r1, sp, #7
 2394              	.LVL257:
ARM GAS  /var/folders/m4/4md61f0s1_g0rzfghffqnxvr0000gn/T//cchEhHjd.s 			page 43


 2395 003e FFF7FEFF 		bl	_ZL5readtPvPhjm
 2396              	.LVL258:
 2397 0042 18B9     		cbnz	r0, .L143
 2398              		.loc 1 281 0
 2399 0044 4FF0FF30 		mov	r0, #-1
 2400              	.LVL259:
 2401              	.LBE257:
 2402              	.LBE256:
 2403              	.LBE255:
 2404              		.loc 1 284 0
 2405 0048 02B0     		add	sp, sp, #8
 2406              		.cfi_remember_state
 2407              		.cfi_def_cfa_offset 8
 2408              		@ sp needed
 2409 004a 10BD     		pop	{r4, pc}
 2410              	.LVL260:
 2411              	.L143:
 2412              		.cfi_restore_state
 2413              	.LBB260:
 2414              	.LBB259:
 2415              	.LBB258:
 2416              		.loc 1 282 0
 2417 004c 9DF80700 		ldrb	r0, [sp, #7]	@ zero_extendqisi2
 2418              	.LBE258:
 2419              	.LBE259:
 2420              	.LBE260:
 2421              		.loc 1 284 0
 2422 0050 02B0     		add	sp, sp, #8
 2423              		.cfi_def_cfa_offset 8
 2424              		@ sp needed
 2425 0052 10BD     		pop	{r4, pc}
 2426              		.cfi_endproc
 2427              	.LFE273:
 2428              		.size	_ZL4gettPvm, .-_ZL4gettPvm
 2429              		.section	.text._ZL3getPv,"ax",%progbits
 2430              		.align	2
 2431              		.p2align 4,,15
 2432              		.thumb
 2433              		.thumb_func
 2434              		.type	_ZL3getPv, %function
 2435              	_ZL3getPv:
 2436              	.LFB277:
 2437              		.loc 1 302 0
 2438              		.cfi_startproc
 2439              		@ args = 0, pretend = 0, frame = 0
 2440              		@ frame_needed = 0, uses_anonymous_args = 0
 2441              		@ link register save eliminated.
 2442              	.LVL261:
 2443              		.loc 1 303 0
 2444 0000 4FF0FF31 		mov	r1, #-1
 2445 0004 FFF7FEBF 		b	_ZL4gettPvm
 2446              	.LVL262:
 2447              		.cfi_endproc
 2448              	.LFE277:
 2449              		.size	_ZL3getPv, .-_ZL3getPv
 2450              		.section	.text._ZL4readPvPhj,"ax",%progbits
 2451              		.align	2
ARM GAS  /var/folders/m4/4md61f0s1_g0rzfghffqnxvr0000gn/T//cchEhHjd.s 			page 44


 2452              		.p2align 4,,15
 2453              		.thumb
 2454              		.thumb_func
 2455              		.type	_ZL4readPvPhj, %function
 2456              	_ZL4readPvPhj:
 2457              	.LFB275:
 2458              		.loc 1 292 0
 2459              		.cfi_startproc
 2460              		@ args = 0, pretend = 0, frame = 0
 2461              		@ frame_needed = 0, uses_anonymous_args = 0
 2462              		@ link register save eliminated.
 2463              	.LVL263:
 2464              		.loc 1 293 0
 2465 0000 4FF0FF33 		mov	r3, #-1
 2466 0004 FFF7FEBF 		b	_ZL5readtPvPhjm
 2467              	.LVL264:
 2468              		.cfi_endproc
 2469              	.LFE275:
 2470              		.size	_ZL4readPvPhj, .-_ZL4readPvPhj
 2471              		.section	.text._Z15nrf24l01EnterTXP14NRF24L01Driver,"ax",%progbits
 2472              		.align	2
 2473              		.p2align 4,,15
 2474              		.global	_Z15nrf24l01EnterTXP14NRF24L01Driver
 2475              		.thumb
 2476              		.thumb_func
 2477              		.type	_Z15nrf24l01EnterTXP14NRF24L01Driver, %function
 2478              	_Z15nrf24l01EnterTXP14NRF24L01Driver:
 2479              	.LFB305:
 2480              		.loc 1 559 0
 2481              		.cfi_startproc
 2482              		@ args = 0, pretend = 0, frame = 0
 2483              		@ frame_needed = 0, uses_anonymous_args = 0
 2484              	.LVL265:
 2485              		.loc 1 560 0
 2486 0000 D0F82421 		ldr	r2, [r0, #292]
 2487              		.loc 1 559 0
 2488 0004 38B5     		push	{r3, r4, r5, lr}
 2489              		.cfi_def_cfa_offset 16
 2490              		.cfi_offset 3, -16
 2491              		.cfi_offset 4, -12
 2492              		.cfi_offset 5, -8
 2493              		.cfi_offset 14, -4
 2494              		.loc 1 560 0
 2495 0006 1389     		ldrh	r3, [r2, #8]
 2496 0008 5268     		ldr	r2, [r2, #4]
 2497 000a 0124     		movs	r4, #1
 2498 000c 04FA03F3 		lsl	r3, r4, r3
 2499 0010 9BB2     		uxth	r3, r3
 2500 0012 5383     		strh	r3, [r2, #26]	@ movhi
 2501              		.loc 1 562 0
 2502 0014 0021     		movs	r1, #0
 2503              		.loc 1 559 0
 2504 0016 0546     		mov	r5, r0
 2505              		.loc 1 562 0
 2506 0018 FFF7FEFF 		bl	_Z20nrf24l01ReadRegisterP14NRF24L01Driverh
 2507              	.LVL266:
 2508              		.loc 1 564 0
ARM GAS  /var/folders/m4/4md61f0s1_g0rzfghffqnxvr0000gn/T//cchEhHjd.s 			page 45


 2509 001c 0021     		movs	r1, #0
 2510 001e 00F0FE02 		and	r2, r0, #254
 2511 0022 2846     		mov	r0, r5
 2512              	.LVL267:
 2513 0024 FFF7FEFF 		bl	_Z21nrf24l01WriteRegisterP14NRF24L01Driverhh
 2514              	.LVL268:
 2515              		.loc 1 566 0
 2516 0028 D5F82431 		ldr	r3, [r5, #292]
 2517 002c 1A89     		ldrh	r2, [r3, #8]
 2518 002e 5B68     		ldr	r3, [r3, #4]
 2519 0030 9440     		lsls	r4, r4, r2
 2520 0032 A4B2     		uxth	r4, r4
 2521 0034 1C83     		strh	r4, [r3, #24]	@ movhi
 2522 0036 38BD     		pop	{r3, r4, r5, pc}
 2523              		.cfi_endproc
 2524              	.LFE305:
 2525              		.size	_Z15nrf24l01EnterTXP14NRF24L01Driver, .-_Z15nrf24l01EnterTXP14NRF24L01Driver
 2526              		.section	.text._ZL6writetPvPKhjm,"ax",%progbits
 2527              		.align	2
 2528              		.p2align 4,,15
 2529              		.thumb
 2530              		.thumb_func
 2531              		.type	_ZL6writetPvPKhjm, %function
 2532              	_ZL6writetPvPKhjm:
 2533              	.LFB270:
 2534              		.loc 1 87 0
 2535              		.cfi_startproc
 2536              		@ args = 0, pretend = 0, frame = 32
 2537              		@ frame_needed = 0, uses_anonymous_args = 0
 2538              	.LVL269:
 2539 0000 2DE9F04F 		push	{r4, r5, r6, r7, r8, r9, r10, fp, lr}
 2540              		.cfi_def_cfa_offset 36
 2541              		.cfi_offset 4, -36
 2542              		.cfi_offset 5, -32
 2543              		.cfi_offset 6, -28
 2544              		.cfi_offset 7, -24
 2545              		.cfi_offset 8, -20
 2546              		.cfi_offset 9, -16
 2547              		.cfi_offset 10, -12
 2548              		.cfi_offset 11, -8
 2549              		.cfi_offset 14, -4
 2550              		.loc 1 89 0
 2551 0004 4568     		ldr	r5, [r0, #4]
 2552              	.LVL270:
 2553              		.loc 1 90 0
 2554 0006 A842     		cmp	r0, r5
 2555              		.loc 1 87 0
 2556 0008 89B0     		sub	sp, sp, #36
 2557              		.cfi_def_cfa_offset 72
 2558              		.loc 1 91 0
 2559 000a 18BF     		it	ne
 2560 000c 4FF0000A 		movne	r10, #0
 2561              		.loc 1 90 0
 2562 0010 03D0     		beq	.L164
 2563              	.LVL271:
 2564              	.L149:
 2565              		.loc 1 144 0
ARM GAS  /var/folders/m4/4md61f0s1_g0rzfghffqnxvr0000gn/T//cchEhHjd.s 			page 46


 2566 0012 5046     		mov	r0, r10
 2567 0014 09B0     		add	sp, sp, #36
 2568              		.cfi_remember_state
 2569              		.cfi_def_cfa_offset 36
 2570              		@ sp needed
 2571 0016 BDE8F08F 		pop	{r4, r5, r6, r7, r8, r9, r10, fp, pc}
 2572              	.LVL272:
 2573              	.L164:
 2574              		.cfi_restore_state
 2575 001a 9946     		mov	r9, r3
 2576              		.loc 1 93 0
 2577 001c 00F59073 		add	r3, r0, #288
 2578              	.LVL273:
 2579 0020 0646     		mov	r6, r0
 2580 0022 0193     		str	r3, [sp, #4]
 2581              	.LVL274:
 2582              	.LBB261:
 2583              	.LBB262:
 2584              		.loc 3 193 0
 2585 0024 1846     		mov	r0, r3
 2586              	.LVL275:
 2587 0026 1746     		mov	r7, r2
 2588 0028 4FF0FF33 		mov	r3, #-1
 2589              	.LVL276:
 2590 002c 0122     		movs	r2, #1
 2591              	.LVL277:
 2592 002e 8846     		mov	r8, r1
 2593 0030 03A9     		add	r1, sp, #12
 2594              	.LVL278:
 2595 0032 FFF7FEFF 		bl	chEvtRegisterMaskWithFlags
 2596              	.LVL279:
 2597              	.LBE262:
 2598              	.LBE261:
 2599              		.loc 1 98 0
 2600 0036 3046     		mov	r0, r6
 2601 0038 FFF7FEFF 		bl	_Z17nrf24l01GetStatusP14NRF24L01Driver
 2602              	.LVL280:
 2603              		.loc 1 100 0
 2604 003c 10F00104 		ands	r4, r0, #1
 2605 0040 29D1     		bne	.L165
 2606              		.loc 1 106 0
 2607 0042 3046     		mov	r0, r6
 2608              	.LVL281:
 2609 0044 FFF7FEFF 		bl	_Z15nrf24l01EnterTXP14NRF24L01Driver
 2610              	.LVL282:
 2611              		.loc 1 108 0
 2612 0048 67B3     		cbz	r7, .L157
 2613 004a A246     		mov	r10, r4
 2614 004c A346     		mov	fp, r4
 2615 004e 05E0     		b	.L155
 2616              	.LVL283:
 2617              	.L154:
 2618              	.LBB263:
 2619              		.loc 1 135 0
 2620 0050 5C44     		add	r4, r4, fp
 2621              	.LVL284:
 2622 0052 1FFA84FB 		uxth	fp, r4
ARM GAS  /var/folders/m4/4md61f0s1_g0rzfghffqnxvr0000gn/T//cchEhHjd.s 			page 47


 2623              	.LVL285:
 2624              	.LBE263:
 2625              		.loc 1 108 0
 2626 0056 BB45     		cmp	fp, r7
 2627 0058 DA46     		mov	r10, fp
 2628              	.LVL286:
 2629 005a 24D2     		bcs	.L151
 2630              	.LVL287:
 2631              	.L155:
 2632              	.LBB272:
 2633              		.loc 1 110 0
 2634 005c CAEB0704 		rsb	r4, r10, r7
 2635 0060 202C     		cmp	r4, #32
 2636 0062 28BF     		it	cs
 2637 0064 2024     		movcs	r4, #32
 2638              	.LVL288:
 2639              	.LBB264:
 2640              	.LBB265:
 2641 0066 E1B2     		uxtb	r1, r4
 2642 0068 2846     		mov	r0, r5
 2643 006a 08EB0A02 		add	r2, r8, r10
 2644              	.LVL289:
 2645 006e FFF7FEFF 		bl	_Z20nrf24l01WritePayloadP14NRF24L01DriverhPKh.part.3
 2646              	.LVL290:
 2647              	.LBE265:
 2648              	.LBE264:
 2649              		.loc 1 114 0
 2650 0072 4946     		mov	r1, r9
 2651 0074 0120     		movs	r0, #1
 2652 0076 FFF7FEFF 		bl	chEvtWaitOneTimeout
 2653              	.LVL291:
 2654 007a 30B3     		cbz	r0, .L166
 2655              		.loc 1 121 0
 2656 007c 2846     		mov	r0, r5
 2657 007e FFF7FEFF 		bl	_Z17nrf24l01GetStatusP14NRF24L01Driver
 2658              	.LVL292:
 2659              		.loc 1 123 0
 2660 0082 C206     		lsls	r2, r0, #27
 2661 0084 2ED4     		bmi	.L167
 2662              		.loc 1 132 0
 2663 0086 8306     		lsls	r3, r0, #26
 2664 0088 E2D5     		bpl	.L154
 2665              	.LVL293:
 2666              	.LBB266:
 2667              	.LBB267:
 2668              		.loc 1 409 0
 2669 008a 2022     		movs	r2, #32
 2670 008c 0721     		movs	r1, #7
 2671 008e 2846     		mov	r0, r5
 2672              	.LVL294:
 2673 0090 FFF7FEFF 		bl	_Z21nrf24l01WriteRegisterP14NRF24L01Driverhh
 2674              	.LVL295:
 2675 0094 DCE7     		b	.L154
 2676              	.LVL296:
 2677              	.L165:
 2678              	.LBE267:
 2679              	.LBE266:
ARM GAS  /var/folders/m4/4md61f0s1_g0rzfghffqnxvr0000gn/T//cchEhHjd.s 			page 48


 2680              	.LBE272:
 2681              		.loc 1 102 0
 2682 0096 03A9     		add	r1, sp, #12
 2683 0098 0198     		ldr	r0, [sp, #4]
 2684              	.LVL297:
 2685 009a FFF7FEFF 		bl	chEvtUnregister
 2686              	.LVL298:
 2687              		.loc 1 103 0
 2688 009e 4FF0000A 		mov	r10, #0
 2689 00a2 B6E7     		b	.L149
 2690              	.L157:
 2691              		.loc 1 108 0
 2692 00a4 BA46     		mov	r10, r7
 2693              	.LVL299:
 2694              	.L151:
 2695              	.LBB273:
 2696              	.LBB274:
 2697              		.loc 1 571 0
 2698 00a6 D5F82411 		ldr	r1, [r5, #292]
 2699 00aa 0889     		ldrh	r0, [r1, #8]
 2700 00ac 4968     		ldr	r1, [r1, #4]
 2701 00ae 0122     		movs	r2, #1
 2702 00b0 8240     		lsls	r2, r2, r0
 2703 00b2 92B2     		uxth	r2, r2
 2704              	.LBE274:
 2705              	.LBE273:
 2706              		.loc 1 140 0
 2707 00b4 06F12C00 		add	r0, r6, #44
 2708              	.LBB276:
 2709              	.LBB275:
 2710              		.loc 1 571 0
 2711 00b8 4A83     		strh	r2, [r1, #26]	@ movhi
 2712              	.LVL300:
 2713              	.LBE275:
 2714              	.LBE276:
 2715              		.loc 1 140 0
 2716 00ba 1821     		movs	r1, #24
 2717 00bc FFF7FEFF 		bl	chEvtBroadcastFlags
 2718              	.LVL301:
 2719              		.loc 1 141 0
 2720 00c0 03A9     		add	r1, sp, #12
 2721 00c2 0198     		ldr	r0, [sp, #4]
 2722 00c4 FFF7FEFF 		bl	chEvtUnregister
 2723              	.LVL302:
 2724              		.loc 1 143 0
 2725 00c8 A3E7     		b	.L149
 2726              	.LVL303:
 2727              	.L166:
 2728              	.LBB277:
 2729              		.loc 1 116 0
 2730 00ca 03A9     		add	r1, sp, #12
 2731 00cc 0198     		ldr	r0, [sp, #4]
 2732 00ce FFF7FEFF 		bl	chEvtUnregister
 2733              	.LVL304:
 2734              	.L163:
 2735              	.LBB268:
 2736              	.LBB269:
ARM GAS  /var/folders/m4/4md61f0s1_g0rzfghffqnxvr0000gn/T//cchEhHjd.s 			page 49


 2737              		.loc 1 571 0
 2738 00d2 D5F82411 		ldr	r1, [r5, #292]
 2739 00d6 0889     		ldrh	r0, [r1, #8]
 2740 00d8 4968     		ldr	r1, [r1, #4]
 2741 00da 0122     		movs	r2, #1
 2742 00dc 8240     		lsls	r2, r2, r0
 2743 00de 92B2     		uxth	r2, r2
 2744 00e0 4A83     		strh	r2, [r1, #26]	@ movhi
 2745              	.LVL305:
 2746              	.LBE269:
 2747              	.LBE268:
 2748              		.loc 1 129 0
 2749 00e2 96E7     		b	.L149
 2750              	.LVL306:
 2751              	.L167:
 2752              		.loc 1 125 0
 2753 00e4 03A9     		add	r1, sp, #12
 2754 00e6 0198     		ldr	r0, [sp, #4]
 2755              	.LVL307:
 2756 00e8 FFF7FEFF 		bl	chEvtUnregister
 2757              	.LVL308:
 2758              	.LBB270:
 2759              	.LBB271:
 2760              		.loc 1 409 0
 2761 00ec 2846     		mov	r0, r5
 2762 00ee 1022     		movs	r2, #16
 2763 00f0 0721     		movs	r1, #7
 2764 00f2 FFF7FEFF 		bl	_Z21nrf24l01WriteRegisterP14NRF24L01Driverhh
 2765              	.LVL309:
 2766              	.LBE271:
 2767              	.LBE270:
 2768              		.loc 1 127 0
 2769 00f6 2846     		mov	r0, r5
 2770 00f8 FFF7FEFF 		bl	_Z15nrf24l01FlushTXP14NRF24L01Driver
 2771              	.LVL310:
 2772 00fc E9E7     		b	.L163
 2773              	.LBE277:
 2774              		.cfi_endproc
 2775              	.LFE270:
 2776              		.size	_ZL6writetPvPKhjm, .-_ZL6writetPvPKhjm
 2777 00fe 00BF     		.section	.text._ZL4puttPvhm,"ax",%progbits
 2778              		.align	2
 2779              		.p2align 4,,15
 2780              		.thumb
 2781              		.thumb_func
 2782              		.type	_ZL4puttPvhm, %function
 2783              	_ZL4puttPvhm:
 2784              	.LFB272:
 2785              		.loc 1 248 0
 2786              		.cfi_startproc
 2787              		@ args = 0, pretend = 0, frame = 8
 2788              		@ frame_needed = 0, uses_anonymous_args = 0
 2789              	.LVL311:
 2790 0000 10B5     		push	{r4, lr}
 2791              		.cfi_def_cfa_offset 8
 2792              		.cfi_offset 4, -8
 2793              		.cfi_offset 14, -4
ARM GAS  /var/folders/m4/4md61f0s1_g0rzfghffqnxvr0000gn/T//cchEhHjd.s 			page 50


 2794 0002 82B0     		sub	sp, sp, #8
 2795              		.cfi_def_cfa_offset 16
 2796              		.loc 1 248 0
 2797 0004 02AC     		add	r4, sp, #8
 2798              		.loc 1 249 0
 2799 0006 1346     		mov	r3, r2
 2800              		.loc 1 248 0
 2801 0008 04F8011D 		strb	r1, [r4, #-1]!
 2802              		.loc 1 249 0
 2803 000c 0122     		movs	r2, #1
 2804              	.LVL312:
 2805 000e 2146     		mov	r1, r4
 2806              	.LVL313:
 2807 0010 FFF7FEFF 		bl	_ZL6writetPvPKhjm
 2808              	.LVL314:
 2809 0014 B0FA80F0 		clz	r0, r0
 2810 0018 4009     		lsrs	r0, r0, #5
 2811              		.loc 1 252 0
 2812 001a 4042     		negs	r0, r0
 2813 001c 02B0     		add	sp, sp, #8
 2814              		.cfi_def_cfa_offset 8
 2815              		@ sp needed
 2816 001e 10BD     		pop	{r4, pc}
 2817              		.cfi_endproc
 2818              	.LFE272:
 2819              		.size	_ZL4puttPvhm, .-_ZL4puttPvhm
 2820              		.section	.text._ZL3putPvh,"ax",%progbits
 2821              		.align	2
 2822              		.p2align 4,,15
 2823              		.thumb
 2824              		.thumb_func
 2825              		.type	_ZL3putPvh, %function
 2826              	_ZL3putPvh:
 2827              	.LFB276:
 2828              		.loc 1 297 0
 2829              		.cfi_startproc
 2830              		@ args = 0, pretend = 0, frame = 8
 2831              		@ frame_needed = 0, uses_anonymous_args = 0
 2832              	.LVL315:
 2833 0000 10B5     		push	{r4, lr}
 2834              		.cfi_def_cfa_offset 8
 2835              		.cfi_offset 4, -8
 2836              		.cfi_offset 14, -4
 2837 0002 82B0     		sub	sp, sp, #8
 2838              		.cfi_def_cfa_offset 16
 2839 0004 02AC     		add	r4, sp, #8
 2840              	.LBB278:
 2841              	.LBB279:
 2842              		.loc 1 249 0
 2843 0006 4FF0FF33 		mov	r3, #-1
 2844 000a 04F8011D 		strb	r1, [r4, #-1]!
 2845              	.LVL316:
 2846 000e 0122     		movs	r2, #1
 2847 0010 2146     		mov	r1, r4
 2848              	.LVL317:
 2849 0012 FFF7FEFF 		bl	_ZL6writetPvPKhjm
 2850              	.LVL318:
ARM GAS  /var/folders/m4/4md61f0s1_g0rzfghffqnxvr0000gn/T//cchEhHjd.s 			page 51


 2851              	.LBE279:
 2852              	.LBE278:
 2853              		.loc 1 298 0
 2854 0016 B0FA80F0 		clz	r0, r0
 2855 001a 4009     		lsrs	r0, r0, #5
 2856              		.loc 1 299 0
 2857 001c 4042     		negs	r0, r0
 2858 001e 02B0     		add	sp, sp, #8
 2859              		.cfi_def_cfa_offset 8
 2860              		@ sp needed
 2861 0020 10BD     		pop	{r4, pc}
 2862              		.cfi_endproc
 2863              	.LFE276:
 2864              		.size	_ZL3putPvh, .-_ZL3putPvh
 2865 0022 00BF     		.section	.text._ZL5writePvPKhj,"ax",%progbits
 2866              		.align	2
 2867              		.p2align 4,,15
 2868              		.thumb
 2869              		.thumb_func
 2870              		.type	_ZL5writePvPKhj, %function
 2871              	_ZL5writePvPKhj:
 2872              	.LFB274:
 2873              		.loc 1 287 0
 2874              		.cfi_startproc
 2875              		@ args = 0, pretend = 0, frame = 0
 2876              		@ frame_needed = 0, uses_anonymous_args = 0
 2877              		@ link register save eliminated.
 2878              	.LVL319:
 2879              		.loc 1 288 0
 2880 0000 4FF0FF33 		mov	r3, #-1
 2881 0004 FFF7FEBF 		b	_ZL6writetPvPKhjm
 2882              	.LVL320:
 2883              		.cfi_endproc
 2884              	.LFE274:
 2885              		.size	_ZL5writePvPKhj, .-_ZL5writePvPKhj
 2886              		.section	.text._Z20nrf24l01EnterStandbyP14NRF24L01Driver,"ax",%progbits
 2887              		.align	2
 2888              		.p2align 4,,15
 2889              		.global	_Z20nrf24l01EnterStandbyP14NRF24L01Driver
 2890              		.thumb
 2891              		.thumb_func
 2892              		.type	_Z20nrf24l01EnterStandbyP14NRF24L01Driver, %function
 2893              	_Z20nrf24l01EnterStandbyP14NRF24L01Driver:
 2894              	.LFB306:
 2895              		.loc 1 570 0
 2896              		.cfi_startproc
 2897              		@ args = 0, pretend = 0, frame = 0
 2898              		@ frame_needed = 0, uses_anonymous_args = 0
 2899              		@ link register save eliminated.
 2900              	.LVL321:
 2901              		.loc 1 571 0
 2902 0000 D0F82421 		ldr	r2, [r0, #292]
 2903 0004 1189     		ldrh	r1, [r2, #8]
 2904 0006 5268     		ldr	r2, [r2, #4]
 2905 0008 0123     		movs	r3, #1
 2906 000a 8B40     		lsls	r3, r3, r1
 2907 000c 9BB2     		uxth	r3, r3
ARM GAS  /var/folders/m4/4md61f0s1_g0rzfghffqnxvr0000gn/T//cchEhHjd.s 			page 52


 2908 000e 5383     		strh	r3, [r2, #26]	@ movhi
 2909 0010 7047     		bx	lr
 2910              		.cfi_endproc
 2911              	.LFE306:
 2912              		.size	_Z20nrf24l01EnterStandbyP14NRF24L01Driver, .-_Z20nrf24l01EnterStandbyP14NRF24L01Driver
 2913 0012 00BF     		.section	.text._Z19nrf24l01EnablePipesP14NRF24L01Driverh,"ax",%progbits
 2914              		.align	2
 2915              		.p2align 4,,15
 2916              		.global	_Z19nrf24l01EnablePipesP14NRF24L01Driverh
 2917              		.thumb
 2918              		.thumb_func
 2919              		.type	_Z19nrf24l01EnablePipesP14NRF24L01Driverh, %function
 2920              	_Z19nrf24l01EnablePipesP14NRF24L01Driverh:
 2921              	.LFB307:
 2922              		.loc 1 575 0
 2923              		.cfi_startproc
 2924              		@ args = 0, pretend = 0, frame = 0
 2925              		@ frame_needed = 0, uses_anonymous_args = 0
 2926              	.LVL322:
 2927 0000 38B5     		push	{r3, r4, r5, lr}
 2928              		.cfi_def_cfa_offset 16
 2929              		.cfi_offset 3, -16
 2930              		.cfi_offset 4, -12
 2931              		.cfi_offset 5, -8
 2932              		.cfi_offset 14, -4
 2933              		.loc 1 575 0
 2934 0002 0C46     		mov	r4, r1
 2935              		.loc 1 576 0
 2936 0004 0221     		movs	r1, #2
 2937              	.LVL323:
 2938              		.loc 1 575 0
 2939 0006 0546     		mov	r5, r0
 2940              		.loc 1 576 0
 2941 0008 FFF7FEFF 		bl	_Z20nrf24l01ReadRegisterP14NRF24L01Driverh
 2942              	.LVL324:
 2943              		.loc 1 577 0
 2944 000c 04F03F04 		and	r4, r4, #63
 2945 0010 20EA0402 		bic	r2, r0, r4
 2946              	.LVL325:
 2947              		.loc 1 578 0
 2948 0014 D2B2     		uxtb	r2, r2
 2949 0016 2846     		mov	r0, r5
 2950 0018 0221     		movs	r1, #2
 2951              		.loc 1 579 0
 2952 001a BDE83840 		pop	{r3, r4, r5, lr}
 2953              		.cfi_restore 14
 2954              		.cfi_restore 5
 2955              		.cfi_restore 4
 2956              		.cfi_restore 3
 2957              		.cfi_def_cfa_offset 0
 2958              	.LVL326:
 2959              		.loc 1 578 0
 2960 001e FFF7FEBF 		b	_Z21nrf24l01WriteRegisterP14NRF24L01Driverhh
 2961              	.LVL327:
 2962              		.cfi_endproc
 2963              	.LFE307:
 2964              		.size	_Z19nrf24l01EnablePipesP14NRF24L01Driverh, .-_Z19nrf24l01EnablePipesP14NRF24L01Driverh
ARM GAS  /var/folders/m4/4md61f0s1_g0rzfghffqnxvr0000gn/T//cchEhHjd.s 			page 53


 2965 0022 00BF     		.section	.text._Z14nrf24l01ExtIRQP14NRF24L01Driver,"ax",%progbits
 2966              		.align	2
 2967              		.p2align 4,,15
 2968              		.global	_Z14nrf24l01ExtIRQP14NRF24L01Driver
 2969              		.thumb
 2970              		.thumb_func
 2971              		.type	_Z14nrf24l01ExtIRQP14NRF24L01Driver, %function
 2972              	_Z14nrf24l01ExtIRQP14NRF24L01Driver:
 2973              	.LFB308:
 2974              		.loc 1 582 0
 2975              		.cfi_startproc
 2976              		@ args = 0, pretend = 0, frame = 0
 2977              		@ frame_needed = 0, uses_anonymous_args = 0
 2978              	.LVL328:
 2979 0000 08B5     		push	{r3, lr}
 2980              		.cfi_def_cfa_offset 8
 2981              		.cfi_offset 3, -8
 2982              		.cfi_offset 14, -4
 2983              	.LBB280:
 2984              	.LBB281:
 2985              	.LBB282:
 2986              	.LBB283:
 2987              	.LBB284:
 2988              		.loc 2 548 0
 2989 0002 2023     		movs	r3, #32
 2990              		.syntax unified
 2991              	@ 548 "ChibiOS_16.1.4/os/ext/CMSIS/include/core_cmFunc.h" 1
 2992 0004 83F31188 		MSR basepri, r3
 2993              	@ 0 "" 2
 2994              	.LVL329:
 2995              		.thumb
 2996              		.syntax unified
 2997              	.LBE284:
 2998              	.LBE283:
 2999              	.LBE282:
 3000              	.LBE281:
 3001              	.LBE280:
 3002              		.loc 1 584 0
 3003 0008 0121     		movs	r1, #1
 3004 000a 00F59070 		add	r0, r0, #288
 3005              	.LVL330:
 3006 000e FFF7FEFF 		bl	chEvtBroadcastFlagsI
 3007              	.LVL331:
 3008              	.LBB285:
 3009              	.LBB286:
 3010              	.LBB287:
 3011              	.LBB288:
 3012              	.LBB289:
 3013              		.loc 2 548 0
 3014 0012 0023     		movs	r3, #0
 3015              		.syntax unified
 3016              	@ 548 "ChibiOS_16.1.4/os/ext/CMSIS/include/core_cmFunc.h" 1
 3017 0014 83F31188 		MSR basepri, r3
 3018              	@ 0 "" 2
 3019              	.LVL332:
 3020              		.thumb
 3021              		.syntax unified
ARM GAS  /var/folders/m4/4md61f0s1_g0rzfghffqnxvr0000gn/T//cchEhHjd.s 			page 54


 3022 0018 08BD     		pop	{r3, pc}
 3023              	.LBE289:
 3024              	.LBE288:
 3025              	.LBE287:
 3026              	.LBE286:
 3027              	.LBE285:
 3028              		.cfi_endproc
 3029              	.LFE308:
 3030              		.size	_Z14nrf24l01ExtIRQP14NRF24L01Driver, .-_Z14nrf24l01ExtIRQP14NRF24L01Driver
 3031              		.global	nrf24l01
 3032 001a 00BF     		.section	.rodata
 3033              		.align	2
 3034              		.set	.LANCHOR2,. + 0
 3035              	.LC0:
 3036 0000 50       		.byte	80
 3037 0001 73       		.byte	115
 3038              		.section	.rodata._ZL4addr,"a",%progbits
 3039              		.align	2
 3040              		.set	.LANCHOR6,. + 0
 3041              		.type	_ZL4addr, %object
 3042              		.size	_ZL4addr, 5
 3043              	_ZL4addr:
 3044 0000 51554144 		.ascii	"QUAD\000"
 3044      00
 3045              		.section	.rodata._ZL6extcfg,"a",%progbits
 3046              		.align	2
 3047              		.set	.LANCHOR4,. + 0
 3048              		.type	_ZL6extcfg, %object
 3049              		.size	_ZL6extcfg, 184
 3050              	_ZL6extcfg:
 3051 0000 00000000 		.word	0
 3052 0004 00000000 		.word	0
 3053 0008 00000000 		.word	0
 3054 000c 00000000 		.word	0
 3055 0010 00000000 		.word	0
 3056 0014 00000000 		.word	0
 3057 0018 00000000 		.word	0
 3058 001c 00000000 		.word	0
 3059 0020 00000000 		.word	0
 3060 0024 00000000 		.word	0
 3061 0028 00000000 		.word	0
 3062 002c 00000000 		.word	0
 3063 0030 00000000 		.word	0
 3064 0034 00000000 		.word	0
 3065 0038 00000000 		.word	0
 3066 003c 00000000 		.word	0
 3067 0040 00000000 		.word	0
 3068 0044 00000000 		.word	0
 3069 0048 00000000 		.word	0
 3070 004c 00000000 		.word	0
 3071 0050 00000000 		.word	0
 3072 0054 00000000 		.word	0
 3073 0058 00000000 		.word	0
 3074 005c 00000000 		.word	0
 3075 0060 00000000 		.word	0
 3076 0064 00000000 		.word	0
 3077 0068 00000000 		.word	0
ARM GAS  /var/folders/m4/4md61f0s1_g0rzfghffqnxvr0000gn/T//cchEhHjd.s 			page 55


 3078 006c 00000000 		.word	0
 3079 0070 00000000 		.word	0
 3080 0074 00000000 		.word	0
 3081 0078 26000000 		.word	38
 3082 007c 00000000 		.word	_ZL14nrfExtCallbackP9EXTDriverm
 3083 0080 00000000 		.word	0
 3084 0084 00000000 		.word	0
 3085 0088 00000000 		.word	0
 3086 008c 00000000 		.word	0
 3087 0090 00000000 		.word	0
 3088 0094 00000000 		.word	0
 3089 0098 00000000 		.word	0
 3090 009c 00000000 		.word	0
 3091 00a0 00000000 		.word	0
 3092 00a4 00000000 		.word	0
 3093 00a8 00000000 		.word	0
 3094 00ac 00000000 		.word	0
 3095 00b0 00000000 		.word	0
 3096 00b4 00000000 		.word	0
 3097              		.section	.rodata._ZL14nrf24l01Config,"a",%progbits
 3098              		.align	2
 3099              		.set	.LANCHOR5,. + 0
 3100              		.type	_ZL14nrf24l01Config, %object
 3101              		.size	_ZL14nrf24l01Config, 12
 3102              	_ZL14nrf24l01Config:
 3103 0000 00000000 		.word	SPID1
 3104 0004 00040240 		.word	1073873920
 3105 0008 0100     		.short	1
 3106 000a 0000     		.space	2
 3107              		.section	.rodata._ZL3vmt,"a",%progbits
 3108              		.align	2
 3109              		.set	.LANCHOR1,. + 0
 3110              		.type	_ZL3vmt, %object
 3111              		.size	_ZL3vmt, 32
 3112              	_ZL3vmt:
 3113 0000 00000000 		.word	_ZL5writePvPKhj
 3114 0004 00000000 		.word	_ZL4readPvPhj
 3115 0008 00000000 		.word	_ZL3putPvh
 3116 000c 00000000 		.word	_ZL3getPv
 3117 0010 00000000 		.word	_ZL4puttPvhm
 3118 0014 00000000 		.word	_ZL4gettPvm
 3119 0018 00000000 		.word	_ZL6writetPvPKhjm
 3120 001c 00000000 		.word	_ZL5readtPvPhjm
 3121              		.section	.bss.nrf24l01,"aw",%nobits
 3122              		.align	2
 3123              		.set	.LANCHOR0,. + 0
 3124              		.type	nrf24l01, %object
 3125              		.size	nrf24l01, 296
 3126              	nrf24l01:
 3127 0000 00000000 		.space	296
 3127      00000000 
 3127      00000000 
 3127      00000000 
 3127      00000000 
 3128              		.section	.rodata._ZL11nrf24l01SPI,"a",%progbits
 3129              		.align	2
 3130              		.set	.LANCHOR3,. + 0
ARM GAS  /var/folders/m4/4md61f0s1_g0rzfghffqnxvr0000gn/T//cchEhHjd.s 			page 56


 3131              		.type	_ZL11nrf24l01SPI, %object
 3132              		.size	_ZL11nrf24l01SPI, 12
 3133              	_ZL11nrf24l01SPI:
 3134 0000 00000000 		.word	0
 3135 0004 00000240 		.word	1073872896
 3136 0008 0400     		.short	4
 3137 000a 0800     		.short	8
 3138              		.text
 3139              	.Letext0:
 3140              		.file 4 "/opt/homebrew-cask/Caskroom/gcc-arm-embedded/5_2-2015q4,20151219/gcc-arm-none-eabi-5_2-20
 3141              		.file 5 "/opt/homebrew-cask/Caskroom/gcc-arm-embedded/5_2-2015q4,20151219/gcc-arm-none-eabi-5_2-20
 3142              		.file 6 "/opt/homebrew-cask/Caskroom/gcc-arm-embedded/5_2-2015q4,20151219/gcc-arm-none-eabi-5_2-20
 3143              		.file 7 "ChibiOS_16.1.4/os/rt/ports/ARMCMx/compilers/GCC/chtypes.h"
 3144              		.file 8 "ChibiOS_16.1.4/os/rt/include/chsystypes.h"
 3145              		.file 9 "ChibiOS_16.1.4/os/rt/include/chschd.h"
 3146              		.file 10 "ChibiOS_16.1.4/os/ext/CMSIS/ST/STM32F4xx/stm32f446xx.h"
 3147              		.file 11 "ChibiOS_16.1.4/os/ext/CMSIS/ST/STM32F4xx/stm32f4xx.h"
 3148              		.file 12 "ChibiOS_16.1.4/os/rt/ports/ARMCMx/chcore.h"
 3149              		.file 13 "ChibiOS_16.1.4/os/rt/ports/ARMCMx/chcore_v7m.h"
 3150              		.file 14 "ChibiOS_16.1.4/os/rt/include/chtm.h"
 3151              		.file 15 "ChibiOS_16.1.4/os/rt/include/chsem.h"
 3152              		.file 16 "ChibiOS_16.1.4/os/rt/include/chmtx.h"
 3153              		.file 17 "ChibiOS_16.1.4/os/hal/ports/STM32/LLD/DMAv2/stm32_dma.h"
 3154              		.file 18 "ChibiOS_16.1.4/os/hal/ports/STM32/LLD/GPIOv2/pal_lld.h"
 3155              		.file 19 "ChibiOS_16.1.4/os/hal/include/ext.h"
 3156              		.file 20 "ChibiOS_16.1.4/os/hal/ports/STM32/LLD/EXTIv1/ext_lld.h"
 3157              		.file 21 "ChibiOS_16.1.4/os/hal/include/spi.h"
 3158              		.file 22 "ChibiOS_16.1.4/os/hal/ports/STM32/LLD/SPIv1/spi_lld.h"
 3159              		.file 23 "nrf24l01.h"
 3160              		.file 24 "ChibiOS_16.1.4/os/rt/include/chsys.h"
 3161              		.file 25 "ChibiOS_16.1.4/os/ext/CMSIS/include/core_cm4.h"
 3162              		.section	.debug_info,"",%progbits
 3163              	.Ldebug_info0:
 3164 0000 44300000 		.4byte	0x3044
 3165 0004 0400     		.2byte	0x4
 3166 0006 00000000 		.4byte	.Ldebug_abbrev0
 3167 000a 04       		.byte	0x4
 3168 000b 01       		.uleb128 0x1
 3169 000c E0030000 		.4byte	.LASF329
 3170 0010 04       		.byte	0x4
 3171 0011 E3010000 		.4byte	.LASF330
 3172 0015 11130000 		.4byte	.LASF331
 3173 0019 D8010000 		.4byte	.Ldebug_ranges0+0x1d8
 3174 001d 00000000 		.4byte	0
 3175 0021 00000000 		.4byte	.Ldebug_line0
 3176 0025 02       		.uleb128 0x2
 3177 0026 04       		.byte	0x4
 3178 0027 05       		.byte	0x5
 3179 0028 696E7400 		.ascii	"int\000"
 3180 002c 03       		.uleb128 0x3
 3181 002d 18000000 		.4byte	.LASF4
 3182 0031 04       		.byte	0x4
 3183 0032 D8       		.byte	0xd8
 3184 0033 37000000 		.4byte	0x37
 3185 0037 04       		.uleb128 0x4
 3186 0038 04       		.byte	0x4
 3187 0039 07       		.byte	0x7
ARM GAS  /var/folders/m4/4md61f0s1_g0rzfghffqnxvr0000gn/T//cchEhHjd.s 			page 57


 3188 003a 720A0000 		.4byte	.LASF0
 3189 003e 04       		.uleb128 0x4
 3190 003f 08       		.byte	0x8
 3191 0040 05       		.byte	0x5
 3192 0041 04090000 		.4byte	.LASF1
 3193 0045 04       		.uleb128 0x4
 3194 0046 08       		.byte	0x8
 3195 0047 04       		.byte	0x4
 3196 0048 240C0000 		.4byte	.LASF2
 3197 004c 05       		.uleb128 0x5
 3198 004d 69050000 		.4byte	.LASF332
 3199 0051 04       		.uleb128 0x4
 3200 0052 01       		.byte	0x1
 3201 0053 06       		.byte	0x6
 3202 0054 EF020000 		.4byte	.LASF3
 3203 0058 03       		.uleb128 0x3
 3204 0059 D4010000 		.4byte	.LASF5
 3205 005d 05       		.byte	0x5
 3206 005e 1D       		.byte	0x1d
 3207 005f 63000000 		.4byte	0x63
 3208 0063 04       		.uleb128 0x4
 3209 0064 01       		.byte	0x1
 3210 0065 08       		.byte	0x8
 3211 0066 40030000 		.4byte	.LASF6
 3212 006a 04       		.uleb128 0x4
 3213 006b 02       		.byte	0x2
 3214 006c 05       		.byte	0x5
 3215 006d B00F0000 		.4byte	.LASF7
 3216 0071 03       		.uleb128 0x3
 3217 0072 57050000 		.4byte	.LASF8
 3218 0076 05       		.byte	0x5
 3219 0077 2B       		.byte	0x2b
 3220 0078 7C000000 		.4byte	0x7c
 3221 007c 04       		.uleb128 0x4
 3222 007d 02       		.byte	0x2
 3223 007e 07       		.byte	0x7
 3224 007f 04120000 		.4byte	.LASF9
 3225 0083 03       		.uleb128 0x3
 3226 0084 6E120000 		.4byte	.LASF10
 3227 0088 05       		.byte	0x5
 3228 0089 3F       		.byte	0x3f
 3229 008a 8E000000 		.4byte	0x8e
 3230 008e 04       		.uleb128 0x4
 3231 008f 04       		.byte	0x4
 3232 0090 05       		.byte	0x5
 3233 0091 3D020000 		.4byte	.LASF11
 3234 0095 03       		.uleb128 0x3
 3235 0096 8F080000 		.4byte	.LASF12
 3236 009a 05       		.byte	0x5
 3237 009b 41       		.byte	0x41
 3238 009c A0000000 		.4byte	0xa0
 3239 00a0 04       		.uleb128 0x4
 3240 00a1 04       		.byte	0x4
 3241 00a2 07       		.byte	0x7
 3242 00a3 C3070000 		.4byte	.LASF13
 3243 00a7 04       		.uleb128 0x4
 3244 00a8 08       		.byte	0x8
ARM GAS  /var/folders/m4/4md61f0s1_g0rzfghffqnxvr0000gn/T//cchEhHjd.s 			page 58


 3245 00a9 07       		.byte	0x7
 3246 00aa 880D0000 		.4byte	.LASF14
 3247 00ae 03       		.uleb128 0x3
 3248 00af 02030000 		.4byte	.LASF15
 3249 00b3 06       		.byte	0x6
 3250 00b4 14       		.byte	0x14
 3251 00b5 58000000 		.4byte	0x58
 3252 00b9 03       		.uleb128 0x3
 3253 00ba CC0D0000 		.4byte	.LASF16
 3254 00be 06       		.byte	0x6
 3255 00bf 1A       		.byte	0x1a
 3256 00c0 71000000 		.4byte	0x71
 3257 00c4 03       		.uleb128 0x3
 3258 00c5 9B000000 		.4byte	.LASF17
 3259 00c9 06       		.byte	0x6
 3260 00ca 1F       		.byte	0x1f
 3261 00cb 83000000 		.4byte	0x83
 3262 00cf 03       		.uleb128 0x3
 3263 00d0 24110000 		.4byte	.LASF18
 3264 00d4 06       		.byte	0x6
 3265 00d5 20       		.byte	0x20
 3266 00d6 95000000 		.4byte	0x95
 3267 00da 03       		.uleb128 0x3
 3268 00db A70A0000 		.4byte	.LASF19
 3269 00df 07       		.byte	0x7
 3270 00e0 39       		.byte	0x39
 3271 00e1 CF000000 		.4byte	0xcf
 3272 00e5 03       		.uleb128 0x3
 3273 00e6 3D0F0000 		.4byte	.LASF20
 3274 00ea 07       		.byte	0x7
 3275 00eb 3C       		.byte	0x3c
 3276 00ec AE000000 		.4byte	0xae
 3277 00f0 03       		.uleb128 0x3
 3278 00f1 92020000 		.4byte	.LASF21
 3279 00f5 07       		.byte	0x7
 3280 00f6 3D       		.byte	0x3d
 3281 00f7 AE000000 		.4byte	0xae
 3282 00fb 03       		.uleb128 0x3
 3283 00fc B0100000 		.4byte	.LASF22
 3284 0100 07       		.byte	0x7
 3285 0101 3E       		.byte	0x3e
 3286 0102 AE000000 		.4byte	0xae
 3287 0106 03       		.uleb128 0x3
 3288 0107 180E0000 		.4byte	.LASF23
 3289 010b 07       		.byte	0x7
 3290 010c 3F       		.byte	0x3f
 3291 010d AE000000 		.4byte	0xae
 3292 0111 03       		.uleb128 0x3
 3293 0112 5C000000 		.4byte	.LASF24
 3294 0116 07       		.byte	0x7
 3295 0117 40       		.byte	0x40
 3296 0118 CF000000 		.4byte	0xcf
 3297 011c 03       		.uleb128 0x3
 3298 011d D50D0000 		.4byte	.LASF25
 3299 0121 07       		.byte	0x7
 3300 0122 41       		.byte	0x41
 3301 0123 C4000000 		.4byte	0xc4
ARM GAS  /var/folders/m4/4md61f0s1_g0rzfghffqnxvr0000gn/T//cchEhHjd.s 			page 59


 3302 0127 03       		.uleb128 0x3
 3303 0128 13030000 		.4byte	.LASF26
 3304 012c 07       		.byte	0x7
 3305 012d 43       		.byte	0x43
 3306 012e CF000000 		.4byte	0xcf
 3307 0132 03       		.uleb128 0x3
 3308 0133 EC0D0000 		.4byte	.LASF27
 3309 0137 07       		.byte	0x7
 3310 0138 44       		.byte	0x44
 3311 0139 CF000000 		.4byte	0xcf
 3312 013d 03       		.uleb128 0x3
 3313 013e 8F060000 		.4byte	.LASF28
 3314 0142 07       		.byte	0x7
 3315 0143 45       		.byte	0x45
 3316 0144 C4000000 		.4byte	0xc4
 3317 0148 03       		.uleb128 0x3
 3318 0149 4C000000 		.4byte	.LASF29
 3319 014d 08       		.byte	0x8
 3320 014e 33       		.byte	0x33
 3321 014f CF000000 		.4byte	0xcf
 3322 0153 03       		.uleb128 0x3
 3323 0154 1B0C0000 		.4byte	.LASF30
 3324 0158 08       		.byte	0x8
 3325 0159 3F       		.byte	0x3f
 3326 015a 5E010000 		.4byte	0x15e
 3327 015e 06       		.uleb128 0x6
 3328 015f F3070000 		.4byte	.LASF59
 3329 0163 48       		.byte	0x48
 3330 0164 09       		.byte	0x9
 3331 0165 C2       		.byte	0xc2
 3332 0166 C0020000 		.4byte	0x2c0
 3333 016a 07       		.uleb128 0x7
 3334 016b 04       		.byte	0x4
 3335 016c 09       		.byte	0x9
 3336 016d FA       		.byte	0xfa
 3337 016e C7010000 		.4byte	0x1c7
 3338 0172 08       		.uleb128 0x8
 3339 0173 EB110000 		.4byte	.LASF31
 3340 0177 09       		.byte	0x9
 3341 0178 0101     		.2byte	0x101
 3342 017a 1C010000 		.4byte	0x11c
 3343 017e 08       		.uleb128 0x8
 3344 017f C3010000 		.4byte	.LASF32
 3345 0183 09       		.byte	0x9
 3346 0184 0801     		.2byte	0x108
 3347 0186 1C010000 		.4byte	0x11c
 3348 018a 08       		.uleb128 0x8
 3349 018b 62050000 		.4byte	.LASF33
 3350 018f 09       		.byte	0x9
 3351 0190 0F01     		.2byte	0x10f
 3352 0192 A8030000 		.4byte	0x3a8
 3353 0196 08       		.uleb128 0x8
 3354 0197 27030000 		.4byte	.LASF34
 3355 019b 09       		.byte	0x9
 3356 019c 1601     		.2byte	0x116
 3357 019e EE070000 		.4byte	0x7ee
 3358 01a2 08       		.uleb128 0x8
ARM GAS  /var/folders/m4/4md61f0s1_g0rzfghffqnxvr0000gn/T//cchEhHjd.s 			page 60


 3359 01a3 45000000 		.4byte	.LASF35
 3360 01a7 09       		.byte	0x9
 3361 01a8 1E01     		.2byte	0x11e
 3362 01aa 19080000 		.4byte	0x819
 3363 01ae 08       		.uleb128 0x8
 3364 01af 32070000 		.4byte	.LASF36
 3365 01b3 09       		.byte	0x9
 3366 01b4 2701     		.2byte	0x127
 3367 01b6 50080000 		.4byte	0x850
 3368 01ba 08       		.uleb128 0x8
 3369 01bb FB020000 		.4byte	.LASF37
 3370 01bf 09       		.byte	0x9
 3371 01c0 2F01     		.2byte	0x12f
 3372 01c2 27010000 		.4byte	0x127
 3373 01c6 00       		.byte	0
 3374 01c7 09       		.uleb128 0x9
 3375 01c8 51020000 		.4byte	.LASF38
 3376 01cc 09       		.byte	0x9
 3377 01cd C3       		.byte	0xc3
 3378 01ce CB020000 		.4byte	0x2cb
 3379 01d2 00       		.byte	0
 3380 01d3 09       		.uleb128 0x9
 3381 01d4 64020000 		.4byte	.LASF39
 3382 01d8 09       		.byte	0x9
 3383 01d9 C5       		.byte	0xc5
 3384 01da CB020000 		.4byte	0x2cb
 3385 01de 04       		.byte	0x4
 3386 01df 09       		.uleb128 0x9
 3387 01e0 46050000 		.4byte	.LASF40
 3388 01e4 09       		.byte	0x9
 3389 01e5 C7       		.byte	0xc7
 3390 01e6 11010000 		.4byte	0x111
 3391 01ea 08       		.byte	0x8
 3392 01eb 09       		.uleb128 0x9
 3393 01ec 56000000 		.4byte	.LASF41
 3394 01f0 09       		.byte	0x9
 3395 01f1 C8       		.byte	0xc8
 3396 01f2 61060000 		.4byte	0x661
 3397 01f6 0C       		.byte	0xc
 3398 01f7 09       		.uleb128 0x9
 3399 01f8 2C020000 		.4byte	.LASF42
 3400 01fc 09       		.byte	0x9
 3401 01fd CA       		.byte	0xca
 3402 01fe CB020000 		.4byte	0x2cb
 3403 0202 10       		.byte	0x10
 3404 0203 09       		.uleb128 0x9
 3405 0204 C40D0000 		.4byte	.LASF43
 3406 0208 09       		.byte	0x9
 3407 0209 CB       		.byte	0xcb
 3408 020a CB020000 		.4byte	0x2cb
 3409 020e 14       		.byte	0x14
 3410 020f 09       		.uleb128 0x9
 3411 0210 E5120000 		.4byte	.LASF44
 3412 0214 09       		.byte	0x9
 3413 0215 D2       		.byte	0xd2
 3414 0216 56080000 		.4byte	0x856
 3415 021a 18       		.byte	0x18
ARM GAS  /var/folders/m4/4md61f0s1_g0rzfghffqnxvr0000gn/T//cchEhHjd.s 			page 61


 3416 021b 09       		.uleb128 0x9
 3417 021c 20140000 		.4byte	.LASF45
 3418 0220 09       		.byte	0x9
 3419 0221 DD       		.byte	0xdd
 3420 0222 F0000000 		.4byte	0xf0
 3421 0226 1C       		.byte	0x1c
 3422 0227 09       		.uleb128 0x9
 3423 0228 4F0A0000 		.4byte	.LASF46
 3424 022c 09       		.byte	0x9
 3425 022d E1       		.byte	0xe1
 3426 022e E5000000 		.4byte	0xe5
 3427 0232 1D       		.byte	0x1d
 3428 0233 09       		.uleb128 0x9
 3429 0234 C00A0000 		.4byte	.LASF47
 3430 0238 09       		.byte	0x9
 3431 0239 E6       		.byte	0xe6
 3432 023a FB000000 		.4byte	0xfb
 3433 023e 1E       		.byte	0x1e
 3434 023f 09       		.uleb128 0x9
 3435 0240 37100000 		.4byte	.LASF48
 3436 0244 09       		.byte	0x9
 3437 0245 EC       		.byte	0xec
 3438 0246 06010000 		.4byte	0x106
 3439 024a 1F       		.byte	0x1f
 3440 024b 09       		.uleb128 0x9
 3441 024c B80B0000 		.4byte	.LASF49
 3442 0250 09       		.byte	0x9
 3443 0251 F3       		.byte	0xf3
 3444 0252 68080000 		.4byte	0x868
 3445 0256 20       		.byte	0x20
 3446 0257 0A       		.uleb128 0xa
 3447 0258 705F7500 		.ascii	"p_u\000"
 3448 025c 09       		.byte	0x9
 3449 025d 3101     		.2byte	0x131
 3450 025f 6A010000 		.4byte	0x16a
 3451 0263 24       		.byte	0x24
 3452 0264 0B       		.uleb128 0xb
 3453 0265 2E0A0000 		.4byte	.LASF50
 3454 0269 09       		.byte	0x9
 3455 026a 3601     		.2byte	0x136
 3456 026c D1020000 		.4byte	0x2d1
 3457 0270 28       		.byte	0x28
 3458 0271 0B       		.uleb128 0xb
 3459 0272 84000000 		.4byte	.LASF51
 3460 0276 09       		.byte	0x9
 3461 0277 3C01     		.2byte	0x13c
 3462 0279 F5020000 		.4byte	0x2f5
 3463 027d 2C       		.byte	0x2c
 3464 027e 0B       		.uleb128 0xb
 3465 027f 0E140000 		.4byte	.LASF52
 3466 0283 09       		.byte	0x9
 3467 0284 4001     		.2byte	0x140
 3468 0286 1C010000 		.4byte	0x11c
 3469 028a 34       		.byte	0x34
 3470 028b 0B       		.uleb128 0xb
 3471 028c 27070000 		.4byte	.LASF53
 3472 0290 09       		.byte	0x9
ARM GAS  /var/folders/m4/4md61f0s1_g0rzfghffqnxvr0000gn/T//cchEhHjd.s 			page 62


 3473 0291 4601     		.2byte	0x146
 3474 0293 27010000 		.4byte	0x127
 3475 0297 38       		.byte	0x38
 3476 0298 0B       		.uleb128 0xb
 3477 0299 AB020000 		.4byte	.LASF54
 3478 029d 09       		.byte	0x9
 3479 029e 4D01     		.2byte	0x14d
 3480 02a0 50080000 		.4byte	0x850
 3481 02a4 3C       		.byte	0x3c
 3482 02a5 0B       		.uleb128 0xb
 3483 02a6 6C0C0000 		.4byte	.LASF55
 3484 02aa 09       		.byte	0x9
 3485 02ab 5101     		.2byte	0x151
 3486 02ad 11010000 		.4byte	0x111
 3487 02b1 40       		.byte	0x40
 3488 02b2 0B       		.uleb128 0xb
 3489 02b3 AF0A0000 		.4byte	.LASF56
 3490 02b7 09       		.byte	0x9
 3491 02b8 5801     		.2byte	0x158
 3492 02ba A8030000 		.4byte	0x3a8
 3493 02be 44       		.byte	0x44
 3494 02bf 00       		.byte	0
 3495 02c0 03       		.uleb128 0x3
 3496 02c1 300C0000 		.4byte	.LASF57
 3497 02c5 08       		.byte	0x8
 3498 02c6 44       		.byte	0x44
 3499 02c7 CB020000 		.4byte	0x2cb
 3500 02cb 0C       		.uleb128 0xc
 3501 02cc 04       		.byte	0x4
 3502 02cd 53010000 		.4byte	0x153
 3503 02d1 03       		.uleb128 0x3
 3504 02d2 DD100000 		.4byte	.LASF58
 3505 02d6 08       		.byte	0x8
 3506 02d7 49       		.byte	0x49
 3507 02d8 DC020000 		.4byte	0x2dc
 3508 02dc 06       		.uleb128 0x6
 3509 02dd 5C080000 		.4byte	.LASF60
 3510 02e1 04       		.byte	0x4
 3511 02e2 09       		.byte	0x9
 3512 02e3 B0       		.byte	0xb0
 3513 02e4 F5020000 		.4byte	0x2f5
 3514 02e8 09       		.uleb128 0x9
 3515 02e9 51020000 		.4byte	.LASF38
 3516 02ed 09       		.byte	0x9
 3517 02ee B1       		.byte	0xb1
 3518 02ef CB020000 		.4byte	0x2cb
 3519 02f3 00       		.byte	0
 3520 02f4 00       		.byte	0
 3521 02f5 03       		.uleb128 0x3
 3522 02f6 9B020000 		.4byte	.LASF61
 3523 02fa 08       		.byte	0x8
 3524 02fb 50       		.byte	0x50
 3525 02fc 00030000 		.4byte	0x300
 3526 0300 06       		.uleb128 0x6
 3527 0301 DB0D0000 		.4byte	.LASF62
 3528 0305 08       		.byte	0x8
 3529 0306 09       		.byte	0x9
ARM GAS  /var/folders/m4/4md61f0s1_g0rzfghffqnxvr0000gn/T//cchEhHjd.s 			page 63


 3530 0307 B7       		.byte	0xb7
 3531 0308 25030000 		.4byte	0x325
 3532 030c 09       		.uleb128 0x9
 3533 030d 51020000 		.4byte	.LASF38
 3534 0311 09       		.byte	0x9
 3535 0312 B8       		.byte	0xb8
 3536 0313 CB020000 		.4byte	0x2cb
 3537 0317 00       		.byte	0
 3538 0318 09       		.uleb128 0x9
 3539 0319 64020000 		.4byte	.LASF39
 3540 031d 09       		.byte	0x9
 3541 031e B9       		.byte	0xb9
 3542 031f CB020000 		.4byte	0x2cb
 3543 0323 04       		.byte	0x4
 3544 0324 00       		.byte	0
 3545 0325 03       		.uleb128 0x3
 3546 0326 37080000 		.4byte	.LASF63
 3547 032a 08       		.byte	0x8
 3548 032b 57       		.byte	0x57
 3549 032c 30030000 		.4byte	0x330
 3550 0330 0D       		.uleb128 0xd
 3551 0331 39070000 		.4byte	.LASF64
 3552 0335 1C       		.byte	0x1c
 3553 0336 09       		.byte	0x9
 3554 0337 9001     		.2byte	0x190
 3555 0339 8C030000 		.4byte	0x38c
 3556 033d 0B       		.uleb128 0xb
 3557 033e F50E0000 		.4byte	.LASF65
 3558 0342 09       		.byte	0x9
 3559 0343 9101     		.2byte	0x191
 3560 0345 F5020000 		.4byte	0x2f5
 3561 0349 00       		.byte	0
 3562 034a 0B       		.uleb128 0xb
 3563 034b 41100000 		.4byte	.LASF66
 3564 034f 09       		.byte	0x9
 3565 0350 9201     		.2byte	0x192
 3566 0352 11010000 		.4byte	0x111
 3567 0356 08       		.byte	0x8
 3568 0357 0B       		.uleb128 0xb
 3569 0358 8F000000 		.4byte	.LASF67
 3570 035c 09       		.byte	0x9
 3571 035d 9401     		.2byte	0x194
 3572 035f 61060000 		.4byte	0x661
 3573 0363 0C       		.byte	0xc
 3574 0364 0B       		.uleb128 0xb
 3575 0365 94030000 		.4byte	.LASF68
 3576 0369 09       		.byte	0x9
 3577 036a 9701     		.2byte	0x197
 3578 036c CB020000 		.4byte	0x2cb
 3579 0370 10       		.byte	0x10
 3580 0371 0B       		.uleb128 0xb
 3581 0372 6E0F0000 		.4byte	.LASF69
 3582 0376 09       		.byte	0x9
 3583 0377 9801     		.2byte	0x198
 3584 0379 CB020000 		.4byte	0x2cb
 3585 037d 14       		.byte	0x14
 3586 037e 0B       		.uleb128 0xb
ARM GAS  /var/folders/m4/4md61f0s1_g0rzfghffqnxvr0000gn/T//cchEhHjd.s 			page 64


 3587 037f 500E0000 		.4byte	.LASF70
 3588 0383 09       		.byte	0x9
 3589 0384 9B01     		.2byte	0x19b
 3590 0386 CB020000 		.4byte	0x2cb
 3591 038a 18       		.byte	0x18
 3592 038b 00       		.byte	0
 3593 038c 03       		.uleb128 0x3
 3594 038d D8000000 		.4byte	.LASF71
 3595 0391 08       		.byte	0x8
 3596 0392 5C       		.byte	0x5c
 3597 0393 97030000 		.4byte	0x397
 3598 0397 0C       		.uleb128 0xc
 3599 0398 04       		.byte	0x4
 3600 0399 9D030000 		.4byte	0x39d
 3601 039d 0E       		.uleb128 0xe
 3602 039e A8030000 		.4byte	0x3a8
 3603 03a2 0F       		.uleb128 0xf
 3604 03a3 A8030000 		.4byte	0x3a8
 3605 03a7 00       		.byte	0
 3606 03a8 10       		.uleb128 0x10
 3607 03a9 04       		.byte	0x4
 3608 03aa 03       		.uleb128 0x3
 3609 03ab 27080000 		.4byte	.LASF72
 3610 03af 08       		.byte	0x8
 3611 03b0 61       		.byte	0x61
 3612 03b1 B5030000 		.4byte	0x3b5
 3613 03b5 0D       		.uleb128 0xd
 3614 03b6 E50C0000 		.4byte	.LASF73
 3615 03ba 14       		.byte	0x14
 3616 03bb 09       		.byte	0x9
 3617 03bc 6B01     		.2byte	0x16b
 3618 03be 04040000 		.4byte	0x404
 3619 03c2 0B       		.uleb128 0xb
 3620 03c3 38090000 		.4byte	.LASF74
 3621 03c7 09       		.byte	0x9
 3622 03c8 6C01     		.2byte	0x16c
 3623 03ca 6D080000 		.4byte	0x86d
 3624 03ce 00       		.byte	0
 3625 03cf 0B       		.uleb128 0xb
 3626 03d0 63090000 		.4byte	.LASF75
 3627 03d4 09       		.byte	0x9
 3628 03d5 6D01     		.2byte	0x16d
 3629 03d7 6D080000 		.4byte	0x86d
 3630 03db 04       		.byte	0x4
 3631 03dc 0B       		.uleb128 0xb
 3632 03dd A70C0000 		.4byte	.LASF76
 3633 03e1 09       		.byte	0x9
 3634 03e2 6E01     		.2byte	0x16e
 3635 03e4 48010000 		.4byte	0x148
 3636 03e8 08       		.byte	0x8
 3637 03e9 0B       		.uleb128 0xb
 3638 03ea EF060000 		.4byte	.LASF77
 3639 03ee 09       		.byte	0x9
 3640 03ef 6F01     		.2byte	0x16f
 3641 03f1 8C030000 		.4byte	0x38c
 3642 03f5 0C       		.byte	0xc
 3643 03f6 0B       		.uleb128 0xb
ARM GAS  /var/folders/m4/4md61f0s1_g0rzfghffqnxvr0000gn/T//cchEhHjd.s 			page 65


 3644 03f7 B5010000 		.4byte	.LASF78
 3645 03fb 09       		.byte	0x9
 3646 03fc 7101     		.2byte	0x171
 3647 03fe A8030000 		.4byte	0x3a8
 3648 0402 10       		.byte	0x10
 3649 0403 00       		.byte	0
 3650 0404 03       		.uleb128 0x3
 3651 0405 FD070000 		.4byte	.LASF79
 3652 0409 08       		.byte	0x8
 3653 040a 66       		.byte	0x66
 3654 040b 0F040000 		.4byte	0x40f
 3655 040f 0D       		.uleb128 0xd
 3656 0410 E1000000 		.4byte	.LASF80
 3657 0414 10       		.byte	0x10
 3658 0415 09       		.byte	0x9
 3659 0416 7B01     		.2byte	0x17b
 3660 0418 51040000 		.4byte	0x451
 3661 041c 0B       		.uleb128 0xb
 3662 041d 38090000 		.4byte	.LASF74
 3663 0421 09       		.byte	0x9
 3664 0422 7C01     		.2byte	0x17c
 3665 0424 6D080000 		.4byte	0x86d
 3666 0428 00       		.byte	0
 3667 0429 0B       		.uleb128 0xb
 3668 042a 63090000 		.4byte	.LASF75
 3669 042e 09       		.byte	0x9
 3670 042f 7E01     		.2byte	0x17e
 3671 0431 6D080000 		.4byte	0x86d
 3672 0435 04       		.byte	0x4
 3673 0436 0B       		.uleb128 0xb
 3674 0437 A70C0000 		.4byte	.LASF76
 3675 043b 09       		.byte	0x9
 3676 043c 8001     		.2byte	0x180
 3677 043e 48010000 		.4byte	0x148
 3678 0442 08       		.byte	0x8
 3679 0443 0B       		.uleb128 0xb
 3680 0444 630F0000 		.4byte	.LASF81
 3681 0448 09       		.byte	0x9
 3682 0449 8201     		.2byte	0x182
 3683 044b 68080000 		.4byte	0x868
 3684 044f 0C       		.byte	0xc
 3685 0450 00       		.byte	0
 3686 0451 03       		.uleb128 0x3
 3687 0452 9C030000 		.4byte	.LASF82
 3688 0456 08       		.byte	0x8
 3689 0457 6B       		.byte	0x6b
 3690 0458 5C040000 		.4byte	0x45c
 3691 045c 0D       		.uleb128 0xd
 3692 045d 6F100000 		.4byte	.LASF83
 3693 0461 04       		.byte	0x4
 3694 0462 09       		.byte	0x9
 3695 0463 A201     		.2byte	0x1a2
 3696 0465 77040000 		.4byte	0x477
 3697 0469 0B       		.uleb128 0xb
 3698 046a 69030000 		.4byte	.LASF84
 3699 046e 09       		.byte	0x9
 3700 046f AA01     		.2byte	0x1aa
ARM GAS  /var/folders/m4/4md61f0s1_g0rzfghffqnxvr0000gn/T//cchEhHjd.s 			page 66


 3701 0471 73080000 		.4byte	0x873
 3702 0475 00       		.byte	0
 3703 0476 00       		.byte	0
 3704 0477 03       		.uleb128 0x3
 3705 0478 17120000 		.4byte	.LASF85
 3706 047c 08       		.byte	0x8
 3707 047d 70       		.byte	0x70
 3708 047e 82040000 		.4byte	0x482
 3709 0482 11       		.uleb128 0x11
 3710 0483 1A110000 		.4byte	.LASF86
 3711 0487 5802     		.2byte	0x258
 3712 0489 09       		.byte	0x9
 3713 048a C201     		.2byte	0x1c2
 3714 048c DE040000 		.4byte	0x4de
 3715 0490 0B       		.uleb128 0xb
 3716 0491 370F0000 		.4byte	.LASF87
 3717 0495 09       		.byte	0x9
 3718 0496 C601     		.2byte	0x1c6
 3719 0498 25030000 		.4byte	0x325
 3720 049c 00       		.byte	0
 3721 049d 0B       		.uleb128 0xb
 3722 049e A1100000 		.4byte	.LASF88
 3723 04a2 09       		.byte	0x9
 3724 04a3 CA01     		.2byte	0x1ca
 3725 04a5 04040000 		.4byte	0x404
 3726 04a9 1C       		.byte	0x1c
 3727 04aa 0A       		.uleb128 0xa
 3728 04ab 64626700 		.ascii	"dbg\000"
 3729 04af 09       		.byte	0x9
 3730 04b0 CE01     		.2byte	0x1ce
 3731 04b2 51040000 		.4byte	0x451
 3732 04b6 2C       		.byte	0x2c
 3733 04b7 0B       		.uleb128 0xb
 3734 04b8 AE0E0000 		.4byte	.LASF89
 3735 04bc 09       		.byte	0x9
 3736 04bd D201     		.2byte	0x1d2
 3737 04bf 53010000 		.4byte	0x153
 3738 04c3 30       		.byte	0x30
 3739 04c4 0A       		.uleb128 0xa
 3740 04c5 746D00   		.ascii	"tm\000"
 3741 04c8 09       		.byte	0x9
 3742 04c9 D701     		.2byte	0x1d7
 3743 04cb E3070000 		.4byte	0x7e3
 3744 04cf 78       		.byte	0x78
 3745 04d0 0B       		.uleb128 0xb
 3746 04d1 630A0000 		.4byte	.LASF90
 3747 04d5 09       		.byte	0x9
 3748 04d6 E301     		.2byte	0x1e3
 3749 04d8 78080000 		.4byte	0x878
 3750 04dc 80       		.byte	0x80
 3751 04dd 00       		.byte	0
 3752 04de 04       		.uleb128 0x4
 3753 04df 04       		.byte	0x4
 3754 04e0 07       		.byte	0x7
 3755 04e1 28000000 		.4byte	.LASF91
 3756 04e5 12       		.uleb128 0x12
 3757 04e6 CF000000 		.4byte	0xcf
ARM GAS  /var/folders/m4/4md61f0s1_g0rzfghffqnxvr0000gn/T//cchEhHjd.s 			page 67


 3758 04ea 13       		.uleb128 0x13
 3759 04eb 18       		.byte	0x18
 3760 04ec 0A       		.byte	0xa
 3761 04ed 7E01     		.2byte	0x17e
 3762 04ef 6B090000 		.4byte	.LASF96
 3763 04f3 45050000 		.4byte	0x545
 3764 04f7 0A       		.uleb128 0xa
 3765 04f8 435200   		.ascii	"CR\000"
 3766 04fb 0A       		.byte	0xa
 3767 04fc 7F01     		.2byte	0x17f
 3768 04fe E5040000 		.4byte	0x4e5
 3769 0502 00       		.byte	0
 3770 0503 0B       		.uleb128 0xb
 3771 0504 A7120000 		.4byte	.LASF92
 3772 0508 0A       		.byte	0xa
 3773 0509 8001     		.2byte	0x180
 3774 050b E5040000 		.4byte	0x4e5
 3775 050f 04       		.byte	0x4
 3776 0510 0A       		.uleb128 0xa
 3777 0511 50415200 		.ascii	"PAR\000"
 3778 0515 0A       		.byte	0xa
 3779 0516 8101     		.2byte	0x181
 3780 0518 E5040000 		.4byte	0x4e5
 3781 051c 08       		.byte	0x8
 3782 051d 0B       		.uleb128 0xb
 3783 051e 8E0F0000 		.4byte	.LASF93
 3784 0522 0A       		.byte	0xa
 3785 0523 8201     		.2byte	0x182
 3786 0525 E5040000 		.4byte	0x4e5
 3787 0529 0C       		.byte	0xc
 3788 052a 0B       		.uleb128 0xb
 3789 052b 00000000 		.4byte	.LASF94
 3790 052f 0A       		.byte	0xa
 3791 0530 8301     		.2byte	0x183
 3792 0532 E5040000 		.4byte	0x4e5
 3793 0536 10       		.byte	0x10
 3794 0537 0A       		.uleb128 0xa
 3795 0538 46435200 		.ascii	"FCR\000"
 3796 053c 0A       		.byte	0xa
 3797 053d 8401     		.2byte	0x184
 3798 053f E5040000 		.4byte	0x4e5
 3799 0543 14       		.byte	0x14
 3800 0544 00       		.byte	0
 3801 0545 14       		.uleb128 0x14
 3802 0546 A50B0000 		.4byte	.LASF95
 3803 054a 0A       		.byte	0xa
 3804 054b 8501     		.2byte	0x185
 3805 054d EA040000 		.4byte	0x4ea
 3806 0551 13       		.uleb128 0x13
 3807 0552 24       		.byte	0x24
 3808 0553 0A       		.byte	0xa
 3809 0554 C502     		.2byte	0x2c5
 3810 0556 13020000 		.4byte	.LASF97
 3811 055a D2050000 		.4byte	0x5d2
 3812 055e 0A       		.uleb128 0xa
 3813 055f 43523100 		.ascii	"CR1\000"
 3814 0563 0A       		.byte	0xa
ARM GAS  /var/folders/m4/4md61f0s1_g0rzfghffqnxvr0000gn/T//cchEhHjd.s 			page 68


 3815 0564 C602     		.2byte	0x2c6
 3816 0566 E5040000 		.4byte	0x4e5
 3817 056a 00       		.byte	0
 3818 056b 0A       		.uleb128 0xa
 3819 056c 43523200 		.ascii	"CR2\000"
 3820 0570 0A       		.byte	0xa
 3821 0571 C702     		.2byte	0x2c7
 3822 0573 E5040000 		.4byte	0x4e5
 3823 0577 04       		.byte	0x4
 3824 0578 0A       		.uleb128 0xa
 3825 0579 535200   		.ascii	"SR\000"
 3826 057c 0A       		.byte	0xa
 3827 057d C802     		.2byte	0x2c8
 3828 057f E5040000 		.4byte	0x4e5
 3829 0583 08       		.byte	0x8
 3830 0584 0A       		.uleb128 0xa
 3831 0585 445200   		.ascii	"DR\000"
 3832 0588 0A       		.byte	0xa
 3833 0589 C902     		.2byte	0x2c9
 3834 058b E5040000 		.4byte	0x4e5
 3835 058f 0C       		.byte	0xc
 3836 0590 0B       		.uleb128 0xb
 3837 0591 450F0000 		.4byte	.LASF98
 3838 0595 0A       		.byte	0xa
 3839 0596 CA02     		.2byte	0x2ca
 3840 0598 E5040000 		.4byte	0x4e5
 3841 059c 10       		.byte	0x10
 3842 059d 0B       		.uleb128 0xb
 3843 059e DC090000 		.4byte	.LASF99
 3844 05a2 0A       		.byte	0xa
 3845 05a3 CB02     		.2byte	0x2cb
 3846 05a5 E5040000 		.4byte	0x4e5
 3847 05a9 14       		.byte	0x14
 3848 05aa 0B       		.uleb128 0xb
 3849 05ab 190F0000 		.4byte	.LASF100
 3850 05af 0A       		.byte	0xa
 3851 05b0 CC02     		.2byte	0x2cc
 3852 05b2 E5040000 		.4byte	0x4e5
 3853 05b6 18       		.byte	0x18
 3854 05b7 0B       		.uleb128 0xb
 3855 05b8 CC010000 		.4byte	.LASF101
 3856 05bc 0A       		.byte	0xa
 3857 05bd CD02     		.2byte	0x2cd
 3858 05bf E5040000 		.4byte	0x4e5
 3859 05c3 1C       		.byte	0x1c
 3860 05c4 0B       		.uleb128 0xb
 3861 05c5 4C110000 		.4byte	.LASF102
 3862 05c9 0A       		.byte	0xa
 3863 05ca CE02     		.2byte	0x2ce
 3864 05cc E5040000 		.4byte	0x4e5
 3865 05d0 20       		.byte	0x20
 3866 05d1 00       		.byte	0
 3867 05d2 14       		.uleb128 0x14
 3868 05d3 200F0000 		.4byte	.LASF103
 3869 05d7 0A       		.byte	0xa
 3870 05d8 CF02     		.2byte	0x2cf
 3871 05da 51050000 		.4byte	0x551
ARM GAS  /var/folders/m4/4md61f0s1_g0rzfghffqnxvr0000gn/T//cchEhHjd.s 			page 69


 3872 05de 15       		.uleb128 0x15
 3873 05df 01       		.byte	0x1
 3874 05e0 63000000 		.4byte	0x63
 3875 05e4 0B       		.byte	0xb
 3876 05e5 B8       		.byte	0xb8
 3877 05e6 BE020000 		.4byte	.LASF106
 3878 05ea FB050000 		.4byte	0x5fb
 3879 05ee 16       		.uleb128 0x16
 3880 05ef EF0E0000 		.4byte	.LASF104
 3881 05f3 00       		.byte	0
 3882 05f4 17       		.uleb128 0x17
 3883 05f5 53455400 		.ascii	"SET\000"
 3884 05f9 01       		.byte	0x1
 3885 05fa 00       		.byte	0
 3886 05fb 03       		.uleb128 0x3
 3887 05fc 2C0F0000 		.4byte	.LASF105
 3888 0600 0B       		.byte	0xb
 3889 0601 BB       		.byte	0xbb
 3890 0602 DE050000 		.4byte	0x5de
 3891 0606 15       		.uleb128 0x15
 3892 0607 01       		.byte	0x1
 3893 0608 63000000 		.4byte	0x63
 3894 060c 0B       		.byte	0xb
 3895 060d BE       		.byte	0xbe
 3896 060e 82030000 		.4byte	.LASF107
 3897 0612 23060000 		.4byte	0x623
 3898 0616 16       		.uleb128 0x16
 3899 0617 130C0000 		.4byte	.LASF108
 3900 061b 00       		.byte	0
 3901 061c 16       		.uleb128 0x16
 3902 061d 7F100000 		.4byte	.LASF109
 3903 0621 01       		.byte	0x1
 3904 0622 00       		.byte	0
 3905 0623 03       		.uleb128 0x3
 3906 0624 3E0D0000 		.4byte	.LASF110
 3907 0628 0B       		.byte	0xb
 3908 0629 C1       		.byte	0xc1
 3909 062a 06060000 		.4byte	0x606
 3910 062e 15       		.uleb128 0x15
 3911 062f 01       		.byte	0x1
 3912 0630 63000000 		.4byte	0x63
 3913 0634 0B       		.byte	0xb
 3914 0635 C5       		.byte	0xc5
 3915 0636 64000000 		.4byte	.LASF111
 3916 063a 4B060000 		.4byte	0x64b
 3917 063e 16       		.uleb128 0x16
 3918 063f 56080000 		.4byte	.LASF112
 3919 0643 00       		.byte	0
 3920 0644 16       		.uleb128 0x16
 3921 0645 7C0E0000 		.4byte	.LASF113
 3922 0649 01       		.byte	0x1
 3923 064a 00       		.byte	0
 3924 064b 03       		.uleb128 0x3
 3925 064c B00C0000 		.4byte	.LASF114
 3926 0650 0B       		.byte	0xb
 3927 0651 C8       		.byte	0xc8
 3928 0652 2E060000 		.4byte	0x62e
ARM GAS  /var/folders/m4/4md61f0s1_g0rzfghffqnxvr0000gn/T//cchEhHjd.s 			page 70


 3929 0656 03       		.uleb128 0x3
 3930 0657 B5020000 		.4byte	.LASF115
 3931 065b 0C       		.byte	0xc
 3932 065c 65       		.byte	0x65
 3933 065d A8030000 		.4byte	0x3a8
 3934 0661 06       		.uleb128 0x6
 3935 0662 1F030000 		.4byte	.LASF116
 3936 0666 04       		.byte	0x4
 3937 0667 0C       		.byte	0xc
 3938 0668 89       		.byte	0x89
 3939 0669 7A060000 		.4byte	0x67a
 3940 066d 18       		.uleb128 0x18
 3941 066e 72313300 		.ascii	"r13\000"
 3942 0672 0C       		.byte	0xc
 3943 0673 8A       		.byte	0x8a
 3944 0674 C4070000 		.4byte	0x7c4
 3945 0678 00       		.byte	0
 3946 0679 00       		.byte	0
 3947 067a 06       		.uleb128 0x6
 3948 067b 770C0000 		.4byte	.LASF117
 3949 067f 64       		.byte	0x64
 3950 0680 0D       		.byte	0xd
 3951 0681 FD       		.byte	0xfd
 3952 0682 C4070000 		.4byte	0x7c4
 3953 0686 18       		.uleb128 0x18
 3954 0687 73313600 		.ascii	"s16\000"
 3955 068b 0D       		.byte	0xd
 3956 068c FF       		.byte	0xff
 3957 068d 56060000 		.4byte	0x656
 3958 0691 00       		.byte	0
 3959 0692 0A       		.uleb128 0xa
 3960 0693 73313700 		.ascii	"s17\000"
 3961 0697 0D       		.byte	0xd
 3962 0698 0001     		.2byte	0x100
 3963 069a 56060000 		.4byte	0x656
 3964 069e 04       		.byte	0x4
 3965 069f 0A       		.uleb128 0xa
 3966 06a0 73313800 		.ascii	"s18\000"
 3967 06a4 0D       		.byte	0xd
 3968 06a5 0101     		.2byte	0x101
 3969 06a7 56060000 		.4byte	0x656
 3970 06ab 08       		.byte	0x8
 3971 06ac 0A       		.uleb128 0xa
 3972 06ad 73313900 		.ascii	"s19\000"
 3973 06b1 0D       		.byte	0xd
 3974 06b2 0201     		.2byte	0x102
 3975 06b4 56060000 		.4byte	0x656
 3976 06b8 0C       		.byte	0xc
 3977 06b9 0A       		.uleb128 0xa
 3978 06ba 73323000 		.ascii	"s20\000"
 3979 06be 0D       		.byte	0xd
 3980 06bf 0301     		.2byte	0x103
 3981 06c1 56060000 		.4byte	0x656
 3982 06c5 10       		.byte	0x10
 3983 06c6 0A       		.uleb128 0xa
 3984 06c7 73323100 		.ascii	"s21\000"
 3985 06cb 0D       		.byte	0xd
ARM GAS  /var/folders/m4/4md61f0s1_g0rzfghffqnxvr0000gn/T//cchEhHjd.s 			page 71


 3986 06cc 0401     		.2byte	0x104
 3987 06ce 56060000 		.4byte	0x656
 3988 06d2 14       		.byte	0x14
 3989 06d3 0A       		.uleb128 0xa
 3990 06d4 73323200 		.ascii	"s22\000"
 3991 06d8 0D       		.byte	0xd
 3992 06d9 0501     		.2byte	0x105
 3993 06db 56060000 		.4byte	0x656
 3994 06df 18       		.byte	0x18
 3995 06e0 0A       		.uleb128 0xa
 3996 06e1 73323300 		.ascii	"s23\000"
 3997 06e5 0D       		.byte	0xd
 3998 06e6 0601     		.2byte	0x106
 3999 06e8 56060000 		.4byte	0x656
 4000 06ec 1C       		.byte	0x1c
 4001 06ed 0A       		.uleb128 0xa
 4002 06ee 73323400 		.ascii	"s24\000"
 4003 06f2 0D       		.byte	0xd
 4004 06f3 0701     		.2byte	0x107
 4005 06f5 56060000 		.4byte	0x656
 4006 06f9 20       		.byte	0x20
 4007 06fa 0A       		.uleb128 0xa
 4008 06fb 73323500 		.ascii	"s25\000"
 4009 06ff 0D       		.byte	0xd
 4010 0700 0801     		.2byte	0x108
 4011 0702 56060000 		.4byte	0x656
 4012 0706 24       		.byte	0x24
 4013 0707 0A       		.uleb128 0xa
 4014 0708 73323600 		.ascii	"s26\000"
 4015 070c 0D       		.byte	0xd
 4016 070d 0901     		.2byte	0x109
 4017 070f 56060000 		.4byte	0x656
 4018 0713 28       		.byte	0x28
 4019 0714 0A       		.uleb128 0xa
 4020 0715 73323700 		.ascii	"s27\000"
 4021 0719 0D       		.byte	0xd
 4022 071a 0A01     		.2byte	0x10a
 4023 071c 56060000 		.4byte	0x656
 4024 0720 2C       		.byte	0x2c
 4025 0721 0A       		.uleb128 0xa
 4026 0722 73323800 		.ascii	"s28\000"
 4027 0726 0D       		.byte	0xd
 4028 0727 0B01     		.2byte	0x10b
 4029 0729 56060000 		.4byte	0x656
 4030 072d 30       		.byte	0x30
 4031 072e 0A       		.uleb128 0xa
 4032 072f 73323900 		.ascii	"s29\000"
 4033 0733 0D       		.byte	0xd
 4034 0734 0C01     		.2byte	0x10c
 4035 0736 56060000 		.4byte	0x656
 4036 073a 34       		.byte	0x34
 4037 073b 0A       		.uleb128 0xa
 4038 073c 73333000 		.ascii	"s30\000"
 4039 0740 0D       		.byte	0xd
 4040 0741 0D01     		.2byte	0x10d
 4041 0743 56060000 		.4byte	0x656
 4042 0747 38       		.byte	0x38
ARM GAS  /var/folders/m4/4md61f0s1_g0rzfghffqnxvr0000gn/T//cchEhHjd.s 			page 72


 4043 0748 0A       		.uleb128 0xa
 4044 0749 73333100 		.ascii	"s31\000"
 4045 074d 0D       		.byte	0xd
 4046 074e 0E01     		.2byte	0x10e
 4047 0750 56060000 		.4byte	0x656
 4048 0754 3C       		.byte	0x3c
 4049 0755 0A       		.uleb128 0xa
 4050 0756 723400   		.ascii	"r4\000"
 4051 0759 0D       		.byte	0xd
 4052 075a 1001     		.2byte	0x110
 4053 075c 56060000 		.4byte	0x656
 4054 0760 40       		.byte	0x40
 4055 0761 0A       		.uleb128 0xa
 4056 0762 723500   		.ascii	"r5\000"
 4057 0765 0D       		.byte	0xd
 4058 0766 1101     		.2byte	0x111
 4059 0768 56060000 		.4byte	0x656
 4060 076c 44       		.byte	0x44
 4061 076d 0A       		.uleb128 0xa
 4062 076e 723600   		.ascii	"r6\000"
 4063 0771 0D       		.byte	0xd
 4064 0772 1201     		.2byte	0x112
 4065 0774 56060000 		.4byte	0x656
 4066 0778 48       		.byte	0x48
 4067 0779 0A       		.uleb128 0xa
 4068 077a 723700   		.ascii	"r7\000"
 4069 077d 0D       		.byte	0xd
 4070 077e 1301     		.2byte	0x113
 4071 0780 56060000 		.4byte	0x656
 4072 0784 4C       		.byte	0x4c
 4073 0785 0A       		.uleb128 0xa
 4074 0786 723800   		.ascii	"r8\000"
 4075 0789 0D       		.byte	0xd
 4076 078a 1401     		.2byte	0x114
 4077 078c 56060000 		.4byte	0x656
 4078 0790 50       		.byte	0x50
 4079 0791 0A       		.uleb128 0xa
 4080 0792 723900   		.ascii	"r9\000"
 4081 0795 0D       		.byte	0xd
 4082 0796 1501     		.2byte	0x115
 4083 0798 56060000 		.4byte	0x656
 4084 079c 54       		.byte	0x54
 4085 079d 0A       		.uleb128 0xa
 4086 079e 72313000 		.ascii	"r10\000"
 4087 07a2 0D       		.byte	0xd
 4088 07a3 1601     		.2byte	0x116
 4089 07a5 56060000 		.4byte	0x656
 4090 07a9 58       		.byte	0x58
 4091 07aa 0A       		.uleb128 0xa
 4092 07ab 72313100 		.ascii	"r11\000"
 4093 07af 0D       		.byte	0xd
 4094 07b0 1701     		.2byte	0x117
 4095 07b2 56060000 		.4byte	0x656
 4096 07b6 5C       		.byte	0x5c
 4097 07b7 0A       		.uleb128 0xa
 4098 07b8 6C7200   		.ascii	"lr\000"
 4099 07bb 0D       		.byte	0xd
ARM GAS  /var/folders/m4/4md61f0s1_g0rzfghffqnxvr0000gn/T//cchEhHjd.s 			page 73


 4100 07bc 1801     		.2byte	0x118
 4101 07be 56060000 		.4byte	0x656
 4102 07c2 60       		.byte	0x60
 4103 07c3 00       		.byte	0
 4104 07c4 0C       		.uleb128 0xc
 4105 07c5 04       		.byte	0x4
 4106 07c6 7A060000 		.4byte	0x67a
 4107 07ca 19       		.uleb128 0x19
 4108 07cb 04       		.byte	0x4
 4109 07cc 0E       		.byte	0xe
 4110 07cd 38       		.byte	0x38
 4111 07ce F60C0000 		.4byte	.LASF147
 4112 07d2 E3070000 		.4byte	0x7e3
 4113 07d6 09       		.uleb128 0x9
 4114 07d7 640B0000 		.4byte	.LASF118
 4115 07db 0E       		.byte	0xe
 4116 07dc 3C       		.byte	0x3c
 4117 07dd DA000000 		.4byte	0xda
 4118 07e1 00       		.byte	0
 4119 07e2 00       		.byte	0
 4120 07e3 03       		.uleb128 0x3
 4121 07e4 760F0000 		.4byte	.LASF119
 4122 07e8 0E       		.byte	0xe
 4123 07e9 3D       		.byte	0x3d
 4124 07ea CA070000 		.4byte	0x7ca
 4125 07ee 0C       		.uleb128 0xc
 4126 07ef 04       		.byte	0x4
 4127 07f0 C0020000 		.4byte	0x2c0
 4128 07f4 06       		.uleb128 0x6
 4129 07f5 DC070000 		.4byte	.LASF120
 4130 07f9 0C       		.byte	0xc
 4131 07fa 0F       		.byte	0xf
 4132 07fb 34       		.byte	0x34
 4133 07fc 19080000 		.4byte	0x819
 4134 0800 09       		.uleb128 0x9
 4135 0801 9D0F0000 		.4byte	.LASF121
 4136 0805 0F       		.byte	0xf
 4137 0806 35       		.byte	0x35
 4138 0807 F5020000 		.4byte	0x2f5
 4139 080b 00       		.byte	0
 4140 080c 09       		.uleb128 0x9
 4141 080d 090D0000 		.4byte	.LASF122
 4142 0811 0F       		.byte	0xf
 4143 0812 37       		.byte	0x37
 4144 0813 3D010000 		.4byte	0x13d
 4145 0817 08       		.byte	0x8
 4146 0818 00       		.byte	0
 4147 0819 0C       		.uleb128 0xc
 4148 081a 04       		.byte	0x4
 4149 081b F4070000 		.4byte	0x7f4
 4150 081f 06       		.uleb128 0x6
 4151 0820 F60F0000 		.4byte	.LASF123
 4152 0824 10       		.byte	0x10
 4153 0825 10       		.byte	0x10
 4154 0826 39       		.byte	0x39
 4155 0827 50080000 		.4byte	0x850
 4156 082b 09       		.uleb128 0x9
ARM GAS  /var/folders/m4/4md61f0s1_g0rzfghffqnxvr0000gn/T//cchEhHjd.s 			page 74


 4157 082c 12090000 		.4byte	.LASF124
 4158 0830 10       		.byte	0x10
 4159 0831 3A       		.byte	0x3a
 4160 0832 F5020000 		.4byte	0x2f5
 4161 0836 00       		.byte	0
 4162 0837 09       		.uleb128 0x9
 4163 0838 AD010000 		.4byte	.LASF125
 4164 083c 10       		.byte	0x10
 4165 083d 3C       		.byte	0x3c
 4166 083e CB020000 		.4byte	0x2cb
 4167 0842 08       		.byte	0x8
 4168 0843 09       		.uleb128 0x9
 4169 0844 69130000 		.4byte	.LASF126
 4170 0848 10       		.byte	0x10
 4171 0849 3E       		.byte	0x3e
 4172 084a 93080000 		.4byte	0x893
 4173 084e 0C       		.byte	0xc
 4174 084f 00       		.byte	0
 4175 0850 0C       		.uleb128 0xc
 4176 0851 04       		.byte	0x4
 4177 0852 1F080000 		.4byte	0x81f
 4178 0856 0C       		.uleb128 0xc
 4179 0857 04       		.byte	0x4
 4180 0858 63080000 		.4byte	0x863
 4181 085c 04       		.uleb128 0x4
 4182 085d 01       		.byte	0x1
 4183 085e 08       		.byte	0x8
 4184 085f 2A050000 		.4byte	.LASF127
 4185 0863 1A       		.uleb128 0x1a
 4186 0864 5C080000 		.4byte	0x85c
 4187 0868 12       		.uleb128 0x12
 4188 0869 48010000 		.4byte	0x148
 4189 086d 0C       		.uleb128 0xc
 4190 086e 04       		.byte	0x4
 4191 086f AA030000 		.4byte	0x3aa
 4192 0873 12       		.uleb128 0x12
 4193 0874 56080000 		.4byte	0x856
 4194 0878 1B       		.uleb128 0x1b
 4195 0879 A7000000 		.4byte	0xa7
 4196 087d 88080000 		.4byte	0x888
 4197 0881 1C       		.uleb128 0x1c
 4198 0882 DE040000 		.4byte	0x4de
 4199 0886 3A       		.byte	0x3a
 4200 0887 00       		.byte	0
 4201 0888 03       		.uleb128 0x3
 4202 0889 A8100000 		.4byte	.LASF128
 4203 088d 10       		.byte	0x10
 4204 088e 34       		.byte	0x34
 4205 088f 1F080000 		.4byte	0x81f
 4206 0893 0C       		.uleb128 0xc
 4207 0894 04       		.byte	0x4
 4208 0895 88080000 		.4byte	0x888
 4209 0899 03       		.uleb128 0x3
 4210 089a 3B060000 		.4byte	.LASF129
 4211 089e 03       		.byte	0x3
 4212 089f 34       		.byte	0x34
 4213 08a0 A4080000 		.4byte	0x8a4
ARM GAS  /var/folders/m4/4md61f0s1_g0rzfghffqnxvr0000gn/T//cchEhHjd.s 			page 75


 4214 08a4 06       		.uleb128 0x6
 4215 08a5 DC110000 		.4byte	.LASF130
 4216 08a9 14       		.byte	0x14
 4217 08aa 03       		.byte	0x3
 4218 08ab 39       		.byte	0x39
 4219 08ac ED080000 		.4byte	0x8ed
 4220 08b0 09       		.uleb128 0x9
 4221 08b1 13080000 		.4byte	.LASF131
 4222 08b5 03       		.byte	0x3
 4223 08b6 3A       		.byte	0x3a
 4224 08b7 ED080000 		.4byte	0x8ed
 4225 08bb 00       		.byte	0
 4226 08bc 09       		.uleb128 0x9
 4227 08bd 14140000 		.4byte	.LASF132
 4228 08c1 03       		.byte	0x3
 4229 08c2 3D       		.byte	0x3d
 4230 08c3 CB020000 		.4byte	0x2cb
 4231 08c7 04       		.byte	0x4
 4232 08c8 09       		.uleb128 0x9
 4233 08c9 420B0000 		.4byte	.LASF133
 4234 08cd 03       		.byte	0x3
 4235 08ce 3F       		.byte	0x3f
 4236 08cf 27010000 		.4byte	0x127
 4237 08d3 08       		.byte	0x8
 4238 08d4 09       		.uleb128 0x9
 4239 08d5 42010000 		.4byte	.LASF134
 4240 08d9 03       		.byte	0x3
 4241 08da 41       		.byte	0x41
 4242 08db 32010000 		.4byte	0x132
 4243 08df 0C       		.byte	0xc
 4244 08e0 09       		.uleb128 0x9
 4245 08e1 0B0B0000 		.4byte	.LASF135
 4246 08e5 03       		.byte	0x3
 4247 08e6 43       		.byte	0x43
 4248 08e7 32010000 		.4byte	0x132
 4249 08eb 10       		.byte	0x10
 4250 08ec 00       		.byte	0
 4251 08ed 0C       		.uleb128 0xc
 4252 08ee 04       		.byte	0x4
 4253 08ef 99080000 		.4byte	0x899
 4254 08f3 06       		.uleb128 0x6
 4255 08f4 BA0F0000 		.4byte	.LASF136
 4256 08f8 04       		.byte	0x4
 4257 08f9 03       		.byte	0x3
 4258 08fa 4A       		.byte	0x4a
 4259 08fb 0C090000 		.4byte	0x90c
 4260 08ff 09       		.uleb128 0x9
 4261 0900 95070000 		.4byte	.LASF137
 4262 0904 03       		.byte	0x3
 4263 0905 4B       		.byte	0x4b
 4264 0906 ED080000 		.4byte	0x8ed
 4265 090a 00       		.byte	0
 4266 090b 00       		.byte	0
 4267 090c 03       		.uleb128 0x3
 4268 090d 8B090000 		.4byte	.LASF138
 4269 0911 03       		.byte	0x3
 4270 0912 4E       		.byte	0x4e
ARM GAS  /var/folders/m4/4md61f0s1_g0rzfghffqnxvr0000gn/T//cchEhHjd.s 			page 76


 4271 0913 F3080000 		.4byte	0x8f3
 4272 0917 0C       		.uleb128 0xc
 4273 0918 04       		.byte	0x4
 4274 0919 AE000000 		.4byte	0xae
 4275 091d 1D       		.uleb128 0x1d
 4276 091e 2C000000 		.4byte	0x2c
 4277 0922 36090000 		.4byte	0x936
 4278 0926 0F       		.uleb128 0xf
 4279 0927 A8030000 		.4byte	0x3a8
 4280 092b 0F       		.uleb128 0xf
 4281 092c 36090000 		.4byte	0x936
 4282 0930 0F       		.uleb128 0xf
 4283 0931 2C000000 		.4byte	0x2c
 4284 0935 00       		.byte	0
 4285 0936 0C       		.uleb128 0xc
 4286 0937 04       		.byte	0x4
 4287 0938 3C090000 		.4byte	0x93c
 4288 093c 1A       		.uleb128 0x1a
 4289 093d AE000000 		.4byte	0xae
 4290 0941 0C       		.uleb128 0xc
 4291 0942 04       		.byte	0x4
 4292 0943 1D090000 		.4byte	0x91d
 4293 0947 1D       		.uleb128 0x1d
 4294 0948 2C000000 		.4byte	0x2c
 4295 094c 60090000 		.4byte	0x960
 4296 0950 0F       		.uleb128 0xf
 4297 0951 A8030000 		.4byte	0x3a8
 4298 0955 0F       		.uleb128 0xf
 4299 0956 17090000 		.4byte	0x917
 4300 095a 0F       		.uleb128 0xf
 4301 095b 2C000000 		.4byte	0x2c
 4302 095f 00       		.byte	0
 4303 0960 0C       		.uleb128 0xc
 4304 0961 04       		.byte	0x4
 4305 0962 47090000 		.4byte	0x947
 4306 0966 1D       		.uleb128 0x1d
 4307 0967 1C010000 		.4byte	0x11c
 4308 096b 7A090000 		.4byte	0x97a
 4309 096f 0F       		.uleb128 0xf
 4310 0970 A8030000 		.4byte	0x3a8
 4311 0974 0F       		.uleb128 0xf
 4312 0975 AE000000 		.4byte	0xae
 4313 0979 00       		.byte	0
 4314 097a 0C       		.uleb128 0xc
 4315 097b 04       		.byte	0x4
 4316 097c 66090000 		.4byte	0x966
 4317 0980 1D       		.uleb128 0x1d
 4318 0981 1C010000 		.4byte	0x11c
 4319 0985 8F090000 		.4byte	0x98f
 4320 0989 0F       		.uleb128 0xf
 4321 098a A8030000 		.4byte	0x3a8
 4322 098e 00       		.byte	0
 4323 098f 0C       		.uleb128 0xc
 4324 0990 04       		.byte	0x4
 4325 0991 80090000 		.4byte	0x980
 4326 0995 13       		.uleb128 0x13
 4327 0996 0C       		.byte	0xc
ARM GAS  /var/folders/m4/4md61f0s1_g0rzfghffqnxvr0000gn/T//cchEhHjd.s 			page 77


 4328 0997 11       		.byte	0x11
 4329 0998 6D01     		.2byte	0x16d
 4330 099a D00C0000 		.4byte	.LASF139
 4331 099e E4090000 		.4byte	0x9e4
 4332 09a2 0B       		.uleb128 0xb
 4333 09a3 00060000 		.4byte	.LASF140
 4334 09a7 11       		.byte	0x11
 4335 09a8 6E01     		.2byte	0x16e
 4336 09aa E4090000 		.4byte	0x9e4
 4337 09ae 00       		.byte	0
 4338 09af 0B       		.uleb128 0xb
 4339 09b0 AC120000 		.4byte	.LASF141
 4340 09b4 11       		.byte	0x11
 4341 09b5 6F01     		.2byte	0x16f
 4342 09b7 EA090000 		.4byte	0x9ea
 4343 09bb 04       		.byte	0x4
 4344 09bc 0B       		.uleb128 0xb
 4345 09bd 3F050000 		.4byte	.LASF142
 4346 09c1 11       		.byte	0x11
 4347 09c2 7001     		.2byte	0x170
 4348 09c4 AE000000 		.4byte	0xae
 4349 09c8 08       		.byte	0x8
 4350 09c9 0B       		.uleb128 0xb
 4351 09ca 4E0D0000 		.4byte	.LASF143
 4352 09ce 11       		.byte	0x11
 4353 09cf 7201     		.2byte	0x172
 4354 09d1 AE000000 		.4byte	0xae
 4355 09d5 09       		.byte	0x9
 4356 09d6 0B       		.uleb128 0xb
 4357 09d7 9B0E0000 		.4byte	.LASF144
 4358 09db 11       		.byte	0x11
 4359 09dc 7301     		.2byte	0x173
 4360 09de AE000000 		.4byte	0xae
 4361 09e2 0A       		.byte	0xa
 4362 09e3 00       		.byte	0
 4363 09e4 0C       		.uleb128 0xc
 4364 09e5 04       		.byte	0x4
 4365 09e6 45050000 		.4byte	0x545
 4366 09ea 0C       		.uleb128 0xc
 4367 09eb 04       		.byte	0x4
 4368 09ec E5040000 		.4byte	0x4e5
 4369 09f0 14       		.uleb128 0x14
 4370 09f1 05000000 		.4byte	.LASF145
 4371 09f5 11       		.byte	0x11
 4372 09f6 7401     		.2byte	0x174
 4373 09f8 95090000 		.4byte	0x995
 4374 09fc 1D       		.uleb128 0x1d
 4375 09fd 1C010000 		.4byte	0x11c
 4376 0a01 150A0000 		.4byte	0xa15
 4377 0a05 0F       		.uleb128 0xf
 4378 0a06 A8030000 		.4byte	0x3a8
 4379 0a0a 0F       		.uleb128 0xf
 4380 0a0b AE000000 		.4byte	0xae
 4381 0a0f 0F       		.uleb128 0xf
 4382 0a10 48010000 		.4byte	0x148
 4383 0a14 00       		.byte	0
 4384 0a15 0C       		.uleb128 0xc
ARM GAS  /var/folders/m4/4md61f0s1_g0rzfghffqnxvr0000gn/T//cchEhHjd.s 			page 78


 4385 0a16 04       		.byte	0x4
 4386 0a17 FC090000 		.4byte	0x9fc
 4387 0a1b 1D       		.uleb128 0x1d
 4388 0a1c 1C010000 		.4byte	0x11c
 4389 0a20 2F0A0000 		.4byte	0xa2f
 4390 0a24 0F       		.uleb128 0xf
 4391 0a25 A8030000 		.4byte	0x3a8
 4392 0a29 0F       		.uleb128 0xf
 4393 0a2a 48010000 		.4byte	0x148
 4394 0a2e 00       		.byte	0
 4395 0a2f 0C       		.uleb128 0xc
 4396 0a30 04       		.byte	0x4
 4397 0a31 1B0A0000 		.4byte	0xa1b
 4398 0a35 1D       		.uleb128 0x1d
 4399 0a36 2C000000 		.4byte	0x2c
 4400 0a3a 530A0000 		.4byte	0xa53
 4401 0a3e 0F       		.uleb128 0xf
 4402 0a3f A8030000 		.4byte	0x3a8
 4403 0a43 0F       		.uleb128 0xf
 4404 0a44 36090000 		.4byte	0x936
 4405 0a48 0F       		.uleb128 0xf
 4406 0a49 2C000000 		.4byte	0x2c
 4407 0a4d 0F       		.uleb128 0xf
 4408 0a4e 48010000 		.4byte	0x148
 4409 0a52 00       		.byte	0
 4410 0a53 0C       		.uleb128 0xc
 4411 0a54 04       		.byte	0x4
 4412 0a55 350A0000 		.4byte	0xa35
 4413 0a59 1D       		.uleb128 0x1d
 4414 0a5a 2C000000 		.4byte	0x2c
 4415 0a5e 770A0000 		.4byte	0xa77
 4416 0a62 0F       		.uleb128 0xf
 4417 0a63 A8030000 		.4byte	0x3a8
 4418 0a67 0F       		.uleb128 0xf
 4419 0a68 17090000 		.4byte	0x917
 4420 0a6c 0F       		.uleb128 0xf
 4421 0a6d 2C000000 		.4byte	0x2c
 4422 0a71 0F       		.uleb128 0xf
 4423 0a72 48010000 		.4byte	0x148
 4424 0a76 00       		.byte	0
 4425 0a77 0C       		.uleb128 0xc
 4426 0a78 04       		.byte	0x4
 4427 0a79 590A0000 		.4byte	0xa59
 4428 0a7d 04       		.uleb128 0x4
 4429 0a7e 01       		.byte	0x1
 4430 0a7f 02       		.byte	0x2
 4431 0a80 EB0B0000 		.4byte	.LASF146
 4432 0a84 19       		.uleb128 0x19
 4433 0a85 2C       		.byte	0x2c
 4434 0a86 12       		.byte	0x12
 4435 0a87 DD       		.byte	0xdd
 4436 0a88 04050000 		.4byte	.LASF148
 4437 0a8c 560B0000 		.4byte	0xb56
 4438 0a90 07       		.uleb128 0x7
 4439 0a91 04       		.byte	0x4
 4440 0a92 12       		.byte	0x12
 4441 0a93 E5       		.byte	0xe5
ARM GAS  /var/folders/m4/4md61f0s1_g0rzfghffqnxvr0000gn/T//cchEhHjd.s 			page 79


 4442 0a94 CC0A0000 		.4byte	0xacc
 4443 0a98 1E       		.uleb128 0x1e
 4444 0a99 04       		.byte	0x4
 4445 0a9a 12       		.byte	0x12
 4446 0a9b E7       		.byte	0xe7
 4447 0a9c B90A0000 		.4byte	0xab9
 4448 0aa0 18       		.uleb128 0x18
 4449 0aa1 73657400 		.ascii	"set\000"
 4450 0aa5 12       		.byte	0x12
 4451 0aa6 E8       		.byte	0xe8
 4452 0aa7 B9000000 		.4byte	0xb9
 4453 0aab 00       		.byte	0
 4454 0aac 09       		.uleb128 0x9
 4455 0aad 73070000 		.4byte	.LASF149
 4456 0ab1 12       		.byte	0x12
 4457 0ab2 E9       		.byte	0xe9
 4458 0ab3 B9000000 		.4byte	0xb9
 4459 0ab7 02       		.byte	0x2
 4460 0ab8 00       		.byte	0
 4461 0ab9 1F       		.uleb128 0x1f
 4462 0aba 5700     		.ascii	"W\000"
 4463 0abc 12       		.byte	0x12
 4464 0abd E6       		.byte	0xe6
 4465 0abe CF000000 		.4byte	0xcf
 4466 0ac2 1F       		.uleb128 0x1f
 4467 0ac3 4800     		.ascii	"H\000"
 4468 0ac5 12       		.byte	0x12
 4469 0ac6 EA       		.byte	0xea
 4470 0ac7 980A0000 		.4byte	0xa98
 4471 0acb 00       		.byte	0
 4472 0acc 09       		.uleb128 0x9
 4473 0acd 490A0000 		.4byte	.LASF150
 4474 0ad1 12       		.byte	0x12
 4475 0ad2 DF       		.byte	0xdf
 4476 0ad3 E5040000 		.4byte	0x4e5
 4477 0ad7 00       		.byte	0
 4478 0ad8 09       		.uleb128 0x9
 4479 0ad9 FD0E0000 		.4byte	.LASF151
 4480 0add 12       		.byte	0x12
 4481 0ade E0       		.byte	0xe0
 4482 0adf E5040000 		.4byte	0x4e5
 4483 0ae3 04       		.byte	0x4
 4484 0ae4 09       		.uleb128 0x9
 4485 0ae5 6C080000 		.4byte	.LASF152
 4486 0ae9 12       		.byte	0x12
 4487 0aea E1       		.byte	0xe1
 4488 0aeb E5040000 		.4byte	0x4e5
 4489 0aef 08       		.byte	0x8
 4490 0af0 09       		.uleb128 0x9
 4491 0af1 07020000 		.4byte	.LASF153
 4492 0af5 12       		.byte	0x12
 4493 0af6 E2       		.byte	0xe2
 4494 0af7 E5040000 		.4byte	0x4e5
 4495 0afb 0C       		.byte	0xc
 4496 0afc 18       		.uleb128 0x18
 4497 0afd 49445200 		.ascii	"IDR\000"
 4498 0b01 12       		.byte	0x12
ARM GAS  /var/folders/m4/4md61f0s1_g0rzfghffqnxvr0000gn/T//cchEhHjd.s 			page 80


 4499 0b02 E3       		.byte	0xe3
 4500 0b03 E5040000 		.4byte	0x4e5
 4501 0b07 10       		.byte	0x10
 4502 0b08 18       		.uleb128 0x18
 4503 0b09 4F445200 		.ascii	"ODR\000"
 4504 0b0d 12       		.byte	0x12
 4505 0b0e E4       		.byte	0xe4
 4506 0b0f E5040000 		.4byte	0x4e5
 4507 0b13 14       		.byte	0x14
 4508 0b14 09       		.uleb128 0x9
 4509 0b15 86100000 		.4byte	.LASF154
 4510 0b19 12       		.byte	0x12
 4511 0b1a EB       		.byte	0xeb
 4512 0b1b 200B0000 		.4byte	0xb20
 4513 0b1f 18       		.byte	0x18
 4514 0b20 12       		.uleb128 0x12
 4515 0b21 900A0000 		.4byte	0xa90
 4516 0b25 09       		.uleb128 0x9
 4517 0b26 44080000 		.4byte	.LASF155
 4518 0b2a 12       		.byte	0x12
 4519 0b2b EC       		.byte	0xec
 4520 0b2c E5040000 		.4byte	0x4e5
 4521 0b30 1C       		.byte	0x1c
 4522 0b31 09       		.uleb128 0x9
 4523 0b32 840E0000 		.4byte	.LASF156
 4524 0b36 12       		.byte	0x12
 4525 0b37 ED       		.byte	0xed
 4526 0b38 E5040000 		.4byte	0x4e5
 4527 0b3c 20       		.byte	0x20
 4528 0b3d 09       		.uleb128 0x9
 4529 0b3e 770E0000 		.4byte	.LASF157
 4530 0b42 12       		.byte	0x12
 4531 0b43 EE       		.byte	0xee
 4532 0b44 E5040000 		.4byte	0x4e5
 4533 0b48 24       		.byte	0x24
 4534 0b49 18       		.uleb128 0x18
 4535 0b4a 42525200 		.ascii	"BRR\000"
 4536 0b4e 12       		.byte	0x12
 4537 0b4f EF       		.byte	0xef
 4538 0b50 E5040000 		.4byte	0x4e5
 4539 0b54 28       		.byte	0x28
 4540 0b55 00       		.byte	0
 4541 0b56 03       		.uleb128 0x3
 4542 0b57 4E030000 		.4byte	.LASF158
 4543 0b5b 12       		.byte	0x12
 4544 0b5c F0       		.byte	0xf0
 4545 0b5d 840A0000 		.4byte	0xa84
 4546 0b61 14       		.uleb128 0x14
 4547 0b62 4C060000 		.4byte	.LASF159
 4548 0b66 12       		.byte	0x12
 4549 0b67 3F01     		.2byte	0x13f
 4550 0b69 CF000000 		.4byte	0xcf
 4551 0b6d 14       		.uleb128 0x14
 4552 0b6e 87020000 		.4byte	.LASF160
 4553 0b72 12       		.byte	0x12
 4554 0b73 5101     		.2byte	0x151
 4555 0b75 790B0000 		.4byte	0xb79
ARM GAS  /var/folders/m4/4md61f0s1_g0rzfghffqnxvr0000gn/T//cchEhHjd.s 			page 81


 4556 0b79 0C       		.uleb128 0xc
 4557 0b7a 04       		.byte	0x4
 4558 0b7b 560B0000 		.4byte	0xb56
 4559 0b7f 0C       		.uleb128 0xc
 4560 0b80 04       		.byte	0x4
 4561 0b81 850B0000 		.4byte	0xb85
 4562 0b85 1A       		.uleb128 0x1a
 4563 0b86 F0090000 		.4byte	0x9f0
 4564 0b8a 15       		.uleb128 0x15
 4565 0b8b 01       		.byte	0x1
 4566 0b8c 63000000 		.4byte	0x63
 4567 0b90 13       		.byte	0x13
 4568 0b91 3F       		.byte	0x3f
 4569 0b92 980B0000 		.4byte	.LASF161
 4570 0b96 AD0B0000 		.4byte	0xbad
 4571 0b9a 16       		.uleb128 0x16
 4572 0b9b B8070000 		.4byte	.LASF162
 4573 0b9f 00       		.byte	0
 4574 0ba0 16       		.uleb128 0x16
 4575 0ba1 6A070000 		.4byte	.LASF163
 4576 0ba5 01       		.byte	0x1
 4577 0ba6 16       		.uleb128 0x16
 4578 0ba7 2D090000 		.4byte	.LASF164
 4579 0bab 02       		.byte	0x2
 4580 0bac 00       		.byte	0
 4581 0bad 03       		.uleb128 0x3
 4582 0bae E4020000 		.4byte	.LASF165
 4583 0bb2 13       		.byte	0x13
 4584 0bb3 43       		.byte	0x43
 4585 0bb4 8A0B0000 		.4byte	0xb8a
 4586 0bb8 03       		.uleb128 0x3
 4587 0bb9 74080000 		.4byte	.LASF166
 4588 0bbd 13       		.byte	0x13
 4589 0bbe 48       		.byte	0x48
 4590 0bbf C30B0000 		.4byte	0xbc3
 4591 0bc3 06       		.uleb128 0x6
 4592 0bc4 74080000 		.4byte	.LASF166
 4593 0bc8 08       		.byte	0x8
 4594 0bc9 14       		.byte	0x14
 4595 0bca 73       		.byte	0x73
 4596 0bcb E80B0000 		.4byte	0xbe8
 4597 0bcf 09       		.uleb128 0x9
 4598 0bd0 52010000 		.4byte	.LASF167
 4599 0bd4 14       		.byte	0x14
 4600 0bd5 77       		.byte	0x77
 4601 0bd6 AD0B0000 		.4byte	0xbad
 4602 0bda 00       		.byte	0
 4603 0bdb 09       		.uleb128 0x9
 4604 0bdc 4B010000 		.4byte	.LASF168
 4605 0be0 14       		.byte	0x14
 4606 0be1 7B       		.byte	0x7b
 4607 0be2 7D0C0000 		.4byte	0xc7d
 4608 0be6 04       		.byte	0x4
 4609 0be7 00       		.byte	0
 4610 0be8 03       		.uleb128 0x3
 4611 0be9 4B0F0000 		.4byte	.LASF169
 4612 0bed 14       		.byte	0x14
ARM GAS  /var/folders/m4/4md61f0s1_g0rzfghffqnxvr0000gn/T//cchEhHjd.s 			page 82


 4613 0bee 49       		.byte	0x49
 4614 0bef CF000000 		.4byte	0xcf
 4615 0bf3 03       		.uleb128 0x3
 4616 0bf4 050C0000 		.4byte	.LASF170
 4617 0bf8 14       		.byte	0x14
 4618 0bf9 51       		.byte	0x51
 4619 0bfa FE0B0000 		.4byte	0xbfe
 4620 0bfe 0C       		.uleb128 0xc
 4621 0bff 04       		.byte	0x4
 4622 0c00 040C0000 		.4byte	0xc04
 4623 0c04 0E       		.uleb128 0xe
 4624 0c05 140C0000 		.4byte	0xc14
 4625 0c09 0F       		.uleb128 0xf
 4626 0c0a 140C0000 		.4byte	0xc14
 4627 0c0e 0F       		.uleb128 0xf
 4628 0c0f E80B0000 		.4byte	0xbe8
 4629 0c13 00       		.byte	0
 4630 0c14 0C       		.uleb128 0xc
 4631 0c15 04       		.byte	0x4
 4632 0c16 B80B0000 		.4byte	0xbb8
 4633 0c1a 19       		.uleb128 0x19
 4634 0c1b 08       		.byte	0x8
 4635 0c1c 14       		.byte	0x14
 4636 0c1d 56       		.byte	0x56
 4637 0c1e 70130000 		.4byte	.LASF171
 4638 0c22 3E0C0000 		.4byte	0xc3e
 4639 0c26 09       		.uleb128 0x9
 4640 0c27 F10F0000 		.4byte	.LASF172
 4641 0c2b 14       		.byte	0x14
 4642 0c2c 5A       		.byte	0x5a
 4643 0c2d CF000000 		.4byte	0xcf
 4644 0c31 00       		.byte	0
 4645 0c32 18       		.uleb128 0x18
 4646 0c33 636200   		.ascii	"cb\000"
 4647 0c36 14       		.byte	0x14
 4648 0c37 61       		.byte	0x61
 4649 0c38 F30B0000 		.4byte	0xbf3
 4650 0c3c 04       		.byte	0x4
 4651 0c3d 00       		.byte	0
 4652 0c3e 03       		.uleb128 0x3
 4653 0c3f 7A010000 		.4byte	.LASF173
 4654 0c43 14       		.byte	0x14
 4655 0c44 62       		.byte	0x62
 4656 0c45 1A0C0000 		.4byte	0xc1a
 4657 0c49 19       		.uleb128 0x19
 4658 0c4a B8       		.byte	0xb8
 4659 0c4b 14       		.byte	0x14
 4660 0c4c 68       		.byte	0x68
 4661 0c4d 21020000 		.4byte	.LASF174
 4662 0c51 620C0000 		.4byte	0xc62
 4663 0c55 09       		.uleb128 0x9
 4664 0c56 B70A0000 		.4byte	.LASF175
 4665 0c5a 14       		.byte	0x14
 4666 0c5b 6C       		.byte	0x6c
 4667 0c5c 620C0000 		.4byte	0xc62
 4668 0c60 00       		.byte	0
 4669 0c61 00       		.byte	0
ARM GAS  /var/folders/m4/4md61f0s1_g0rzfghffqnxvr0000gn/T//cchEhHjd.s 			page 83


 4670 0c62 1B       		.uleb128 0x1b
 4671 0c63 3E0C0000 		.4byte	0xc3e
 4672 0c67 720C0000 		.4byte	0xc72
 4673 0c6b 1C       		.uleb128 0x1c
 4674 0c6c DE040000 		.4byte	0x4de
 4675 0c70 16       		.byte	0x16
 4676 0c71 00       		.byte	0
 4677 0c72 03       		.uleb128 0x3
 4678 0c73 E9070000 		.4byte	.LASF176
 4679 0c77 14       		.byte	0x14
 4680 0c78 6E       		.byte	0x6e
 4681 0c79 490C0000 		.4byte	0xc49
 4682 0c7d 0C       		.uleb128 0xc
 4683 0c7e 04       		.byte	0x4
 4684 0c7f 830C0000 		.4byte	0xc83
 4685 0c83 1A       		.uleb128 0x1a
 4686 0c84 720C0000 		.4byte	0xc72
 4687 0c88 15       		.uleb128 0x15
 4688 0c89 01       		.byte	0x1
 4689 0c8a 63000000 		.4byte	0x63
 4690 0c8e 15       		.byte	0x15
 4691 0c8f 46       		.byte	0x46
 4692 0c90 82060000 		.4byte	.LASF177
 4693 0c94 B70C0000 		.4byte	0xcb7
 4694 0c98 16       		.uleb128 0x16
 4695 0c99 46020000 		.4byte	.LASF178
 4696 0c9d 00       		.byte	0
 4697 0c9e 16       		.uleb128 0x16
 4698 0c9f 34020000 		.4byte	.LASF179
 4699 0ca3 01       		.byte	0x1
 4700 0ca4 16       		.uleb128 0x16
 4701 0ca5 FA080000 		.4byte	.LASF180
 4702 0ca9 02       		.byte	0x2
 4703 0caa 16       		.uleb128 0x16
 4704 0cab 9C0A0000 		.4byte	.LASF181
 4705 0caf 03       		.byte	0x3
 4706 0cb0 16       		.uleb128 0x16
 4707 0cb1 91110000 		.4byte	.LASF182
 4708 0cb5 04       		.byte	0x4
 4709 0cb6 00       		.byte	0
 4710 0cb7 03       		.uleb128 0x3
 4711 0cb8 48120000 		.4byte	.LASF183
 4712 0cbc 15       		.byte	0x15
 4713 0cbd 4C       		.byte	0x4c
 4714 0cbe 880C0000 		.4byte	0xc88
 4715 0cc2 14       		.uleb128 0x14
 4716 0cc3 4D050000 		.4byte	.LASF184
 4717 0cc7 16       		.byte	0x16
 4718 0cc8 9601     		.2byte	0x196
 4719 0cca CE0C0000 		.4byte	0xcce
 4720 0cce 0D       		.uleb128 0xd
 4721 0ccf 4D050000 		.4byte	.LASF184
 4722 0cd3 30       		.byte	0x30
 4723 0cd4 16       		.byte	0x16
 4724 0cd5 BA01     		.2byte	0x1ba
 4725 0cd7 510D0000 		.4byte	0xd51
 4726 0cdb 0B       		.uleb128 0xb
ARM GAS  /var/folders/m4/4md61f0s1_g0rzfghffqnxvr0000gn/T//cchEhHjd.s 			page 84


 4727 0cdc 52010000 		.4byte	.LASF167
 4728 0ce0 16       		.byte	0x16
 4729 0ce1 BE01     		.2byte	0x1be
 4730 0ce3 B70C0000 		.4byte	0xcb7
 4731 0ce7 00       		.byte	0
 4732 0ce8 0B       		.uleb128 0xb
 4733 0ce9 4B010000 		.4byte	.LASF168
 4734 0ced 16       		.byte	0x16
 4735 0cee C201     		.2byte	0x1c2
 4736 0cf0 C20D0000 		.4byte	0xdc2
 4737 0cf4 04       		.byte	0x4
 4738 0cf5 0B       		.uleb128 0xb
 4739 0cf6 870F0000 		.4byte	.LASF185
 4740 0cfa 16       		.byte	0x16
 4741 0cfb C701     		.2byte	0x1c7
 4742 0cfd C0020000 		.4byte	0x2c0
 4743 0d01 08       		.byte	0x8
 4744 0d02 0B       		.uleb128 0xb
 4745 0d03 A3090000 		.4byte	.LASF186
 4746 0d07 16       		.byte	0x16
 4747 0d08 CD01     		.2byte	0x1cd
 4748 0d0a 88080000 		.4byte	0x888
 4749 0d0e 0C       		.byte	0xc
 4750 0d0f 0A       		.uleb128 0xa
 4751 0d10 73706900 		.ascii	"spi\000"
 4752 0d14 16       		.byte	0x16
 4753 0d15 D601     		.2byte	0x1d6
 4754 0d17 CD0D0000 		.4byte	0xdcd
 4755 0d1b 1C       		.byte	0x1c
 4756 0d1c 0B       		.uleb128 0xb
 4757 0d1d 89080000 		.4byte	.LASF187
 4758 0d21 16       		.byte	0x16
 4759 0d22 DA01     		.2byte	0x1da
 4760 0d24 7F0B0000 		.4byte	0xb7f
 4761 0d28 20       		.byte	0x20
 4762 0d29 0B       		.uleb128 0xb
 4763 0d2a 430A0000 		.4byte	.LASF188
 4764 0d2e 16       		.byte	0x16
 4765 0d2f DE01     		.2byte	0x1de
 4766 0d31 7F0B0000 		.4byte	0xb7f
 4767 0d35 24       		.byte	0x24
 4768 0d36 0B       		.uleb128 0xb
 4769 0d37 F2090000 		.4byte	.LASF189
 4770 0d3b 16       		.byte	0x16
 4771 0d3c E201     		.2byte	0x1e2
 4772 0d3e CF000000 		.4byte	0xcf
 4773 0d42 28       		.byte	0x28
 4774 0d43 0B       		.uleb128 0xb
 4775 0d44 8F130000 		.4byte	.LASF190
 4776 0d48 16       		.byte	0x16
 4777 0d49 E601     		.2byte	0x1e6
 4778 0d4b CF000000 		.4byte	0xcf
 4779 0d4f 2C       		.byte	0x2c
 4780 0d50 00       		.byte	0
 4781 0d51 14       		.uleb128 0x14
 4782 0d52 5B030000 		.4byte	.LASF191
 4783 0d56 16       		.byte	0x16
ARM GAS  /var/folders/m4/4md61f0s1_g0rzfghffqnxvr0000gn/T//cchEhHjd.s 			page 85


 4784 0d57 9E01     		.2byte	0x19e
 4785 0d59 5D0D0000 		.4byte	0xd5d
 4786 0d5d 0C       		.uleb128 0xc
 4787 0d5e 04       		.byte	0x4
 4788 0d5f 630D0000 		.4byte	0xd63
 4789 0d63 0E       		.uleb128 0xe
 4790 0d64 6E0D0000 		.4byte	0xd6e
 4791 0d68 0F       		.uleb128 0xf
 4792 0d69 6E0D0000 		.4byte	0xd6e
 4793 0d6d 00       		.byte	0
 4794 0d6e 0C       		.uleb128 0xc
 4795 0d6f 04       		.byte	0x4
 4796 0d70 C20C0000 		.4byte	0xcc2
 4797 0d74 13       		.uleb128 0x13
 4798 0d75 0C       		.byte	0xc
 4799 0d76 16       		.byte	0x16
 4800 0d77 A301     		.2byte	0x1a3
 4801 0d79 78120000 		.4byte	.LASF192
 4802 0d7d B60D0000 		.4byte	0xdb6
 4803 0d81 0B       		.uleb128 0xb
 4804 0d82 BC010000 		.4byte	.LASF193
 4805 0d86 16       		.byte	0x16
 4806 0d87 A701     		.2byte	0x1a7
 4807 0d89 510D0000 		.4byte	0xd51
 4808 0d8d 00       		.byte	0
 4809 0d8e 0B       		.uleb128 0xb
 4810 0d8f F8000000 		.4byte	.LASF194
 4811 0d93 16       		.byte	0x16
 4812 0d94 AC01     		.2byte	0x1ac
 4813 0d96 6D0B0000 		.4byte	0xb6d
 4814 0d9a 04       		.byte	0x4
 4815 0d9b 0B       		.uleb128 0xb
 4816 0d9c B1120000 		.4byte	.LASF195
 4817 0da0 16       		.byte	0x16
 4818 0da1 B001     		.2byte	0x1b0
 4819 0da3 B9000000 		.4byte	0xb9
 4820 0da7 08       		.byte	0x8
 4821 0da8 0A       		.uleb128 0xa
 4822 0da9 63723100 		.ascii	"cr1\000"
 4823 0dad 16       		.byte	0x16
 4824 0dae B401     		.2byte	0x1b4
 4825 0db0 B9000000 		.4byte	0xb9
 4826 0db4 0A       		.byte	0xa
 4827 0db5 00       		.byte	0
 4828 0db6 14       		.uleb128 0x14
 4829 0db7 860A0000 		.4byte	.LASF196
 4830 0dbb 16       		.byte	0x16
 4831 0dbc B501     		.2byte	0x1b5
 4832 0dbe 740D0000 		.4byte	0xd74
 4833 0dc2 0C       		.uleb128 0xc
 4834 0dc3 04       		.byte	0x4
 4835 0dc4 C80D0000 		.4byte	0xdc8
 4836 0dc8 1A       		.uleb128 0x1a
 4837 0dc9 B60D0000 		.4byte	0xdb6
 4838 0dcd 0C       		.uleb128 0xc
 4839 0dce 04       		.byte	0x4
 4840 0dcf D2050000 		.4byte	0x5d2
ARM GAS  /var/folders/m4/4md61f0s1_g0rzfghffqnxvr0000gn/T//cchEhHjd.s 			page 86


 4841 0dd3 19       		.uleb128 0x19
 4842 0dd4 0C       		.byte	0xc
 4843 0dd5 17       		.byte	0x17
 4844 0dd6 65       		.byte	0x65
 4845 0dd7 A3050000 		.4byte	.LASF197
 4846 0ddb 040E0000 		.4byte	0xe04
 4847 0ddf 09       		.uleb128 0x9
 4848 0de0 FC090000 		.4byte	.LASF198
 4849 0de4 17       		.byte	0x17
 4850 0de5 66       		.byte	0x66
 4851 0de6 6E0D0000 		.4byte	0xd6e
 4852 0dea 00       		.byte	0
 4853 0deb 09       		.uleb128 0x9
 4854 0dec DF0A0000 		.4byte	.LASF199
 4855 0df0 17       		.byte	0x17
 4856 0df1 67       		.byte	0x67
 4857 0df2 6D0B0000 		.4byte	0xb6d
 4858 0df6 04       		.byte	0x4
 4859 0df7 09       		.uleb128 0x9
 4860 0df8 5E0B0000 		.4byte	.LASF200
 4861 0dfc 17       		.byte	0x17
 4862 0dfd 68       		.byte	0x68
 4863 0dfe B9000000 		.4byte	0xb9
 4864 0e02 08       		.byte	0x8
 4865 0e03 00       		.byte	0
 4866 0e04 03       		.uleb128 0x3
 4867 0e05 D7050000 		.4byte	.LASF201
 4868 0e09 17       		.byte	0x17
 4869 0e0a 69       		.byte	0x69
 4870 0e0b D30D0000 		.4byte	0xdd3
 4871 0e0f 06       		.uleb128 0x6
 4872 0e10 8B050000 		.4byte	.LASF202
 4873 0e14 20       		.byte	0x20
 4874 0e15 17       		.byte	0x17
 4875 0e16 6B       		.byte	0x6b
 4876 0e17 7C0E0000 		.4byte	0xe7c
 4877 0e1b 09       		.uleb128 0x9
 4878 0e1c 17010000 		.4byte	.LASF203
 4879 0e20 17       		.byte	0x17
 4880 0e21 6D       		.byte	0x6d
 4881 0e22 41090000 		.4byte	0x941
 4882 0e26 00       		.byte	0
 4883 0e27 09       		.uleb128 0x9
 4884 0e28 570A0000 		.4byte	.LASF204
 4885 0e2c 17       		.byte	0x17
 4886 0e2d 6D       		.byte	0x6d
 4887 0e2e 60090000 		.4byte	0x960
 4888 0e32 04       		.byte	0x4
 4889 0e33 18       		.uleb128 0x18
 4890 0e34 70757400 		.ascii	"put\000"
 4891 0e38 17       		.byte	0x17
 4892 0e39 6D       		.byte	0x6d
 4893 0e3a 7A090000 		.4byte	0x97a
 4894 0e3e 08       		.byte	0x8
 4895 0e3f 18       		.uleb128 0x18
 4896 0e40 67657400 		.ascii	"get\000"
 4897 0e44 17       		.byte	0x17
ARM GAS  /var/folders/m4/4md61f0s1_g0rzfghffqnxvr0000gn/T//cchEhHjd.s 			page 87


 4898 0e45 6D       		.byte	0x6d
 4899 0e46 8F090000 		.4byte	0x98f
 4900 0e4a 0C       		.byte	0xc
 4901 0e4b 09       		.uleb128 0x9
 4902 0e4c 58010000 		.4byte	.LASF205
 4903 0e50 17       		.byte	0x17
 4904 0e51 6D       		.byte	0x6d
 4905 0e52 150A0000 		.4byte	0xa15
 4906 0e56 10       		.byte	0x10
 4907 0e57 09       		.uleb128 0x9
 4908 0e58 9E050000 		.4byte	.LASF206
 4909 0e5c 17       		.byte	0x17
 4910 0e5d 6D       		.byte	0x6d
 4911 0e5e 2F0A0000 		.4byte	0xa2f
 4912 0e62 14       		.byte	0x14
 4913 0e63 09       		.uleb128 0x9
 4914 0e64 A3000000 		.4byte	.LASF207
 4915 0e68 17       		.byte	0x17
 4916 0e69 6D       		.byte	0x6d
 4917 0e6a 530A0000 		.4byte	0xa53
 4918 0e6e 18       		.byte	0x18
 4919 0e6f 09       		.uleb128 0x9
 4920 0e70 0D020000 		.4byte	.LASF208
 4921 0e74 17       		.byte	0x17
 4922 0e75 6D       		.byte	0x6d
 4923 0e76 770A0000 		.4byte	0xa77
 4924 0e7a 1C       		.byte	0x1c
 4925 0e7b 00       		.byte	0
 4926 0e7c 06       		.uleb128 0x6
 4927 0e7d 090F0000 		.4byte	.LASF209
 4928 0e81 30       		.byte	0x30
 4929 0e82 17       		.byte	0x17
 4930 0e83 70       		.byte	0x70
 4931 0e84 C50E0000 		.4byte	0xec5
 4932 0e88 18       		.uleb128 0x18
 4933 0e89 766D7400 		.ascii	"vmt\000"
 4934 0e8d 17       		.byte	0x17
 4935 0e8e 72       		.byte	0x72
 4936 0e8f C50E0000 		.4byte	0xec5
 4937 0e93 00       		.byte	0
 4938 0e94 09       		.uleb128 0x9
 4939 0e95 5A0E0000 		.4byte	.LASF210
 4940 0e99 17       		.byte	0x17
 4941 0e9a 73       		.byte	0x73
 4942 0e9b 040F0000 		.4byte	0xf04
 4943 0e9f 04       		.byte	0x4
 4944 0ea0 09       		.uleb128 0x9
 4945 0ea1 95000000 		.4byte	.LASF211
 4946 0ea5 17       		.byte	0x17
 4947 0ea6 74       		.byte	0x74
 4948 0ea7 0A0F0000 		.4byte	0xf0a
 4949 0eab 08       		.byte	0x8
 4950 0eac 09       		.uleb128 0x9
 4951 0ead 7E080000 		.4byte	.LASF212
 4952 0eb1 17       		.byte	0x17
 4953 0eb2 75       		.byte	0x75
 4954 0eb3 AE000000 		.4byte	0xae
ARM GAS  /var/folders/m4/4md61f0s1_g0rzfghffqnxvr0000gn/T//cchEhHjd.s 			page 88


 4955 0eb7 28       		.byte	0x28
 4956 0eb8 09       		.uleb128 0x9
 4957 0eb9 380A0000 		.4byte	.LASF213
 4958 0ebd 17       		.byte	0x17
 4959 0ebe 76       		.byte	0x76
 4960 0ebf 0C090000 		.4byte	0x90c
 4961 0ec3 2C       		.byte	0x2c
 4962 0ec4 00       		.byte	0
 4963 0ec5 0C       		.uleb128 0xc
 4964 0ec6 04       		.byte	0x4
 4965 0ec7 CB0E0000 		.4byte	0xecb
 4966 0ecb 1A       		.uleb128 0x1a
 4967 0ecc 0F0E0000 		.4byte	0xe0f
 4968 0ed0 20       		.uleb128 0x20
 4969 0ed1 FF000000 		.4byte	.LASF214
 4970 0ed5 2801     		.2byte	0x128
 4971 0ed7 17       		.byte	0x17
 4972 0ed8 79       		.byte	0x79
 4973 0ed9 040F0000 		.4byte	0xf04
 4974 0edd 09       		.uleb128 0x9
 4975 0ede B70A0000 		.4byte	.LASF175
 4976 0ee2 17       		.byte	0x17
 4977 0ee3 7B       		.byte	0x7b
 4978 0ee4 1A0F0000 		.4byte	0xf1a
 4979 0ee8 00       		.byte	0
 4980 0ee9 21       		.uleb128 0x21
 4981 0eea CE130000 		.4byte	.LASF215
 4982 0eee 17       		.byte	0x17
 4983 0eef 7C       		.byte	0x7c
 4984 0ef0 0C090000 		.4byte	0x90c
 4985 0ef4 2001     		.2byte	0x120
 4986 0ef6 21       		.uleb128 0x21
 4987 0ef7 4B010000 		.4byte	.LASF168
 4988 0efb 17       		.byte	0x17
 4989 0efc 7D       		.byte	0x7d
 4990 0efd 2A0F0000 		.4byte	0xf2a
 4991 0f01 2401     		.2byte	0x124
 4992 0f03 00       		.byte	0
 4993 0f04 0C       		.uleb128 0xc
 4994 0f05 04       		.byte	0x4
 4995 0f06 D00E0000 		.4byte	0xed0
 4996 0f0a 1B       		.uleb128 0x1b
 4997 0f0b 63000000 		.4byte	0x63
 4998 0f0f 1A0F0000 		.4byte	0xf1a
 4999 0f13 1C       		.uleb128 0x1c
 5000 0f14 DE040000 		.4byte	0x4de
 5001 0f18 1F       		.byte	0x1f
 5002 0f19 00       		.byte	0
 5003 0f1a 1B       		.uleb128 0x1b
 5004 0f1b 7C0E0000 		.4byte	0xe7c
 5005 0f1f 2A0F0000 		.4byte	0xf2a
 5006 0f23 1C       		.uleb128 0x1c
 5007 0f24 DE040000 		.4byte	0x4de
 5008 0f28 05       		.byte	0x5
 5009 0f29 00       		.byte	0
 5010 0f2a 0C       		.uleb128 0xc
 5011 0f2b 04       		.byte	0x4
ARM GAS  /var/folders/m4/4md61f0s1_g0rzfghffqnxvr0000gn/T//cchEhHjd.s 			page 89


 5012 0f2c 300F0000 		.4byte	0xf30
 5013 0f30 1A       		.uleb128 0x1a
 5014 0f31 040E0000 		.4byte	0xe04
 5015 0f35 03       		.uleb128 0x3
 5016 0f36 FF000000 		.4byte	.LASF214
 5017 0f3a 17       		.byte	0x17
 5018 0f3b 80       		.byte	0x80
 5019 0f3c D00E0000 		.4byte	0xed0
 5020 0f40 22       		.uleb128 0x22
 5021 0f41 B90E0000 		.4byte	.LASF220
 5022 0f45 02       		.byte	0x2
 5023 0f46 2202     		.2byte	0x222
 5024 0f48 03       		.byte	0x3
 5025 0f49 5A0F0000 		.4byte	0xf5a
 5026 0f4d 23       		.uleb128 0x23
 5027 0f4e 13050000 		.4byte	.LASF222
 5028 0f52 02       		.byte	0x2
 5029 0f53 2202     		.2byte	0x222
 5030 0f55 CF000000 		.4byte	0xcf
 5031 0f59 00       		.byte	0
 5032 0f5a 24       		.uleb128 0x24
 5033 0f5b 930F0000 		.4byte	.LASF216
 5034 0f5f 0D       		.byte	0xd
 5035 0f60 C801     		.2byte	0x1c8
 5036 0f62 03       		.byte	0x3
 5037 0f63 24       		.uleb128 0x24
 5038 0f64 58020000 		.4byte	.LASF217
 5039 0f68 0D       		.byte	0xd
 5040 0f69 E001     		.2byte	0x1e0
 5041 0f6b 03       		.byte	0x3
 5042 0f6c 24       		.uleb128 0x24
 5043 0f6d 1A090000 		.4byte	.LASF218
 5044 0f71 0D       		.byte	0xd
 5045 0f72 EF01     		.2byte	0x1ef
 5046 0f74 03       		.byte	0x3
 5047 0f75 24       		.uleb128 0x24
 5048 0f76 920C0000 		.4byte	.LASF219
 5049 0f7a 0D       		.byte	0xd
 5050 0f7b FA01     		.2byte	0x1fa
 5051 0f7d 03       		.byte	0x3
 5052 0f7e 25       		.uleb128 0x25
 5053 0f7f 2F050000 		.4byte	.LASF221
 5054 0f83 03       		.byte	0x3
 5055 0f84 AA       		.byte	0xaa
 5056 0f85 03       		.byte	0x3
 5057 0f86 960F0000 		.4byte	0xf96
 5058 0f8a 26       		.uleb128 0x26
 5059 0f8b 65737000 		.ascii	"esp\000"
 5060 0f8f 03       		.byte	0x3
 5061 0f90 AA       		.byte	0xaa
 5062 0f91 960F0000 		.4byte	0xf96
 5063 0f95 00       		.byte	0
 5064 0f96 0C       		.uleb128 0xc
 5065 0f97 04       		.byte	0x4
 5066 0f98 0C090000 		.4byte	0x90c
 5067 0f9c 27       		.uleb128 0x27
 5068 0f9d BA090000 		.4byte	.LASF225
ARM GAS  /var/folders/m4/4md61f0s1_g0rzfghffqnxvr0000gn/T//cchEhHjd.s 			page 90


 5069 0fa1 01       		.byte	0x1
 5070 0fa2 9C01     		.2byte	0x19c
 5071 0fa4 AA000000 		.4byte	.LASF227
 5072 0fa8 01       		.byte	0x1
 5073 0fa9 D20F0000 		.4byte	0xfd2
 5074 0fad 23       		.uleb128 0x23
 5075 0fae 5A0E0000 		.4byte	.LASF210
 5076 0fb2 01       		.byte	0x1
 5077 0fb3 9C01     		.2byte	0x19c
 5078 0fb5 D20F0000 		.4byte	0xfd2
 5079 0fb9 23       		.uleb128 0x23
 5080 0fba 86090000 		.4byte	.LASF223
 5081 0fbe 01       		.byte	0x1
 5082 0fbf 9C01     		.2byte	0x19c
 5083 0fc1 AE000000 		.4byte	0xae
 5084 0fc5 23       		.uleb128 0x23
 5085 0fc6 3E0A0000 		.4byte	.LASF224
 5086 0fca 01       		.byte	0x1
 5087 0fcb 9C01     		.2byte	0x19c
 5088 0fcd 36090000 		.4byte	0x936
 5089 0fd1 00       		.byte	0
 5090 0fd2 0C       		.uleb128 0xc
 5091 0fd3 04       		.byte	0x4
 5092 0fd4 350F0000 		.4byte	0xf35
 5093 0fd8 27       		.uleb128 0x27
 5094 0fd9 F0010000 		.4byte	.LASF226
 5095 0fdd 01       		.byte	0x1
 5096 0fde AB01     		.2byte	0x1ab
 5097 0fe0 B7120000 		.4byte	.LASF228
 5098 0fe4 01       		.byte	0x1
 5099 0fe5 0E100000 		.4byte	0x100e
 5100 0fe9 23       		.uleb128 0x23
 5101 0fea 5A0E0000 		.4byte	.LASF210
 5102 0fee 01       		.byte	0x1
 5103 0fef AB01     		.2byte	0x1ab
 5104 0ff1 D20F0000 		.4byte	0xfd2
 5105 0ff5 23       		.uleb128 0x23
 5106 0ff6 86090000 		.4byte	.LASF223
 5107 0ffa 01       		.byte	0x1
 5108 0ffb AB01     		.2byte	0x1ab
 5109 0ffd AE000000 		.4byte	0xae
 5110 1001 23       		.uleb128 0x23
 5111 1002 830D0000 		.4byte	.LASF229
 5112 1006 01       		.byte	0x1
 5113 1007 AB01     		.2byte	0x1ab
 5114 1009 AE000000 		.4byte	0xae
 5115 100d 00       		.byte	0
 5116 100e 27       		.uleb128 0x27
 5117 100f 31000000 		.4byte	.LASF230
 5118 1013 01       		.byte	0x1
 5119 1014 DF01     		.2byte	0x1df
 5120 1016 52110000 		.4byte	.LASF231
 5121 101a 01       		.byte	0x1
 5122 101b 67100000 		.4byte	0x1067
 5123 101f 23       		.uleb128 0x23
 5124 1020 5A0E0000 		.4byte	.LASF210
 5125 1024 01       		.byte	0x1
ARM GAS  /var/folders/m4/4md61f0s1_g0rzfghffqnxvr0000gn/T//cchEhHjd.s 			page 91


 5126 1025 DF01     		.2byte	0x1df
 5127 1027 D20F0000 		.4byte	0xfd2
 5128 102b 23       		.uleb128 0x23
 5129 102c 830D0000 		.4byte	.LASF229
 5130 1030 01       		.byte	0x1
 5131 1031 DF01     		.2byte	0x1df
 5132 1033 AE000000 		.4byte	0xae
 5133 1037 23       		.uleb128 0x23
 5134 1038 64130000 		.4byte	.LASF232
 5135 103c 01       		.byte	0x1
 5136 103d DF01     		.2byte	0x1df
 5137 103f 17090000 		.4byte	0x917
 5138 1043 23       		.uleb128 0x23
 5139 1044 86090000 		.4byte	.LASF223
 5140 1048 01       		.byte	0x1
 5141 1049 DF01     		.2byte	0x1df
 5142 104b 17090000 		.4byte	0x917
 5143 104f 28       		.uleb128 0x28
 5144 1050 6F7000   		.ascii	"op\000"
 5145 1053 01       		.byte	0x1
 5146 1054 E401     		.2byte	0x1e4
 5147 1056 AE000000 		.4byte	0xae
 5148 105a 29       		.uleb128 0x29
 5149 105b D5070000 		.4byte	.LASF233
 5150 105f 01       		.byte	0x1
 5151 1060 E501     		.2byte	0x1e5
 5152 1062 AE000000 		.4byte	0xae
 5153 1066 00       		.byte	0
 5154 1067 27       		.uleb128 0x27
 5155 1068 B2110000 		.4byte	.LASF234
 5156 106c 01       		.byte	0x1
 5157 106d EF01     		.2byte	0x1ef
 5158 106f EC100000 		.4byte	.LASF235
 5159 1073 01       		.byte	0x1
 5160 1074 A8100000 		.4byte	0x10a8
 5161 1078 23       		.uleb128 0x23
 5162 1079 5A0E0000 		.4byte	.LASF210
 5163 107d 01       		.byte	0x1
 5164 107e EF01     		.2byte	0x1ef
 5165 1080 D20F0000 		.4byte	0xfd2
 5166 1084 23       		.uleb128 0x23
 5167 1085 830D0000 		.4byte	.LASF229
 5168 1089 01       		.byte	0x1
 5169 108a EF01     		.2byte	0x1ef
 5170 108c AE000000 		.4byte	0xae
 5171 1090 23       		.uleb128 0x23
 5172 1091 64130000 		.4byte	.LASF232
 5173 1095 01       		.byte	0x1
 5174 1096 EF01     		.2byte	0x1ef
 5175 1098 36090000 		.4byte	0x936
 5176 109c 28       		.uleb128 0x28
 5177 109d 6F7000   		.ascii	"op\000"
 5178 10a0 01       		.byte	0x1
 5179 10a1 F401     		.2byte	0x1f4
 5180 10a3 AE000000 		.4byte	0xae
 5181 10a7 00       		.byte	0
 5182 10a8 27       		.uleb128 0x27
ARM GAS  /var/folders/m4/4md61f0s1_g0rzfghffqnxvr0000gn/T//cchEhHjd.s 			page 92


 5183 10a9 A9090000 		.4byte	.LASF236
 5184 10ad 01       		.byte	0x1
 5185 10ae 9701     		.2byte	0x197
 5186 10b0 FF0F0000 		.4byte	.LASF237
 5187 10b4 01       		.byte	0x1
 5188 10b5 D2100000 		.4byte	0x10d2
 5189 10b9 23       		.uleb128 0x23
 5190 10ba 5A0E0000 		.4byte	.LASF210
 5191 10be 01       		.byte	0x1
 5192 10bf 9701     		.2byte	0x197
 5193 10c1 D20F0000 		.4byte	0xfd2
 5194 10c5 2A       		.uleb128 0x2a
 5195 10c6 69727100 		.ascii	"irq\000"
 5196 10ca 01       		.byte	0x1
 5197 10cb 9701     		.2byte	0x197
 5198 10cd AE000000 		.4byte	0xae
 5199 10d1 00       		.byte	0
 5200 10d2 27       		.uleb128 0x27
 5201 10d3 C9050000 		.4byte	.LASF238
 5202 10d7 01       		.byte	0x1
 5203 10d8 4301     		.2byte	0x143
 5204 10da AB030000 		.4byte	.LASF239
 5205 10de 01       		.byte	0x1
 5206 10df FC100000 		.4byte	0x10fc
 5207 10e3 23       		.uleb128 0x23
 5208 10e4 5A0E0000 		.4byte	.LASF210
 5209 10e8 01       		.byte	0x1
 5210 10e9 4301     		.2byte	0x143
 5211 10eb D20F0000 		.4byte	0xfd2
 5212 10ef 23       		.uleb128 0x23
 5213 10f0 4B010000 		.4byte	.LASF168
 5214 10f4 01       		.byte	0x1
 5215 10f5 4301     		.2byte	0x143
 5216 10f7 2A0F0000 		.4byte	0xf2a
 5217 10fb 00       		.byte	0
 5218 10fc 27       		.uleb128 0x27
 5219 10fd CB020000 		.4byte	.LASF240
 5220 1101 01       		.byte	0x1
 5221 1102 3601     		.2byte	0x136
 5222 1104 C70E0000 		.4byte	.LASF241
 5223 1108 01       		.byte	0x1
 5224 1109 26110000 		.4byte	0x1126
 5225 110d 23       		.uleb128 0x23
 5226 110e 5A0E0000 		.4byte	.LASF210
 5227 1112 01       		.byte	0x1
 5228 1113 3601     		.2byte	0x136
 5229 1115 D20F0000 		.4byte	0xfd2
 5230 1119 2B       		.uleb128 0x2b
 5231 111a 28       		.uleb128 0x28
 5232 111b 6900     		.ascii	"i\000"
 5233 111d 01       		.byte	0x1
 5234 111e 3801     		.2byte	0x138
 5235 1120 25000000 		.4byte	0x25
 5236 1124 00       		.byte	0
 5237 1125 00       		.byte	0
 5238 1126 25       		.uleb128 0x25
 5239 1127 F2110000 		.4byte	.LASF242
ARM GAS  /var/folders/m4/4md61f0s1_g0rzfghffqnxvr0000gn/T//cchEhHjd.s 			page 93


 5240 112b 03       		.byte	0x3
 5241 112c BD       		.byte	0xbd
 5242 112d 03       		.byte	0x3
 5243 112e 54110000 		.4byte	0x1154
 5244 1132 26       		.uleb128 0x26
 5245 1133 65737000 		.ascii	"esp\000"
 5246 1137 03       		.byte	0x3
 5247 1138 BD       		.byte	0xbd
 5248 1139 960F0000 		.4byte	0xf96
 5249 113d 26       		.uleb128 0x26
 5250 113e 656C7000 		.ascii	"elp\000"
 5251 1142 03       		.byte	0x3
 5252 1143 BE       		.byte	0xbe
 5253 1144 ED080000 		.4byte	0x8ed
 5254 1148 2C       		.uleb128 0x2c
 5255 1149 30100000 		.4byte	.LASF243
 5256 114d 03       		.byte	0x3
 5257 114e BF       		.byte	0xbf
 5258 114f 27010000 		.4byte	0x127
 5259 1153 00       		.byte	0
 5260 1154 2D       		.uleb128 0x2d
 5261 1155 8B100000 		.4byte	.LASF333
 5262 1159 01       		.byte	0x1
 5263 115a B301     		.2byte	0x1b3
 5264 115c 580D0000 		.4byte	.LASF276
 5265 1160 AE000000 		.4byte	0xae
 5266 1164 01       		.byte	0x1
 5267 1165 76110000 		.4byte	0x1176
 5268 1169 23       		.uleb128 0x23
 5269 116a 5A0E0000 		.4byte	.LASF210
 5270 116e 01       		.byte	0x1
 5271 116f B301     		.2byte	0x1b3
 5272 1171 D20F0000 		.4byte	0xfd2
 5273 1175 00       		.byte	0
 5274 1176 27       		.uleb128 0x27
 5275 1177 6D060000 		.4byte	.LASF244
 5276 117b 01       		.byte	0x1
 5277 117c 3902     		.2byte	0x239
 5278 117e 9A080000 		.4byte	.LASF245
 5279 1182 01       		.byte	0x1
 5280 1183 94110000 		.4byte	0x1194
 5281 1187 23       		.uleb128 0x23
 5282 1188 5A0E0000 		.4byte	.LASF210
 5283 118c 01       		.byte	0x1
 5284 118d 3902     		.2byte	0x239
 5285 118f D20F0000 		.4byte	0xfd2
 5286 1193 00       		.byte	0
 5287 1194 2E       		.uleb128 0x2e
 5288 1195 9E050000 		.4byte	.LASF206
 5289 1199 01       		.byte	0x1
 5290 119a FE       		.byte	0xfe
 5291 119b 1C010000 		.4byte	0x11c
 5292 119f 01       		.byte	0x1
 5293 11a0 FF110000 		.4byte	0x11ff
 5294 11a4 2C       		.uleb128 0x2c
 5295 11a5 0E010000 		.4byte	.LASF246
 5296 11a9 01       		.byte	0x1
ARM GAS  /var/folders/m4/4md61f0s1_g0rzfghffqnxvr0000gn/T//cchEhHjd.s 			page 94


 5297 11aa FE       		.byte	0xfe
 5298 11ab A8030000 		.4byte	0x3a8
 5299 11af 2C       		.uleb128 0x2c
 5300 11b0 040F0000 		.4byte	.LASF247
 5301 11b4 01       		.byte	0x1
 5302 11b5 FE       		.byte	0xfe
 5303 11b6 48010000 		.4byte	0x148
 5304 11ba 29       		.uleb128 0x29
 5305 11bb 5A0E0000 		.4byte	.LASF210
 5306 11bf 01       		.byte	0x1
 5307 11c0 0001     		.2byte	0x100
 5308 11c2 D20F0000 		.4byte	0xfd2
 5309 11c6 28       		.uleb128 0x28
 5310 11c7 63687000 		.ascii	"chp\000"
 5311 11cb 01       		.byte	0x1
 5312 11cc 0101     		.2byte	0x101
 5313 11ce FF110000 		.4byte	0x11ff
 5314 11d2 2F       		.uleb128 0x2f
 5315 11d3 E2110000 		.4byte	0x11e2
 5316 11d7 28       		.uleb128 0x28
 5317 11d8 6900     		.ascii	"i\000"
 5318 11da 01       		.byte	0x1
 5319 11db 0301     		.2byte	0x103
 5320 11dd 25000000 		.4byte	0x25
 5321 11e1 00       		.byte	0
 5322 11e2 2F       		.uleb128 0x2f
 5323 11e3 F2110000 		.4byte	0x11f2
 5324 11e7 28       		.uleb128 0x28
 5325 11e8 6200     		.ascii	"b\000"
 5326 11ea 01       		.byte	0x1
 5327 11eb 1101     		.2byte	0x111
 5328 11ed AE000000 		.4byte	0xae
 5329 11f1 00       		.byte	0
 5330 11f2 2B       		.uleb128 0x2b
 5331 11f3 28       		.uleb128 0x28
 5332 11f4 6200     		.ascii	"b\000"
 5333 11f6 01       		.byte	0x1
 5334 11f7 1701     		.2byte	0x117
 5335 11f9 AE000000 		.4byte	0xae
 5336 11fd 00       		.byte	0
 5337 11fe 00       		.byte	0
 5338 11ff 0C       		.uleb128 0xc
 5339 1200 04       		.byte	0x4
 5340 1201 7C0E0000 		.4byte	0xe7c
 5341 1205 2E       		.uleb128 0x2e
 5342 1206 58010000 		.4byte	.LASF205
 5343 120a 01       		.byte	0x1
 5344 120b F7       		.byte	0xf7
 5345 120c 1C010000 		.4byte	0x11c
 5346 1210 01       		.byte	0x1
 5347 1211 35120000 		.4byte	0x1235
 5348 1215 2C       		.uleb128 0x2c
 5349 1216 0E010000 		.4byte	.LASF246
 5350 121a 01       		.byte	0x1
 5351 121b F7       		.byte	0xf7
 5352 121c A8030000 		.4byte	0x3a8
 5353 1220 26       		.uleb128 0x26
ARM GAS  /var/folders/m4/4md61f0s1_g0rzfghffqnxvr0000gn/T//cchEhHjd.s 			page 95


 5354 1221 6200     		.ascii	"b\000"
 5355 1223 01       		.byte	0x1
 5356 1224 F7       		.byte	0xf7
 5357 1225 AE000000 		.4byte	0xae
 5358 1229 2C       		.uleb128 0x2c
 5359 122a 040F0000 		.4byte	.LASF247
 5360 122e 01       		.byte	0x1
 5361 122f F7       		.byte	0xf7
 5362 1230 48010000 		.4byte	0x148
 5363 1234 00       		.byte	0
 5364 1235 24       		.uleb128 0x24
 5365 1236 2D030000 		.4byte	.LASF248
 5366 123a 18       		.byte	0x18
 5367 123b 9601     		.2byte	0x196
 5368 123d 03       		.byte	0x3
 5369 123e 24       		.uleb128 0x24
 5370 123f 6B020000 		.4byte	.LASF249
 5371 1243 18       		.byte	0x18
 5372 1244 8201     		.2byte	0x182
 5373 1246 03       		.byte	0x3
 5374 1247 27       		.uleb128 0x27
 5375 1248 73030000 		.4byte	.LASF250
 5376 124c 01       		.byte	0x1
 5377 124d 4502     		.2byte	0x245
 5378 124f 83120000 		.4byte	.LASF251
 5379 1253 01       		.byte	0x1
 5380 1254 65120000 		.4byte	0x1265
 5381 1258 23       		.uleb128 0x23
 5382 1259 5A0E0000 		.4byte	.LASF210
 5383 125d 01       		.byte	0x1
 5384 125e 4502     		.2byte	0x245
 5385 1260 D20F0000 		.4byte	0xfd2
 5386 1264 00       		.byte	0
 5387 1265 30       		.uleb128 0x30
 5388 1266 E3090000 		.4byte	.LASF334
 5389 126a 01       		.byte	0x1
 5390 126b 18       		.byte	0x18
 5391 126c 00000000 		.4byte	.LFB268
 5392 1270 1C000000 		.4byte	.LFE268-.LFB268
 5393 1274 01       		.uleb128 0x1
 5394 1275 9C       		.byte	0x9c
 5395 1276 6C130000 		.4byte	0x136c
 5396 127a 31       		.uleb128 0x31
 5397 127b DE010000 		.4byte	.LASF252
 5398 127f 01       		.byte	0x1
 5399 1280 18       		.byte	0x18
 5400 1281 140C0000 		.4byte	0xc14
 5401 1285 00000000 		.4byte	.LLST0
 5402 1289 31       		.uleb128 0x31
 5403 128a 49080000 		.4byte	.LASF253
 5404 128e 01       		.byte	0x1
 5405 128f 18       		.byte	0x18
 5406 1290 E80B0000 		.4byte	0xbe8
 5407 1294 21000000 		.4byte	.LLST1
 5408 1298 32       		.uleb128 0x32
 5409 1299 47120000 		.4byte	0x1247
 5410 129d 02000000 		.4byte	.LBB117
ARM GAS  /var/folders/m4/4md61f0s1_g0rzfghffqnxvr0000gn/T//cchEhHjd.s 			page 96


 5411 12a1 1A000000 		.4byte	.LBE117-.LBB117
 5412 12a5 01       		.byte	0x1
 5413 12a6 1A       		.byte	0x1a
 5414 12a7 33       		.uleb128 0x33
 5415 12a8 58120000 		.4byte	0x1258
 5416 12ac 42000000 		.4byte	.LLST2
 5417 12b0 34       		.uleb128 0x34
 5418 12b1 3E120000 		.4byte	0x123e
 5419 12b5 02000000 		.4byte	.LBB119
 5420 12b9 06000000 		.4byte	.LBE119-.LBB119
 5421 12bd 01       		.byte	0x1
 5422 12be 4702     		.2byte	0x247
 5423 12c0 01130000 		.4byte	0x1301
 5424 12c4 35       		.uleb128 0x35
 5425 12c5 6C0F0000 		.4byte	0xf6c
 5426 12c9 02000000 		.4byte	.LBB120
 5427 12cd 06000000 		.4byte	.LBE120-.LBB120
 5428 12d1 18       		.byte	0x18
 5429 12d2 8401     		.2byte	0x184
 5430 12d4 35       		.uleb128 0x35
 5431 12d5 5A0F0000 		.4byte	0xf5a
 5432 12d9 02000000 		.4byte	.LBB121
 5433 12dd 06000000 		.4byte	.LBE121-.LBB121
 5434 12e1 0D       		.byte	0xd
 5435 12e2 F101     		.2byte	0x1f1
 5436 12e4 35       		.uleb128 0x35
 5437 12e5 400F0000 		.4byte	0xf40
 5438 12e9 02000000 		.4byte	.LBB122
 5439 12ed 06000000 		.4byte	.LBE122-.LBB122
 5440 12f1 0D       		.byte	0xd
 5441 12f2 D001     		.2byte	0x1d0
 5442 12f4 33       		.uleb128 0x33
 5443 12f5 4D0F0000 		.4byte	0xf4d
 5444 12f9 5A000000 		.4byte	.LLST3
 5445 12fd 00       		.byte	0
 5446 12fe 00       		.byte	0
 5447 12ff 00       		.byte	0
 5448 1300 00       		.byte	0
 5449 1301 34       		.uleb128 0x34
 5450 1302 35120000 		.4byte	0x1235
 5451 1306 10000000 		.4byte	.LBB124
 5452 130a 0C000000 		.4byte	.LBE124-.LBB124
 5453 130e 01       		.byte	0x1
 5454 130f 4902     		.2byte	0x249
 5455 1311 52130000 		.4byte	0x1352
 5456 1315 35       		.uleb128 0x35
 5457 1316 750F0000 		.4byte	0xf75
 5458 131a 10000000 		.4byte	.LBB125
 5459 131e 0C000000 		.4byte	.LBE125-.LBB125
 5460 1322 18       		.byte	0x18
 5461 1323 9A01     		.2byte	0x19a
 5462 1325 35       		.uleb128 0x35
 5463 1326 630F0000 		.4byte	0xf63
 5464 132a 10000000 		.4byte	.LBB126
 5465 132e 0C000000 		.4byte	.LBE126-.LBB126
 5466 1332 0D       		.byte	0xd
 5467 1333 FC01     		.2byte	0x1fc
ARM GAS  /var/folders/m4/4md61f0s1_g0rzfghffqnxvr0000gn/T//cchEhHjd.s 			page 97


 5468 1335 35       		.uleb128 0x35
 5469 1336 400F0000 		.4byte	0xf40
 5470 133a 10000000 		.4byte	.LBB127
 5471 133e 0C000000 		.4byte	.LBE127-.LBB127
 5472 1342 0D       		.byte	0xd
 5473 1343 E301     		.2byte	0x1e3
 5474 1345 33       		.uleb128 0x33
 5475 1346 4D0F0000 		.4byte	0xf4d
 5476 134a 6F000000 		.4byte	.LLST4
 5477 134e 00       		.byte	0
 5478 134f 00       		.byte	0
 5479 1350 00       		.byte	0
 5480 1351 00       		.byte	0
 5481 1352 36       		.uleb128 0x36
 5482 1353 10000000 		.4byte	.LVL4
 5483 1357 A62F0000 		.4byte	0x2fa6
 5484 135b 37       		.uleb128 0x37
 5485 135c 01       		.uleb128 0x1
 5486 135d 50       		.byte	0x50
 5487 135e 05       		.uleb128 0x5
 5488 135f 03       		.byte	0x3
 5489 1360 20010000 		.4byte	.LANCHOR0+288
 5490 1364 37       		.uleb128 0x37
 5491 1365 01       		.uleb128 0x1
 5492 1366 51       		.byte	0x51
 5493 1367 01       		.uleb128 0x1
 5494 1368 31       		.byte	0x31
 5495 1369 00       		.byte	0
 5496 136a 00       		.byte	0
 5497 136b 00       		.byte	0
 5498 136c 38       		.uleb128 0x38
 5499 136d 0E100000 		.4byte	0x100e
 5500 1371 00000000 		.4byte	.LFB311
 5501 1375 56000000 		.4byte	.LFE311-.LFB311
 5502 1379 01       		.uleb128 0x1
 5503 137a 9C       		.byte	0x9c
 5504 137b FF130000 		.4byte	0x13ff
 5505 137f 33       		.uleb128 0x33
 5506 1380 1F100000 		.4byte	0x101f
 5507 1384 83000000 		.4byte	.LLST5
 5508 1388 33       		.uleb128 0x33
 5509 1389 2B100000 		.4byte	0x102b
 5510 138d A1000000 		.4byte	.LLST6
 5511 1391 33       		.uleb128 0x33
 5512 1392 37100000 		.4byte	0x1037
 5513 1396 C2000000 		.4byte	.LLST7
 5514 139a 33       		.uleb128 0x33
 5515 139b 43100000 		.4byte	0x1043
 5516 139f E0000000 		.4byte	.LLST8
 5517 13a3 39       		.uleb128 0x39
 5518 13a4 4F100000 		.4byte	0x104f
 5519 13a8 02       		.uleb128 0x2
 5520 13a9 91       		.byte	0x91
 5521 13aa 66       		.sleb128 -26
 5522 13ab 39       		.uleb128 0x39
 5523 13ac 5A100000 		.4byte	0x105a
 5524 13b0 02       		.uleb128 0x2
ARM GAS  /var/folders/m4/4md61f0s1_g0rzfghffqnxvr0000gn/T//cchEhHjd.s 			page 98


 5525 13b1 91       		.byte	0x91
 5526 13b2 67       		.sleb128 -25
 5527 13b3 3A       		.uleb128 0x3a
 5528 13b4 1C000000 		.4byte	.LVL8
 5529 13b8 B12F0000 		.4byte	0x2fb1
 5530 13bc 3B       		.uleb128 0x3b
 5531 13bd 30000000 		.4byte	.LVL9
 5532 13c1 BD2F0000 		.4byte	0x2fbd
 5533 13c5 DB130000 		.4byte	0x13db
 5534 13c9 37       		.uleb128 0x37
 5535 13ca 01       		.uleb128 0x1
 5536 13cb 51       		.byte	0x51
 5537 13cc 01       		.uleb128 0x1
 5538 13cd 31       		.byte	0x31
 5539 13ce 37       		.uleb128 0x37
 5540 13cf 01       		.uleb128 0x1
 5541 13d0 52       		.byte	0x52
 5542 13d1 02       		.uleb128 0x2
 5543 13d2 91       		.byte	0x91
 5544 13d3 66       		.sleb128 -26
 5545 13d4 37       		.uleb128 0x37
 5546 13d5 01       		.uleb128 0x1
 5547 13d6 53       		.byte	0x53
 5548 13d7 02       		.uleb128 0x2
 5549 13d8 91       		.byte	0x91
 5550 13d9 67       		.sleb128 -25
 5551 13da 00       		.byte	0
 5552 13db 3B       		.uleb128 0x3b
 5553 13dc 3E000000 		.4byte	.LVL10
 5554 13e0 C92F0000 		.4byte	0x2fc9
 5555 13e4 F5130000 		.4byte	0x13f5
 5556 13e8 37       		.uleb128 0x37
 5557 13e9 01       		.uleb128 0x1
 5558 13ea 51       		.byte	0x51
 5559 13eb 02       		.uleb128 0x2
 5560 13ec 76       		.byte	0x76
 5561 13ed 00       		.sleb128 0
 5562 13ee 37       		.uleb128 0x37
 5563 13ef 01       		.uleb128 0x1
 5564 13f0 52       		.byte	0x52
 5565 13f1 02       		.uleb128 0x2
 5566 13f2 77       		.byte	0x77
 5567 13f3 00       		.sleb128 0
 5568 13f4 00       		.byte	0
 5569 13f5 3A       		.uleb128 0x3a
 5570 13f6 48000000 		.4byte	.LVL11
 5571 13fa D52F0000 		.4byte	0x2fd5
 5572 13fe 00       		.byte	0
 5573 13ff 38       		.uleb128 0x38
 5574 1400 67100000 		.4byte	0x1067
 5575 1404 00000000 		.4byte	.LFB312
 5576 1408 46000000 		.4byte	.LFE312-.LFB312
 5577 140c 01       		.uleb128 0x1
 5578 140d 9C       		.byte	0x9c
 5579 140e 7B140000 		.4byte	0x147b
 5580 1412 33       		.uleb128 0x33
 5581 1413 78100000 		.4byte	0x1078
ARM GAS  /var/folders/m4/4md61f0s1_g0rzfghffqnxvr0000gn/T//cchEhHjd.s 			page 99


 5582 1417 FE000000 		.4byte	.LLST9
 5583 141b 33       		.uleb128 0x33
 5584 141c 84100000 		.4byte	0x1084
 5585 1420 1C010000 		.4byte	.LLST10
 5586 1424 33       		.uleb128 0x33
 5587 1425 90100000 		.4byte	0x1090
 5588 1429 3D010000 		.4byte	.LLST11
 5589 142d 39       		.uleb128 0x39
 5590 142e 9C100000 		.4byte	0x109c
 5591 1432 02       		.uleb128 0x2
 5592 1433 91       		.byte	0x91
 5593 1434 67       		.sleb128 -25
 5594 1435 3A       		.uleb128 0x3a
 5595 1436 1C000000 		.4byte	.LVL14
 5596 143a B12F0000 		.4byte	0x2fb1
 5597 143e 3B       		.uleb128 0x3b
 5598 143f 2A000000 		.4byte	.LVL15
 5599 1443 E12F0000 		.4byte	0x2fe1
 5600 1447 57140000 		.4byte	0x1457
 5601 144b 37       		.uleb128 0x37
 5602 144c 01       		.uleb128 0x1
 5603 144d 51       		.byte	0x51
 5604 144e 01       		.uleb128 0x1
 5605 144f 31       		.byte	0x31
 5606 1450 37       		.uleb128 0x37
 5607 1451 01       		.uleb128 0x1
 5608 1452 52       		.byte	0x52
 5609 1453 02       		.uleb128 0x2
 5610 1454 75       		.byte	0x75
 5611 1455 00       		.sleb128 0
 5612 1456 00       		.byte	0
 5613 1457 3B       		.uleb128 0x3b
 5614 1458 38000000 		.4byte	.LVL16
 5615 145c E12F0000 		.4byte	0x2fe1
 5616 1460 71140000 		.4byte	0x1471
 5617 1464 37       		.uleb128 0x37
 5618 1465 01       		.uleb128 0x1
 5619 1466 51       		.byte	0x51
 5620 1467 02       		.uleb128 0x2
 5621 1468 76       		.byte	0x76
 5622 1469 00       		.sleb128 0
 5623 146a 37       		.uleb128 0x37
 5624 146b 01       		.uleb128 0x1
 5625 146c 52       		.byte	0x52
 5626 146d 02       		.uleb128 0x2
 5627 146e 77       		.byte	0x77
 5628 146f 00       		.sleb128 0
 5629 1470 00       		.byte	0
 5630 1471 3A       		.uleb128 0x3a
 5631 1472 42000000 		.4byte	.LVL17
 5632 1476 D52F0000 		.4byte	0x2fd5
 5633 147a 00       		.byte	0
 5634 147b 3C       		.uleb128 0x3c
 5635 147c FC100000 		.4byte	0x10fc
 5636 1480 C70E0000 		.4byte	.LASF241
 5637 1484 00000000 		.4byte	.LFB278
 5638 1488 34000000 		.4byte	.LFE278-.LFB278
ARM GAS  /var/folders/m4/4md61f0s1_g0rzfghffqnxvr0000gn/T//cchEhHjd.s 			page 100


 5639 148c 01       		.uleb128 0x1
 5640 148d 9C       		.byte	0x9c
 5641 148e E5140000 		.4byte	0x14e5
 5642 1492 3D       		.uleb128 0x3d
 5643 1493 0D110000 		.4byte	0x110d
 5644 1497 01       		.uleb128 0x1
 5645 1498 50       		.byte	0x50
 5646 1499 3E       		.uleb128 0x3e
 5647 149a 0C000000 		.4byte	.LBB129
 5648 149e 16000000 		.4byte	.LBE129-.LBB129
 5649 14a2 CA140000 		.4byte	0x14ca
 5650 14a6 3F       		.uleb128 0x3f
 5651 14a7 1A110000 		.4byte	0x111a
 5652 14ab 5B010000 		.4byte	.LLST12
 5653 14af 35       		.uleb128 0x35
 5654 14b0 7E0F0000 		.4byte	0xf7e
 5655 14b4 1A000000 		.4byte	.LBB130
 5656 14b8 04000000 		.4byte	.LBE130-.LBB130
 5657 14bc 01       		.byte	0x1
 5658 14bd 3D01     		.2byte	0x13d
 5659 14bf 33       		.uleb128 0x33
 5660 14c0 8A0F0000 		.4byte	0xf8a
 5661 14c4 6F010000 		.4byte	.LLST13
 5662 14c8 00       		.byte	0
 5663 14c9 00       		.byte	0
 5664 14ca 35       		.uleb128 0x35
 5665 14cb 7E0F0000 		.4byte	0xf7e
 5666 14cf 26000000 		.4byte	.LBB132
 5667 14d3 04000000 		.4byte	.LBE132-.LBB132
 5668 14d7 01       		.byte	0x1
 5669 14d8 4001     		.2byte	0x140
 5670 14da 33       		.uleb128 0x33
 5671 14db 8A0F0000 		.4byte	0xf8a
 5672 14df 82010000 		.4byte	.LLST14
 5673 14e3 00       		.byte	0
 5674 14e4 00       		.byte	0
 5675 14e5 3C       		.uleb128 0x3c
 5676 14e6 D2100000 		.4byte	0x10d2
 5677 14ea AB030000 		.4byte	.LASF239
 5678 14ee 00000000 		.4byte	.LFB279
 5679 14f2 06000000 		.4byte	.LFE279-.LFB279
 5680 14f6 01       		.uleb128 0x1
 5681 14f7 9C       		.byte	0x9c
 5682 14f8 0B150000 		.4byte	0x150b
 5683 14fc 3D       		.uleb128 0x3d
 5684 14fd E3100000 		.4byte	0x10e3
 5685 1501 01       		.uleb128 0x1
 5686 1502 50       		.byte	0x50
 5687 1503 3D       		.uleb128 0x3d
 5688 1504 EF100000 		.4byte	0x10ef
 5689 1508 01       		.uleb128 0x1
 5690 1509 51       		.byte	0x51
 5691 150a 00       		.byte	0
 5692 150b 40       		.uleb128 0x40
 5693 150c 36110000 		.4byte	.LASF254
 5694 1510 01       		.byte	0x1
 5695 1511 4801     		.2byte	0x148
ARM GAS  /var/folders/m4/4md61f0s1_g0rzfghffqnxvr0000gn/T//cchEhHjd.s 			page 101


 5696 1513 6B0B0000 		.4byte	.LASF256
 5697 1517 00000000 		.4byte	.LFB280
 5698 151b 3C000000 		.4byte	.LFE280-.LFB280
 5699 151f 01       		.uleb128 0x1
 5700 1520 9C       		.byte	0x9c
 5701 1521 8F150000 		.4byte	0x158f
 5702 1525 41       		.uleb128 0x41
 5703 1526 5A0E0000 		.4byte	.LASF210
 5704 152a 01       		.byte	0x1
 5705 152b 4801     		.2byte	0x148
 5706 152d D20F0000 		.4byte	0xfd2
 5707 1531 A3010000 		.4byte	.LLST15
 5708 1535 42       		.uleb128 0x42
 5709 1536 72656700 		.ascii	"reg\000"
 5710 153a 01       		.byte	0x1
 5711 153b 4801     		.2byte	0x148
 5712 153d AE000000 		.4byte	0xae
 5713 1541 C1010000 		.4byte	.LLST16
 5714 1545 41       		.uleb128 0x41
 5715 1546 13050000 		.4byte	.LASF222
 5716 154a 01       		.byte	0x1
 5717 154b 4801     		.2byte	0x148
 5718 154d AE000000 		.4byte	0xae
 5719 1551 E2010000 		.4byte	.LLST17
 5720 1555 43       		.uleb128 0x43
 5721 1556 6F7000   		.ascii	"op\000"
 5722 1559 01       		.byte	0x1
 5723 155a 4A01     		.2byte	0x14a
 5724 155c 8F150000 		.4byte	0x158f
 5725 1560 02       		.uleb128 0x2
 5726 1561 91       		.byte	0x91
 5727 1562 74       		.sleb128 -12
 5728 1563 3A       		.uleb128 0x3a
 5729 1564 20000000 		.4byte	.LVL29
 5730 1568 B12F0000 		.4byte	0x2fb1
 5731 156c 3B       		.uleb128 0x3b
 5732 156d 2E000000 		.4byte	.LVL30
 5733 1571 E12F0000 		.4byte	0x2fe1
 5734 1575 85150000 		.4byte	0x1585
 5735 1579 37       		.uleb128 0x37
 5736 157a 01       		.uleb128 0x1
 5737 157b 51       		.byte	0x51
 5738 157c 01       		.uleb128 0x1
 5739 157d 32       		.byte	0x32
 5740 157e 37       		.uleb128 0x37
 5741 157f 01       		.uleb128 0x1
 5742 1580 52       		.byte	0x52
 5743 1581 02       		.uleb128 0x2
 5744 1582 91       		.byte	0x91
 5745 1583 74       		.sleb128 -12
 5746 1584 00       		.byte	0
 5747 1585 3A       		.uleb128 0x3a
 5748 1586 38000000 		.4byte	.LVL31
 5749 158a D52F0000 		.4byte	0x2fd5
 5750 158e 00       		.byte	0
 5751 158f 1B       		.uleb128 0x1b
 5752 1590 63000000 		.4byte	0x63
ARM GAS  /var/folders/m4/4md61f0s1_g0rzfghffqnxvr0000gn/T//cchEhHjd.s 			page 102


 5753 1594 9F150000 		.4byte	0x159f
 5754 1598 1C       		.uleb128 0x1c
 5755 1599 DE040000 		.4byte	0x4de
 5756 159d 01       		.byte	0x1
 5757 159e 00       		.byte	0
 5758 159f 44       		.uleb128 0x44
 5759 15a0 C7110000 		.4byte	.LASF260
 5760 15a4 01       		.byte	0x1
 5761 15a5 5101     		.2byte	0x151
 5762 15a7 C4060000 		.4byte	.LASF262
 5763 15ab AE000000 		.4byte	0xae
 5764 15af 00000000 		.4byte	.LFB281
 5765 15b3 48000000 		.4byte	.LFE281-.LFB281
 5766 15b7 01       		.uleb128 0x1
 5767 15b8 9C       		.byte	0x9c
 5768 15b9 2C160000 		.4byte	0x162c
 5769 15bd 41       		.uleb128 0x41
 5770 15be 5A0E0000 		.4byte	.LASF210
 5771 15c2 01       		.byte	0x1
 5772 15c3 5101     		.2byte	0x151
 5773 15c5 D20F0000 		.4byte	0xfd2
 5774 15c9 03020000 		.4byte	.LLST18
 5775 15cd 42       		.uleb128 0x42
 5776 15ce 72656700 		.ascii	"reg\000"
 5777 15d2 01       		.byte	0x1
 5778 15d3 5101     		.2byte	0x151
 5779 15d5 AE000000 		.4byte	0xae
 5780 15d9 21020000 		.4byte	.LLST19
 5781 15dd 43       		.uleb128 0x43
 5782 15de 6F7000   		.ascii	"op\000"
 5783 15e1 01       		.byte	0x1
 5784 15e2 5301     		.2byte	0x153
 5785 15e4 8F150000 		.4byte	0x158f
 5786 15e8 02       		.uleb128 0x2
 5787 15e9 91       		.byte	0x91
 5788 15ea 70       		.sleb128 -16
 5789 15eb 45       		.uleb128 0x45
 5790 15ec 64130000 		.4byte	.LASF232
 5791 15f0 01       		.byte	0x1
 5792 15f1 5401     		.2byte	0x154
 5793 15f3 8F150000 		.4byte	0x158f
 5794 15f7 02       		.uleb128 0x2
 5795 15f8 91       		.byte	0x91
 5796 15f9 74       		.sleb128 -12
 5797 15fa 3A       		.uleb128 0x3a
 5798 15fb 26000000 		.4byte	.LVL35
 5799 15ff B12F0000 		.4byte	0x2fb1
 5800 1603 3B       		.uleb128 0x3b
 5801 1604 36000000 		.4byte	.LVL36
 5802 1608 BD2F0000 		.4byte	0x2fbd
 5803 160c 22160000 		.4byte	0x1622
 5804 1610 37       		.uleb128 0x37
 5805 1611 01       		.uleb128 0x1
 5806 1612 51       		.byte	0x51
 5807 1613 01       		.uleb128 0x1
 5808 1614 32       		.byte	0x32
 5809 1615 37       		.uleb128 0x37
ARM GAS  /var/folders/m4/4md61f0s1_g0rzfghffqnxvr0000gn/T//cchEhHjd.s 			page 103


 5810 1616 01       		.uleb128 0x1
 5811 1617 52       		.byte	0x52
 5812 1618 02       		.uleb128 0x2
 5813 1619 7D       		.byte	0x7d
 5814 161a 00       		.sleb128 0
 5815 161b 37       		.uleb128 0x37
 5816 161c 01       		.uleb128 0x1
 5817 161d 53       		.byte	0x53
 5818 161e 02       		.uleb128 0x2
 5819 161f 91       		.byte	0x91
 5820 1620 74       		.sleb128 -12
 5821 1621 00       		.byte	0
 5822 1622 3A       		.uleb128 0x3a
 5823 1623 40000000 		.4byte	.LVL37
 5824 1627 D52F0000 		.4byte	0x2fd5
 5825 162b 00       		.byte	0
 5826 162c 40       		.uleb128 0x40
 5827 162d 40090000 		.4byte	.LASF255
 5828 1631 01       		.byte	0x1
 5829 1632 5D01     		.2byte	0x15d
 5830 1634 C4080000 		.4byte	.LASF257
 5831 1638 00000000 		.4byte	.LFB282
 5832 163c 4A000000 		.4byte	.LFE282-.LFB282
 5833 1640 01       		.uleb128 0x1
 5834 1641 9C       		.byte	0x9c
 5835 1642 C9160000 		.4byte	0x16c9
 5836 1646 41       		.uleb128 0x41
 5837 1647 5A0E0000 		.4byte	.LASF210
 5838 164b 01       		.byte	0x1
 5839 164c 5D01     		.2byte	0x15d
 5840 164e D20F0000 		.4byte	0xfd2
 5841 1652 42020000 		.4byte	.LLST20
 5842 1656 42       		.uleb128 0x42
 5843 1657 72656700 		.ascii	"reg\000"
 5844 165b 01       		.byte	0x1
 5845 165c 5D01     		.2byte	0x15d
 5846 165e AE000000 		.4byte	0xae
 5847 1662 60020000 		.4byte	.LLST21
 5848 1666 41       		.uleb128 0x41
 5849 1667 13050000 		.4byte	.LASF222
 5850 166b 01       		.byte	0x1
 5851 166c 5D01     		.2byte	0x15d
 5852 166e 36090000 		.4byte	0x936
 5853 1672 81020000 		.4byte	.LLST22
 5854 1676 43       		.uleb128 0x43
 5855 1677 6F7000   		.ascii	"op\000"
 5856 167a 01       		.byte	0x1
 5857 167b 5F01     		.2byte	0x15f
 5858 167d AE000000 		.4byte	0xae
 5859 1681 02       		.uleb128 0x2
 5860 1682 91       		.byte	0x91
 5861 1683 6F       		.sleb128 -17
 5862 1684 3A       		.uleb128 0x3a
 5863 1685 20000000 		.4byte	.LVL41
 5864 1689 B12F0000 		.4byte	0x2fb1
 5865 168d 3B       		.uleb128 0x3b
 5866 168e 2E000000 		.4byte	.LVL42
ARM GAS  /var/folders/m4/4md61f0s1_g0rzfghffqnxvr0000gn/T//cchEhHjd.s 			page 104


 5867 1692 E12F0000 		.4byte	0x2fe1
 5868 1696 A6160000 		.4byte	0x16a6
 5869 169a 37       		.uleb128 0x37
 5870 169b 01       		.uleb128 0x1
 5871 169c 51       		.byte	0x51
 5872 169d 01       		.uleb128 0x1
 5873 169e 31       		.byte	0x31
 5874 169f 37       		.uleb128 0x37
 5875 16a0 01       		.uleb128 0x1
 5876 16a1 52       		.byte	0x52
 5877 16a2 02       		.uleb128 0x2
 5878 16a3 75       		.byte	0x75
 5879 16a4 00       		.sleb128 0
 5880 16a5 00       		.byte	0
 5881 16a6 3B       		.uleb128 0x3b
 5882 16a7 3C000000 		.4byte	.LVL43
 5883 16ab E12F0000 		.4byte	0x2fe1
 5884 16af BF160000 		.4byte	0x16bf
 5885 16b3 37       		.uleb128 0x37
 5886 16b4 01       		.uleb128 0x1
 5887 16b5 51       		.byte	0x51
 5888 16b6 01       		.uleb128 0x1
 5889 16b7 35       		.byte	0x35
 5890 16b8 37       		.uleb128 0x37
 5891 16b9 01       		.uleb128 0x1
 5892 16ba 52       		.byte	0x52
 5893 16bb 02       		.uleb128 0x2
 5894 16bc 76       		.byte	0x76
 5895 16bd 00       		.sleb128 0
 5896 16be 00       		.byte	0
 5897 16bf 3A       		.uleb128 0x3a
 5898 16c0 46000000 		.4byte	.LVL44
 5899 16c4 D52F0000 		.4byte	0x2fd5
 5900 16c8 00       		.byte	0
 5901 16c9 40       		.uleb128 0x40
 5902 16ca 79070000 		.4byte	.LASF258
 5903 16ce 01       		.byte	0x1
 5904 16cf 6701     		.2byte	0x167
 5905 16d1 07060000 		.4byte	.LASF259
 5906 16d5 00000000 		.4byte	.LFB283
 5907 16d9 46000000 		.4byte	.LFE283-.LFB283
 5908 16dd 01       		.uleb128 0x1
 5909 16de 9C       		.byte	0x9c
 5910 16df 66170000 		.4byte	0x1766
 5911 16e3 41       		.uleb128 0x41
 5912 16e4 5A0E0000 		.4byte	.LASF210
 5913 16e8 01       		.byte	0x1
 5914 16e9 6701     		.2byte	0x167
 5915 16eb D20F0000 		.4byte	0xfd2
 5916 16ef 9F020000 		.4byte	.LLST23
 5917 16f3 42       		.uleb128 0x42
 5918 16f4 72656700 		.ascii	"reg\000"
 5919 16f8 01       		.byte	0x1
 5920 16f9 6701     		.2byte	0x167
 5921 16fb AE000000 		.4byte	0xae
 5922 16ff BD020000 		.4byte	.LLST24
 5923 1703 41       		.uleb128 0x41
ARM GAS  /var/folders/m4/4md61f0s1_g0rzfghffqnxvr0000gn/T//cchEhHjd.s 			page 105


 5924 1704 13050000 		.4byte	.LASF222
 5925 1708 01       		.byte	0x1
 5926 1709 6701     		.2byte	0x167
 5927 170b 17090000 		.4byte	0x917
 5928 170f DE020000 		.4byte	.LLST25
 5929 1713 43       		.uleb128 0x43
 5930 1714 6F7000   		.ascii	"op\000"
 5931 1717 01       		.byte	0x1
 5932 1718 6901     		.2byte	0x169
 5933 171a AE000000 		.4byte	0xae
 5934 171e 02       		.uleb128 0x2
 5935 171f 91       		.byte	0x91
 5936 1720 6F       		.sleb128 -17
 5937 1721 3A       		.uleb128 0x3a
 5938 1722 1C000000 		.4byte	.LVL48
 5939 1726 B12F0000 		.4byte	0x2fb1
 5940 172a 3B       		.uleb128 0x3b
 5941 172b 2A000000 		.4byte	.LVL49
 5942 172f E12F0000 		.4byte	0x2fe1
 5943 1733 43170000 		.4byte	0x1743
 5944 1737 37       		.uleb128 0x37
 5945 1738 01       		.uleb128 0x1
 5946 1739 51       		.byte	0x51
 5947 173a 01       		.uleb128 0x1
 5948 173b 31       		.byte	0x31
 5949 173c 37       		.uleb128 0x37
 5950 173d 01       		.uleb128 0x1
 5951 173e 52       		.byte	0x52
 5952 173f 02       		.uleb128 0x2
 5953 1740 75       		.byte	0x75
 5954 1741 00       		.sleb128 0
 5955 1742 00       		.byte	0
 5956 1743 3B       		.uleb128 0x3b
 5957 1744 38000000 		.4byte	.LVL50
 5958 1748 C92F0000 		.4byte	0x2fc9
 5959 174c 5C170000 		.4byte	0x175c
 5960 1750 37       		.uleb128 0x37
 5961 1751 01       		.uleb128 0x1
 5962 1752 51       		.byte	0x51
 5963 1753 01       		.uleb128 0x1
 5964 1754 35       		.byte	0x35
 5965 1755 37       		.uleb128 0x37
 5966 1756 01       		.uleb128 0x1
 5967 1757 52       		.byte	0x52
 5968 1758 02       		.uleb128 0x2
 5969 1759 76       		.byte	0x76
 5970 175a 00       		.sleb128 0
 5971 175b 00       		.byte	0
 5972 175c 3A       		.uleb128 0x3a
 5973 175d 42000000 		.4byte	.LVL51
 5974 1761 D52F0000 		.4byte	0x2fd5
 5975 1765 00       		.byte	0
 5976 1766 44       		.uleb128 0x44
 5977 1767 72000000 		.4byte	.LASF261
 5978 176b 01       		.byte	0x1
 5979 176c 7101     		.2byte	0x171
 5980 176e 48100000 		.4byte	.LASF263
ARM GAS  /var/folders/m4/4md61f0s1_g0rzfghffqnxvr0000gn/T//cchEhHjd.s 			page 106


 5981 1772 AE000000 		.4byte	0xae
 5982 1776 00000000 		.4byte	.LFB284
 5983 177a 3C000000 		.4byte	.LFE284-.LFB284
 5984 177e 01       		.uleb128 0x1
 5985 177f 9C       		.byte	0x9c
 5986 1780 E3170000 		.4byte	0x17e3
 5987 1784 41       		.uleb128 0x41
 5988 1785 5A0E0000 		.4byte	.LASF210
 5989 1789 01       		.byte	0x1
 5990 178a 7101     		.2byte	0x171
 5991 178c D20F0000 		.4byte	0xfd2
 5992 1790 FC020000 		.4byte	.LLST26
 5993 1794 43       		.uleb128 0x43
 5994 1795 6F7000   		.ascii	"op\000"
 5995 1798 01       		.byte	0x1
 5996 1799 7301     		.2byte	0x173
 5997 179b AE000000 		.4byte	0xae
 5998 179f 02       		.uleb128 0x2
 5999 17a0 91       		.byte	0x91
 6000 17a1 76       		.sleb128 -10
 6001 17a2 45       		.uleb128 0x45
 6002 17a3 64130000 		.4byte	.LASF232
 6003 17a7 01       		.byte	0x1
 6004 17a8 7401     		.2byte	0x174
 6005 17aa AE000000 		.4byte	0xae
 6006 17ae 02       		.uleb128 0x2
 6007 17af 91       		.byte	0x91
 6008 17b0 77       		.sleb128 -9
 6009 17b1 3A       		.uleb128 0x3a
 6010 17b2 16000000 		.4byte	.LVL54
 6011 17b6 B12F0000 		.4byte	0x2fb1
 6012 17ba 3B       		.uleb128 0x3b
 6013 17bb 2A000000 		.4byte	.LVL55
 6014 17bf BD2F0000 		.4byte	0x2fbd
 6015 17c3 D9170000 		.4byte	0x17d9
 6016 17c7 37       		.uleb128 0x37
 6017 17c8 01       		.uleb128 0x1
 6018 17c9 51       		.byte	0x51
 6019 17ca 01       		.uleb128 0x1
 6020 17cb 31       		.byte	0x31
 6021 17cc 37       		.uleb128 0x37
 6022 17cd 01       		.uleb128 0x1
 6023 17ce 52       		.byte	0x52
 6024 17cf 02       		.uleb128 0x2
 6025 17d0 91       		.byte	0x91
 6026 17d1 76       		.sleb128 -10
 6027 17d2 37       		.uleb128 0x37
 6028 17d3 01       		.uleb128 0x1
 6029 17d4 53       		.byte	0x53
 6030 17d5 02       		.uleb128 0x2
 6031 17d6 91       		.byte	0x91
 6032 17d7 77       		.sleb128 -9
 6033 17d8 00       		.byte	0
 6034 17d9 3A       		.uleb128 0x3a
 6035 17da 34000000 		.4byte	.LVL56
 6036 17de D52F0000 		.4byte	0x2fd5
 6037 17e2 00       		.byte	0
ARM GAS  /var/folders/m4/4md61f0s1_g0rzfghffqnxvr0000gn/T//cchEhHjd.s 			page 107


 6038 17e3 40       		.uleb128 0x40
 6039 17e4 5F0E0000 		.4byte	.LASF264
 6040 17e8 01       		.byte	0x1
 6041 17e9 7D01     		.2byte	0x17d
 6042 17eb E60A0000 		.4byte	.LASF265
 6043 17ef 00000000 		.4byte	.LFB285
 6044 17f3 1C000000 		.4byte	.LFE285-.LFB285
 6045 17f7 01       		.uleb128 0x1
 6046 17f8 9C       		.byte	0x9c
 6047 17f9 4D180000 		.4byte	0x184d
 6048 17fd 41       		.uleb128 0x41
 6049 17fe 5A0E0000 		.4byte	.LASF210
 6050 1802 01       		.byte	0x1
 6051 1803 7D01     		.2byte	0x17d
 6052 1805 D20F0000 		.4byte	0xfd2
 6053 1809 1A030000 		.4byte	.LLST27
 6054 180d 46       		.uleb128 0x46
 6055 180e 72656700 		.ascii	"reg\000"
 6056 1812 01       		.byte	0x1
 6057 1813 7F01     		.2byte	0x17f
 6058 1815 AE000000 		.4byte	0xae
 6059 1819 51030000 		.4byte	.LLST28
 6060 181d 3B       		.uleb128 0x3b
 6061 181e 0A000000 		.4byte	.LVL58
 6062 1822 9F150000 		.4byte	0x159f
 6063 1826 36180000 		.4byte	0x1836
 6064 182a 37       		.uleb128 0x37
 6065 182b 01       		.uleb128 0x1
 6066 182c 50       		.byte	0x50
 6067 182d 02       		.uleb128 0x2
 6068 182e 74       		.byte	0x74
 6069 182f 00       		.sleb128 0
 6070 1830 37       		.uleb128 0x37
 6071 1831 01       		.uleb128 0x1
 6072 1832 51       		.byte	0x51
 6073 1833 01       		.uleb128 0x1
 6074 1834 30       		.byte	0x30
 6075 1835 00       		.byte	0
 6076 1836 47       		.uleb128 0x47
 6077 1837 1C000000 		.4byte	.LVL61
 6078 183b 0B150000 		.4byte	0x150b
 6079 183f 37       		.uleb128 0x37
 6080 1840 01       		.uleb128 0x1
 6081 1841 50       		.byte	0x50
 6082 1842 03       		.uleb128 0x3
 6083 1843 F3       		.byte	0xf3
 6084 1844 01       		.uleb128 0x1
 6085 1845 50       		.byte	0x50
 6086 1846 37       		.uleb128 0x37
 6087 1847 01       		.uleb128 0x1
 6088 1848 51       		.byte	0x51
 6089 1849 01       		.uleb128 0x1
 6090 184a 30       		.byte	0x30
 6091 184b 00       		.byte	0
 6092 184c 00       		.byte	0
 6093 184d 40       		.uleb128 0x40
 6094 184e 4C0B0000 		.4byte	.LASF266
ARM GAS  /var/folders/m4/4md61f0s1_g0rzfghffqnxvr0000gn/T//cchEhHjd.s 			page 108


 6095 1852 01       		.byte	0x1
 6096 1853 8401     		.2byte	0x184
 6097 1855 3D130000 		.4byte	.LASF267
 6098 1859 00000000 		.4byte	.LFB286
 6099 185d 1A000000 		.4byte	.LFE286-.LFB286
 6100 1861 01       		.uleb128 0x1
 6101 1862 9C       		.byte	0x9c
 6102 1863 B7180000 		.4byte	0x18b7
 6103 1867 41       		.uleb128 0x41
 6104 1868 5A0E0000 		.4byte	.LASF210
 6105 186c 01       		.byte	0x1
 6106 186d 8401     		.2byte	0x184
 6107 186f D20F0000 		.4byte	0xfd2
 6108 1873 68030000 		.4byte	.LLST29
 6109 1877 46       		.uleb128 0x46
 6110 1878 72656700 		.ascii	"reg\000"
 6111 187c 01       		.byte	0x1
 6112 187d 8601     		.2byte	0x186
 6113 187f AE000000 		.4byte	0xae
 6114 1883 9F030000 		.4byte	.LLST30
 6115 1887 3B       		.uleb128 0x3b
 6116 1888 0A000000 		.4byte	.LVL63
 6117 188c 9F150000 		.4byte	0x159f
 6118 1890 A0180000 		.4byte	0x18a0
 6119 1894 37       		.uleb128 0x37
 6120 1895 01       		.uleb128 0x1
 6121 1896 50       		.byte	0x50
 6122 1897 02       		.uleb128 0x2
 6123 1898 74       		.byte	0x74
 6124 1899 00       		.sleb128 0
 6125 189a 37       		.uleb128 0x37
 6126 189b 01       		.uleb128 0x1
 6127 189c 51       		.byte	0x51
 6128 189d 01       		.uleb128 0x1
 6129 189e 30       		.byte	0x30
 6130 189f 00       		.byte	0
 6131 18a0 47       		.uleb128 0x47
 6132 18a1 1A000000 		.4byte	.LVL66
 6133 18a5 0B150000 		.4byte	0x150b
 6134 18a9 37       		.uleb128 0x37
 6135 18aa 01       		.uleb128 0x1
 6136 18ab 50       		.byte	0x50
 6137 18ac 03       		.uleb128 0x3
 6138 18ad F3       		.byte	0xf3
 6139 18ae 01       		.uleb128 0x1
 6140 18af 50       		.byte	0x50
 6141 18b0 37       		.uleb128 0x37
 6142 18b1 01       		.uleb128 0x1
 6143 18b2 51       		.byte	0x51
 6144 18b3 01       		.uleb128 0x1
 6145 18b4 30       		.byte	0x30
 6146 18b5 00       		.byte	0
 6147 18b6 00       		.byte	0
 6148 18b7 40       		.uleb128 0x40
 6149 18b8 C70A0000 		.4byte	.LASF268
 6150 18bc 01       		.byte	0x1
 6151 18bd 8B01     		.2byte	0x18b
ARM GAS  /var/folders/m4/4md61f0s1_g0rzfghffqnxvr0000gn/T//cchEhHjd.s 			page 109


 6152 18bf 95060000 		.4byte	.LASF269
 6153 18c3 00000000 		.4byte	.LFB287
 6154 18c7 10000000 		.4byte	.LFE287-.LFB287
 6155 18cb 01       		.uleb128 0x1
 6156 18cc 9C       		.byte	0x9c
 6157 18cd 28190000 		.4byte	0x1928
 6158 18d1 41       		.uleb128 0x41
 6159 18d2 5A0E0000 		.4byte	.LASF210
 6160 18d6 01       		.byte	0x1
 6161 18d7 8B01     		.2byte	0x18b
 6162 18d9 D20F0000 		.4byte	0xfd2
 6163 18dd B7030000 		.4byte	.LLST31
 6164 18e1 41       		.uleb128 0x41
 6165 18e2 8B010000 		.4byte	.LASF270
 6166 18e6 01       		.byte	0x1
 6167 18e7 8B01     		.2byte	0x18b
 6168 18e9 AE000000 		.4byte	0xae
 6169 18ed D8030000 		.4byte	.LLST32
 6170 18f1 41       		.uleb128 0x41
 6171 18f2 A7010000 		.4byte	.LASF271
 6172 18f6 01       		.byte	0x1
 6173 18f7 8B01     		.2byte	0x18b
 6174 18f9 AE000000 		.4byte	0xae
 6175 18fd F9030000 		.4byte	.LLST33
 6176 1901 46       		.uleb128 0x46
 6177 1902 72656700 		.ascii	"reg\000"
 6178 1906 01       		.byte	0x1
 6179 1907 8D01     		.2byte	0x18d
 6180 1909 AE000000 		.4byte	0xae
 6181 190d 1A040000 		.4byte	.LLST34
 6182 1911 47       		.uleb128 0x47
 6183 1912 10000000 		.4byte	.LVL70
 6184 1916 0B150000 		.4byte	0x150b
 6185 191a 37       		.uleb128 0x37
 6186 191b 01       		.uleb128 0x1
 6187 191c 50       		.byte	0x50
 6188 191d 03       		.uleb128 0x3
 6189 191e F3       		.byte	0xf3
 6190 191f 01       		.uleb128 0x1
 6191 1920 50       		.byte	0x50
 6192 1921 37       		.uleb128 0x37
 6193 1922 01       		.uleb128 0x1
 6194 1923 51       		.byte	0x51
 6195 1924 01       		.uleb128 0x1
 6196 1925 34       		.byte	0x34
 6197 1926 00       		.byte	0
 6198 1927 00       		.byte	0
 6199 1928 40       		.uleb128 0x40
 6200 1929 57070000 		.4byte	.LASF272
 6201 192d 01       		.byte	0x1
 6202 192e 9101     		.2byte	0x191
 6203 1930 430C0000 		.4byte	.LASF273
 6204 1934 00000000 		.4byte	.LFB288
 6205 1938 0A000000 		.4byte	.LFE288-.LFB288
 6206 193c 01       		.uleb128 0x1
 6207 193d 9C       		.byte	0x9c
 6208 193e 89190000 		.4byte	0x1989
ARM GAS  /var/folders/m4/4md61f0s1_g0rzfghffqnxvr0000gn/T//cchEhHjd.s 			page 110


 6209 1942 41       		.uleb128 0x41
 6210 1943 5A0E0000 		.4byte	.LASF210
 6211 1947 01       		.byte	0x1
 6212 1948 9101     		.2byte	0x191
 6213 194a D20F0000 		.4byte	0xfd2
 6214 194e 61040000 		.4byte	.LLST35
 6215 1952 41       		.uleb128 0x41
 6216 1953 49080000 		.4byte	.LASF253
 6217 1957 01       		.byte	0x1
 6218 1958 9101     		.2byte	0x191
 6219 195a AE000000 		.4byte	0xae
 6220 195e 82040000 		.4byte	.LLST36
 6221 1962 46       		.uleb128 0x46
 6222 1963 72656700 		.ascii	"reg\000"
 6223 1967 01       		.byte	0x1
 6224 1968 9301     		.2byte	0x193
 6225 196a AE000000 		.4byte	0xae
 6226 196e A3040000 		.4byte	.LLST37
 6227 1972 47       		.uleb128 0x47
 6228 1973 0A000000 		.4byte	.LVL73
 6229 1977 0B150000 		.4byte	0x150b
 6230 197b 37       		.uleb128 0x37
 6231 197c 01       		.uleb128 0x1
 6232 197d 50       		.byte	0x50
 6233 197e 03       		.uleb128 0x3
 6234 197f F3       		.byte	0xf3
 6235 1980 01       		.uleb128 0x1
 6236 1981 50       		.byte	0x50
 6237 1982 37       		.uleb128 0x37
 6238 1983 01       		.uleb128 0x1
 6239 1984 51       		.byte	0x51
 6240 1985 01       		.uleb128 0x1
 6241 1986 35       		.byte	0x35
 6242 1987 00       		.byte	0
 6243 1988 00       		.byte	0
 6244 1989 3C       		.uleb128 0x3c
 6245 198a A8100000 		.4byte	0x10a8
 6246 198e FF0F0000 		.4byte	.LASF237
 6247 1992 00000000 		.4byte	.LFB289
 6248 1996 0A000000 		.4byte	.LFE289-.LFB289
 6249 199a 01       		.uleb128 0x1
 6250 199b 9C       		.byte	0x9c
 6251 199c C9190000 		.4byte	0x19c9
 6252 19a0 33       		.uleb128 0x33
 6253 19a1 B9100000 		.4byte	0x10b9
 6254 19a5 CC040000 		.4byte	.LLST38
 6255 19a9 33       		.uleb128 0x33
 6256 19aa C5100000 		.4byte	0x10c5
 6257 19ae ED040000 		.4byte	.LLST39
 6258 19b2 47       		.uleb128 0x47
 6259 19b3 0A000000 		.4byte	.LVL76
 6260 19b7 0B150000 		.4byte	0x150b
 6261 19bb 37       		.uleb128 0x37
 6262 19bc 01       		.uleb128 0x1
 6263 19bd 50       		.byte	0x50
 6264 19be 03       		.uleb128 0x3
 6265 19bf F3       		.byte	0xf3
ARM GAS  /var/folders/m4/4md61f0s1_g0rzfghffqnxvr0000gn/T//cchEhHjd.s 			page 111


 6266 19c0 01       		.uleb128 0x1
 6267 19c1 50       		.byte	0x50
 6268 19c2 37       		.uleb128 0x37
 6269 19c3 01       		.uleb128 0x1
 6270 19c4 51       		.byte	0x51
 6271 19c5 01       		.uleb128 0x1
 6272 19c6 37       		.byte	0x37
 6273 19c7 00       		.byte	0
 6274 19c8 00       		.byte	0
 6275 19c9 3C       		.uleb128 0x3c
 6276 19ca 9C0F0000 		.4byte	0xf9c
 6277 19ce AA000000 		.4byte	.LASF227
 6278 19d2 00000000 		.4byte	.LFB290
 6279 19d6 40000000 		.4byte	.LFE290-.LFB290
 6280 19da 01       		.uleb128 0x1
 6281 19db 9C       		.byte	0x9c
 6282 19dc 691A0000 		.4byte	0x1a69
 6283 19e0 33       		.uleb128 0x33
 6284 19e1 AD0F0000 		.4byte	0xfad
 6285 19e5 0E050000 		.4byte	.LLST40
 6286 19e9 33       		.uleb128 0x33
 6287 19ea B90F0000 		.4byte	0xfb9
 6288 19ee 69050000 		.4byte	.LLST41
 6289 19f2 33       		.uleb128 0x33
 6290 19f3 C50F0000 		.4byte	0xfc5
 6291 19f7 8A050000 		.4byte	.LLST42
 6292 19fb 48       		.uleb128 0x48
 6293 19fc 00000000 		.4byte	.Ldebug_ranges0+0
 6294 1a00 311A0000 		.4byte	0x1a31
 6295 1a04 33       		.uleb128 0x33
 6296 1a05 C50F0000 		.4byte	0xfc5
 6297 1a09 DA050000 		.4byte	.LLST43
 6298 1a0d 33       		.uleb128 0x33
 6299 1a0e B90F0000 		.4byte	0xfb9
 6300 1a12 FB050000 		.4byte	.LLST44
 6301 1a16 33       		.uleb128 0x33
 6302 1a17 AD0F0000 		.4byte	0xfad
 6303 1a1b 0E060000 		.4byte	.LLST45
 6304 1a1f 47       		.uleb128 0x47
 6305 1a20 2E000000 		.4byte	.LVL83
 6306 1a24 0B150000 		.4byte	0x150b
 6307 1a28 37       		.uleb128 0x37
 6308 1a29 01       		.uleb128 0x1
 6309 1a2a 50       		.byte	0x50
 6310 1a2b 03       		.uleb128 0x3
 6311 1a2c F3       		.byte	0xf3
 6312 1a2d 01       		.uleb128 0x1
 6313 1a2e 50       		.byte	0x50
 6314 1a2f 00       		.byte	0
 6315 1a30 00       		.byte	0
 6316 1a31 3B       		.uleb128 0x3b
 6317 1a32 10000000 		.4byte	.LVL80
 6318 1a36 0B150000 		.4byte	0x150b
 6319 1a3a 501A0000 		.4byte	0x1a50
 6320 1a3e 37       		.uleb128 0x37
 6321 1a3f 01       		.uleb128 0x1
 6322 1a40 50       		.byte	0x50
ARM GAS  /var/folders/m4/4md61f0s1_g0rzfghffqnxvr0000gn/T//cchEhHjd.s 			page 112


 6323 1a41 02       		.uleb128 0x2
 6324 1a42 75       		.byte	0x75
 6325 1a43 00       		.sleb128 0
 6326 1a44 37       		.uleb128 0x37
 6327 1a45 01       		.uleb128 0x1
 6328 1a46 51       		.byte	0x51
 6329 1a47 01       		.uleb128 0x1
 6330 1a48 33       		.byte	0x33
 6331 1a49 37       		.uleb128 0x37
 6332 1a4a 01       		.uleb128 0x1
 6333 1a4b 52       		.byte	0x52
 6334 1a4c 02       		.uleb128 0x2
 6335 1a4d 09       		.byte	0x9
 6336 1a4e 80       		.byte	0x80
 6337 1a4f 00       		.byte	0
 6338 1a50 47       		.uleb128 0x47
 6339 1a51 40000000 		.4byte	.LVL85
 6340 1a55 2C160000 		.4byte	0x162c
 6341 1a59 37       		.uleb128 0x37
 6342 1a5a 01       		.uleb128 0x1
 6343 1a5b 50       		.byte	0x50
 6344 1a5c 03       		.uleb128 0x3
 6345 1a5d F3       		.byte	0xf3
 6346 1a5e 01       		.uleb128 0x1
 6347 1a5f 50       		.byte	0x50
 6348 1a60 37       		.uleb128 0x37
 6349 1a61 01       		.uleb128 0x1
 6350 1a62 52       		.byte	0x52
 6351 1a63 03       		.uleb128 0x3
 6352 1a64 F3       		.byte	0xf3
 6353 1a65 01       		.uleb128 0x1
 6354 1a66 52       		.byte	0x52
 6355 1a67 00       		.byte	0
 6356 1a68 00       		.byte	0
 6357 1a69 40       		.uleb128 0x40
 6358 1a6a B4050000 		.4byte	.LASF274
 6359 1a6e 01       		.byte	0x1
 6360 1a6f A501     		.2byte	0x1a5
 6361 1a71 010A0000 		.4byte	.LASF275
 6362 1a75 00000000 		.4byte	.LFB291
 6363 1a79 1C000000 		.4byte	.LFE291-.LFB291
 6364 1a7d 01       		.uleb128 0x1
 6365 1a7e 9C       		.byte	0x9c
 6366 1a7f E01A0000 		.4byte	0x1ae0
 6367 1a83 41       		.uleb128 0x41
 6368 1a84 5A0E0000 		.4byte	.LASF210
 6369 1a88 01       		.byte	0x1
 6370 1a89 A501     		.2byte	0x1a5
 6371 1a8b D20F0000 		.4byte	0xfd2
 6372 1a8f 3A060000 		.4byte	.LLST46
 6373 1a93 41       		.uleb128 0x41
 6374 1a94 3E0A0000 		.4byte	.LASF224
 6375 1a98 01       		.byte	0x1
 6376 1a99 A501     		.2byte	0x1a5
 6377 1a9b 36090000 		.4byte	0x936
 6378 1a9f 71060000 		.4byte	.LLST47
 6379 1aa3 3B       		.uleb128 0x3b
ARM GAS  /var/folders/m4/4md61f0s1_g0rzfghffqnxvr0000gn/T//cchEhHjd.s 			page 113


 6380 1aa4 0E000000 		.4byte	.LVL88
 6381 1aa8 0B150000 		.4byte	0x150b
 6382 1aac C21A0000 		.4byte	0x1ac2
 6383 1ab0 37       		.uleb128 0x37
 6384 1ab1 01       		.uleb128 0x1
 6385 1ab2 50       		.byte	0x50
 6386 1ab3 02       		.uleb128 0x2
 6387 1ab4 74       		.byte	0x74
 6388 1ab5 00       		.sleb128 0
 6389 1ab6 37       		.uleb128 0x37
 6390 1ab7 01       		.uleb128 0x1
 6391 1ab8 51       		.byte	0x51
 6392 1ab9 01       		.uleb128 0x1
 6393 1aba 33       		.byte	0x33
 6394 1abb 37       		.uleb128 0x37
 6395 1abc 01       		.uleb128 0x1
 6396 1abd 52       		.byte	0x52
 6397 1abe 02       		.uleb128 0x2
 6398 1abf 09       		.byte	0x9
 6399 1ac0 80       		.byte	0x80
 6400 1ac1 00       		.byte	0
 6401 1ac2 47       		.uleb128 0x47
 6402 1ac3 1C000000 		.4byte	.LVL90
 6403 1ac7 2C160000 		.4byte	0x162c
 6404 1acb 37       		.uleb128 0x37
 6405 1acc 01       		.uleb128 0x1
 6406 1acd 50       		.byte	0x50
 6407 1ace 03       		.uleb128 0x3
 6408 1acf F3       		.byte	0xf3
 6409 1ad0 01       		.uleb128 0x1
 6410 1ad1 50       		.byte	0x50
 6411 1ad2 37       		.uleb128 0x37
 6412 1ad3 01       		.uleb128 0x1
 6413 1ad4 51       		.byte	0x51
 6414 1ad5 01       		.uleb128 0x1
 6415 1ad6 40       		.byte	0x40
 6416 1ad7 37       		.uleb128 0x37
 6417 1ad8 01       		.uleb128 0x1
 6418 1ad9 52       		.byte	0x52
 6419 1ada 03       		.uleb128 0x3
 6420 1adb F3       		.byte	0xf3
 6421 1adc 01       		.uleb128 0x1
 6422 1add 51       		.byte	0x51
 6423 1ade 00       		.byte	0
 6424 1adf 00       		.byte	0
 6425 1ae0 3C       		.uleb128 0x3c
 6426 1ae1 D80F0000 		.4byte	0xfd8
 6427 1ae5 B7120000 		.4byte	.LASF228
 6428 1ae9 00000000 		.4byte	.LFB292
 6429 1aed 12000000 		.4byte	.LFE292-.LFB292
 6430 1af1 01       		.uleb128 0x1
 6431 1af2 9C       		.byte	0x9c
 6432 1af3 3D1B0000 		.4byte	0x1b3d
 6433 1af7 33       		.uleb128 0x33
 6434 1af8 E90F0000 		.4byte	0xfe9
 6435 1afc A8060000 		.4byte	.LLST48
 6436 1b00 33       		.uleb128 0x33
ARM GAS  /var/folders/m4/4md61f0s1_g0rzfghffqnxvr0000gn/T//cchEhHjd.s 			page 114


 6437 1b01 F50F0000 		.4byte	0xff5
 6438 1b05 C9060000 		.4byte	.LLST49
 6439 1b09 33       		.uleb128 0x33
 6440 1b0a 01100000 		.4byte	0x1001
 6441 1b0e EA060000 		.4byte	.LLST50
 6442 1b12 49       		.uleb128 0x49
 6443 1b13 04000000 		.4byte	.LBB142
 6444 1b17 0E000000 		.4byte	.LBE142-.LBB142
 6445 1b1b 33       		.uleb128 0x33
 6446 1b1c 01100000 		.4byte	0x1001
 6447 1b20 0B070000 		.4byte	.LLST51
 6448 1b24 33       		.uleb128 0x33
 6449 1b25 F50F0000 		.4byte	0xff5
 6450 1b29 37070000 		.4byte	.LLST52
 6451 1b2d 4A       		.uleb128 0x4a
 6452 1b2e E90F0000 		.4byte	0xfe9
 6453 1b32 4B       		.uleb128 0x4b
 6454 1b33 12000000 		.4byte	.LVL96
 6455 1b37 0B150000 		.4byte	0x150b
 6456 1b3b 00       		.byte	0
 6457 1b3c 00       		.byte	0
 6458 1b3d 3C       		.uleb128 0x3c
 6459 1b3e 54110000 		.4byte	0x1154
 6460 1b42 580D0000 		.4byte	.LASF276
 6461 1b46 00000000 		.4byte	.LFB293
 6462 1b4a 06000000 		.4byte	.LFE293-.LFB293
 6463 1b4e 01       		.uleb128 0x1
 6464 1b4f 9C       		.byte	0x9c
 6465 1b50 741B0000 		.4byte	0x1b74
 6466 1b54 33       		.uleb128 0x33
 6467 1b55 69110000 		.4byte	0x1169
 6468 1b59 63070000 		.4byte	.LLST53
 6469 1b5d 47       		.uleb128 0x47
 6470 1b5e 06000000 		.4byte	.LVL98
 6471 1b62 9F150000 		.4byte	0x159f
 6472 1b66 37       		.uleb128 0x37
 6473 1b67 01       		.uleb128 0x1
 6474 1b68 50       		.byte	0x50
 6475 1b69 03       		.uleb128 0x3
 6476 1b6a F3       		.byte	0xf3
 6477 1b6b 01       		.uleb128 0x1
 6478 1b6c 50       		.byte	0x50
 6479 1b6d 37       		.uleb128 0x37
 6480 1b6e 01       		.uleb128 0x1
 6481 1b6f 51       		.byte	0x51
 6482 1b70 01       		.uleb128 0x1
 6483 1b71 47       		.byte	0x47
 6484 1b72 00       		.byte	0
 6485 1b73 00       		.byte	0
 6486 1b74 40       		.uleb128 0x40
 6487 1b75 220E0000 		.4byte	.LASF277
 6488 1b79 01       		.byte	0x1
 6489 1b7a CA01     		.2byte	0x1ca
 6490 1b7c DA130000 		.4byte	.LASF278
 6491 1b80 00000000 		.4byte	.LFB295
 6492 1b84 22000000 		.4byte	.LFE295-.LFB295
 6493 1b88 01       		.uleb128 0x1
ARM GAS  /var/folders/m4/4md61f0s1_g0rzfghffqnxvr0000gn/T//cchEhHjd.s 			page 115


 6494 1b89 9C       		.byte	0x9c
 6495 1b8a EE1B0000 		.4byte	0x1bee
 6496 1b8e 41       		.uleb128 0x41
 6497 1b8f 5A0E0000 		.4byte	.LASF210
 6498 1b93 01       		.byte	0x1
 6499 1b94 CA01     		.2byte	0x1ca
 6500 1b96 D20F0000 		.4byte	0xfd2
 6501 1b9a 84070000 		.4byte	.LLST54
 6502 1b9e 41       		.uleb128 0x41
 6503 1b9f DE020000 		.4byte	.LASF279
 6504 1ba3 01       		.byte	0x1
 6505 1ba4 CA01     		.2byte	0x1ca
 6506 1ba6 AE000000 		.4byte	0xae
 6507 1baa BB070000 		.4byte	.LLST55
 6508 1bae 46       		.uleb128 0x46
 6509 1baf 72656700 		.ascii	"reg\000"
 6510 1bb3 01       		.byte	0x1
 6511 1bb4 CC01     		.2byte	0x1cc
 6512 1bb6 AE000000 		.4byte	0xae
 6513 1bba DC070000 		.4byte	.LLST56
 6514 1bbe 3B       		.uleb128 0x3b
 6515 1bbf 0C000000 		.4byte	.LVL101
 6516 1bc3 9F150000 		.4byte	0x159f
 6517 1bc7 D71B0000 		.4byte	0x1bd7
 6518 1bcb 37       		.uleb128 0x37
 6519 1bcc 01       		.uleb128 0x1
 6520 1bcd 50       		.byte	0x50
 6521 1bce 02       		.uleb128 0x2
 6522 1bcf 75       		.byte	0x75
 6523 1bd0 00       		.sleb128 0
 6524 1bd1 37       		.uleb128 0x37
 6525 1bd2 01       		.uleb128 0x1
 6526 1bd3 51       		.byte	0x51
 6527 1bd4 01       		.uleb128 0x1
 6528 1bd5 4C       		.byte	0x4c
 6529 1bd6 00       		.byte	0
 6530 1bd7 47       		.uleb128 0x47
 6531 1bd8 22000000 		.4byte	.LVL104
 6532 1bdc 0B150000 		.4byte	0x150b
 6533 1be0 37       		.uleb128 0x37
 6534 1be1 01       		.uleb128 0x1
 6535 1be2 50       		.byte	0x50
 6536 1be3 03       		.uleb128 0x3
 6537 1be4 F3       		.byte	0xf3
 6538 1be5 01       		.uleb128 0x1
 6539 1be6 50       		.byte	0x50
 6540 1be7 37       		.uleb128 0x37
 6541 1be8 01       		.uleb128 0x1
 6542 1be9 51       		.byte	0x51
 6543 1bea 01       		.uleb128 0x1
 6544 1beb 4C       		.byte	0x4c
 6545 1bec 00       		.byte	0
 6546 1bed 00       		.byte	0
 6547 1bee 40       		.uleb128 0x40
 6548 1bef 53120000 		.4byte	.LASF280
 6549 1bf3 01       		.byte	0x1
 6550 1bf4 D101     		.2byte	0x1d1
ARM GAS  /var/folders/m4/4md61f0s1_g0rzfghffqnxvr0000gn/T//cchEhHjd.s 			page 116


 6551 1bf6 F7060000 		.4byte	.LASF281
 6552 1bfa 00000000 		.4byte	.LFB296
 6553 1bfe 1A000000 		.4byte	.LFE296-.LFB296
 6554 1c02 01       		.uleb128 0x1
 6555 1c03 9C       		.byte	0x9c
 6556 1c04 581C0000 		.4byte	0x1c58
 6557 1c08 41       		.uleb128 0x41
 6558 1c09 5A0E0000 		.4byte	.LASF210
 6559 1c0d 01       		.byte	0x1
 6560 1c0e D101     		.2byte	0x1d1
 6561 1c10 D20F0000 		.4byte	0xfd2
 6562 1c14 FA070000 		.4byte	.LLST57
 6563 1c18 46       		.uleb128 0x46
 6564 1c19 72656700 		.ascii	"reg\000"
 6565 1c1d 01       		.byte	0x1
 6566 1c1e D301     		.2byte	0x1d3
 6567 1c20 AE000000 		.4byte	0xae
 6568 1c24 31080000 		.4byte	.LLST58
 6569 1c28 3B       		.uleb128 0x3b
 6570 1c29 0A000000 		.4byte	.LVL106
 6571 1c2d 9F150000 		.4byte	0x159f
 6572 1c31 411C0000 		.4byte	0x1c41
 6573 1c35 37       		.uleb128 0x37
 6574 1c36 01       		.uleb128 0x1
 6575 1c37 50       		.byte	0x50
 6576 1c38 02       		.uleb128 0x2
 6577 1c39 74       		.byte	0x74
 6578 1c3a 00       		.sleb128 0
 6579 1c3b 37       		.uleb128 0x37
 6580 1c3c 01       		.uleb128 0x1
 6581 1c3d 51       		.byte	0x51
 6582 1c3e 01       		.uleb128 0x1
 6583 1c3f 4D       		.byte	0x4d
 6584 1c40 00       		.byte	0
 6585 1c41 47       		.uleb128 0x47
 6586 1c42 1A000000 		.4byte	.LVL109
 6587 1c46 0B150000 		.4byte	0x150b
 6588 1c4a 37       		.uleb128 0x37
 6589 1c4b 01       		.uleb128 0x1
 6590 1c4c 50       		.byte	0x50
 6591 1c4d 03       		.uleb128 0x3
 6592 1c4e F3       		.byte	0xf3
 6593 1c4f 01       		.uleb128 0x1
 6594 1c50 50       		.byte	0x50
 6595 1c51 37       		.uleb128 0x37
 6596 1c52 01       		.uleb128 0x1
 6597 1c53 51       		.byte	0x51
 6598 1c54 01       		.uleb128 0x1
 6599 1c55 4D       		.byte	0x4d
 6600 1c56 00       		.byte	0
 6601 1c57 00       		.byte	0
 6602 1c58 40       		.uleb128 0x40
 6603 1c59 F90D0000 		.4byte	.LASF282
 6604 1c5d 01       		.byte	0x1
 6605 1c5e D801     		.2byte	0x1d8
 6606 1c60 99130000 		.4byte	.LASF283
 6607 1c64 00000000 		.4byte	.LFB297
ARM GAS  /var/folders/m4/4md61f0s1_g0rzfghffqnxvr0000gn/T//cchEhHjd.s 			page 117


 6608 1c68 22000000 		.4byte	.LFE297-.LFB297
 6609 1c6c 01       		.uleb128 0x1
 6610 1c6d 9C       		.byte	0x9c
 6611 1c6e D21C0000 		.4byte	0x1cd2
 6612 1c72 41       		.uleb128 0x41
 6613 1c73 5A0E0000 		.4byte	.LASF210
 6614 1c77 01       		.byte	0x1
 6615 1c78 D801     		.2byte	0x1d8
 6616 1c7a D20F0000 		.4byte	0xfd2
 6617 1c7e 49080000 		.4byte	.LLST59
 6618 1c82 41       		.uleb128 0x41
 6619 1c83 DE020000 		.4byte	.LASF279
 6620 1c87 01       		.byte	0x1
 6621 1c88 D801     		.2byte	0x1d8
 6622 1c8a AE000000 		.4byte	0xae
 6623 1c8e 80080000 		.4byte	.LLST60
 6624 1c92 46       		.uleb128 0x46
 6625 1c93 72656700 		.ascii	"reg\000"
 6626 1c97 01       		.byte	0x1
 6627 1c98 DA01     		.2byte	0x1da
 6628 1c9a AE000000 		.4byte	0xae
 6629 1c9e A1080000 		.4byte	.LLST61
 6630 1ca2 3B       		.uleb128 0x3b
 6631 1ca3 0C000000 		.4byte	.LVL112
 6632 1ca7 9F150000 		.4byte	0x159f
 6633 1cab BB1C0000 		.4byte	0x1cbb
 6634 1caf 37       		.uleb128 0x37
 6635 1cb0 01       		.uleb128 0x1
 6636 1cb1 50       		.byte	0x50
 6637 1cb2 02       		.uleb128 0x2
 6638 1cb3 75       		.byte	0x75
 6639 1cb4 00       		.sleb128 0
 6640 1cb5 37       		.uleb128 0x37
 6641 1cb6 01       		.uleb128 0x1
 6642 1cb7 51       		.byte	0x51
 6643 1cb8 01       		.uleb128 0x1
 6644 1cb9 4C       		.byte	0x4c
 6645 1cba 00       		.byte	0
 6646 1cbb 47       		.uleb128 0x47
 6647 1cbc 22000000 		.4byte	.LVL115
 6648 1cc0 0B150000 		.4byte	0x150b
 6649 1cc4 37       		.uleb128 0x37
 6650 1cc5 01       		.uleb128 0x1
 6651 1cc6 50       		.byte	0x50
 6652 1cc7 03       		.uleb128 0x3
 6653 1cc8 F3       		.byte	0xf3
 6654 1cc9 01       		.uleb128 0x1
 6655 1cca 50       		.byte	0x50
 6656 1ccb 37       		.uleb128 0x37
 6657 1ccc 01       		.uleb128 0x1
 6658 1ccd 51       		.byte	0x51
 6659 1cce 01       		.uleb128 0x1
 6660 1ccf 4C       		.byte	0x4c
 6661 1cd0 00       		.byte	0
 6662 1cd1 00       		.byte	0
 6663 1cd2 3C       		.uleb128 0x3c
 6664 1cd3 0E100000 		.4byte	0x100e
ARM GAS  /var/folders/m4/4md61f0s1_g0rzfghffqnxvr0000gn/T//cchEhHjd.s 			page 118


 6665 1cd7 52110000 		.4byte	.LASF231
 6666 1cdb 00000000 		.4byte	.LFB298
 6667 1cdf 0A000000 		.4byte	.LFE298-.LFB298
 6668 1ce3 01       		.uleb128 0x1
 6669 1ce4 9C       		.byte	0x9c
 6670 1ce5 211D0000 		.4byte	0x1d21
 6671 1ce9 33       		.uleb128 0x33
 6672 1cea 1F100000 		.4byte	0x101f
 6673 1cee BF080000 		.4byte	.LLST62
 6674 1cf2 33       		.uleb128 0x33
 6675 1cf3 2B100000 		.4byte	0x102b
 6676 1cf7 E0080000 		.4byte	.LLST63
 6677 1cfb 33       		.uleb128 0x33
 6678 1cfc 37100000 		.4byte	0x1037
 6679 1d00 01090000 		.4byte	.LLST64
 6680 1d04 33       		.uleb128 0x33
 6681 1d05 43100000 		.4byte	0x1043
 6682 1d09 22090000 		.4byte	.LLST65
 6683 1d0d 4C       		.uleb128 0x4c
 6684 1d0e 4F100000 		.4byte	0x104f
 6685 1d12 4C       		.uleb128 0x4c
 6686 1d13 5A100000 		.4byte	0x105a
 6687 1d17 4B       		.uleb128 0x4b
 6688 1d18 0A000000 		.4byte	.LVL117
 6689 1d1c 6C130000 		.4byte	0x136c
 6690 1d20 00       		.byte	0
 6691 1d21 3C       		.uleb128 0x3c
 6692 1d22 67100000 		.4byte	0x1067
 6693 1d26 EC100000 		.4byte	.LASF235
 6694 1d2a 00000000 		.4byte	.LFB299
 6695 1d2e 0A000000 		.4byte	.LFE299-.LFB299
 6696 1d32 01       		.uleb128 0x1
 6697 1d33 9C       		.byte	0x9c
 6698 1d34 621D0000 		.4byte	0x1d62
 6699 1d38 33       		.uleb128 0x33
 6700 1d39 78100000 		.4byte	0x1078
 6701 1d3d 43090000 		.4byte	.LLST66
 6702 1d41 33       		.uleb128 0x33
 6703 1d42 84100000 		.4byte	0x1084
 6704 1d46 64090000 		.4byte	.LLST67
 6705 1d4a 33       		.uleb128 0x33
 6706 1d4b 90100000 		.4byte	0x1090
 6707 1d4f 85090000 		.4byte	.LLST68
 6708 1d53 4C       		.uleb128 0x4c
 6709 1d54 9C100000 		.4byte	0x109c
 6710 1d58 4B       		.uleb128 0x4b
 6711 1d59 0A000000 		.4byte	.LVL119
 6712 1d5d FF130000 		.4byte	0x13ff
 6713 1d61 00       		.byte	0
 6714 1d62 40       		.uleb128 0x40
 6715 1d63 63010000 		.4byte	.LASF284
 6716 1d67 01       		.byte	0x1
 6717 1d68 FC01     		.2byte	0x1fc
 6718 1d6a BF0B0000 		.4byte	.LASF285
 6719 1d6e 00000000 		.4byte	.LFB300
 6720 1d72 38000000 		.4byte	.LFE300-.LFB300
 6721 1d76 01       		.uleb128 0x1
ARM GAS  /var/folders/m4/4md61f0s1_g0rzfghffqnxvr0000gn/T//cchEhHjd.s 			page 119


 6722 1d77 9C       		.byte	0x9c
 6723 1d78 C61D0000 		.4byte	0x1dc6
 6724 1d7c 41       		.uleb128 0x41
 6725 1d7d 5A0E0000 		.4byte	.LASF210
 6726 1d81 01       		.byte	0x1
 6727 1d82 FC01     		.2byte	0x1fc
 6728 1d84 D20F0000 		.4byte	0xfd2
 6729 1d88 A6090000 		.4byte	.LLST69
 6730 1d8c 43       		.uleb128 0x43
 6731 1d8d 6F7000   		.ascii	"op\000"
 6732 1d90 01       		.byte	0x1
 6733 1d91 FE01     		.2byte	0x1fe
 6734 1d93 8F150000 		.4byte	0x158f
 6735 1d97 02       		.uleb128 0x2
 6736 1d98 91       		.byte	0x91
 6737 1d99 74       		.sleb128 -12
 6738 1d9a 3A       		.uleb128 0x3a
 6739 1d9b 18000000 		.4byte	.LVL122
 6740 1d9f B12F0000 		.4byte	0x2fb1
 6741 1da3 3B       		.uleb128 0x3b
 6742 1da4 26000000 		.4byte	.LVL123
 6743 1da8 E12F0000 		.4byte	0x2fe1
 6744 1dac BC1D0000 		.4byte	0x1dbc
 6745 1db0 37       		.uleb128 0x37
 6746 1db1 01       		.uleb128 0x1
 6747 1db2 51       		.byte	0x51
 6748 1db3 01       		.uleb128 0x1
 6749 1db4 32       		.byte	0x32
 6750 1db5 37       		.uleb128 0x37
 6751 1db6 01       		.uleb128 0x1
 6752 1db7 52       		.byte	0x52
 6753 1db8 02       		.uleb128 0x2
 6754 1db9 91       		.byte	0x91
 6755 1dba 74       		.sleb128 -12
 6756 1dbb 00       		.byte	0
 6757 1dbc 3A       		.uleb128 0x3a
 6758 1dbd 30000000 		.4byte	.LVL124
 6759 1dc1 D52F0000 		.4byte	0x2fd5
 6760 1dc5 00       		.byte	0
 6761 1dc6 40       		.uleb128 0x40
 6762 1dc7 E6050000 		.4byte	.LASF286
 6763 1dcb 01       		.byte	0x1
 6764 1dcc B801     		.2byte	0x1b8
 6765 1dce 0F0D0000 		.4byte	.LASF287
 6766 1dd2 00000000 		.4byte	.LFB294
 6767 1dd6 40000000 		.4byte	.LFE294-.LFB294
 6768 1dda 01       		.uleb128 0x1
 6769 1ddb 9C       		.byte	0x9c
 6770 1ddc 761E0000 		.4byte	0x1e76
 6771 1de0 41       		.uleb128 0x41
 6772 1de1 5A0E0000 		.4byte	.LASF210
 6773 1de5 01       		.byte	0x1
 6774 1de6 B801     		.2byte	0x1b8
 6775 1de8 D20F0000 		.4byte	0xfd2
 6776 1dec D2090000 		.4byte	.LLST70
 6777 1df0 46       		.uleb128 0x46
 6778 1df1 72656700 		.ascii	"reg\000"
ARM GAS  /var/folders/m4/4md61f0s1_g0rzfghffqnxvr0000gn/T//cchEhHjd.s 			page 120


 6779 1df5 01       		.byte	0x1
 6780 1df6 BA01     		.2byte	0x1ba
 6781 1df8 AE000000 		.4byte	0xae
 6782 1dfc 090A0000 		.4byte	.LLST71
 6783 1e00 3B       		.uleb128 0x3b
 6784 1e01 0A000000 		.4byte	.LVL127
 6785 1e05 9F150000 		.4byte	0x159f
 6786 1e09 191E0000 		.4byte	0x1e19
 6787 1e0d 37       		.uleb128 0x37
 6788 1e0e 01       		.uleb128 0x1
 6789 1e0f 50       		.byte	0x50
 6790 1e10 02       		.uleb128 0x2
 6791 1e11 74       		.byte	0x74
 6792 1e12 00       		.sleb128 0
 6793 1e13 37       		.uleb128 0x37
 6794 1e14 01       		.uleb128 0x1
 6795 1e15 51       		.byte	0x51
 6796 1e16 01       		.uleb128 0x1
 6797 1e17 4D       		.byte	0x4d
 6798 1e18 00       		.byte	0
 6799 1e19 3B       		.uleb128 0x3b
 6800 1e1a 1E000000 		.4byte	.LVL130
 6801 1e1e 0B150000 		.4byte	0x150b
 6802 1e22 321E0000 		.4byte	0x1e32
 6803 1e26 37       		.uleb128 0x37
 6804 1e27 01       		.uleb128 0x1
 6805 1e28 50       		.byte	0x50
 6806 1e29 02       		.uleb128 0x2
 6807 1e2a 74       		.byte	0x74
 6808 1e2b 00       		.sleb128 0
 6809 1e2c 37       		.uleb128 0x37
 6810 1e2d 01       		.uleb128 0x1
 6811 1e2e 51       		.byte	0x51
 6812 1e2f 01       		.uleb128 0x1
 6813 1e30 4D       		.byte	0x4d
 6814 1e31 00       		.byte	0
 6815 1e32 3B       		.uleb128 0x3b
 6816 1e33 26000000 		.4byte	.LVL131
 6817 1e37 9F150000 		.4byte	0x159f
 6818 1e3b 4B1E0000 		.4byte	0x1e4b
 6819 1e3f 37       		.uleb128 0x37
 6820 1e40 01       		.uleb128 0x1
 6821 1e41 50       		.byte	0x50
 6822 1e42 02       		.uleb128 0x2
 6823 1e43 74       		.byte	0x74
 6824 1e44 00       		.sleb128 0
 6825 1e45 37       		.uleb128 0x37
 6826 1e46 01       		.uleb128 0x1
 6827 1e47 51       		.byte	0x51
 6828 1e48 01       		.uleb128 0x1
 6829 1e49 4D       		.byte	0x4d
 6830 1e4a 00       		.byte	0
 6831 1e4b 3B       		.uleb128 0x3b
 6832 1e4c 32000000 		.4byte	.LVL134
 6833 1e50 621D0000 		.4byte	0x1d62
 6834 1e54 5F1E0000 		.4byte	0x1e5f
 6835 1e58 37       		.uleb128 0x37
ARM GAS  /var/folders/m4/4md61f0s1_g0rzfghffqnxvr0000gn/T//cchEhHjd.s 			page 121


 6836 1e59 01       		.uleb128 0x1
 6837 1e5a 50       		.byte	0x50
 6838 1e5b 02       		.uleb128 0x2
 6839 1e5c 74       		.byte	0x74
 6840 1e5d 00       		.sleb128 0
 6841 1e5e 00       		.byte	0
 6842 1e5f 47       		.uleb128 0x47
 6843 1e60 40000000 		.4byte	.LVL136
 6844 1e64 0B150000 		.4byte	0x150b
 6845 1e68 37       		.uleb128 0x37
 6846 1e69 01       		.uleb128 0x1
 6847 1e6a 50       		.byte	0x50
 6848 1e6b 03       		.uleb128 0x3
 6849 1e6c F3       		.byte	0xf3
 6850 1e6d 01       		.uleb128 0x1
 6851 1e6e 50       		.byte	0x50
 6852 1e6f 37       		.uleb128 0x37
 6853 1e70 01       		.uleb128 0x1
 6854 1e71 51       		.byte	0x51
 6855 1e72 01       		.uleb128 0x1
 6856 1e73 4D       		.byte	0x4d
 6857 1e74 00       		.byte	0
 6858 1e75 00       		.byte	0
 6859 1e76 40       		.uleb128 0x40
 6860 1e77 7B050000 		.4byte	.LASF288
 6861 1e7b 01       		.byte	0x1
 6862 1e7c 0502     		.2byte	0x205
 6863 1e7e 9F0D0000 		.4byte	.LASF289
 6864 1e82 00000000 		.4byte	.LFB301
 6865 1e86 34000000 		.4byte	.LFE301-.LFB301
 6866 1e8a 01       		.uleb128 0x1
 6867 1e8b 9C       		.byte	0x9c
 6868 1e8c DA1E0000 		.4byte	0x1eda
 6869 1e90 41       		.uleb128 0x41
 6870 1e91 5A0E0000 		.4byte	.LASF210
 6871 1e95 01       		.byte	0x1
 6872 1e96 0502     		.2byte	0x205
 6873 1e98 D20F0000 		.4byte	0xfd2
 6874 1e9c 360A0000 		.4byte	.LLST72
 6875 1ea0 43       		.uleb128 0x43
 6876 1ea1 6F7000   		.ascii	"op\000"
 6877 1ea4 01       		.byte	0x1
 6878 1ea5 0702     		.2byte	0x207
 6879 1ea7 AE000000 		.4byte	0xae
 6880 1eab 02       		.uleb128 0x2
 6881 1eac 91       		.byte	0x91
 6882 1ead 6F       		.sleb128 -17
 6883 1eae 3A       		.uleb128 0x3a
 6884 1eaf 18000000 		.4byte	.LVL139
 6885 1eb3 B12F0000 		.4byte	0x2fb1
 6886 1eb7 3B       		.uleb128 0x3b
 6887 1eb8 26000000 		.4byte	.LVL140
 6888 1ebc E12F0000 		.4byte	0x2fe1
 6889 1ec0 D01E0000 		.4byte	0x1ed0
 6890 1ec4 37       		.uleb128 0x37
 6891 1ec5 01       		.uleb128 0x1
 6892 1ec6 51       		.byte	0x51
ARM GAS  /var/folders/m4/4md61f0s1_g0rzfghffqnxvr0000gn/T//cchEhHjd.s 			page 122


 6893 1ec7 01       		.uleb128 0x1
 6894 1ec8 31       		.byte	0x31
 6895 1ec9 37       		.uleb128 0x37
 6896 1eca 01       		.uleb128 0x1
 6897 1ecb 52       		.byte	0x52
 6898 1ecc 02       		.uleb128 0x2
 6899 1ecd 75       		.byte	0x75
 6900 1ece 00       		.sleb128 0
 6901 1ecf 00       		.byte	0
 6902 1ed0 3A       		.uleb128 0x3a
 6903 1ed1 30000000 		.4byte	.LVL141
 6904 1ed5 D52F0000 		.4byte	0x2fd5
 6905 1ed9 00       		.byte	0
 6906 1eda 40       		.uleb128 0x40
 6907 1edb 47070000 		.4byte	.LASF290
 6908 1edf 01       		.byte	0x1
 6909 1ee0 0E02     		.2byte	0x20e
 6910 1ee2 23120000 		.4byte	.LASF291
 6911 1ee6 00000000 		.4byte	.LFB302
 6912 1eea 34000000 		.4byte	.LFE302-.LFB302
 6913 1eee 01       		.uleb128 0x1
 6914 1eef 9C       		.byte	0x9c
 6915 1ef0 3E1F0000 		.4byte	0x1f3e
 6916 1ef4 41       		.uleb128 0x41
 6917 1ef5 5A0E0000 		.4byte	.LASF210
 6918 1ef9 01       		.byte	0x1
 6919 1efa 0E02     		.2byte	0x20e
 6920 1efc D20F0000 		.4byte	0xfd2
 6921 1f00 540A0000 		.4byte	.LLST73
 6922 1f04 43       		.uleb128 0x43
 6923 1f05 6F7000   		.ascii	"op\000"
 6924 1f08 01       		.byte	0x1
 6925 1f09 1002     		.2byte	0x210
 6926 1f0b AE000000 		.4byte	0xae
 6927 1f0f 02       		.uleb128 0x2
 6928 1f10 91       		.byte	0x91
 6929 1f11 6F       		.sleb128 -17
 6930 1f12 3A       		.uleb128 0x3a
 6931 1f13 18000000 		.4byte	.LVL144
 6932 1f17 B12F0000 		.4byte	0x2fb1
 6933 1f1b 3B       		.uleb128 0x3b
 6934 1f1c 26000000 		.4byte	.LVL145
 6935 1f20 E12F0000 		.4byte	0x2fe1
 6936 1f24 341F0000 		.4byte	0x1f34
 6937 1f28 37       		.uleb128 0x37
 6938 1f29 01       		.uleb128 0x1
 6939 1f2a 51       		.byte	0x51
 6940 1f2b 01       		.uleb128 0x1
 6941 1f2c 31       		.byte	0x31
 6942 1f2d 37       		.uleb128 0x37
 6943 1f2e 01       		.uleb128 0x1
 6944 1f2f 52       		.byte	0x52
 6945 1f30 02       		.uleb128 0x2
 6946 1f31 75       		.byte	0x75
 6947 1f32 00       		.sleb128 0
 6948 1f33 00       		.byte	0
 6949 1f34 3A       		.uleb128 0x3a
ARM GAS  /var/folders/m4/4md61f0s1_g0rzfghffqnxvr0000gn/T//cchEhHjd.s 			page 123


 6950 1f35 30000000 		.4byte	.LVL146
 6951 1f39 D52F0000 		.4byte	0x2fd5
 6952 1f3d 00       		.byte	0
 6953 1f3e 4D       		.uleb128 0x4d
 6954 1f3f 350B0000 		.4byte	.LASF292
 6955 1f43 01       		.byte	0x1
 6956 1f44 3A       		.byte	0x3a
 6957 1f45 890E0000 		.4byte	.LASF335
 6958 1f49 00000000 		.4byte	.LFB269
 6959 1f4d F0000000 		.4byte	.LFE269-.LFB269
 6960 1f51 01       		.uleb128 0x1
 6961 1f52 9C       		.byte	0x9c
 6962 1f53 DE210000 		.4byte	0x21de
 6963 1f57 4E       		.uleb128 0x4e
 6964 1f58 FC100000 		.4byte	0x10fc
 6965 1f5c 40000000 		.4byte	.LBB158
 6966 1f60 18000000 		.4byte	.Ldebug_ranges0+0x18
 6967 1f64 01       		.byte	0x1
 6968 1f65 44       		.byte	0x44
 6969 1f66 BF1F0000 		.4byte	0x1fbf
 6970 1f6a 33       		.uleb128 0x33
 6971 1f6b 0D110000 		.4byte	0x110d
 6972 1f6f 720A0000 		.4byte	.LLST74
 6973 1f73 3E       		.uleb128 0x3e
 6974 1f74 40000000 		.4byte	.LBB159
 6975 1f78 20000000 		.4byte	.LBE159-.LBB159
 6976 1f7c A41F0000 		.4byte	0x1fa4
 6977 1f80 3F       		.uleb128 0x3f
 6978 1f81 1A110000 		.4byte	0x111a
 6979 1f85 8A0A0000 		.4byte	.LLST75
 6980 1f89 35       		.uleb128 0x35
 6981 1f8a 7E0F0000 		.4byte	0xf7e
 6982 1f8e 56000000 		.4byte	.LBB160
 6983 1f92 04000000 		.4byte	.LBE160-.LBB160
 6984 1f96 01       		.byte	0x1
 6985 1f97 3D01     		.2byte	0x13d
 6986 1f99 33       		.uleb128 0x33
 6987 1f9a 8A0F0000 		.4byte	0xf8a
 6988 1f9e 9E0A0000 		.4byte	.LLST76
 6989 1fa2 00       		.byte	0
 6990 1fa3 00       		.byte	0
 6991 1fa4 4F       		.uleb128 0x4f
 6992 1fa5 7E0F0000 		.4byte	0xf7e
 6993 1fa9 60000000 		.4byte	.LBB162
 6994 1fad 30000000 		.4byte	.Ldebug_ranges0+0x30
 6995 1fb1 01       		.byte	0x1
 6996 1fb2 4001     		.2byte	0x140
 6997 1fb4 33       		.uleb128 0x33
 6998 1fb5 8A0F0000 		.4byte	0xf8a
 6999 1fb9 B10A0000 		.4byte	.LLST77
 7000 1fbd 00       		.byte	0
 7001 1fbe 00       		.byte	0
 7002 1fbf 4E       		.uleb128 0x4e
 7003 1fc0 D2100000 		.4byte	0x10d2
 7004 1fc4 64000000 		.4byte	.LBB166
 7005 1fc8 48000000 		.4byte	.Ldebug_ranges0+0x48
 7006 1fcc 01       		.byte	0x1
ARM GAS  /var/folders/m4/4md61f0s1_g0rzfghffqnxvr0000gn/T//cchEhHjd.s 			page 124


 7007 1fcd 45       		.byte	0x45
 7008 1fce E51F0000 		.4byte	0x1fe5
 7009 1fd2 33       		.uleb128 0x33
 7010 1fd3 EF100000 		.4byte	0x10ef
 7011 1fd7 C90A0000 		.4byte	.LLST78
 7012 1fdb 33       		.uleb128 0x33
 7013 1fdc E3100000 		.4byte	0x10e3
 7014 1fe0 E10A0000 		.4byte	.LLST79
 7015 1fe4 00       		.byte	0
 7016 1fe5 50       		.uleb128 0x50
 7017 1fe6 D80F0000 		.4byte	0xfd8
 7018 1fea 96000000 		.4byte	.LBB171
 7019 1fee 0A000000 		.4byte	.LBE171-.LBB171
 7020 1ff2 01       		.byte	0x1
 7021 1ff3 4D       		.byte	0x4d
 7022 1ff4 54200000 		.4byte	0x2054
 7023 1ff8 33       		.uleb128 0x33
 7024 1ff9 01100000 		.4byte	0x1001
 7025 1ffd F90A0000 		.4byte	.LLST80
 7026 2001 33       		.uleb128 0x33
 7027 2002 F50F0000 		.4byte	0xff5
 7028 2006 0E0B0000 		.4byte	.LLST81
 7029 200a 33       		.uleb128 0x33
 7030 200b E90F0000 		.4byte	0xfe9
 7031 200f 220B0000 		.4byte	.LLST82
 7032 2013 49       		.uleb128 0x49
 7033 2014 96000000 		.4byte	.LBB172
 7034 2018 0A000000 		.4byte	.LBE172-.LBB172
 7035 201c 33       		.uleb128 0x33
 7036 201d 01100000 		.4byte	0x1001
 7037 2021 F90A0000 		.4byte	.LLST80
 7038 2025 33       		.uleb128 0x33
 7039 2026 F50F0000 		.4byte	0xff5
 7040 202a 0E0B0000 		.4byte	.LLST81
 7041 202e 33       		.uleb128 0x33
 7042 202f E90F0000 		.4byte	0xfe9
 7043 2033 220B0000 		.4byte	.LLST82
 7044 2037 36       		.uleb128 0x36
 7045 2038 A0000000 		.4byte	.LVL163
 7046 203c 0B150000 		.4byte	0x150b
 7047 2040 37       		.uleb128 0x37
 7048 2041 01       		.uleb128 0x1
 7049 2042 50       		.byte	0x50
 7050 2043 02       		.uleb128 0x2
 7051 2044 74       		.byte	0x74
 7052 2045 00       		.sleb128 0
 7053 2046 37       		.uleb128 0x37
 7054 2047 01       		.uleb128 0x1
 7055 2048 51       		.byte	0x51
 7056 2049 01       		.uleb128 0x1
 7057 204a 41       		.byte	0x41
 7058 204b 37       		.uleb128 0x37
 7059 204c 01       		.uleb128 0x1
 7060 204d 52       		.byte	0x52
 7061 204e 02       		.uleb128 0x2
 7062 204f 08       		.byte	0x8
 7063 2050 20       		.byte	0x20
ARM GAS  /var/folders/m4/4md61f0s1_g0rzfghffqnxvr0000gn/T//cchEhHjd.s 			page 125


 7064 2051 00       		.byte	0
 7065 2052 00       		.byte	0
 7066 2053 00       		.byte	0
 7067 2054 50       		.uleb128 0x50
 7068 2055 A8100000 		.4byte	0x10a8
 7069 2059 AC000000 		.4byte	.LBB174
 7070 205d 0A000000 		.4byte	.LBE174-.LBB174
 7071 2061 01       		.byte	0x1
 7072 2062 51       		.byte	0x51
 7073 2063 95200000 		.4byte	0x2095
 7074 2067 33       		.uleb128 0x33
 7075 2068 C5100000 		.4byte	0x10c5
 7076 206c 3A0B0000 		.4byte	.LLST86
 7077 2070 33       		.uleb128 0x33
 7078 2071 B9100000 		.4byte	0x10b9
 7079 2075 4F0B0000 		.4byte	.LLST87
 7080 2079 36       		.uleb128 0x36
 7081 207a B6000000 		.4byte	.LVL166
 7082 207e 0B150000 		.4byte	0x150b
 7083 2082 37       		.uleb128 0x37
 7084 2083 01       		.uleb128 0x1
 7085 2084 50       		.byte	0x50
 7086 2085 02       		.uleb128 0x2
 7087 2086 74       		.byte	0x74
 7088 2087 00       		.sleb128 0
 7089 2088 37       		.uleb128 0x37
 7090 2089 01       		.uleb128 0x1
 7091 208a 51       		.byte	0x51
 7092 208b 01       		.uleb128 0x1
 7093 208c 37       		.byte	0x37
 7094 208d 37       		.uleb128 0x37
 7095 208e 01       		.uleb128 0x1
 7096 208f 52       		.byte	0x52
 7097 2090 02       		.uleb128 0x2
 7098 2091 08       		.byte	0x8
 7099 2092 70       		.byte	0x70
 7100 2093 00       		.byte	0
 7101 2094 00       		.byte	0
 7102 2095 3B       		.uleb128 0x3b
 7103 2096 10000000 		.4byte	.LVL147
 7104 209a ED2F0000 		.4byte	0x2fed
 7105 209e B3200000 		.4byte	0x20b3
 7106 20a2 37       		.uleb128 0x37
 7107 20a3 01       		.uleb128 0x1
 7108 20a4 50       		.byte	0x50
 7109 20a5 02       		.uleb128 0x2
 7110 20a6 75       		.byte	0x75
 7111 20a7 00       		.sleb128 0
 7112 20a8 37       		.uleb128 0x37
 7113 20a9 01       		.uleb128 0x1
 7114 20aa 51       		.byte	0x51
 7115 20ab 01       		.uleb128 0x1
 7116 20ac 40       		.byte	0x40
 7117 20ad 37       		.uleb128 0x37
 7118 20ae 01       		.uleb128 0x1
 7119 20af 52       		.byte	0x52
 7120 20b0 01       		.uleb128 0x1
ARM GAS  /var/folders/m4/4md61f0s1_g0rzfghffqnxvr0000gn/T//cchEhHjd.s 			page 126


 7121 20b1 31       		.byte	0x31
 7122 20b2 00       		.byte	0
 7123 20b3 3B       		.uleb128 0x3b
 7124 20b4 1E000000 		.4byte	.LVL148
 7125 20b8 ED2F0000 		.4byte	0x2fed
 7126 20bc D1200000 		.4byte	0x20d1
 7127 20c0 37       		.uleb128 0x37
 7128 20c1 01       		.uleb128 0x1
 7129 20c2 50       		.byte	0x50
 7130 20c3 02       		.uleb128 0x2
 7131 20c4 74       		.byte	0x74
 7132 20c5 00       		.sleb128 0
 7133 20c6 37       		.uleb128 0x37
 7134 20c7 01       		.uleb128 0x1
 7135 20c8 51       		.byte	0x51
 7136 20c9 01       		.uleb128 0x1
 7137 20ca 32       		.byte	0x32
 7138 20cb 37       		.uleb128 0x37
 7139 20cc 01       		.uleb128 0x1
 7140 20cd 52       		.byte	0x52
 7141 20ce 01       		.uleb128 0x1
 7142 20cf 31       		.byte	0x31
 7143 20d0 00       		.byte	0
 7144 20d1 3B       		.uleb128 0x3b
 7145 20d2 2E000000 		.4byte	.LVL149
 7146 20d6 ED2F0000 		.4byte	0x2fed
 7147 20da F4200000 		.4byte	0x20f4
 7148 20de 37       		.uleb128 0x37
 7149 20df 01       		.uleb128 0x1
 7150 20e0 50       		.byte	0x50
 7151 20e1 05       		.uleb128 0x5
 7152 20e2 0C       		.byte	0xc
 7153 20e3 00080240 		.4byte	0x40020800
 7154 20e7 37       		.uleb128 0x37
 7155 20e8 01       		.uleb128 0x1
 7156 20e9 51       		.byte	0x51
 7157 20ea 02       		.uleb128 0x2
 7158 20eb 08       		.byte	0x8
 7159 20ec 20       		.byte	0x20
 7160 20ed 37       		.uleb128 0x37
 7161 20ee 01       		.uleb128 0x1
 7162 20ef 52       		.byte	0x52
 7163 20f0 02       		.uleb128 0x2
 7164 20f1 08       		.byte	0x8
 7165 20f2 20       		.byte	0x20
 7166 20f3 00       		.byte	0
 7167 20f4 3B       		.uleb128 0x3b
 7168 20f5 36000000 		.4byte	.LVL150
 7169 20f9 F92F0000 		.4byte	0x2ff9
 7170 20fd 0B210000 		.4byte	0x210b
 7171 2101 37       		.uleb128 0x37
 7172 2102 01       		.uleb128 0x1
 7173 2103 51       		.byte	0x51
 7174 2104 05       		.uleb128 0x5
 7175 2105 03       		.byte	0x3
 7176 2106 00000000 		.4byte	.LANCHOR3
 7177 210a 00       		.byte	0
ARM GAS  /var/folders/m4/4md61f0s1_g0rzfghffqnxvr0000gn/T//cchEhHjd.s 			page 127


 7178 210b 3B       		.uleb128 0x3b
 7179 210c 3E000000 		.4byte	.LVL151
 7180 2110 05300000 		.4byte	0x3005
 7181 2114 22210000 		.4byte	0x2122
 7182 2118 37       		.uleb128 0x37
 7183 2119 01       		.uleb128 0x1
 7184 211a 51       		.byte	0x51
 7185 211b 05       		.uleb128 0x5
 7186 211c 03       		.byte	0x3
 7187 211d 00000000 		.4byte	.LANCHOR4
 7188 2121 00       		.byte	0
 7189 2122 3B       		.uleb128 0x3b
 7190 2123 76000000 		.4byte	.LVL158
 7191 2127 10300000 		.4byte	0x3010
 7192 212b 35210000 		.4byte	0x2135
 7193 212f 37       		.uleb128 0x37
 7194 2130 01       		.uleb128 0x1
 7195 2131 51       		.byte	0x51
 7196 2132 01       		.uleb128 0x1
 7197 2133 35       		.byte	0x35
 7198 2134 00       		.byte	0
 7199 2135 3B       		.uleb128 0x3b
 7200 2136 7C000000 		.4byte	.LVL159
 7201 213a C61D0000 		.4byte	0x1dc6
 7202 213e 49210000 		.4byte	0x2149
 7203 2142 37       		.uleb128 0x37
 7204 2143 01       		.uleb128 0x1
 7205 2144 50       		.byte	0x50
 7206 2145 02       		.uleb128 0x2
 7207 2146 74       		.byte	0x74
 7208 2147 00       		.sleb128 0
 7209 2148 00       		.byte	0
 7210 2149 3B       		.uleb128 0x3b
 7211 214a 84000000 		.4byte	.LVL160
 7212 214e 741B0000 		.4byte	0x1b74
 7213 2152 63210000 		.4byte	0x2163
 7214 2156 37       		.uleb128 0x37
 7215 2157 01       		.uleb128 0x1
 7216 2158 50       		.byte	0x50
 7217 2159 02       		.uleb128 0x2
 7218 215a 74       		.byte	0x74
 7219 215b 00       		.sleb128 0
 7220 215c 37       		.uleb128 0x37
 7221 215d 01       		.uleb128 0x1
 7222 215e 51       		.byte	0x51
 7223 215f 02       		.uleb128 0x2
 7224 2160 08       		.byte	0x8
 7225 2161 3F       		.byte	0x3f
 7226 2162 00       		.byte	0
 7227 2163 3B       		.uleb128 0x3b
 7228 2164 8C000000 		.4byte	.LVL161
 7229 2168 691A0000 		.4byte	0x1a69
 7230 216c 80210000 		.4byte	0x2180
 7231 2170 37       		.uleb128 0x37
 7232 2171 01       		.uleb128 0x1
 7233 2172 50       		.byte	0x50
 7234 2173 02       		.uleb128 0x2
ARM GAS  /var/folders/m4/4md61f0s1_g0rzfghffqnxvr0000gn/T//cchEhHjd.s 			page 128


 7235 2174 74       		.byte	0x74
 7236 2175 00       		.sleb128 0
 7237 2176 37       		.uleb128 0x37
 7238 2177 01       		.uleb128 0x1
 7239 2178 51       		.byte	0x51
 7240 2179 05       		.uleb128 0x5
 7241 217a 03       		.byte	0x3
 7242 217b 00000000 		.4byte	.LANCHOR6
 7243 217f 00       		.byte	0
 7244 2180 3B       		.uleb128 0x3b
 7245 2181 96000000 		.4byte	.LVL162
 7246 2185 9C0F0000 		.4byte	0xf9c
 7247 2189 A2210000 		.4byte	0x21a2
 7248 218d 37       		.uleb128 0x37
 7249 218e 01       		.uleb128 0x1
 7250 218f 50       		.byte	0x50
 7251 2190 02       		.uleb128 0x2
 7252 2191 74       		.byte	0x74
 7253 2192 00       		.sleb128 0
 7254 2193 37       		.uleb128 0x37
 7255 2194 01       		.uleb128 0x1
 7256 2195 51       		.byte	0x51
 7257 2196 01       		.uleb128 0x1
 7258 2197 30       		.byte	0x30
 7259 2198 37       		.uleb128 0x37
 7260 2199 01       		.uleb128 0x1
 7261 219a 52       		.byte	0x52
 7262 219b 05       		.uleb128 0x5
 7263 219c 03       		.byte	0x3
 7264 219d 00000000 		.4byte	.LANCHOR6
 7265 21a1 00       		.byte	0
 7266 21a2 3B       		.uleb128 0x3b
 7267 21a3 A6000000 		.4byte	.LVL164
 7268 21a7 761E0000 		.4byte	0x1e76
 7269 21ab B6210000 		.4byte	0x21b6
 7270 21af 37       		.uleb128 0x37
 7271 21b0 01       		.uleb128 0x1
 7272 21b1 50       		.byte	0x50
 7273 21b2 02       		.uleb128 0x2
 7274 21b3 74       		.byte	0x74
 7275 21b4 00       		.sleb128 0
 7276 21b5 00       		.byte	0
 7277 21b6 3B       		.uleb128 0x3b
 7278 21b7 AC000000 		.4byte	.LVL165
 7279 21bb DA1E0000 		.4byte	0x1eda
 7280 21bf CA210000 		.4byte	0x21ca
 7281 21c3 37       		.uleb128 0x37
 7282 21c4 01       		.uleb128 0x1
 7283 21c5 50       		.byte	0x50
 7284 21c6 02       		.uleb128 0x2
 7285 21c7 74       		.byte	0x74
 7286 21c8 00       		.sleb128 0
 7287 21c9 00       		.byte	0
 7288 21ca 47       		.uleb128 0x47
 7289 21cb C0000000 		.4byte	.LVL167
 7290 21cf E3170000 		.4byte	0x17e3
 7291 21d3 37       		.uleb128 0x37
ARM GAS  /var/folders/m4/4md61f0s1_g0rzfghffqnxvr0000gn/T//cchEhHjd.s 			page 129


 7292 21d4 01       		.uleb128 0x1
 7293 21d5 50       		.byte	0x50
 7294 21d6 05       		.uleb128 0x5
 7295 21d7 03       		.byte	0x3
 7296 21d8 00000000 		.4byte	.LANCHOR0
 7297 21dc 00       		.byte	0
 7298 21dd 00       		.byte	0
 7299 21de 44       		.uleb128 0x44
 7300 21df 81110000 		.4byte	.LASF293
 7301 21e3 01       		.byte	0x1
 7302 21e4 1702     		.2byte	0x217
 7303 21e6 1D010000 		.4byte	.LASF294
 7304 21ea AE000000 		.4byte	0xae
 7305 21ee 00000000 		.4byte	.LFB303
 7306 21f2 46000000 		.4byte	.LFE303-.LFB303
 7307 21f6 01       		.uleb128 0x1
 7308 21f7 9C       		.byte	0x9c
 7309 21f8 5B220000 		.4byte	0x225b
 7310 21fc 41       		.uleb128 0x41
 7311 21fd 5A0E0000 		.4byte	.LASF210
 7312 2201 01       		.byte	0x1
 7313 2202 1702     		.2byte	0x217
 7314 2204 D20F0000 		.4byte	0xfd2
 7315 2208 670B0000 		.4byte	.LLST88
 7316 220c 43       		.uleb128 0x43
 7317 220d 6F7000   		.ascii	"op\000"
 7318 2210 01       		.byte	0x1
 7319 2211 1902     		.2byte	0x219
 7320 2213 8F150000 		.4byte	0x158f
 7321 2217 02       		.uleb128 0x2
 7322 2218 91       		.byte	0x91
 7323 2219 70       		.sleb128 -16
 7324 221a 45       		.uleb128 0x45
 7325 221b 64130000 		.4byte	.LASF232
 7326 221f 01       		.byte	0x1
 7327 2220 1A02     		.2byte	0x21a
 7328 2222 8F150000 		.4byte	0x158f
 7329 2226 02       		.uleb128 0x2
 7330 2227 91       		.byte	0x91
 7331 2228 74       		.sleb128 -12
 7332 2229 3A       		.uleb128 0x3a
 7333 222a 24000000 		.4byte	.LVL170
 7334 222e B12F0000 		.4byte	0x2fb1
 7335 2232 3B       		.uleb128 0x3b
 7336 2233 34000000 		.4byte	.LVL171
 7337 2237 BD2F0000 		.4byte	0x2fbd
 7338 223b 51220000 		.4byte	0x2251
 7339 223f 37       		.uleb128 0x37
 7340 2240 01       		.uleb128 0x1
 7341 2241 51       		.byte	0x51
 7342 2242 01       		.uleb128 0x1
 7343 2243 32       		.byte	0x32
 7344 2244 37       		.uleb128 0x37
 7345 2245 01       		.uleb128 0x1
 7346 2246 52       		.byte	0x52
 7347 2247 02       		.uleb128 0x2
 7348 2248 7D       		.byte	0x7d
ARM GAS  /var/folders/m4/4md61f0s1_g0rzfghffqnxvr0000gn/T//cchEhHjd.s 			page 130


 7349 2249 00       		.sleb128 0
 7350 224a 37       		.uleb128 0x37
 7351 224b 01       		.uleb128 0x1
 7352 224c 53       		.byte	0x53
 7353 224d 02       		.uleb128 0x2
 7354 224e 91       		.byte	0x91
 7355 224f 74       		.sleb128 -12
 7356 2250 00       		.byte	0
 7357 2251 3A       		.uleb128 0x3a
 7358 2252 3E000000 		.4byte	.LVL172
 7359 2256 D52F0000 		.4byte	0x2fd5
 7360 225a 00       		.byte	0
 7361 225b 40       		.uleb128 0x40
 7362 225c 150B0000 		.4byte	.LASF295
 7363 2260 01       		.byte	0x1
 7364 2261 2302     		.2byte	0x223
 7365 2263 EC120000 		.4byte	.LASF296
 7366 2267 00000000 		.4byte	.LFB304
 7367 226b 3A000000 		.4byte	.LFE304-.LFB304
 7368 226f 01       		.uleb128 0x1
 7369 2270 9C       		.byte	0x9c
 7370 2271 C4220000 		.4byte	0x22c4
 7371 2275 41       		.uleb128 0x41
 7372 2276 5A0E0000 		.4byte	.LASF210
 7373 227a 01       		.byte	0x1
 7374 227b 2302     		.2byte	0x223
 7375 227d D20F0000 		.4byte	0xfd2
 7376 2281 850B0000 		.4byte	.LLST89
 7377 2285 46       		.uleb128 0x46
 7378 2286 72656700 		.ascii	"reg\000"
 7379 228a 01       		.byte	0x1
 7380 228b 2702     		.2byte	0x227
 7381 228d AE000000 		.4byte	0xae
 7382 2291 A30B0000 		.4byte	.LLST90
 7383 2295 3B       		.uleb128 0x3b
 7384 2296 1C000000 		.4byte	.LVL174
 7385 229a 9F150000 		.4byte	0x159f
 7386 229e AE220000 		.4byte	0x22ae
 7387 22a2 37       		.uleb128 0x37
 7388 22a3 01       		.uleb128 0x1
 7389 22a4 50       		.byte	0x50
 7390 22a5 02       		.uleb128 0x2
 7391 22a6 75       		.byte	0x75
 7392 22a7 00       		.sleb128 0
 7393 22a8 37       		.uleb128 0x37
 7394 22a9 01       		.uleb128 0x1
 7395 22aa 51       		.byte	0x51
 7396 22ab 01       		.uleb128 0x1
 7397 22ac 30       		.byte	0x30
 7398 22ad 00       		.byte	0
 7399 22ae 36       		.uleb128 0x36
 7400 22af 2A000000 		.4byte	.LVL176
 7401 22b3 0B150000 		.4byte	0x150b
 7402 22b7 37       		.uleb128 0x37
 7403 22b8 01       		.uleb128 0x1
 7404 22b9 50       		.byte	0x50
 7405 22ba 02       		.uleb128 0x2
ARM GAS  /var/folders/m4/4md61f0s1_g0rzfghffqnxvr0000gn/T//cchEhHjd.s 			page 131


 7406 22bb 75       		.byte	0x75
 7407 22bc 00       		.sleb128 0
 7408 22bd 37       		.uleb128 0x37
 7409 22be 01       		.uleb128 0x1
 7410 22bf 51       		.byte	0x51
 7411 22c0 01       		.uleb128 0x1
 7412 22c1 30       		.byte	0x30
 7413 22c2 00       		.byte	0
 7414 22c3 00       		.byte	0
 7415 22c4 51       		.uleb128 0x51
 7416 22c5 0D020000 		.4byte	.LASF208
 7417 22c9 01       		.byte	0x1
 7418 22ca 92       		.byte	0x92
 7419 22cb 2C000000 		.4byte	0x2c
 7420 22cf 00000000 		.4byte	.LFB271
 7421 22d3 32020000 		.4byte	.LFE271-.LFB271
 7422 22d7 01       		.uleb128 0x1
 7423 22d8 9C       		.byte	0x9c
 7424 22d9 70270000 		.4byte	0x2770
 7425 22dd 31       		.uleb128 0x31
 7426 22de 0E010000 		.4byte	.LASF246
 7427 22e2 01       		.byte	0x1
 7428 22e3 92       		.byte	0x92
 7429 22e4 A8030000 		.4byte	0x3a8
 7430 22e8 BA0B0000 		.4byte	.LLST91
 7431 22ec 52       		.uleb128 0x52
 7432 22ed 627000   		.ascii	"bp\000"
 7433 22f0 01       		.byte	0x1
 7434 22f1 92       		.byte	0x92
 7435 22f2 17090000 		.4byte	0x917
 7436 22f6 F10B0000 		.4byte	.LLST92
 7437 22fa 52       		.uleb128 0x52
 7438 22fb 6E00     		.ascii	"n\000"
 7439 22fd 01       		.byte	0x1
 7440 22fe 92       		.byte	0x92
 7441 22ff 2C000000 		.4byte	0x2c
 7442 2303 0F0C0000 		.4byte	.LLST93
 7443 2307 31       		.uleb128 0x31
 7444 2308 040F0000 		.4byte	.LASF247
 7445 230c 01       		.byte	0x1
 7446 230d 92       		.byte	0x92
 7447 230e 48010000 		.4byte	0x148
 7448 2312 2D0C0000 		.4byte	.LLST94
 7449 2316 53       		.uleb128 0x53
 7450 2317 A20E0000 		.4byte	.LASF297
 7451 231b 01       		.byte	0x1
 7452 231c 94       		.byte	0x94
 7453 231d 99080000 		.4byte	0x899
 7454 2321 02       		.uleb128 0x2
 7455 2322 91       		.byte	0x91
 7456 2323 44       		.sleb128 -60
 7457 2324 53       		.uleb128 0x53
 7458 2325 5A0E0000 		.4byte	.LASF210
 7459 2329 01       		.byte	0x1
 7460 232a 95       		.byte	0x95
 7461 232b D20F0000 		.4byte	0xfd2
 7462 232f 01       		.uleb128 0x1
ARM GAS  /var/folders/m4/4md61f0s1_g0rzfghffqnxvr0000gn/T//cchEhHjd.s 			page 132


 7463 2330 5A       		.byte	0x5a
 7464 2331 54       		.uleb128 0x54
 7465 2332 63687000 		.ascii	"chp\000"
 7466 2336 01       		.byte	0x1
 7467 2337 96       		.byte	0x96
 7468 2338 FF110000 		.4byte	0x11ff
 7469 233c 7E0C0000 		.4byte	.LLST95
 7470 2340 55       		.uleb128 0x55
 7471 2341 2D110000 		.4byte	.LASF298
 7472 2345 01       		.byte	0x1
 7473 2346 A4       		.byte	0xa4
 7474 2347 B9000000 		.4byte	0xb9
 7475 234b 9D0C0000 		.4byte	.LLST96
 7476 234f 3E       		.uleb128 0x3e
 7477 2350 12000000 		.4byte	.LBB176
 7478 2354 0C000000 		.4byte	.LBE176-.LBB176
 7479 2358 6A230000 		.4byte	0x236a
 7480 235c 54       		.uleb128 0x54
 7481 235d 6900     		.ascii	"i\000"
 7482 235f 01       		.byte	0x1
 7483 2360 98       		.byte	0x98
 7484 2361 25000000 		.4byte	0x25
 7485 2365 D20C0000 		.4byte	.LLST97
 7486 2369 00       		.byte	0
 7487 236a 50       		.uleb128 0x50
 7488 236b 26110000 		.4byte	0x1126
 7489 236f 2C000000 		.4byte	.LBB177
 7490 2373 12000000 		.4byte	.LBE177-.LBB177
 7491 2377 01       		.byte	0x1
 7492 2378 A6       		.byte	0xa6
 7493 2379 BC230000 		.4byte	0x23bc
 7494 237d 33       		.uleb128 0x33
 7495 237e 48110000 		.4byte	0x1148
 7496 2382 E60C0000 		.4byte	.LLST98
 7497 2386 33       		.uleb128 0x33
 7498 2387 3D110000 		.4byte	0x113d
 7499 238b FA0C0000 		.4byte	.LLST99
 7500 238f 33       		.uleb128 0x33
 7501 2390 32110000 		.4byte	0x1132
 7502 2394 270D0000 		.4byte	.LLST100
 7503 2398 36       		.uleb128 0x36
 7504 2399 3E000000 		.4byte	.LVL187
 7505 239d 1B300000 		.4byte	0x301b
 7506 23a1 37       		.uleb128 0x37
 7507 23a2 01       		.uleb128 0x1
 7508 23a3 50       		.byte	0x50
 7509 23a4 04       		.uleb128 0x4
 7510 23a5 91       		.byte	0x91
 7511 23a6 BC7F     		.sleb128 -68
 7512 23a8 06       		.byte	0x6
 7513 23a9 37       		.uleb128 0x37
 7514 23aa 01       		.uleb128 0x1
 7515 23ab 51       		.byte	0x51
 7516 23ac 02       		.uleb128 0x2
 7517 23ad 91       		.byte	0x91
 7518 23ae 44       		.sleb128 -60
 7519 23af 37       		.uleb128 0x37
ARM GAS  /var/folders/m4/4md61f0s1_g0rzfghffqnxvr0000gn/T//cchEhHjd.s 			page 133


 7520 23b0 01       		.uleb128 0x1
 7521 23b1 52       		.byte	0x52
 7522 23b2 01       		.uleb128 0x1
 7523 23b3 31       		.byte	0x31
 7524 23b4 37       		.uleb128 0x37
 7525 23b5 01       		.uleb128 0x1
 7526 23b6 53       		.byte	0x53
 7527 23b7 02       		.uleb128 0x2
 7528 23b8 09       		.byte	0x9
 7529 23b9 FF       		.byte	0xff
 7530 23ba 00       		.byte	0
 7531 23bb 00       		.byte	0
 7532 23bc 48       		.uleb128 0x48
 7533 23bd 60000000 		.4byte	.Ldebug_ranges0+0x60
 7534 23c1 0D270000 		.4byte	0x270d
 7535 23c5 55       		.uleb128 0x55
 7536 23c6 A50F0000 		.4byte	.LASF299
 7537 23ca 01       		.byte	0x1
 7538 23cb B5       		.byte	0xb5
 7539 23cc AE000000 		.4byte	0xae
 7540 23d0 3C0D0000 		.4byte	.LLST101
 7541 23d4 48       		.uleb128 0x48
 7542 23d5 98000000 		.4byte	.Ldebug_ranges0+0x98
 7543 23d9 00240000 		.4byte	0x2400
 7544 23dd 54       		.uleb128 0x54
 7545 23de 6C656E00 		.ascii	"len\000"
 7546 23e2 01       		.byte	0x1
 7547 23e3 AE       		.byte	0xae
 7548 23e4 AE000000 		.4byte	0xae
 7549 23e8 4F0D0000 		.4byte	.LLST102
 7550 23ec 56       		.uleb128 0x56
 7551 23ed B0000000 		.4byte	.Ldebug_ranges0+0xb0
 7552 23f1 54       		.uleb128 0x54
 7553 23f2 6900     		.ascii	"i\000"
 7554 23f4 01       		.byte	0x1
 7555 23f5 AF       		.byte	0xaf
 7556 23f6 AE000000 		.4byte	0xae
 7557 23fa 620D0000 		.4byte	.LLST103
 7558 23fe 00       		.byte	0
 7559 23ff 00       		.byte	0
 7560 2400 50       		.uleb128 0x50
 7561 2401 54110000 		.4byte	0x1154
 7562 2405 B2000000 		.4byte	.LBB186
 7563 2409 08000000 		.4byte	.LBE186-.LBB186
 7564 240d 01       		.byte	0x1
 7565 240e B5       		.byte	0xb5
 7566 240f 32240000 		.4byte	0x2432
 7567 2413 33       		.uleb128 0x33
 7568 2414 69110000 		.4byte	0x1169
 7569 2418 810D0000 		.4byte	.LLST104
 7570 241c 36       		.uleb128 0x36
 7571 241d BA000000 		.4byte	.LVL201
 7572 2421 9F150000 		.4byte	0x159f
 7573 2425 37       		.uleb128 0x37
 7574 2426 01       		.uleb128 0x1
 7575 2427 50       		.byte	0x50
 7576 2428 02       		.uleb128 0x2
ARM GAS  /var/folders/m4/4md61f0s1_g0rzfghffqnxvr0000gn/T//cchEhHjd.s 			page 134


 7577 2429 7A       		.byte	0x7a
 7578 242a 00       		.sleb128 0
 7579 242b 37       		.uleb128 0x37
 7580 242c 01       		.uleb128 0x1
 7581 242d 51       		.byte	0x51
 7582 242e 01       		.uleb128 0x1
 7583 242f 47       		.byte	0x47
 7584 2430 00       		.byte	0
 7585 2431 00       		.byte	0
 7586 2432 48       		.uleb128 0x48
 7587 2433 C8000000 		.4byte	.Ldebug_ranges0+0xc8
 7588 2437 68260000 		.4byte	0x2668
 7589 243b 53       		.uleb128 0x53
 7590 243c 86090000 		.4byte	.LASF223
 7591 2440 01       		.byte	0x1
 7592 2441 B9       		.byte	0xb9
 7593 2442 AE000000 		.4byte	0xae
 7594 2446 02       		.uleb128 0x2
 7595 2447 91       		.byte	0x91
 7596 2448 43       		.sleb128 -61
 7597 2449 55       		.uleb128 0x55
 7598 244a 7C020000 		.4byte	.LASF300
 7599 244e 01       		.byte	0x1
 7600 244f BA       		.byte	0xba
 7601 2450 AE000000 		.4byte	0xae
 7602 2454 940D0000 		.4byte	.LLST105
 7603 2458 55       		.uleb128 0x55
 7604 2459 51080000 		.4byte	.LASF301
 7605 245d 01       		.byte	0x1
 7606 245e BB       		.byte	0xbb
 7607 245f FF110000 		.4byte	0x11ff
 7608 2463 E90D0000 		.4byte	.LLST106
 7609 2467 4E       		.uleb128 0x4e
 7610 2468 0E100000 		.4byte	0x100e
 7611 246c F0000000 		.4byte	.LBB193
 7612 2470 F0000000 		.4byte	.Ldebug_ranges0+0xf0
 7613 2474 01       		.byte	0x1
 7614 2475 C3       		.byte	0xc3
 7615 2476 D6240000 		.4byte	0x24d6
 7616 247a 33       		.uleb128 0x33
 7617 247b 43100000 		.4byte	0x1043
 7618 247f 3D0E0000 		.4byte	.LLST107
 7619 2483 4A       		.uleb128 0x4a
 7620 2484 37100000 		.4byte	0x1037
 7621 2488 33       		.uleb128 0x33
 7622 2489 2B100000 		.4byte	0x102b
 7623 248d 770E0000 		.4byte	.LLST108
 7624 2491 4A       		.uleb128 0x4a
 7625 2492 1F100000 		.4byte	0x101f
 7626 2496 56       		.uleb128 0x56
 7627 2497 F0000000 		.4byte	.Ldebug_ranges0+0xf0
 7628 249b 4C       		.uleb128 0x4c
 7629 249c 4F100000 		.4byte	0x104f
 7630 24a0 4C       		.uleb128 0x4c
 7631 24a1 5A100000 		.4byte	0x105a
 7632 24a5 36       		.uleb128 0x36
 7633 24a6 9E010000 		.4byte	.LVL222
ARM GAS  /var/folders/m4/4md61f0s1_g0rzfghffqnxvr0000gn/T//cchEhHjd.s 			page 135


 7634 24aa 6C130000 		.4byte	0x136c
 7635 24ae 37       		.uleb128 0x37
 7636 24af 01       		.uleb128 0x1
 7637 24b0 50       		.byte	0x50
 7638 24b1 02       		.uleb128 0x2
 7639 24b2 7A       		.byte	0x7a
 7640 24b3 00       		.sleb128 0
 7641 24b4 37       		.uleb128 0x37
 7642 24b5 01       		.uleb128 0x1
 7643 24b6 51       		.byte	0x51
 7644 24b7 02       		.uleb128 0x2
 7645 24b8 78       		.byte	0x78
 7646 24b9 00       		.sleb128 0
 7647 24ba 37       		.uleb128 0x37
 7648 24bb 01       		.uleb128 0x1
 7649 24bc 52       		.byte	0x52
 7650 24bd 0F       		.uleb128 0xf
 7651 24be 79       		.byte	0x79
 7652 24bf 00       		.sleb128 0
 7653 24c0 75       		.byte	0x75
 7654 24c1 00       		.sleb128 0
 7655 24c2 22       		.byte	0x22
 7656 24c3 34       		.byte	0x34
 7657 24c4 24       		.byte	0x24
 7658 24c5 7A       		.byte	0x7a
 7659 24c6 00       		.sleb128 0
 7660 24c7 22       		.byte	0x22
 7661 24c8 78       		.byte	0x78
 7662 24c9 00       		.sleb128 0
 7663 24ca 1C       		.byte	0x1c
 7664 24cb 23       		.byte	0x23
 7665 24cc 28       		.uleb128 0x28
 7666 24cd 37       		.uleb128 0x37
 7667 24ce 01       		.uleb128 0x1
 7668 24cf 53       		.byte	0x53
 7669 24d0 02       		.uleb128 0x2
 7670 24d1 91       		.byte	0x91
 7671 24d2 43       		.sleb128 -61
 7672 24d3 00       		.byte	0
 7673 24d4 00       		.byte	0
 7674 24d5 00       		.byte	0
 7675 24d6 3E       		.uleb128 0x3e
 7676 24d7 3E010000 		.4byte	.LBB197
 7677 24db 2C000000 		.4byte	.LBE197-.LBB197
 7678 24df F1240000 		.4byte	0x24f1
 7679 24e3 54       		.uleb128 0x54
 7680 24e4 6900     		.ascii	"i\000"
 7681 24e6 01       		.byte	0x1
 7682 24e7 C9       		.byte	0xc9
 7683 24e8 AE000000 		.4byte	0xae
 7684 24ec 950E0000 		.4byte	.LLST109
 7685 24f0 00       		.byte	0
 7686 24f1 4E       		.uleb128 0x4e
 7687 24f2 0E100000 		.4byte	0x100e
 7688 24f6 6A010000 		.4byte	.LBB198
 7689 24fa 08010000 		.4byte	.Ldebug_ranges0+0x108
 7690 24fe 01       		.byte	0x1
ARM GAS  /var/folders/m4/4md61f0s1_g0rzfghffqnxvr0000gn/T//cchEhHjd.s 			page 136


 7691 24ff CC       		.byte	0xcc
 7692 2500 60250000 		.4byte	0x2560
 7693 2504 33       		.uleb128 0x33
 7694 2505 43100000 		.4byte	0x1043
 7695 2509 BE0E0000 		.4byte	.LLST110
 7696 250d 4A       		.uleb128 0x4a
 7697 250e 37100000 		.4byte	0x1037
 7698 2512 33       		.uleb128 0x33
 7699 2513 2B100000 		.4byte	0x102b
 7700 2517 F80E0000 		.4byte	.LLST111
 7701 251b 4A       		.uleb128 0x4a
 7702 251c 1F100000 		.4byte	0x101f
 7703 2520 56       		.uleb128 0x56
 7704 2521 08010000 		.4byte	.Ldebug_ranges0+0x108
 7705 2525 4C       		.uleb128 0x4c
 7706 2526 4F100000 		.4byte	0x104f
 7707 252a 4C       		.uleb128 0x4c
 7708 252b 5A100000 		.4byte	0x105a
 7709 252f 36       		.uleb128 0x36
 7710 2530 E6010000 		.4byte	.LVL235
 7711 2534 6C130000 		.4byte	0x136c
 7712 2538 37       		.uleb128 0x37
 7713 2539 01       		.uleb128 0x1
 7714 253a 50       		.byte	0x50
 7715 253b 02       		.uleb128 0x2
 7716 253c 7A       		.byte	0x7a
 7717 253d 00       		.sleb128 0
 7718 253e 37       		.uleb128 0x37
 7719 253f 01       		.uleb128 0x1
 7720 2540 51       		.byte	0x51
 7721 2541 02       		.uleb128 0x2
 7722 2542 78       		.byte	0x78
 7723 2543 00       		.sleb128 0
 7724 2544 37       		.uleb128 0x37
 7725 2545 01       		.uleb128 0x1
 7726 2546 52       		.byte	0x52
 7727 2547 0F       		.uleb128 0xf
 7728 2548 79       		.byte	0x79
 7729 2549 00       		.sleb128 0
 7730 254a 75       		.byte	0x75
 7731 254b 00       		.sleb128 0
 7732 254c 22       		.byte	0x22
 7733 254d 34       		.byte	0x34
 7734 254e 24       		.byte	0x24
 7735 254f 7A       		.byte	0x7a
 7736 2550 00       		.sleb128 0
 7737 2551 22       		.byte	0x22
 7738 2552 78       		.byte	0x78
 7739 2553 00       		.sleb128 0
 7740 2554 1C       		.byte	0x1c
 7741 2555 23       		.byte	0x23
 7742 2556 28       		.uleb128 0x28
 7743 2557 37       		.uleb128 0x37
 7744 2558 01       		.uleb128 0x1
 7745 2559 53       		.byte	0x53
 7746 255a 02       		.uleb128 0x2
 7747 255b 91       		.byte	0x91
ARM GAS  /var/folders/m4/4md61f0s1_g0rzfghffqnxvr0000gn/T//cchEhHjd.s 			page 137


 7748 255c 43       		.sleb128 -61
 7749 255d 00       		.byte	0
 7750 255e 00       		.byte	0
 7751 255f 00       		.byte	0
 7752 2560 4E       		.uleb128 0x4e
 7753 2561 0E100000 		.4byte	0x100e
 7754 2565 A6010000 		.4byte	.LBB207
 7755 2569 20010000 		.4byte	.Ldebug_ranges0+0x120
 7756 256d 01       		.byte	0x1
 7757 256e D5       		.byte	0xd5
 7758 256f C5250000 		.4byte	0x25c5
 7759 2573 33       		.uleb128 0x33
 7760 2574 43100000 		.4byte	0x1043
 7761 2578 160F0000 		.4byte	.LLST112
 7762 257c 4A       		.uleb128 0x4a
 7763 257d 37100000 		.4byte	0x1037
 7764 2581 33       		.uleb128 0x33
 7765 2582 2B100000 		.4byte	0x102b
 7766 2586 500F0000 		.4byte	.LLST113
 7767 258a 4A       		.uleb128 0x4a
 7768 258b 1F100000 		.4byte	0x101f
 7769 258f 56       		.uleb128 0x56
 7770 2590 20010000 		.4byte	.Ldebug_ranges0+0x120
 7771 2594 4C       		.uleb128 0x4c
 7772 2595 4F100000 		.4byte	0x104f
 7773 2599 4C       		.uleb128 0x4c
 7774 259a 5A100000 		.4byte	0x105a
 7775 259e 36       		.uleb128 0x36
 7776 259f 30020000 		.4byte	.LVL247
 7777 25a3 6C130000 		.4byte	0x136c
 7778 25a7 37       		.uleb128 0x37
 7779 25a8 01       		.uleb128 0x1
 7780 25a9 50       		.byte	0x50
 7781 25aa 02       		.uleb128 0x2
 7782 25ab 7A       		.byte	0x7a
 7783 25ac 00       		.sleb128 0
 7784 25ad 37       		.uleb128 0x37
 7785 25ae 01       		.uleb128 0x1
 7786 25af 51       		.byte	0x51
 7787 25b0 02       		.uleb128 0x2
 7788 25b1 78       		.byte	0x78
 7789 25b2 00       		.sleb128 0
 7790 25b3 37       		.uleb128 0x37
 7791 25b4 01       		.uleb128 0x1
 7792 25b5 52       		.byte	0x52
 7793 25b6 05       		.uleb128 0x5
 7794 25b7 7B       		.byte	0x7b
 7795 25b8 00       		.sleb128 0
 7796 25b9 74       		.byte	0x74
 7797 25ba 00       		.sleb128 0
 7798 25bb 22       		.byte	0x22
 7799 25bc 37       		.uleb128 0x37
 7800 25bd 01       		.uleb128 0x1
 7801 25be 53       		.byte	0x53
 7802 25bf 02       		.uleb128 0x2
 7803 25c0 91       		.byte	0x91
 7804 25c1 43       		.sleb128 -61
ARM GAS  /var/folders/m4/4md61f0s1_g0rzfghffqnxvr0000gn/T//cchEhHjd.s 			page 138


 7805 25c2 00       		.byte	0
 7806 25c3 00       		.byte	0
 7807 25c4 00       		.byte	0
 7808 25c5 4E       		.uleb128 0x4e
 7809 25c6 0E100000 		.4byte	0x100e
 7810 25ca BC010000 		.4byte	.LBB210
 7811 25ce 38010000 		.4byte	.Ldebug_ranges0+0x138
 7812 25d2 01       		.byte	0x1
 7813 25d3 DA       		.byte	0xda
 7814 25d4 34260000 		.4byte	0x2634
 7815 25d8 33       		.uleb128 0x33
 7816 25d9 43100000 		.4byte	0x1043
 7817 25dd 6E0F0000 		.4byte	.LLST114
 7818 25e1 4A       		.uleb128 0x4a
 7819 25e2 37100000 		.4byte	0x1037
 7820 25e6 33       		.uleb128 0x33
 7821 25e7 2B100000 		.4byte	0x102b
 7822 25eb A80F0000 		.4byte	.LLST115
 7823 25ef 4A       		.uleb128 0x4a
 7824 25f0 1F100000 		.4byte	0x101f
 7825 25f4 56       		.uleb128 0x56
 7826 25f5 38010000 		.4byte	.Ldebug_ranges0+0x138
 7827 25f9 4C       		.uleb128 0x4c
 7828 25fa 4F100000 		.4byte	0x104f
 7829 25fe 4C       		.uleb128 0x4c
 7830 25ff 5A100000 		.4byte	0x105a
 7831 2603 36       		.uleb128 0x36
 7832 2604 1E020000 		.4byte	.LVL243
 7833 2608 6C130000 		.4byte	0x136c
 7834 260c 37       		.uleb128 0x37
 7835 260d 01       		.uleb128 0x1
 7836 260e 50       		.byte	0x50
 7837 260f 02       		.uleb128 0x2
 7838 2610 7A       		.byte	0x7a
 7839 2611 00       		.sleb128 0
 7840 2612 37       		.uleb128 0x37
 7841 2613 01       		.uleb128 0x1
 7842 2614 51       		.byte	0x51
 7843 2615 02       		.uleb128 0x2
 7844 2616 78       		.byte	0x78
 7845 2617 00       		.sleb128 0
 7846 2618 37       		.uleb128 0x37
 7847 2619 01       		.uleb128 0x1
 7848 261a 52       		.byte	0x52
 7849 261b 0F       		.uleb128 0xf
 7850 261c 79       		.byte	0x79
 7851 261d 00       		.sleb128 0
 7852 261e 75       		.byte	0x75
 7853 261f 00       		.sleb128 0
 7854 2620 22       		.byte	0x22
 7855 2621 34       		.byte	0x34
 7856 2622 24       		.byte	0x24
 7857 2623 7A       		.byte	0x7a
 7858 2624 00       		.sleb128 0
 7859 2625 22       		.byte	0x22
 7860 2626 78       		.byte	0x78
 7861 2627 00       		.sleb128 0
ARM GAS  /var/folders/m4/4md61f0s1_g0rzfghffqnxvr0000gn/T//cchEhHjd.s 			page 139


 7862 2628 1C       		.byte	0x1c
 7863 2629 23       		.byte	0x23
 7864 262a 28       		.uleb128 0x28
 7865 262b 37       		.uleb128 0x37
 7866 262c 01       		.uleb128 0x1
 7867 262d 53       		.byte	0x53
 7868 262e 02       		.uleb128 0x2
 7869 262f 91       		.byte	0x91
 7870 2630 43       		.sleb128 -61
 7871 2631 00       		.byte	0
 7872 2632 00       		.byte	0
 7873 2633 00       		.byte	0
 7874 2634 3B       		.uleb128 0x3b
 7875 2635 CC000000 		.4byte	.LVL202
 7876 2639 DE210000 		.4byte	0x21de
 7877 263d 48260000 		.4byte	0x2648
 7878 2641 37       		.uleb128 0x37
 7879 2642 01       		.uleb128 0x1
 7880 2643 50       		.byte	0x50
 7881 2644 02       		.uleb128 0x2
 7882 2645 7A       		.byte	0x7a
 7883 2646 00       		.sleb128 0
 7884 2647 00       		.byte	0
 7885 2648 36       		.uleb128 0x36
 7886 2649 12010000 		.4byte	.LVL206
 7887 264d 26300000 		.4byte	0x3026
 7888 2651 37       		.uleb128 0x37
 7889 2652 01       		.uleb128 0x1
 7890 2653 50       		.byte	0x50
 7891 2654 0C       		.uleb128 0xc
 7892 2655 79       		.byte	0x79
 7893 2656 00       		.sleb128 0
 7894 2657 75       		.byte	0x75
 7895 2658 00       		.sleb128 0
 7896 2659 22       		.byte	0x22
 7897 265a 34       		.byte	0x34
 7898 265b 24       		.byte	0x24
 7899 265c 7A       		.byte	0x7a
 7900 265d 00       		.sleb128 0
 7901 265e 22       		.byte	0x22
 7902 265f 23       		.byte	0x23
 7903 2660 2C       		.uleb128 0x2c
 7904 2661 37       		.uleb128 0x37
 7905 2662 01       		.uleb128 0x1
 7906 2663 51       		.byte	0x51
 7907 2664 01       		.uleb128 0x1
 7908 2665 34       		.byte	0x34
 7909 2666 00       		.byte	0
 7910 2667 00       		.byte	0
 7911 2668 50       		.uleb128 0x50
 7912 2669 A8100000 		.4byte	0x10a8
 7913 266d 2E010000 		.4byte	.LBB223
 7914 2671 10000000 		.4byte	.LBE223-.LBB223
 7915 2675 01       		.byte	0x1
 7916 2676 EB       		.byte	0xeb
 7917 2677 A9260000 		.4byte	0x26a9
 7918 267b 33       		.uleb128 0x33
ARM GAS  /var/folders/m4/4md61f0s1_g0rzfghffqnxvr0000gn/T//cchEhHjd.s 			page 140


 7919 267c C5100000 		.4byte	0x10c5
 7920 2680 C60F0000 		.4byte	.LLST116
 7921 2684 33       		.uleb128 0x33
 7922 2685 B9100000 		.4byte	0x10b9
 7923 2689 DB0F0000 		.4byte	.LLST117
 7924 268d 36       		.uleb128 0x36
 7925 268e 38010000 		.4byte	.LVL211
 7926 2692 0B150000 		.4byte	0x150b
 7927 2696 37       		.uleb128 0x37
 7928 2697 01       		.uleb128 0x1
 7929 2698 50       		.byte	0x50
 7930 2699 02       		.uleb128 0x2
 7931 269a 7A       		.byte	0x7a
 7932 269b 00       		.sleb128 0
 7933 269c 37       		.uleb128 0x37
 7934 269d 01       		.uleb128 0x1
 7935 269e 51       		.byte	0x51
 7936 269f 01       		.uleb128 0x1
 7937 26a0 37       		.byte	0x37
 7938 26a1 37       		.uleb128 0x37
 7939 26a2 01       		.uleb128 0x1
 7940 26a3 52       		.byte	0x52
 7941 26a4 02       		.uleb128 0x2
 7942 26a5 08       		.byte	0x8
 7943 26a6 40       		.byte	0x40
 7944 26a7 00       		.byte	0
 7945 26a8 00       		.byte	0
 7946 26a9 4E       		.uleb128 0x4e
 7947 26aa 76110000 		.4byte	0x1176
 7948 26ae F0010000 		.4byte	.LBB227
 7949 26b2 50010000 		.4byte	.Ldebug_ranges0+0x150
 7950 26b6 01       		.byte	0x1
 7951 26b7 E4       		.byte	0xe4
 7952 26b8 C6260000 		.4byte	0x26c6
 7953 26bc 33       		.uleb128 0x33
 7954 26bd 87110000 		.4byte	0x1187
 7955 26c1 EE0F0000 		.4byte	.LLST118
 7956 26c5 00       		.byte	0
 7957 26c6 3B       		.uleb128 0x3b
 7958 26c7 20010000 		.4byte	.LVL207
 7959 26cb 31300000 		.4byte	0x3031
 7960 26cf E0260000 		.4byte	0x26e0
 7961 26d3 37       		.uleb128 0x37
 7962 26d4 01       		.uleb128 0x1
 7963 26d5 50       		.byte	0x50
 7964 26d6 01       		.uleb128 0x1
 7965 26d7 31       		.byte	0x31
 7966 26d8 37       		.uleb128 0x37
 7967 26d9 01       		.uleb128 0x1
 7968 26da 51       		.byte	0x51
 7969 26db 03       		.uleb128 0x3
 7970 26dc 7D       		.byte	0x7d
 7971 26dd 00       		.sleb128 0
 7972 26de 06       		.byte	0x6
 7973 26df 00       		.byte	0
 7974 26e0 3B       		.uleb128 0x3b
 7975 26e1 2A010000 		.4byte	.LVL208
ARM GAS  /var/folders/m4/4md61f0s1_g0rzfghffqnxvr0000gn/T//cchEhHjd.s 			page 141


 7976 26e5 66170000 		.4byte	0x1766
 7977 26e9 F4260000 		.4byte	0x26f4
 7978 26ed 37       		.uleb128 0x37
 7979 26ee 01       		.uleb128 0x1
 7980 26ef 50       		.byte	0x50
 7981 26f0 02       		.uleb128 0x2
 7982 26f1 7A       		.byte	0x7a
 7983 26f2 00       		.sleb128 0
 7984 26f3 00       		.byte	0
 7985 26f4 36       		.uleb128 0x36
 7986 26f5 F0010000 		.4byte	.LVL237
 7987 26f9 3C300000 		.4byte	0x303c
 7988 26fd 37       		.uleb128 0x37
 7989 26fe 01       		.uleb128 0x1
 7990 26ff 50       		.byte	0x50
 7991 2700 04       		.uleb128 0x4
 7992 2701 91       		.byte	0x91
 7993 2702 BC7F     		.sleb128 -68
 7994 2704 06       		.byte	0x6
 7995 2705 37       		.uleb128 0x37
 7996 2706 01       		.uleb128 0x1
 7997 2707 51       		.byte	0x51
 7998 2708 02       		.uleb128 0x2
 7999 2709 91       		.byte	0x91
 8000 270a 44       		.sleb128 -60
 8001 270b 00       		.byte	0
 8002 270c 00       		.byte	0
 8003 270d 4E       		.uleb128 0x4e
 8004 270e 76110000 		.4byte	0x1176
 8005 2712 92000000 		.4byte	.LBB233
 8006 2716 68010000 		.4byte	.Ldebug_ranges0+0x168
 8007 271a 01       		.byte	0x1
 8008 271b F1       		.byte	0xf1
 8009 271c 2A270000 		.4byte	0x272a
 8010 2720 33       		.uleb128 0x33
 8011 2721 87110000 		.4byte	0x1187
 8012 2725 01100000 		.4byte	.LLST119
 8013 2729 00       		.byte	0
 8014 272a 3B       		.uleb128 0x3b
 8015 272b 44000000 		.4byte	.LVL188
 8016 272f 5B220000 		.4byte	0x225b
 8017 2733 3E270000 		.4byte	0x273e
 8018 2737 37       		.uleb128 0x37
 8019 2738 01       		.uleb128 0x1
 8020 2739 50       		.byte	0x50
 8021 273a 02       		.uleb128 0x2
 8022 273b 7A       		.byte	0x7a
 8023 273c 00       		.sleb128 0
 8024 273d 00       		.byte	0
 8025 273e 3B       		.uleb128 0x3b
 8026 273f AA000000 		.4byte	.LVL198
 8027 2743 3C300000 		.4byte	0x303c
 8028 2747 5A270000 		.4byte	0x275a
 8029 274b 37       		.uleb128 0x37
 8030 274c 01       		.uleb128 0x1
 8031 274d 50       		.byte	0x50
 8032 274e 04       		.uleb128 0x4
ARM GAS  /var/folders/m4/4md61f0s1_g0rzfghffqnxvr0000gn/T//cchEhHjd.s 			page 142


 8033 274f 91       		.byte	0x91
 8034 2750 BC7F     		.sleb128 -68
 8035 2752 06       		.byte	0x6
 8036 2753 37       		.uleb128 0x37
 8037 2754 01       		.uleb128 0x1
 8038 2755 51       		.byte	0x51
 8039 2756 02       		.uleb128 0x2
 8040 2757 91       		.byte	0x91
 8041 2758 44       		.sleb128 -60
 8042 2759 00       		.byte	0
 8043 275a 36       		.uleb128 0x36
 8044 275b BA010000 		.4byte	.LVL229
 8045 275f 26300000 		.4byte	0x3026
 8046 2763 37       		.uleb128 0x37
 8047 2764 01       		.uleb128 0x1
 8048 2765 50       		.byte	0x50
 8049 2766 02       		.uleb128 0x2
 8050 2767 76       		.byte	0x76
 8051 2768 2C       		.sleb128 44
 8052 2769 37       		.uleb128 0x37
 8053 276a 01       		.uleb128 0x1
 8054 276b 51       		.byte	0x51
 8055 276c 01       		.uleb128 0x1
 8056 276d 34       		.byte	0x34
 8057 276e 00       		.byte	0
 8058 276f 00       		.byte	0
 8059 2770 38       		.uleb128 0x38
 8060 2771 94110000 		.4byte	0x1194
 8061 2775 00000000 		.4byte	.LFB273
 8062 2779 54000000 		.4byte	.LFE273-.LFB273
 8063 277d 01       		.uleb128 0x1
 8064 277e 9C       		.byte	0x9c
 8065 277f 2B280000 		.4byte	0x282b
 8066 2783 33       		.uleb128 0x33
 8067 2784 A4110000 		.4byte	0x11a4
 8068 2788 14100000 		.4byte	.LLST120
 8069 278c 33       		.uleb128 0x33
 8070 278d AF110000 		.4byte	0x11af
 8071 2791 67100000 		.4byte	.LLST121
 8072 2795 4C       		.uleb128 0x4c
 8073 2796 BA110000 		.4byte	0x11ba
 8074 279a 3F       		.uleb128 0x3f
 8075 279b C6110000 		.4byte	0x11c6
 8076 279f 93100000 		.4byte	.LLST122
 8077 27a3 3E       		.uleb128 0x3e
 8078 27a4 0A000000 		.4byte	.LBB252
 8079 27a8 0C000000 		.4byte	.LBE252-.LBB252
 8080 27ac BA270000 		.4byte	0x27ba
 8081 27b0 3F       		.uleb128 0x3f
 8082 27b1 D7110000 		.4byte	0x11d7
 8083 27b5 D9100000 		.4byte	.LLST123
 8084 27b9 00       		.byte	0
 8085 27ba 3E       		.uleb128 0x3e
 8086 27bb 24000000 		.4byte	.LBB254
 8087 27bf 0E000000 		.4byte	.LBE254-.LBB254
 8088 27c3 D1270000 		.4byte	0x27d1
 8089 27c7 3F       		.uleb128 0x3f
ARM GAS  /var/folders/m4/4md61f0s1_g0rzfghffqnxvr0000gn/T//cchEhHjd.s 			page 143


 8090 27c8 E7110000 		.4byte	0x11e7
 8091 27cc ED100000 		.4byte	.LLST124
 8092 27d0 00       		.byte	0
 8093 27d1 56       		.uleb128 0x56
 8094 27d2 88010000 		.4byte	.Ldebug_ranges0+0x188
 8095 27d6 33       		.uleb128 0x33
 8096 27d7 AF110000 		.4byte	0x11af
 8097 27db 00110000 		.4byte	.LLST125
 8098 27df 33       		.uleb128 0x33
 8099 27e0 A4110000 		.4byte	0x11a4
 8100 27e4 2F110000 		.4byte	.LLST126
 8101 27e8 56       		.uleb128 0x56
 8102 27e9 88010000 		.4byte	.Ldebug_ranges0+0x188
 8103 27ed 4C       		.uleb128 0x4c
 8104 27ee BA110000 		.4byte	0x11ba
 8105 27f2 4C       		.uleb128 0x4c
 8106 27f3 C6110000 		.4byte	0x11c6
 8107 27f7 56       		.uleb128 0x56
 8108 27f8 88010000 		.4byte	.Ldebug_ranges0+0x188
 8109 27fc 39       		.uleb128 0x39
 8110 27fd F3110000 		.4byte	0x11f3
 8111 2801 02       		.uleb128 0x2
 8112 2802 91       		.byte	0x91
 8113 2803 77       		.sleb128 -9
 8114 2804 36       		.uleb128 0x36
 8115 2805 42000000 		.4byte	.LVL258
 8116 2809 C4220000 		.4byte	0x22c4
 8117 280d 37       		.uleb128 0x37
 8118 280e 01       		.uleb128 0x1
 8119 280f 50       		.byte	0x50
 8120 2810 03       		.uleb128 0x3
 8121 2811 F3       		.byte	0xf3
 8122 2812 01       		.uleb128 0x1
 8123 2813 50       		.byte	0x50
 8124 2814 37       		.uleb128 0x37
 8125 2815 01       		.uleb128 0x1
 8126 2816 51       		.byte	0x51
 8127 2817 02       		.uleb128 0x2
 8128 2818 91       		.byte	0x91
 8129 2819 77       		.sleb128 -9
 8130 281a 37       		.uleb128 0x37
 8131 281b 01       		.uleb128 0x1
 8132 281c 52       		.byte	0x52
 8133 281d 01       		.uleb128 0x1
 8134 281e 31       		.byte	0x31
 8135 281f 37       		.uleb128 0x37
 8136 2820 01       		.uleb128 0x1
 8137 2821 53       		.byte	0x53
 8138 2822 03       		.uleb128 0x3
 8139 2823 F3       		.byte	0xf3
 8140 2824 01       		.uleb128 0x1
 8141 2825 51       		.byte	0x51
 8142 2826 00       		.byte	0
 8143 2827 00       		.byte	0
 8144 2828 00       		.byte	0
 8145 2829 00       		.byte	0
 8146 282a 00       		.byte	0
ARM GAS  /var/folders/m4/4md61f0s1_g0rzfghffqnxvr0000gn/T//cchEhHjd.s 			page 144


 8147 282b 57       		.uleb128 0x57
 8148 282c 67657400 		.ascii	"get\000"
 8149 2830 01       		.byte	0x1
 8150 2831 2D01     		.2byte	0x12d
 8151 2833 1C010000 		.4byte	0x11c
 8152 2837 00000000 		.4byte	.LFB277
 8153 283b 08000000 		.4byte	.LFE277-.LFB277
 8154 283f 01       		.uleb128 0x1
 8155 2840 9C       		.byte	0x9c
 8156 2841 6D280000 		.4byte	0x286d
 8157 2845 41       		.uleb128 0x41
 8158 2846 0E010000 		.4byte	.LASF246
 8159 284a 01       		.byte	0x1
 8160 284b 2D01     		.2byte	0x12d
 8161 284d A8030000 		.4byte	0x3a8
 8162 2851 5E110000 		.4byte	.LLST127
 8163 2855 47       		.uleb128 0x47
 8164 2856 08000000 		.4byte	.LVL262
 8165 285a 94110000 		.4byte	0x1194
 8166 285e 37       		.uleb128 0x37
 8167 285f 01       		.uleb128 0x1
 8168 2860 50       		.byte	0x50
 8169 2861 03       		.uleb128 0x3
 8170 2862 F3       		.byte	0xf3
 8171 2863 01       		.uleb128 0x1
 8172 2864 50       		.byte	0x50
 8173 2865 37       		.uleb128 0x37
 8174 2866 01       		.uleb128 0x1
 8175 2867 51       		.byte	0x51
 8176 2868 02       		.uleb128 0x2
 8177 2869 09       		.byte	0x9
 8178 286a FF       		.byte	0xff
 8179 286b 00       		.byte	0
 8180 286c 00       		.byte	0
 8181 286d 58       		.uleb128 0x58
 8182 286e 570A0000 		.4byte	.LASF204
 8183 2872 01       		.byte	0x1
 8184 2873 2301     		.2byte	0x123
 8185 2875 2C000000 		.4byte	0x2c
 8186 2879 00000000 		.4byte	.LFB275
 8187 287d 08000000 		.4byte	.LFE275-.LFB275
 8188 2881 01       		.uleb128 0x1
 8189 2882 9C       		.byte	0x9c
 8190 2883 DA280000 		.4byte	0x28da
 8191 2887 41       		.uleb128 0x41
 8192 2888 0E010000 		.4byte	.LASF246
 8193 288c 01       		.byte	0x1
 8194 288d 2301     		.2byte	0x123
 8195 288f A8030000 		.4byte	0x3a8
 8196 2893 7F110000 		.4byte	.LLST128
 8197 2897 42       		.uleb128 0x42
 8198 2898 627000   		.ascii	"bp\000"
 8199 289b 01       		.byte	0x1
 8200 289c 2301     		.2byte	0x123
 8201 289e 17090000 		.4byte	0x917
 8202 28a2 A0110000 		.4byte	.LLST129
 8203 28a6 42       		.uleb128 0x42
ARM GAS  /var/folders/m4/4md61f0s1_g0rzfghffqnxvr0000gn/T//cchEhHjd.s 			page 145


 8204 28a7 6E00     		.ascii	"n\000"
 8205 28a9 01       		.byte	0x1
 8206 28aa 2301     		.2byte	0x123
 8207 28ac 2C000000 		.4byte	0x2c
 8208 28b0 C1110000 		.4byte	.LLST130
 8209 28b4 47       		.uleb128 0x47
 8210 28b5 08000000 		.4byte	.LVL264
 8211 28b9 C4220000 		.4byte	0x22c4
 8212 28bd 37       		.uleb128 0x37
 8213 28be 01       		.uleb128 0x1
 8214 28bf 50       		.byte	0x50
 8215 28c0 03       		.uleb128 0x3
 8216 28c1 F3       		.byte	0xf3
 8217 28c2 01       		.uleb128 0x1
 8218 28c3 50       		.byte	0x50
 8219 28c4 37       		.uleb128 0x37
 8220 28c5 01       		.uleb128 0x1
 8221 28c6 51       		.byte	0x51
 8222 28c7 03       		.uleb128 0x3
 8223 28c8 F3       		.byte	0xf3
 8224 28c9 01       		.uleb128 0x1
 8225 28ca 51       		.byte	0x51
 8226 28cb 37       		.uleb128 0x37
 8227 28cc 01       		.uleb128 0x1
 8228 28cd 52       		.byte	0x52
 8229 28ce 03       		.uleb128 0x3
 8230 28cf F3       		.byte	0xf3
 8231 28d0 01       		.uleb128 0x1
 8232 28d1 52       		.byte	0x52
 8233 28d2 37       		.uleb128 0x37
 8234 28d3 01       		.uleb128 0x1
 8235 28d4 53       		.byte	0x53
 8236 28d5 02       		.uleb128 0x2
 8237 28d6 09       		.byte	0x9
 8238 28d7 FF       		.byte	0xff
 8239 28d8 00       		.byte	0
 8240 28d9 00       		.byte	0
 8241 28da 40       		.uleb128 0x40
 8242 28db 250B0000 		.4byte	.LASF302
 8243 28df 01       		.byte	0x1
 8244 28e0 2E02     		.2byte	0x22e
 8245 28e2 B8100000 		.4byte	.LASF303
 8246 28e6 00000000 		.4byte	.LFB305
 8247 28ea 38000000 		.4byte	.LFE305-.LFB305
 8248 28ee 01       		.uleb128 0x1
 8249 28ef 9C       		.byte	0x9c
 8250 28f0 43290000 		.4byte	0x2943
 8251 28f4 41       		.uleb128 0x41
 8252 28f5 5A0E0000 		.4byte	.LASF210
 8253 28f9 01       		.byte	0x1
 8254 28fa 2E02     		.2byte	0x22e
 8255 28fc D20F0000 		.4byte	0xfd2
 8256 2900 E2110000 		.4byte	.LLST131
 8257 2904 46       		.uleb128 0x46
 8258 2905 72656700 		.ascii	"reg\000"
 8259 2909 01       		.byte	0x1
 8260 290a 3202     		.2byte	0x232
ARM GAS  /var/folders/m4/4md61f0s1_g0rzfghffqnxvr0000gn/T//cchEhHjd.s 			page 146


 8261 290c AE000000 		.4byte	0xae
 8262 2910 00120000 		.4byte	.LLST132
 8263 2914 3B       		.uleb128 0x3b
 8264 2915 1C000000 		.4byte	.LVL266
 8265 2919 9F150000 		.4byte	0x159f
 8266 291d 2D290000 		.4byte	0x292d
 8267 2921 37       		.uleb128 0x37
 8268 2922 01       		.uleb128 0x1
 8269 2923 50       		.byte	0x50
 8270 2924 02       		.uleb128 0x2
 8271 2925 75       		.byte	0x75
 8272 2926 00       		.sleb128 0
 8273 2927 37       		.uleb128 0x37
 8274 2928 01       		.uleb128 0x1
 8275 2929 51       		.byte	0x51
 8276 292a 01       		.uleb128 0x1
 8277 292b 30       		.byte	0x30
 8278 292c 00       		.byte	0
 8279 292d 36       		.uleb128 0x36
 8280 292e 28000000 		.4byte	.LVL268
 8281 2932 0B150000 		.4byte	0x150b
 8282 2936 37       		.uleb128 0x37
 8283 2937 01       		.uleb128 0x1
 8284 2938 50       		.byte	0x50
 8285 2939 02       		.uleb128 0x2
 8286 293a 75       		.byte	0x75
 8287 293b 00       		.sleb128 0
 8288 293c 37       		.uleb128 0x37
 8289 293d 01       		.uleb128 0x1
 8290 293e 51       		.byte	0x51
 8291 293f 01       		.uleb128 0x1
 8292 2940 30       		.byte	0x30
 8293 2941 00       		.byte	0
 8294 2942 00       		.byte	0
 8295 2943 51       		.uleb128 0x51
 8296 2944 A3000000 		.4byte	.LASF207
 8297 2948 01       		.byte	0x1
 8298 2949 56       		.byte	0x56
 8299 294a 2C000000 		.4byte	0x2c
 8300 294e 00000000 		.4byte	.LFB270
 8301 2952 FE000000 		.4byte	.LFE270-.LFB270
 8302 2956 01       		.uleb128 0x1
 8303 2957 9C       		.byte	0x9c
 8304 2958 3C2C0000 		.4byte	0x2c3c
 8305 295c 31       		.uleb128 0x31
 8306 295d 0E010000 		.4byte	.LASF246
 8307 2961 01       		.byte	0x1
 8308 2962 56       		.byte	0x56
 8309 2963 A8030000 		.4byte	0x3a8
 8310 2967 18120000 		.4byte	.LLST133
 8311 296b 52       		.uleb128 0x52
 8312 296c 627000   		.ascii	"bp\000"
 8313 296f 01       		.byte	0x1
 8314 2970 56       		.byte	0x56
 8315 2971 36090000 		.4byte	0x936
 8316 2975 4F120000 		.4byte	.LLST134
 8317 2979 52       		.uleb128 0x52
ARM GAS  /var/folders/m4/4md61f0s1_g0rzfghffqnxvr0000gn/T//cchEhHjd.s 			page 147


 8318 297a 6E00     		.ascii	"n\000"
 8319 297c 01       		.byte	0x1
 8320 297d 56       		.byte	0x56
 8321 297e 2C000000 		.4byte	0x2c
 8322 2982 86120000 		.4byte	.LLST135
 8323 2986 31       		.uleb128 0x31
 8324 2987 040F0000 		.4byte	.LASF247
 8325 298b 01       		.byte	0x1
 8326 298c 56       		.byte	0x56
 8327 298d 48010000 		.4byte	0x148
 8328 2991 BD120000 		.4byte	.LLST136
 8329 2995 53       		.uleb128 0x53
 8330 2996 A20E0000 		.4byte	.LASF297
 8331 299a 01       		.byte	0x1
 8332 299b 58       		.byte	0x58
 8333 299c 99080000 		.4byte	0x899
 8334 29a0 02       		.uleb128 0x2
 8335 29a1 91       		.byte	0x91
 8336 29a2 44       		.sleb128 -60
 8337 29a3 53       		.uleb128 0x53
 8338 29a4 5A0E0000 		.4byte	.LASF210
 8339 29a8 01       		.byte	0x1
 8340 29a9 59       		.byte	0x59
 8341 29aa D20F0000 		.4byte	0xfd2
 8342 29ae 01       		.uleb128 0x1
 8343 29af 55       		.byte	0x55
 8344 29b0 55       		.uleb128 0x55
 8345 29b1 5C0A0000 		.4byte	.LASF304
 8346 29b5 01       		.byte	0x1
 8347 29b6 5F       		.byte	0x5f
 8348 29b7 B9000000 		.4byte	0xb9
 8349 29bb F4120000 		.4byte	.LLST137
 8350 29bf 55       		.uleb128 0x55
 8351 29c0 A50F0000 		.4byte	.LASF299
 8352 29c4 01       		.byte	0x1
 8353 29c5 60       		.byte	0x60
 8354 29c6 AE000000 		.4byte	0xae
 8355 29ca 2A130000 		.4byte	.LLST138
 8356 29ce 50       		.uleb128 0x50
 8357 29cf 26110000 		.4byte	0x1126
 8358 29d3 24000000 		.4byte	.LBB261
 8359 29d7 12000000 		.4byte	.LBE261-.LBB261
 8360 29db 01       		.byte	0x1
 8361 29dc 5D       		.byte	0x5d
 8362 29dd 202A0000 		.4byte	0x2a20
 8363 29e1 33       		.uleb128 0x33
 8364 29e2 48110000 		.4byte	0x1148
 8365 29e6 5E130000 		.4byte	.LLST139
 8366 29ea 33       		.uleb128 0x33
 8367 29eb 3D110000 		.4byte	0x113d
 8368 29ef 72130000 		.4byte	.LLST140
 8369 29f3 33       		.uleb128 0x33
 8370 29f4 32110000 		.4byte	0x1132
 8371 29f8 9F130000 		.4byte	.LLST141
 8372 29fc 36       		.uleb128 0x36
 8373 29fd 36000000 		.4byte	.LVL279
 8374 2a01 1B300000 		.4byte	0x301b
ARM GAS  /var/folders/m4/4md61f0s1_g0rzfghffqnxvr0000gn/T//cchEhHjd.s 			page 148


 8375 2a05 37       		.uleb128 0x37
 8376 2a06 01       		.uleb128 0x1
 8377 2a07 50       		.byte	0x50
 8378 2a08 04       		.uleb128 0x4
 8379 2a09 91       		.byte	0x91
 8380 2a0a BC7F     		.sleb128 -68
 8381 2a0c 06       		.byte	0x6
 8382 2a0d 37       		.uleb128 0x37
 8383 2a0e 01       		.uleb128 0x1
 8384 2a0f 51       		.byte	0x51
 8385 2a10 02       		.uleb128 0x2
 8386 2a11 91       		.byte	0x91
 8387 2a12 44       		.sleb128 -60
 8388 2a13 37       		.uleb128 0x37
 8389 2a14 01       		.uleb128 0x1
 8390 2a15 52       		.byte	0x52
 8391 2a16 01       		.uleb128 0x1
 8392 2a17 31       		.byte	0x31
 8393 2a18 37       		.uleb128 0x37
 8394 2a19 01       		.uleb128 0x1
 8395 2a1a 53       		.byte	0x53
 8396 2a1b 02       		.uleb128 0x2
 8397 2a1c 09       		.byte	0x9
 8398 2a1d FF       		.byte	0xff
 8399 2a1e 00       		.byte	0
 8400 2a1f 00       		.byte	0
 8401 2a20 48       		.uleb128 0x48
 8402 2a21 A0010000 		.4byte	.Ldebug_ranges0+0x1a0
 8403 2a25 A92B0000 		.4byte	0x2ba9
 8404 2a29 55       		.uleb128 0x55
 8405 2a2a 80090000 		.4byte	.LASF305
 8406 2a2e 01       		.byte	0x1
 8407 2a2f 6E       		.byte	0x6e
 8408 2a30 AE000000 		.4byte	0xae
 8409 2a34 CA130000 		.4byte	.LLST142
 8410 2a38 50       		.uleb128 0x50
 8411 2a39 67100000 		.4byte	0x1067
 8412 2a3d 66000000 		.4byte	.LBB264
 8413 2a41 0C000000 		.4byte	.LBE264-.LBB264
 8414 2a45 01       		.byte	0x1
 8415 2a46 70       		.byte	0x70
 8416 2a47 952A0000 		.4byte	0x2a95
 8417 2a4b 33       		.uleb128 0x33
 8418 2a4c 90100000 		.4byte	0x1090
 8419 2a50 19140000 		.4byte	.LLST143
 8420 2a54 33       		.uleb128 0x33
 8421 2a55 84100000 		.4byte	0x1084
 8422 2a59 4C140000 		.4byte	.LLST144
 8423 2a5d 33       		.uleb128 0x33
 8424 2a5e 78100000 		.4byte	0x1078
 8425 2a62 5F140000 		.4byte	.LLST145
 8426 2a66 49       		.uleb128 0x49
 8427 2a67 66000000 		.4byte	.LBB265
 8428 2a6b 0C000000 		.4byte	.LBE265-.LBB265
 8429 2a6f 4C       		.uleb128 0x4c
 8430 2a70 9C100000 		.4byte	0x109c
 8431 2a74 36       		.uleb128 0x36
ARM GAS  /var/folders/m4/4md61f0s1_g0rzfghffqnxvr0000gn/T//cchEhHjd.s 			page 149


 8432 2a75 72000000 		.4byte	.LVL290
 8433 2a79 FF130000 		.4byte	0x13ff
 8434 2a7d 37       		.uleb128 0x37
 8435 2a7e 01       		.uleb128 0x1
 8436 2a7f 50       		.byte	0x50
 8437 2a80 02       		.uleb128 0x2
 8438 2a81 75       		.byte	0x75
 8439 2a82 00       		.sleb128 0
 8440 2a83 37       		.uleb128 0x37
 8441 2a84 01       		.uleb128 0x1
 8442 2a85 51       		.byte	0x51
 8443 2a86 02       		.uleb128 0x2
 8444 2a87 74       		.byte	0x74
 8445 2a88 00       		.sleb128 0
 8446 2a89 37       		.uleb128 0x37
 8447 2a8a 01       		.uleb128 0x1
 8448 2a8b 52       		.byte	0x52
 8449 2a8c 05       		.uleb128 0x5
 8450 2a8d 78       		.byte	0x78
 8451 2a8e 00       		.sleb128 0
 8452 2a8f 7A       		.byte	0x7a
 8453 2a90 00       		.sleb128 0
 8454 2a91 22       		.byte	0x22
 8455 2a92 00       		.byte	0
 8456 2a93 00       		.byte	0
 8457 2a94 00       		.byte	0
 8458 2a95 50       		.uleb128 0x50
 8459 2a96 A8100000 		.4byte	0x10a8
 8460 2a9a 8A000000 		.4byte	.LBB266
 8461 2a9e 0C000000 		.4byte	.LBE266-.LBB266
 8462 2aa2 01       		.byte	0x1
 8463 2aa3 85       		.byte	0x85
 8464 2aa4 D62A0000 		.4byte	0x2ad6
 8465 2aa8 33       		.uleb128 0x33
 8466 2aa9 C5100000 		.4byte	0x10c5
 8467 2aad 72140000 		.4byte	.LLST146
 8468 2ab1 33       		.uleb128 0x33
 8469 2ab2 B9100000 		.4byte	0x10b9
 8470 2ab6 87140000 		.4byte	.LLST147
 8471 2aba 36       		.uleb128 0x36
 8472 2abb 94000000 		.4byte	.LVL295
 8473 2abf 0B150000 		.4byte	0x150b
 8474 2ac3 37       		.uleb128 0x37
 8475 2ac4 01       		.uleb128 0x1
 8476 2ac5 50       		.byte	0x50
 8477 2ac6 02       		.uleb128 0x2
 8478 2ac7 75       		.byte	0x75
 8479 2ac8 00       		.sleb128 0
 8480 2ac9 37       		.uleb128 0x37
 8481 2aca 01       		.uleb128 0x1
 8482 2acb 51       		.byte	0x51
 8483 2acc 01       		.uleb128 0x1
 8484 2acd 37       		.byte	0x37
 8485 2ace 37       		.uleb128 0x37
 8486 2acf 01       		.uleb128 0x1
 8487 2ad0 52       		.byte	0x52
 8488 2ad1 02       		.uleb128 0x2
ARM GAS  /var/folders/m4/4md61f0s1_g0rzfghffqnxvr0000gn/T//cchEhHjd.s 			page 150


 8489 2ad2 08       		.byte	0x8
 8490 2ad3 20       		.byte	0x20
 8491 2ad4 00       		.byte	0
 8492 2ad5 00       		.byte	0
 8493 2ad6 50       		.uleb128 0x50
 8494 2ad7 76110000 		.4byte	0x1176
 8495 2adb D2000000 		.4byte	.LBB268
 8496 2adf 10000000 		.4byte	.LBE268-.LBB268
 8497 2ae3 01       		.byte	0x1
 8498 2ae4 80       		.byte	0x80
 8499 2ae5 F32A0000 		.4byte	0x2af3
 8500 2ae9 33       		.uleb128 0x33
 8501 2aea 87110000 		.4byte	0x1187
 8502 2aee 9A140000 		.4byte	.LLST148
 8503 2af2 00       		.byte	0
 8504 2af3 50       		.uleb128 0x50
 8505 2af4 A8100000 		.4byte	0x10a8
 8506 2af8 EC000000 		.4byte	.LBB270
 8507 2afc 0A000000 		.4byte	.LBE270-.LBB270
 8508 2b00 01       		.byte	0x1
 8509 2b01 7E       		.byte	0x7e
 8510 2b02 332B0000 		.4byte	0x2b33
 8511 2b06 33       		.uleb128 0x33
 8512 2b07 C5100000 		.4byte	0x10c5
 8513 2b0b AD140000 		.4byte	.LLST149
 8514 2b0f 33       		.uleb128 0x33
 8515 2b10 B9100000 		.4byte	0x10b9
 8516 2b14 C1140000 		.4byte	.LLST150
 8517 2b18 36       		.uleb128 0x36
 8518 2b19 F6000000 		.4byte	.LVL309
 8519 2b1d 0B150000 		.4byte	0x150b
 8520 2b21 37       		.uleb128 0x37
 8521 2b22 01       		.uleb128 0x1
 8522 2b23 50       		.byte	0x50
 8523 2b24 02       		.uleb128 0x2
 8524 2b25 75       		.byte	0x75
 8525 2b26 00       		.sleb128 0
 8526 2b27 37       		.uleb128 0x37
 8527 2b28 01       		.uleb128 0x1
 8528 2b29 51       		.byte	0x51
 8529 2b2a 01       		.uleb128 0x1
 8530 2b2b 37       		.byte	0x37
 8531 2b2c 37       		.uleb128 0x37
 8532 2b2d 01       		.uleb128 0x1
 8533 2b2e 52       		.byte	0x52
 8534 2b2f 01       		.uleb128 0x1
 8535 2b30 40       		.byte	0x40
 8536 2b31 00       		.byte	0
 8537 2b32 00       		.byte	0
 8538 2b33 3B       		.uleb128 0x3b
 8539 2b34 7A000000 		.4byte	.LVL291
 8540 2b38 31300000 		.4byte	0x3031
 8541 2b3c 4C2B0000 		.4byte	0x2b4c
 8542 2b40 37       		.uleb128 0x37
 8543 2b41 01       		.uleb128 0x1
 8544 2b42 50       		.byte	0x50
 8545 2b43 01       		.uleb128 0x1
ARM GAS  /var/folders/m4/4md61f0s1_g0rzfghffqnxvr0000gn/T//cchEhHjd.s 			page 151


 8546 2b44 31       		.byte	0x31
 8547 2b45 37       		.uleb128 0x37
 8548 2b46 01       		.uleb128 0x1
 8549 2b47 51       		.byte	0x51
 8550 2b48 02       		.uleb128 0x2
 8551 2b49 79       		.byte	0x79
 8552 2b4a 00       		.sleb128 0
 8553 2b4b 00       		.byte	0
 8554 2b4c 3B       		.uleb128 0x3b
 8555 2b4d 82000000 		.4byte	.LVL292
 8556 2b51 66170000 		.4byte	0x1766
 8557 2b55 602B0000 		.4byte	0x2b60
 8558 2b59 37       		.uleb128 0x37
 8559 2b5a 01       		.uleb128 0x1
 8560 2b5b 50       		.byte	0x50
 8561 2b5c 02       		.uleb128 0x2
 8562 2b5d 75       		.byte	0x75
 8563 2b5e 00       		.sleb128 0
 8564 2b5f 00       		.byte	0
 8565 2b60 3B       		.uleb128 0x3b
 8566 2b61 D2000000 		.4byte	.LVL304
 8567 2b65 3C300000 		.4byte	0x303c
 8568 2b69 7C2B0000 		.4byte	0x2b7c
 8569 2b6d 37       		.uleb128 0x37
 8570 2b6e 01       		.uleb128 0x1
 8571 2b6f 50       		.byte	0x50
 8572 2b70 04       		.uleb128 0x4
 8573 2b71 91       		.byte	0x91
 8574 2b72 BC7F     		.sleb128 -68
 8575 2b74 06       		.byte	0x6
 8576 2b75 37       		.uleb128 0x37
 8577 2b76 01       		.uleb128 0x1
 8578 2b77 51       		.byte	0x51
 8579 2b78 02       		.uleb128 0x2
 8580 2b79 91       		.byte	0x91
 8581 2b7a 44       		.sleb128 -60
 8582 2b7b 00       		.byte	0
 8583 2b7c 3B       		.uleb128 0x3b
 8584 2b7d EC000000 		.4byte	.LVL308
 8585 2b81 3C300000 		.4byte	0x303c
 8586 2b85 982B0000 		.4byte	0x2b98
 8587 2b89 37       		.uleb128 0x37
 8588 2b8a 01       		.uleb128 0x1
 8589 2b8b 50       		.byte	0x50
 8590 2b8c 04       		.uleb128 0x4
 8591 2b8d 91       		.byte	0x91
 8592 2b8e BC7F     		.sleb128 -68
 8593 2b90 06       		.byte	0x6
 8594 2b91 37       		.uleb128 0x37
 8595 2b92 01       		.uleb128 0x1
 8596 2b93 51       		.byte	0x51
 8597 2b94 02       		.uleb128 0x2
 8598 2b95 91       		.byte	0x91
 8599 2b96 44       		.sleb128 -60
 8600 2b97 00       		.byte	0
 8601 2b98 36       		.uleb128 0x36
 8602 2b99 FC000000 		.4byte	.LVL310
ARM GAS  /var/folders/m4/4md61f0s1_g0rzfghffqnxvr0000gn/T//cchEhHjd.s 			page 152


 8603 2b9d DA1E0000 		.4byte	0x1eda
 8604 2ba1 37       		.uleb128 0x37
 8605 2ba2 01       		.uleb128 0x1
 8606 2ba3 50       		.byte	0x50
 8607 2ba4 02       		.uleb128 0x2
 8608 2ba5 75       		.byte	0x75
 8609 2ba6 00       		.sleb128 0
 8610 2ba7 00       		.byte	0
 8611 2ba8 00       		.byte	0
 8612 2ba9 4E       		.uleb128 0x4e
 8613 2baa 76110000 		.4byte	0x1176
 8614 2bae A6000000 		.4byte	.LBB273
 8615 2bb2 C0010000 		.4byte	.Ldebug_ranges0+0x1c0
 8616 2bb6 01       		.byte	0x1
 8617 2bb7 8A       		.byte	0x8a
 8618 2bb8 C62B0000 		.4byte	0x2bc6
 8619 2bbc 33       		.uleb128 0x33
 8620 2bbd 87110000 		.4byte	0x1187
 8621 2bc1 D4140000 		.4byte	.LLST151
 8622 2bc5 00       		.byte	0
 8623 2bc6 3B       		.uleb128 0x3b
 8624 2bc7 3C000000 		.4byte	.LVL280
 8625 2bcb 66170000 		.4byte	0x1766
 8626 2bcf DA2B0000 		.4byte	0x2bda
 8627 2bd3 37       		.uleb128 0x37
 8628 2bd4 01       		.uleb128 0x1
 8629 2bd5 50       		.byte	0x50
 8630 2bd6 02       		.uleb128 0x2
 8631 2bd7 76       		.byte	0x76
 8632 2bd8 00       		.sleb128 0
 8633 2bd9 00       		.byte	0
 8634 2bda 3B       		.uleb128 0x3b
 8635 2bdb 48000000 		.4byte	.LVL282
 8636 2bdf DA280000 		.4byte	0x28da
 8637 2be3 EE2B0000 		.4byte	0x2bee
 8638 2be7 37       		.uleb128 0x37
 8639 2be8 01       		.uleb128 0x1
 8640 2be9 50       		.byte	0x50
 8641 2bea 02       		.uleb128 0x2
 8642 2beb 76       		.byte	0x76
 8643 2bec 00       		.sleb128 0
 8644 2bed 00       		.byte	0
 8645 2bee 3B       		.uleb128 0x3b
 8646 2bef 9E000000 		.4byte	.LVL298
 8647 2bf3 3C300000 		.4byte	0x303c
 8648 2bf7 0A2C0000 		.4byte	0x2c0a
 8649 2bfb 37       		.uleb128 0x37
 8650 2bfc 01       		.uleb128 0x1
 8651 2bfd 50       		.byte	0x50
 8652 2bfe 04       		.uleb128 0x4
 8653 2bff 91       		.byte	0x91
 8654 2c00 BC7F     		.sleb128 -68
 8655 2c02 06       		.byte	0x6
 8656 2c03 37       		.uleb128 0x37
 8657 2c04 01       		.uleb128 0x1
 8658 2c05 51       		.byte	0x51
 8659 2c06 02       		.uleb128 0x2
ARM GAS  /var/folders/m4/4md61f0s1_g0rzfghffqnxvr0000gn/T//cchEhHjd.s 			page 153


 8660 2c07 91       		.byte	0x91
 8661 2c08 44       		.sleb128 -60
 8662 2c09 00       		.byte	0
 8663 2c0a 3B       		.uleb128 0x3b
 8664 2c0b C0000000 		.4byte	.LVL301
 8665 2c0f 26300000 		.4byte	0x3026
 8666 2c13 232C0000 		.4byte	0x2c23
 8667 2c17 37       		.uleb128 0x37
 8668 2c18 01       		.uleb128 0x1
 8669 2c19 50       		.byte	0x50
 8670 2c1a 02       		.uleb128 0x2
 8671 2c1b 76       		.byte	0x76
 8672 2c1c 2C       		.sleb128 44
 8673 2c1d 37       		.uleb128 0x37
 8674 2c1e 01       		.uleb128 0x1
 8675 2c1f 51       		.byte	0x51
 8676 2c20 01       		.uleb128 0x1
 8677 2c21 48       		.byte	0x48
 8678 2c22 00       		.byte	0
 8679 2c23 36       		.uleb128 0x36
 8680 2c24 C8000000 		.4byte	.LVL302
 8681 2c28 3C300000 		.4byte	0x303c
 8682 2c2c 37       		.uleb128 0x37
 8683 2c2d 01       		.uleb128 0x1
 8684 2c2e 50       		.byte	0x50
 8685 2c2f 04       		.uleb128 0x4
 8686 2c30 91       		.byte	0x91
 8687 2c31 BC7F     		.sleb128 -68
 8688 2c33 06       		.byte	0x6
 8689 2c34 37       		.uleb128 0x37
 8690 2c35 01       		.uleb128 0x1
 8691 2c36 51       		.byte	0x51
 8692 2c37 02       		.uleb128 0x2
 8693 2c38 91       		.byte	0x91
 8694 2c39 44       		.sleb128 -60
 8695 2c3a 00       		.byte	0
 8696 2c3b 00       		.byte	0
 8697 2c3c 38       		.uleb128 0x38
 8698 2c3d 05120000 		.4byte	0x1205
 8699 2c41 00000000 		.4byte	.LFB272
 8700 2c45 20000000 		.4byte	.LFE272-.LFB272
 8701 2c49 01       		.uleb128 0x1
 8702 2c4a 9C       		.byte	0x9c
 8703 2c4b 8E2C0000 		.4byte	0x2c8e
 8704 2c4f 33       		.uleb128 0x33
 8705 2c50 15120000 		.4byte	0x1215
 8706 2c54 E7140000 		.4byte	.LLST152
 8707 2c58 33       		.uleb128 0x33
 8708 2c59 20120000 		.4byte	0x1220
 8709 2c5d 08150000 		.4byte	.LLST153
 8710 2c61 33       		.uleb128 0x33
 8711 2c62 29120000 		.4byte	0x1229
 8712 2c66 33150000 		.4byte	.LLST154
 8713 2c6a 36       		.uleb128 0x36
 8714 2c6b 14000000 		.4byte	.LVL314
 8715 2c6f 43290000 		.4byte	0x2943
 8716 2c73 37       		.uleb128 0x37
ARM GAS  /var/folders/m4/4md61f0s1_g0rzfghffqnxvr0000gn/T//cchEhHjd.s 			page 154


 8717 2c74 01       		.uleb128 0x1
 8718 2c75 50       		.byte	0x50
 8719 2c76 03       		.uleb128 0x3
 8720 2c77 F3       		.byte	0xf3
 8721 2c78 01       		.uleb128 0x1
 8722 2c79 50       		.byte	0x50
 8723 2c7a 37       		.uleb128 0x37
 8724 2c7b 01       		.uleb128 0x1
 8725 2c7c 51       		.byte	0x51
 8726 2c7d 02       		.uleb128 0x2
 8727 2c7e 74       		.byte	0x74
 8728 2c7f 00       		.sleb128 0
 8729 2c80 37       		.uleb128 0x37
 8730 2c81 01       		.uleb128 0x1
 8731 2c82 52       		.byte	0x52
 8732 2c83 01       		.uleb128 0x1
 8733 2c84 31       		.byte	0x31
 8734 2c85 37       		.uleb128 0x37
 8735 2c86 01       		.uleb128 0x1
 8736 2c87 53       		.byte	0x53
 8737 2c88 03       		.uleb128 0x3
 8738 2c89 F3       		.byte	0xf3
 8739 2c8a 01       		.uleb128 0x1
 8740 2c8b 52       		.byte	0x52
 8741 2c8c 00       		.byte	0
 8742 2c8d 00       		.byte	0
 8743 2c8e 57       		.uleb128 0x57
 8744 2c8f 70757400 		.ascii	"put\000"
 8745 2c93 01       		.byte	0x1
 8746 2c94 2801     		.2byte	0x128
 8747 2c96 1C010000 		.4byte	0x11c
 8748 2c9a 00000000 		.4byte	.LFB276
 8749 2c9e 22000000 		.4byte	.LFE276-.LFB276
 8750 2ca2 01       		.uleb128 0x1
 8751 2ca3 9C       		.byte	0x9c
 8752 2ca4 152D0000 		.4byte	0x2d15
 8753 2ca8 41       		.uleb128 0x41
 8754 2ca9 0E010000 		.4byte	.LASF246
 8755 2cad 01       		.byte	0x1
 8756 2cae 2801     		.2byte	0x128
 8757 2cb0 A8030000 		.4byte	0x3a8
 8758 2cb4 5F150000 		.4byte	.LLST155
 8759 2cb8 42       		.uleb128 0x42
 8760 2cb9 6200     		.ascii	"b\000"
 8761 2cbb 01       		.byte	0x1
 8762 2cbc 2801     		.2byte	0x128
 8763 2cbe AE000000 		.4byte	0xae
 8764 2cc2 80150000 		.4byte	.LLST156
 8765 2cc6 35       		.uleb128 0x35
 8766 2cc7 05120000 		.4byte	0x1205
 8767 2ccb 06000000 		.4byte	.LBB278
 8768 2ccf 10000000 		.4byte	.LBE278-.LBB278
 8769 2cd3 01       		.byte	0x1
 8770 2cd4 2A01     		.2byte	0x12a
 8771 2cd6 33       		.uleb128 0x33
 8772 2cd7 29120000 		.4byte	0x1229
 8773 2cdb AD150000 		.4byte	.LLST157
ARM GAS  /var/folders/m4/4md61f0s1_g0rzfghffqnxvr0000gn/T//cchEhHjd.s 			page 155


 8774 2cdf 33       		.uleb128 0x33
 8775 2ce0 20120000 		.4byte	0x1220
 8776 2ce4 C2150000 		.4byte	.LLST158
 8777 2ce8 33       		.uleb128 0x33
 8778 2ce9 15120000 		.4byte	0x1215
 8779 2ced D6150000 		.4byte	.LLST159
 8780 2cf1 36       		.uleb128 0x36
 8781 2cf2 16000000 		.4byte	.LVL318
 8782 2cf6 43290000 		.4byte	0x2943
 8783 2cfa 37       		.uleb128 0x37
 8784 2cfb 01       		.uleb128 0x1
 8785 2cfc 50       		.byte	0x50
 8786 2cfd 03       		.uleb128 0x3
 8787 2cfe F3       		.byte	0xf3
 8788 2cff 01       		.uleb128 0x1
 8789 2d00 50       		.byte	0x50
 8790 2d01 37       		.uleb128 0x37
 8791 2d02 01       		.uleb128 0x1
 8792 2d03 51       		.byte	0x51
 8793 2d04 02       		.uleb128 0x2
 8794 2d05 74       		.byte	0x74
 8795 2d06 00       		.sleb128 0
 8796 2d07 37       		.uleb128 0x37
 8797 2d08 01       		.uleb128 0x1
 8798 2d09 52       		.byte	0x52
 8799 2d0a 01       		.uleb128 0x1
 8800 2d0b 31       		.byte	0x31
 8801 2d0c 37       		.uleb128 0x37
 8802 2d0d 01       		.uleb128 0x1
 8803 2d0e 53       		.byte	0x53
 8804 2d0f 02       		.uleb128 0x2
 8805 2d10 09       		.byte	0x9
 8806 2d11 FF       		.byte	0xff
 8807 2d12 00       		.byte	0
 8808 2d13 00       		.byte	0
 8809 2d14 00       		.byte	0
 8810 2d15 58       		.uleb128 0x58
 8811 2d16 17010000 		.4byte	.LASF203
 8812 2d1a 01       		.byte	0x1
 8813 2d1b 1E01     		.2byte	0x11e
 8814 2d1d 2C000000 		.4byte	0x2c
 8815 2d21 00000000 		.4byte	.LFB274
 8816 2d25 08000000 		.4byte	.LFE274-.LFB274
 8817 2d29 01       		.uleb128 0x1
 8818 2d2a 9C       		.byte	0x9c
 8819 2d2b 822D0000 		.4byte	0x2d82
 8820 2d2f 41       		.uleb128 0x41
 8821 2d30 0E010000 		.4byte	.LASF246
 8822 2d34 01       		.byte	0x1
 8823 2d35 1E01     		.2byte	0x11e
 8824 2d37 A8030000 		.4byte	0x3a8
 8825 2d3b F7150000 		.4byte	.LLST160
 8826 2d3f 42       		.uleb128 0x42
 8827 2d40 627000   		.ascii	"bp\000"
 8828 2d43 01       		.byte	0x1
 8829 2d44 1E01     		.2byte	0x11e
 8830 2d46 36090000 		.4byte	0x936
ARM GAS  /var/folders/m4/4md61f0s1_g0rzfghffqnxvr0000gn/T//cchEhHjd.s 			page 156


 8831 2d4a 18160000 		.4byte	.LLST161
 8832 2d4e 42       		.uleb128 0x42
 8833 2d4f 6E00     		.ascii	"n\000"
 8834 2d51 01       		.byte	0x1
 8835 2d52 1E01     		.2byte	0x11e
 8836 2d54 2C000000 		.4byte	0x2c
 8837 2d58 39160000 		.4byte	.LLST162
 8838 2d5c 47       		.uleb128 0x47
 8839 2d5d 08000000 		.4byte	.LVL320
 8840 2d61 43290000 		.4byte	0x2943
 8841 2d65 37       		.uleb128 0x37
 8842 2d66 01       		.uleb128 0x1
 8843 2d67 50       		.byte	0x50
 8844 2d68 03       		.uleb128 0x3
 8845 2d69 F3       		.byte	0xf3
 8846 2d6a 01       		.uleb128 0x1
 8847 2d6b 50       		.byte	0x50
 8848 2d6c 37       		.uleb128 0x37
 8849 2d6d 01       		.uleb128 0x1
 8850 2d6e 51       		.byte	0x51
 8851 2d6f 03       		.uleb128 0x3
 8852 2d70 F3       		.byte	0xf3
 8853 2d71 01       		.uleb128 0x1
 8854 2d72 51       		.byte	0x51
 8855 2d73 37       		.uleb128 0x37
 8856 2d74 01       		.uleb128 0x1
 8857 2d75 52       		.byte	0x52
 8858 2d76 03       		.uleb128 0x3
 8859 2d77 F3       		.byte	0xf3
 8860 2d78 01       		.uleb128 0x1
 8861 2d79 52       		.byte	0x52
 8862 2d7a 37       		.uleb128 0x37
 8863 2d7b 01       		.uleb128 0x1
 8864 2d7c 53       		.byte	0x53
 8865 2d7d 02       		.uleb128 0x2
 8866 2d7e 09       		.byte	0x9
 8867 2d7f FF       		.byte	0xff
 8868 2d80 00       		.byte	0
 8869 2d81 00       		.byte	0
 8870 2d82 3C       		.uleb128 0x3c
 8871 2d83 76110000 		.4byte	0x1176
 8872 2d87 9A080000 		.4byte	.LASF245
 8873 2d8b 00000000 		.4byte	.LFB306
 8874 2d8f 12000000 		.4byte	.LFE306-.LFB306
 8875 2d93 01       		.uleb128 0x1
 8876 2d94 9C       		.byte	0x9c
 8877 2d95 A12D0000 		.4byte	0x2da1
 8878 2d99 3D       		.uleb128 0x3d
 8879 2d9a 87110000 		.4byte	0x1187
 8880 2d9e 01       		.uleb128 0x1
 8881 2d9f 50       		.byte	0x50
 8882 2da0 00       		.byte	0
 8883 2da1 40       		.uleb128 0x40
 8884 2da2 9E110000 		.4byte	.LASF306
 8885 2da6 01       		.byte	0x1
 8886 2da7 3E02     		.2byte	0x23e
 8887 2da9 C70F0000 		.4byte	.LASF307
ARM GAS  /var/folders/m4/4md61f0s1_g0rzfghffqnxvr0000gn/T//cchEhHjd.s 			page 157


 8888 2dad 00000000 		.4byte	.LFB307
 8889 2db1 22000000 		.4byte	.LFE307-.LFB307
 8890 2db5 01       		.uleb128 0x1
 8891 2db6 9C       		.byte	0x9c
 8892 2db7 1B2E0000 		.4byte	0x2e1b
 8893 2dbb 41       		.uleb128 0x41
 8894 2dbc 5A0E0000 		.4byte	.LASF210
 8895 2dc0 01       		.byte	0x1
 8896 2dc1 3E02     		.2byte	0x23e
 8897 2dc3 D20F0000 		.4byte	0xfd2
 8898 2dc7 5A160000 		.4byte	.LLST163
 8899 2dcb 41       		.uleb128 0x41
 8900 2dcc DE020000 		.4byte	.LASF279
 8901 2dd0 01       		.byte	0x1
 8902 2dd1 3E02     		.2byte	0x23e
 8903 2dd3 AE000000 		.4byte	0xae
 8904 2dd7 91160000 		.4byte	.LLST164
 8905 2ddb 46       		.uleb128 0x46
 8906 2ddc 72656700 		.ascii	"reg\000"
 8907 2de0 01       		.byte	0x1
 8908 2de1 4002     		.2byte	0x240
 8909 2de3 AE000000 		.4byte	0xae
 8910 2de7 B2160000 		.4byte	.LLST165
 8911 2deb 3B       		.uleb128 0x3b
 8912 2dec 0C000000 		.4byte	.LVL324
 8913 2df0 9F150000 		.4byte	0x159f
 8914 2df4 042E0000 		.4byte	0x2e04
 8915 2df8 37       		.uleb128 0x37
 8916 2df9 01       		.uleb128 0x1
 8917 2dfa 50       		.byte	0x50
 8918 2dfb 02       		.uleb128 0x2
 8919 2dfc 75       		.byte	0x75
 8920 2dfd 00       		.sleb128 0
 8921 2dfe 37       		.uleb128 0x37
 8922 2dff 01       		.uleb128 0x1
 8923 2e00 51       		.byte	0x51
 8924 2e01 01       		.uleb128 0x1
 8925 2e02 32       		.byte	0x32
 8926 2e03 00       		.byte	0
 8927 2e04 47       		.uleb128 0x47
 8928 2e05 22000000 		.4byte	.LVL327
 8929 2e09 0B150000 		.4byte	0x150b
 8930 2e0d 37       		.uleb128 0x37
 8931 2e0e 01       		.uleb128 0x1
 8932 2e0f 50       		.byte	0x50
 8933 2e10 03       		.uleb128 0x3
 8934 2e11 F3       		.byte	0xf3
 8935 2e12 01       		.uleb128 0x1
 8936 2e13 50       		.byte	0x50
 8937 2e14 37       		.uleb128 0x37
 8938 2e15 01       		.uleb128 0x1
 8939 2e16 51       		.byte	0x51
 8940 2e17 01       		.uleb128 0x1
 8941 2e18 32       		.byte	0x32
 8942 2e19 00       		.byte	0
 8943 2e1a 00       		.byte	0
 8944 2e1b 3C       		.uleb128 0x3c
ARM GAS  /var/folders/m4/4md61f0s1_g0rzfghffqnxvr0000gn/T//cchEhHjd.s 			page 158


 8945 2e1c 47120000 		.4byte	0x1247
 8946 2e20 83120000 		.4byte	.LASF251
 8947 2e24 00000000 		.4byte	.LFB308
 8948 2e28 1A000000 		.4byte	.LFE308-.LFB308
 8949 2e2c 01       		.uleb128 0x1
 8950 2e2d 9C       		.byte	0x9c
 8951 2e2e F72E0000 		.4byte	0x2ef7
 8952 2e32 33       		.uleb128 0x33
 8953 2e33 58120000 		.4byte	0x1258
 8954 2e37 D0160000 		.4byte	.LLST166
 8955 2e3b 34       		.uleb128 0x34
 8956 2e3c 3E120000 		.4byte	0x123e
 8957 2e40 02000000 		.4byte	.LBB280
 8958 2e44 06000000 		.4byte	.LBE280-.LBB280
 8959 2e48 01       		.byte	0x1
 8960 2e49 4702     		.2byte	0x247
 8961 2e4b 8C2E0000 		.4byte	0x2e8c
 8962 2e4f 35       		.uleb128 0x35
 8963 2e50 6C0F0000 		.4byte	0xf6c
 8964 2e54 02000000 		.4byte	.LBB281
 8965 2e58 06000000 		.4byte	.LBE281-.LBB281
 8966 2e5c 18       		.byte	0x18
 8967 2e5d 8401     		.2byte	0x184
 8968 2e5f 35       		.uleb128 0x35
 8969 2e60 5A0F0000 		.4byte	0xf5a
 8970 2e64 02000000 		.4byte	.LBB282
 8971 2e68 06000000 		.4byte	.LBE282-.LBB282
 8972 2e6c 0D       		.byte	0xd
 8973 2e6d F101     		.2byte	0x1f1
 8974 2e6f 35       		.uleb128 0x35
 8975 2e70 400F0000 		.4byte	0xf40
 8976 2e74 02000000 		.4byte	.LBB283
 8977 2e78 06000000 		.4byte	.LBE283-.LBB283
 8978 2e7c 0D       		.byte	0xd
 8979 2e7d D001     		.2byte	0x1d0
 8980 2e7f 33       		.uleb128 0x33
 8981 2e80 4D0F0000 		.4byte	0xf4d
 8982 2e84 FF160000 		.4byte	.LLST167
 8983 2e88 00       		.byte	0
 8984 2e89 00       		.byte	0
 8985 2e8a 00       		.byte	0
 8986 2e8b 00       		.byte	0
 8987 2e8c 34       		.uleb128 0x34
 8988 2e8d 35120000 		.4byte	0x1235
 8989 2e91 12000000 		.4byte	.LBB285
 8990 2e95 08000000 		.4byte	.LBE285-.LBB285
 8991 2e99 01       		.byte	0x1
 8992 2e9a 4902     		.2byte	0x249
 8993 2e9c DD2E0000 		.4byte	0x2edd
 8994 2ea0 35       		.uleb128 0x35
 8995 2ea1 750F0000 		.4byte	0xf75
 8996 2ea5 12000000 		.4byte	.LBB286
 8997 2ea9 08000000 		.4byte	.LBE286-.LBB286
 8998 2ead 18       		.byte	0x18
 8999 2eae 9A01     		.2byte	0x19a
 9000 2eb0 35       		.uleb128 0x35
 9001 2eb1 630F0000 		.4byte	0xf63
ARM GAS  /var/folders/m4/4md61f0s1_g0rzfghffqnxvr0000gn/T//cchEhHjd.s 			page 159


 9002 2eb5 12000000 		.4byte	.LBB287
 9003 2eb9 08000000 		.4byte	.LBE287-.LBB287
 9004 2ebd 0D       		.byte	0xd
 9005 2ebe FC01     		.2byte	0x1fc
 9006 2ec0 35       		.uleb128 0x35
 9007 2ec1 400F0000 		.4byte	0xf40
 9008 2ec5 12000000 		.4byte	.LBB288
 9009 2ec9 08000000 		.4byte	.LBE288-.LBB288
 9010 2ecd 0D       		.byte	0xd
 9011 2ece E301     		.2byte	0x1e3
 9012 2ed0 33       		.uleb128 0x33
 9013 2ed1 4D0F0000 		.4byte	0xf4d
 9014 2ed5 14170000 		.4byte	.LLST168
 9015 2ed9 00       		.byte	0
 9016 2eda 00       		.byte	0
 9017 2edb 00       		.byte	0
 9018 2edc 00       		.byte	0
 9019 2edd 36       		.uleb128 0x36
 9020 2ede 12000000 		.4byte	.LVL331
 9021 2ee2 A62F0000 		.4byte	0x2fa6
 9022 2ee6 37       		.uleb128 0x37
 9023 2ee7 01       		.uleb128 0x1
 9024 2ee8 50       		.byte	0x50
 9025 2ee9 06       		.uleb128 0x6
 9026 2eea F3       		.byte	0xf3
 9027 2eeb 01       		.uleb128 0x1
 9028 2eec 50       		.byte	0x50
 9029 2eed 23       		.byte	0x23
 9030 2eee A002     		.uleb128 0x120
 9031 2ef0 37       		.uleb128 0x37
 9032 2ef1 01       		.uleb128 0x1
 9033 2ef2 51       		.byte	0x51
 9034 2ef3 01       		.uleb128 0x1
 9035 2ef4 31       		.byte	0x31
 9036 2ef5 00       		.byte	0
 9037 2ef6 00       		.byte	0
 9038 2ef7 59       		.uleb128 0x59
 9039 2ef8 CF090000 		.4byte	.LASF308
 9040 2efc 19       		.byte	0x19
 9041 2efd FA06     		.2byte	0x6fa
 9042 2eff 032F0000 		.4byte	0x2f03
 9043 2f03 12       		.uleb128 0x12
 9044 2f04 C4000000 		.4byte	0xc4
 9045 2f08 5A       		.uleb128 0x5a
 9046 2f09 636800   		.ascii	"ch\000"
 9047 2f0c 09       		.byte	0x9
 9048 2f0d 0902     		.2byte	0x209
 9049 2f0f 77040000 		.4byte	0x477
 9050 2f13 5B       		.uleb128 0x5b
 9051 2f14 5D090000 		.4byte	.LASF309
 9052 2f18 14       		.byte	0x14
 9053 2f19 88       		.byte	0x88
 9054 2f1a B80B0000 		.4byte	0xbb8
 9055 2f1e 59       		.uleb128 0x59
 9056 2f1f 5D010000 		.4byte	.LASF310
 9057 2f23 16       		.byte	0x16
 9058 2f24 F201     		.2byte	0x1f2
ARM GAS  /var/folders/m4/4md61f0s1_g0rzfghffqnxvr0000gn/T//cchEhHjd.s 			page 160


 9059 2f26 C20C0000 		.4byte	0xcc2
 9060 2f2a 5C       		.uleb128 0x5c
 9061 2f2b 9A090000 		.4byte	.LASF311
 9062 2f2f 01       		.byte	0x1
 9063 2f30 15       		.byte	0x15
 9064 2f31 350F0000 		.4byte	0xf35
 9065 2f35 05       		.uleb128 0x5
 9066 2f36 03       		.byte	0x3
 9067 2f37 00000000 		.4byte	nrf24l01
 9068 2f3b 53       		.uleb128 0x53
 9069 2f3c 83130000 		.4byte	.LASF312
 9070 2f40 01       		.byte	0x1
 9071 2f41 06       		.byte	0x6
 9072 2f42 C80D0000 		.4byte	0xdc8
 9073 2f46 05       		.uleb128 0x5
 9074 2f47 03       		.byte	0x3
 9075 2f48 00000000 		.4byte	_ZL11nrf24l01SPI
 9076 2f4c 53       		.uleb128 0x53
 9077 2f4d 830C0000 		.4byte	.LASF313
 9078 2f51 01       		.byte	0x1
 9079 2f52 0E       		.byte	0xe
 9080 2f53 300F0000 		.4byte	0xf30
 9081 2f57 05       		.uleb128 0x5
 9082 2f58 03       		.byte	0x3
 9083 2f59 00000000 		.4byte	_ZL14nrf24l01Config
 9084 2f5d 1B       		.uleb128 0x1b
 9085 2f5e 63000000 		.4byte	0x63
 9086 2f62 6D2F0000 		.4byte	0x2f6d
 9087 2f66 1C       		.uleb128 0x1c
 9088 2f67 DE040000 		.4byte	0x4de
 9089 2f6b 04       		.byte	0x4
 9090 2f6c 00       		.byte	0
 9091 2f6d 53       		.uleb128 0x53
 9092 2f6e 3E0A0000 		.4byte	.LASF224
 9093 2f72 01       		.byte	0x1
 9094 2f73 16       		.byte	0x16
 9095 2f74 7E2F0000 		.4byte	0x2f7e
 9096 2f78 05       		.uleb128 0x5
 9097 2f79 03       		.byte	0x3
 9098 2f7a 00000000 		.4byte	_ZL4addr
 9099 2f7e 1A       		.uleb128 0x1a
 9100 2f7f 5D2F0000 		.4byte	0x2f5d
 9101 2f83 53       		.uleb128 0x53
 9102 2f84 7F0A0000 		.4byte	.LASF314
 9103 2f88 01       		.byte	0x1
 9104 2f89 1D       		.byte	0x1d
 9105 2f8a 830C0000 		.4byte	0xc83
 9106 2f8e 05       		.uleb128 0x5
 9107 2f8f 03       		.byte	0x3
 9108 2f90 00000000 		.4byte	_ZL6extcfg
 9109 2f94 43       		.uleb128 0x43
 9110 2f95 766D7400 		.ascii	"vmt\000"
 9111 2f99 01       		.byte	0x1
 9112 2f9a 3201     		.2byte	0x132
 9113 2f9c CB0E0000 		.4byte	0xecb
 9114 2fa0 05       		.uleb128 0x5
 9115 2fa1 03       		.byte	0x3
ARM GAS  /var/folders/m4/4md61f0s1_g0rzfghffqnxvr0000gn/T//cchEhHjd.s 			page 161


 9116 2fa2 00000000 		.4byte	_ZL3vmt
 9117 2fa6 5D       		.uleb128 0x5d
 9118 2fa7 F00B0000 		.4byte	.LASF315
 9119 2fab F00B0000 		.4byte	.LASF315
 9120 2faf 03       		.byte	0x3
 9121 2fb0 87       		.byte	0x87
 9122 2fb1 5E       		.uleb128 0x5e
 9123 2fb2 26100000 		.4byte	.LASF316
 9124 2fb6 26100000 		.4byte	.LASF316
 9125 2fba 15       		.byte	0x15
 9126 2fbb 0A01     		.2byte	0x10a
 9127 2fbd 5E       		.uleb128 0x5e
 9128 2fbe 900A0000 		.4byte	.LASF317
 9129 2fc2 900A0000 		.4byte	.LASF317
 9130 2fc6 15       		.byte	0x15
 9131 2fc7 1301     		.2byte	0x113
 9132 2fc9 5E       		.uleb128 0x5e
 9133 2fca 580F0000 		.4byte	.LASF318
 9134 2fce 580F0000 		.4byte	.LASF318
 9135 2fd2 15       		.byte	0x15
 9136 2fd3 1501     		.2byte	0x115
 9137 2fd5 5E       		.uleb128 0x5e
 9138 2fd6 1B080000 		.4byte	.LASF319
 9139 2fda 1B080000 		.4byte	.LASF319
 9140 2fde 15       		.byte	0x15
 9141 2fdf 0B01     		.2byte	0x10b
 9142 2fe1 5E       		.uleb128 0x5e
 9143 2fe2 6F0E0000 		.4byte	.LASF320
 9144 2fe6 6F0E0000 		.4byte	.LASF320
 9145 2fea 15       		.byte	0x15
 9146 2feb 1401     		.2byte	0x114
 9147 2fed 5E       		.uleb128 0x5e
 9148 2fee 91010000 		.4byte	.LASF321
 9149 2ff2 91010000 		.4byte	.LASF321
 9150 2ff6 12       		.byte	0x12
 9151 2ff7 2402     		.2byte	0x224
 9152 2ff9 5E       		.uleb128 0x5e
 9153 2ffa 1F000000 		.4byte	.LASF322
 9154 2ffe 1F000000 		.4byte	.LASF322
 9155 3002 15       		.byte	0x15
 9156 3003 0801     		.2byte	0x108
 9157 3005 5D       		.uleb128 0x5d
 9158 3006 0A030000 		.4byte	.LASF323
 9159 300a 0A030000 		.4byte	.LASF323
 9160 300e 13       		.byte	0x13
 9161 300f 87       		.byte	0x87
 9162 3010 5D       		.uleb128 0x5d
 9163 3011 19050000 		.4byte	.LASF324
 9164 3015 19050000 		.4byte	.LASF324
 9165 3019 13       		.byte	0x13
 9166 301a 89       		.byte	0x89
 9167 301b 5D       		.uleb128 0x5d
 9168 301c 9D070000 		.4byte	.LASF325
 9169 3020 9D070000 		.4byte	.LASF325
 9170 3024 03       		.byte	0x3
 9171 3025 7B       		.byte	0x7b
 9172 3026 5D       		.uleb128 0x5d
ARM GAS  /var/folders/m4/4md61f0s1_g0rzfghffqnxvr0000gn/T//cchEhHjd.s 			page 162


 9173 3027 59060000 		.4byte	.LASF326
 9174 302b 59060000 		.4byte	.LASF326
 9175 302f 03       		.byte	0x3
 9176 3030 86       		.byte	0x86
 9177 3031 5D       		.uleb128 0x5d
 9178 3032 BC0C0000 		.4byte	.LASF327
 9179 3036 BC0C0000 		.4byte	.LASF327
 9180 303a 03       		.byte	0x3
 9181 303b 8F       		.byte	0x8f
 9182 303c 5D       		.uleb128 0x5d
 9183 303d 400E0000 		.4byte	.LASF328
 9184 3041 400E0000 		.4byte	.LASF328
 9185 3045 03       		.byte	0x3
 9186 3046 7F       		.byte	0x7f
 9187 3047 00       		.byte	0
 9188              		.section	.debug_abbrev,"",%progbits
 9189              	.Ldebug_abbrev0:
 9190 0000 01       		.uleb128 0x1
 9191 0001 11       		.uleb128 0x11
 9192 0002 01       		.byte	0x1
 9193 0003 25       		.uleb128 0x25
 9194 0004 0E       		.uleb128 0xe
 9195 0005 13       		.uleb128 0x13
 9196 0006 0B       		.uleb128 0xb
 9197 0007 03       		.uleb128 0x3
 9198 0008 0E       		.uleb128 0xe
 9199 0009 1B       		.uleb128 0x1b
 9200 000a 0E       		.uleb128 0xe
 9201 000b 55       		.uleb128 0x55
 9202 000c 17       		.uleb128 0x17
 9203 000d 11       		.uleb128 0x11
 9204 000e 01       		.uleb128 0x1
 9205 000f 10       		.uleb128 0x10
 9206 0010 17       		.uleb128 0x17
 9207 0011 00       		.byte	0
 9208 0012 00       		.byte	0
 9209 0013 02       		.uleb128 0x2
 9210 0014 24       		.uleb128 0x24
 9211 0015 00       		.byte	0
 9212 0016 0B       		.uleb128 0xb
 9213 0017 0B       		.uleb128 0xb
 9214 0018 3E       		.uleb128 0x3e
 9215 0019 0B       		.uleb128 0xb
 9216 001a 03       		.uleb128 0x3
 9217 001b 08       		.uleb128 0x8
 9218 001c 00       		.byte	0
 9219 001d 00       		.byte	0
 9220 001e 03       		.uleb128 0x3
 9221 001f 16       		.uleb128 0x16
 9222 0020 00       		.byte	0
 9223 0021 03       		.uleb128 0x3
 9224 0022 0E       		.uleb128 0xe
 9225 0023 3A       		.uleb128 0x3a
 9226 0024 0B       		.uleb128 0xb
 9227 0025 3B       		.uleb128 0x3b
 9228 0026 0B       		.uleb128 0xb
 9229 0027 49       		.uleb128 0x49
ARM GAS  /var/folders/m4/4md61f0s1_g0rzfghffqnxvr0000gn/T//cchEhHjd.s 			page 163


 9230 0028 13       		.uleb128 0x13
 9231 0029 00       		.byte	0
 9232 002a 00       		.byte	0
 9233 002b 04       		.uleb128 0x4
 9234 002c 24       		.uleb128 0x24
 9235 002d 00       		.byte	0
 9236 002e 0B       		.uleb128 0xb
 9237 002f 0B       		.uleb128 0xb
 9238 0030 3E       		.uleb128 0x3e
 9239 0031 0B       		.uleb128 0xb
 9240 0032 03       		.uleb128 0x3
 9241 0033 0E       		.uleb128 0xe
 9242 0034 00       		.byte	0
 9243 0035 00       		.byte	0
 9244 0036 05       		.uleb128 0x5
 9245 0037 3B       		.uleb128 0x3b
 9246 0038 00       		.byte	0
 9247 0039 03       		.uleb128 0x3
 9248 003a 0E       		.uleb128 0xe
 9249 003b 00       		.byte	0
 9250 003c 00       		.byte	0
 9251 003d 06       		.uleb128 0x6
 9252 003e 13       		.uleb128 0x13
 9253 003f 01       		.byte	0x1
 9254 0040 03       		.uleb128 0x3
 9255 0041 0E       		.uleb128 0xe
 9256 0042 0B       		.uleb128 0xb
 9257 0043 0B       		.uleb128 0xb
 9258 0044 3A       		.uleb128 0x3a
 9259 0045 0B       		.uleb128 0xb
 9260 0046 3B       		.uleb128 0x3b
 9261 0047 0B       		.uleb128 0xb
 9262 0048 01       		.uleb128 0x1
 9263 0049 13       		.uleb128 0x13
 9264 004a 00       		.byte	0
 9265 004b 00       		.byte	0
 9266 004c 07       		.uleb128 0x7
 9267 004d 17       		.uleb128 0x17
 9268 004e 01       		.byte	0x1
 9269 004f 0B       		.uleb128 0xb
 9270 0050 0B       		.uleb128 0xb
 9271 0051 3A       		.uleb128 0x3a
 9272 0052 0B       		.uleb128 0xb
 9273 0053 3B       		.uleb128 0x3b
 9274 0054 0B       		.uleb128 0xb
 9275 0055 01       		.uleb128 0x1
 9276 0056 13       		.uleb128 0x13
 9277 0057 00       		.byte	0
 9278 0058 00       		.byte	0
 9279 0059 08       		.uleb128 0x8
 9280 005a 0D       		.uleb128 0xd
 9281 005b 00       		.byte	0
 9282 005c 03       		.uleb128 0x3
 9283 005d 0E       		.uleb128 0xe
 9284 005e 3A       		.uleb128 0x3a
 9285 005f 0B       		.uleb128 0xb
 9286 0060 3B       		.uleb128 0x3b
ARM GAS  /var/folders/m4/4md61f0s1_g0rzfghffqnxvr0000gn/T//cchEhHjd.s 			page 164


 9287 0061 05       		.uleb128 0x5
 9288 0062 49       		.uleb128 0x49
 9289 0063 13       		.uleb128 0x13
 9290 0064 00       		.byte	0
 9291 0065 00       		.byte	0
 9292 0066 09       		.uleb128 0x9
 9293 0067 0D       		.uleb128 0xd
 9294 0068 00       		.byte	0
 9295 0069 03       		.uleb128 0x3
 9296 006a 0E       		.uleb128 0xe
 9297 006b 3A       		.uleb128 0x3a
 9298 006c 0B       		.uleb128 0xb
 9299 006d 3B       		.uleb128 0x3b
 9300 006e 0B       		.uleb128 0xb
 9301 006f 49       		.uleb128 0x49
 9302 0070 13       		.uleb128 0x13
 9303 0071 38       		.uleb128 0x38
 9304 0072 0B       		.uleb128 0xb
 9305 0073 00       		.byte	0
 9306 0074 00       		.byte	0
 9307 0075 0A       		.uleb128 0xa
 9308 0076 0D       		.uleb128 0xd
 9309 0077 00       		.byte	0
 9310 0078 03       		.uleb128 0x3
 9311 0079 08       		.uleb128 0x8
 9312 007a 3A       		.uleb128 0x3a
 9313 007b 0B       		.uleb128 0xb
 9314 007c 3B       		.uleb128 0x3b
 9315 007d 05       		.uleb128 0x5
 9316 007e 49       		.uleb128 0x49
 9317 007f 13       		.uleb128 0x13
 9318 0080 38       		.uleb128 0x38
 9319 0081 0B       		.uleb128 0xb
 9320 0082 00       		.byte	0
 9321 0083 00       		.byte	0
 9322 0084 0B       		.uleb128 0xb
 9323 0085 0D       		.uleb128 0xd
 9324 0086 00       		.byte	0
 9325 0087 03       		.uleb128 0x3
 9326 0088 0E       		.uleb128 0xe
 9327 0089 3A       		.uleb128 0x3a
 9328 008a 0B       		.uleb128 0xb
 9329 008b 3B       		.uleb128 0x3b
 9330 008c 05       		.uleb128 0x5
 9331 008d 49       		.uleb128 0x49
 9332 008e 13       		.uleb128 0x13
 9333 008f 38       		.uleb128 0x38
 9334 0090 0B       		.uleb128 0xb
 9335 0091 00       		.byte	0
 9336 0092 00       		.byte	0
 9337 0093 0C       		.uleb128 0xc
 9338 0094 0F       		.uleb128 0xf
 9339 0095 00       		.byte	0
 9340 0096 0B       		.uleb128 0xb
 9341 0097 0B       		.uleb128 0xb
 9342 0098 49       		.uleb128 0x49
 9343 0099 13       		.uleb128 0x13
ARM GAS  /var/folders/m4/4md61f0s1_g0rzfghffqnxvr0000gn/T//cchEhHjd.s 			page 165


 9344 009a 00       		.byte	0
 9345 009b 00       		.byte	0
 9346 009c 0D       		.uleb128 0xd
 9347 009d 13       		.uleb128 0x13
 9348 009e 01       		.byte	0x1
 9349 009f 03       		.uleb128 0x3
 9350 00a0 0E       		.uleb128 0xe
 9351 00a1 0B       		.uleb128 0xb
 9352 00a2 0B       		.uleb128 0xb
 9353 00a3 3A       		.uleb128 0x3a
 9354 00a4 0B       		.uleb128 0xb
 9355 00a5 3B       		.uleb128 0x3b
 9356 00a6 05       		.uleb128 0x5
 9357 00a7 01       		.uleb128 0x1
 9358 00a8 13       		.uleb128 0x13
 9359 00a9 00       		.byte	0
 9360 00aa 00       		.byte	0
 9361 00ab 0E       		.uleb128 0xe
 9362 00ac 15       		.uleb128 0x15
 9363 00ad 01       		.byte	0x1
 9364 00ae 01       		.uleb128 0x1
 9365 00af 13       		.uleb128 0x13
 9366 00b0 00       		.byte	0
 9367 00b1 00       		.byte	0
 9368 00b2 0F       		.uleb128 0xf
 9369 00b3 05       		.uleb128 0x5
 9370 00b4 00       		.byte	0
 9371 00b5 49       		.uleb128 0x49
 9372 00b6 13       		.uleb128 0x13
 9373 00b7 00       		.byte	0
 9374 00b8 00       		.byte	0
 9375 00b9 10       		.uleb128 0x10
 9376 00ba 0F       		.uleb128 0xf
 9377 00bb 00       		.byte	0
 9378 00bc 0B       		.uleb128 0xb
 9379 00bd 0B       		.uleb128 0xb
 9380 00be 00       		.byte	0
 9381 00bf 00       		.byte	0
 9382 00c0 11       		.uleb128 0x11
 9383 00c1 13       		.uleb128 0x13
 9384 00c2 01       		.byte	0x1
 9385 00c3 03       		.uleb128 0x3
 9386 00c4 0E       		.uleb128 0xe
 9387 00c5 0B       		.uleb128 0xb
 9388 00c6 05       		.uleb128 0x5
 9389 00c7 3A       		.uleb128 0x3a
 9390 00c8 0B       		.uleb128 0xb
 9391 00c9 3B       		.uleb128 0x3b
 9392 00ca 05       		.uleb128 0x5
 9393 00cb 01       		.uleb128 0x1
 9394 00cc 13       		.uleb128 0x13
 9395 00cd 00       		.byte	0
 9396 00ce 00       		.byte	0
 9397 00cf 12       		.uleb128 0x12
 9398 00d0 35       		.uleb128 0x35
 9399 00d1 00       		.byte	0
 9400 00d2 49       		.uleb128 0x49
ARM GAS  /var/folders/m4/4md61f0s1_g0rzfghffqnxvr0000gn/T//cchEhHjd.s 			page 166


 9401 00d3 13       		.uleb128 0x13
 9402 00d4 00       		.byte	0
 9403 00d5 00       		.byte	0
 9404 00d6 13       		.uleb128 0x13
 9405 00d7 13       		.uleb128 0x13
 9406 00d8 01       		.byte	0x1
 9407 00d9 0B       		.uleb128 0xb
 9408 00da 0B       		.uleb128 0xb
 9409 00db 3A       		.uleb128 0x3a
 9410 00dc 0B       		.uleb128 0xb
 9411 00dd 3B       		.uleb128 0x3b
 9412 00de 05       		.uleb128 0x5
 9413 00df 6E       		.uleb128 0x6e
 9414 00e0 0E       		.uleb128 0xe
 9415 00e1 01       		.uleb128 0x1
 9416 00e2 13       		.uleb128 0x13
 9417 00e3 00       		.byte	0
 9418 00e4 00       		.byte	0
 9419 00e5 14       		.uleb128 0x14
 9420 00e6 16       		.uleb128 0x16
 9421 00e7 00       		.byte	0
 9422 00e8 03       		.uleb128 0x3
 9423 00e9 0E       		.uleb128 0xe
 9424 00ea 3A       		.uleb128 0x3a
 9425 00eb 0B       		.uleb128 0xb
 9426 00ec 3B       		.uleb128 0x3b
 9427 00ed 05       		.uleb128 0x5
 9428 00ee 49       		.uleb128 0x49
 9429 00ef 13       		.uleb128 0x13
 9430 00f0 00       		.byte	0
 9431 00f1 00       		.byte	0
 9432 00f2 15       		.uleb128 0x15
 9433 00f3 04       		.uleb128 0x4
 9434 00f4 01       		.byte	0x1
 9435 00f5 0B       		.uleb128 0xb
 9436 00f6 0B       		.uleb128 0xb
 9437 00f7 49       		.uleb128 0x49
 9438 00f8 13       		.uleb128 0x13
 9439 00f9 3A       		.uleb128 0x3a
 9440 00fa 0B       		.uleb128 0xb
 9441 00fb 3B       		.uleb128 0x3b
 9442 00fc 0B       		.uleb128 0xb
 9443 00fd 6E       		.uleb128 0x6e
 9444 00fe 0E       		.uleb128 0xe
 9445 00ff 01       		.uleb128 0x1
 9446 0100 13       		.uleb128 0x13
 9447 0101 00       		.byte	0
 9448 0102 00       		.byte	0
 9449 0103 16       		.uleb128 0x16
 9450 0104 28       		.uleb128 0x28
 9451 0105 00       		.byte	0
 9452 0106 03       		.uleb128 0x3
 9453 0107 0E       		.uleb128 0xe
 9454 0108 1C       		.uleb128 0x1c
 9455 0109 0B       		.uleb128 0xb
 9456 010a 00       		.byte	0
 9457 010b 00       		.byte	0
ARM GAS  /var/folders/m4/4md61f0s1_g0rzfghffqnxvr0000gn/T//cchEhHjd.s 			page 167


 9458 010c 17       		.uleb128 0x17
 9459 010d 28       		.uleb128 0x28
 9460 010e 00       		.byte	0
 9461 010f 03       		.uleb128 0x3
 9462 0110 08       		.uleb128 0x8
 9463 0111 1C       		.uleb128 0x1c
 9464 0112 0B       		.uleb128 0xb
 9465 0113 00       		.byte	0
 9466 0114 00       		.byte	0
 9467 0115 18       		.uleb128 0x18
 9468 0116 0D       		.uleb128 0xd
 9469 0117 00       		.byte	0
 9470 0118 03       		.uleb128 0x3
 9471 0119 08       		.uleb128 0x8
 9472 011a 3A       		.uleb128 0x3a
 9473 011b 0B       		.uleb128 0xb
 9474 011c 3B       		.uleb128 0x3b
 9475 011d 0B       		.uleb128 0xb
 9476 011e 49       		.uleb128 0x49
 9477 011f 13       		.uleb128 0x13
 9478 0120 38       		.uleb128 0x38
 9479 0121 0B       		.uleb128 0xb
 9480 0122 00       		.byte	0
 9481 0123 00       		.byte	0
 9482 0124 19       		.uleb128 0x19
 9483 0125 13       		.uleb128 0x13
 9484 0126 01       		.byte	0x1
 9485 0127 0B       		.uleb128 0xb
 9486 0128 0B       		.uleb128 0xb
 9487 0129 3A       		.uleb128 0x3a
 9488 012a 0B       		.uleb128 0xb
 9489 012b 3B       		.uleb128 0x3b
 9490 012c 0B       		.uleb128 0xb
 9491 012d 6E       		.uleb128 0x6e
 9492 012e 0E       		.uleb128 0xe
 9493 012f 01       		.uleb128 0x1
 9494 0130 13       		.uleb128 0x13
 9495 0131 00       		.byte	0
 9496 0132 00       		.byte	0
 9497 0133 1A       		.uleb128 0x1a
 9498 0134 26       		.uleb128 0x26
 9499 0135 00       		.byte	0
 9500 0136 49       		.uleb128 0x49
 9501 0137 13       		.uleb128 0x13
 9502 0138 00       		.byte	0
 9503 0139 00       		.byte	0
 9504 013a 1B       		.uleb128 0x1b
 9505 013b 01       		.uleb128 0x1
 9506 013c 01       		.byte	0x1
 9507 013d 49       		.uleb128 0x49
 9508 013e 13       		.uleb128 0x13
 9509 013f 01       		.uleb128 0x1
 9510 0140 13       		.uleb128 0x13
 9511 0141 00       		.byte	0
 9512 0142 00       		.byte	0
 9513 0143 1C       		.uleb128 0x1c
 9514 0144 21       		.uleb128 0x21
ARM GAS  /var/folders/m4/4md61f0s1_g0rzfghffqnxvr0000gn/T//cchEhHjd.s 			page 168


 9515 0145 00       		.byte	0
 9516 0146 49       		.uleb128 0x49
 9517 0147 13       		.uleb128 0x13
 9518 0148 2F       		.uleb128 0x2f
 9519 0149 0B       		.uleb128 0xb
 9520 014a 00       		.byte	0
 9521 014b 00       		.byte	0
 9522 014c 1D       		.uleb128 0x1d
 9523 014d 15       		.uleb128 0x15
 9524 014e 01       		.byte	0x1
 9525 014f 49       		.uleb128 0x49
 9526 0150 13       		.uleb128 0x13
 9527 0151 01       		.uleb128 0x1
 9528 0152 13       		.uleb128 0x13
 9529 0153 00       		.byte	0
 9530 0154 00       		.byte	0
 9531 0155 1E       		.uleb128 0x1e
 9532 0156 13       		.uleb128 0x13
 9533 0157 01       		.byte	0x1
 9534 0158 0B       		.uleb128 0xb
 9535 0159 0B       		.uleb128 0xb
 9536 015a 3A       		.uleb128 0x3a
 9537 015b 0B       		.uleb128 0xb
 9538 015c 3B       		.uleb128 0x3b
 9539 015d 0B       		.uleb128 0xb
 9540 015e 01       		.uleb128 0x1
 9541 015f 13       		.uleb128 0x13
 9542 0160 00       		.byte	0
 9543 0161 00       		.byte	0
 9544 0162 1F       		.uleb128 0x1f
 9545 0163 0D       		.uleb128 0xd
 9546 0164 00       		.byte	0
 9547 0165 03       		.uleb128 0x3
 9548 0166 08       		.uleb128 0x8
 9549 0167 3A       		.uleb128 0x3a
 9550 0168 0B       		.uleb128 0xb
 9551 0169 3B       		.uleb128 0x3b
 9552 016a 0B       		.uleb128 0xb
 9553 016b 49       		.uleb128 0x49
 9554 016c 13       		.uleb128 0x13
 9555 016d 00       		.byte	0
 9556 016e 00       		.byte	0
 9557 016f 20       		.uleb128 0x20
 9558 0170 13       		.uleb128 0x13
 9559 0171 01       		.byte	0x1
 9560 0172 03       		.uleb128 0x3
 9561 0173 0E       		.uleb128 0xe
 9562 0174 0B       		.uleb128 0xb
 9563 0175 05       		.uleb128 0x5
 9564 0176 3A       		.uleb128 0x3a
 9565 0177 0B       		.uleb128 0xb
 9566 0178 3B       		.uleb128 0x3b
 9567 0179 0B       		.uleb128 0xb
 9568 017a 01       		.uleb128 0x1
 9569 017b 13       		.uleb128 0x13
 9570 017c 00       		.byte	0
 9571 017d 00       		.byte	0
ARM GAS  /var/folders/m4/4md61f0s1_g0rzfghffqnxvr0000gn/T//cchEhHjd.s 			page 169


 9572 017e 21       		.uleb128 0x21
 9573 017f 0D       		.uleb128 0xd
 9574 0180 00       		.byte	0
 9575 0181 03       		.uleb128 0x3
 9576 0182 0E       		.uleb128 0xe
 9577 0183 3A       		.uleb128 0x3a
 9578 0184 0B       		.uleb128 0xb
 9579 0185 3B       		.uleb128 0x3b
 9580 0186 0B       		.uleb128 0xb
 9581 0187 49       		.uleb128 0x49
 9582 0188 13       		.uleb128 0x13
 9583 0189 38       		.uleb128 0x38
 9584 018a 05       		.uleb128 0x5
 9585 018b 00       		.byte	0
 9586 018c 00       		.byte	0
 9587 018d 22       		.uleb128 0x22
 9588 018e 2E       		.uleb128 0x2e
 9589 018f 01       		.byte	0x1
 9590 0190 03       		.uleb128 0x3
 9591 0191 0E       		.uleb128 0xe
 9592 0192 3A       		.uleb128 0x3a
 9593 0193 0B       		.uleb128 0xb
 9594 0194 3B       		.uleb128 0x3b
 9595 0195 05       		.uleb128 0x5
 9596 0196 20       		.uleb128 0x20
 9597 0197 0B       		.uleb128 0xb
 9598 0198 01       		.uleb128 0x1
 9599 0199 13       		.uleb128 0x13
 9600 019a 00       		.byte	0
 9601 019b 00       		.byte	0
 9602 019c 23       		.uleb128 0x23
 9603 019d 05       		.uleb128 0x5
 9604 019e 00       		.byte	0
 9605 019f 03       		.uleb128 0x3
 9606 01a0 0E       		.uleb128 0xe
 9607 01a1 3A       		.uleb128 0x3a
 9608 01a2 0B       		.uleb128 0xb
 9609 01a3 3B       		.uleb128 0x3b
 9610 01a4 05       		.uleb128 0x5
 9611 01a5 49       		.uleb128 0x49
 9612 01a6 13       		.uleb128 0x13
 9613 01a7 00       		.byte	0
 9614 01a8 00       		.byte	0
 9615 01a9 24       		.uleb128 0x24
 9616 01aa 2E       		.uleb128 0x2e
 9617 01ab 00       		.byte	0
 9618 01ac 03       		.uleb128 0x3
 9619 01ad 0E       		.uleb128 0xe
 9620 01ae 3A       		.uleb128 0x3a
 9621 01af 0B       		.uleb128 0xb
 9622 01b0 3B       		.uleb128 0x3b
 9623 01b1 05       		.uleb128 0x5
 9624 01b2 20       		.uleb128 0x20
 9625 01b3 0B       		.uleb128 0xb
 9626 01b4 00       		.byte	0
 9627 01b5 00       		.byte	0
 9628 01b6 25       		.uleb128 0x25
ARM GAS  /var/folders/m4/4md61f0s1_g0rzfghffqnxvr0000gn/T//cchEhHjd.s 			page 170


 9629 01b7 2E       		.uleb128 0x2e
 9630 01b8 01       		.byte	0x1
 9631 01b9 03       		.uleb128 0x3
 9632 01ba 0E       		.uleb128 0xe
 9633 01bb 3A       		.uleb128 0x3a
 9634 01bc 0B       		.uleb128 0xb
 9635 01bd 3B       		.uleb128 0x3b
 9636 01be 0B       		.uleb128 0xb
 9637 01bf 20       		.uleb128 0x20
 9638 01c0 0B       		.uleb128 0xb
 9639 01c1 01       		.uleb128 0x1
 9640 01c2 13       		.uleb128 0x13
 9641 01c3 00       		.byte	0
 9642 01c4 00       		.byte	0
 9643 01c5 26       		.uleb128 0x26
 9644 01c6 05       		.uleb128 0x5
 9645 01c7 00       		.byte	0
 9646 01c8 03       		.uleb128 0x3
 9647 01c9 08       		.uleb128 0x8
 9648 01ca 3A       		.uleb128 0x3a
 9649 01cb 0B       		.uleb128 0xb
 9650 01cc 3B       		.uleb128 0x3b
 9651 01cd 0B       		.uleb128 0xb
 9652 01ce 49       		.uleb128 0x49
 9653 01cf 13       		.uleb128 0x13
 9654 01d0 00       		.byte	0
 9655 01d1 00       		.byte	0
 9656 01d2 27       		.uleb128 0x27
 9657 01d3 2E       		.uleb128 0x2e
 9658 01d4 01       		.byte	0x1
 9659 01d5 3F       		.uleb128 0x3f
 9660 01d6 19       		.uleb128 0x19
 9661 01d7 03       		.uleb128 0x3
 9662 01d8 0E       		.uleb128 0xe
 9663 01d9 3A       		.uleb128 0x3a
 9664 01da 0B       		.uleb128 0xb
 9665 01db 3B       		.uleb128 0x3b
 9666 01dc 05       		.uleb128 0x5
 9667 01dd 6E       		.uleb128 0x6e
 9668 01de 0E       		.uleb128 0xe
 9669 01df 20       		.uleb128 0x20
 9670 01e0 0B       		.uleb128 0xb
 9671 01e1 01       		.uleb128 0x1
 9672 01e2 13       		.uleb128 0x13
 9673 01e3 00       		.byte	0
 9674 01e4 00       		.byte	0
 9675 01e5 28       		.uleb128 0x28
 9676 01e6 34       		.uleb128 0x34
 9677 01e7 00       		.byte	0
 9678 01e8 03       		.uleb128 0x3
 9679 01e9 08       		.uleb128 0x8
 9680 01ea 3A       		.uleb128 0x3a
 9681 01eb 0B       		.uleb128 0xb
 9682 01ec 3B       		.uleb128 0x3b
 9683 01ed 05       		.uleb128 0x5
 9684 01ee 49       		.uleb128 0x49
 9685 01ef 13       		.uleb128 0x13
ARM GAS  /var/folders/m4/4md61f0s1_g0rzfghffqnxvr0000gn/T//cchEhHjd.s 			page 171


 9686 01f0 00       		.byte	0
 9687 01f1 00       		.byte	0
 9688 01f2 29       		.uleb128 0x29
 9689 01f3 34       		.uleb128 0x34
 9690 01f4 00       		.byte	0
 9691 01f5 03       		.uleb128 0x3
 9692 01f6 0E       		.uleb128 0xe
 9693 01f7 3A       		.uleb128 0x3a
 9694 01f8 0B       		.uleb128 0xb
 9695 01f9 3B       		.uleb128 0x3b
 9696 01fa 05       		.uleb128 0x5
 9697 01fb 49       		.uleb128 0x49
 9698 01fc 13       		.uleb128 0x13
 9699 01fd 00       		.byte	0
 9700 01fe 00       		.byte	0
 9701 01ff 2A       		.uleb128 0x2a
 9702 0200 05       		.uleb128 0x5
 9703 0201 00       		.byte	0
 9704 0202 03       		.uleb128 0x3
 9705 0203 08       		.uleb128 0x8
 9706 0204 3A       		.uleb128 0x3a
 9707 0205 0B       		.uleb128 0xb
 9708 0206 3B       		.uleb128 0x3b
 9709 0207 05       		.uleb128 0x5
 9710 0208 49       		.uleb128 0x49
 9711 0209 13       		.uleb128 0x13
 9712 020a 00       		.byte	0
 9713 020b 00       		.byte	0
 9714 020c 2B       		.uleb128 0x2b
 9715 020d 0B       		.uleb128 0xb
 9716 020e 01       		.byte	0x1
 9717 020f 00       		.byte	0
 9718 0210 00       		.byte	0
 9719 0211 2C       		.uleb128 0x2c
 9720 0212 05       		.uleb128 0x5
 9721 0213 00       		.byte	0
 9722 0214 03       		.uleb128 0x3
 9723 0215 0E       		.uleb128 0xe
 9724 0216 3A       		.uleb128 0x3a
 9725 0217 0B       		.uleb128 0xb
 9726 0218 3B       		.uleb128 0x3b
 9727 0219 0B       		.uleb128 0xb
 9728 021a 49       		.uleb128 0x49
 9729 021b 13       		.uleb128 0x13
 9730 021c 00       		.byte	0
 9731 021d 00       		.byte	0
 9732 021e 2D       		.uleb128 0x2d
 9733 021f 2E       		.uleb128 0x2e
 9734 0220 01       		.byte	0x1
 9735 0221 3F       		.uleb128 0x3f
 9736 0222 19       		.uleb128 0x19
 9737 0223 03       		.uleb128 0x3
 9738 0224 0E       		.uleb128 0xe
 9739 0225 3A       		.uleb128 0x3a
 9740 0226 0B       		.uleb128 0xb
 9741 0227 3B       		.uleb128 0x3b
 9742 0228 05       		.uleb128 0x5
ARM GAS  /var/folders/m4/4md61f0s1_g0rzfghffqnxvr0000gn/T//cchEhHjd.s 			page 172


 9743 0229 6E       		.uleb128 0x6e
 9744 022a 0E       		.uleb128 0xe
 9745 022b 49       		.uleb128 0x49
 9746 022c 13       		.uleb128 0x13
 9747 022d 20       		.uleb128 0x20
 9748 022e 0B       		.uleb128 0xb
 9749 022f 01       		.uleb128 0x1
 9750 0230 13       		.uleb128 0x13
 9751 0231 00       		.byte	0
 9752 0232 00       		.byte	0
 9753 0233 2E       		.uleb128 0x2e
 9754 0234 2E       		.uleb128 0x2e
 9755 0235 01       		.byte	0x1
 9756 0236 03       		.uleb128 0x3
 9757 0237 0E       		.uleb128 0xe
 9758 0238 3A       		.uleb128 0x3a
 9759 0239 0B       		.uleb128 0xb
 9760 023a 3B       		.uleb128 0x3b
 9761 023b 0B       		.uleb128 0xb
 9762 023c 49       		.uleb128 0x49
 9763 023d 13       		.uleb128 0x13
 9764 023e 20       		.uleb128 0x20
 9765 023f 0B       		.uleb128 0xb
 9766 0240 01       		.uleb128 0x1
 9767 0241 13       		.uleb128 0x13
 9768 0242 00       		.byte	0
 9769 0243 00       		.byte	0
 9770 0244 2F       		.uleb128 0x2f
 9771 0245 0B       		.uleb128 0xb
 9772 0246 01       		.byte	0x1
 9773 0247 01       		.uleb128 0x1
 9774 0248 13       		.uleb128 0x13
 9775 0249 00       		.byte	0
 9776 024a 00       		.byte	0
 9777 024b 30       		.uleb128 0x30
 9778 024c 2E       		.uleb128 0x2e
 9779 024d 01       		.byte	0x1
 9780 024e 03       		.uleb128 0x3
 9781 024f 0E       		.uleb128 0xe
 9782 0250 3A       		.uleb128 0x3a
 9783 0251 0B       		.uleb128 0xb
 9784 0252 3B       		.uleb128 0x3b
 9785 0253 0B       		.uleb128 0xb
 9786 0254 11       		.uleb128 0x11
 9787 0255 01       		.uleb128 0x1
 9788 0256 12       		.uleb128 0x12
 9789 0257 06       		.uleb128 0x6
 9790 0258 40       		.uleb128 0x40
 9791 0259 18       		.uleb128 0x18
 9792 025a 9742     		.uleb128 0x2117
 9793 025c 19       		.uleb128 0x19
 9794 025d 01       		.uleb128 0x1
 9795 025e 13       		.uleb128 0x13
 9796 025f 00       		.byte	0
 9797 0260 00       		.byte	0
 9798 0261 31       		.uleb128 0x31
 9799 0262 05       		.uleb128 0x5
ARM GAS  /var/folders/m4/4md61f0s1_g0rzfghffqnxvr0000gn/T//cchEhHjd.s 			page 173


 9800 0263 00       		.byte	0
 9801 0264 03       		.uleb128 0x3
 9802 0265 0E       		.uleb128 0xe
 9803 0266 3A       		.uleb128 0x3a
 9804 0267 0B       		.uleb128 0xb
 9805 0268 3B       		.uleb128 0x3b
 9806 0269 0B       		.uleb128 0xb
 9807 026a 49       		.uleb128 0x49
 9808 026b 13       		.uleb128 0x13
 9809 026c 02       		.uleb128 0x2
 9810 026d 17       		.uleb128 0x17
 9811 026e 00       		.byte	0
 9812 026f 00       		.byte	0
 9813 0270 32       		.uleb128 0x32
 9814 0271 1D       		.uleb128 0x1d
 9815 0272 01       		.byte	0x1
 9816 0273 31       		.uleb128 0x31
 9817 0274 13       		.uleb128 0x13
 9818 0275 11       		.uleb128 0x11
 9819 0276 01       		.uleb128 0x1
 9820 0277 12       		.uleb128 0x12
 9821 0278 06       		.uleb128 0x6
 9822 0279 58       		.uleb128 0x58
 9823 027a 0B       		.uleb128 0xb
 9824 027b 59       		.uleb128 0x59
 9825 027c 0B       		.uleb128 0xb
 9826 027d 00       		.byte	0
 9827 027e 00       		.byte	0
 9828 027f 33       		.uleb128 0x33
 9829 0280 05       		.uleb128 0x5
 9830 0281 00       		.byte	0
 9831 0282 31       		.uleb128 0x31
 9832 0283 13       		.uleb128 0x13
 9833 0284 02       		.uleb128 0x2
 9834 0285 17       		.uleb128 0x17
 9835 0286 00       		.byte	0
 9836 0287 00       		.byte	0
 9837 0288 34       		.uleb128 0x34
 9838 0289 1D       		.uleb128 0x1d
 9839 028a 01       		.byte	0x1
 9840 028b 31       		.uleb128 0x31
 9841 028c 13       		.uleb128 0x13
 9842 028d 11       		.uleb128 0x11
 9843 028e 01       		.uleb128 0x1
 9844 028f 12       		.uleb128 0x12
 9845 0290 06       		.uleb128 0x6
 9846 0291 58       		.uleb128 0x58
 9847 0292 0B       		.uleb128 0xb
 9848 0293 59       		.uleb128 0x59
 9849 0294 05       		.uleb128 0x5
 9850 0295 01       		.uleb128 0x1
 9851 0296 13       		.uleb128 0x13
 9852 0297 00       		.byte	0
 9853 0298 00       		.byte	0
 9854 0299 35       		.uleb128 0x35
 9855 029a 1D       		.uleb128 0x1d
 9856 029b 01       		.byte	0x1
ARM GAS  /var/folders/m4/4md61f0s1_g0rzfghffqnxvr0000gn/T//cchEhHjd.s 			page 174


 9857 029c 31       		.uleb128 0x31
 9858 029d 13       		.uleb128 0x13
 9859 029e 11       		.uleb128 0x11
 9860 029f 01       		.uleb128 0x1
 9861 02a0 12       		.uleb128 0x12
 9862 02a1 06       		.uleb128 0x6
 9863 02a2 58       		.uleb128 0x58
 9864 02a3 0B       		.uleb128 0xb
 9865 02a4 59       		.uleb128 0x59
 9866 02a5 05       		.uleb128 0x5
 9867 02a6 00       		.byte	0
 9868 02a7 00       		.byte	0
 9869 02a8 36       		.uleb128 0x36
 9870 02a9 898201   		.uleb128 0x4109
 9871 02ac 01       		.byte	0x1
 9872 02ad 11       		.uleb128 0x11
 9873 02ae 01       		.uleb128 0x1
 9874 02af 31       		.uleb128 0x31
 9875 02b0 13       		.uleb128 0x13
 9876 02b1 00       		.byte	0
 9877 02b2 00       		.byte	0
 9878 02b3 37       		.uleb128 0x37
 9879 02b4 8A8201   		.uleb128 0x410a
 9880 02b7 00       		.byte	0
 9881 02b8 02       		.uleb128 0x2
 9882 02b9 18       		.uleb128 0x18
 9883 02ba 9142     		.uleb128 0x2111
 9884 02bc 18       		.uleb128 0x18
 9885 02bd 00       		.byte	0
 9886 02be 00       		.byte	0
 9887 02bf 38       		.uleb128 0x38
 9888 02c0 2E       		.uleb128 0x2e
 9889 02c1 01       		.byte	0x1
 9890 02c2 31       		.uleb128 0x31
 9891 02c3 13       		.uleb128 0x13
 9892 02c4 11       		.uleb128 0x11
 9893 02c5 01       		.uleb128 0x1
 9894 02c6 12       		.uleb128 0x12
 9895 02c7 06       		.uleb128 0x6
 9896 02c8 40       		.uleb128 0x40
 9897 02c9 18       		.uleb128 0x18
 9898 02ca 9742     		.uleb128 0x2117
 9899 02cc 19       		.uleb128 0x19
 9900 02cd 01       		.uleb128 0x1
 9901 02ce 13       		.uleb128 0x13
 9902 02cf 00       		.byte	0
 9903 02d0 00       		.byte	0
 9904 02d1 39       		.uleb128 0x39
 9905 02d2 34       		.uleb128 0x34
 9906 02d3 00       		.byte	0
 9907 02d4 31       		.uleb128 0x31
 9908 02d5 13       		.uleb128 0x13
 9909 02d6 02       		.uleb128 0x2
 9910 02d7 18       		.uleb128 0x18
 9911 02d8 00       		.byte	0
 9912 02d9 00       		.byte	0
 9913 02da 3A       		.uleb128 0x3a
ARM GAS  /var/folders/m4/4md61f0s1_g0rzfghffqnxvr0000gn/T//cchEhHjd.s 			page 175


 9914 02db 898201   		.uleb128 0x4109
 9915 02de 00       		.byte	0
 9916 02df 11       		.uleb128 0x11
 9917 02e0 01       		.uleb128 0x1
 9918 02e1 31       		.uleb128 0x31
 9919 02e2 13       		.uleb128 0x13
 9920 02e3 00       		.byte	0
 9921 02e4 00       		.byte	0
 9922 02e5 3B       		.uleb128 0x3b
 9923 02e6 898201   		.uleb128 0x4109
 9924 02e9 01       		.byte	0x1
 9925 02ea 11       		.uleb128 0x11
 9926 02eb 01       		.uleb128 0x1
 9927 02ec 31       		.uleb128 0x31
 9928 02ed 13       		.uleb128 0x13
 9929 02ee 01       		.uleb128 0x1
 9930 02ef 13       		.uleb128 0x13
 9931 02f0 00       		.byte	0
 9932 02f1 00       		.byte	0
 9933 02f2 3C       		.uleb128 0x3c
 9934 02f3 2E       		.uleb128 0x2e
 9935 02f4 01       		.byte	0x1
 9936 02f5 31       		.uleb128 0x31
 9937 02f6 13       		.uleb128 0x13
 9938 02f7 6E       		.uleb128 0x6e
 9939 02f8 0E       		.uleb128 0xe
 9940 02f9 11       		.uleb128 0x11
 9941 02fa 01       		.uleb128 0x1
 9942 02fb 12       		.uleb128 0x12
 9943 02fc 06       		.uleb128 0x6
 9944 02fd 40       		.uleb128 0x40
 9945 02fe 18       		.uleb128 0x18
 9946 02ff 9742     		.uleb128 0x2117
 9947 0301 19       		.uleb128 0x19
 9948 0302 01       		.uleb128 0x1
 9949 0303 13       		.uleb128 0x13
 9950 0304 00       		.byte	0
 9951 0305 00       		.byte	0
 9952 0306 3D       		.uleb128 0x3d
 9953 0307 05       		.uleb128 0x5
 9954 0308 00       		.byte	0
 9955 0309 31       		.uleb128 0x31
 9956 030a 13       		.uleb128 0x13
 9957 030b 02       		.uleb128 0x2
 9958 030c 18       		.uleb128 0x18
 9959 030d 00       		.byte	0
 9960 030e 00       		.byte	0
 9961 030f 3E       		.uleb128 0x3e
 9962 0310 0B       		.uleb128 0xb
 9963 0311 01       		.byte	0x1
 9964 0312 11       		.uleb128 0x11
 9965 0313 01       		.uleb128 0x1
 9966 0314 12       		.uleb128 0x12
 9967 0315 06       		.uleb128 0x6
 9968 0316 01       		.uleb128 0x1
 9969 0317 13       		.uleb128 0x13
 9970 0318 00       		.byte	0
ARM GAS  /var/folders/m4/4md61f0s1_g0rzfghffqnxvr0000gn/T//cchEhHjd.s 			page 176


 9971 0319 00       		.byte	0
 9972 031a 3F       		.uleb128 0x3f
 9973 031b 34       		.uleb128 0x34
 9974 031c 00       		.byte	0
 9975 031d 31       		.uleb128 0x31
 9976 031e 13       		.uleb128 0x13
 9977 031f 02       		.uleb128 0x2
 9978 0320 17       		.uleb128 0x17
 9979 0321 00       		.byte	0
 9980 0322 00       		.byte	0
 9981 0323 40       		.uleb128 0x40
 9982 0324 2E       		.uleb128 0x2e
 9983 0325 01       		.byte	0x1
 9984 0326 3F       		.uleb128 0x3f
 9985 0327 19       		.uleb128 0x19
 9986 0328 03       		.uleb128 0x3
 9987 0329 0E       		.uleb128 0xe
 9988 032a 3A       		.uleb128 0x3a
 9989 032b 0B       		.uleb128 0xb
 9990 032c 3B       		.uleb128 0x3b
 9991 032d 05       		.uleb128 0x5
 9992 032e 6E       		.uleb128 0x6e
 9993 032f 0E       		.uleb128 0xe
 9994 0330 11       		.uleb128 0x11
 9995 0331 01       		.uleb128 0x1
 9996 0332 12       		.uleb128 0x12
 9997 0333 06       		.uleb128 0x6
 9998 0334 40       		.uleb128 0x40
 9999 0335 18       		.uleb128 0x18
 10000 0336 9742     		.uleb128 0x2117
 10001 0338 19       		.uleb128 0x19
 10002 0339 01       		.uleb128 0x1
 10003 033a 13       		.uleb128 0x13
 10004 033b 00       		.byte	0
 10005 033c 00       		.byte	0
 10006 033d 41       		.uleb128 0x41
 10007 033e 05       		.uleb128 0x5
 10008 033f 00       		.byte	0
 10009 0340 03       		.uleb128 0x3
 10010 0341 0E       		.uleb128 0xe
 10011 0342 3A       		.uleb128 0x3a
 10012 0343 0B       		.uleb128 0xb
 10013 0344 3B       		.uleb128 0x3b
 10014 0345 05       		.uleb128 0x5
 10015 0346 49       		.uleb128 0x49
 10016 0347 13       		.uleb128 0x13
 10017 0348 02       		.uleb128 0x2
 10018 0349 17       		.uleb128 0x17
 10019 034a 00       		.byte	0
 10020 034b 00       		.byte	0
 10021 034c 42       		.uleb128 0x42
 10022 034d 05       		.uleb128 0x5
 10023 034e 00       		.byte	0
 10024 034f 03       		.uleb128 0x3
 10025 0350 08       		.uleb128 0x8
 10026 0351 3A       		.uleb128 0x3a
 10027 0352 0B       		.uleb128 0xb
ARM GAS  /var/folders/m4/4md61f0s1_g0rzfghffqnxvr0000gn/T//cchEhHjd.s 			page 177


 10028 0353 3B       		.uleb128 0x3b
 10029 0354 05       		.uleb128 0x5
 10030 0355 49       		.uleb128 0x49
 10031 0356 13       		.uleb128 0x13
 10032 0357 02       		.uleb128 0x2
 10033 0358 17       		.uleb128 0x17
 10034 0359 00       		.byte	0
 10035 035a 00       		.byte	0
 10036 035b 43       		.uleb128 0x43
 10037 035c 34       		.uleb128 0x34
 10038 035d 00       		.byte	0
 10039 035e 03       		.uleb128 0x3
 10040 035f 08       		.uleb128 0x8
 10041 0360 3A       		.uleb128 0x3a
 10042 0361 0B       		.uleb128 0xb
 10043 0362 3B       		.uleb128 0x3b
 10044 0363 05       		.uleb128 0x5
 10045 0364 49       		.uleb128 0x49
 10046 0365 13       		.uleb128 0x13
 10047 0366 02       		.uleb128 0x2
 10048 0367 18       		.uleb128 0x18
 10049 0368 00       		.byte	0
 10050 0369 00       		.byte	0
 10051 036a 44       		.uleb128 0x44
 10052 036b 2E       		.uleb128 0x2e
 10053 036c 01       		.byte	0x1
 10054 036d 3F       		.uleb128 0x3f
 10055 036e 19       		.uleb128 0x19
 10056 036f 03       		.uleb128 0x3
 10057 0370 0E       		.uleb128 0xe
 10058 0371 3A       		.uleb128 0x3a
 10059 0372 0B       		.uleb128 0xb
 10060 0373 3B       		.uleb128 0x3b
 10061 0374 05       		.uleb128 0x5
 10062 0375 6E       		.uleb128 0x6e
 10063 0376 0E       		.uleb128 0xe
 10064 0377 49       		.uleb128 0x49
 10065 0378 13       		.uleb128 0x13
 10066 0379 11       		.uleb128 0x11
 10067 037a 01       		.uleb128 0x1
 10068 037b 12       		.uleb128 0x12
 10069 037c 06       		.uleb128 0x6
 10070 037d 40       		.uleb128 0x40
 10071 037e 18       		.uleb128 0x18
 10072 037f 9742     		.uleb128 0x2117
 10073 0381 19       		.uleb128 0x19
 10074 0382 01       		.uleb128 0x1
 10075 0383 13       		.uleb128 0x13
 10076 0384 00       		.byte	0
 10077 0385 00       		.byte	0
 10078 0386 45       		.uleb128 0x45
 10079 0387 34       		.uleb128 0x34
 10080 0388 00       		.byte	0
 10081 0389 03       		.uleb128 0x3
 10082 038a 0E       		.uleb128 0xe
 10083 038b 3A       		.uleb128 0x3a
 10084 038c 0B       		.uleb128 0xb
ARM GAS  /var/folders/m4/4md61f0s1_g0rzfghffqnxvr0000gn/T//cchEhHjd.s 			page 178


 10085 038d 3B       		.uleb128 0x3b
 10086 038e 05       		.uleb128 0x5
 10087 038f 49       		.uleb128 0x49
 10088 0390 13       		.uleb128 0x13
 10089 0391 02       		.uleb128 0x2
 10090 0392 18       		.uleb128 0x18
 10091 0393 00       		.byte	0
 10092 0394 00       		.byte	0
 10093 0395 46       		.uleb128 0x46
 10094 0396 34       		.uleb128 0x34
 10095 0397 00       		.byte	0
 10096 0398 03       		.uleb128 0x3
 10097 0399 08       		.uleb128 0x8
 10098 039a 3A       		.uleb128 0x3a
 10099 039b 0B       		.uleb128 0xb
 10100 039c 3B       		.uleb128 0x3b
 10101 039d 05       		.uleb128 0x5
 10102 039e 49       		.uleb128 0x49
 10103 039f 13       		.uleb128 0x13
 10104 03a0 02       		.uleb128 0x2
 10105 03a1 17       		.uleb128 0x17
 10106 03a2 00       		.byte	0
 10107 03a3 00       		.byte	0
 10108 03a4 47       		.uleb128 0x47
 10109 03a5 898201   		.uleb128 0x4109
 10110 03a8 01       		.byte	0x1
 10111 03a9 11       		.uleb128 0x11
 10112 03aa 01       		.uleb128 0x1
 10113 03ab 9542     		.uleb128 0x2115
 10114 03ad 19       		.uleb128 0x19
 10115 03ae 31       		.uleb128 0x31
 10116 03af 13       		.uleb128 0x13
 10117 03b0 00       		.byte	0
 10118 03b1 00       		.byte	0
 10119 03b2 48       		.uleb128 0x48
 10120 03b3 0B       		.uleb128 0xb
 10121 03b4 01       		.byte	0x1
 10122 03b5 55       		.uleb128 0x55
 10123 03b6 17       		.uleb128 0x17
 10124 03b7 01       		.uleb128 0x1
 10125 03b8 13       		.uleb128 0x13
 10126 03b9 00       		.byte	0
 10127 03ba 00       		.byte	0
 10128 03bb 49       		.uleb128 0x49
 10129 03bc 0B       		.uleb128 0xb
 10130 03bd 01       		.byte	0x1
 10131 03be 11       		.uleb128 0x11
 10132 03bf 01       		.uleb128 0x1
 10133 03c0 12       		.uleb128 0x12
 10134 03c1 06       		.uleb128 0x6
 10135 03c2 00       		.byte	0
 10136 03c3 00       		.byte	0
 10137 03c4 4A       		.uleb128 0x4a
 10138 03c5 05       		.uleb128 0x5
 10139 03c6 00       		.byte	0
 10140 03c7 31       		.uleb128 0x31
 10141 03c8 13       		.uleb128 0x13
ARM GAS  /var/folders/m4/4md61f0s1_g0rzfghffqnxvr0000gn/T//cchEhHjd.s 			page 179


 10142 03c9 00       		.byte	0
 10143 03ca 00       		.byte	0
 10144 03cb 4B       		.uleb128 0x4b
 10145 03cc 898201   		.uleb128 0x4109
 10146 03cf 00       		.byte	0
 10147 03d0 11       		.uleb128 0x11
 10148 03d1 01       		.uleb128 0x1
 10149 03d2 9542     		.uleb128 0x2115
 10150 03d4 19       		.uleb128 0x19
 10151 03d5 31       		.uleb128 0x31
 10152 03d6 13       		.uleb128 0x13
 10153 03d7 00       		.byte	0
 10154 03d8 00       		.byte	0
 10155 03d9 4C       		.uleb128 0x4c
 10156 03da 34       		.uleb128 0x34
 10157 03db 00       		.byte	0
 10158 03dc 31       		.uleb128 0x31
 10159 03dd 13       		.uleb128 0x13
 10160 03de 00       		.byte	0
 10161 03df 00       		.byte	0
 10162 03e0 4D       		.uleb128 0x4d
 10163 03e1 2E       		.uleb128 0x2e
 10164 03e2 01       		.byte	0x1
 10165 03e3 3F       		.uleb128 0x3f
 10166 03e4 19       		.uleb128 0x19
 10167 03e5 03       		.uleb128 0x3
 10168 03e6 0E       		.uleb128 0xe
 10169 03e7 3A       		.uleb128 0x3a
 10170 03e8 0B       		.uleb128 0xb
 10171 03e9 3B       		.uleb128 0x3b
 10172 03ea 0B       		.uleb128 0xb
 10173 03eb 6E       		.uleb128 0x6e
 10174 03ec 0E       		.uleb128 0xe
 10175 03ed 11       		.uleb128 0x11
 10176 03ee 01       		.uleb128 0x1
 10177 03ef 12       		.uleb128 0x12
 10178 03f0 06       		.uleb128 0x6
 10179 03f1 40       		.uleb128 0x40
 10180 03f2 18       		.uleb128 0x18
 10181 03f3 9742     		.uleb128 0x2117
 10182 03f5 19       		.uleb128 0x19
 10183 03f6 01       		.uleb128 0x1
 10184 03f7 13       		.uleb128 0x13
 10185 03f8 00       		.byte	0
 10186 03f9 00       		.byte	0
 10187 03fa 4E       		.uleb128 0x4e
 10188 03fb 1D       		.uleb128 0x1d
 10189 03fc 01       		.byte	0x1
 10190 03fd 31       		.uleb128 0x31
 10191 03fe 13       		.uleb128 0x13
 10192 03ff 52       		.uleb128 0x52
 10193 0400 01       		.uleb128 0x1
 10194 0401 55       		.uleb128 0x55
 10195 0402 17       		.uleb128 0x17
 10196 0403 58       		.uleb128 0x58
 10197 0404 0B       		.uleb128 0xb
 10198 0405 59       		.uleb128 0x59
ARM GAS  /var/folders/m4/4md61f0s1_g0rzfghffqnxvr0000gn/T//cchEhHjd.s 			page 180


 10199 0406 0B       		.uleb128 0xb
 10200 0407 01       		.uleb128 0x1
 10201 0408 13       		.uleb128 0x13
 10202 0409 00       		.byte	0
 10203 040a 00       		.byte	0
 10204 040b 4F       		.uleb128 0x4f
 10205 040c 1D       		.uleb128 0x1d
 10206 040d 01       		.byte	0x1
 10207 040e 31       		.uleb128 0x31
 10208 040f 13       		.uleb128 0x13
 10209 0410 52       		.uleb128 0x52
 10210 0411 01       		.uleb128 0x1
 10211 0412 55       		.uleb128 0x55
 10212 0413 17       		.uleb128 0x17
 10213 0414 58       		.uleb128 0x58
 10214 0415 0B       		.uleb128 0xb
 10215 0416 59       		.uleb128 0x59
 10216 0417 05       		.uleb128 0x5
 10217 0418 00       		.byte	0
 10218 0419 00       		.byte	0
 10219 041a 50       		.uleb128 0x50
 10220 041b 1D       		.uleb128 0x1d
 10221 041c 01       		.byte	0x1
 10222 041d 31       		.uleb128 0x31
 10223 041e 13       		.uleb128 0x13
 10224 041f 11       		.uleb128 0x11
 10225 0420 01       		.uleb128 0x1
 10226 0421 12       		.uleb128 0x12
 10227 0422 06       		.uleb128 0x6
 10228 0423 58       		.uleb128 0x58
 10229 0424 0B       		.uleb128 0xb
 10230 0425 59       		.uleb128 0x59
 10231 0426 0B       		.uleb128 0xb
 10232 0427 01       		.uleb128 0x1
 10233 0428 13       		.uleb128 0x13
 10234 0429 00       		.byte	0
 10235 042a 00       		.byte	0
 10236 042b 51       		.uleb128 0x51
 10237 042c 2E       		.uleb128 0x2e
 10238 042d 01       		.byte	0x1
 10239 042e 03       		.uleb128 0x3
 10240 042f 0E       		.uleb128 0xe
 10241 0430 3A       		.uleb128 0x3a
 10242 0431 0B       		.uleb128 0xb
 10243 0432 3B       		.uleb128 0x3b
 10244 0433 0B       		.uleb128 0xb
 10245 0434 49       		.uleb128 0x49
 10246 0435 13       		.uleb128 0x13
 10247 0436 11       		.uleb128 0x11
 10248 0437 01       		.uleb128 0x1
 10249 0438 12       		.uleb128 0x12
 10250 0439 06       		.uleb128 0x6
 10251 043a 40       		.uleb128 0x40
 10252 043b 18       		.uleb128 0x18
 10253 043c 9742     		.uleb128 0x2117
 10254 043e 19       		.uleb128 0x19
 10255 043f 01       		.uleb128 0x1
ARM GAS  /var/folders/m4/4md61f0s1_g0rzfghffqnxvr0000gn/T//cchEhHjd.s 			page 181


 10256 0440 13       		.uleb128 0x13
 10257 0441 00       		.byte	0
 10258 0442 00       		.byte	0
 10259 0443 52       		.uleb128 0x52
 10260 0444 05       		.uleb128 0x5
 10261 0445 00       		.byte	0
 10262 0446 03       		.uleb128 0x3
 10263 0447 08       		.uleb128 0x8
 10264 0448 3A       		.uleb128 0x3a
 10265 0449 0B       		.uleb128 0xb
 10266 044a 3B       		.uleb128 0x3b
 10267 044b 0B       		.uleb128 0xb
 10268 044c 49       		.uleb128 0x49
 10269 044d 13       		.uleb128 0x13
 10270 044e 02       		.uleb128 0x2
 10271 044f 17       		.uleb128 0x17
 10272 0450 00       		.byte	0
 10273 0451 00       		.byte	0
 10274 0452 53       		.uleb128 0x53
 10275 0453 34       		.uleb128 0x34
 10276 0454 00       		.byte	0
 10277 0455 03       		.uleb128 0x3
 10278 0456 0E       		.uleb128 0xe
 10279 0457 3A       		.uleb128 0x3a
 10280 0458 0B       		.uleb128 0xb
 10281 0459 3B       		.uleb128 0x3b
 10282 045a 0B       		.uleb128 0xb
 10283 045b 49       		.uleb128 0x49
 10284 045c 13       		.uleb128 0x13
 10285 045d 02       		.uleb128 0x2
 10286 045e 18       		.uleb128 0x18
 10287 045f 00       		.byte	0
 10288 0460 00       		.byte	0
 10289 0461 54       		.uleb128 0x54
 10290 0462 34       		.uleb128 0x34
 10291 0463 00       		.byte	0
 10292 0464 03       		.uleb128 0x3
 10293 0465 08       		.uleb128 0x8
 10294 0466 3A       		.uleb128 0x3a
 10295 0467 0B       		.uleb128 0xb
 10296 0468 3B       		.uleb128 0x3b
 10297 0469 0B       		.uleb128 0xb
 10298 046a 49       		.uleb128 0x49
 10299 046b 13       		.uleb128 0x13
 10300 046c 02       		.uleb128 0x2
 10301 046d 17       		.uleb128 0x17
 10302 046e 00       		.byte	0
 10303 046f 00       		.byte	0
 10304 0470 55       		.uleb128 0x55
 10305 0471 34       		.uleb128 0x34
 10306 0472 00       		.byte	0
 10307 0473 03       		.uleb128 0x3
 10308 0474 0E       		.uleb128 0xe
 10309 0475 3A       		.uleb128 0x3a
 10310 0476 0B       		.uleb128 0xb
 10311 0477 3B       		.uleb128 0x3b
 10312 0478 0B       		.uleb128 0xb
ARM GAS  /var/folders/m4/4md61f0s1_g0rzfghffqnxvr0000gn/T//cchEhHjd.s 			page 182


 10313 0479 49       		.uleb128 0x49
 10314 047a 13       		.uleb128 0x13
 10315 047b 02       		.uleb128 0x2
 10316 047c 17       		.uleb128 0x17
 10317 047d 00       		.byte	0
 10318 047e 00       		.byte	0
 10319 047f 56       		.uleb128 0x56
 10320 0480 0B       		.uleb128 0xb
 10321 0481 01       		.byte	0x1
 10322 0482 55       		.uleb128 0x55
 10323 0483 17       		.uleb128 0x17
 10324 0484 00       		.byte	0
 10325 0485 00       		.byte	0
 10326 0486 57       		.uleb128 0x57
 10327 0487 2E       		.uleb128 0x2e
 10328 0488 01       		.byte	0x1
 10329 0489 03       		.uleb128 0x3
 10330 048a 08       		.uleb128 0x8
 10331 048b 3A       		.uleb128 0x3a
 10332 048c 0B       		.uleb128 0xb
 10333 048d 3B       		.uleb128 0x3b
 10334 048e 05       		.uleb128 0x5
 10335 048f 49       		.uleb128 0x49
 10336 0490 13       		.uleb128 0x13
 10337 0491 11       		.uleb128 0x11
 10338 0492 01       		.uleb128 0x1
 10339 0493 12       		.uleb128 0x12
 10340 0494 06       		.uleb128 0x6
 10341 0495 40       		.uleb128 0x40
 10342 0496 18       		.uleb128 0x18
 10343 0497 9742     		.uleb128 0x2117
 10344 0499 19       		.uleb128 0x19
 10345 049a 01       		.uleb128 0x1
 10346 049b 13       		.uleb128 0x13
 10347 049c 00       		.byte	0
 10348 049d 00       		.byte	0
 10349 049e 58       		.uleb128 0x58
 10350 049f 2E       		.uleb128 0x2e
 10351 04a0 01       		.byte	0x1
 10352 04a1 03       		.uleb128 0x3
 10353 04a2 0E       		.uleb128 0xe
 10354 04a3 3A       		.uleb128 0x3a
 10355 04a4 0B       		.uleb128 0xb
 10356 04a5 3B       		.uleb128 0x3b
 10357 04a6 05       		.uleb128 0x5
 10358 04a7 49       		.uleb128 0x49
 10359 04a8 13       		.uleb128 0x13
 10360 04a9 11       		.uleb128 0x11
 10361 04aa 01       		.uleb128 0x1
 10362 04ab 12       		.uleb128 0x12
 10363 04ac 06       		.uleb128 0x6
 10364 04ad 40       		.uleb128 0x40
 10365 04ae 18       		.uleb128 0x18
 10366 04af 9742     		.uleb128 0x2117
 10367 04b1 19       		.uleb128 0x19
 10368 04b2 01       		.uleb128 0x1
 10369 04b3 13       		.uleb128 0x13
ARM GAS  /var/folders/m4/4md61f0s1_g0rzfghffqnxvr0000gn/T//cchEhHjd.s 			page 183


 10370 04b4 00       		.byte	0
 10371 04b5 00       		.byte	0
 10372 04b6 59       		.uleb128 0x59
 10373 04b7 34       		.uleb128 0x34
 10374 04b8 00       		.byte	0
 10375 04b9 03       		.uleb128 0x3
 10376 04ba 0E       		.uleb128 0xe
 10377 04bb 3A       		.uleb128 0x3a
 10378 04bc 0B       		.uleb128 0xb
 10379 04bd 3B       		.uleb128 0x3b
 10380 04be 05       		.uleb128 0x5
 10381 04bf 49       		.uleb128 0x49
 10382 04c0 13       		.uleb128 0x13
 10383 04c1 3F       		.uleb128 0x3f
 10384 04c2 19       		.uleb128 0x19
 10385 04c3 3C       		.uleb128 0x3c
 10386 04c4 19       		.uleb128 0x19
 10387 04c5 00       		.byte	0
 10388 04c6 00       		.byte	0
 10389 04c7 5A       		.uleb128 0x5a
 10390 04c8 34       		.uleb128 0x34
 10391 04c9 00       		.byte	0
 10392 04ca 03       		.uleb128 0x3
 10393 04cb 08       		.uleb128 0x8
 10394 04cc 3A       		.uleb128 0x3a
 10395 04cd 0B       		.uleb128 0xb
 10396 04ce 3B       		.uleb128 0x3b
 10397 04cf 05       		.uleb128 0x5
 10398 04d0 49       		.uleb128 0x49
 10399 04d1 13       		.uleb128 0x13
 10400 04d2 3F       		.uleb128 0x3f
 10401 04d3 19       		.uleb128 0x19
 10402 04d4 3C       		.uleb128 0x3c
 10403 04d5 19       		.uleb128 0x19
 10404 04d6 00       		.byte	0
 10405 04d7 00       		.byte	0
 10406 04d8 5B       		.uleb128 0x5b
 10407 04d9 34       		.uleb128 0x34
 10408 04da 00       		.byte	0
 10409 04db 03       		.uleb128 0x3
 10410 04dc 0E       		.uleb128 0xe
 10411 04dd 3A       		.uleb128 0x3a
 10412 04de 0B       		.uleb128 0xb
 10413 04df 3B       		.uleb128 0x3b
 10414 04e0 0B       		.uleb128 0xb
 10415 04e1 49       		.uleb128 0x49
 10416 04e2 13       		.uleb128 0x13
 10417 04e3 3F       		.uleb128 0x3f
 10418 04e4 19       		.uleb128 0x19
 10419 04e5 3C       		.uleb128 0x3c
 10420 04e6 19       		.uleb128 0x19
 10421 04e7 00       		.byte	0
 10422 04e8 00       		.byte	0
 10423 04e9 5C       		.uleb128 0x5c
 10424 04ea 34       		.uleb128 0x34
 10425 04eb 00       		.byte	0
 10426 04ec 03       		.uleb128 0x3
ARM GAS  /var/folders/m4/4md61f0s1_g0rzfghffqnxvr0000gn/T//cchEhHjd.s 			page 184


 10427 04ed 0E       		.uleb128 0xe
 10428 04ee 3A       		.uleb128 0x3a
 10429 04ef 0B       		.uleb128 0xb
 10430 04f0 3B       		.uleb128 0x3b
 10431 04f1 0B       		.uleb128 0xb
 10432 04f2 49       		.uleb128 0x49
 10433 04f3 13       		.uleb128 0x13
 10434 04f4 3F       		.uleb128 0x3f
 10435 04f5 19       		.uleb128 0x19
 10436 04f6 02       		.uleb128 0x2
 10437 04f7 18       		.uleb128 0x18
 10438 04f8 00       		.byte	0
 10439 04f9 00       		.byte	0
 10440 04fa 5D       		.uleb128 0x5d
 10441 04fb 2E       		.uleb128 0x2e
 10442 04fc 00       		.byte	0
 10443 04fd 3F       		.uleb128 0x3f
 10444 04fe 19       		.uleb128 0x19
 10445 04ff 3C       		.uleb128 0x3c
 10446 0500 19       		.uleb128 0x19
 10447 0501 6E       		.uleb128 0x6e
 10448 0502 0E       		.uleb128 0xe
 10449 0503 03       		.uleb128 0x3
 10450 0504 0E       		.uleb128 0xe
 10451 0505 3A       		.uleb128 0x3a
 10452 0506 0B       		.uleb128 0xb
 10453 0507 3B       		.uleb128 0x3b
 10454 0508 0B       		.uleb128 0xb
 10455 0509 00       		.byte	0
 10456 050a 00       		.byte	0
 10457 050b 5E       		.uleb128 0x5e
 10458 050c 2E       		.uleb128 0x2e
 10459 050d 00       		.byte	0
 10460 050e 3F       		.uleb128 0x3f
 10461 050f 19       		.uleb128 0x19
 10462 0510 3C       		.uleb128 0x3c
 10463 0511 19       		.uleb128 0x19
 10464 0512 6E       		.uleb128 0x6e
 10465 0513 0E       		.uleb128 0xe
 10466 0514 03       		.uleb128 0x3
 10467 0515 0E       		.uleb128 0xe
 10468 0516 3A       		.uleb128 0x3a
 10469 0517 0B       		.uleb128 0xb
 10470 0518 3B       		.uleb128 0x3b
 10471 0519 05       		.uleb128 0x5
 10472 051a 00       		.byte	0
 10473 051b 00       		.byte	0
 10474 051c 00       		.byte	0
 10475              		.section	.debug_loc,"",%progbits
 10476              	.Ldebug_loc0:
 10477              	.LLST0:
 10478 0000 00000000 		.4byte	.LVL0
 10479 0004 0C000000 		.4byte	.LVL3
 10480 0008 0100     		.2byte	0x1
 10481 000a 50       		.byte	0x50
 10482 000b 0C000000 		.4byte	.LVL3
 10483 000f 1C000000 		.4byte	.LFE268
ARM GAS  /var/folders/m4/4md61f0s1_g0rzfghffqnxvr0000gn/T//cchEhHjd.s 			page 185


 10484 0013 0400     		.2byte	0x4
 10485 0015 F3       		.byte	0xf3
 10486 0016 01       		.uleb128 0x1
 10487 0017 50       		.byte	0x50
 10488 0018 9F       		.byte	0x9f
 10489 0019 00000000 		.4byte	0
 10490 001d 00000000 		.4byte	0
 10491              	.LLST1:
 10492 0021 00000000 		.4byte	.LVL0
 10493 0025 0A000000 		.4byte	.LVL2
 10494 0029 0100     		.2byte	0x1
 10495 002b 51       		.byte	0x51
 10496 002c 0A000000 		.4byte	.LVL2
 10497 0030 1C000000 		.4byte	.LFE268
 10498 0034 0400     		.2byte	0x4
 10499 0036 F3       		.byte	0xf3
 10500 0037 01       		.uleb128 0x1
 10501 0038 51       		.byte	0x51
 10502 0039 9F       		.byte	0x9f
 10503 003a 00000000 		.4byte	0
 10504 003e 00000000 		.4byte	0
 10505              	.LLST2:
 10506 0042 00000000 		.4byte	.LVL0
 10507 0046 16000000 		.4byte	.LVL5
 10508 004a 0600     		.2byte	0x6
 10509 004c 03       		.byte	0x3
 10510 004d 00000000 		.4byte	nrf24l01
 10511 0051 9F       		.byte	0x9f
 10512 0052 00000000 		.4byte	0
 10513 0056 00000000 		.4byte	0
 10514              	.LLST3:
 10515 005a 00000000 		.4byte	.LVL0
 10516 005e 08000000 		.4byte	.LVL1
 10517 0062 0300     		.2byte	0x3
 10518 0064 08       		.byte	0x8
 10519 0065 20       		.byte	0x20
 10520 0066 9F       		.byte	0x9f
 10521 0067 00000000 		.4byte	0
 10522 006b 00000000 		.4byte	0
 10523              	.LLST4:
 10524 006f 10000000 		.4byte	.LVL4
 10525 0073 16000000 		.4byte	.LVL5
 10526 0077 0200     		.2byte	0x2
 10527 0079 30       		.byte	0x30
 10528 007a 9F       		.byte	0x9f
 10529 007b 00000000 		.4byte	0
 10530 007f 00000000 		.4byte	0
 10531              	.LLST5:
 10532 0083 00000000 		.4byte	.LVL6
 10533 0087 0C000000 		.4byte	.LVL7
 10534 008b 0100     		.2byte	0x1
 10535 008d 50       		.byte	0x50
 10536 008e 0C000000 		.4byte	.LVL7
 10537 0092 56000000 		.4byte	.LFE311
 10538 0096 0100     		.2byte	0x1
 10539 0098 54       		.byte	0x54
 10540 0099 00000000 		.4byte	0
ARM GAS  /var/folders/m4/4md61f0s1_g0rzfghffqnxvr0000gn/T//cchEhHjd.s 			page 186


 10541 009d 00000000 		.4byte	0
 10542              	.LLST6:
 10543 00a1 00000000 		.4byte	.LVL6
 10544 00a5 1B000000 		.4byte	.LVL8-1
 10545 00a9 0100     		.2byte	0x1
 10546 00ab 51       		.byte	0x51
 10547 00ac 1B000000 		.4byte	.LVL8-1
 10548 00b0 56000000 		.4byte	.LFE311
 10549 00b4 0400     		.2byte	0x4
 10550 00b6 F3       		.byte	0xf3
 10551 00b7 01       		.uleb128 0x1
 10552 00b8 51       		.byte	0x51
 10553 00b9 9F       		.byte	0x9f
 10554 00ba 00000000 		.4byte	0
 10555 00be 00000000 		.4byte	0
 10556              	.LLST7:
 10557 00c2 00000000 		.4byte	.LVL6
 10558 00c6 1B000000 		.4byte	.LVL8-1
 10559 00ca 0100     		.2byte	0x1
 10560 00cc 52       		.byte	0x52
 10561 00cd 1B000000 		.4byte	.LVL8-1
 10562 00d1 56000000 		.4byte	.LFE311
 10563 00d5 0100     		.2byte	0x1
 10564 00d7 57       		.byte	0x57
 10565 00d8 00000000 		.4byte	0
 10566 00dc 00000000 		.4byte	0
 10567              	.LLST8:
 10568 00e0 00000000 		.4byte	.LVL6
 10569 00e4 1B000000 		.4byte	.LVL8-1
 10570 00e8 0100     		.2byte	0x1
 10571 00ea 53       		.byte	0x53
 10572 00eb 1B000000 		.4byte	.LVL8-1
 10573 00ef 56000000 		.4byte	.LFE311
 10574 00f3 0100     		.2byte	0x1
 10575 00f5 55       		.byte	0x55
 10576 00f6 00000000 		.4byte	0
 10577 00fa 00000000 		.4byte	0
 10578              	.LLST9:
 10579 00fe 00000000 		.4byte	.LVL12
 10580 0102 0A000000 		.4byte	.LVL13
 10581 0106 0100     		.2byte	0x1
 10582 0108 50       		.byte	0x50
 10583 0109 0A000000 		.4byte	.LVL13
 10584 010d 46000000 		.4byte	.LFE312
 10585 0111 0100     		.2byte	0x1
 10586 0113 54       		.byte	0x54
 10587 0114 00000000 		.4byte	0
 10588 0118 00000000 		.4byte	0
 10589              	.LLST10:
 10590 011c 00000000 		.4byte	.LVL12
 10591 0120 1B000000 		.4byte	.LVL14-1
 10592 0124 0100     		.2byte	0x1
 10593 0126 51       		.byte	0x51
 10594 0127 1B000000 		.4byte	.LVL14-1
 10595 012b 46000000 		.4byte	.LFE312
 10596 012f 0400     		.2byte	0x4
 10597 0131 F3       		.byte	0xf3
ARM GAS  /var/folders/m4/4md61f0s1_g0rzfghffqnxvr0000gn/T//cchEhHjd.s 			page 187


 10598 0132 01       		.uleb128 0x1
 10599 0133 51       		.byte	0x51
 10600 0134 9F       		.byte	0x9f
 10601 0135 00000000 		.4byte	0
 10602 0139 00000000 		.4byte	0
 10603              	.LLST11:
 10604 013d 00000000 		.4byte	.LVL12
 10605 0141 1B000000 		.4byte	.LVL14-1
 10606 0145 0100     		.2byte	0x1
 10607 0147 52       		.byte	0x52
 10608 0148 1B000000 		.4byte	.LVL14-1
 10609 014c 46000000 		.4byte	.LFE312
 10610 0150 0100     		.2byte	0x1
 10611 0152 57       		.byte	0x57
 10612 0153 00000000 		.4byte	0
 10613 0157 00000000 		.4byte	0
 10614              	.LLST12:
 10615 015b 00000000 		.4byte	.LVL18
 10616 015f 0E000000 		.4byte	.LVL19
 10617 0163 0200     		.2byte	0x2
 10618 0165 30       		.byte	0x30
 10619 0166 9F       		.byte	0x9f
 10620 0167 00000000 		.4byte	0
 10621 016b 00000000 		.4byte	0
 10622              	.LLST13:
 10623 016f 1A000000 		.4byte	.LVL20
 10624 0173 1C000000 		.4byte	.LVL21
 10625 0177 0100     		.2byte	0x1
 10626 0179 53       		.byte	0x53
 10627 017a 00000000 		.4byte	0
 10628 017e 00000000 		.4byte	0
 10629              	.LLST14:
 10630 0182 22000000 		.4byte	.LVL22
 10631 0186 26000000 		.4byte	.LVL23
 10632 018a 0400     		.2byte	0x4
 10633 018c 70       		.byte	0x70
 10634 018d A002     		.sleb128 288
 10635 018f 9F       		.byte	0x9f
 10636 0190 26000000 		.4byte	.LVL23
 10637 0194 2A000000 		.4byte	.LVL24
 10638 0198 0100     		.2byte	0x1
 10639 019a 53       		.byte	0x53
 10640 019b 00000000 		.4byte	0
 10641 019f 00000000 		.4byte	0
 10642              	.LLST15:
 10643 01a3 00000000 		.4byte	.LVL26
 10644 01a7 1C000000 		.4byte	.LVL28
 10645 01ab 0100     		.2byte	0x1
 10646 01ad 50       		.byte	0x50
 10647 01ae 1C000000 		.4byte	.LVL28
 10648 01b2 3C000000 		.4byte	.LFE280
 10649 01b6 0100     		.2byte	0x1
 10650 01b8 54       		.byte	0x54
 10651 01b9 00000000 		.4byte	0
 10652 01bd 00000000 		.4byte	0
 10653              	.LLST16:
 10654 01c1 00000000 		.4byte	.LVL26
ARM GAS  /var/folders/m4/4md61f0s1_g0rzfghffqnxvr0000gn/T//cchEhHjd.s 			page 188


 10655 01c5 06000000 		.4byte	.LVL27
 10656 01c9 0100     		.2byte	0x1
 10657 01cb 51       		.byte	0x51
 10658 01cc 06000000 		.4byte	.LVL27
 10659 01d0 3C000000 		.4byte	.LFE280
 10660 01d4 0400     		.2byte	0x4
 10661 01d6 F3       		.byte	0xf3
 10662 01d7 01       		.uleb128 0x1
 10663 01d8 51       		.byte	0x51
 10664 01d9 9F       		.byte	0x9f
 10665 01da 00000000 		.4byte	0
 10666 01de 00000000 		.4byte	0
 10667              	.LLST17:
 10668 01e2 00000000 		.4byte	.LVL26
 10669 01e6 1F000000 		.4byte	.LVL29-1
 10670 01ea 0100     		.2byte	0x1
 10671 01ec 52       		.byte	0x52
 10672 01ed 1F000000 		.4byte	.LVL29-1
 10673 01f1 3C000000 		.4byte	.LFE280
 10674 01f5 0400     		.2byte	0x4
 10675 01f7 F3       		.byte	0xf3
 10676 01f8 01       		.uleb128 0x1
 10677 01f9 52       		.byte	0x52
 10678 01fa 9F       		.byte	0x9f
 10679 01fb 00000000 		.4byte	0
 10680 01ff 00000000 		.4byte	0
 10681              	.LLST18:
 10682 0203 00000000 		.4byte	.LVL32
 10683 0207 22000000 		.4byte	.LVL34
 10684 020b 0100     		.2byte	0x1
 10685 020d 50       		.byte	0x50
 10686 020e 22000000 		.4byte	.LVL34
 10687 0212 48000000 		.4byte	.LFE281
 10688 0216 0100     		.2byte	0x1
 10689 0218 54       		.byte	0x54
 10690 0219 00000000 		.4byte	0
 10691 021d 00000000 		.4byte	0
 10692              	.LLST19:
 10693 0221 00000000 		.4byte	.LVL32
 10694 0225 0A000000 		.4byte	.LVL33
 10695 0229 0100     		.2byte	0x1
 10696 022b 51       		.byte	0x51
 10697 022c 0A000000 		.4byte	.LVL33
 10698 0230 48000000 		.4byte	.LFE281
 10699 0234 0400     		.2byte	0x4
 10700 0236 F3       		.byte	0xf3
 10701 0237 01       		.uleb128 0x1
 10702 0238 51       		.byte	0x51
 10703 0239 9F       		.byte	0x9f
 10704 023a 00000000 		.4byte	0
 10705 023e 00000000 		.4byte	0
 10706              	.LLST20:
 10707 0242 00000000 		.4byte	.LVL38
 10708 0246 1A000000 		.4byte	.LVL40
 10709 024a 0100     		.2byte	0x1
 10710 024c 50       		.byte	0x50
 10711 024d 1A000000 		.4byte	.LVL40
ARM GAS  /var/folders/m4/4md61f0s1_g0rzfghffqnxvr0000gn/T//cchEhHjd.s 			page 189


 10712 0251 4A000000 		.4byte	.LFE282
 10713 0255 0100     		.2byte	0x1
 10714 0257 54       		.byte	0x54
 10715 0258 00000000 		.4byte	0
 10716 025c 00000000 		.4byte	0
 10717              	.LLST21:
 10718 0260 00000000 		.4byte	.LVL38
 10719 0264 0A000000 		.4byte	.LVL39
 10720 0268 0100     		.2byte	0x1
 10721 026a 51       		.byte	0x51
 10722 026b 0A000000 		.4byte	.LVL39
 10723 026f 4A000000 		.4byte	.LFE282
 10724 0273 0400     		.2byte	0x4
 10725 0275 F3       		.byte	0xf3
 10726 0276 01       		.uleb128 0x1
 10727 0277 51       		.byte	0x51
 10728 0278 9F       		.byte	0x9f
 10729 0279 00000000 		.4byte	0
 10730 027d 00000000 		.4byte	0
 10731              	.LLST22:
 10732 0281 00000000 		.4byte	.LVL38
 10733 0285 1F000000 		.4byte	.LVL41-1
 10734 0289 0100     		.2byte	0x1
 10735 028b 52       		.byte	0x52
 10736 028c 1F000000 		.4byte	.LVL41-1
 10737 0290 4A000000 		.4byte	.LFE282
 10738 0294 0100     		.2byte	0x1
 10739 0296 56       		.byte	0x56
 10740 0297 00000000 		.4byte	0
 10741 029b 00000000 		.4byte	0
 10742              	.LLST23:
 10743 029f 00000000 		.4byte	.LVL45
 10744 02a3 16000000 		.4byte	.LVL47
 10745 02a7 0100     		.2byte	0x1
 10746 02a9 50       		.byte	0x50
 10747 02aa 16000000 		.4byte	.LVL47
 10748 02ae 46000000 		.4byte	.LFE283
 10749 02b2 0100     		.2byte	0x1
 10750 02b4 54       		.byte	0x54
 10751 02b5 00000000 		.4byte	0
 10752 02b9 00000000 		.4byte	0
 10753              	.LLST24:
 10754 02bd 00000000 		.4byte	.LVL45
 10755 02c1 0A000000 		.4byte	.LVL46
 10756 02c5 0100     		.2byte	0x1
 10757 02c7 51       		.byte	0x51
 10758 02c8 0A000000 		.4byte	.LVL46
 10759 02cc 46000000 		.4byte	.LFE283
 10760 02d0 0400     		.2byte	0x4
 10761 02d2 F3       		.byte	0xf3
 10762 02d3 01       		.uleb128 0x1
 10763 02d4 51       		.byte	0x51
 10764 02d5 9F       		.byte	0x9f
 10765 02d6 00000000 		.4byte	0
 10766 02da 00000000 		.4byte	0
 10767              	.LLST25:
 10768 02de 00000000 		.4byte	.LVL45
ARM GAS  /var/folders/m4/4md61f0s1_g0rzfghffqnxvr0000gn/T//cchEhHjd.s 			page 190


 10769 02e2 1B000000 		.4byte	.LVL48-1
 10770 02e6 0100     		.2byte	0x1
 10771 02e8 52       		.byte	0x52
 10772 02e9 1B000000 		.4byte	.LVL48-1
 10773 02ed 46000000 		.4byte	.LFE283
 10774 02f1 0100     		.2byte	0x1
 10775 02f3 56       		.byte	0x56
 10776 02f4 00000000 		.4byte	0
 10777 02f8 00000000 		.4byte	0
 10778              	.LLST26:
 10779 02fc 00000000 		.4byte	.LVL52
 10780 0300 12000000 		.4byte	.LVL53
 10781 0304 0100     		.2byte	0x1
 10782 0306 50       		.byte	0x50
 10783 0307 12000000 		.4byte	.LVL53
 10784 030b 3C000000 		.4byte	.LFE284
 10785 030f 0100     		.2byte	0x1
 10786 0311 54       		.byte	0x54
 10787 0312 00000000 		.4byte	0
 10788 0316 00000000 		.4byte	0
 10789              	.LLST27:
 10790 031a 00000000 		.4byte	.LVL57
 10791 031e 09000000 		.4byte	.LVL58-1
 10792 0322 0100     		.2byte	0x1
 10793 0324 50       		.byte	0x50
 10794 0325 09000000 		.4byte	.LVL58-1
 10795 0329 18000000 		.4byte	.LVL60
 10796 032d 0100     		.2byte	0x1
 10797 032f 54       		.byte	0x54
 10798 0330 18000000 		.4byte	.LVL60
 10799 0334 1B000000 		.4byte	.LVL61-1
 10800 0338 0100     		.2byte	0x1
 10801 033a 50       		.byte	0x50
 10802 033b 1B000000 		.4byte	.LVL61-1
 10803 033f 1C000000 		.4byte	.LFE285
 10804 0343 0400     		.2byte	0x4
 10805 0345 F3       		.byte	0xf3
 10806 0346 01       		.uleb128 0x1
 10807 0347 50       		.byte	0x50
 10808 0348 9F       		.byte	0x9f
 10809 0349 00000000 		.4byte	0
 10810 034d 00000000 		.4byte	0
 10811              	.LLST28:
 10812 0351 0A000000 		.4byte	.LVL58
 10813 0355 12000000 		.4byte	.LVL59
 10814 0359 0500     		.2byte	0x5
 10815 035b 70       		.byte	0x70
 10816 035c 00       		.sleb128 0
 10817 035d 32       		.byte	0x32
 10818 035e 21       		.byte	0x21
 10819 035f 9F       		.byte	0x9f
 10820 0360 00000000 		.4byte	0
 10821 0364 00000000 		.4byte	0
 10822              	.LLST29:
 10823 0368 00000000 		.4byte	.LVL62
 10824 036c 09000000 		.4byte	.LVL63-1
 10825 0370 0100     		.2byte	0x1
ARM GAS  /var/folders/m4/4md61f0s1_g0rzfghffqnxvr0000gn/T//cchEhHjd.s 			page 191


 10826 0372 50       		.byte	0x50
 10827 0373 09000000 		.4byte	.LVL63-1
 10828 0377 16000000 		.4byte	.LVL65
 10829 037b 0100     		.2byte	0x1
 10830 037d 54       		.byte	0x54
 10831 037e 16000000 		.4byte	.LVL65
 10832 0382 19000000 		.4byte	.LVL66-1
 10833 0386 0100     		.2byte	0x1
 10834 0388 50       		.byte	0x50
 10835 0389 19000000 		.4byte	.LVL66-1
 10836 038d 1A000000 		.4byte	.LFE286
 10837 0391 0400     		.2byte	0x4
 10838 0393 F3       		.byte	0xf3
 10839 0394 01       		.uleb128 0x1
 10840 0395 50       		.byte	0x50
 10841 0396 9F       		.byte	0x9f
 10842 0397 00000000 		.4byte	0
 10843 039b 00000000 		.4byte	0
 10844              	.LLST30:
 10845 039f 0A000000 		.4byte	.LVL63
 10846 03a3 12000000 		.4byte	.LVL64
 10847 03a7 0600     		.2byte	0x6
 10848 03a9 70       		.byte	0x70
 10849 03aa 00       		.sleb128 0
 10850 03ab 09       		.byte	0x9
 10851 03ac FD       		.byte	0xfd
 10852 03ad 1A       		.byte	0x1a
 10853 03ae 9F       		.byte	0x9f
 10854 03af 00000000 		.4byte	0
 10855 03b3 00000000 		.4byte	0
 10856              	.LLST31:
 10857 03b7 00000000 		.4byte	.LVL67
 10858 03bb 0F000000 		.4byte	.LVL70-1
 10859 03bf 0100     		.2byte	0x1
 10860 03c1 50       		.byte	0x50
 10861 03c2 0F000000 		.4byte	.LVL70-1
 10862 03c6 10000000 		.4byte	.LFE287
 10863 03ca 0400     		.2byte	0x4
 10864 03cc F3       		.byte	0xf3
 10865 03cd 01       		.uleb128 0x1
 10866 03ce 50       		.byte	0x50
 10867 03cf 9F       		.byte	0x9f
 10868 03d0 00000000 		.4byte	0
 10869 03d4 00000000 		.4byte	0
 10870              	.LLST32:
 10871 03d8 00000000 		.4byte	.LVL67
 10872 03dc 0C000000 		.4byte	.LVL69
 10873 03e0 0100     		.2byte	0x1
 10874 03e2 51       		.byte	0x51
 10875 03e3 0C000000 		.4byte	.LVL69
 10876 03e7 10000000 		.4byte	.LFE287
 10877 03eb 0400     		.2byte	0x4
 10878 03ed F3       		.byte	0xf3
 10879 03ee 01       		.uleb128 0x1
 10880 03ef 51       		.byte	0x51
 10881 03f0 9F       		.byte	0x9f
 10882 03f1 00000000 		.4byte	0
ARM GAS  /var/folders/m4/4md61f0s1_g0rzfghffqnxvr0000gn/T//cchEhHjd.s 			page 192


 10883 03f5 00000000 		.4byte	0
 10884              	.LLST33:
 10885 03f9 00000000 		.4byte	.LVL67
 10886 03fd 04000000 		.4byte	.LVL68
 10887 0401 0100     		.2byte	0x1
 10888 0403 52       		.byte	0x52
 10889 0404 04000000 		.4byte	.LVL68
 10890 0408 10000000 		.4byte	.LFE287
 10891 040c 0400     		.2byte	0x4
 10892 040e F3       		.byte	0xf3
 10893 040f 01       		.uleb128 0x1
 10894 0410 52       		.byte	0x52
 10895 0411 9F       		.byte	0x9f
 10896 0412 00000000 		.4byte	0
 10897 0416 00000000 		.4byte	0
 10898              	.LLST34:
 10899 041a 00000000 		.4byte	.LVL67
 10900 041e 04000000 		.4byte	.LVL68
 10901 0422 0A00     		.2byte	0xa
 10902 0424 72       		.byte	0x72
 10903 0425 00       		.sleb128 0
 10904 0426 3F       		.byte	0x3f
 10905 0427 1A       		.byte	0x1a
 10906 0428 71       		.byte	0x71
 10907 0429 00       		.sleb128 0
 10908 042a 34       		.byte	0x34
 10909 042b 24       		.byte	0x24
 10910 042c 21       		.byte	0x21
 10911 042d 9F       		.byte	0x9f
 10912 042e 04000000 		.4byte	.LVL68
 10913 0432 0C000000 		.4byte	.LVL69
 10914 0436 0B00     		.2byte	0xb
 10915 0438 F3       		.byte	0xf3
 10916 0439 01       		.uleb128 0x1
 10917 043a 52       		.byte	0x52
 10918 043b 3F       		.byte	0x3f
 10919 043c 1A       		.byte	0x1a
 10920 043d 71       		.byte	0x71
 10921 043e 00       		.sleb128 0
 10922 043f 34       		.byte	0x34
 10923 0440 24       		.byte	0x24
 10924 0441 21       		.byte	0x21
 10925 0442 9F       		.byte	0x9f
 10926 0443 0C000000 		.4byte	.LVL69
 10927 0447 10000000 		.4byte	.LFE287
 10928 044b 0C00     		.2byte	0xc
 10929 044d F3       		.byte	0xf3
 10930 044e 01       		.uleb128 0x1
 10931 044f 52       		.byte	0x52
 10932 0450 3F       		.byte	0x3f
 10933 0451 1A       		.byte	0x1a
 10934 0452 F3       		.byte	0xf3
 10935 0453 01       		.uleb128 0x1
 10936 0454 51       		.byte	0x51
 10937 0455 34       		.byte	0x34
 10938 0456 24       		.byte	0x24
 10939 0457 21       		.byte	0x21
ARM GAS  /var/folders/m4/4md61f0s1_g0rzfghffqnxvr0000gn/T//cchEhHjd.s 			page 193


 10940 0458 9F       		.byte	0x9f
 10941 0459 00000000 		.4byte	0
 10942 045d 00000000 		.4byte	0
 10943              	.LLST35:
 10944 0461 00000000 		.4byte	.LVL71
 10945 0465 09000000 		.4byte	.LVL73-1
 10946 0469 0100     		.2byte	0x1
 10947 046b 50       		.byte	0x50
 10948 046c 09000000 		.4byte	.LVL73-1
 10949 0470 0A000000 		.4byte	.LFE288
 10950 0474 0400     		.2byte	0x4
 10951 0476 F3       		.byte	0xf3
 10952 0477 01       		.uleb128 0x1
 10953 0478 50       		.byte	0x50
 10954 0479 9F       		.byte	0x9f
 10955 047a 00000000 		.4byte	0
 10956 047e 00000000 		.4byte	0
 10957              	.LLST36:
 10958 0482 00000000 		.4byte	.LVL71
 10959 0486 06000000 		.4byte	.LVL72
 10960 048a 0100     		.2byte	0x1
 10961 048c 51       		.byte	0x51
 10962 048d 06000000 		.4byte	.LVL72
 10963 0491 0A000000 		.4byte	.LFE288
 10964 0495 0400     		.2byte	0x4
 10965 0497 F3       		.byte	0xf3
 10966 0498 01       		.uleb128 0x1
 10967 0499 51       		.byte	0x51
 10968 049a 9F       		.byte	0x9f
 10969 049b 00000000 		.4byte	0
 10970 049f 00000000 		.4byte	0
 10971              	.LLST37:
 10972 04a3 00000000 		.4byte	.LVL71
 10973 04a7 06000000 		.4byte	.LVL72
 10974 04ab 0600     		.2byte	0x6
 10975 04ad 71       		.byte	0x71
 10976 04ae 00       		.sleb128 0
 10977 04af 08       		.byte	0x8
 10978 04b0 7F       		.byte	0x7f
 10979 04b1 1A       		.byte	0x1a
 10980 04b2 9F       		.byte	0x9f
 10981 04b3 06000000 		.4byte	.LVL72
 10982 04b7 0A000000 		.4byte	.LFE288
 10983 04bb 0700     		.2byte	0x7
 10984 04bd F3       		.byte	0xf3
 10985 04be 01       		.uleb128 0x1
 10986 04bf 51       		.byte	0x51
 10987 04c0 08       		.byte	0x8
 10988 04c1 7F       		.byte	0x7f
 10989 04c2 1A       		.byte	0x1a
 10990 04c3 9F       		.byte	0x9f
 10991 04c4 00000000 		.4byte	0
 10992 04c8 00000000 		.4byte	0
 10993              	.LLST38:
 10994 04cc 00000000 		.4byte	.LVL74
 10995 04d0 09000000 		.4byte	.LVL76-1
 10996 04d4 0100     		.2byte	0x1
ARM GAS  /var/folders/m4/4md61f0s1_g0rzfghffqnxvr0000gn/T//cchEhHjd.s 			page 194


 10997 04d6 50       		.byte	0x50
 10998 04d7 09000000 		.4byte	.LVL76-1
 10999 04db 0A000000 		.4byte	.LFE289
 11000 04df 0400     		.2byte	0x4
 11001 04e1 F3       		.byte	0xf3
 11002 04e2 01       		.uleb128 0x1
 11003 04e3 50       		.byte	0x50
 11004 04e4 9F       		.byte	0x9f
 11005 04e5 00000000 		.4byte	0
 11006 04e9 00000000 		.4byte	0
 11007              	.LLST39:
 11008 04ed 00000000 		.4byte	.LVL74
 11009 04f1 06000000 		.4byte	.LVL75
 11010 04f5 0100     		.2byte	0x1
 11011 04f7 51       		.byte	0x51
 11012 04f8 06000000 		.4byte	.LVL75
 11013 04fc 0A000000 		.4byte	.LFE289
 11014 0500 0400     		.2byte	0x4
 11015 0502 F3       		.byte	0xf3
 11016 0503 01       		.uleb128 0x1
 11017 0504 51       		.byte	0x51
 11018 0505 9F       		.byte	0x9f
 11019 0506 00000000 		.4byte	0
 11020 050a 00000000 		.4byte	0
 11021              	.LLST40:
 11022 050e 00000000 		.4byte	.LVL77
 11023 0512 0F000000 		.4byte	.LVL80-1
 11024 0516 0100     		.2byte	0x1
 11025 0518 50       		.byte	0x50
 11026 0519 0F000000 		.4byte	.LVL80-1
 11027 051d 2A000000 		.4byte	.LVL82
 11028 0521 0100     		.2byte	0x1
 11029 0523 55       		.byte	0x55
 11030 0524 2A000000 		.4byte	.LVL82
 11031 0528 2D000000 		.4byte	.LVL83-1
 11032 052c 0100     		.2byte	0x1
 11033 052e 50       		.byte	0x50
 11034 052f 2D000000 		.4byte	.LVL83-1
 11035 0533 2E000000 		.4byte	.LVL83
 11036 0537 0400     		.2byte	0x4
 11037 0539 F3       		.byte	0xf3
 11038 053a 01       		.uleb128 0x1
 11039 053b 50       		.byte	0x50
 11040 053c 9F       		.byte	0x9f
 11041 053d 2E000000 		.4byte	.LVL83
 11042 0541 3C000000 		.4byte	.LVL84
 11043 0545 0100     		.2byte	0x1
 11044 0547 55       		.byte	0x55
 11045 0548 3C000000 		.4byte	.LVL84
 11046 054c 3F000000 		.4byte	.LVL85-1
 11047 0550 0100     		.2byte	0x1
 11048 0552 50       		.byte	0x50
 11049 0553 3F000000 		.4byte	.LVL85-1
 11050 0557 40000000 		.4byte	.LFE290
 11051 055b 0400     		.2byte	0x4
 11052 055d F3       		.byte	0xf3
 11053 055e 01       		.uleb128 0x1
ARM GAS  /var/folders/m4/4md61f0s1_g0rzfghffqnxvr0000gn/T//cchEhHjd.s 			page 195


 11054 055f 50       		.byte	0x50
 11055 0560 9F       		.byte	0x9f
 11056 0561 00000000 		.4byte	0
 11057 0565 00000000 		.4byte	0
 11058              	.LLST41:
 11059 0569 00000000 		.4byte	.LVL77
 11060 056d 08000000 		.4byte	.LVL78
 11061 0571 0100     		.2byte	0x1
 11062 0573 51       		.byte	0x51
 11063 0574 08000000 		.4byte	.LVL78
 11064 0578 40000000 		.4byte	.LFE290
 11065 057c 0400     		.2byte	0x4
 11066 057e F3       		.byte	0xf3
 11067 057f 01       		.uleb128 0x1
 11068 0580 51       		.byte	0x51
 11069 0581 9F       		.byte	0x9f
 11070 0582 00000000 		.4byte	0
 11071 0586 00000000 		.4byte	0
 11072              	.LLST42:
 11073 058a 00000000 		.4byte	.LVL77
 11074 058e 0A000000 		.4byte	.LVL79
 11075 0592 0100     		.2byte	0x1
 11076 0594 52       		.byte	0x52
 11077 0595 0A000000 		.4byte	.LVL79
 11078 0599 2A000000 		.4byte	.LVL82
 11079 059d 0100     		.2byte	0x1
 11080 059f 56       		.byte	0x56
 11081 05a0 2A000000 		.4byte	.LVL82
 11082 05a4 2E000000 		.4byte	.LVL83
 11083 05a8 0400     		.2byte	0x4
 11084 05aa F3       		.byte	0xf3
 11085 05ab 01       		.uleb128 0x1
 11086 05ac 52       		.byte	0x52
 11087 05ad 9F       		.byte	0x9f
 11088 05ae 2E000000 		.4byte	.LVL83
 11089 05b2 3C000000 		.4byte	.LVL84
 11090 05b6 0100     		.2byte	0x1
 11091 05b8 56       		.byte	0x56
 11092 05b9 3C000000 		.4byte	.LVL84
 11093 05bd 3F000000 		.4byte	.LVL85-1
 11094 05c1 0100     		.2byte	0x1
 11095 05c3 52       		.byte	0x52
 11096 05c4 3F000000 		.4byte	.LVL85-1
 11097 05c8 40000000 		.4byte	.LFE290
 11098 05cc 0400     		.2byte	0x4
 11099 05ce F3       		.byte	0xf3
 11100 05cf 01       		.uleb128 0x1
 11101 05d0 52       		.byte	0x52
 11102 05d1 9F       		.byte	0x9f
 11103 05d2 00000000 		.4byte	0
 11104 05d6 00000000 		.4byte	0
 11105              	.LLST43:
 11106 05da 1C000000 		.4byte	.LVL81
 11107 05de 2A000000 		.4byte	.LVL82
 11108 05e2 0100     		.2byte	0x1
 11109 05e4 56       		.byte	0x56
 11110 05e5 2A000000 		.4byte	.LVL82
ARM GAS  /var/folders/m4/4md61f0s1_g0rzfghffqnxvr0000gn/T//cchEhHjd.s 			page 196


 11111 05e9 2E000000 		.4byte	.LVL83
 11112 05ed 0400     		.2byte	0x4
 11113 05ef F3       		.byte	0xf3
 11114 05f0 01       		.uleb128 0x1
 11115 05f1 52       		.byte	0x52
 11116 05f2 9F       		.byte	0x9f
 11117 05f3 00000000 		.4byte	0
 11118 05f7 00000000 		.4byte	0
 11119              	.LLST44:
 11120 05fb 1C000000 		.4byte	.LVL81
 11121 05ff 2A000000 		.4byte	.LVL82
 11122 0603 0100     		.2byte	0x1
 11123 0605 54       		.byte	0x54
 11124 0606 00000000 		.4byte	0
 11125 060a 00000000 		.4byte	0
 11126              	.LLST45:
 11127 060e 1C000000 		.4byte	.LVL81
 11128 0612 2A000000 		.4byte	.LVL82
 11129 0616 0100     		.2byte	0x1
 11130 0618 55       		.byte	0x55
 11131 0619 2A000000 		.4byte	.LVL82
 11132 061d 2D000000 		.4byte	.LVL83-1
 11133 0621 0100     		.2byte	0x1
 11134 0623 50       		.byte	0x50
 11135 0624 2D000000 		.4byte	.LVL83-1
 11136 0628 2E000000 		.4byte	.LVL83
 11137 062c 0400     		.2byte	0x4
 11138 062e F3       		.byte	0xf3
 11139 062f 01       		.uleb128 0x1
 11140 0630 50       		.byte	0x50
 11141 0631 9F       		.byte	0x9f
 11142 0632 00000000 		.4byte	0
 11143 0636 00000000 		.4byte	0
 11144              	.LLST46:
 11145 063a 00000000 		.4byte	.LVL86
 11146 063e 0D000000 		.4byte	.LVL88-1
 11147 0642 0100     		.2byte	0x1
 11148 0644 50       		.byte	0x50
 11149 0645 0D000000 		.4byte	.LVL88-1
 11150 0649 18000000 		.4byte	.LVL89
 11151 064d 0100     		.2byte	0x1
 11152 064f 54       		.byte	0x54
 11153 0650 18000000 		.4byte	.LVL89
 11154 0654 1B000000 		.4byte	.LVL90-1
 11155 0658 0100     		.2byte	0x1
 11156 065a 50       		.byte	0x50
 11157 065b 1B000000 		.4byte	.LVL90-1
 11158 065f 1C000000 		.4byte	.LFE291
 11159 0663 0400     		.2byte	0x4
 11160 0665 F3       		.byte	0xf3
 11161 0666 01       		.uleb128 0x1
 11162 0667 50       		.byte	0x50
 11163 0668 9F       		.byte	0x9f
 11164 0669 00000000 		.4byte	0
 11165 066d 00000000 		.4byte	0
 11166              	.LLST47:
 11167 0671 00000000 		.4byte	.LVL86
ARM GAS  /var/folders/m4/4md61f0s1_g0rzfghffqnxvr0000gn/T//cchEhHjd.s 			page 197


 11168 0675 0A000000 		.4byte	.LVL87
 11169 0679 0100     		.2byte	0x1
 11170 067b 51       		.byte	0x51
 11171 067c 0A000000 		.4byte	.LVL87
 11172 0680 18000000 		.4byte	.LVL89
 11173 0684 0100     		.2byte	0x1
 11174 0686 55       		.byte	0x55
 11175 0687 18000000 		.4byte	.LVL89
 11176 068b 1B000000 		.4byte	.LVL90-1
 11177 068f 0100     		.2byte	0x1
 11178 0691 52       		.byte	0x52
 11179 0692 1B000000 		.4byte	.LVL90-1
 11180 0696 1C000000 		.4byte	.LFE291
 11181 069a 0400     		.2byte	0x4
 11182 069c F3       		.byte	0xf3
 11183 069d 01       		.uleb128 0x1
 11184 069e 51       		.byte	0x51
 11185 069f 9F       		.byte	0x9f
 11186 06a0 00000000 		.4byte	0
 11187 06a4 00000000 		.4byte	0
 11188              	.LLST48:
 11189 06a8 00000000 		.4byte	.LVL91
 11190 06ac 11000000 		.4byte	.LVL96-1
 11191 06b0 0100     		.2byte	0x1
 11192 06b2 50       		.byte	0x50
 11193 06b3 11000000 		.4byte	.LVL96-1
 11194 06b7 12000000 		.4byte	.LFE292
 11195 06bb 0400     		.2byte	0x4
 11196 06bd F3       		.byte	0xf3
 11197 06be 01       		.uleb128 0x1
 11198 06bf 50       		.byte	0x50
 11199 06c0 9F       		.byte	0x9f
 11200 06c1 00000000 		.4byte	0
 11201 06c5 00000000 		.4byte	0
 11202              	.LLST49:
 11203 06c9 00000000 		.4byte	.LVL91
 11204 06cd 0C000000 		.4byte	.LVL95
 11205 06d1 0100     		.2byte	0x1
 11206 06d3 51       		.byte	0x51
 11207 06d4 0C000000 		.4byte	.LVL95
 11208 06d8 12000000 		.4byte	.LFE292
 11209 06dc 0400     		.2byte	0x4
 11210 06de F3       		.byte	0xf3
 11211 06df 01       		.uleb128 0x1
 11212 06e0 51       		.byte	0x51
 11213 06e1 9F       		.byte	0x9f
 11214 06e2 00000000 		.4byte	0
 11215 06e6 00000000 		.4byte	0
 11216              	.LLST50:
 11217 06ea 00000000 		.4byte	.LVL91
 11218 06ee 11000000 		.4byte	.LVL96-1
 11219 06f2 0100     		.2byte	0x1
 11220 06f4 52       		.byte	0x52
 11221 06f5 11000000 		.4byte	.LVL96-1
 11222 06f9 12000000 		.4byte	.LFE292
 11223 06fd 0400     		.2byte	0x4
 11224 06ff F3       		.byte	0xf3
ARM GAS  /var/folders/m4/4md61f0s1_g0rzfghffqnxvr0000gn/T//cchEhHjd.s 			page 198


 11225 0700 01       		.uleb128 0x1
 11226 0701 52       		.byte	0x52
 11227 0702 9F       		.byte	0x9f
 11228 0703 00000000 		.4byte	0
 11229 0707 00000000 		.4byte	0
 11230              	.LLST51:
 11231 070b 04000000 		.4byte	.LVL92
 11232 070f 08000000 		.4byte	.LVL93
 11233 0713 0100     		.2byte	0x1
 11234 0715 52       		.byte	0x52
 11235 0716 0A000000 		.4byte	.LVL94
 11236 071a 11000000 		.4byte	.LVL96-1
 11237 071e 0100     		.2byte	0x1
 11238 0720 52       		.byte	0x52
 11239 0721 11000000 		.4byte	.LVL96-1
 11240 0725 12000000 		.4byte	.LFE292
 11241 0729 0400     		.2byte	0x4
 11242 072b F3       		.byte	0xf3
 11243 072c 01       		.uleb128 0x1
 11244 072d 52       		.byte	0x52
 11245 072e 9F       		.byte	0x9f
 11246 072f 00000000 		.4byte	0
 11247 0733 00000000 		.4byte	0
 11248              	.LLST52:
 11249 0737 04000000 		.4byte	.LVL92
 11250 073b 08000000 		.4byte	.LVL93
 11251 073f 0100     		.2byte	0x1
 11252 0741 51       		.byte	0x51
 11253 0742 0A000000 		.4byte	.LVL94
 11254 0746 0C000000 		.4byte	.LVL95
 11255 074a 0100     		.2byte	0x1
 11256 074c 51       		.byte	0x51
 11257 074d 0C000000 		.4byte	.LVL95
 11258 0751 12000000 		.4byte	.LFE292
 11259 0755 0400     		.2byte	0x4
 11260 0757 F3       		.byte	0xf3
 11261 0758 01       		.uleb128 0x1
 11262 0759 51       		.byte	0x51
 11263 075a 9F       		.byte	0x9f
 11264 075b 00000000 		.4byte	0
 11265 075f 00000000 		.4byte	0
 11266              	.LLST53:
 11267 0763 00000000 		.4byte	.LVL97
 11268 0767 05000000 		.4byte	.LVL98-1
 11269 076b 0100     		.2byte	0x1
 11270 076d 50       		.byte	0x50
 11271 076e 05000000 		.4byte	.LVL98-1
 11272 0772 06000000 		.4byte	.LFE293
 11273 0776 0400     		.2byte	0x4
 11274 0778 F3       		.byte	0xf3
 11275 0779 01       		.uleb128 0x1
 11276 077a 50       		.byte	0x50
 11277 077b 9F       		.byte	0x9f
 11278 077c 00000000 		.4byte	0
 11279 0780 00000000 		.4byte	0
 11280              	.LLST54:
 11281 0784 00000000 		.4byte	.LVL99
ARM GAS  /var/folders/m4/4md61f0s1_g0rzfghffqnxvr0000gn/T//cchEhHjd.s 			page 199


 11282 0788 0B000000 		.4byte	.LVL101-1
 11283 078c 0100     		.2byte	0x1
 11284 078e 50       		.byte	0x50
 11285 078f 0B000000 		.4byte	.LVL101-1
 11286 0793 1E000000 		.4byte	.LVL103
 11287 0797 0100     		.2byte	0x1
 11288 0799 55       		.byte	0x55
 11289 079a 1E000000 		.4byte	.LVL103
 11290 079e 21000000 		.4byte	.LVL104-1
 11291 07a2 0100     		.2byte	0x1
 11292 07a4 50       		.byte	0x50
 11293 07a5 21000000 		.4byte	.LVL104-1
 11294 07a9 22000000 		.4byte	.LFE295
 11295 07ad 0400     		.2byte	0x4
 11296 07af F3       		.byte	0xf3
 11297 07b0 01       		.uleb128 0x1
 11298 07b1 50       		.byte	0x50
 11299 07b2 9F       		.byte	0x9f
 11300 07b3 00000000 		.4byte	0
 11301 07b7 00000000 		.4byte	0
 11302              	.LLST55:
 11303 07bb 00000000 		.4byte	.LVL99
 11304 07bf 06000000 		.4byte	.LVL100
 11305 07c3 0100     		.2byte	0x1
 11306 07c5 51       		.byte	0x51
 11307 07c6 06000000 		.4byte	.LVL100
 11308 07ca 22000000 		.4byte	.LFE295
 11309 07ce 0400     		.2byte	0x4
 11310 07d0 F3       		.byte	0xf3
 11311 07d1 01       		.uleb128 0x1
 11312 07d2 51       		.byte	0x51
 11313 07d3 9F       		.byte	0x9f
 11314 07d4 00000000 		.4byte	0
 11315 07d8 00000000 		.4byte	0
 11316              	.LLST56:
 11317 07dc 0C000000 		.4byte	.LVL101
 11318 07e0 14000000 		.4byte	.LVL102
 11319 07e4 0100     		.2byte	0x1
 11320 07e6 50       		.byte	0x50
 11321 07e7 14000000 		.4byte	.LVL102
 11322 07eb 21000000 		.4byte	.LVL104-1
 11323 07ef 0100     		.2byte	0x1
 11324 07f1 52       		.byte	0x52
 11325 07f2 00000000 		.4byte	0
 11326 07f6 00000000 		.4byte	0
 11327              	.LLST57:
 11328 07fa 00000000 		.4byte	.LVL105
 11329 07fe 09000000 		.4byte	.LVL106-1
 11330 0802 0100     		.2byte	0x1
 11331 0804 50       		.byte	0x50
 11332 0805 09000000 		.4byte	.LVL106-1
 11333 0809 16000000 		.4byte	.LVL108
 11334 080d 0100     		.2byte	0x1
 11335 080f 54       		.byte	0x54
 11336 0810 16000000 		.4byte	.LVL108
 11337 0814 19000000 		.4byte	.LVL109-1
 11338 0818 0100     		.2byte	0x1
ARM GAS  /var/folders/m4/4md61f0s1_g0rzfghffqnxvr0000gn/T//cchEhHjd.s 			page 200


 11339 081a 50       		.byte	0x50
 11340 081b 19000000 		.4byte	.LVL109-1
 11341 081f 1A000000 		.4byte	.LFE296
 11342 0823 0400     		.2byte	0x4
 11343 0825 F3       		.byte	0xf3
 11344 0826 01       		.uleb128 0x1
 11345 0827 50       		.byte	0x50
 11346 0828 9F       		.byte	0x9f
 11347 0829 00000000 		.4byte	0
 11348 082d 00000000 		.4byte	0
 11349              	.LLST58:
 11350 0831 0A000000 		.4byte	.LVL106
 11351 0835 12000000 		.4byte	.LVL107
 11352 0839 0600     		.2byte	0x6
 11353 083b 70       		.byte	0x70
 11354 083c 00       		.sleb128 0
 11355 083d 09       		.byte	0x9
 11356 083e FB       		.byte	0xfb
 11357 083f 1A       		.byte	0x1a
 11358 0840 9F       		.byte	0x9f
 11359 0841 00000000 		.4byte	0
 11360 0845 00000000 		.4byte	0
 11361              	.LLST59:
 11362 0849 00000000 		.4byte	.LVL110
 11363 084d 0B000000 		.4byte	.LVL112-1
 11364 0851 0100     		.2byte	0x1
 11365 0853 50       		.byte	0x50
 11366 0854 0B000000 		.4byte	.LVL112-1
 11367 0858 1E000000 		.4byte	.LVL114
 11368 085c 0100     		.2byte	0x1
 11369 085e 55       		.byte	0x55
 11370 085f 1E000000 		.4byte	.LVL114
 11371 0863 21000000 		.4byte	.LVL115-1
 11372 0867 0100     		.2byte	0x1
 11373 0869 50       		.byte	0x50
 11374 086a 21000000 		.4byte	.LVL115-1
 11375 086e 22000000 		.4byte	.LFE297
 11376 0872 0400     		.2byte	0x4
 11377 0874 F3       		.byte	0xf3
 11378 0875 01       		.uleb128 0x1
 11379 0876 50       		.byte	0x50
 11380 0877 9F       		.byte	0x9f
 11381 0878 00000000 		.4byte	0
 11382 087c 00000000 		.4byte	0
 11383              	.LLST60:
 11384 0880 00000000 		.4byte	.LVL110
 11385 0884 06000000 		.4byte	.LVL111
 11386 0888 0100     		.2byte	0x1
 11387 088a 51       		.byte	0x51
 11388 088b 06000000 		.4byte	.LVL111
 11389 088f 22000000 		.4byte	.LFE297
 11390 0893 0400     		.2byte	0x4
 11391 0895 F3       		.byte	0xf3
 11392 0896 01       		.uleb128 0x1
 11393 0897 51       		.byte	0x51
 11394 0898 9F       		.byte	0x9f
 11395 0899 00000000 		.4byte	0
ARM GAS  /var/folders/m4/4md61f0s1_g0rzfghffqnxvr0000gn/T//cchEhHjd.s 			page 201


 11396 089d 00000000 		.4byte	0
 11397              	.LLST61:
 11398 08a1 0C000000 		.4byte	.LVL112
 11399 08a5 14000000 		.4byte	.LVL113
 11400 08a9 0100     		.2byte	0x1
 11401 08ab 50       		.byte	0x50
 11402 08ac 14000000 		.4byte	.LVL113
 11403 08b0 21000000 		.4byte	.LVL115-1
 11404 08b4 0100     		.2byte	0x1
 11405 08b6 52       		.byte	0x52
 11406 08b7 00000000 		.4byte	0
 11407 08bb 00000000 		.4byte	0
 11408              	.LLST62:
 11409 08bf 00000000 		.4byte	.LVL116
 11410 08c3 09000000 		.4byte	.LVL117-1
 11411 08c7 0100     		.2byte	0x1
 11412 08c9 50       		.byte	0x50
 11413 08ca 09000000 		.4byte	.LVL117-1
 11414 08ce 0A000000 		.4byte	.LFE298
 11415 08d2 0400     		.2byte	0x4
 11416 08d4 F3       		.byte	0xf3
 11417 08d5 01       		.uleb128 0x1
 11418 08d6 50       		.byte	0x50
 11419 08d7 9F       		.byte	0x9f
 11420 08d8 00000000 		.4byte	0
 11421 08dc 00000000 		.4byte	0
 11422              	.LLST63:
 11423 08e0 00000000 		.4byte	.LVL116
 11424 08e4 09000000 		.4byte	.LVL117-1
 11425 08e8 0100     		.2byte	0x1
 11426 08ea 51       		.byte	0x51
 11427 08eb 09000000 		.4byte	.LVL117-1
 11428 08ef 0A000000 		.4byte	.LFE298
 11429 08f3 0400     		.2byte	0x4
 11430 08f5 F3       		.byte	0xf3
 11431 08f6 01       		.uleb128 0x1
 11432 08f7 51       		.byte	0x51
 11433 08f8 9F       		.byte	0x9f
 11434 08f9 00000000 		.4byte	0
 11435 08fd 00000000 		.4byte	0
 11436              	.LLST64:
 11437 0901 00000000 		.4byte	.LVL116
 11438 0905 09000000 		.4byte	.LVL117-1
 11439 0909 0100     		.2byte	0x1
 11440 090b 52       		.byte	0x52
 11441 090c 09000000 		.4byte	.LVL117-1
 11442 0910 0A000000 		.4byte	.LFE298
 11443 0914 0400     		.2byte	0x4
 11444 0916 F3       		.byte	0xf3
 11445 0917 01       		.uleb128 0x1
 11446 0918 52       		.byte	0x52
 11447 0919 9F       		.byte	0x9f
 11448 091a 00000000 		.4byte	0
 11449 091e 00000000 		.4byte	0
 11450              	.LLST65:
 11451 0922 00000000 		.4byte	.LVL116
 11452 0926 09000000 		.4byte	.LVL117-1
ARM GAS  /var/folders/m4/4md61f0s1_g0rzfghffqnxvr0000gn/T//cchEhHjd.s 			page 202


 11453 092a 0100     		.2byte	0x1
 11454 092c 53       		.byte	0x53
 11455 092d 09000000 		.4byte	.LVL117-1
 11456 0931 0A000000 		.4byte	.LFE298
 11457 0935 0400     		.2byte	0x4
 11458 0937 F3       		.byte	0xf3
 11459 0938 01       		.uleb128 0x1
 11460 0939 53       		.byte	0x53
 11461 093a 9F       		.byte	0x9f
 11462 093b 00000000 		.4byte	0
 11463 093f 00000000 		.4byte	0
 11464              	.LLST66:
 11465 0943 00000000 		.4byte	.LVL118
 11466 0947 09000000 		.4byte	.LVL119-1
 11467 094b 0100     		.2byte	0x1
 11468 094d 50       		.byte	0x50
 11469 094e 09000000 		.4byte	.LVL119-1
 11470 0952 0A000000 		.4byte	.LFE299
 11471 0956 0400     		.2byte	0x4
 11472 0958 F3       		.byte	0xf3
 11473 0959 01       		.uleb128 0x1
 11474 095a 50       		.byte	0x50
 11475 095b 9F       		.byte	0x9f
 11476 095c 00000000 		.4byte	0
 11477 0960 00000000 		.4byte	0
 11478              	.LLST67:
 11479 0964 00000000 		.4byte	.LVL118
 11480 0968 09000000 		.4byte	.LVL119-1
 11481 096c 0100     		.2byte	0x1
 11482 096e 51       		.byte	0x51
 11483 096f 09000000 		.4byte	.LVL119-1
 11484 0973 0A000000 		.4byte	.LFE299
 11485 0977 0400     		.2byte	0x4
 11486 0979 F3       		.byte	0xf3
 11487 097a 01       		.uleb128 0x1
 11488 097b 51       		.byte	0x51
 11489 097c 9F       		.byte	0x9f
 11490 097d 00000000 		.4byte	0
 11491 0981 00000000 		.4byte	0
 11492              	.LLST68:
 11493 0985 00000000 		.4byte	.LVL118
 11494 0989 09000000 		.4byte	.LVL119-1
 11495 098d 0100     		.2byte	0x1
 11496 098f 52       		.byte	0x52
 11497 0990 09000000 		.4byte	.LVL119-1
 11498 0994 0A000000 		.4byte	.LFE299
 11499 0998 0400     		.2byte	0x4
 11500 099a F3       		.byte	0xf3
 11501 099b 01       		.uleb128 0x1
 11502 099c 52       		.byte	0x52
 11503 099d 9F       		.byte	0x9f
 11504 099e 00000000 		.4byte	0
 11505 09a2 00000000 		.4byte	0
 11506              	.LLST69:
 11507 09a6 00000000 		.4byte	.LVL120
 11508 09aa 14000000 		.4byte	.LVL121
 11509 09ae 0100     		.2byte	0x1
ARM GAS  /var/folders/m4/4md61f0s1_g0rzfghffqnxvr0000gn/T//cchEhHjd.s 			page 203


 11510 09b0 50       		.byte	0x50
 11511 09b1 14000000 		.4byte	.LVL121
 11512 09b5 34000000 		.4byte	.LVL125
 11513 09b9 0100     		.2byte	0x1
 11514 09bb 54       		.byte	0x54
 11515 09bc 34000000 		.4byte	.LVL125
 11516 09c0 38000000 		.4byte	.LFE300
 11517 09c4 0400     		.2byte	0x4
 11518 09c6 F3       		.byte	0xf3
 11519 09c7 01       		.uleb128 0x1
 11520 09c8 50       		.byte	0x50
 11521 09c9 9F       		.byte	0x9f
 11522 09ca 00000000 		.4byte	0
 11523 09ce 00000000 		.4byte	0
 11524              	.LLST70:
 11525 09d2 00000000 		.4byte	.LVL126
 11526 09d6 09000000 		.4byte	.LVL127-1
 11527 09da 0100     		.2byte	0x1
 11528 09dc 50       		.byte	0x50
 11529 09dd 09000000 		.4byte	.LVL127-1
 11530 09e1 3C000000 		.4byte	.LVL135
 11531 09e5 0100     		.2byte	0x1
 11532 09e7 54       		.byte	0x54
 11533 09e8 3C000000 		.4byte	.LVL135
 11534 09ec 3F000000 		.4byte	.LVL136-1
 11535 09f0 0100     		.2byte	0x1
 11536 09f2 50       		.byte	0x50
 11537 09f3 3F000000 		.4byte	.LVL136-1
 11538 09f7 40000000 		.4byte	.LFE294
 11539 09fb 0400     		.2byte	0x4
 11540 09fd F3       		.byte	0xf3
 11541 09fe 01       		.uleb128 0x1
 11542 09ff 50       		.byte	0x50
 11543 0a00 9F       		.byte	0x9f
 11544 0a01 00000000 		.4byte	0
 11545 0a05 00000000 		.4byte	0
 11546              	.LLST71:
 11547 0a09 0A000000 		.4byte	.LVL127
 11548 0a0d 10000000 		.4byte	.LVL128
 11549 0a11 0100     		.2byte	0x1
 11550 0a13 50       		.byte	0x50
 11551 0a14 10000000 		.4byte	.LVL128
 11552 0a18 1A000000 		.4byte	.LVL129
 11553 0a1c 0500     		.2byte	0x5
 11554 0a1e 70       		.byte	0x70
 11555 0a1f 00       		.sleb128 0
 11556 0a20 34       		.byte	0x34
 11557 0a21 21       		.byte	0x21
 11558 0a22 9F       		.byte	0x9f
 11559 0a23 2A000000 		.4byte	.LVL132
 11560 0a27 2E000000 		.4byte	.LVL133
 11561 0a2b 0100     		.2byte	0x1
 11562 0a2d 50       		.byte	0x50
 11563 0a2e 00000000 		.4byte	0
 11564 0a32 00000000 		.4byte	0
 11565              	.LLST72:
 11566 0a36 00000000 		.4byte	.LVL137
ARM GAS  /var/folders/m4/4md61f0s1_g0rzfghffqnxvr0000gn/T//cchEhHjd.s 			page 204


 11567 0a3a 14000000 		.4byte	.LVL138
 11568 0a3e 0100     		.2byte	0x1
 11569 0a40 50       		.byte	0x50
 11570 0a41 14000000 		.4byte	.LVL138
 11571 0a45 34000000 		.4byte	.LFE301
 11572 0a49 0100     		.2byte	0x1
 11573 0a4b 54       		.byte	0x54
 11574 0a4c 00000000 		.4byte	0
 11575 0a50 00000000 		.4byte	0
 11576              	.LLST73:
 11577 0a54 00000000 		.4byte	.LVL142
 11578 0a58 14000000 		.4byte	.LVL143
 11579 0a5c 0100     		.2byte	0x1
 11580 0a5e 50       		.byte	0x50
 11581 0a5f 14000000 		.4byte	.LVL143
 11582 0a63 34000000 		.4byte	.LFE302
 11583 0a67 0100     		.2byte	0x1
 11584 0a69 54       		.byte	0x54
 11585 0a6a 00000000 		.4byte	0
 11586 0a6e 00000000 		.4byte	0
 11587              	.LLST74:
 11588 0a72 3E000000 		.4byte	.LVL151
 11589 0a76 6A000000 		.4byte	.LVL156
 11590 0a7a 0600     		.2byte	0x6
 11591 0a7c 03       		.byte	0x3
 11592 0a7d 00000000 		.4byte	nrf24l01
 11593 0a81 9F       		.byte	0x9f
 11594 0a82 00000000 		.4byte	0
 11595 0a86 00000000 		.4byte	0
 11596              	.LLST75:
 11597 0a8a 3E000000 		.4byte	.LVL151
 11598 0a8e 4A000000 		.4byte	.LVL152
 11599 0a92 0200     		.2byte	0x2
 11600 0a94 30       		.byte	0x30
 11601 0a95 9F       		.byte	0x9f
 11602 0a96 00000000 		.4byte	0
 11603 0a9a 00000000 		.4byte	0
 11604              	.LLST76:
 11605 0a9e 56000000 		.4byte	.LVL153
 11606 0aa2 58000000 		.4byte	.LVL154
 11607 0aa6 0100     		.2byte	0x1
 11608 0aa8 53       		.byte	0x53
 11609 0aa9 00000000 		.4byte	0
 11610 0aad 00000000 		.4byte	0
 11611              	.LLST77:
 11612 0ab1 60000000 		.4byte	.LVL155
 11613 0ab5 6A000000 		.4byte	.LVL156
 11614 0ab9 0600     		.2byte	0x6
 11615 0abb 03       		.byte	0x3
 11616 0abc 20010000 		.4byte	nrf24l01+288
 11617 0ac0 9F       		.byte	0x9f
 11618 0ac1 00000000 		.4byte	0
 11619 0ac5 00000000 		.4byte	0
 11620              	.LLST78:
 11621 0ac9 6A000000 		.4byte	.LVL156
 11622 0acd 72000000 		.4byte	.LVL157
 11623 0ad1 0600     		.2byte	0x6
ARM GAS  /var/folders/m4/4md61f0s1_g0rzfghffqnxvr0000gn/T//cchEhHjd.s 			page 205


 11624 0ad3 03       		.byte	0x3
 11625 0ad4 00000000 		.4byte	_ZL14nrf24l01Config
 11626 0ad8 9F       		.byte	0x9f
 11627 0ad9 00000000 		.4byte	0
 11628 0add 00000000 		.4byte	0
 11629              	.LLST79:
 11630 0ae1 6A000000 		.4byte	.LVL156
 11631 0ae5 72000000 		.4byte	.LVL157
 11632 0ae9 0600     		.2byte	0x6
 11633 0aeb 03       		.byte	0x3
 11634 0aec 00000000 		.4byte	nrf24l01
 11635 0af0 9F       		.byte	0x9f
 11636 0af1 00000000 		.4byte	0
 11637 0af5 00000000 		.4byte	0
 11638              	.LLST80:
 11639 0af9 96000000 		.4byte	.LVL162
 11640 0afd A0000000 		.4byte	.LVL163
 11641 0b01 0300     		.2byte	0x3
 11642 0b03 08       		.byte	0x8
 11643 0b04 20       		.byte	0x20
 11644 0b05 9F       		.byte	0x9f
 11645 0b06 00000000 		.4byte	0
 11646 0b0a 00000000 		.4byte	0
 11647              	.LLST81:
 11648 0b0e 96000000 		.4byte	.LVL162
 11649 0b12 A0000000 		.4byte	.LVL163
 11650 0b16 0200     		.2byte	0x2
 11651 0b18 30       		.byte	0x30
 11652 0b19 9F       		.byte	0x9f
 11653 0b1a 00000000 		.4byte	0
 11654 0b1e 00000000 		.4byte	0
 11655              	.LLST82:
 11656 0b22 96000000 		.4byte	.LVL162
 11657 0b26 A0000000 		.4byte	.LVL163
 11658 0b2a 0600     		.2byte	0x6
 11659 0b2c 03       		.byte	0x3
 11660 0b2d 00000000 		.4byte	nrf24l01
 11661 0b31 9F       		.byte	0x9f
 11662 0b32 00000000 		.4byte	0
 11663 0b36 00000000 		.4byte	0
 11664              	.LLST86:
 11665 0b3a AC000000 		.4byte	.LVL165
 11666 0b3e B6000000 		.4byte	.LVL166
 11667 0b42 0300     		.2byte	0x3
 11668 0b44 08       		.byte	0x8
 11669 0b45 70       		.byte	0x70
 11670 0b46 9F       		.byte	0x9f
 11671 0b47 00000000 		.4byte	0
 11672 0b4b 00000000 		.4byte	0
 11673              	.LLST87:
 11674 0b4f AC000000 		.4byte	.LVL165
 11675 0b53 B6000000 		.4byte	.LVL166
 11676 0b57 0600     		.2byte	0x6
 11677 0b59 03       		.byte	0x3
 11678 0b5a 00000000 		.4byte	nrf24l01
 11679 0b5e 9F       		.byte	0x9f
 11680 0b5f 00000000 		.4byte	0
ARM GAS  /var/folders/m4/4md61f0s1_g0rzfghffqnxvr0000gn/T//cchEhHjd.s 			page 206


 11681 0b63 00000000 		.4byte	0
 11682              	.LLST88:
 11683 0b67 00000000 		.4byte	.LVL168
 11684 0b6b 20000000 		.4byte	.LVL169
 11685 0b6f 0100     		.2byte	0x1
 11686 0b71 50       		.byte	0x50
 11687 0b72 20000000 		.4byte	.LVL169
 11688 0b76 46000000 		.4byte	.LFE303
 11689 0b7a 0100     		.2byte	0x1
 11690 0b7c 54       		.byte	0x54
 11691 0b7d 00000000 		.4byte	0
 11692 0b81 00000000 		.4byte	0
 11693              	.LLST89:
 11694 0b85 00000000 		.4byte	.LVL173
 11695 0b89 1B000000 		.4byte	.LVL174-1
 11696 0b8d 0100     		.2byte	0x1
 11697 0b8f 50       		.byte	0x50
 11698 0b90 1B000000 		.4byte	.LVL174-1
 11699 0b94 3A000000 		.4byte	.LFE304
 11700 0b98 0100     		.2byte	0x1
 11701 0b9a 55       		.byte	0x55
 11702 0b9b 00000000 		.4byte	0
 11703 0b9f 00000000 		.4byte	0
 11704              	.LLST90:
 11705 0ba3 1C000000 		.4byte	.LVL174
 11706 0ba7 24000000 		.4byte	.LVL175
 11707 0bab 0500     		.2byte	0x5
 11708 0bad 70       		.byte	0x70
 11709 0bae 00       		.sleb128 0
 11710 0baf 31       		.byte	0x31
 11711 0bb0 21       		.byte	0x21
 11712 0bb1 9F       		.byte	0x9f
 11713 0bb2 00000000 		.4byte	0
 11714 0bb6 00000000 		.4byte	0
 11715              	.LLST91:
 11716 0bba 00000000 		.4byte	.LVL177
 11717 0bbe 22000000 		.4byte	.LVL180
 11718 0bc2 0100     		.2byte	0x1
 11719 0bc4 50       		.byte	0x50
 11720 0bc5 22000000 		.4byte	.LVL180
 11721 0bc9 28000000 		.4byte	.LVL181
 11722 0bcd 0400     		.2byte	0x4
 11723 0bcf F3       		.byte	0xf3
 11724 0bd0 01       		.uleb128 0x1
 11725 0bd1 50       		.byte	0x50
 11726 0bd2 9F       		.byte	0x9f
 11727 0bd3 28000000 		.4byte	.LVL181
 11728 0bd7 32000000 		.4byte	.LVL184
 11729 0bdb 0100     		.2byte	0x1
 11730 0bdd 50       		.byte	0x50
 11731 0bde 32000000 		.4byte	.LVL184
 11732 0be2 32020000 		.4byte	.LFE271
 11733 0be6 0100     		.2byte	0x1
 11734 0be8 56       		.byte	0x56
 11735 0be9 00000000 		.4byte	0
 11736 0bed 00000000 		.4byte	0
 11737              	.LLST92:
ARM GAS  /var/folders/m4/4md61f0s1_g0rzfghffqnxvr0000gn/T//cchEhHjd.s 			page 207


 11738 0bf1 00000000 		.4byte	.LVL177
 11739 0bf5 3A000000 		.4byte	.LVL186
 11740 0bf9 0100     		.2byte	0x1
 11741 0bfb 51       		.byte	0x51
 11742 0bfc 3A000000 		.4byte	.LVL186
 11743 0c00 32020000 		.4byte	.LFE271
 11744 0c04 0100     		.2byte	0x1
 11745 0c06 5B       		.byte	0x5b
 11746 0c07 00000000 		.4byte	0
 11747 0c0b 00000000 		.4byte	0
 11748              	.LLST93:
 11749 0c0f 00000000 		.4byte	.LVL177
 11750 0c13 38000000 		.4byte	.LVL185
 11751 0c17 0100     		.2byte	0x1
 11752 0c19 52       		.byte	0x52
 11753 0c1a 38000000 		.4byte	.LVL185
 11754 0c1e 32020000 		.4byte	.LFE271
 11755 0c22 0100     		.2byte	0x1
 11756 0c24 57       		.byte	0x57
 11757 0c25 00000000 		.4byte	0
 11758 0c29 00000000 		.4byte	0
 11759              	.LLST94:
 11760 0c2d 00000000 		.4byte	.LVL177
 11761 0c31 30000000 		.4byte	.LVL183
 11762 0c35 0100     		.2byte	0x1
 11763 0c37 53       		.byte	0x53
 11764 0c38 30000000 		.4byte	.LVL183
 11765 0c3c AE000000 		.4byte	.LVL199
 11766 0c40 0200     		.2byte	0x2
 11767 0c42 7D       		.byte	0x7d
 11768 0c43 00       		.sleb128 0
 11769 0c44 AE000000 		.4byte	.LVL199
 11770 0c48 B2000000 		.4byte	.LVL200
 11771 0c4c 0300     		.2byte	0x3
 11772 0c4e 91       		.byte	0x91
 11773 0c4f B87F     		.sleb128 -72
 11774 0c51 B2000000 		.4byte	.LVL200
 11775 0c55 04020000 		.4byte	.LVL239
 11776 0c59 0200     		.2byte	0x2
 11777 0c5b 7D       		.byte	0x7d
 11778 0c5c 00       		.sleb128 0
 11779 0c5d 04020000 		.4byte	.LVL239
 11780 0c61 08020000 		.4byte	.LVL240
 11781 0c65 0300     		.2byte	0x3
 11782 0c67 91       		.byte	0x91
 11783 0c68 B87F     		.sleb128 -72
 11784 0c6a 08020000 		.4byte	.LVL240
 11785 0c6e 32020000 		.4byte	.LFE271
 11786 0c72 0200     		.2byte	0x2
 11787 0c74 7D       		.byte	0x7d
 11788 0c75 00       		.sleb128 0
 11789 0c76 00000000 		.4byte	0
 11790 0c7a 00000000 		.4byte	0
 11791              	.LLST95:
 11792 0c7e 08000000 		.4byte	.LVL178
 11793 0c82 2C000000 		.4byte	.LVL182
 11794 0c86 0200     		.2byte	0x2
ARM GAS  /var/folders/m4/4md61f0s1_g0rzfghffqnxvr0000gn/T//cchEhHjd.s 			page 208


 11795 0c88 30       		.byte	0x30
 11796 0c89 9F       		.byte	0x9f
 11797 0c8a 2C000000 		.4byte	.LVL182
 11798 0c8e 32020000 		.4byte	.LFE271
 11799 0c92 0100     		.2byte	0x1
 11800 0c94 56       		.byte	0x56
 11801 0c95 00000000 		.4byte	0
 11802 0c99 00000000 		.4byte	0
 11803              	.LLST96:
 11804 0c9d 2C000000 		.4byte	.LVL182
 11805 0ca1 4A000000 		.4byte	.LVL189
 11806 0ca5 0200     		.2byte	0x2
 11807 0ca7 30       		.byte	0x30
 11808 0ca8 9F       		.byte	0x9f
 11809 0ca9 4A000000 		.4byte	.LVL189
 11810 0cad 7C000000 		.4byte	.LVL193
 11811 0cb1 0100     		.2byte	0x1
 11812 0cb3 54       		.byte	0x54
 11813 0cb4 80000000 		.4byte	.LVL194
 11814 0cb8 AC010000 		.4byte	.LVL226
 11815 0cbc 0100     		.2byte	0x1
 11816 0cbe 54       		.byte	0x54
 11817 0cbf AE010000 		.4byte	.LVL227
 11818 0cc3 32020000 		.4byte	.LFE271
 11819 0cc7 0100     		.2byte	0x1
 11820 0cc9 54       		.byte	0x54
 11821 0cca 00000000 		.4byte	0
 11822 0cce 00000000 		.4byte	0
 11823              	.LLST97:
 11824 0cd2 08000000 		.4byte	.LVL178
 11825 0cd6 12000000 		.4byte	.LVL179
 11826 0cda 0200     		.2byte	0x2
 11827 0cdc 30       		.byte	0x30
 11828 0cdd 9F       		.byte	0x9f
 11829 0cde 00000000 		.4byte	0
 11830 0ce2 00000000 		.4byte	0
 11831              	.LLST98:
 11832 0ce6 2C000000 		.4byte	.LVL182
 11833 0cea 3E000000 		.4byte	.LVL187
 11834 0cee 0200     		.2byte	0x2
 11835 0cf0 31       		.byte	0x31
 11836 0cf1 9F       		.byte	0x9f
 11837 0cf2 00000000 		.4byte	0
 11838 0cf6 00000000 		.4byte	0
 11839              	.LLST99:
 11840 0cfa 2C000000 		.4byte	.LVL182
 11841 0cfe 3A000000 		.4byte	.LVL186
 11842 0d02 0300     		.2byte	0x3
 11843 0d04 91       		.byte	0x91
 11844 0d05 44       		.sleb128 -60
 11845 0d06 9F       		.byte	0x9f
 11846 0d07 3A000000 		.4byte	.LVL186
 11847 0d0b 3D000000 		.4byte	.LVL187-1
 11848 0d0f 0100     		.2byte	0x1
 11849 0d11 51       		.byte	0x51
 11850 0d12 3D000000 		.4byte	.LVL187-1
 11851 0d16 3E000000 		.4byte	.LVL187
ARM GAS  /var/folders/m4/4md61f0s1_g0rzfghffqnxvr0000gn/T//cchEhHjd.s 			page 209


 11852 0d1a 0300     		.2byte	0x3
 11853 0d1c 91       		.byte	0x91
 11854 0d1d 44       		.sleb128 -60
 11855 0d1e 9F       		.byte	0x9f
 11856 0d1f 00000000 		.4byte	0
 11857 0d23 00000000 		.4byte	0
 11858              	.LLST100:
 11859 0d27 2C000000 		.4byte	.LVL182
 11860 0d2b 3E000000 		.4byte	.LVL187
 11861 0d2f 0300     		.2byte	0x3
 11862 0d31 91       		.byte	0x91
 11863 0d32 BC7F     		.sleb128 -68
 11864 0d34 00000000 		.4byte	0
 11865 0d38 00000000 		.4byte	0
 11866              	.LLST101:
 11867 0d3c 2A010000 		.4byte	.LVL208
 11868 0d40 34010000 		.4byte	.LVL210
 11869 0d44 0100     		.2byte	0x1
 11870 0d46 50       		.byte	0x50
 11871 0d47 00000000 		.4byte	0
 11872 0d4b 00000000 		.4byte	0
 11873              	.LLST102:
 11874 0d4f 5C000000 		.4byte	.LVL190
 11875 0d53 8A000000 		.4byte	.LVL195
 11876 0d57 0100     		.2byte	0x1
 11877 0d59 55       		.byte	0x55
 11878 0d5a 00000000 		.4byte	0
 11879 0d5e 00000000 		.4byte	0
 11880              	.LLST103:
 11881 0d62 5C000000 		.4byte	.LVL190
 11882 0d66 62000000 		.4byte	.LVL191
 11883 0d6a 0200     		.2byte	0x2
 11884 0d6c 30       		.byte	0x30
 11885 0d6d 9F       		.byte	0x9f
 11886 0d6e 62000000 		.4byte	.LVL191
 11887 0d72 68000000 		.4byte	.LVL192
 11888 0d76 0100     		.2byte	0x1
 11889 0d78 51       		.byte	0x51
 11890 0d79 00000000 		.4byte	0
 11891 0d7d 00000000 		.4byte	0
 11892              	.LLST104:
 11893 0d81 B2000000 		.4byte	.LVL200
 11894 0d85 BA000000 		.4byte	.LVL201
 11895 0d89 0100     		.2byte	0x1
 11896 0d8b 5A       		.byte	0x5a
 11897 0d8c 00000000 		.4byte	0
 11898 0d90 00000000 		.4byte	0
 11899              	.LLST105:
 11900 0d94 E2000000 		.4byte	.LVL203
 11901 0d98 F6000000 		.4byte	.LVL205
 11902 0d9c 0100     		.2byte	0x1
 11903 0d9e 50       		.byte	0x50
 11904 0d9f 3E010000 		.4byte	.LVL212
 11905 0da3 54010000 		.4byte	.LVL214
 11906 0da7 0100     		.2byte	0x1
 11907 0da9 50       		.byte	0x50
 11908 0daa 84010000 		.4byte	.LVL219
ARM GAS  /var/folders/m4/4md61f0s1_g0rzfghffqnxvr0000gn/T//cchEhHjd.s 			page 210


 11909 0dae 9A010000 		.4byte	.LVL221
 11910 0db2 0100     		.2byte	0x1
 11911 0db4 50       		.byte	0x50
 11912 0db5 A0010000 		.4byte	.LVL223
 11913 0db9 AA010000 		.4byte	.LVL225
 11914 0dbd 0100     		.2byte	0x1
 11915 0dbf 50       		.byte	0x50
 11916 0dc0 BC010000 		.4byte	.LVL230
 11917 0dc4 C0010000 		.4byte	.LVL231
 11918 0dc8 0100     		.2byte	0x1
 11919 0dca 50       		.byte	0x50
 11920 0dcb 08020000 		.4byte	.LVL240
 11921 0dcf 1A020000 		.4byte	.LVL242
 11922 0dd3 0100     		.2byte	0x1
 11923 0dd5 50       		.byte	0x50
 11924 0dd6 20020000 		.4byte	.LVL244
 11925 0dda 2C020000 		.4byte	.LVL246
 11926 0dde 0100     		.2byte	0x1
 11927 0de0 50       		.byte	0x50
 11928 0de1 00000000 		.4byte	0
 11929 0de5 00000000 		.4byte	0
 11930              	.LLST106:
 11931 0de9 E2000000 		.4byte	.LVL203
 11932 0ded 12010000 		.4byte	.LVL206
 11933 0df1 0900     		.2byte	0x9
 11934 0df3 75       		.byte	0x75
 11935 0df4 00       		.sleb128 0
 11936 0df5 08       		.byte	0x8
 11937 0df6 30       		.byte	0x30
 11938 0df7 1E       		.byte	0x1e
 11939 0df8 7A       		.byte	0x7a
 11940 0df9 00       		.sleb128 0
 11941 0dfa 22       		.byte	0x22
 11942 0dfb 9F       		.byte	0x9f
 11943 0dfc 3E010000 		.4byte	.LVL212
 11944 0e00 B0010000 		.4byte	.LVL228
 11945 0e04 0900     		.2byte	0x9
 11946 0e06 75       		.byte	0x75
 11947 0e07 00       		.sleb128 0
 11948 0e08 08       		.byte	0x8
 11949 0e09 30       		.byte	0x30
 11950 0e0a 1E       		.byte	0x1e
 11951 0e0b 7A       		.byte	0x7a
 11952 0e0c 00       		.sleb128 0
 11953 0e0d 22       		.byte	0x22
 11954 0e0e 9F       		.byte	0x9f
 11955 0e0f BC010000 		.4byte	.LVL230
 11956 0e13 E8010000 		.4byte	.LVL236
 11957 0e17 0900     		.2byte	0x9
 11958 0e19 75       		.byte	0x75
 11959 0e1a 00       		.sleb128 0
 11960 0e1b 08       		.byte	0x8
 11961 0e1c 30       		.byte	0x30
 11962 0e1d 1E       		.byte	0x1e
 11963 0e1e 7A       		.byte	0x7a
 11964 0e1f 00       		.sleb128 0
 11965 0e20 22       		.byte	0x22
ARM GAS  /var/folders/m4/4md61f0s1_g0rzfghffqnxvr0000gn/T//cchEhHjd.s 			page 211


 11966 0e21 9F       		.byte	0x9f
 11967 0e22 08020000 		.4byte	.LVL240
 11968 0e26 32020000 		.4byte	.LFE271
 11969 0e2a 0900     		.2byte	0x9
 11970 0e2c 75       		.byte	0x75
 11971 0e2d 00       		.sleb128 0
 11972 0e2e 08       		.byte	0x8
 11973 0e2f 30       		.byte	0x30
 11974 0e30 1E       		.byte	0x1e
 11975 0e31 7A       		.byte	0x7a
 11976 0e32 00       		.sleb128 0
 11977 0e33 22       		.byte	0x22
 11978 0e34 9F       		.byte	0x9f
 11979 0e35 00000000 		.4byte	0
 11980 0e39 00000000 		.4byte	0
 11981              	.LLST107:
 11982 0e3d F0000000 		.4byte	.LVL204
 11983 0e41 F6000000 		.4byte	.LVL205
 11984 0e45 0300     		.2byte	0x3
 11985 0e47 91       		.byte	0x91
 11986 0e48 43       		.sleb128 -61
 11987 0e49 9F       		.byte	0x9f
 11988 0e4a 84010000 		.4byte	.LVL219
 11989 0e4e 96010000 		.4byte	.LVL220
 11990 0e52 0300     		.2byte	0x3
 11991 0e54 91       		.byte	0x91
 11992 0e55 43       		.sleb128 -61
 11993 0e56 9F       		.byte	0x9f
 11994 0e57 96010000 		.4byte	.LVL220
 11995 0e5b 9D010000 		.4byte	.LVL222-1
 11996 0e5f 0100     		.2byte	0x1
 11997 0e61 53       		.byte	0x53
 11998 0e62 9D010000 		.4byte	.LVL222-1
 11999 0e66 A0010000 		.4byte	.LVL223
 12000 0e6a 0300     		.2byte	0x3
 12001 0e6c 91       		.byte	0x91
 12002 0e6d 43       		.sleb128 -61
 12003 0e6e 9F       		.byte	0x9f
 12004 0e6f 00000000 		.4byte	0
 12005 0e73 00000000 		.4byte	0
 12006              	.LLST108:
 12007 0e77 F0000000 		.4byte	.LVL204
 12008 0e7b F6000000 		.4byte	.LVL205
 12009 0e7f 0100     		.2byte	0x1
 12010 0e81 58       		.byte	0x58
 12011 0e82 84010000 		.4byte	.LVL219
 12012 0e86 A0010000 		.4byte	.LVL223
 12013 0e8a 0100     		.2byte	0x1
 12014 0e8c 58       		.byte	0x58
 12015 0e8d 00000000 		.4byte	0
 12016 0e91 00000000 		.4byte	0
 12017              	.LLST109:
 12018 0e95 46010000 		.4byte	.LVL213
 12019 0e99 5C010000 		.4byte	.LVL215
 12020 0e9d 0100     		.2byte	0x1
 12021 0e9f 53       		.byte	0x53
 12022 0ea0 5E010000 		.4byte	.LVL216
ARM GAS  /var/folders/m4/4md61f0s1_g0rzfghffqnxvr0000gn/T//cchEhHjd.s 			page 212


 12023 0ea4 70010000 		.4byte	.LVL218
 12024 0ea8 0100     		.2byte	0x1
 12025 0eaa 53       		.byte	0x53
 12026 0eab CE010000 		.4byte	.LVL232
 12027 0eaf D2010000 		.4byte	.LVL233
 12028 0eb3 0100     		.2byte	0x1
 12029 0eb5 53       		.byte	0x53
 12030 0eb6 00000000 		.4byte	0
 12031 0eba 00000000 		.4byte	0
 12032              	.LLST110:
 12033 0ebe 6A010000 		.4byte	.LVL217
 12034 0ec2 70010000 		.4byte	.LVL218
 12035 0ec6 0300     		.2byte	0x3
 12036 0ec8 91       		.byte	0x91
 12037 0ec9 43       		.sleb128 -61
 12038 0eca 9F       		.byte	0x9f
 12039 0ecb CE010000 		.4byte	.LVL232
 12040 0ecf E0010000 		.4byte	.LVL234
 12041 0ed3 0300     		.2byte	0x3
 12042 0ed5 91       		.byte	0x91
 12043 0ed6 43       		.sleb128 -61
 12044 0ed7 9F       		.byte	0x9f
 12045 0ed8 E0010000 		.4byte	.LVL234
 12046 0edc E5010000 		.4byte	.LVL235-1
 12047 0ee0 0100     		.2byte	0x1
 12048 0ee2 53       		.byte	0x53
 12049 0ee3 E5010000 		.4byte	.LVL235-1
 12050 0ee7 E8010000 		.4byte	.LVL236
 12051 0eeb 0300     		.2byte	0x3
 12052 0eed 91       		.byte	0x91
 12053 0eee 43       		.sleb128 -61
 12054 0eef 9F       		.byte	0x9f
 12055 0ef0 00000000 		.4byte	0
 12056 0ef4 00000000 		.4byte	0
 12057              	.LLST111:
 12058 0ef8 6A010000 		.4byte	.LVL217
 12059 0efc 70010000 		.4byte	.LVL218
 12060 0f00 0100     		.2byte	0x1
 12061 0f02 58       		.byte	0x58
 12062 0f03 CE010000 		.4byte	.LVL232
 12063 0f07 E8010000 		.4byte	.LVL236
 12064 0f0b 0100     		.2byte	0x1
 12065 0f0d 58       		.byte	0x58
 12066 0f0e 00000000 		.4byte	0
 12067 0f12 00000000 		.4byte	0
 12068              	.LLST112:
 12069 0f16 A6010000 		.4byte	.LVL224
 12070 0f1a AA010000 		.4byte	.LVL225
 12071 0f1e 0300     		.2byte	0x3
 12072 0f20 91       		.byte	0x91
 12073 0f21 43       		.sleb128 -61
 12074 0f22 9F       		.byte	0x9f
 12075 0f23 20020000 		.4byte	.LVL244
 12076 0f27 26020000 		.4byte	.LVL245
 12077 0f2b 0300     		.2byte	0x3
 12078 0f2d 91       		.byte	0x91
 12079 0f2e 43       		.sleb128 -61
ARM GAS  /var/folders/m4/4md61f0s1_g0rzfghffqnxvr0000gn/T//cchEhHjd.s 			page 213


 12080 0f2f 9F       		.byte	0x9f
 12081 0f30 26020000 		.4byte	.LVL245
 12082 0f34 2F020000 		.4byte	.LVL247-1
 12083 0f38 0100     		.2byte	0x1
 12084 0f3a 53       		.byte	0x53
 12085 0f3b 2F020000 		.4byte	.LVL247-1
 12086 0f3f 32020000 		.4byte	.LFE271
 12087 0f43 0300     		.2byte	0x3
 12088 0f45 91       		.byte	0x91
 12089 0f46 43       		.sleb128 -61
 12090 0f47 9F       		.byte	0x9f
 12091 0f48 00000000 		.4byte	0
 12092 0f4c 00000000 		.4byte	0
 12093              	.LLST113:
 12094 0f50 A6010000 		.4byte	.LVL224
 12095 0f54 AA010000 		.4byte	.LVL225
 12096 0f58 0100     		.2byte	0x1
 12097 0f5a 50       		.byte	0x50
 12098 0f5b 20020000 		.4byte	.LVL244
 12099 0f5f 2C020000 		.4byte	.LVL246
 12100 0f63 0100     		.2byte	0x1
 12101 0f65 50       		.byte	0x50
 12102 0f66 00000000 		.4byte	0
 12103 0f6a 00000000 		.4byte	0
 12104              	.LLST114:
 12105 0f6e BC010000 		.4byte	.LVL230
 12106 0f72 C0010000 		.4byte	.LVL231
 12107 0f76 0300     		.2byte	0x3
 12108 0f78 91       		.byte	0x91
 12109 0f79 43       		.sleb128 -61
 12110 0f7a 9F       		.byte	0x9f
 12111 0f7b 08020000 		.4byte	.LVL240
 12112 0f7f 18020000 		.4byte	.LVL241
 12113 0f83 0300     		.2byte	0x3
 12114 0f85 91       		.byte	0x91
 12115 0f86 43       		.sleb128 -61
 12116 0f87 9F       		.byte	0x9f
 12117 0f88 18020000 		.4byte	.LVL241
 12118 0f8c 1D020000 		.4byte	.LVL243-1
 12119 0f90 0100     		.2byte	0x1
 12120 0f92 53       		.byte	0x53
 12121 0f93 1D020000 		.4byte	.LVL243-1
 12122 0f97 20020000 		.4byte	.LVL244
 12123 0f9b 0300     		.2byte	0x3
 12124 0f9d 91       		.byte	0x91
 12125 0f9e 43       		.sleb128 -61
 12126 0f9f 9F       		.byte	0x9f
 12127 0fa0 00000000 		.4byte	0
 12128 0fa4 00000000 		.4byte	0
 12129              	.LLST115:
 12130 0fa8 BC010000 		.4byte	.LVL230
 12131 0fac C0010000 		.4byte	.LVL231
 12132 0fb0 0100     		.2byte	0x1
 12133 0fb2 50       		.byte	0x50
 12134 0fb3 08020000 		.4byte	.LVL240
 12135 0fb7 1A020000 		.4byte	.LVL242
 12136 0fbb 0100     		.2byte	0x1
ARM GAS  /var/folders/m4/4md61f0s1_g0rzfghffqnxvr0000gn/T//cchEhHjd.s 			page 214


 12137 0fbd 50       		.byte	0x50
 12138 0fbe 00000000 		.4byte	0
 12139 0fc2 00000000 		.4byte	0
 12140              	.LLST116:
 12141 0fc6 2E010000 		.4byte	.LVL209
 12142 0fca 3E010000 		.4byte	.LVL212
 12143 0fce 0300     		.2byte	0x3
 12144 0fd0 08       		.byte	0x8
 12145 0fd1 40       		.byte	0x40
 12146 0fd2 9F       		.byte	0x9f
 12147 0fd3 00000000 		.4byte	0
 12148 0fd7 00000000 		.4byte	0
 12149              	.LLST117:
 12150 0fdb 2E010000 		.4byte	.LVL209
 12151 0fdf 3E010000 		.4byte	.LVL212
 12152 0fe3 0100     		.2byte	0x1
 12153 0fe5 5A       		.byte	0x5a
 12154 0fe6 00000000 		.4byte	0
 12155 0fea 00000000 		.4byte	0
 12156              	.LLST118:
 12157 0fee F0010000 		.4byte	.LVL237
 12158 0ff2 02020000 		.4byte	.LVL238
 12159 0ff6 0100     		.2byte	0x1
 12160 0ff8 5A       		.byte	0x5a
 12161 0ff9 00000000 		.4byte	0
 12162 0ffd 00000000 		.4byte	0
 12163              	.LLST119:
 12164 1001 92000000 		.4byte	.LVL196
 12165 1005 A6000000 		.4byte	.LVL197
 12166 1009 0100     		.2byte	0x1
 12167 100b 5A       		.byte	0x5a
 12168 100c 00000000 		.4byte	0
 12169 1010 00000000 		.4byte	0
 12170              	.LLST120:
 12171 1014 00000000 		.4byte	.LVL248
 12172 1018 1A000000 		.4byte	.LVL251
 12173 101c 0100     		.2byte	0x1
 12174 101e 50       		.byte	0x50
 12175 101f 1A000000 		.4byte	.LVL251
 12176 1023 1E000000 		.4byte	.LVL252
 12177 1027 0400     		.2byte	0x4
 12178 1029 F3       		.byte	0xf3
 12179 102a 01       		.uleb128 0x1
 12180 102b 50       		.byte	0x50
 12181 102c 9F       		.byte	0x9f
 12182 102d 1E000000 		.4byte	.LVL252
 12183 1031 32000000 		.4byte	.LVL254
 12184 1035 0100     		.2byte	0x1
 12185 1037 50       		.byte	0x50
 12186 1038 32000000 		.4byte	.LVL254
 12187 103c 36000000 		.4byte	.LVL255
 12188 1040 0400     		.2byte	0x4
 12189 1042 F3       		.byte	0xf3
 12190 1043 01       		.uleb128 0x1
 12191 1044 50       		.byte	0x50
 12192 1045 9F       		.byte	0x9f
 12193 1046 36000000 		.4byte	.LVL255
ARM GAS  /var/folders/m4/4md61f0s1_g0rzfghffqnxvr0000gn/T//cchEhHjd.s 			page 215


 12194 104a 41000000 		.4byte	.LVL258-1
 12195 104e 0100     		.2byte	0x1
 12196 1050 50       		.byte	0x50
 12197 1051 41000000 		.4byte	.LVL258-1
 12198 1055 54000000 		.4byte	.LFE273
 12199 1059 0400     		.2byte	0x4
 12200 105b F3       		.byte	0xf3
 12201 105c 01       		.uleb128 0x1
 12202 105d 50       		.byte	0x50
 12203 105e 9F       		.byte	0x9f
 12204 105f 00000000 		.4byte	0
 12205 1063 00000000 		.4byte	0
 12206              	.LLST121:
 12207 1067 00000000 		.4byte	.LVL248
 12208 106b 3E000000 		.4byte	.LVL257
 12209 106f 0100     		.2byte	0x1
 12210 1071 51       		.byte	0x51
 12211 1072 3E000000 		.4byte	.LVL257
 12212 1076 41000000 		.4byte	.LVL258-1
 12213 107a 0100     		.2byte	0x1
 12214 107c 53       		.byte	0x53
 12215 107d 41000000 		.4byte	.LVL258-1
 12216 1081 54000000 		.4byte	.LFE273
 12217 1085 0400     		.2byte	0x4
 12218 1087 F3       		.byte	0xf3
 12219 1088 01       		.uleb128 0x1
 12220 1089 51       		.byte	0x51
 12221 108a 9F       		.byte	0x9f
 12222 108b 00000000 		.4byte	0
 12223 108f 00000000 		.4byte	0
 12224              	.LLST122:
 12225 1093 04000000 		.4byte	.LVL249
 12226 1097 1E000000 		.4byte	.LVL252
 12227 109b 0200     		.2byte	0x2
 12228 109d 30       		.byte	0x30
 12229 109e 9F       		.byte	0x9f
 12230 109f 1E000000 		.4byte	.LVL252
 12231 10a3 32000000 		.4byte	.LVL254
 12232 10a7 0100     		.2byte	0x1
 12233 10a9 50       		.byte	0x50
 12234 10aa 32000000 		.4byte	.LVL254
 12235 10ae 36000000 		.4byte	.LVL255
 12236 10b2 0400     		.2byte	0x4
 12237 10b4 F3       		.byte	0xf3
 12238 10b5 01       		.uleb128 0x1
 12239 10b6 50       		.byte	0x50
 12240 10b7 9F       		.byte	0x9f
 12241 10b8 36000000 		.4byte	.LVL255
 12242 10bc 41000000 		.4byte	.LVL258-1
 12243 10c0 0100     		.2byte	0x1
 12244 10c2 50       		.byte	0x50
 12245 10c3 41000000 		.4byte	.LVL258-1
 12246 10c7 54000000 		.4byte	.LFE273
 12247 10cb 0400     		.2byte	0x4
 12248 10cd F3       		.byte	0xf3
 12249 10ce 01       		.uleb128 0x1
 12250 10cf 50       		.byte	0x50
ARM GAS  /var/folders/m4/4md61f0s1_g0rzfghffqnxvr0000gn/T//cchEhHjd.s 			page 216


 12251 10d0 9F       		.byte	0x9f
 12252 10d1 00000000 		.4byte	0
 12253 10d5 00000000 		.4byte	0
 12254              	.LLST123:
 12255 10d9 04000000 		.4byte	.LVL249
 12256 10dd 0A000000 		.4byte	.LVL250
 12257 10e1 0200     		.2byte	0x2
 12258 10e3 30       		.byte	0x30
 12259 10e4 9F       		.byte	0x9f
 12260 10e5 00000000 		.4byte	0
 12261 10e9 00000000 		.4byte	0
 12262              	.LLST124:
 12263 10ed 2C000000 		.4byte	.LVL253
 12264 10f1 36000000 		.4byte	.LVL255
 12265 10f5 0100     		.2byte	0x1
 12266 10f7 53       		.byte	0x53
 12267 10f8 00000000 		.4byte	0
 12268 10fc 00000000 		.4byte	0
 12269              	.LLST125:
 12270 1100 38000000 		.4byte	.LVL256
 12271 1104 41000000 		.4byte	.LVL258-1
 12272 1108 0100     		.2byte	0x1
 12273 110a 53       		.byte	0x53
 12274 110b 41000000 		.4byte	.LVL258-1
 12275 110f 48000000 		.4byte	.LVL259
 12276 1113 0400     		.2byte	0x4
 12277 1115 F3       		.byte	0xf3
 12278 1116 01       		.uleb128 0x1
 12279 1117 51       		.byte	0x51
 12280 1118 9F       		.byte	0x9f
 12281 1119 4C000000 		.4byte	.LVL260
 12282 111d 54000000 		.4byte	.LFE273
 12283 1121 0400     		.2byte	0x4
 12284 1123 F3       		.byte	0xf3
 12285 1124 01       		.uleb128 0x1
 12286 1125 51       		.byte	0x51
 12287 1126 9F       		.byte	0x9f
 12288 1127 00000000 		.4byte	0
 12289 112b 00000000 		.4byte	0
 12290              	.LLST126:
 12291 112f 36000000 		.4byte	.LVL255
 12292 1133 41000000 		.4byte	.LVL258-1
 12293 1137 0100     		.2byte	0x1
 12294 1139 50       		.byte	0x50
 12295 113a 41000000 		.4byte	.LVL258-1
 12296 113e 48000000 		.4byte	.LVL259
 12297 1142 0400     		.2byte	0x4
 12298 1144 F3       		.byte	0xf3
 12299 1145 01       		.uleb128 0x1
 12300 1146 50       		.byte	0x50
 12301 1147 9F       		.byte	0x9f
 12302 1148 4C000000 		.4byte	.LVL260
 12303 114c 54000000 		.4byte	.LFE273
 12304 1150 0400     		.2byte	0x4
 12305 1152 F3       		.byte	0xf3
 12306 1153 01       		.uleb128 0x1
 12307 1154 50       		.byte	0x50
ARM GAS  /var/folders/m4/4md61f0s1_g0rzfghffqnxvr0000gn/T//cchEhHjd.s 			page 217


 12308 1155 9F       		.byte	0x9f
 12309 1156 00000000 		.4byte	0
 12310 115a 00000000 		.4byte	0
 12311              	.LLST127:
 12312 115e 00000000 		.4byte	.LVL261
 12313 1162 07000000 		.4byte	.LVL262-1
 12314 1166 0100     		.2byte	0x1
 12315 1168 50       		.byte	0x50
 12316 1169 07000000 		.4byte	.LVL262-1
 12317 116d 08000000 		.4byte	.LFE277
 12318 1171 0400     		.2byte	0x4
 12319 1173 F3       		.byte	0xf3
 12320 1174 01       		.uleb128 0x1
 12321 1175 50       		.byte	0x50
 12322 1176 9F       		.byte	0x9f
 12323 1177 00000000 		.4byte	0
 12324 117b 00000000 		.4byte	0
 12325              	.LLST128:
 12326 117f 00000000 		.4byte	.LVL263
 12327 1183 07000000 		.4byte	.LVL264-1
 12328 1187 0100     		.2byte	0x1
 12329 1189 50       		.byte	0x50
 12330 118a 07000000 		.4byte	.LVL264-1
 12331 118e 08000000 		.4byte	.LFE275
 12332 1192 0400     		.2byte	0x4
 12333 1194 F3       		.byte	0xf3
 12334 1195 01       		.uleb128 0x1
 12335 1196 50       		.byte	0x50
 12336 1197 9F       		.byte	0x9f
 12337 1198 00000000 		.4byte	0
 12338 119c 00000000 		.4byte	0
 12339              	.LLST129:
 12340 11a0 00000000 		.4byte	.LVL263
 12341 11a4 07000000 		.4byte	.LVL264-1
 12342 11a8 0100     		.2byte	0x1
 12343 11aa 51       		.byte	0x51
 12344 11ab 07000000 		.4byte	.LVL264-1
 12345 11af 08000000 		.4byte	.LFE275
 12346 11b3 0400     		.2byte	0x4
 12347 11b5 F3       		.byte	0xf3
 12348 11b6 01       		.uleb128 0x1
 12349 11b7 51       		.byte	0x51
 12350 11b8 9F       		.byte	0x9f
 12351 11b9 00000000 		.4byte	0
 12352 11bd 00000000 		.4byte	0
 12353              	.LLST130:
 12354 11c1 00000000 		.4byte	.LVL263
 12355 11c5 07000000 		.4byte	.LVL264-1
 12356 11c9 0100     		.2byte	0x1
 12357 11cb 52       		.byte	0x52
 12358 11cc 07000000 		.4byte	.LVL264-1
 12359 11d0 08000000 		.4byte	.LFE275
 12360 11d4 0400     		.2byte	0x4
 12361 11d6 F3       		.byte	0xf3
 12362 11d7 01       		.uleb128 0x1
 12363 11d8 52       		.byte	0x52
 12364 11d9 9F       		.byte	0x9f
ARM GAS  /var/folders/m4/4md61f0s1_g0rzfghffqnxvr0000gn/T//cchEhHjd.s 			page 218


 12365 11da 00000000 		.4byte	0
 12366 11de 00000000 		.4byte	0
 12367              	.LLST131:
 12368 11e2 00000000 		.4byte	.LVL265
 12369 11e6 1B000000 		.4byte	.LVL266-1
 12370 11ea 0100     		.2byte	0x1
 12371 11ec 50       		.byte	0x50
 12372 11ed 1B000000 		.4byte	.LVL266-1
 12373 11f1 38000000 		.4byte	.LFE305
 12374 11f5 0100     		.2byte	0x1
 12375 11f7 55       		.byte	0x55
 12376 11f8 00000000 		.4byte	0
 12377 11fc 00000000 		.4byte	0
 12378              	.LLST132:
 12379 1200 1C000000 		.4byte	.LVL266
 12380 1204 24000000 		.4byte	.LVL267
 12381 1208 0600     		.2byte	0x6
 12382 120a 70       		.byte	0x70
 12383 120b 00       		.sleb128 0
 12384 120c 09       		.byte	0x9
 12385 120d FE       		.byte	0xfe
 12386 120e 1A       		.byte	0x1a
 12387 120f 9F       		.byte	0x9f
 12388 1210 00000000 		.4byte	0
 12389 1214 00000000 		.4byte	0
 12390              	.LLST133:
 12391 1218 00000000 		.4byte	.LVL269
 12392 121c 12000000 		.4byte	.LVL271
 12393 1220 0100     		.2byte	0x1
 12394 1222 50       		.byte	0x50
 12395 1223 12000000 		.4byte	.LVL271
 12396 1227 1A000000 		.4byte	.LVL272
 12397 122b 0400     		.2byte	0x4
 12398 122d F3       		.byte	0xf3
 12399 122e 01       		.uleb128 0x1
 12400 122f 50       		.byte	0x50
 12401 1230 9F       		.byte	0x9f
 12402 1231 1A000000 		.4byte	.LVL272
 12403 1235 26000000 		.4byte	.LVL275
 12404 1239 0100     		.2byte	0x1
 12405 123b 50       		.byte	0x50
 12406 123c 26000000 		.4byte	.LVL275
 12407 1240 FE000000 		.4byte	.LFE270
 12408 1244 0100     		.2byte	0x1
 12409 1246 56       		.byte	0x56
 12410 1247 00000000 		.4byte	0
 12411 124b 00000000 		.4byte	0
 12412              	.LLST134:
 12413 124f 00000000 		.4byte	.LVL269
 12414 1253 12000000 		.4byte	.LVL271
 12415 1257 0100     		.2byte	0x1
 12416 1259 51       		.byte	0x51
 12417 125a 12000000 		.4byte	.LVL271
 12418 125e 1A000000 		.4byte	.LVL272
 12419 1262 0400     		.2byte	0x4
 12420 1264 F3       		.byte	0xf3
 12421 1265 01       		.uleb128 0x1
ARM GAS  /var/folders/m4/4md61f0s1_g0rzfghffqnxvr0000gn/T//cchEhHjd.s 			page 219


 12422 1266 51       		.byte	0x51
 12423 1267 9F       		.byte	0x9f
 12424 1268 1A000000 		.4byte	.LVL272
 12425 126c 32000000 		.4byte	.LVL278
 12426 1270 0100     		.2byte	0x1
 12427 1272 51       		.byte	0x51
 12428 1273 32000000 		.4byte	.LVL278
 12429 1277 FE000000 		.4byte	.LFE270
 12430 127b 0100     		.2byte	0x1
 12431 127d 58       		.byte	0x58
 12432 127e 00000000 		.4byte	0
 12433 1282 00000000 		.4byte	0
 12434              	.LLST135:
 12435 1286 00000000 		.4byte	.LVL269
 12436 128a 12000000 		.4byte	.LVL271
 12437 128e 0100     		.2byte	0x1
 12438 1290 52       		.byte	0x52
 12439 1291 12000000 		.4byte	.LVL271
 12440 1295 1A000000 		.4byte	.LVL272
 12441 1299 0400     		.2byte	0x4
 12442 129b F3       		.byte	0xf3
 12443 129c 01       		.uleb128 0x1
 12444 129d 52       		.byte	0x52
 12445 129e 9F       		.byte	0x9f
 12446 129f 1A000000 		.4byte	.LVL272
 12447 12a3 2E000000 		.4byte	.LVL277
 12448 12a7 0100     		.2byte	0x1
 12449 12a9 52       		.byte	0x52
 12450 12aa 2E000000 		.4byte	.LVL277
 12451 12ae FE000000 		.4byte	.LFE270
 12452 12b2 0100     		.2byte	0x1
 12453 12b4 57       		.byte	0x57
 12454 12b5 00000000 		.4byte	0
 12455 12b9 00000000 		.4byte	0
 12456              	.LLST136:
 12457 12bd 00000000 		.4byte	.LVL269
 12458 12c1 12000000 		.4byte	.LVL271
 12459 12c5 0100     		.2byte	0x1
 12460 12c7 53       		.byte	0x53
 12461 12c8 12000000 		.4byte	.LVL271
 12462 12cc 1A000000 		.4byte	.LVL272
 12463 12d0 0400     		.2byte	0x4
 12464 12d2 F3       		.byte	0xf3
 12465 12d3 01       		.uleb128 0x1
 12466 12d4 53       		.byte	0x53
 12467 12d5 9F       		.byte	0x9f
 12468 12d6 1A000000 		.4byte	.LVL272
 12469 12da 20000000 		.4byte	.LVL273
 12470 12de 0100     		.2byte	0x1
 12471 12e0 53       		.byte	0x53
 12472 12e1 20000000 		.4byte	.LVL273
 12473 12e5 FE000000 		.4byte	.LFE270
 12474 12e9 0100     		.2byte	0x1
 12475 12eb 59       		.byte	0x59
 12476 12ec 00000000 		.4byte	0
 12477 12f0 00000000 		.4byte	0
 12478              	.LLST137:
ARM GAS  /var/folders/m4/4md61f0s1_g0rzfghffqnxvr0000gn/T//cchEhHjd.s 			page 220


 12479 12f4 36000000 		.4byte	.LVL279
 12480 12f8 50000000 		.4byte	.LVL283
 12481 12fc 0200     		.2byte	0x2
 12482 12fe 30       		.byte	0x30
 12483 12ff 9F       		.byte	0x9f
 12484 1300 50000000 		.4byte	.LVL283
 12485 1304 96000000 		.4byte	.LVL296
 12486 1308 0100     		.2byte	0x1
 12487 130a 5B       		.byte	0x5b
 12488 130b 96000000 		.4byte	.LVL296
 12489 130f A6000000 		.4byte	.LVL299
 12490 1313 0200     		.2byte	0x2
 12491 1315 30       		.byte	0x30
 12492 1316 9F       		.byte	0x9f
 12493 1317 CA000000 		.4byte	.LVL303
 12494 131b FE000000 		.4byte	.LFE270
 12495 131f 0100     		.2byte	0x1
 12496 1321 5B       		.byte	0x5b
 12497 1322 00000000 		.4byte	0
 12498 1326 00000000 		.4byte	0
 12499              	.LLST138:
 12500 132a 3C000000 		.4byte	.LVL280
 12501 132e 44000000 		.4byte	.LVL281
 12502 1332 0100     		.2byte	0x1
 12503 1334 50       		.byte	0x50
 12504 1335 82000000 		.4byte	.LVL292
 12505 1339 90000000 		.4byte	.LVL294
 12506 133d 0100     		.2byte	0x1
 12507 133f 50       		.byte	0x50
 12508 1340 96000000 		.4byte	.LVL296
 12509 1344 9A000000 		.4byte	.LVL297
 12510 1348 0100     		.2byte	0x1
 12511 134a 50       		.byte	0x50
 12512 134b E4000000 		.4byte	.LVL306
 12513 134f E8000000 		.4byte	.LVL307
 12514 1353 0100     		.2byte	0x1
 12515 1355 50       		.byte	0x50
 12516 1356 00000000 		.4byte	0
 12517 135a 00000000 		.4byte	0
 12518              	.LLST139:
 12519 135e 24000000 		.4byte	.LVL274
 12520 1362 36000000 		.4byte	.LVL279
 12521 1366 0200     		.2byte	0x2
 12522 1368 31       		.byte	0x31
 12523 1369 9F       		.byte	0x9f
 12524 136a 00000000 		.4byte	0
 12525 136e 00000000 		.4byte	0
 12526              	.LLST140:
 12527 1372 24000000 		.4byte	.LVL274
 12528 1376 32000000 		.4byte	.LVL278
 12529 137a 0300     		.2byte	0x3
 12530 137c 91       		.byte	0x91
 12531 137d 44       		.sleb128 -60
 12532 137e 9F       		.byte	0x9f
 12533 137f 32000000 		.4byte	.LVL278
 12534 1383 35000000 		.4byte	.LVL279-1
 12535 1387 0100     		.2byte	0x1
ARM GAS  /var/folders/m4/4md61f0s1_g0rzfghffqnxvr0000gn/T//cchEhHjd.s 			page 221


 12536 1389 51       		.byte	0x51
 12537 138a 35000000 		.4byte	.LVL279-1
 12538 138e 36000000 		.4byte	.LVL279
 12539 1392 0300     		.2byte	0x3
 12540 1394 91       		.byte	0x91
 12541 1395 44       		.sleb128 -60
 12542 1396 9F       		.byte	0x9f
 12543 1397 00000000 		.4byte	0
 12544 139b 00000000 		.4byte	0
 12545              	.LLST141:
 12546 139f 24000000 		.4byte	.LVL274
 12547 13a3 2C000000 		.4byte	.LVL276
 12548 13a7 0100     		.2byte	0x1
 12549 13a9 53       		.byte	0x53
 12550 13aa 2C000000 		.4byte	.LVL276
 12551 13ae 35000000 		.4byte	.LVL279-1
 12552 13b2 0100     		.2byte	0x1
 12553 13b4 50       		.byte	0x50
 12554 13b5 35000000 		.4byte	.LVL279-1
 12555 13b9 36000000 		.4byte	.LVL279
 12556 13bd 0300     		.2byte	0x3
 12557 13bf 91       		.byte	0x91
 12558 13c0 BC7F     		.sleb128 -68
 12559 13c2 00000000 		.4byte	0
 12560 13c6 00000000 		.4byte	0
 12561              	.LLST142:
 12562 13ca 50000000 		.4byte	.LVL283
 12563 13ce 52000000 		.4byte	.LVL284
 12564 13d2 0100     		.2byte	0x1
 12565 13d4 54       		.byte	0x54
 12566 13d5 52000000 		.4byte	.LVL284
 12567 13d9 5A000000 		.4byte	.LVL286
 12568 13dd 1C00     		.2byte	0x1c
 12569 13df 08       		.byte	0x8
 12570 13e0 20       		.byte	0x20
 12571 13e1 77       		.byte	0x77
 12572 13e2 00       		.sleb128 0
 12573 13e3 7A       		.byte	0x7a
 12574 13e4 00       		.sleb128 0
 12575 13e5 1C       		.byte	0x1c
 12576 13e6 77       		.byte	0x77
 12577 13e7 00       		.sleb128 0
 12578 13e8 7A       		.byte	0x7a
 12579 13e9 00       		.sleb128 0
 12580 13ea 1C       		.byte	0x1c
 12581 13eb 40       		.byte	0x40
 12582 13ec 4B       		.byte	0x4b
 12583 13ed 24       		.byte	0x24
 12584 13ee 22       		.byte	0x22
 12585 13ef 0C       		.byte	0xc
 12586 13f0 20000080 		.4byte	0x80000020
 12587 13f4 2A       		.byte	0x2a
 12588 13f5 28       		.byte	0x28
 12589 13f6 0100     		.2byte	0x1
 12590 13f8 16       		.byte	0x16
 12591 13f9 13       		.byte	0x13
 12592 13fa 9F       		.byte	0x9f
ARM GAS  /var/folders/m4/4md61f0s1_g0rzfghffqnxvr0000gn/T//cchEhHjd.s 			page 222


 12593 13fb 66000000 		.4byte	.LVL288
 12594 13ff 96000000 		.4byte	.LVL296
 12595 1403 0100     		.2byte	0x1
 12596 1405 54       		.byte	0x54
 12597 1406 CA000000 		.4byte	.LVL303
 12598 140a FE000000 		.4byte	.LFE270
 12599 140e 0100     		.2byte	0x1
 12600 1410 54       		.byte	0x54
 12601 1411 00000000 		.4byte	0
 12602 1415 00000000 		.4byte	0
 12603              	.LLST143:
 12604 1419 66000000 		.4byte	.LVL288
 12605 141d 6E000000 		.4byte	.LVL289
 12606 1421 0600     		.2byte	0x6
 12607 1423 78       		.byte	0x78
 12608 1424 00       		.sleb128 0
 12609 1425 7A       		.byte	0x7a
 12610 1426 00       		.sleb128 0
 12611 1427 22       		.byte	0x22
 12612 1428 9F       		.byte	0x9f
 12613 1429 6E000000 		.4byte	.LVL289
 12614 142d 71000000 		.4byte	.LVL290-1
 12615 1431 0100     		.2byte	0x1
 12616 1433 52       		.byte	0x52
 12617 1434 71000000 		.4byte	.LVL290-1
 12618 1438 72000000 		.4byte	.LVL290
 12619 143c 0600     		.2byte	0x6
 12620 143e 78       		.byte	0x78
 12621 143f 00       		.sleb128 0
 12622 1440 7A       		.byte	0x7a
 12623 1441 00       		.sleb128 0
 12624 1442 22       		.byte	0x22
 12625 1443 9F       		.byte	0x9f
 12626 1444 00000000 		.4byte	0
 12627 1448 00000000 		.4byte	0
 12628              	.LLST144:
 12629 144c 66000000 		.4byte	.LVL288
 12630 1450 72000000 		.4byte	.LVL290
 12631 1454 0100     		.2byte	0x1
 12632 1456 54       		.byte	0x54
 12633 1457 00000000 		.4byte	0
 12634 145b 00000000 		.4byte	0
 12635              	.LLST145:
 12636 145f 66000000 		.4byte	.LVL288
 12637 1463 72000000 		.4byte	.LVL290
 12638 1467 0100     		.2byte	0x1
 12639 1469 55       		.byte	0x55
 12640 146a 00000000 		.4byte	0
 12641 146e 00000000 		.4byte	0
 12642              	.LLST146:
 12643 1472 8A000000 		.4byte	.LVL293
 12644 1476 96000000 		.4byte	.LVL296
 12645 147a 0300     		.2byte	0x3
 12646 147c 08       		.byte	0x8
 12647 147d 20       		.byte	0x20
 12648 147e 9F       		.byte	0x9f
 12649 147f 00000000 		.4byte	0
ARM GAS  /var/folders/m4/4md61f0s1_g0rzfghffqnxvr0000gn/T//cchEhHjd.s 			page 223


 12650 1483 00000000 		.4byte	0
 12651              	.LLST147:
 12652 1487 8A000000 		.4byte	.LVL293
 12653 148b 96000000 		.4byte	.LVL296
 12654 148f 0100     		.2byte	0x1
 12655 1491 55       		.byte	0x55
 12656 1492 00000000 		.4byte	0
 12657 1496 00000000 		.4byte	0
 12658              	.LLST148:
 12659 149a D2000000 		.4byte	.LVL304
 12660 149e E2000000 		.4byte	.LVL305
 12661 14a2 0100     		.2byte	0x1
 12662 14a4 55       		.byte	0x55
 12663 14a5 00000000 		.4byte	0
 12664 14a9 00000000 		.4byte	0
 12665              	.LLST149:
 12666 14ad EC000000 		.4byte	.LVL308
 12667 14b1 F6000000 		.4byte	.LVL309
 12668 14b5 0200     		.2byte	0x2
 12669 14b7 40       		.byte	0x40
 12670 14b8 9F       		.byte	0x9f
 12671 14b9 00000000 		.4byte	0
 12672 14bd 00000000 		.4byte	0
 12673              	.LLST150:
 12674 14c1 EC000000 		.4byte	.LVL308
 12675 14c5 F6000000 		.4byte	.LVL309
 12676 14c9 0100     		.2byte	0x1
 12677 14cb 55       		.byte	0x55
 12678 14cc 00000000 		.4byte	0
 12679 14d0 00000000 		.4byte	0
 12680              	.LLST151:
 12681 14d4 A6000000 		.4byte	.LVL299
 12682 14d8 BA000000 		.4byte	.LVL300
 12683 14dc 0100     		.2byte	0x1
 12684 14de 55       		.byte	0x55
 12685 14df 00000000 		.4byte	0
 12686 14e3 00000000 		.4byte	0
 12687              	.LLST152:
 12688 14e7 00000000 		.4byte	.LVL311
 12689 14eb 13000000 		.4byte	.LVL314-1
 12690 14ef 0100     		.2byte	0x1
 12691 14f1 50       		.byte	0x50
 12692 14f2 13000000 		.4byte	.LVL314-1
 12693 14f6 20000000 		.4byte	.LFE272
 12694 14fa 0400     		.2byte	0x4
 12695 14fc F3       		.byte	0xf3
 12696 14fd 01       		.uleb128 0x1
 12697 14fe 50       		.byte	0x50
 12698 14ff 9F       		.byte	0x9f
 12699 1500 00000000 		.4byte	0
 12700 1504 00000000 		.4byte	0
 12701              	.LLST153:
 12702 1508 00000000 		.4byte	.LVL311
 12703 150c 10000000 		.4byte	.LVL313
 12704 1510 0100     		.2byte	0x1
 12705 1512 51       		.byte	0x51
 12706 1513 10000000 		.4byte	.LVL313
ARM GAS  /var/folders/m4/4md61f0s1_g0rzfghffqnxvr0000gn/T//cchEhHjd.s 			page 224


 12707 1517 13000000 		.4byte	.LVL314-1
 12708 151b 0200     		.2byte	0x2
 12709 151d 71       		.byte	0x71
 12710 151e 00       		.sleb128 0
 12711 151f 13000000 		.4byte	.LVL314-1
 12712 1523 20000000 		.4byte	.LFE272
 12713 1527 0200     		.2byte	0x2
 12714 1529 74       		.byte	0x74
 12715 152a 00       		.sleb128 0
 12716 152b 00000000 		.4byte	0
 12717 152f 00000000 		.4byte	0
 12718              	.LLST154:
 12719 1533 00000000 		.4byte	.LVL311
 12720 1537 0E000000 		.4byte	.LVL312
 12721 153b 0100     		.2byte	0x1
 12722 153d 52       		.byte	0x52
 12723 153e 0E000000 		.4byte	.LVL312
 12724 1542 13000000 		.4byte	.LVL314-1
 12725 1546 0100     		.2byte	0x1
 12726 1548 53       		.byte	0x53
 12727 1549 13000000 		.4byte	.LVL314-1
 12728 154d 20000000 		.4byte	.LFE272
 12729 1551 0400     		.2byte	0x4
 12730 1553 F3       		.byte	0xf3
 12731 1554 01       		.uleb128 0x1
 12732 1555 52       		.byte	0x52
 12733 1556 9F       		.byte	0x9f
 12734 1557 00000000 		.4byte	0
 12735 155b 00000000 		.4byte	0
 12736              	.LLST155:
 12737 155f 00000000 		.4byte	.LVL315
 12738 1563 15000000 		.4byte	.LVL318-1
 12739 1567 0100     		.2byte	0x1
 12740 1569 50       		.byte	0x50
 12741 156a 15000000 		.4byte	.LVL318-1
 12742 156e 22000000 		.4byte	.LFE276
 12743 1572 0400     		.2byte	0x4
 12744 1574 F3       		.byte	0xf3
 12745 1575 01       		.uleb128 0x1
 12746 1576 50       		.byte	0x50
 12747 1577 9F       		.byte	0x9f
 12748 1578 00000000 		.4byte	0
 12749 157c 00000000 		.4byte	0
 12750              	.LLST156:
 12751 1580 00000000 		.4byte	.LVL315
 12752 1584 12000000 		.4byte	.LVL317
 12753 1588 0100     		.2byte	0x1
 12754 158a 51       		.byte	0x51
 12755 158b 12000000 		.4byte	.LVL317
 12756 158f 15000000 		.4byte	.LVL318-1
 12757 1593 0200     		.2byte	0x2
 12758 1595 71       		.byte	0x71
 12759 1596 00       		.sleb128 0
 12760 1597 15000000 		.4byte	.LVL318-1
 12761 159b 22000000 		.4byte	.LFE276
 12762 159f 0400     		.2byte	0x4
 12763 15a1 F3       		.byte	0xf3
ARM GAS  /var/folders/m4/4md61f0s1_g0rzfghffqnxvr0000gn/T//cchEhHjd.s 			page 225


 12764 15a2 01       		.uleb128 0x1
 12765 15a3 51       		.byte	0x51
 12766 15a4 9F       		.byte	0x9f
 12767 15a5 00000000 		.4byte	0
 12768 15a9 00000000 		.4byte	0
 12769              	.LLST157:
 12770 15ad 0E000000 		.4byte	.LVL316
 12771 15b1 16000000 		.4byte	.LVL318
 12772 15b5 0300     		.2byte	0x3
 12773 15b7 09       		.byte	0x9
 12774 15b8 FF       		.byte	0xff
 12775 15b9 9F       		.byte	0x9f
 12776 15ba 00000000 		.4byte	0
 12777 15be 00000000 		.4byte	0
 12778              	.LLST158:
 12779 15c2 0E000000 		.4byte	.LVL316
 12780 15c6 16000000 		.4byte	.LVL318
 12781 15ca 0200     		.2byte	0x2
 12782 15cc 91       		.byte	0x91
 12783 15cd 77       		.sleb128 -9
 12784 15ce 00000000 		.4byte	0
 12785 15d2 00000000 		.4byte	0
 12786              	.LLST159:
 12787 15d6 00000000 		.4byte	.LVL315
 12788 15da 15000000 		.4byte	.LVL318-1
 12789 15de 0100     		.2byte	0x1
 12790 15e0 50       		.byte	0x50
 12791 15e1 15000000 		.4byte	.LVL318-1
 12792 15e5 16000000 		.4byte	.LVL318
 12793 15e9 0400     		.2byte	0x4
 12794 15eb F3       		.byte	0xf3
 12795 15ec 01       		.uleb128 0x1
 12796 15ed 50       		.byte	0x50
 12797 15ee 9F       		.byte	0x9f
 12798 15ef 00000000 		.4byte	0
 12799 15f3 00000000 		.4byte	0
 12800              	.LLST160:
 12801 15f7 00000000 		.4byte	.LVL319
 12802 15fb 07000000 		.4byte	.LVL320-1
 12803 15ff 0100     		.2byte	0x1
 12804 1601 50       		.byte	0x50
 12805 1602 07000000 		.4byte	.LVL320-1
 12806 1606 08000000 		.4byte	.LFE274
 12807 160a 0400     		.2byte	0x4
 12808 160c F3       		.byte	0xf3
 12809 160d 01       		.uleb128 0x1
 12810 160e 50       		.byte	0x50
 12811 160f 9F       		.byte	0x9f
 12812 1610 00000000 		.4byte	0
 12813 1614 00000000 		.4byte	0
 12814              	.LLST161:
 12815 1618 00000000 		.4byte	.LVL319
 12816 161c 07000000 		.4byte	.LVL320-1
 12817 1620 0100     		.2byte	0x1
 12818 1622 51       		.byte	0x51
 12819 1623 07000000 		.4byte	.LVL320-1
 12820 1627 08000000 		.4byte	.LFE274
ARM GAS  /var/folders/m4/4md61f0s1_g0rzfghffqnxvr0000gn/T//cchEhHjd.s 			page 226


 12821 162b 0400     		.2byte	0x4
 12822 162d F3       		.byte	0xf3
 12823 162e 01       		.uleb128 0x1
 12824 162f 51       		.byte	0x51
 12825 1630 9F       		.byte	0x9f
 12826 1631 00000000 		.4byte	0
 12827 1635 00000000 		.4byte	0
 12828              	.LLST162:
 12829 1639 00000000 		.4byte	.LVL319
 12830 163d 07000000 		.4byte	.LVL320-1
 12831 1641 0100     		.2byte	0x1
 12832 1643 52       		.byte	0x52
 12833 1644 07000000 		.4byte	.LVL320-1
 12834 1648 08000000 		.4byte	.LFE274
 12835 164c 0400     		.2byte	0x4
 12836 164e F3       		.byte	0xf3
 12837 164f 01       		.uleb128 0x1
 12838 1650 52       		.byte	0x52
 12839 1651 9F       		.byte	0x9f
 12840 1652 00000000 		.4byte	0
 12841 1656 00000000 		.4byte	0
 12842              	.LLST163:
 12843 165a 00000000 		.4byte	.LVL322
 12844 165e 0B000000 		.4byte	.LVL324-1
 12845 1662 0100     		.2byte	0x1
 12846 1664 50       		.byte	0x50
 12847 1665 0B000000 		.4byte	.LVL324-1
 12848 1669 1E000000 		.4byte	.LVL326
 12849 166d 0100     		.2byte	0x1
 12850 166f 55       		.byte	0x55
 12851 1670 1E000000 		.4byte	.LVL326
 12852 1674 21000000 		.4byte	.LVL327-1
 12853 1678 0100     		.2byte	0x1
 12854 167a 50       		.byte	0x50
 12855 167b 21000000 		.4byte	.LVL327-1
 12856 167f 22000000 		.4byte	.LFE307
 12857 1683 0400     		.2byte	0x4
 12858 1685 F3       		.byte	0xf3
 12859 1686 01       		.uleb128 0x1
 12860 1687 50       		.byte	0x50
 12861 1688 9F       		.byte	0x9f
 12862 1689 00000000 		.4byte	0
 12863 168d 00000000 		.4byte	0
 12864              	.LLST164:
 12865 1691 00000000 		.4byte	.LVL322
 12866 1695 06000000 		.4byte	.LVL323
 12867 1699 0100     		.2byte	0x1
 12868 169b 51       		.byte	0x51
 12869 169c 06000000 		.4byte	.LVL323
 12870 16a0 22000000 		.4byte	.LFE307
 12871 16a4 0400     		.2byte	0x4
 12872 16a6 F3       		.byte	0xf3
 12873 16a7 01       		.uleb128 0x1
 12874 16a8 51       		.byte	0x51
 12875 16a9 9F       		.byte	0x9f
 12876 16aa 00000000 		.4byte	0
 12877 16ae 00000000 		.4byte	0
ARM GAS  /var/folders/m4/4md61f0s1_g0rzfghffqnxvr0000gn/T//cchEhHjd.s 			page 227


 12878              	.LLST165:
 12879 16b2 0C000000 		.4byte	.LVL324
 12880 16b6 14000000 		.4byte	.LVL325
 12881 16ba 0100     		.2byte	0x1
 12882 16bc 50       		.byte	0x50
 12883 16bd 14000000 		.4byte	.LVL325
 12884 16c1 21000000 		.4byte	.LVL327-1
 12885 16c5 0100     		.2byte	0x1
 12886 16c7 52       		.byte	0x52
 12887 16c8 00000000 		.4byte	0
 12888 16cc 00000000 		.4byte	0
 12889              	.LLST166:
 12890 16d0 00000000 		.4byte	.LVL328
 12891 16d4 0E000000 		.4byte	.LVL330
 12892 16d8 0100     		.2byte	0x1
 12893 16da 50       		.byte	0x50
 12894 16db 0E000000 		.4byte	.LVL330
 12895 16df 11000000 		.4byte	.LVL331-1
 12896 16e3 0400     		.2byte	0x4
 12897 16e5 70       		.byte	0x70
 12898 16e6 E07D     		.sleb128 -288
 12899 16e8 9F       		.byte	0x9f
 12900 16e9 11000000 		.4byte	.LVL331-1
 12901 16ed 1A000000 		.4byte	.LFE308
 12902 16f1 0400     		.2byte	0x4
 12903 16f3 F3       		.byte	0xf3
 12904 16f4 01       		.uleb128 0x1
 12905 16f5 50       		.byte	0x50
 12906 16f6 9F       		.byte	0x9f
 12907 16f7 00000000 		.4byte	0
 12908 16fb 00000000 		.4byte	0
 12909              	.LLST167:
 12910 16ff 00000000 		.4byte	.LVL328
 12911 1703 08000000 		.4byte	.LVL329
 12912 1707 0300     		.2byte	0x3
 12913 1709 08       		.byte	0x8
 12914 170a 20       		.byte	0x20
 12915 170b 9F       		.byte	0x9f
 12916 170c 00000000 		.4byte	0
 12917 1710 00000000 		.4byte	0
 12918              	.LLST168:
 12919 1714 12000000 		.4byte	.LVL331
 12920 1718 18000000 		.4byte	.LVL332
 12921 171c 0200     		.2byte	0x2
 12922 171e 30       		.byte	0x30
 12923 171f 9F       		.byte	0x9f
 12924 1720 00000000 		.4byte	0
 12925 1724 00000000 		.4byte	0
 12926              		.section	.debug_aranges,"",%progbits
 12927 0000 6C010000 		.4byte	0x16c
 12928 0004 0200     		.2byte	0x2
 12929 0006 00000000 		.4byte	.Ldebug_info0
 12930 000a 04       		.byte	0x4
 12931 000b 00       		.byte	0
 12932 000c 0000     		.2byte	0
 12933 000e 0000     		.2byte	0
 12934 0010 00000000 		.4byte	.LFB268
ARM GAS  /var/folders/m4/4md61f0s1_g0rzfghffqnxvr0000gn/T//cchEhHjd.s 			page 228


 12935 0014 1C000000 		.4byte	.LFE268-.LFB268
 12936 0018 00000000 		.4byte	.LFB311
 12937 001c 56000000 		.4byte	.LFE311-.LFB311
 12938 0020 00000000 		.4byte	.LFB312
 12939 0024 46000000 		.4byte	.LFE312-.LFB312
 12940 0028 00000000 		.4byte	.LFB278
 12941 002c 34000000 		.4byte	.LFE278-.LFB278
 12942 0030 00000000 		.4byte	.LFB279
 12943 0034 06000000 		.4byte	.LFE279-.LFB279
 12944 0038 00000000 		.4byte	.LFB280
 12945 003c 3C000000 		.4byte	.LFE280-.LFB280
 12946 0040 00000000 		.4byte	.LFB281
 12947 0044 48000000 		.4byte	.LFE281-.LFB281
 12948 0048 00000000 		.4byte	.LFB282
 12949 004c 4A000000 		.4byte	.LFE282-.LFB282
 12950 0050 00000000 		.4byte	.LFB283
 12951 0054 46000000 		.4byte	.LFE283-.LFB283
 12952 0058 00000000 		.4byte	.LFB284
 12953 005c 3C000000 		.4byte	.LFE284-.LFB284
 12954 0060 00000000 		.4byte	.LFB285
 12955 0064 1C000000 		.4byte	.LFE285-.LFB285
 12956 0068 00000000 		.4byte	.LFB286
 12957 006c 1A000000 		.4byte	.LFE286-.LFB286
 12958 0070 00000000 		.4byte	.LFB287
 12959 0074 10000000 		.4byte	.LFE287-.LFB287
 12960 0078 00000000 		.4byte	.LFB288
 12961 007c 0A000000 		.4byte	.LFE288-.LFB288
 12962 0080 00000000 		.4byte	.LFB289
 12963 0084 0A000000 		.4byte	.LFE289-.LFB289
 12964 0088 00000000 		.4byte	.LFB290
 12965 008c 40000000 		.4byte	.LFE290-.LFB290
 12966 0090 00000000 		.4byte	.LFB291
 12967 0094 1C000000 		.4byte	.LFE291-.LFB291
 12968 0098 00000000 		.4byte	.LFB292
 12969 009c 12000000 		.4byte	.LFE292-.LFB292
 12970 00a0 00000000 		.4byte	.LFB293
 12971 00a4 06000000 		.4byte	.LFE293-.LFB293
 12972 00a8 00000000 		.4byte	.LFB295
 12973 00ac 22000000 		.4byte	.LFE295-.LFB295
 12974 00b0 00000000 		.4byte	.LFB296
 12975 00b4 1A000000 		.4byte	.LFE296-.LFB296
 12976 00b8 00000000 		.4byte	.LFB297
 12977 00bc 22000000 		.4byte	.LFE297-.LFB297
 12978 00c0 00000000 		.4byte	.LFB298
 12979 00c4 0A000000 		.4byte	.LFE298-.LFB298
 12980 00c8 00000000 		.4byte	.LFB299
 12981 00cc 0A000000 		.4byte	.LFE299-.LFB299
 12982 00d0 00000000 		.4byte	.LFB300
 12983 00d4 38000000 		.4byte	.LFE300-.LFB300
 12984 00d8 00000000 		.4byte	.LFB294
 12985 00dc 40000000 		.4byte	.LFE294-.LFB294
 12986 00e0 00000000 		.4byte	.LFB301
 12987 00e4 34000000 		.4byte	.LFE301-.LFB301
 12988 00e8 00000000 		.4byte	.LFB302
 12989 00ec 34000000 		.4byte	.LFE302-.LFB302
 12990 00f0 00000000 		.4byte	.LFB269
 12991 00f4 F0000000 		.4byte	.LFE269-.LFB269
ARM GAS  /var/folders/m4/4md61f0s1_g0rzfghffqnxvr0000gn/T//cchEhHjd.s 			page 229


 12992 00f8 00000000 		.4byte	.LFB303
 12993 00fc 46000000 		.4byte	.LFE303-.LFB303
 12994 0100 00000000 		.4byte	.LFB304
 12995 0104 3A000000 		.4byte	.LFE304-.LFB304
 12996 0108 00000000 		.4byte	.LFB271
 12997 010c 32020000 		.4byte	.LFE271-.LFB271
 12998 0110 00000000 		.4byte	.LFB273
 12999 0114 54000000 		.4byte	.LFE273-.LFB273
 13000 0118 00000000 		.4byte	.LFB277
 13001 011c 08000000 		.4byte	.LFE277-.LFB277
 13002 0120 00000000 		.4byte	.LFB275
 13003 0124 08000000 		.4byte	.LFE275-.LFB275
 13004 0128 00000000 		.4byte	.LFB305
 13005 012c 38000000 		.4byte	.LFE305-.LFB305
 13006 0130 00000000 		.4byte	.LFB270
 13007 0134 FE000000 		.4byte	.LFE270-.LFB270
 13008 0138 00000000 		.4byte	.LFB272
 13009 013c 20000000 		.4byte	.LFE272-.LFB272
 13010 0140 00000000 		.4byte	.LFB276
 13011 0144 22000000 		.4byte	.LFE276-.LFB276
 13012 0148 00000000 		.4byte	.LFB274
 13013 014c 08000000 		.4byte	.LFE274-.LFB274
 13014 0150 00000000 		.4byte	.LFB306
 13015 0154 12000000 		.4byte	.LFE306-.LFB306
 13016 0158 00000000 		.4byte	.LFB307
 13017 015c 22000000 		.4byte	.LFE307-.LFB307
 13018 0160 00000000 		.4byte	.LFB308
 13019 0164 1A000000 		.4byte	.LFE308-.LFB308
 13020 0168 00000000 		.4byte	0
 13021 016c 00000000 		.4byte	0
 13022              		.section	.debug_ranges,"",%progbits
 13023              	.Ldebug_ranges0:
 13024 0000 1C000000 		.4byte	.LBB136
 13025 0004 26000000 		.4byte	.LBE136
 13026 0008 2A000000 		.4byte	.LBB139
 13027 000c 2E000000 		.4byte	.LBE139
 13028 0010 00000000 		.4byte	0
 13029 0014 00000000 		.4byte	0
 13030 0018 40000000 		.4byte	.LBB158
 13031 001c 64000000 		.4byte	.LBE158
 13032 0020 66000000 		.4byte	.LBB169
 13033 0024 6A000000 		.4byte	.LBE169
 13034 0028 00000000 		.4byte	0
 13035 002c 00000000 		.4byte	0
 13036 0030 60000000 		.4byte	.LBB162
 13037 0034 64000000 		.4byte	.LBE162
 13038 0038 66000000 		.4byte	.LBB165
 13039 003c 6A000000 		.4byte	.LBE165
 13040 0040 00000000 		.4byte	0
 13041 0044 00000000 		.4byte	0
 13042 0048 64000000 		.4byte	.LBB166
 13043 004c 66000000 		.4byte	.LBE166
 13044 0050 6E000000 		.4byte	.LBB170
 13045 0054 72000000 		.4byte	.LBE170
 13046 0058 00000000 		.4byte	0
 13047 005c 00000000 		.4byte	0
 13048 0060 50000000 		.4byte	.LBB179
ARM GAS  /var/folders/m4/4md61f0s1_g0rzfghffqnxvr0000gn/T//cchEhHjd.s 			page 230


 13049 0064 82000000 		.4byte	.LBE179
 13050 0068 84000000 		.4byte	.LBB232
 13051 006c 88000000 		.4byte	.LBE232
 13052 0070 B2000000 		.4byte	.LBB239
 13053 0074 B0010000 		.4byte	.LBE239
 13054 0078 BC010000 		.4byte	.LBB240
 13055 007c FE010000 		.4byte	.LBE240
 13056 0080 00020000 		.4byte	.LBB241
 13057 0084 02020000 		.4byte	.LBE241
 13058 0088 08020000 		.4byte	.LBB242
 13059 008c 32020000 		.4byte	.LBE242
 13060 0090 00000000 		.4byte	0
 13061 0094 00000000 		.4byte	0
 13062 0098 52000000 		.4byte	.LBB181
 13063 009c 82000000 		.4byte	.LBE181
 13064 00a0 84000000 		.4byte	.LBB184
 13065 00a4 88000000 		.4byte	.LBE184
 13066 00a8 00000000 		.4byte	0
 13067 00ac 00000000 		.4byte	0
 13068 00b0 62000000 		.4byte	.LBB182
 13069 00b4 74000000 		.4byte	.LBE182
 13070 00b8 78000000 		.4byte	.LBB183
 13071 00bc 7A000000 		.4byte	.LBE183
 13072 00c0 00000000 		.4byte	0
 13073 00c4 00000000 		.4byte	0
 13074 00c8 BE000000 		.4byte	.LBB189
 13075 00cc 18010000 		.4byte	.LBE189
 13076 00d0 3E010000 		.4byte	.LBB220
 13077 00d4 B0010000 		.4byte	.LBE220
 13078 00d8 BC010000 		.4byte	.LBB221
 13079 00dc E8010000 		.4byte	.LBE221
 13080 00e0 08020000 		.4byte	.LBB222
 13081 00e4 32020000 		.4byte	.LBE222
 13082 00e8 00000000 		.4byte	0
 13083 00ec 00000000 		.4byte	0
 13084 00f0 F0000000 		.4byte	.LBB193
 13085 00f4 F6000000 		.4byte	.LBE193
 13086 00f8 8C010000 		.4byte	.LBB202
 13087 00fc A0010000 		.4byte	.LBE202
 13088 0100 00000000 		.4byte	0
 13089 0104 00000000 		.4byte	0
 13090 0108 6A010000 		.4byte	.LBB198
 13091 010c 70010000 		.4byte	.LBE198
 13092 0110 D8010000 		.4byte	.LBB201
 13093 0114 E8010000 		.4byte	.LBE201
 13094 0118 00000000 		.4byte	0
 13095 011c 00000000 		.4byte	0
 13096 0120 A6010000 		.4byte	.LBB207
 13097 0124 AA010000 		.4byte	.LBE207
 13098 0128 20020000 		.4byte	.LBB215
 13099 012c 32020000 		.4byte	.LBE215
 13100 0130 00000000 		.4byte	0
 13101 0134 00000000 		.4byte	0
 13102 0138 BC010000 		.4byte	.LBB210
 13103 013c C0010000 		.4byte	.LBE210
 13104 0140 0C020000 		.4byte	.LBB214
 13105 0144 20020000 		.4byte	.LBE214
ARM GAS  /var/folders/m4/4md61f0s1_g0rzfghffqnxvr0000gn/T//cchEhHjd.s 			page 231


 13106 0148 00000000 		.4byte	0
 13107 014c 00000000 		.4byte	0
 13108 0150 F0010000 		.4byte	.LBB227
 13109 0154 FE010000 		.4byte	.LBE227
 13110 0158 00020000 		.4byte	.LBB230
 13111 015c 02020000 		.4byte	.LBE230
 13112 0160 00000000 		.4byte	0
 13113 0164 00000000 		.4byte	0
 13114 0168 92000000 		.4byte	.LBB233
 13115 016c 96000000 		.4byte	.LBE233
 13116 0170 98000000 		.4byte	.LBB237
 13117 0174 A2000000 		.4byte	.LBE237
 13118 0178 A4000000 		.4byte	.LBB238
 13119 017c A6000000 		.4byte	.LBE238
 13120 0180 00000000 		.4byte	0
 13121 0184 00000000 		.4byte	0
 13122 0188 38000000 		.4byte	.LBB255
 13123 018c 48000000 		.4byte	.LBE255
 13124 0190 4C000000 		.4byte	.LBB260
 13125 0194 50000000 		.4byte	.LBE260
 13126 0198 00000000 		.4byte	0
 13127 019c 00000000 		.4byte	0
 13128 01a0 50000000 		.4byte	.LBB263
 13129 01a4 56000000 		.4byte	.LBE263
 13130 01a8 5C000000 		.4byte	.LBB272
 13131 01ac 96000000 		.4byte	.LBE272
 13132 01b0 CA000000 		.4byte	.LBB277
 13133 01b4 FE000000 		.4byte	.LBE277
 13134 01b8 00000000 		.4byte	0
 13135 01bc 00000000 		.4byte	0
 13136 01c0 A6000000 		.4byte	.LBB273
 13137 01c4 B4000000 		.4byte	.LBE273
 13138 01c8 B8000000 		.4byte	.LBB276
 13139 01cc BA000000 		.4byte	.LBE276
 13140 01d0 00000000 		.4byte	0
 13141 01d4 00000000 		.4byte	0
 13142 01d8 00000000 		.4byte	.LFB268
 13143 01dc 1C000000 		.4byte	.LFE268
 13144 01e0 00000000 		.4byte	.LFB311
 13145 01e4 56000000 		.4byte	.LFE311
 13146 01e8 00000000 		.4byte	.LFB312
 13147 01ec 46000000 		.4byte	.LFE312
 13148 01f0 00000000 		.4byte	.LFB278
 13149 01f4 34000000 		.4byte	.LFE278
 13150 01f8 00000000 		.4byte	.LFB279
 13151 01fc 06000000 		.4byte	.LFE279
 13152 0200 00000000 		.4byte	.LFB280
 13153 0204 3C000000 		.4byte	.LFE280
 13154 0208 00000000 		.4byte	.LFB281
 13155 020c 48000000 		.4byte	.LFE281
 13156 0210 00000000 		.4byte	.LFB282
 13157 0214 4A000000 		.4byte	.LFE282
 13158 0218 00000000 		.4byte	.LFB283
 13159 021c 46000000 		.4byte	.LFE283
 13160 0220 00000000 		.4byte	.LFB284
 13161 0224 3C000000 		.4byte	.LFE284
 13162 0228 00000000 		.4byte	.LFB285
ARM GAS  /var/folders/m4/4md61f0s1_g0rzfghffqnxvr0000gn/T//cchEhHjd.s 			page 232


 13163 022c 1C000000 		.4byte	.LFE285
 13164 0230 00000000 		.4byte	.LFB286
 13165 0234 1A000000 		.4byte	.LFE286
 13166 0238 00000000 		.4byte	.LFB287
 13167 023c 10000000 		.4byte	.LFE287
 13168 0240 00000000 		.4byte	.LFB288
 13169 0244 0A000000 		.4byte	.LFE288
 13170 0248 00000000 		.4byte	.LFB289
 13171 024c 0A000000 		.4byte	.LFE289
 13172 0250 00000000 		.4byte	.LFB290
 13173 0254 40000000 		.4byte	.LFE290
 13174 0258 00000000 		.4byte	.LFB291
 13175 025c 1C000000 		.4byte	.LFE291
 13176 0260 00000000 		.4byte	.LFB292
 13177 0264 12000000 		.4byte	.LFE292
 13178 0268 00000000 		.4byte	.LFB293
 13179 026c 06000000 		.4byte	.LFE293
 13180 0270 00000000 		.4byte	.LFB295
 13181 0274 22000000 		.4byte	.LFE295
 13182 0278 00000000 		.4byte	.LFB296
 13183 027c 1A000000 		.4byte	.LFE296
 13184 0280 00000000 		.4byte	.LFB297
 13185 0284 22000000 		.4byte	.LFE297
 13186 0288 00000000 		.4byte	.LFB298
 13187 028c 0A000000 		.4byte	.LFE298
 13188 0290 00000000 		.4byte	.LFB299
 13189 0294 0A000000 		.4byte	.LFE299
 13190 0298 00000000 		.4byte	.LFB300
 13191 029c 38000000 		.4byte	.LFE300
 13192 02a0 00000000 		.4byte	.LFB294
 13193 02a4 40000000 		.4byte	.LFE294
 13194 02a8 00000000 		.4byte	.LFB301
 13195 02ac 34000000 		.4byte	.LFE301
 13196 02b0 00000000 		.4byte	.LFB302
 13197 02b4 34000000 		.4byte	.LFE302
 13198 02b8 00000000 		.4byte	.LFB269
 13199 02bc F0000000 		.4byte	.LFE269
 13200 02c0 00000000 		.4byte	.LFB303
 13201 02c4 46000000 		.4byte	.LFE303
 13202 02c8 00000000 		.4byte	.LFB304
 13203 02cc 3A000000 		.4byte	.LFE304
 13204 02d0 00000000 		.4byte	.LFB271
 13205 02d4 32020000 		.4byte	.LFE271
 13206 02d8 00000000 		.4byte	.LFB273
 13207 02dc 54000000 		.4byte	.LFE273
 13208 02e0 00000000 		.4byte	.LFB277
 13209 02e4 08000000 		.4byte	.LFE277
 13210 02e8 00000000 		.4byte	.LFB275
 13211 02ec 08000000 		.4byte	.LFE275
 13212 02f0 00000000 		.4byte	.LFB305
 13213 02f4 38000000 		.4byte	.LFE305
 13214 02f8 00000000 		.4byte	.LFB270
 13215 02fc FE000000 		.4byte	.LFE270
 13216 0300 00000000 		.4byte	.LFB272
 13217 0304 20000000 		.4byte	.LFE272
 13218 0308 00000000 		.4byte	.LFB276
 13219 030c 22000000 		.4byte	.LFE276
ARM GAS  /var/folders/m4/4md61f0s1_g0rzfghffqnxvr0000gn/T//cchEhHjd.s 			page 233


 13220 0310 00000000 		.4byte	.LFB274
 13221 0314 08000000 		.4byte	.LFE274
 13222 0318 00000000 		.4byte	.LFB306
 13223 031c 12000000 		.4byte	.LFE306
 13224 0320 00000000 		.4byte	.LFB307
 13225 0324 22000000 		.4byte	.LFE307
 13226 0328 00000000 		.4byte	.LFB308
 13227 032c 1A000000 		.4byte	.LFE308
 13228 0330 00000000 		.4byte	0
 13229 0334 00000000 		.4byte	0
 13230              		.section	.debug_line,"",%progbits
 13231              	.Ldebug_line0:
 13232 0000 EF090000 		.section	.debug_str,"MS",%progbits,1
 13232      02006504 
 13232      00000201 
 13232      FB0E0D00 
 13232      01010101 
 13233              	.LASF94:
 13234 0000 4D314152 		.ascii	"M1AR\000"
 13234      00
 13235              	.LASF145:
 13236 0005 73746D33 		.ascii	"stm32_dma_stream_t\000"
 13236      325F646D 
 13236      615F7374 
 13236      7265616D 
 13236      5F7400
 13237              	.LASF4:
 13238 0018 73697A65 		.ascii	"size_t\000"
 13238      5F7400
 13239              	.LASF322:
 13240 001f 73706953 		.ascii	"spiStart\000"
 13240      74617274 
 13240      00
 13241              	.LASF91:
 13242 0028 73697A65 		.ascii	"sizetype\000"
 13242      74797065 
 13242      00
 13243              	.LASF230:
 13244 0031 6E726632 		.ascii	"nrf24l01ReadPayload\000"
 13244      346C3031 
 13244      52656164 
 13244      5061796C 
 13244      6F616400 
 13245              	.LASF35:
 13246 0045 77747365 		.ascii	"wtsemp\000"
 13246      6D7000
 13247              	.LASF29:
 13248 004c 73797374 		.ascii	"systime_t\000"
 13248      696D655F 
 13248      7400
 13249              	.LASF41:
 13250 0056 705F6374 		.ascii	"p_ctx\000"
 13250      7800
 13251              	.LASF24:
 13252 005c 74707269 		.ascii	"tprio_t\000"
 13252      6F5F7400 
 13253              	.LASF111:
ARM GAS  /var/folders/m4/4md61f0s1_g0rzfghffqnxvr0000gn/T//cchEhHjd.s 			page 234


 13254 0064 31314572 		.ascii	"11ErrorStatus\000"
 13254      726F7253 
 13254      74617475 
 13254      7300
 13255              	.LASF261:
 13256 0072 6E726632 		.ascii	"nrf24l01GetStatus\000"
 13256      346C3031 
 13256      47657453 
 13256      74617475 
 13256      7300
 13257              	.LASF51:
 13258 0084 705F6D73 		.ascii	"p_msgqueue\000"
 13258      67717565 
 13258      756500
 13259              	.LASF67:
 13260 008f 725F6374 		.ascii	"r_ctx\000"
 13260      7800
 13261              	.LASF211:
 13262 0095 72784275 		.ascii	"rxBuf\000"
 13262      6600
 13263              	.LASF17:
 13264 009b 696E7433 		.ascii	"int32_t\000"
 13264      325F7400 
 13265              	.LASF207:
 13266 00a3 77726974 		.ascii	"writet\000"
 13266      657400
 13267              	.LASF227:
 13268 00aa 5F5A3230 		.ascii	"_Z20nrf24l01SetRXAddressP14NRF24L01DriverhPKh\000"
 13268      6E726632 
 13268      346C3031 
 13268      53657452 
 13268      58416464 
 13269              	.LASF71:
 13270 00d8 76746675 		.ascii	"vtfunc_t\000"
 13270      6E635F74 
 13270      00
 13271              	.LASF80:
 13272 00e1 63685F76 		.ascii	"ch_virtual_timers_list\000"
 13272      69727475 
 13272      616C5F74 
 13272      696D6572 
 13272      735F6C69 
 13273              	.LASF194:
 13274 00f8 7373706F 		.ascii	"ssport\000"
 13274      727400
 13275              	.LASF214:
 13276 00ff 4E524632 		.ascii	"NRF24L01Driver\000"
 13276      344C3031 
 13276      44726976 
 13276      657200
 13277              	.LASF246:
 13278 010e 696E7374 		.ascii	"instance\000"
 13278      616E6365 
 13278      00
 13279              	.LASF203:
 13280 0117 77726974 		.ascii	"write\000"
 13280      6500
ARM GAS  /var/folders/m4/4md61f0s1_g0rzfghffqnxvr0000gn/T//cchEhHjd.s 			page 235


 13281              	.LASF294:
 13282 011d 5F5A3135 		.ascii	"_Z15nrf24l01GetSizeP14NRF24L01Driver\000"
 13282      6E726632 
 13282      346C3031 
 13282      47657453 
 13282      697A6550 
 13283              	.LASF134:
 13284 0142 656C5F66 		.ascii	"el_flags\000"
 13284      6C616773 
 13284      00
 13285              	.LASF168:
 13286 014b 636F6E66 		.ascii	"config\000"
 13286      696700
 13287              	.LASF167:
 13288 0152 73746174 		.ascii	"state\000"
 13288      6500
 13289              	.LASF205:
 13290 0158 70757474 		.ascii	"putt\000"
 13290      00
 13291              	.LASF310:
 13292 015d 53504944 		.ascii	"SPID1\000"
 13292      3100
 13293              	.LASF284:
 13294 0163 6E726632 		.ascii	"nrf24l01ToggleFeatures\000"
 13294      346C3031 
 13294      546F6767 
 13294      6C654665 
 13294      61747572 
 13295              	.LASF173:
 13296 017a 45585443 		.ascii	"EXTChannelConfig\000"
 13296      68616E6E 
 13296      656C436F 
 13296      6E666967 
 13296      00
 13297              	.LASF270:
 13298 018b 64656C61 		.ascii	"delay\000"
 13298      7900
 13299              	.LASF321:
 13300 0191 5F70616C 		.ascii	"_pal_lld_setgroupmode\000"
 13300      5F6C6C64 
 13300      5F736574 
 13300      67726F75 
 13300      706D6F64 
 13301              	.LASF271:
 13302 01a7 636F756E 		.ascii	"count\000"
 13302      7400
 13303              	.LASF125:
 13304 01ad 6D5F6F77 		.ascii	"m_owner\000"
 13304      6E657200 
 13305              	.LASF78:
 13306 01b5 76745F70 		.ascii	"vt_par\000"
 13306      617200
 13307              	.LASF193:
 13308 01bc 656E645F 		.ascii	"end_cb\000"
 13308      636200
 13309              	.LASF32:
 13310 01c3 65786974 		.ascii	"exitcode\000"
ARM GAS  /var/folders/m4/4md61f0s1_g0rzfghffqnxvr0000gn/T//cchEhHjd.s 			page 236


 13310      636F6465 
 13310      00
 13311              	.LASF101:
 13312 01cc 49325343 		.ascii	"I2SCFGR\000"
 13312      46475200 
 13313              	.LASF5:
 13314 01d4 5F5F7569 		.ascii	"__uint8_t\000"
 13314      6E74385F 
 13314      7400
 13315              	.LASF252:
 13316 01de 65787470 		.ascii	"extp\000"
 13316      00
 13317              	.LASF330:
 13318 01e3 6E726632 		.ascii	"nrf24l01.cpp\000"
 13318      346C3031 
 13318      2E637070 
 13318      00
 13319              	.LASF226:
 13320 01f0 6E726632 		.ascii	"nrf24l01SetPayloadSize\000"
 13320      346C3031 
 13320      53657450 
 13320      61796C6F 
 13320      61645369 
 13321              	.LASF153:
 13322 0207 50555044 		.ascii	"PUPDR\000"
 13322      5200
 13323              	.LASF208:
 13324 020d 72656164 		.ascii	"readt\000"
 13324      7400
 13325              	.LASF97:
 13326 0213 31315350 		.ascii	"11SPI_TypeDef\000"
 13326      495F5479 
 13326      70654465 
 13326      6600
 13327              	.LASF174:
 13328 0221 39455854 		.ascii	"9EXTConfig\000"
 13328      436F6E66 
 13328      696700
 13329              	.LASF42:
 13330 022c 705F6E65 		.ascii	"p_newer\000"
 13330      77657200 
 13331              	.LASF179:
 13332 0234 5350495F 		.ascii	"SPI_STOP\000"
 13332      53544F50 
 13332      00
 13333              	.LASF11:
 13334 023d 6C6F6E67 		.ascii	"long int\000"
 13334      20696E74 
 13334      00
 13335              	.LASF178:
 13336 0246 5350495F 		.ascii	"SPI_UNINIT\000"
 13336      554E494E 
 13336      495400
 13337              	.LASF38:
 13338 0251 705F6E65 		.ascii	"p_next\000"
 13338      787400
 13339              	.LASF217:
ARM GAS  /var/folders/m4/4md61f0s1_g0rzfghffqnxvr0000gn/T//cchEhHjd.s 			page 237


 13340 0258 706F7274 		.ascii	"port_unlock\000"
 13340      5F756E6C 
 13340      6F636B00 
 13341              	.LASF39:
 13342 0264 705F7072 		.ascii	"p_prev\000"
 13342      657600
 13343              	.LASF249:
 13344 026b 63685379 		.ascii	"chSysLockFromISR\000"
 13344      734C6F63 
 13344      6B46726F 
 13344      6D495352 
 13344      00
 13345              	.LASF300:
 13346 027c 7061636B 		.ascii	"packetSize\000"
 13346      65745369 
 13346      7A6500
 13347              	.LASF160:
 13348 0287 696F706F 		.ascii	"ioportid_t\000"
 13348      72746964 
 13348      5F7400
 13349              	.LASF21:
 13350 0292 74737461 		.ascii	"tstate_t\000"
 13350      74655F74 
 13350      00
 13351              	.LASF61:
 13352 029b 74687265 		.ascii	"threads_queue_t\000"
 13352      6164735F 
 13352      71756575 
 13352      655F7400 
 13353              	.LASF54:
 13354 02ab 705F6D74 		.ascii	"p_mtxlist\000"
 13354      786C6973 
 13354      7400
 13355              	.LASF115:
 13356 02b5 72656761 		.ascii	"regarm_t\000"
 13356      726D5F74 
 13356      00
 13357              	.LASF106:
 13358 02be 3130466C 		.ascii	"10FlagStatus\000"
 13358      61675374 
 13358      61747573 
 13358      00
 13359              	.LASF240:
 13360 02cb 6E726632 		.ascii	"nrf24l01ObjectInit\000"
 13360      346C3031 
 13360      4F626A65 
 13360      6374496E 
 13360      697400
 13361              	.LASF279:
 13362 02de 70697065 		.ascii	"pipes\000"
 13362      7300
 13363              	.LASF165:
 13364 02e4 65787473 		.ascii	"extstate_t\000"
 13364      74617465 
 13364      5F7400
 13365              	.LASF3:
 13366 02ef 7369676E 		.ascii	"signed char\000"
ARM GAS  /var/folders/m4/4md61f0s1_g0rzfghffqnxvr0000gn/T//cchEhHjd.s 			page 238


 13366      65642063 
 13366      68617200 
 13367              	.LASF37:
 13368 02fb 65776D61 		.ascii	"ewmask\000"
 13368      736B00
 13369              	.LASF15:
 13370 0302 75696E74 		.ascii	"uint8_t\000"
 13370      385F7400 
 13371              	.LASF323:
 13372 030a 65787453 		.ascii	"extStart\000"
 13372      74617274 
 13372      00
 13373              	.LASF26:
 13374 0313 6576656E 		.ascii	"eventmask_t\000"
 13374      746D6173 
 13374      6B5F7400 
 13375              	.LASF116:
 13376 031f 636F6E74 		.ascii	"context\000"
 13376      65787400 
 13377              	.LASF34:
 13378 0327 77747472 		.ascii	"wttrp\000"
 13378      7000
 13379              	.LASF248:
 13380 032d 63685379 		.ascii	"chSysUnlockFromISR\000"
 13380      73556E6C 
 13380      6F636B46 
 13380      726F6D49 
 13380      535200
 13381              	.LASF6:
 13382 0340 756E7369 		.ascii	"unsigned char\000"
 13382      676E6564 
 13382      20636861 
 13382      7200
 13383              	.LASF158:
 13384 034e 73746D33 		.ascii	"stm32_gpio_t\000"
 13384      325F6770 
 13384      696F5F74 
 13384      00
 13385              	.LASF191:
 13386 035b 73706963 		.ascii	"spicallback_t\000"
 13386      616C6C62 
 13386      61636B5F 
 13386      7400
 13387              	.LASF84:
 13388 0369 70616E69 		.ascii	"panic_msg\000"
 13388      635F6D73 
 13388      6700
 13389              	.LASF250:
 13390 0373 6E726632 		.ascii	"nrf24l01ExtIRQ\000"
 13390      346C3031 
 13390      45787449 
 13390      525100
 13391              	.LASF107:
 13392 0382 31354675 		.ascii	"15FunctionalState\000"
 13392      6E637469 
 13392      6F6E616C 
 13392      53746174 
ARM GAS  /var/folders/m4/4md61f0s1_g0rzfghffqnxvr0000gn/T//cchEhHjd.s 			page 239


 13392      6500
 13393              	.LASF68:
 13394 0394 725F6E65 		.ascii	"r_newer\000"
 13394      77657200 
 13395              	.LASF82:
 13396 039c 73797374 		.ascii	"system_debug_t\000"
 13396      656D5F64 
 13396      65627567 
 13396      5F7400
 13397              	.LASF239:
 13398 03ab 5F5A3133 		.ascii	"_Z13nrf24l01StartP14NRF24L01DriverPK14NRF24L01Confi"
 13398      6E726632 
 13398      346C3031 
 13398      53746172 
 13398      74503134 
 13399 03de 6700     		.ascii	"g\000"
 13400              	.LASF329:
 13401 03e0 474E5520 		.ascii	"GNU C++11 5.2.1 20151202 (release) [ARM/embedded-5-"
 13401      432B2B31 
 13401      3120352E 
 13401      322E3120 
 13401      32303135 
 13402 0413 6272616E 		.ascii	"branch revision 231848] -mcpu=cortex-m4 -mfloat-abi"
 13402      63682072 
 13402      65766973 
 13402      696F6E20 
 13402      32333138 
 13403 0446 3D686172 		.ascii	"=hard -mfpu=fpv4-sp-d16 -mno-thumb-interwork -mthum"
 13403      64202D6D 
 13403      6670753D 
 13403      66707634 
 13403      2D73702D 
 13404 0479 62202D67 		.ascii	"b -ggdb -O2 -std=c++11 -fomit-frame-pointer -falign"
 13404      67646220 
 13404      2D4F3220 
 13404      2D737464 
 13404      3D632B2B 
 13405 04ac 2D66756E 		.ascii	"-functions=16 -ffunction-sections -fdata-sections -"
 13405      6374696F 
 13405      6E733D31 
 13405      36202D66 
 13405      66756E63 
 13406 04df 666E6F2D 		.ascii	"fno-common -fno-rtti -fno-exceptions\000"
 13406      636F6D6D 
 13406      6F6E202D 
 13406      666E6F2D 
 13406      72747469 
 13407              	.LASF148:
 13408 0504 31327374 		.ascii	"12stm32_gpio_t\000"
 13408      6D33325F 
 13408      6770696F 
 13408      5F7400
 13409              	.LASF222:
 13410 0513 76616C75 		.ascii	"value\000"
 13410      6500
 13411              	.LASF324:
 13412 0519 65787443 		.ascii	"extChannelEnable\000"
ARM GAS  /var/folders/m4/4md61f0s1_g0rzfghffqnxvr0000gn/T//cchEhHjd.s 			page 240


 13412      68616E6E 
 13412      656C456E 
 13412      61626C65 
 13412      00
 13413              	.LASF127:
 13414 052a 63686172 		.ascii	"char\000"
 13414      00
 13415              	.LASF221:
 13416 052f 63684576 		.ascii	"chEvtObjectInit\000"
 13416      744F626A 
 13416      65637449 
 13416      6E697400 
 13417              	.LASF142:
 13418 053f 69736869 		.ascii	"ishift\000"
 13418      667400
 13419              	.LASF40:
 13420 0546 705F7072 		.ascii	"p_prio\000"
 13420      696F00
 13421              	.LASF184:
 13422 054d 53504944 		.ascii	"SPIDriver\000"
 13422      72697665 
 13422      7200
 13423              	.LASF8:
 13424 0557 5F5F7569 		.ascii	"__uint16_t\000"
 13424      6E743136 
 13424      5F7400
 13425              	.LASF33:
 13426 0562 77746F62 		.ascii	"wtobjp\000"
 13426      6A7000
 13427              	.LASF332:
 13428 0569 6465636C 		.ascii	"decltype(nullptr)\000"
 13428      74797065 
 13428      286E756C 
 13428      6C707472 
 13428      2900
 13429              	.LASF288:
 13430 057b 6E726632 		.ascii	"nrf24l01FlushRX\000"
 13430      346C3031 
 13430      466C7573 
 13430      68525800 
 13431              	.LASF202:
 13432 058b 4E524632 		.ascii	"NRF24L01ChannelVMT\000"
 13432      344C3031 
 13432      4368616E 
 13432      6E656C56 
 13432      4D5400
 13433              	.LASF206:
 13434 059e 67657474 		.ascii	"gett\000"
 13434      00
 13435              	.LASF197:
 13436 05a3 31344E52 		.ascii	"14NRF24L01Config\000"
 13436      4632344C 
 13436      3031436F 
 13436      6E666967 
 13436      00
 13437              	.LASF274:
 13438 05b4 6E726632 		.ascii	"nrf24l01SetTXAddress\000"
ARM GAS  /var/folders/m4/4md61f0s1_g0rzfghffqnxvr0000gn/T//cchEhHjd.s 			page 241


 13438      346C3031 
 13438      53657454 
 13438      58416464 
 13438      72657373 
 13439              	.LASF238:
 13440 05c9 6E726632 		.ascii	"nrf24l01Start\000"
 13440      346C3031 
 13440      53746172 
 13440      7400
 13441              	.LASF201:
 13442 05d7 4E524632 		.ascii	"NRF24L01Config\000"
 13442      344C3031 
 13442      436F6E66 
 13442      696700
 13443              	.LASF286:
 13444 05e6 6E726632 		.ascii	"nrf24l01EnableDynamicSize\000"
 13444      346C3031 
 13444      456E6162 
 13444      6C654479 
 13444      6E616D69 
 13445              	.LASF140:
 13446 0600 73747265 		.ascii	"stream\000"
 13446      616D00
 13447              	.LASF259:
 13448 0607 5F5A3237 		.ascii	"_Z27nrf24l01ReadAddressRegisterP14NRF24L01DriverhPh"
 13448      6E726632 
 13448      346C3031 
 13448      52656164 
 13448      41646472 
 13449 063a 00       		.ascii	"\000"
 13450              	.LASF129:
 13451 063b 6576656E 		.ascii	"event_listener_t\000"
 13451      745F6C69 
 13451      7374656E 
 13451      65725F74 
 13451      00
 13452              	.LASF159:
 13453 064c 696F706F 		.ascii	"ioportmask_t\000"
 13453      72746D61 
 13453      736B5F74 
 13453      00
 13454              	.LASF326:
 13455 0659 63684576 		.ascii	"chEvtBroadcastFlags\000"
 13455      7442726F 
 13455      61646361 
 13455      7374466C 
 13455      61677300 
 13456              	.LASF244:
 13457 066d 6E726632 		.ascii	"nrf24l01EnterStandby\000"
 13457      346C3031 
 13457      456E7465 
 13457      72537461 
 13457      6E646279 
 13458              	.LASF177:
 13459 0682 31307370 		.ascii	"10spistate_t\000"
 13459      69737461 
 13459      74655F74 
ARM GAS  /var/folders/m4/4md61f0s1_g0rzfghffqnxvr0000gn/T//cchEhHjd.s 			page 242


 13459      00
 13460              	.LASF28:
 13461 068f 636E745F 		.ascii	"cnt_t\000"
 13461      7400
 13462              	.LASF269:
 13463 0695 5F5A3233 		.ascii	"_Z23nrf24l01SetupRetransmitP14NRF24L01Driverhh\000"
 13463      6E726632 
 13463      346C3031 
 13463      53657475 
 13463      70526574 
 13464              	.LASF262:
 13465 06c4 5F5A3230 		.ascii	"_Z20nrf24l01ReadRegisterP14NRF24L01Driverh\000"
 13465      6E726632 
 13465      346C3031 
 13465      52656164 
 13465      52656769 
 13466              	.LASF77:
 13467 06ef 76745F66 		.ascii	"vt_func\000"
 13467      756E6300 
 13468              	.LASF281:
 13469 06f7 5F5A3236 		.ascii	"_Z26nrf24l01DisableDynamicSizeP14NRF24L01Driver\000"
 13469      6E726632 
 13469      346C3031 
 13469      44697361 
 13469      626C6544 
 13470              	.LASF53:
 13471 0727 705F6570 		.ascii	"p_epending\000"
 13471      656E6469 
 13471      6E6700
 13472              	.LASF36:
 13473 0732 77746D74 		.ascii	"wtmtxp\000"
 13473      787000
 13474              	.LASF64:
 13475 0739 63685F72 		.ascii	"ch_ready_list\000"
 13475      65616479 
 13475      5F6C6973 
 13475      7400
 13476              	.LASF290:
 13477 0747 6E726632 		.ascii	"nrf24l01FlushTX\000"
 13477      346C3031 
 13477      466C7573 
 13477      68545800 
 13478              	.LASF272:
 13479 0757 6E726632 		.ascii	"nrf24l01SetChannel\000"
 13479      346C3031 
 13479      53657443 
 13479      68616E6E 
 13479      656C00
 13480              	.LASF163:
 13481 076a 4558545F 		.ascii	"EXT_STOP\000"
 13481      53544F50 
 13481      00
 13482              	.LASF149:
 13483 0773 636C6561 		.ascii	"clear\000"
 13483      7200
 13484              	.LASF258:
 13485 0779 6E726632 		.ascii	"nrf24l01ReadAddressRegister\000"
ARM GAS  /var/folders/m4/4md61f0s1_g0rzfghffqnxvr0000gn/T//cchEhHjd.s 			page 243


 13485      346C3031 
 13485      52656164 
 13485      41646472 
 13485      65737352 
 13486              	.LASF137:
 13487 0795 65735F6E 		.ascii	"es_next\000"
 13487      65787400 
 13488              	.LASF325:
 13489 079d 63684576 		.ascii	"chEvtRegisterMaskWithFlags\000"
 13489      74526567 
 13489      69737465 
 13489      724D6173 
 13489      6B576974 
 13490              	.LASF162:
 13491 07b8 4558545F 		.ascii	"EXT_UNINIT\000"
 13491      554E494E 
 13491      495400
 13492              	.LASF13:
 13493 07c3 6C6F6E67 		.ascii	"long unsigned int\000"
 13493      20756E73 
 13493      69676E65 
 13493      6420696E 
 13493      7400
 13494              	.LASF233:
 13495 07d5 73746174 		.ascii	"status\000"
 13495      757300
 13496              	.LASF120:
 13497 07dc 63685F73 		.ascii	"ch_semaphore\000"
 13497      656D6170 
 13497      686F7265 
 13497      00
 13498              	.LASF176:
 13499 07e9 45585443 		.ascii	"EXTConfig\000"
 13499      6F6E6669 
 13499      6700
 13500              	.LASF59:
 13501 07f3 63685F74 		.ascii	"ch_thread\000"
 13501      68726561 
 13501      6400
 13502              	.LASF79:
 13503 07fd 76697274 		.ascii	"virtual_timers_list_t\000"
 13503      75616C5F 
 13503      74696D65 
 13503      72735F6C 
 13503      6973745F 
 13504              	.LASF131:
 13505 0813 656C5F6E 		.ascii	"el_next\000"
 13505      65787400 
 13506              	.LASF319:
 13507 081b 73706955 		.ascii	"spiUnselect\000"
 13507      6E73656C 
 13507      65637400 
 13508              	.LASF72:
 13509 0827 76697274 		.ascii	"virtual_timer_t\000"
 13509      75616C5F 
 13509      74696D65 
 13509      725F7400 
ARM GAS  /var/folders/m4/4md61f0s1_g0rzfghffqnxvr0000gn/T//cchEhHjd.s 			page 244


 13510              	.LASF63:
 13511 0837 72656164 		.ascii	"ready_list_t\000"
 13511      795F6C69 
 13511      73745F74 
 13511      00
 13512              	.LASF155:
 13513 0844 4C434B52 		.ascii	"LCKR\000"
 13513      00
 13514              	.LASF253:
 13515 0849 6368616E 		.ascii	"channel\000"
 13515      6E656C00 
 13516              	.LASF301:
 13517 0851 72786370 		.ascii	"rxcp\000"
 13517      00
 13518              	.LASF112:
 13519 0856 4552524F 		.ascii	"ERROR\000"
 13519      5200
 13520              	.LASF60:
 13521 085c 63685F74 		.ascii	"ch_threads_list\000"
 13521      68726561 
 13521      64735F6C 
 13521      69737400 
 13522              	.LASF152:
 13523 086c 4F535045 		.ascii	"OSPEEDR\000"
 13523      45445200 
 13524              	.LASF166:
 13525 0874 45585444 		.ascii	"EXTDriver\000"
 13525      72697665 
 13525      7200
 13526              	.LASF212:
 13527 087e 72784275 		.ascii	"rxBufCount\000"
 13527      66436F75 
 13527      6E7400
 13528              	.LASF187:
 13529 0889 646D6172 		.ascii	"dmarx\000"
 13529      7800
 13530              	.LASF12:
 13531 088f 5F5F7569 		.ascii	"__uint32_t\000"
 13531      6E743332 
 13531      5F7400
 13532              	.LASF245:
 13533 089a 5F5A3230 		.ascii	"_Z20nrf24l01EnterStandbyP14NRF24L01Driver\000"
 13533      6E726632 
 13533      346C3031 
 13533      456E7465 
 13533      72537461 
 13534              	.LASF257:
 13535 08c4 5F5A3238 		.ascii	"_Z28nrf24l01WriteAddressRegisterP14NRF24L01DriverhP"
 13535      6E726632 
 13535      346C3031 
 13535      57726974 
 13535      65416464 
 13536 08f7 4B6800   		.ascii	"Kh\000"
 13537              	.LASF180:
 13538 08fa 5350495F 		.ascii	"SPI_READY\000"
 13538      52454144 
 13538      5900
ARM GAS  /var/folders/m4/4md61f0s1_g0rzfghffqnxvr0000gn/T//cchEhHjd.s 			page 245


 13539              	.LASF1:
 13540 0904 6C6F6E67 		.ascii	"long long int\000"
 13540      206C6F6E 
 13540      6720696E 
 13540      7400
 13541              	.LASF124:
 13542 0912 6D5F7175 		.ascii	"m_queue\000"
 13542      65756500 
 13543              	.LASF218:
 13544 091a 706F7274 		.ascii	"port_lock_from_isr\000"
 13544      5F6C6F63 
 13544      6B5F6672 
 13544      6F6D5F69 
 13544      737200
 13545              	.LASF164:
 13546 092d 4558545F 		.ascii	"EXT_ACTIVE\000"
 13546      41435449 
 13546      564500
 13547              	.LASF74:
 13548 0938 76745F6E 		.ascii	"vt_next\000"
 13548      65787400 
 13549              	.LASF255:
 13550 0940 6E726632 		.ascii	"nrf24l01WriteAddressRegister\000"
 13550      346C3031 
 13550      57726974 
 13550      65416464 
 13550      72657373 
 13551              	.LASF309:
 13552 095d 45585444 		.ascii	"EXTD1\000"
 13552      3100
 13553              	.LASF75:
 13554 0963 76745F70 		.ascii	"vt_prev\000"
 13554      72657600 
 13555              	.LASF96:
 13556 096b 3138444D 		.ascii	"18DMA_Stream_TypeDef\000"
 13556      415F5374 
 13556      7265616D 
 13556      5F547970 
 13556      65446566 
 13557              	.LASF305:
 13558 0980 7073697A 		.ascii	"psize\000"
 13558      6500
 13559              	.LASF223:
 13560 0986 70697065 		.ascii	"pipe\000"
 13560      00
 13561              	.LASF138:
 13562 098b 6576656E 		.ascii	"event_source_t\000"
 13562      745F736F 
 13562      75726365 
 13562      5F7400
 13563              	.LASF311:
 13564 099a 6E726632 		.ascii	"nrf24l01\000"
 13564      346C3031 
 13564      00
 13565              	.LASF186:
 13566 09a3 6D757465 		.ascii	"mutex\000"
 13566      7800
ARM GAS  /var/folders/m4/4md61f0s1_g0rzfghffqnxvr0000gn/T//cchEhHjd.s 			page 246


 13567              	.LASF236:
 13568 09a9 6E726632 		.ascii	"nrf24l01ClearIRQ\000"
 13568      346C3031 
 13568      436C6561 
 13568      72495251 
 13568      00
 13569              	.LASF225:
 13570 09ba 6E726632 		.ascii	"nrf24l01SetRXAddress\000"
 13570      346C3031 
 13570      53657452 
 13570      58416464 
 13570      72657373 
 13571              	.LASF308:
 13572 09cf 49544D5F 		.ascii	"ITM_RxBuffer\000"
 13572      52784275 
 13572      66666572 
 13572      00
 13573              	.LASF99:
 13574 09dc 52584352 		.ascii	"RXCRCR\000"
 13574      435200
 13575              	.LASF334:
 13576 09e3 6E726645 		.ascii	"nrfExtCallback\000"
 13576      78744361 
 13576      6C6C6261 
 13576      636B00
 13577              	.LASF189:
 13578 09f2 7278646D 		.ascii	"rxdmamode\000"
 13578      616D6F64 
 13578      6500
 13579              	.LASF198:
 13580 09fc 73706970 		.ascii	"spip\000"
 13580      00
 13581              	.LASF275:
 13582 0a01 5F5A3230 		.ascii	"_Z20nrf24l01SetTXAddressP14NRF24L01DriverPKh\000"
 13582      6E726632 
 13582      346C3031 
 13582      53657454 
 13582      58416464 
 13583              	.LASF50:
 13584 0a2e 705F7761 		.ascii	"p_waiting\000"
 13584      6974696E 
 13584      6700
 13585              	.LASF213:
 13586 0a38 6576656E 		.ascii	"event\000"
 13586      7400
 13587              	.LASF224:
 13588 0a3e 61646472 		.ascii	"addr\000"
 13588      00
 13589              	.LASF188:
 13590 0a43 646D6174 		.ascii	"dmatx\000"
 13590      7800
 13591              	.LASF150:
 13592 0a49 4D4F4445 		.ascii	"MODER\000"
 13592      5200
 13593              	.LASF46:
 13594 0a4f 705F666C 		.ascii	"p_flags\000"
 13594      61677300 
ARM GAS  /var/folders/m4/4md61f0s1_g0rzfghffqnxvr0000gn/T//cchEhHjd.s 			page 247


 13595              	.LASF204:
 13596 0a57 72656164 		.ascii	"read\000"
 13596      00
 13597              	.LASF304:
 13598 0a5c 73656E64 		.ascii	"sended\000"
 13598      656400
 13599              	.LASF90:
 13600 0a63 69646C65 		.ascii	"idle_thread_wa\000"
 13600      5F746872 
 13600      6561645F 
 13600      776100
 13601              	.LASF0:
 13602 0a72 756E7369 		.ascii	"unsigned int\000"
 13602      676E6564 
 13602      20696E74 
 13602      00
 13603              	.LASF314:
 13604 0a7f 65787463 		.ascii	"extcfg\000"
 13604      666700
 13605              	.LASF196:
 13606 0a86 53504943 		.ascii	"SPIConfig\000"
 13606      6F6E6669 
 13606      6700
 13607              	.LASF317:
 13608 0a90 73706945 		.ascii	"spiExchange\000"
 13608      78636861 
 13608      6E676500 
 13609              	.LASF181:
 13610 0a9c 5350495F 		.ascii	"SPI_ACTIVE\000"
 13610      41435449 
 13610      564500
 13611              	.LASF19:
 13612 0aa7 7274636E 		.ascii	"rtcnt_t\000"
 13612      745F7400 
 13613              	.LASF56:
 13614 0aaf 705F6D70 		.ascii	"p_mpool\000"
 13614      6F6F6C00 
 13615              	.LASF175:
 13616 0ab7 6368616E 		.ascii	"channels\000"
 13616      6E656C73 
 13616      00
 13617              	.LASF47:
 13618 0ac0 705F7265 		.ascii	"p_refs\000"
 13618      667300
 13619              	.LASF268:
 13620 0ac7 6E726632 		.ascii	"nrf24l01SetupRetransmit\000"
 13620      346C3031 
 13620      53657475 
 13620      70526574 
 13620      72616E73 
 13621              	.LASF199:
 13622 0adf 6365506F 		.ascii	"cePort\000"
 13622      727400
 13623              	.LASF265:
 13624 0ae6 5F5A3135 		.ascii	"_Z15nrf24l01PowerUpP14NRF24L01Driver\000"
 13624      6E726632 
 13624      346C3031 
ARM GAS  /var/folders/m4/4md61f0s1_g0rzfghffqnxvr0000gn/T//cchEhHjd.s 			page 248


 13624      506F7765 
 13624      72557050 
 13625              	.LASF135:
 13626 0b0b 656C5F77 		.ascii	"el_wflags\000"
 13626      666C6167 
 13626      7300
 13627              	.LASF295:
 13628 0b15 6E726632 		.ascii	"nrf24l01EnterRX\000"
 13628      346C3031 
 13628      456E7465 
 13628      72525800 
 13629              	.LASF302:
 13630 0b25 6E726632 		.ascii	"nrf24l01EnterTX\000"
 13630      346C3031 
 13630      456E7465 
 13630      72545800 
 13631              	.LASF292:
 13632 0b35 696E6974 		.ascii	"initNRF24L01\000"
 13632      4E524632 
 13632      344C3031 
 13632      00
 13633              	.LASF133:
 13634 0b42 656C5F65 		.ascii	"el_events\000"
 13634      76656E74 
 13634      7300
 13635              	.LASF266:
 13636 0b4c 6E726632 		.ascii	"nrf24l01PowerDown\000"
 13636      346C3031 
 13636      506F7765 
 13636      72446F77 
 13636      6E00
 13637              	.LASF200:
 13638 0b5e 63655061 		.ascii	"cePad\000"
 13638      6400
 13639              	.LASF118:
 13640 0b64 6F666673 		.ascii	"offset\000"
 13640      657400
 13641              	.LASF256:
 13642 0b6b 5F5A3231 		.ascii	"_Z21nrf24l01WriteRegisterP14NRF24L01Driverhh\000"
 13642      6E726632 
 13642      346C3031 
 13642      57726974 
 13642      65526567 
 13643              	.LASF161:
 13644 0b98 31306578 		.ascii	"10extstate_t\000"
 13644      74737461 
 13644      74655F74 
 13644      00
 13645              	.LASF95:
 13646 0ba5 444D415F 		.ascii	"DMA_Stream_TypeDef\000"
 13646      53747265 
 13646      616D5F54 
 13646      79706544 
 13646      656600
 13647              	.LASF49:
 13648 0bb8 705F7469 		.ascii	"p_time\000"
 13648      6D6500
ARM GAS  /var/folders/m4/4md61f0s1_g0rzfghffqnxvr0000gn/T//cchEhHjd.s 			page 249


 13649              	.LASF285:
 13650 0bbf 5F5A3232 		.ascii	"_Z22nrf24l01ToggleFeaturesP14NRF24L01Driver\000"
 13650      6E726632 
 13650      346C3031 
 13650      546F6767 
 13650      6C654665 
 13651              	.LASF146:
 13652 0beb 626F6F6C 		.ascii	"bool\000"
 13652      00
 13653              	.LASF315:
 13654 0bf0 63684576 		.ascii	"chEvtBroadcastFlagsI\000"
 13654      7442726F 
 13654      61646361 
 13654      7374466C 
 13654      61677349 
 13655              	.LASF170:
 13656 0c05 65787463 		.ascii	"extcallback_t\000"
 13656      616C6C62 
 13656      61636B5F 
 13656      7400
 13657              	.LASF108:
 13658 0c13 44495341 		.ascii	"DISABLE\000"
 13658      424C4500 
 13659              	.LASF30:
 13660 0c1b 74687265 		.ascii	"thread_t\000"
 13660      61645F74 
 13660      00
 13661              	.LASF2:
 13662 0c24 6C6F6E67 		.ascii	"long double\000"
 13662      20646F75 
 13662      626C6500 
 13663              	.LASF57:
 13664 0c30 74687265 		.ascii	"thread_reference_t\000"
 13664      61645F72 
 13664      65666572 
 13664      656E6365 
 13664      5F7400
 13665              	.LASF273:
 13666 0c43 5F5A3138 		.ascii	"_Z18nrf24l01SetChannelP14NRF24L01Driverh\000"
 13666      6E726632 
 13666      346C3031 
 13666      53657443 
 13666      68616E6E 
 13667              	.LASF55:
 13668 0c6c 705F7265 		.ascii	"p_realprio\000"
 13668      616C7072 
 13668      696F00
 13669              	.LASF117:
 13670 0c77 706F7274 		.ascii	"port_intctx\000"
 13670      5F696E74 
 13670      63747800 
 13671              	.LASF313:
 13672 0c83 6E726632 		.ascii	"nrf24l01Config\000"
 13672      346C3031 
 13672      436F6E66 
 13672      696700
 13673              	.LASF219:
ARM GAS  /var/folders/m4/4md61f0s1_g0rzfghffqnxvr0000gn/T//cchEhHjd.s 			page 250


 13674 0c92 706F7274 		.ascii	"port_unlock_from_isr\000"
 13674      5F756E6C 
 13674      6F636B5F 
 13674      66726F6D 
 13674      5F697372 
 13675              	.LASF76:
 13676 0ca7 76745F64 		.ascii	"vt_delta\000"
 13676      656C7461 
 13676      00
 13677              	.LASF114:
 13678 0cb0 4572726F 		.ascii	"ErrorStatus\000"
 13678      72537461 
 13678      74757300 
 13679              	.LASF327:
 13680 0cbc 63684576 		.ascii	"chEvtWaitOneTimeout\000"
 13680      74576169 
 13680      744F6E65 
 13680      54696D65 
 13680      6F757400 
 13681              	.LASF139:
 13682 0cd0 31387374 		.ascii	"18stm32_dma_stream_t\000"
 13682      6D33325F 
 13682      646D615F 
 13682      73747265 
 13682      616D5F74 
 13683              	.LASF73:
 13684 0ce5 63685F76 		.ascii	"ch_virtual_timer\000"
 13684      69727475 
 13684      616C5F74 
 13684      696D6572 
 13684      00
 13685              	.LASF147:
 13686 0cf6 3136746D 		.ascii	"16tm_calibration_t\000"
 13686      5F63616C 
 13686      69627261 
 13686      74696F6E 
 13686      5F7400
 13687              	.LASF122:
 13688 0d09 735F636E 		.ascii	"s_cnt\000"
 13688      7400
 13689              	.LASF287:
 13690 0d0f 5F5A3235 		.ascii	"_Z25nrf24l01EnableDynamicSizeP14NRF24L01Driver\000"
 13690      6E726632 
 13690      346C3031 
 13690      456E6162 
 13690      6C654479 
 13691              	.LASF110:
 13692 0d3e 46756E63 		.ascii	"FunctionalState\000"
 13692      74696F6E 
 13692      616C5374 
 13692      61746500 
 13693              	.LASF143:
 13694 0d4e 73656C66 		.ascii	"selfindex\000"
 13694      696E6465 
 13694      7800
 13695              	.LASF276:
 13696 0d58 5F5A3231 		.ascii	"_Z21nrf24l01GetFIFOStatusP14NRF24L01Driver\000"
ARM GAS  /var/folders/m4/4md61f0s1_g0rzfghffqnxvr0000gn/T//cchEhHjd.s 			page 251


 13696      6E726632 
 13696      346C3031 
 13696      47657446 
 13696      49464F53 
 13697              	.LASF229:
 13698 0d83 73697A65 		.ascii	"size\000"
 13698      00
 13699              	.LASF14:
 13700 0d88 6C6F6E67 		.ascii	"long long unsigned int\000"
 13700      206C6F6E 
 13700      6720756E 
 13700      7369676E 
 13700      65642069 
 13701              	.LASF289:
 13702 0d9f 5F5A3135 		.ascii	"_Z15nrf24l01FlushRXP14NRF24L01Driver\000"
 13702      6E726632 
 13702      346C3031 
 13702      466C7573 
 13702      68525850 
 13703              	.LASF43:
 13704 0dc4 705F6F6C 		.ascii	"p_older\000"
 13704      64657200 
 13705              	.LASF16:
 13706 0dcc 75696E74 		.ascii	"uint16_t\000"
 13706      31365F74 
 13706      00
 13707              	.LASF25:
 13708 0dd5 6D73675F 		.ascii	"msg_t\000"
 13708      7400
 13709              	.LASF62:
 13710 0ddb 63685F74 		.ascii	"ch_threads_queue\000"
 13710      68726561 
 13710      64735F71 
 13710      75657565 
 13710      00
 13711              	.LASF27:
 13712 0dec 6576656E 		.ascii	"eventflags_t\000"
 13712      74666C61 
 13712      67735F74 
 13712      00
 13713              	.LASF282:
 13714 0df9 6E726632 		.ascii	"nrf24l01DisableDynamicPipeSize\000"
 13714      346C3031 
 13714      44697361 
 13714      626C6544 
 13714      796E616D 
 13715              	.LASF23:
 13716 0e18 74736C69 		.ascii	"tslices_t\000"
 13716      6365735F 
 13716      7400
 13717              	.LASF277:
 13718 0e22 6E726632 		.ascii	"nrf24l01EnableDynamicPipeSize\000"
 13718      346C3031 
 13718      456E6162 
 13718      6C654479 
 13718      6E616D69 
 13719              	.LASF328:
ARM GAS  /var/folders/m4/4md61f0s1_g0rzfghffqnxvr0000gn/T//cchEhHjd.s 			page 252


 13720 0e40 63684576 		.ascii	"chEvtUnregister\000"
 13720      74556E72 
 13720      65676973 
 13720      74657200 
 13721              	.LASF70:
 13722 0e50 725F6375 		.ascii	"r_current\000"
 13722      7272656E 
 13722      7400
 13723              	.LASF210:
 13724 0e5a 6E726670 		.ascii	"nrfp\000"
 13724      00
 13725              	.LASF264:
 13726 0e5f 6E726632 		.ascii	"nrf24l01PowerUp\000"
 13726      346C3031 
 13726      506F7765 
 13726      72557000 
 13727              	.LASF320:
 13728 0e6f 73706953 		.ascii	"spiSend\000"
 13728      656E6400 
 13729              	.LASF157:
 13730 0e77 41465248 		.ascii	"AFRH\000"
 13730      00
 13731              	.LASF113:
 13732 0e7c 53554343 		.ascii	"SUCCESS\000"
 13732      45535300 
 13733              	.LASF156:
 13734 0e84 4146524C 		.ascii	"AFRL\000"
 13734      00
 13735              	.LASF335:
 13736 0e89 5F5A3132 		.ascii	"_Z12initNRF24L01v\000"
 13736      696E6974 
 13736      4E524632 
 13736      344C3031 
 13736      7600
 13737              	.LASF144:
 13738 0e9b 76656374 		.ascii	"vector\000"
 13738      6F7200
 13739              	.LASF297:
 13740 0ea2 6E72664C 		.ascii	"nrfListener\000"
 13740      69737465 
 13740      6E657200 
 13741              	.LASF89:
 13742 0eae 6D61696E 		.ascii	"mainthread\000"
 13742      74687265 
 13742      616400
 13743              	.LASF220:
 13744 0eb9 5F5F7365 		.ascii	"__set_BASEPRI\000"
 13744      745F4241 
 13744      53455052 
 13744      4900
 13745              	.LASF241:
 13746 0ec7 5F5A3138 		.ascii	"_Z18nrf24l01ObjectInitP14NRF24L01Driver\000"
 13746      6E726632 
 13746      346C3031 
 13746      4F626A65 
 13746      6374496E 
 13747              	.LASF104:
ARM GAS  /var/folders/m4/4md61f0s1_g0rzfghffqnxvr0000gn/T//cchEhHjd.s 			page 253


 13748 0eef 52455345 		.ascii	"RESET\000"
 13748      5400
 13749              	.LASF65:
 13750 0ef5 725F7175 		.ascii	"r_queue\000"
 13750      65756500 
 13751              	.LASF151:
 13752 0efd 4F545950 		.ascii	"OTYPER\000"
 13752      455200
 13753              	.LASF247:
 13754 0f04 74696D65 		.ascii	"time\000"
 13754      00
 13755              	.LASF209:
 13756 0f09 4E524632 		.ascii	"NRF24L01Channel\000"
 13756      344C3031 
 13756      4368616E 
 13756      6E656C00 
 13757              	.LASF100:
 13758 0f19 54584352 		.ascii	"TXCRCR\000"
 13758      435200
 13759              	.LASF103:
 13760 0f20 5350495F 		.ascii	"SPI_TypeDef\000"
 13760      54797065 
 13760      44656600 
 13761              	.LASF105:
 13762 0f2c 466C6167 		.ascii	"FlagStatus\000"
 13762      53746174 
 13762      757300
 13763              	.LASF87:
 13764 0f37 726C6973 		.ascii	"rlist\000"
 13764      7400
 13765              	.LASF20:
 13766 0f3d 746D6F64 		.ascii	"tmode_t\000"
 13766      655F7400 
 13767              	.LASF98:
 13768 0f45 43524350 		.ascii	"CRCPR\000"
 13768      5200
 13769              	.LASF169:
 13770 0f4b 65787063 		.ascii	"expchannel_t\000"
 13770      68616E6E 
 13770      656C5F74 
 13770      00
 13771              	.LASF318:
 13772 0f58 73706952 		.ascii	"spiReceive\000"
 13772      65636569 
 13772      766500
 13773              	.LASF81:
 13774 0f63 76745F73 		.ascii	"vt_systime\000"
 13774      79737469 
 13774      6D6500
 13775              	.LASF69:
 13776 0f6e 725F6F6C 		.ascii	"r_older\000"
 13776      64657200 
 13777              	.LASF119:
 13778 0f76 746D5F63 		.ascii	"tm_calibration_t\000"
 13778      616C6962 
 13778      72617469 
 13778      6F6E5F74 
ARM GAS  /var/folders/m4/4md61f0s1_g0rzfghffqnxvr0000gn/T//cchEhHjd.s 			page 254


 13778      00
 13779              	.LASF185:
 13780 0f87 74687265 		.ascii	"thread\000"
 13780      616400
 13781              	.LASF93:
 13782 0f8e 4D304152 		.ascii	"M0AR\000"
 13782      00
 13783              	.LASF216:
 13784 0f93 706F7274 		.ascii	"port_lock\000"
 13784      5F6C6F63 
 13784      6B00
 13785              	.LASF121:
 13786 0f9d 735F7175 		.ascii	"s_queue\000"
 13786      65756500 
 13787              	.LASF299:
 13788 0fa5 73746174 		.ascii	"status_reg\000"
 13788      75735F72 
 13788      656700
 13789              	.LASF7:
 13790 0fb0 73686F72 		.ascii	"short int\000"
 13790      7420696E 
 13790      7400
 13791              	.LASF136:
 13792 0fba 6576656E 		.ascii	"event_source\000"
 13792      745F736F 
 13792      75726365 
 13792      00
 13793              	.LASF307:
 13794 0fc7 5F5A3139 		.ascii	"_Z19nrf24l01EnablePipesP14NRF24L01Driverh\000"
 13794      6E726632 
 13794      346C3031 
 13794      456E6162 
 13794      6C655069 
 13795              	.LASF172:
 13796 0ff1 6D6F6465 		.ascii	"mode\000"
 13796      00
 13797              	.LASF123:
 13798 0ff6 63685F6D 		.ascii	"ch_mutex\000"
 13798      75746578 
 13798      00
 13799              	.LASF237:
 13800 0fff 5F5A3136 		.ascii	"_Z16nrf24l01ClearIRQP14NRF24L01Driverh\000"
 13800      6E726632 
 13800      346C3031 
 13800      436C6561 
 13800      72495251 
 13801              	.LASF316:
 13802 1026 73706953 		.ascii	"spiSelect\000"
 13802      656C6563 
 13802      7400
 13803              	.LASF243:
 13804 1030 6576656E 		.ascii	"events\000"
 13804      747300
 13805              	.LASF48:
 13806 1037 705F7072 		.ascii	"p_preempt\000"
 13806      65656D70 
 13806      7400
ARM GAS  /var/folders/m4/4md61f0s1_g0rzfghffqnxvr0000gn/T//cchEhHjd.s 			page 255


 13807              	.LASF66:
 13808 1041 725F7072 		.ascii	"r_prio\000"
 13808      696F00
 13809              	.LASF263:
 13810 1048 5F5A3137 		.ascii	"_Z17nrf24l01GetStatusP14NRF24L01Driver\000"
 13810      6E726632 
 13810      346C3031 
 13810      47657453 
 13810      74617475 
 13811              	.LASF83:
 13812 106f 63685F73 		.ascii	"ch_system_debug\000"
 13812      79737465 
 13812      6D5F6465 
 13812      62756700 
 13813              	.LASF109:
 13814 107f 454E4142 		.ascii	"ENABLE\000"
 13814      4C4500
 13815              	.LASF154:
 13816 1086 42535252 		.ascii	"BSRR\000"
 13816      00
 13817              	.LASF333:
 13818 108b 6E726632 		.ascii	"nrf24l01GetFIFOStatus\000"
 13818      346C3031 
 13818      47657446 
 13818      49464F53 
 13818      74617475 
 13819              	.LASF88:
 13820 10a1 76746C69 		.ascii	"vtlist\000"
 13820      737400
 13821              	.LASF128:
 13822 10a8 6D757465 		.ascii	"mutex_t\000"
 13822      785F7400 
 13823              	.LASF22:
 13824 10b0 74726566 		.ascii	"trefs_t\000"
 13824      735F7400 
 13825              	.LASF303:
 13826 10b8 5F5A3135 		.ascii	"_Z15nrf24l01EnterTXP14NRF24L01Driver\000"
 13826      6E726632 
 13826      346C3031 
 13826      456E7465 
 13826      72545850 
 13827              	.LASF58:
 13828 10dd 74687265 		.ascii	"threads_list_t\000"
 13828      6164735F 
 13828      6C697374 
 13828      5F7400
 13829              	.LASF235:
 13830 10ec 5F5A3230 		.ascii	"_Z20nrf24l01WritePayloadP14NRF24L01DriverhPKh\000"
 13830      6E726632 
 13830      346C3031 
 13830      57726974 
 13830      65506179 
 13831              	.LASF86:
 13832 111a 63685F73 		.ascii	"ch_system\000"
 13832      79737465 
 13832      6D00
 13833              	.LASF18:
ARM GAS  /var/folders/m4/4md61f0s1_g0rzfghffqnxvr0000gn/T//cchEhHjd.s 			page 256


 13834 1124 75696E74 		.ascii	"uint32_t\000"
 13834      33325F74 
 13834      00
 13835              	.LASF298:
 13836 112d 72656365 		.ascii	"received\000"
 13836      69766564 
 13836      00
 13837              	.LASF254:
 13838 1136 6E726632 		.ascii	"nrf24l01WriteRegister\000"
 13838      346C3031 
 13838      57726974 
 13838      65526567 
 13838      69737465 
 13839              	.LASF102:
 13840 114c 49325350 		.ascii	"I2SPR\000"
 13840      5200
 13841              	.LASF231:
 13842 1152 5F5A3139 		.ascii	"_Z19nrf24l01ReadPayloadP14NRF24L01DriverhPhS1_\000"
 13842      6E726632 
 13842      346C3031 
 13842      52656164 
 13842      5061796C 
 13843              	.LASF293:
 13844 1181 6E726632 		.ascii	"nrf24l01GetSize\000"
 13844      346C3031 
 13844      47657453 
 13844      697A6500 
 13845              	.LASF182:
 13846 1191 5350495F 		.ascii	"SPI_COMPLETE\000"
 13846      434F4D50 
 13846      4C455445 
 13846      00
 13847              	.LASF306:
 13848 119e 6E726632 		.ascii	"nrf24l01EnablePipes\000"
 13848      346C3031 
 13848      456E6162 
 13848      6C655069 
 13848      70657300 
 13849              	.LASF234:
 13850 11b2 6E726632 		.ascii	"nrf24l01WritePayload\000"
 13850      346C3031 
 13850      57726974 
 13850      65506179 
 13850      6C6F6164 
 13851              	.LASF260:
 13852 11c7 6E726632 		.ascii	"nrf24l01ReadRegister\000"
 13852      346C3031 
 13852      52656164 
 13852      52656769 
 13852      73746572 
 13853              	.LASF130:
 13854 11dc 6576656E 		.ascii	"event_listener\000"
 13854      745F6C69 
 13854      7374656E 
 13854      657200
 13855              	.LASF31:
 13856 11eb 7264796D 		.ascii	"rdymsg\000"
ARM GAS  /var/folders/m4/4md61f0s1_g0rzfghffqnxvr0000gn/T//cchEhHjd.s 			page 257


 13856      736700
 13857              	.LASF242:
 13858 11f2 63684576 		.ascii	"chEvtRegisterMask\000"
 13858      74526567 
 13858      69737465 
 13858      724D6173 
 13858      6B00
 13859              	.LASF9:
 13860 1204 73686F72 		.ascii	"short unsigned int\000"
 13860      7420756E 
 13860      7369676E 
 13860      65642069 
 13860      6E7400
 13861              	.LASF85:
 13862 1217 63685F73 		.ascii	"ch_system_t\000"
 13862      79737465 
 13862      6D5F7400 
 13863              	.LASF291:
 13864 1223 5F5A3135 		.ascii	"_Z15nrf24l01FlushTXP14NRF24L01Driver\000"
 13864      6E726632 
 13864      346C3031 
 13864      466C7573 
 13864      68545850 
 13865              	.LASF183:
 13866 1248 73706973 		.ascii	"spistate_t\000"
 13866      74617465 
 13866      5F7400
 13867              	.LASF280:
 13868 1253 6E726632 		.ascii	"nrf24l01DisableDynamicSize\000"
 13868      346C3031 
 13868      44697361 
 13868      626C6544 
 13868      796E616D 
 13869              	.LASF10:
 13870 126e 5F5F696E 		.ascii	"__int32_t\000"
 13870      7433325F 
 13870      7400
 13871              	.LASF192:
 13872 1278 39535049 		.ascii	"9SPIConfig\000"
 13872      436F6E66 
 13872      696700
 13873              	.LASF251:
 13874 1283 5F5A3134 		.ascii	"_Z14nrf24l01ExtIRQP14NRF24L01Driver\000"
 13874      6E726632 
 13874      346C3031 
 13874      45787449 
 13874      52515031 
 13875              	.LASF92:
 13876 12a7 4E445452 		.ascii	"NDTR\000"
 13876      00
 13877              	.LASF141:
 13878 12ac 69666372 		.ascii	"ifcr\000"
 13878      00
 13879              	.LASF195:
 13880 12b1 73737061 		.ascii	"sspad\000"
 13880      6400
 13881              	.LASF228:
ARM GAS  /var/folders/m4/4md61f0s1_g0rzfghffqnxvr0000gn/T//cchEhHjd.s 			page 258


 13882 12b7 5F5A3232 		.ascii	"_Z22nrf24l01SetPayloadSizeP14NRF24L01Driverhh\000"
 13882      6E726632 
 13882      346C3031 
 13882      53657450 
 13882      61796C6F 
 13883              	.LASF44:
 13884 12e5 705F6E61 		.ascii	"p_name\000"
 13884      6D6500
 13885              	.LASF296:
 13886 12ec 5F5A3135 		.ascii	"_Z15nrf24l01EnterRXP14NRF24L01Driver\000"
 13886      6E726632 
 13886      346C3031 
 13886      456E7465 
 13886      72525850 
 13887              	.LASF331:
 13888 1311 2F557365 		.ascii	"/Users/raphael/Documents/pcb-quadrotor/code\000"
 13888      72732F72 
 13888      61706861 
 13888      656C2F44 
 13888      6F63756D 
 13889              	.LASF267:
 13890 133d 5F5A3137 		.ascii	"_Z17nrf24l01PowerDownP14NRF24L01Driver\000"
 13890      6E726632 
 13890      346C3031 
 13890      506F7765 
 13890      72446F77 
 13891              	.LASF232:
 13892 1364 64617461 		.ascii	"data\000"
 13892      00
 13893              	.LASF126:
 13894 1369 6D5F6E65 		.ascii	"m_next\000"
 13894      787400
 13895              	.LASF171:
 13896 1370 31364558 		.ascii	"16EXTChannelConfig\000"
 13896      54436861 
 13896      6E6E656C 
 13896      436F6E66 
 13896      696700
 13897              	.LASF312:
 13898 1383 6E726632 		.ascii	"nrf24l01SPI\000"
 13898      346C3031 
 13898      53504900 
 13899              	.LASF190:
 13900 138f 7478646D 		.ascii	"txdmamode\000"
 13900      616D6F64 
 13900      6500
 13901              	.LASF283:
 13902 1399 5F5A3330 		.ascii	"_Z30nrf24l01DisableDynamicPipeSizeP14NRF24L01Driver"
 13902      6E726632 
 13902      346C3031 
 13902      44697361 
 13902      626C6544 
 13903 13cc 6800     		.ascii	"h\000"
 13904              	.LASF215:
 13905 13ce 6576656E 		.ascii	"eventSource\000"
 13905      74536F75 
 13905      72636500 
ARM GAS  /var/folders/m4/4md61f0s1_g0rzfghffqnxvr0000gn/T//cchEhHjd.s 			page 259


 13906              	.LASF278:
 13907 13da 5F5A3239 		.ascii	"_Z29nrf24l01EnableDynamicPipeSizeP14NRF24L01Driverh"
 13907      6E726632 
 13907      346C3031 
 13907      456E6162 
 13907      6C654479 
 13908 140d 00       		.ascii	"\000"
 13909              	.LASF52:
 13910 140e 705F6D73 		.ascii	"p_msg\000"
 13910      6700
 13911              	.LASF132:
 13912 1414 656C5F6C 		.ascii	"el_listener\000"
 13912      69737465 
 13912      6E657200 
 13913              	.LASF45:
 13914 1420 705F7374 		.ascii	"p_state\000"
 13914      61746500 
 13915              		.ident	"GCC: (GNU Tools for ARM Embedded Processors) 5.2.1 20151202 (release) [ARM/embedded-5-bran
ARM GAS  /var/folders/m4/4md61f0s1_g0rzfghffqnxvr0000gn/T//cchEhHjd.s 			page 260


DEFINED SYMBOLS
                            *ABS*:0000000000000000 nrf24l01.cpp
/var/folders/m4/4md61f0s1_g0rzfghffqnxvr0000gn/T//cchEhHjd.s:22     .text._ZL14nrfExtCallbackP9EXTDriverm:0000000000000000 $t
/var/folders/m4/4md61f0s1_g0rzfghffqnxvr0000gn/T//cchEhHjd.s:27     .text._ZL14nrfExtCallbackP9EXTDriverm:0000000000000000 _ZL14nrfExtCallbackP9EXTDriverm
/var/folders/m4/4md61f0s1_g0rzfghffqnxvr0000gn/T//cchEhHjd.s:86     .text._ZL14nrfExtCallbackP9EXTDriverm:0000000000000018 $d
/var/folders/m4/4md61f0s1_g0rzfghffqnxvr0000gn/T//cchEhHjd.s:98     .text._Z19nrf24l01ReadPayloadP14NRF24L01DriverhPhS1_.part.2:0000000000000000 $t
/var/folders/m4/4md61f0s1_g0rzfghffqnxvr0000gn/T//cchEhHjd.s:103    .text._Z19nrf24l01ReadPayloadP14NRF24L01DriverhPhS1_.part.2:0000000000000000 _Z19nrf24l01ReadPayloadP14NRF24L01DriverhPhS1_.part.2
/var/folders/m4/4md61f0s1_g0rzfghffqnxvr0000gn/T//cchEhHjd.s:170    .text._Z20nrf24l01WritePayloadP14NRF24L01DriverhPKh.part.3:0000000000000000 $t
/var/folders/m4/4md61f0s1_g0rzfghffqnxvr0000gn/T//cchEhHjd.s:175    .text._Z20nrf24l01WritePayloadP14NRF24L01DriverhPKh.part.3:0000000000000000 _Z20nrf24l01WritePayloadP14NRF24L01DriverhPKh.part.3
/var/folders/m4/4md61f0s1_g0rzfghffqnxvr0000gn/T//cchEhHjd.s:237    .text._Z18nrf24l01ObjectInitP14NRF24L01Driver:0000000000000000 $t
/var/folders/m4/4md61f0s1_g0rzfghffqnxvr0000gn/T//cchEhHjd.s:243    .text._Z18nrf24l01ObjectInitP14NRF24L01Driver:0000000000000000 _Z18nrf24l01ObjectInitP14NRF24L01Driver
/var/folders/m4/4md61f0s1_g0rzfghffqnxvr0000gn/T//cchEhHjd.s:301    .text._Z18nrf24l01ObjectInitP14NRF24L01Driver:0000000000000030 $d
/var/folders/m4/4md61f0s1_g0rzfghffqnxvr0000gn/T//cchEhHjd.s:306    .text._Z13nrf24l01StartP14NRF24L01DriverPK14NRF24L01Config:0000000000000000 $t
/var/folders/m4/4md61f0s1_g0rzfghffqnxvr0000gn/T//cchEhHjd.s:312    .text._Z13nrf24l01StartP14NRF24L01DriverPK14NRF24L01Config:0000000000000000 _Z13nrf24l01StartP14NRF24L01DriverPK14NRF24L01Config
/var/folders/m4/4md61f0s1_g0rzfghffqnxvr0000gn/T//cchEhHjd.s:327    .text._Z21nrf24l01WriteRegisterP14NRF24L01Driverhh:0000000000000000 $t
/var/folders/m4/4md61f0s1_g0rzfghffqnxvr0000gn/T//cchEhHjd.s:333    .text._Z21nrf24l01WriteRegisterP14NRF24L01Driverhh:0000000000000000 _Z21nrf24l01WriteRegisterP14NRF24L01Driverhh
/var/folders/m4/4md61f0s1_g0rzfghffqnxvr0000gn/T//cchEhHjd.s:386    .text._Z20nrf24l01ReadRegisterP14NRF24L01Driverh:0000000000000000 $t
/var/folders/m4/4md61f0s1_g0rzfghffqnxvr0000gn/T//cchEhHjd.s:392    .text._Z20nrf24l01ReadRegisterP14NRF24L01Driverh:0000000000000000 _Z20nrf24l01ReadRegisterP14NRF24L01Driverh
/var/folders/m4/4md61f0s1_g0rzfghffqnxvr0000gn/T//cchEhHjd.s:449    .text._Z28nrf24l01WriteAddressRegisterP14NRF24L01DriverhPKh:0000000000000000 $t
/var/folders/m4/4md61f0s1_g0rzfghffqnxvr0000gn/T//cchEhHjd.s:455    .text._Z28nrf24l01WriteAddressRegisterP14NRF24L01DriverhPKh:0000000000000000 _Z28nrf24l01WriteAddressRegisterP14NRF24L01DriverhPKh
/var/folders/m4/4md61f0s1_g0rzfghffqnxvr0000gn/T//cchEhHjd.s:516    .text._Z27nrf24l01ReadAddressRegisterP14NRF24L01DriverhPh:0000000000000000 $t
/var/folders/m4/4md61f0s1_g0rzfghffqnxvr0000gn/T//cchEhHjd.s:522    .text._Z27nrf24l01ReadAddressRegisterP14NRF24L01DriverhPh:0000000000000000 _Z27nrf24l01ReadAddressRegisterP14NRF24L01DriverhPh
/var/folders/m4/4md61f0s1_g0rzfghffqnxvr0000gn/T//cchEhHjd.s:582    .text._Z17nrf24l01GetStatusP14NRF24L01Driver:0000000000000000 $t
/var/folders/m4/4md61f0s1_g0rzfghffqnxvr0000gn/T//cchEhHjd.s:588    .text._Z17nrf24l01GetStatusP14NRF24L01Driver:0000000000000000 _Z17nrf24l01GetStatusP14NRF24L01Driver
/var/folders/m4/4md61f0s1_g0rzfghffqnxvr0000gn/T//cchEhHjd.s:637    .text._Z15nrf24l01PowerUpP14NRF24L01Driver:0000000000000000 $t
/var/folders/m4/4md61f0s1_g0rzfghffqnxvr0000gn/T//cchEhHjd.s:643    .text._Z15nrf24l01PowerUpP14NRF24L01Driver:0000000000000000 _Z15nrf24l01PowerUpP14NRF24L01Driver
/var/folders/m4/4md61f0s1_g0rzfghffqnxvr0000gn/T//cchEhHjd.s:680    .text._Z17nrf24l01PowerDownP14NRF24L01Driver:0000000000000000 $t
/var/folders/m4/4md61f0s1_g0rzfghffqnxvr0000gn/T//cchEhHjd.s:686    .text._Z17nrf24l01PowerDownP14NRF24L01Driver:0000000000000000 _Z17nrf24l01PowerDownP14NRF24L01Driver
/var/folders/m4/4md61f0s1_g0rzfghffqnxvr0000gn/T//cchEhHjd.s:722    .text._Z23nrf24l01SetupRetransmitP14NRF24L01Driverhh:0000000000000000 $t
/var/folders/m4/4md61f0s1_g0rzfghffqnxvr0000gn/T//cchEhHjd.s:728    .text._Z23nrf24l01SetupRetransmitP14NRF24L01Driverhh:0000000000000000 _Z23nrf24l01SetupRetransmitP14NRF24L01Driverhh
/var/folders/m4/4md61f0s1_g0rzfghffqnxvr0000gn/T//cchEhHjd.s:749    .text._Z18nrf24l01SetChannelP14NRF24L01Driverh:0000000000000000 $t
/var/folders/m4/4md61f0s1_g0rzfghffqnxvr0000gn/T//cchEhHjd.s:755    .text._Z18nrf24l01SetChannelP14NRF24L01Driverh:0000000000000000 _Z18nrf24l01SetChannelP14NRF24L01Driverh
/var/folders/m4/4md61f0s1_g0rzfghffqnxvr0000gn/T//cchEhHjd.s:773    .text._Z16nrf24l01ClearIRQP14NRF24L01Driverh:0000000000000000 $t
/var/folders/m4/4md61f0s1_g0rzfghffqnxvr0000gn/T//cchEhHjd.s:779    .text._Z16nrf24l01ClearIRQP14NRF24L01Driverh:0000000000000000 _Z16nrf24l01ClearIRQP14NRF24L01Driverh
/var/folders/m4/4md61f0s1_g0rzfghffqnxvr0000gn/T//cchEhHjd.s:797    .text._Z20nrf24l01SetRXAddressP14NRF24L01DriverhPKh:0000000000000000 $t
/var/folders/m4/4md61f0s1_g0rzfghffqnxvr0000gn/T//cchEhHjd.s:803    .text._Z20nrf24l01SetRXAddressP14NRF24L01DriverhPKh:0000000000000000 _Z20nrf24l01SetRXAddressP14NRF24L01DriverhPKh
/var/folders/m4/4md61f0s1_g0rzfghffqnxvr0000gn/T//cchEhHjd.s:886    .text._Z20nrf24l01SetTXAddressP14NRF24L01DriverPKh:0000000000000000 $t
/var/folders/m4/4md61f0s1_g0rzfghffqnxvr0000gn/T//cchEhHjd.s:892    .text._Z20nrf24l01SetTXAddressP14NRF24L01DriverPKh:0000000000000000 _Z20nrf24l01SetTXAddressP14NRF24L01DriverPKh
/var/folders/m4/4md61f0s1_g0rzfghffqnxvr0000gn/T//cchEhHjd.s:934    .text._Z22nrf24l01SetPayloadSizeP14NRF24L01Driverhh:0000000000000000 $t
/var/folders/m4/4md61f0s1_g0rzfghffqnxvr0000gn/T//cchEhHjd.s:940    .text._Z22nrf24l01SetPayloadSizeP14NRF24L01Driverhh:0000000000000000 _Z22nrf24l01SetPayloadSizeP14NRF24L01Driverhh
/var/folders/m4/4md61f0s1_g0rzfghffqnxvr0000gn/T//cchEhHjd.s:973    .text._Z21nrf24l01GetFIFOStatusP14NRF24L01Driver:0000000000000000 $t
/var/folders/m4/4md61f0s1_g0rzfghffqnxvr0000gn/T//cchEhHjd.s:979    .text._Z21nrf24l01GetFIFOStatusP14NRF24L01Driver:0000000000000000 _Z21nrf24l01GetFIFOStatusP14NRF24L01Driver
/var/folders/m4/4md61f0s1_g0rzfghffqnxvr0000gn/T//cchEhHjd.s:995    .text._Z29nrf24l01EnableDynamicPipeSizeP14NRF24L01Driverh:0000000000000000 $t
/var/folders/m4/4md61f0s1_g0rzfghffqnxvr0000gn/T//cchEhHjd.s:1001   .text._Z29nrf24l01EnableDynamicPipeSizeP14NRF24L01Driverh:0000000000000000 _Z29nrf24l01EnableDynamicPipeSizeP14NRF24L01Driverh
/var/folders/m4/4md61f0s1_g0rzfghffqnxvr0000gn/T//cchEhHjd.s:1047   .text._Z26nrf24l01DisableDynamicSizeP14NRF24L01Driver:0000000000000000 $t
/var/folders/m4/4md61f0s1_g0rzfghffqnxvr0000gn/T//cchEhHjd.s:1053   .text._Z26nrf24l01DisableDynamicSizeP14NRF24L01Driver:0000000000000000 _Z26nrf24l01DisableDynamicSizeP14NRF24L01Driver
/var/folders/m4/4md61f0s1_g0rzfghffqnxvr0000gn/T//cchEhHjd.s:1089   .text._Z30nrf24l01DisableDynamicPipeSizeP14NRF24L01Driverh:0000000000000000 $t
/var/folders/m4/4md61f0s1_g0rzfghffqnxvr0000gn/T//cchEhHjd.s:1095   .text._Z30nrf24l01DisableDynamicPipeSizeP14NRF24L01Driverh:0000000000000000 _Z30nrf24l01DisableDynamicPipeSizeP14NRF24L01Driverh
/var/folders/m4/4md61f0s1_g0rzfghffqnxvr0000gn/T//cchEhHjd.s:1141   .text._Z19nrf24l01ReadPayloadP14NRF24L01DriverhPhS1_:0000000000000000 $t
/var/folders/m4/4md61f0s1_g0rzfghffqnxvr0000gn/T//cchEhHjd.s:1147   .text._Z19nrf24l01ReadPayloadP14NRF24L01DriverhPhS1_:0000000000000000 _Z19nrf24l01ReadPayloadP14NRF24L01DriverhPhS1_
/var/folders/m4/4md61f0s1_g0rzfghffqnxvr0000gn/T//cchEhHjd.s:1166   .text._Z20nrf24l01WritePayloadP14NRF24L01DriverhPKh:0000000000000000 $t
/var/folders/m4/4md61f0s1_g0rzfghffqnxvr0000gn/T//cchEhHjd.s:1172   .text._Z20nrf24l01WritePayloadP14NRF24L01DriverhPKh:0000000000000000 _Z20nrf24l01WritePayloadP14NRF24L01DriverhPKh
/var/folders/m4/4md61f0s1_g0rzfghffqnxvr0000gn/T//cchEhHjd.s:1191   .text._Z22nrf24l01ToggleFeaturesP14NRF24L01Driver:0000000000000000 $t
/var/folders/m4/4md61f0s1_g0rzfghffqnxvr0000gn/T//cchEhHjd.s:1197   .text._Z22nrf24l01ToggleFeaturesP14NRF24L01Driver:0000000000000000 _Z22nrf24l01ToggleFeaturesP14NRF24L01Driver
/var/folders/m4/4md61f0s1_g0rzfghffqnxvr0000gn/T//cchEhHjd.s:1247   .text._Z22nrf24l01ToggleFeaturesP14NRF24L01Driver:0000000000000034 $d
/var/folders/m4/4md61f0s1_g0rzfghffqnxvr0000gn/T//cchEhHjd.s:1252   .text._Z25nrf24l01EnableDynamicSizeP14NRF24L01Driver:0000000000000000 $t
/var/folders/m4/4md61f0s1_g0rzfghffqnxvr0000gn/T//cchEhHjd.s:1258   .text._Z25nrf24l01EnableDynamicSizeP14NRF24L01Driver:0000000000000000 _Z25nrf24l01EnableDynamicSizeP14NRF24L01Driver
ARM GAS  /var/folders/m4/4md61f0s1_g0rzfghffqnxvr0000gn/T//cchEhHjd.s 			page 261


/var/folders/m4/4md61f0s1_g0rzfghffqnxvr0000gn/T//cchEhHjd.s:1329   .text._Z15nrf24l01FlushRXP14NRF24L01Driver:0000000000000000 $t
/var/folders/m4/4md61f0s1_g0rzfghffqnxvr0000gn/T//cchEhHjd.s:1335   .text._Z15nrf24l01FlushRXP14NRF24L01Driver:0000000000000000 _Z15nrf24l01FlushRXP14NRF24L01Driver
/var/folders/m4/4md61f0s1_g0rzfghffqnxvr0000gn/T//cchEhHjd.s:1383   .text._Z15nrf24l01FlushTXP14NRF24L01Driver:0000000000000000 $t
/var/folders/m4/4md61f0s1_g0rzfghffqnxvr0000gn/T//cchEhHjd.s:1389   .text._Z15nrf24l01FlushTXP14NRF24L01Driver:0000000000000000 _Z15nrf24l01FlushTXP14NRF24L01Driver
/var/folders/m4/4md61f0s1_g0rzfghffqnxvr0000gn/T//cchEhHjd.s:1437   .text._Z12initNRF24L01v:0000000000000000 $t
/var/folders/m4/4md61f0s1_g0rzfghffqnxvr0000gn/T//cchEhHjd.s:1443   .text._Z12initNRF24L01v:0000000000000000 _Z12initNRF24L01v
/var/folders/m4/4md61f0s1_g0rzfghffqnxvr0000gn/T//cchEhHjd.s:1628   .text._Z12initNRF24L01v:00000000000000c0 $d
/var/folders/m4/4md61f0s1_g0rzfghffqnxvr0000gn/T//cchEhHjd.s:1644   .text._Z15nrf24l01GetSizeP14NRF24L01Driver:0000000000000000 $t
/var/folders/m4/4md61f0s1_g0rzfghffqnxvr0000gn/T//cchEhHjd.s:1650   .text._Z15nrf24l01GetSizeP14NRF24L01Driver:0000000000000000 _Z15nrf24l01GetSizeP14NRF24L01Driver
/var/folders/m4/4md61f0s1_g0rzfghffqnxvr0000gn/T//cchEhHjd.s:1705   .text._Z15nrf24l01EnterRXP14NRF24L01Driver:0000000000000000 $t
/var/folders/m4/4md61f0s1_g0rzfghffqnxvr0000gn/T//cchEhHjd.s:1711   .text._Z15nrf24l01EnterRXP14NRF24L01Driver:0000000000000000 _Z15nrf24l01EnterRXP14NRF24L01Driver
/var/folders/m4/4md61f0s1_g0rzfghffqnxvr0000gn/T//cchEhHjd.s:1761   .text._ZL5readtPvPhjm:0000000000000000 $t
/var/folders/m4/4md61f0s1_g0rzfghffqnxvr0000gn/T//cchEhHjd.s:1766   .text._ZL5readtPvPhjm:0000000000000000 _ZL5readtPvPhjm
/var/folders/m4/4md61f0s1_g0rzfghffqnxvr0000gn/T//cchEhHjd.s:2312   .text._ZL4gettPvm:0000000000000000 $t
/var/folders/m4/4md61f0s1_g0rzfghffqnxvr0000gn/T//cchEhHjd.s:2317   .text._ZL4gettPvm:0000000000000000 _ZL4gettPvm
/var/folders/m4/4md61f0s1_g0rzfghffqnxvr0000gn/T//cchEhHjd.s:2430   .text._ZL3getPv:0000000000000000 $t
/var/folders/m4/4md61f0s1_g0rzfghffqnxvr0000gn/T//cchEhHjd.s:2435   .text._ZL3getPv:0000000000000000 _ZL3getPv
/var/folders/m4/4md61f0s1_g0rzfghffqnxvr0000gn/T//cchEhHjd.s:2451   .text._ZL4readPvPhj:0000000000000000 $t
/var/folders/m4/4md61f0s1_g0rzfghffqnxvr0000gn/T//cchEhHjd.s:2456   .text._ZL4readPvPhj:0000000000000000 _ZL4readPvPhj
/var/folders/m4/4md61f0s1_g0rzfghffqnxvr0000gn/T//cchEhHjd.s:2472   .text._Z15nrf24l01EnterTXP14NRF24L01Driver:0000000000000000 $t
/var/folders/m4/4md61f0s1_g0rzfghffqnxvr0000gn/T//cchEhHjd.s:2478   .text._Z15nrf24l01EnterTXP14NRF24L01Driver:0000000000000000 _Z15nrf24l01EnterTXP14NRF24L01Driver
/var/folders/m4/4md61f0s1_g0rzfghffqnxvr0000gn/T//cchEhHjd.s:2527   .text._ZL6writetPvPKhjm:0000000000000000 $t
/var/folders/m4/4md61f0s1_g0rzfghffqnxvr0000gn/T//cchEhHjd.s:2532   .text._ZL6writetPvPKhjm:0000000000000000 _ZL6writetPvPKhjm
/var/folders/m4/4md61f0s1_g0rzfghffqnxvr0000gn/T//cchEhHjd.s:2778   .text._ZL4puttPvhm:0000000000000000 $t
/var/folders/m4/4md61f0s1_g0rzfghffqnxvr0000gn/T//cchEhHjd.s:2783   .text._ZL4puttPvhm:0000000000000000 _ZL4puttPvhm
/var/folders/m4/4md61f0s1_g0rzfghffqnxvr0000gn/T//cchEhHjd.s:2821   .text._ZL3putPvh:0000000000000000 $t
/var/folders/m4/4md61f0s1_g0rzfghffqnxvr0000gn/T//cchEhHjd.s:2826   .text._ZL3putPvh:0000000000000000 _ZL3putPvh
/var/folders/m4/4md61f0s1_g0rzfghffqnxvr0000gn/T//cchEhHjd.s:2866   .text._ZL5writePvPKhj:0000000000000000 $t
/var/folders/m4/4md61f0s1_g0rzfghffqnxvr0000gn/T//cchEhHjd.s:2871   .text._ZL5writePvPKhj:0000000000000000 _ZL5writePvPKhj
/var/folders/m4/4md61f0s1_g0rzfghffqnxvr0000gn/T//cchEhHjd.s:2887   .text._Z20nrf24l01EnterStandbyP14NRF24L01Driver:0000000000000000 $t
/var/folders/m4/4md61f0s1_g0rzfghffqnxvr0000gn/T//cchEhHjd.s:2893   .text._Z20nrf24l01EnterStandbyP14NRF24L01Driver:0000000000000000 _Z20nrf24l01EnterStandbyP14NRF24L01Driver
/var/folders/m4/4md61f0s1_g0rzfghffqnxvr0000gn/T//cchEhHjd.s:2914   .text._Z19nrf24l01EnablePipesP14NRF24L01Driverh:0000000000000000 $t
/var/folders/m4/4md61f0s1_g0rzfghffqnxvr0000gn/T//cchEhHjd.s:2920   .text._Z19nrf24l01EnablePipesP14NRF24L01Driverh:0000000000000000 _Z19nrf24l01EnablePipesP14NRF24L01Driverh
/var/folders/m4/4md61f0s1_g0rzfghffqnxvr0000gn/T//cchEhHjd.s:2966   .text._Z14nrf24l01ExtIRQP14NRF24L01Driver:0000000000000000 $t
/var/folders/m4/4md61f0s1_g0rzfghffqnxvr0000gn/T//cchEhHjd.s:2972   .text._Z14nrf24l01ExtIRQP14NRF24L01Driver:0000000000000000 _Z14nrf24l01ExtIRQP14NRF24L01Driver
/var/folders/m4/4md61f0s1_g0rzfghffqnxvr0000gn/T//cchEhHjd.s:3126   .bss.nrf24l01:0000000000000000 nrf24l01
/var/folders/m4/4md61f0s1_g0rzfghffqnxvr0000gn/T//cchEhHjd.s:3033   .rodata:0000000000000000 $d
/var/folders/m4/4md61f0s1_g0rzfghffqnxvr0000gn/T//cchEhHjd.s:3039   .rodata._ZL4addr:0000000000000000 $d
/var/folders/m4/4md61f0s1_g0rzfghffqnxvr0000gn/T//cchEhHjd.s:3043   .rodata._ZL4addr:0000000000000000 _ZL4addr
/var/folders/m4/4md61f0s1_g0rzfghffqnxvr0000gn/T//cchEhHjd.s:3046   .rodata._ZL6extcfg:0000000000000000 $d
/var/folders/m4/4md61f0s1_g0rzfghffqnxvr0000gn/T//cchEhHjd.s:3050   .rodata._ZL6extcfg:0000000000000000 _ZL6extcfg
/var/folders/m4/4md61f0s1_g0rzfghffqnxvr0000gn/T//cchEhHjd.s:3098   .rodata._ZL14nrf24l01Config:0000000000000000 $d
/var/folders/m4/4md61f0s1_g0rzfghffqnxvr0000gn/T//cchEhHjd.s:3102   .rodata._ZL14nrf24l01Config:0000000000000000 _ZL14nrf24l01Config
/var/folders/m4/4md61f0s1_g0rzfghffqnxvr0000gn/T//cchEhHjd.s:3108   .rodata._ZL3vmt:0000000000000000 $d
/var/folders/m4/4md61f0s1_g0rzfghffqnxvr0000gn/T//cchEhHjd.s:3112   .rodata._ZL3vmt:0000000000000000 _ZL3vmt
/var/folders/m4/4md61f0s1_g0rzfghffqnxvr0000gn/T//cchEhHjd.s:3122   .bss.nrf24l01:0000000000000000 $d
/var/folders/m4/4md61f0s1_g0rzfghffqnxvr0000gn/T//cchEhHjd.s:3129   .rodata._ZL11nrf24l01SPI:0000000000000000 $d
/var/folders/m4/4md61f0s1_g0rzfghffqnxvr0000gn/T//cchEhHjd.s:3133   .rodata._ZL11nrf24l01SPI:0000000000000000 _ZL11nrf24l01SPI
                     .debug_frame:0000000000000010 $d

UNDEFINED SYMBOLS
chEvtBroadcastFlagsI
spiSelect
spiExchange
spiReceive
spiUnselect
spiSend
ARM GAS  /var/folders/m4/4md61f0s1_g0rzfghffqnxvr0000gn/T//cchEhHjd.s 			page 262


_pal_lld_setgroupmode
spiStart
extStart
extChannelEnable
SPID1
EXTD1
chEvtRegisterMaskWithFlags
chEvtUnregister
chEvtBroadcastFlags
chEvtWaitOneTimeout
