ARM GAS  /var/folders/m4/4md61f0s1_g0rzfghffqnxvr0000gn/T//ccHVf8ER.s 			page 1


   1              		.syntax unified
   2              		.cpu cortex-m4
   3              		.eabi_attribute 27, 1
   4              		.eabi_attribute 28, 1
   5              		.fpu fpv4-sp-d16
   6              		.eabi_attribute 20, 1
   7              		.eabi_attribute 21, 1
   8              		.eabi_attribute 23, 3
   9              		.eabi_attribute 24, 1
  10              		.eabi_attribute 25, 1
  11              		.eabi_attribute 26, 1
  12              		.eabi_attribute 30, 2
  13              		.eabi_attribute 34, 1
  14              		.eabi_attribute 18, 4
  15              		.thumb
  16              		.file	"nrf24l01.c"
  17              		.text
  18              	.Ltext0:
  19              		.cfi_sections	.debug_frame
  20              		.section	.text.nrfExtCallback,"ax",%progbits
  21              		.align	2
  22              		.p2align 4,,15
  23              		.thumb
  24              		.thumb_func
  25              		.type	nrfExtCallback, %function
  26              	nrfExtCallback:
  27              	.LFB268:
  28              		.file 1 "nrf24l01.c"
  29              		.loc 1 25 0
  30              		.cfi_startproc
  31              		@ args = 0, pretend = 0, frame = 0
  32              		@ frame_needed = 0, uses_anonymous_args = 0
  33              	.LVL0:
  34 0000 08B5     		push	{r3, lr}
  35              		.cfi_def_cfa_offset 8
  36              		.cfi_offset 3, -8
  37              		.cfi_offset 14, -4
  38              	.LBB110:
  39              	.LBB111:
  40              	.LBB112:
  41              	.LBB113:
  42              	.LBB114:
  43              	.LBB115:
  44              	.LBB116:
  45              		.file 2 "ChibiOS_16.1.4/os/ext/CMSIS/include/core_cmFunc.h"
  46              		.loc 2 548 0
  47 0002 2023     		movs	r3, #32
  48              	@ 548 "ChibiOS_16.1.4/os/ext/CMSIS/include/core_cmFunc.h" 1
  49 0004 83F31188 		MSR basepri, r3
  50              	@ 0 "" 2
  51              		.thumb
  52              	.LBE116:
  53              	.LBE115:
  54              	.LBE114:
  55              	.LBE113:
  56              	.LBE112:
  57              		.loc 1 584 0
ARM GAS  /var/folders/m4/4md61f0s1_g0rzfghffqnxvr0000gn/T//ccHVf8ER.s 			page 2


  58 0008 0348     		ldr	r0, .L3
  59              	.LVL1:
  60 000a 0121     		movs	r1, #1
  61              	.LVL2:
  62 000c FFF7FEFF 		bl	chEvtBroadcastFlagsI
  63              	.LVL3:
  64              	.LBB117:
  65              	.LBB118:
  66              	.LBB119:
  67              	.LBB120:
  68              	.LBB121:
  69              		.loc 2 548 0
  70 0010 0023     		movs	r3, #0
  71              	@ 548 "ChibiOS_16.1.4/os/ext/CMSIS/include/core_cmFunc.h" 1
  72 0012 83F31188 		MSR basepri, r3
  73              	@ 0 "" 2
  74              		.thumb
  75 0016 08BD     		pop	{r3, pc}
  76              	.L4:
  77              		.align	2
  78              	.L3:
  79 0018 20010000 		.word	.LANCHOR0+288
  80              	.LBE121:
  81              	.LBE120:
  82              	.LBE119:
  83              	.LBE118:
  84              	.LBE117:
  85              	.LBE111:
  86              	.LBE110:
  87              		.cfi_endproc
  88              	.LFE268:
  89              		.size	nrfExtCallback, .-nrfExtCallback
  90              		.section	.text.nrf24l01ReadPayload.part.2,"ax",%progbits
  91              		.align	2
  92              		.p2align 4,,15
  93              		.thumb
  94              		.thumb_func
  95              		.type	nrf24l01ReadPayload.part.2, %function
  96              	nrf24l01ReadPayload.part.2:
  97              	.LFB311:
  98              		.loc 1 479 0
  99              		.cfi_startproc
 100              		@ args = 0, pretend = 0, frame = 8
 101              		@ frame_needed = 0, uses_anonymous_args = 0
 102              	.LVL4:
 103 0000 2DE9F041 		push	{r4, r5, r6, r7, r8, lr}
 104              		.cfi_def_cfa_offset 24
 105              		.cfi_offset 4, -24
 106              		.cfi_offset 5, -20
 107              		.cfi_offset 6, -16
 108              		.cfi_offset 7, -12
 109              		.cfi_offset 8, -8
 110              		.cfi_offset 14, -4
 111 0004 82B0     		sub	sp, sp, #8
 112              		.cfi_def_cfa_offset 32
 113              		.loc 1 484 0
 114 0006 02AD     		add	r5, sp, #8
ARM GAS  /var/folders/m4/4md61f0s1_g0rzfghffqnxvr0000gn/T//ccHVf8ER.s 			page 3


 115 0008 6126     		movs	r6, #97
 116              		.loc 1 479 0
 117 000a 0446     		mov	r4, r0
 118              		.loc 1 484 0
 119 000c 05F8026D 		strb	r6, [r5, #-2]!
 120              		.loc 1 487 0
 121 0010 D0F82401 		ldr	r0, [r0, #292]
 122              	.LVL5:
 123 0014 0068     		ldr	r0, [r0]
 124              		.loc 1 479 0
 125 0016 8846     		mov	r8, r1
 126 0018 1746     		mov	r7, r2
 127 001a 1E46     		mov	r6, r3
 128              		.loc 1 487 0
 129 001c FFF7FEFF 		bl	spiSelect
 130              	.LVL6:
 131              		.loc 1 488 0
 132 0020 D4F82431 		ldr	r3, [r4, #292]
 133 0024 2A46     		mov	r2, r5
 134 0026 1868     		ldr	r0, [r3]
 135 0028 0121     		movs	r1, #1
 136 002a 0DF10703 		add	r3, sp, #7
 137 002e FFF7FEFF 		bl	spiExchange
 138              	.LVL7:
 139              		.loc 1 489 0
 140 0032 D4F82431 		ldr	r3, [r4, #292]
 141 0036 4146     		mov	r1, r8
 142 0038 3A46     		mov	r2, r7
 143 003a 1868     		ldr	r0, [r3]
 144 003c FFF7FEFF 		bl	spiReceive
 145              	.LVL8:
 146              		.loc 1 490 0
 147 0040 D4F82431 		ldr	r3, [r4, #292]
 148 0044 1868     		ldr	r0, [r3]
 149 0046 FFF7FEFF 		bl	spiUnselect
 150              	.LVL9:
 151              		.loc 1 492 0
 152 004a 9DF80730 		ldrb	r3, [sp, #7]	@ zero_extendqisi2
 153 004e C3F34203 		ubfx	r3, r3, #1, #3
 154 0052 3370     		strb	r3, [r6]
 155              		.loc 1 493 0
 156 0054 02B0     		add	sp, sp, #8
 157              		.cfi_def_cfa_offset 24
 158              		@ sp needed
 159 0056 BDE8F081 		pop	{r4, r5, r6, r7, r8, pc}
 160              		.cfi_endproc
 161              	.LFE311:
 162              		.size	nrf24l01ReadPayload.part.2, .-nrf24l01ReadPayload.part.2
 163 005a 00BF     		.section	.text.nrf24l01WritePayload.part.3,"ax",%progbits
 164              		.align	2
 165              		.p2align 4,,15
 166              		.thumb
 167              		.thumb_func
 168              		.type	nrf24l01WritePayload.part.3, %function
 169              	nrf24l01WritePayload.part.3:
 170              	.LFB312:
 171              		.loc 1 495 0
ARM GAS  /var/folders/m4/4md61f0s1_g0rzfghffqnxvr0000gn/T//ccHVf8ER.s 			page 4


 172              		.cfi_startproc
 173              		@ args = 0, pretend = 0, frame = 8
 174              		@ frame_needed = 0, uses_anonymous_args = 0
 175              	.LVL10:
 176 0000 F0B5     		push	{r4, r5, r6, r7, lr}
 177              		.cfi_def_cfa_offset 20
 178              		.cfi_offset 4, -20
 179              		.cfi_offset 5, -16
 180              		.cfi_offset 6, -12
 181              		.cfi_offset 7, -8
 182              		.cfi_offset 14, -4
 183 0002 83B0     		sub	sp, sp, #12
 184              		.cfi_def_cfa_offset 32
 185              		.loc 1 495 0
 186 0004 0446     		mov	r4, r0
 187              		.loc 1 500 0
 188 0006 02AD     		add	r5, sp, #8
 189 0008 A020     		movs	r0, #160
 190              	.LVL11:
 191              		.loc 1 502 0
 192 000a D4F82431 		ldr	r3, [r4, #292]
 193              		.loc 1 500 0
 194 000e 05F8010D 		strb	r0, [r5, #-1]!
 195              		.loc 1 502 0
 196 0012 1868     		ldr	r0, [r3]
 197              		.loc 1 495 0
 198 0014 0F46     		mov	r7, r1
 199 0016 1646     		mov	r6, r2
 200              		.loc 1 502 0
 201 0018 FFF7FEFF 		bl	spiSelect
 202              	.LVL12:
 203              		.loc 1 503 0
 204 001c D4F82431 		ldr	r3, [r4, #292]
 205 0020 2A46     		mov	r2, r5
 206 0022 1868     		ldr	r0, [r3]
 207 0024 0121     		movs	r1, #1
 208 0026 FFF7FEFF 		bl	spiSend
 209              	.LVL13:
 210              		.loc 1 504 0
 211 002a D4F82431 		ldr	r3, [r4, #292]
 212 002e 3946     		mov	r1, r7
 213 0030 3246     		mov	r2, r6
 214 0032 1868     		ldr	r0, [r3]
 215 0034 FFF7FEFF 		bl	spiSend
 216              	.LVL14:
 217              		.loc 1 505 0
 218 0038 D4F82431 		ldr	r3, [r4, #292]
 219 003c 1868     		ldr	r0, [r3]
 220 003e FFF7FEFF 		bl	spiUnselect
 221              	.LVL15:
 222              		.loc 1 506 0
 223 0042 03B0     		add	sp, sp, #12
 224              		.cfi_def_cfa_offset 20
 225              		@ sp needed
 226 0044 F0BD     		pop	{r4, r5, r6, r7, pc}
 227              		.cfi_endproc
 228              	.LFE312:
ARM GAS  /var/folders/m4/4md61f0s1_g0rzfghffqnxvr0000gn/T//ccHVf8ER.s 			page 5


 229              		.size	nrf24l01WritePayload.part.3, .-nrf24l01WritePayload.part.3
 230 0046 00BF     		.section	.text.nrf24l01ObjectInit,"ax",%progbits
 231              		.align	2
 232              		.p2align 4,,15
 233              		.global	nrf24l01ObjectInit
 234              		.thumb
 235              		.thumb_func
 236              		.type	nrf24l01ObjectInit, %function
 237              	nrf24l01ObjectInit:
 238              	.LFB278:
 239              		.loc 1 311 0
 240              		.cfi_startproc
 241              		@ args = 0, pretend = 0, frame = 0
 242              		@ frame_needed = 0, uses_anonymous_args = 0
 243              		@ link register save eliminated.
 244              	.LVL16:
 245 0000 10B4     		push	{r4}
 246              		.cfi_def_cfa_offset 4
 247              		.cfi_offset 4, -4
 248 0002 0B4C     		ldr	r4, .L14
 249 0004 00F12C03 		add	r3, r0, #44
 250 0008 00F5A671 		add	r1, r0, #332
 251              	.LBB122:
 252              		.loc 1 315 0
 253 000c 0022     		movs	r2, #0
 254              	.LVL17:
 255              	.L10:
 256              		.loc 1 314 0 discriminator 3
 257 000e 43F82C4C 		str	r4, [r3, #-44]
 258              		.loc 1 315 0 discriminator 3
 259 0012 03F8042C 		strb	r2, [r3, #-4]
 260              		.loc 1 316 0 discriminator 3
 261 0016 43F8280C 		str	r0, [r3, #-40]
 262              	.LVL18:
 263              	.LBB123:
 264              	.LBB124:
 265              		.file 3 "ChibiOS_16.1.4/os/rt/include/chevents.h"
 266              		.loc 3 172 0 discriminator 3
 267 001a 1B60     		str	r3, [r3]
 268 001c 3033     		adds	r3, r3, #48
 269              	.LVL19:
 270              	.LBE124:
 271              	.LBE123:
 272              		.loc 1 312 0 discriminator 3
 273 001e 8B42     		cmp	r3, r1
 274 0020 F5D1     		bne	.L10
 275              	.LVL20:
 276              	.LBE122:
 277              		.loc 1 320 0
 278 0022 00F59073 		add	r3, r0, #288
 279              	.LVL21:
 280              	.LBB125:
 281              	.LBB126:
 282              		.loc 3 172 0
 283 0026 C0F82031 		str	r3, [r0, #288]
 284              	.LBE126:
 285              	.LBE125:
ARM GAS  /var/folders/m4/4md61f0s1_g0rzfghffqnxvr0000gn/T//ccHVf8ER.s 			page 6


 286              		.loc 1 321 0
 287 002a 5DF8044B 		ldr	r4, [sp], #4
 288              		.cfi_restore 4
 289              		.cfi_def_cfa_offset 0
 290 002e 7047     		bx	lr
 291              	.L15:
 292              		.align	2
 293              	.L14:
 294 0030 00000000 		.word	.LANCHOR1
 295              		.cfi_endproc
 296              	.LFE278:
 297              		.size	nrf24l01ObjectInit, .-nrf24l01ObjectInit
 298              		.section	.text.nrf24l01Start,"ax",%progbits
 299              		.align	2
 300              		.p2align 4,,15
 301              		.global	nrf24l01Start
 302              		.thumb
 303              		.thumb_func
 304              		.type	nrf24l01Start, %function
 305              	nrf24l01Start:
 306              	.LFB279:
 307              		.loc 1 324 0
 308              		.cfi_startproc
 309              		@ args = 0, pretend = 0, frame = 0
 310              		@ frame_needed = 0, uses_anonymous_args = 0
 311              		@ link register save eliminated.
 312              	.LVL22:
 313              		.loc 1 325 0
 314 0000 C0F82411 		str	r1, [r0, #292]
 315 0004 7047     		bx	lr
 316              		.cfi_endproc
 317              	.LFE279:
 318              		.size	nrf24l01Start, .-nrf24l01Start
 319 0006 00BF     		.section	.text.nrf24l01WriteRegister,"ax",%progbits
 320              		.align	2
 321              		.p2align 4,,15
 322              		.global	nrf24l01WriteRegister
 323              		.thumb
 324              		.thumb_func
 325              		.type	nrf24l01WriteRegister, %function
 326              	nrf24l01WriteRegister:
 327              	.LFB280:
 328              		.loc 1 329 0
 329              		.cfi_startproc
 330              		@ args = 0, pretend = 0, frame = 8
 331              		@ frame_needed = 0, uses_anonymous_args = 0
 332              	.LVL23:
 333 0000 10B5     		push	{r4, lr}
 334              		.cfi_def_cfa_offset 8
 335              		.cfi_offset 4, -8
 336              		.cfi_offset 14, -4
 337              		.loc 1 330 0
 338 0002 01F01F01 		and	r1, r1, #31
 339              	.LVL24:
 340              		.loc 1 329 0
 341 0006 82B0     		sub	sp, sp, #8
 342              		.cfi_def_cfa_offset 16
ARM GAS  /var/folders/m4/4md61f0s1_g0rzfghffqnxvr0000gn/T//ccHVf8ER.s 			page 7


 343              		.loc 1 330 0
 344 0008 41F02001 		orr	r1, r1, #32
 345              		.loc 1 332 0
 346 000c D0F82431 		ldr	r3, [r0, #292]
 347              		.loc 1 330 0
 348 0010 8DF80410 		strb	r1, [sp, #4]
 349              		.loc 1 329 0
 350 0014 0446     		mov	r4, r0
 351              		.loc 1 330 0
 352 0016 8DF80520 		strb	r2, [sp, #5]
 353              		.loc 1 332 0
 354 001a 1868     		ldr	r0, [r3]
 355              	.LVL25:
 356 001c FFF7FEFF 		bl	spiSelect
 357              	.LVL26:
 358              		.loc 1 333 0
 359 0020 D4F82431 		ldr	r3, [r4, #292]
 360 0024 0221     		movs	r1, #2
 361 0026 1868     		ldr	r0, [r3]
 362 0028 01AA     		add	r2, sp, #4
 363 002a FFF7FEFF 		bl	spiSend
 364              	.LVL27:
 365              		.loc 1 334 0
 366 002e D4F82431 		ldr	r3, [r4, #292]
 367 0032 1868     		ldr	r0, [r3]
 368 0034 FFF7FEFF 		bl	spiUnselect
 369              	.LVL28:
 370              		.loc 1 335 0
 371 0038 02B0     		add	sp, sp, #8
 372              		.cfi_def_cfa_offset 8
 373              		@ sp needed
 374 003a 10BD     		pop	{r4, pc}
 375              		.cfi_endproc
 376              	.LFE280:
 377              		.size	nrf24l01WriteRegister, .-nrf24l01WriteRegister
 378              		.section	.text.nrf24l01ReadRegister,"ax",%progbits
 379              		.align	2
 380              		.p2align 4,,15
 381              		.global	nrf24l01ReadRegister
 382              		.thumb
 383              		.thumb_func
 384              		.type	nrf24l01ReadRegister, %function
 385              	nrf24l01ReadRegister:
 386              	.LFB281:
 387              		.loc 1 338 0
 388              		.cfi_startproc
 389              		@ args = 0, pretend = 0, frame = 8
 390              		@ frame_needed = 0, uses_anonymous_args = 0
 391              	.LVL29:
 392 0000 10B5     		push	{r4, lr}
 393              		.cfi_def_cfa_offset 8
 394              		.cfi_offset 4, -8
 395              		.cfi_offset 14, -4
 396 0002 82B0     		sub	sp, sp, #8
 397              		.cfi_def_cfa_offset 16
 398              		.loc 1 339 0
 399 0004 0023     		movs	r3, #0
ARM GAS  /var/folders/m4/4md61f0s1_g0rzfghffqnxvr0000gn/T//ccHVf8ER.s 			page 8


 400 0006 01F01F01 		and	r1, r1, #31
 401              	.LVL30:
 402              		.loc 1 342 0
 403 000a D0F82421 		ldr	r2, [r0, #292]
 404              		.loc 1 339 0
 405 000e 8DF80010 		strb	r1, [sp]
 406              		.loc 1 338 0
 407 0012 0446     		mov	r4, r0
 408              		.loc 1 339 0
 409 0014 8DF80130 		strb	r3, [sp, #1]
 410              		.loc 1 340 0
 411 0018 8DF80430 		strb	r3, [sp, #4]
 412 001c 8DF80530 		strb	r3, [sp, #5]
 413              		.loc 1 342 0
 414 0020 1068     		ldr	r0, [r2]
 415              	.LVL31:
 416 0022 FFF7FEFF 		bl	spiSelect
 417              	.LVL32:
 418              		.loc 1 343 0
 419 0026 D4F82431 		ldr	r3, [r4, #292]
 420 002a 0221     		movs	r1, #2
 421 002c 1868     		ldr	r0, [r3]
 422 002e 6A46     		mov	r2, sp
 423 0030 01AB     		add	r3, sp, #4
 424 0032 FFF7FEFF 		bl	spiExchange
 425              	.LVL33:
 426              		.loc 1 344 0
 427 0036 D4F82431 		ldr	r3, [r4, #292]
 428 003a 1868     		ldr	r0, [r3]
 429 003c FFF7FEFF 		bl	spiUnselect
 430              	.LVL34:
 431              		.loc 1 347 0
 432 0040 9DF80500 		ldrb	r0, [sp, #5]	@ zero_extendqisi2
 433 0044 02B0     		add	sp, sp, #8
 434              		.cfi_def_cfa_offset 8
 435              		@ sp needed
 436 0046 10BD     		pop	{r4, pc}
 437              		.cfi_endproc
 438              	.LFE281:
 439              		.size	nrf24l01ReadRegister, .-nrf24l01ReadRegister
 440              		.section	.text.nrf24l01WriteAddressRegister,"ax",%progbits
 441              		.align	2
 442              		.p2align 4,,15
 443              		.global	nrf24l01WriteAddressRegister
 444              		.thumb
 445              		.thumb_func
 446              		.type	nrf24l01WriteAddressRegister, %function
 447              	nrf24l01WriteAddressRegister:
 448              	.LFB282:
 449              		.loc 1 350 0
 450              		.cfi_startproc
 451              		@ args = 0, pretend = 0, frame = 8
 452              		@ frame_needed = 0, uses_anonymous_args = 0
 453              	.LVL35:
 454 0000 70B5     		push	{r4, r5, r6, lr}
 455              		.cfi_def_cfa_offset 16
 456              		.cfi_offset 4, -16
ARM GAS  /var/folders/m4/4md61f0s1_g0rzfghffqnxvr0000gn/T//ccHVf8ER.s 			page 9


 457              		.cfi_offset 5, -12
 458              		.cfi_offset 6, -8
 459              		.cfi_offset 14, -4
 460 0002 82B0     		sub	sp, sp, #8
 461              		.cfi_def_cfa_offset 24
 462              		.loc 1 351 0
 463 0004 02AD     		add	r5, sp, #8
 464 0006 01F01F01 		and	r1, r1, #31
 465              	.LVL36:
 466 000a 41F02001 		orr	r1, r1, #32
 467 000e 05F8011D 		strb	r1, [r5, #-1]!
 468              		.loc 1 353 0
 469 0012 D0F82431 		ldr	r3, [r0, #292]
 470              		.loc 1 350 0
 471 0016 0446     		mov	r4, r0
 472              		.loc 1 353 0
 473 0018 1868     		ldr	r0, [r3]
 474              	.LVL37:
 475              		.loc 1 350 0
 476 001a 1646     		mov	r6, r2
 477              		.loc 1 353 0
 478 001c FFF7FEFF 		bl	spiSelect
 479              	.LVL38:
 480              		.loc 1 354 0
 481 0020 D4F82431 		ldr	r3, [r4, #292]
 482 0024 2A46     		mov	r2, r5
 483 0026 1868     		ldr	r0, [r3]
 484 0028 0121     		movs	r1, #1
 485 002a FFF7FEFF 		bl	spiSend
 486              	.LVL39:
 487              		.loc 1 355 0
 488 002e D4F82431 		ldr	r3, [r4, #292]
 489 0032 3246     		mov	r2, r6
 490 0034 1868     		ldr	r0, [r3]
 491 0036 0521     		movs	r1, #5
 492 0038 FFF7FEFF 		bl	spiSend
 493              	.LVL40:
 494              		.loc 1 356 0
 495 003c D4F82431 		ldr	r3, [r4, #292]
 496 0040 1868     		ldr	r0, [r3]
 497 0042 FFF7FEFF 		bl	spiUnselect
 498              	.LVL41:
 499              		.loc 1 357 0
 500 0046 02B0     		add	sp, sp, #8
 501              		.cfi_def_cfa_offset 16
 502              		@ sp needed
 503 0048 70BD     		pop	{r4, r5, r6, pc}
 504              		.cfi_endproc
 505              	.LFE282:
 506              		.size	nrf24l01WriteAddressRegister, .-nrf24l01WriteAddressRegister
 507 004a 00BF     		.section	.text.nrf24l01ReadAddressRegister,"ax",%progbits
 508              		.align	2
 509              		.p2align 4,,15
 510              		.global	nrf24l01ReadAddressRegister
 511              		.thumb
 512              		.thumb_func
 513              		.type	nrf24l01ReadAddressRegister, %function
ARM GAS  /var/folders/m4/4md61f0s1_g0rzfghffqnxvr0000gn/T//ccHVf8ER.s 			page 10


 514              	nrf24l01ReadAddressRegister:
 515              	.LFB283:
 516              		.loc 1 360 0
 517              		.cfi_startproc
 518              		@ args = 0, pretend = 0, frame = 8
 519              		@ frame_needed = 0, uses_anonymous_args = 0
 520              	.LVL42:
 521 0000 70B5     		push	{r4, r5, r6, lr}
 522              		.cfi_def_cfa_offset 16
 523              		.cfi_offset 4, -16
 524              		.cfi_offset 5, -12
 525              		.cfi_offset 6, -8
 526              		.cfi_offset 14, -4
 527 0002 82B0     		sub	sp, sp, #8
 528              		.cfi_def_cfa_offset 24
 529              		.loc 1 361 0
 530 0004 02AD     		add	r5, sp, #8
 531 0006 01F01F01 		and	r1, r1, #31
 532              	.LVL43:
 533 000a 05F8011D 		strb	r1, [r5, #-1]!
 534              		.loc 1 363 0
 535 000e D0F82431 		ldr	r3, [r0, #292]
 536              		.loc 1 360 0
 537 0012 0446     		mov	r4, r0
 538              		.loc 1 363 0
 539 0014 1868     		ldr	r0, [r3]
 540              	.LVL44:
 541              		.loc 1 360 0
 542 0016 1646     		mov	r6, r2
 543              		.loc 1 363 0
 544 0018 FFF7FEFF 		bl	spiSelect
 545              	.LVL45:
 546              		.loc 1 364 0
 547 001c D4F82431 		ldr	r3, [r4, #292]
 548 0020 2A46     		mov	r2, r5
 549 0022 1868     		ldr	r0, [r3]
 550 0024 0121     		movs	r1, #1
 551 0026 FFF7FEFF 		bl	spiSend
 552              	.LVL46:
 553              		.loc 1 365 0
 554 002a D4F82431 		ldr	r3, [r4, #292]
 555 002e 3246     		mov	r2, r6
 556 0030 1868     		ldr	r0, [r3]
 557 0032 0521     		movs	r1, #5
 558 0034 FFF7FEFF 		bl	spiReceive
 559              	.LVL47:
 560              		.loc 1 366 0
 561 0038 D4F82431 		ldr	r3, [r4, #292]
 562 003c 1868     		ldr	r0, [r3]
 563 003e FFF7FEFF 		bl	spiUnselect
 564              	.LVL48:
 565              		.loc 1 367 0
 566 0042 02B0     		add	sp, sp, #8
 567              		.cfi_def_cfa_offset 16
 568              		@ sp needed
 569 0044 70BD     		pop	{r4, r5, r6, pc}
 570              		.cfi_endproc
ARM GAS  /var/folders/m4/4md61f0s1_g0rzfghffqnxvr0000gn/T//ccHVf8ER.s 			page 11


 571              	.LFE283:
 572              		.size	nrf24l01ReadAddressRegister, .-nrf24l01ReadAddressRegister
 573 0046 00BF     		.section	.text.nrf24l01GetStatus,"ax",%progbits
 574              		.align	2
 575              		.p2align 4,,15
 576              		.global	nrf24l01GetStatus
 577              		.thumb
 578              		.thumb_func
 579              		.type	nrf24l01GetStatus, %function
 580              	nrf24l01GetStatus:
 581              	.LFB284:
 582              		.loc 1 370 0
 583              		.cfi_startproc
 584              		@ args = 0, pretend = 0, frame = 8
 585              		@ frame_needed = 0, uses_anonymous_args = 0
 586              	.LVL49:
 587 0000 30B5     		push	{r4, r5, lr}
 588              		.cfi_def_cfa_offset 12
 589              		.cfi_offset 4, -12
 590              		.cfi_offset 5, -8
 591              		.cfi_offset 14, -4
 592 0002 83B0     		sub	sp, sp, #12
 593              		.cfi_def_cfa_offset 24
 594              		.loc 1 371 0
 595 0004 02AD     		add	r5, sp, #8
 596 0006 FF22     		movs	r2, #255
 597 0008 05F8022D 		strb	r2, [r5, #-2]!
 598              		.loc 1 374 0
 599 000c D0F82431 		ldr	r3, [r0, #292]
 600              		.loc 1 370 0
 601 0010 0446     		mov	r4, r0
 602              		.loc 1 374 0
 603 0012 1868     		ldr	r0, [r3]
 604              	.LVL50:
 605 0014 FFF7FEFF 		bl	spiSelect
 606              	.LVL51:
 607              		.loc 1 375 0
 608 0018 D4F82431 		ldr	r3, [r4, #292]
 609 001c 2A46     		mov	r2, r5
 610 001e 1868     		ldr	r0, [r3]
 611 0020 0121     		movs	r1, #1
 612 0022 0DF10703 		add	r3, sp, #7
 613 0026 FFF7FEFF 		bl	spiExchange
 614              	.LVL52:
 615              		.loc 1 376 0
 616 002a D4F82431 		ldr	r3, [r4, #292]
 617 002e 1868     		ldr	r0, [r3]
 618 0030 FFF7FEFF 		bl	spiUnselect
 619              	.LVL53:
 620              		.loc 1 379 0
 621 0034 9DF80700 		ldrb	r0, [sp, #7]	@ zero_extendqisi2
 622 0038 03B0     		add	sp, sp, #12
 623              		.cfi_def_cfa_offset 12
 624              		@ sp needed
 625 003a 30BD     		pop	{r4, r5, pc}
 626              		.cfi_endproc
 627              	.LFE284:
ARM GAS  /var/folders/m4/4md61f0s1_g0rzfghffqnxvr0000gn/T//ccHVf8ER.s 			page 12


 628              		.size	nrf24l01GetStatus, .-nrf24l01GetStatus
 629              		.section	.text.nrf24l01PowerUp,"ax",%progbits
 630              		.align	2
 631              		.p2align 4,,15
 632              		.global	nrf24l01PowerUp
 633              		.thumb
 634              		.thumb_func
 635              		.type	nrf24l01PowerUp, %function
 636              	nrf24l01PowerUp:
 637              	.LFB285:
 638              		.loc 1 382 0
 639              		.cfi_startproc
 640              		@ args = 0, pretend = 0, frame = 0
 641              		@ frame_needed = 0, uses_anonymous_args = 0
 642              	.LVL54:
 643 0000 10B5     		push	{r4, lr}
 644              		.cfi_def_cfa_offset 8
 645              		.cfi_offset 4, -8
 646              		.cfi_offset 14, -4
 647              		.loc 1 383 0
 648 0002 0021     		movs	r1, #0
 649              		.loc 1 382 0
 650 0004 0446     		mov	r4, r0
 651              		.loc 1 383 0
 652 0006 FFF7FEFF 		bl	nrf24l01ReadRegister
 653              	.LVL55:
 654              		.loc 1 384 0
 655 000a 40F00202 		orr	r2, r0, #2
 656              		.loc 1 385 0
 657 000e D2B2     		uxtb	r2, r2
 658 0010 2046     		mov	r0, r4
 659              	.LVL56:
 660 0012 0021     		movs	r1, #0
 661              		.loc 1 386 0
 662 0014 BDE81040 		pop	{r4, lr}
 663              		.cfi_restore 14
 664              		.cfi_restore 4
 665              		.cfi_def_cfa_offset 0
 666              	.LVL57:
 667              		.loc 1 385 0
 668 0018 FFF7FEBF 		b	nrf24l01WriteRegister
 669              	.LVL58:
 670              		.cfi_endproc
 671              	.LFE285:
 672              		.size	nrf24l01PowerUp, .-nrf24l01PowerUp
 673              		.section	.text.nrf24l01PowerDown,"ax",%progbits
 674              		.align	2
 675              		.p2align 4,,15
 676              		.global	nrf24l01PowerDown
 677              		.thumb
 678              		.thumb_func
 679              		.type	nrf24l01PowerDown, %function
 680              	nrf24l01PowerDown:
 681              	.LFB286:
 682              		.loc 1 389 0
 683              		.cfi_startproc
 684              		@ args = 0, pretend = 0, frame = 0
ARM GAS  /var/folders/m4/4md61f0s1_g0rzfghffqnxvr0000gn/T//ccHVf8ER.s 			page 13


 685              		@ frame_needed = 0, uses_anonymous_args = 0
 686              	.LVL59:
 687 0000 10B5     		push	{r4, lr}
 688              		.cfi_def_cfa_offset 8
 689              		.cfi_offset 4, -8
 690              		.cfi_offset 14, -4
 691              		.loc 1 390 0
 692 0002 0021     		movs	r1, #0
 693              		.loc 1 389 0
 694 0004 0446     		mov	r4, r0
 695              		.loc 1 390 0
 696 0006 FFF7FEFF 		bl	nrf24l01ReadRegister
 697              	.LVL60:
 698              		.loc 1 392 0
 699 000a 0021     		movs	r1, #0
 700 000c 00F0FD02 		and	r2, r0, #253
 701 0010 2046     		mov	r0, r4
 702              	.LVL61:
 703              		.loc 1 393 0
 704 0012 BDE81040 		pop	{r4, lr}
 705              		.cfi_restore 14
 706              		.cfi_restore 4
 707              		.cfi_def_cfa_offset 0
 708              	.LVL62:
 709              		.loc 1 392 0
 710 0016 FFF7FEBF 		b	nrf24l01WriteRegister
 711              	.LVL63:
 712              		.cfi_endproc
 713              	.LFE286:
 714              		.size	nrf24l01PowerDown, .-nrf24l01PowerDown
 715 001a 00BF     		.section	.text.nrf24l01SetupRetransmit,"ax",%progbits
 716              		.align	2
 717              		.p2align 4,,15
 718              		.global	nrf24l01SetupRetransmit
 719              		.thumb
 720              		.thumb_func
 721              		.type	nrf24l01SetupRetransmit, %function
 722              	nrf24l01SetupRetransmit:
 723              	.LFB287:
 724              		.loc 1 396 0
 725              		.cfi_startproc
 726              		@ args = 0, pretend = 0, frame = 0
 727              		@ frame_needed = 0, uses_anonymous_args = 0
 728              		@ link register save eliminated.
 729              	.LVL64:
 730              		.loc 1 397 0
 731 0000 02F00F02 		and	r2, r2, #15
 732              	.LVL65:
 733 0004 42EA0112 		orr	r2, r2, r1, lsl #4
 734              		.loc 1 398 0
 735 0008 D2B2     		uxtb	r2, r2
 736 000a 0421     		movs	r1, #4
 737              	.LVL66:
 738 000c FFF7FEBF 		b	nrf24l01WriteRegister
 739              	.LVL67:
 740              		.cfi_endproc
 741              	.LFE287:
ARM GAS  /var/folders/m4/4md61f0s1_g0rzfghffqnxvr0000gn/T//ccHVf8ER.s 			page 14


 742              		.size	nrf24l01SetupRetransmit, .-nrf24l01SetupRetransmit
 743              		.section	.text.nrf24l01SetChannel,"ax",%progbits
 744              		.align	2
 745              		.p2align 4,,15
 746              		.global	nrf24l01SetChannel
 747              		.thumb
 748              		.thumb_func
 749              		.type	nrf24l01SetChannel, %function
 750              	nrf24l01SetChannel:
 751              	.LFB288:
 752              		.loc 1 402 0
 753              		.cfi_startproc
 754              		@ args = 0, pretend = 0, frame = 0
 755              		@ frame_needed = 0, uses_anonymous_args = 0
 756              		@ link register save eliminated.
 757              	.LVL68:
 758              		.loc 1 404 0
 759 0000 01F07F02 		and	r2, r1, #127
 760 0004 0521     		movs	r1, #5
 761              	.LVL69:
 762 0006 FFF7FEBF 		b	nrf24l01WriteRegister
 763              	.LVL70:
 764              		.cfi_endproc
 765              	.LFE288:
 766              		.size	nrf24l01SetChannel, .-nrf24l01SetChannel
 767 000a 00BF     		.section	.text.nrf24l01ClearIRQ,"ax",%progbits
 768              		.align	2
 769              		.p2align 4,,15
 770              		.global	nrf24l01ClearIRQ
 771              		.thumb
 772              		.thumb_func
 773              		.type	nrf24l01ClearIRQ, %function
 774              	nrf24l01ClearIRQ:
 775              	.LFB289:
 776              		.loc 1 408 0
 777              		.cfi_startproc
 778              		@ args = 0, pretend = 0, frame = 0
 779              		@ frame_needed = 0, uses_anonymous_args = 0
 780              		@ link register save eliminated.
 781              	.LVL71:
 782              		.loc 1 409 0
 783 0000 01F07002 		and	r2, r1, #112
 784 0004 0721     		movs	r1, #7
 785              	.LVL72:
 786 0006 FFF7FEBF 		b	nrf24l01WriteRegister
 787              	.LVL73:
 788              		.cfi_endproc
 789              	.LFE289:
 790              		.size	nrf24l01ClearIRQ, .-nrf24l01ClearIRQ
 791 000a 00BF     		.section	.text.nrf24l01SetRXAddress,"ax",%progbits
 792              		.align	2
 793              		.p2align 4,,15
 794              		.global	nrf24l01SetRXAddress
 795              		.thumb
 796              		.thumb_func
 797              		.type	nrf24l01SetRXAddress, %function
 798              	nrf24l01SetRXAddress:
ARM GAS  /var/folders/m4/4md61f0s1_g0rzfghffqnxvr0000gn/T//ccHVf8ER.s 			page 15


 799              	.LFB290:
 800              		.loc 1 413 0
 801              		.cfi_startproc
 802              		@ args = 0, pretend = 0, frame = 0
 803              		@ frame_needed = 0, uses_anonymous_args = 0
 804              	.LVL74:
 805 0000 70B5     		push	{r4, r5, r6, lr}
 806              		.cfi_def_cfa_offset 16
 807              		.cfi_offset 4, -16
 808              		.cfi_offset 5, -12
 809              		.cfi_offset 6, -8
 810              		.cfi_offset 14, -4
 811              		.loc 1 413 0
 812 0002 0C46     		mov	r4, r1
 813 0004 1546     		mov	r5, r2
 814              		.loc 1 414 0
 815 0006 0321     		movs	r1, #3
 816              	.LVL75:
 817 0008 8022     		movs	r2, #128
 818              	.LVL76:
 819              		.loc 1 413 0
 820 000a 0646     		mov	r6, r0
 821              		.loc 1 414 0
 822 000c FFF7FEFF 		bl	nrf24l01WriteRegister
 823              	.LVL77:
 824              		.loc 1 415 0
 825 0010 012C     		cmp	r4, #1
 826 0012 0CD9     		bls	.L38
 827              		.loc 1 417 0
 828 0014 E31E     		subs	r3, r4, #3
 829 0016 022B     		cmp	r3, #2
 830 0018 00D9     		bls	.L39
 831 001a 70BD     		pop	{r4, r5, r6, pc}
 832              	.LVL78:
 833              	.L39:
 834              	.LBB129:
 835              	.LBB130:
 836              		.loc 1 418 0
 837 001c 04F10A01 		add	r1, r4, #10
 838 0020 3046     		mov	r0, r6
 839 0022 2A78     		ldrb	r2, [r5]	@ zero_extendqisi2
 840 0024 C9B2     		uxtb	r1, r1
 841              	.LBE130:
 842              	.LBE129:
 843              		.loc 1 419 0
 844 0026 BDE87040 		pop	{r4, r5, r6, lr}
 845              		.cfi_remember_state
 846              		.cfi_restore 14
 847              		.cfi_restore 6
 848              		.cfi_restore 5
 849              		.cfi_restore 4
 850              		.cfi_def_cfa_offset 0
 851              	.LVL79:
 852              	.LBB132:
 853              	.LBB131:
 854              		.loc 1 418 0
 855 002a FFF7FEBF 		b	nrf24l01WriteRegister
ARM GAS  /var/folders/m4/4md61f0s1_g0rzfghffqnxvr0000gn/T//ccHVf8ER.s 			page 16


 856              	.LVL80:
 857              	.L38:
 858              		.cfi_restore_state
 859              	.LBE131:
 860              	.LBE132:
 861              		.loc 1 416 0
 862 002e 04F10A01 		add	r1, r4, #10
 863 0032 3046     		mov	r0, r6
 864 0034 2A46     		mov	r2, r5
 865 0036 C9B2     		uxtb	r1, r1
 866              		.loc 1 419 0
 867 0038 BDE87040 		pop	{r4, r5, r6, lr}
 868              		.cfi_restore 14
 869              		.cfi_restore 6
 870              		.cfi_restore 5
 871              		.cfi_restore 4
 872              		.cfi_def_cfa_offset 0
 873              	.LVL81:
 874              		.loc 1 416 0
 875 003c FFF7FEBF 		b	nrf24l01WriteAddressRegister
 876              	.LVL82:
 877              		.cfi_endproc
 878              	.LFE290:
 879              		.size	nrf24l01SetRXAddress, .-nrf24l01SetRXAddress
 880              		.section	.text.nrf24l01SetTXAddress,"ax",%progbits
 881              		.align	2
 882              		.p2align 4,,15
 883              		.global	nrf24l01SetTXAddress
 884              		.thumb
 885              		.thumb_func
 886              		.type	nrf24l01SetTXAddress, %function
 887              	nrf24l01SetTXAddress:
 888              	.LFB291:
 889              		.loc 1 422 0
 890              		.cfi_startproc
 891              		@ args = 0, pretend = 0, frame = 0
 892              		@ frame_needed = 0, uses_anonymous_args = 0
 893              	.LVL83:
 894 0000 38B5     		push	{r3, r4, r5, lr}
 895              		.cfi_def_cfa_offset 16
 896              		.cfi_offset 3, -16
 897              		.cfi_offset 4, -12
 898              		.cfi_offset 5, -8
 899              		.cfi_offset 14, -4
 900              		.loc 1 423 0
 901 0002 8022     		movs	r2, #128
 902              		.loc 1 422 0
 903 0004 0C46     		mov	r4, r1
 904 0006 0546     		mov	r5, r0
 905              		.loc 1 423 0
 906 0008 0321     		movs	r1, #3
 907              	.LVL84:
 908 000a FFF7FEFF 		bl	nrf24l01WriteRegister
 909              	.LVL85:
 910              		.loc 1 424 0
 911 000e 2846     		mov	r0, r5
 912 0010 2246     		mov	r2, r4
ARM GAS  /var/folders/m4/4md61f0s1_g0rzfghffqnxvr0000gn/T//ccHVf8ER.s 			page 17


 913 0012 1021     		movs	r1, #16
 914              		.loc 1 425 0
 915 0014 BDE83840 		pop	{r3, r4, r5, lr}
 916              		.cfi_restore 14
 917              		.cfi_restore 5
 918              		.cfi_restore 4
 919              		.cfi_restore 3
 920              		.cfi_def_cfa_offset 0
 921              	.LVL86:
 922              		.loc 1 424 0
 923 0018 FFF7FEBF 		b	nrf24l01WriteAddressRegister
 924              	.LVL87:
 925              		.cfi_endproc
 926              	.LFE291:
 927              		.size	nrf24l01SetTXAddress, .-nrf24l01SetTXAddress
 928              		.section	.text.nrf24l01SetPayloadSize,"ax",%progbits
 929              		.align	2
 930              		.p2align 4,,15
 931              		.global	nrf24l01SetPayloadSize
 932              		.thumb
 933              		.thumb_func
 934              		.type	nrf24l01SetPayloadSize, %function
 935              	nrf24l01SetPayloadSize:
 936              	.LFB292:
 937              		.loc 1 428 0
 938              		.cfi_startproc
 939              		@ args = 0, pretend = 0, frame = 0
 940              		@ frame_needed = 0, uses_anonymous_args = 0
 941              		@ link register save eliminated.
 942              	.LVL88:
 943              		.loc 1 429 0
 944 0000 0529     		cmp	r1, #5
 945 0002 01D8     		bhi	.L42
 946              	.LVL89:
 947              	.LBB135:
 948              	.LBB136:
 949 0004 202A     		cmp	r2, #32
 950 0006 00D9     		bls	.L44
 951              	.LVL90:
 952              	.L42:
 953 0008 7047     		bx	lr
 954              	.LVL91:
 955              	.L44:
 956              		.loc 1 432 0
 957 000a 1131     		adds	r1, r1, #17
 958              	.LVL92:
 959 000c C9B2     		uxtb	r1, r1
 960 000e FFF7FEBF 		b	nrf24l01WriteRegister
 961              	.LVL93:
 962              	.LBE136:
 963              	.LBE135:
 964              		.cfi_endproc
 965              	.LFE292:
 966              		.size	nrf24l01SetPayloadSize, .-nrf24l01SetPayloadSize
 967 0012 00BF     		.section	.text.nrf24l01GetFIFOStatus,"ax",%progbits
 968              		.align	2
 969              		.p2align 4,,15
ARM GAS  /var/folders/m4/4md61f0s1_g0rzfghffqnxvr0000gn/T//ccHVf8ER.s 			page 18


 970              		.global	nrf24l01GetFIFOStatus
 971              		.thumb
 972              		.thumb_func
 973              		.type	nrf24l01GetFIFOStatus, %function
 974              	nrf24l01GetFIFOStatus:
 975              	.LFB293:
 976              		.loc 1 436 0
 977              		.cfi_startproc
 978              		@ args = 0, pretend = 0, frame = 0
 979              		@ frame_needed = 0, uses_anonymous_args = 0
 980              		@ link register save eliminated.
 981              	.LVL94:
 982              		.loc 1 437 0
 983 0000 1721     		movs	r1, #23
 984 0002 FFF7FEBF 		b	nrf24l01ReadRegister
 985              	.LVL95:
 986              		.cfi_endproc
 987              	.LFE293:
 988              		.size	nrf24l01GetFIFOStatus, .-nrf24l01GetFIFOStatus
 989 0006 00BF     		.section	.text.nrf24l01EnableDynamicPipeSize,"ax",%progbits
 990              		.align	2
 991              		.p2align 4,,15
 992              		.global	nrf24l01EnableDynamicPipeSize
 993              		.thumb
 994              		.thumb_func
 995              		.type	nrf24l01EnableDynamicPipeSize, %function
 996              	nrf24l01EnableDynamicPipeSize:
 997              	.LFB295:
 998              		.loc 1 459 0
 999              		.cfi_startproc
 1000              		@ args = 0, pretend = 0, frame = 0
 1001              		@ frame_needed = 0, uses_anonymous_args = 0
 1002              	.LVL96:
 1003 0000 38B5     		push	{r3, r4, r5, lr}
 1004              		.cfi_def_cfa_offset 16
 1005              		.cfi_offset 3, -16
 1006              		.cfi_offset 4, -12
 1007              		.cfi_offset 5, -8
 1008              		.cfi_offset 14, -4
 1009              		.loc 1 459 0
 1010 0002 0C46     		mov	r4, r1
 1011              		.loc 1 460 0
 1012 0004 1C21     		movs	r1, #28
 1013              	.LVL97:
 1014              		.loc 1 459 0
 1015 0006 0546     		mov	r5, r0
 1016              		.loc 1 460 0
 1017 0008 FFF7FEFF 		bl	nrf24l01ReadRegister
 1018              	.LVL98:
 1019              		.loc 1 461 0
 1020 000c 04F03F04 		and	r4, r4, #63
 1021 0010 40EA0402 		orr	r2, r0, r4
 1022              	.LVL99:
 1023              		.loc 1 462 0
 1024 0014 D2B2     		uxtb	r2, r2
 1025 0016 2846     		mov	r0, r5
 1026 0018 1C21     		movs	r1, #28
ARM GAS  /var/folders/m4/4md61f0s1_g0rzfghffqnxvr0000gn/T//ccHVf8ER.s 			page 19


 1027              		.loc 1 463 0
 1028 001a BDE83840 		pop	{r3, r4, r5, lr}
 1029              		.cfi_restore 14
 1030              		.cfi_restore 5
 1031              		.cfi_restore 4
 1032              		.cfi_restore 3
 1033              		.cfi_def_cfa_offset 0
 1034              	.LVL100:
 1035              		.loc 1 462 0
 1036 001e FFF7FEBF 		b	nrf24l01WriteRegister
 1037              	.LVL101:
 1038              		.cfi_endproc
 1039              	.LFE295:
 1040              		.size	nrf24l01EnableDynamicPipeSize, .-nrf24l01EnableDynamicPipeSize
 1041 0022 00BF     		.section	.text.nrf24l01DisableDynamicSize,"ax",%progbits
 1042              		.align	2
 1043              		.p2align 4,,15
 1044              		.global	nrf24l01DisableDynamicSize
 1045              		.thumb
 1046              		.thumb_func
 1047              		.type	nrf24l01DisableDynamicSize, %function
 1048              	nrf24l01DisableDynamicSize:
 1049              	.LFB296:
 1050              		.loc 1 466 0
 1051              		.cfi_startproc
 1052              		@ args = 0, pretend = 0, frame = 0
 1053              		@ frame_needed = 0, uses_anonymous_args = 0
 1054              	.LVL102:
 1055 0000 10B5     		push	{r4, lr}
 1056              		.cfi_def_cfa_offset 8
 1057              		.cfi_offset 4, -8
 1058              		.cfi_offset 14, -4
 1059              		.loc 1 467 0
 1060 0002 1D21     		movs	r1, #29
 1061              		.loc 1 466 0
 1062 0004 0446     		mov	r4, r0
 1063              		.loc 1 467 0
 1064 0006 FFF7FEFF 		bl	nrf24l01ReadRegister
 1065              	.LVL103:
 1066              		.loc 1 469 0
 1067 000a 1D21     		movs	r1, #29
 1068 000c 00F0FB02 		and	r2, r0, #251
 1069 0010 2046     		mov	r0, r4
 1070              	.LVL104:
 1071              		.loc 1 470 0
 1072 0012 BDE81040 		pop	{r4, lr}
 1073              		.cfi_restore 14
 1074              		.cfi_restore 4
 1075              		.cfi_def_cfa_offset 0
 1076              	.LVL105:
 1077              		.loc 1 469 0
 1078 0016 FFF7FEBF 		b	nrf24l01WriteRegister
 1079              	.LVL106:
 1080              		.cfi_endproc
 1081              	.LFE296:
 1082              		.size	nrf24l01DisableDynamicSize, .-nrf24l01DisableDynamicSize
 1083 001a 00BF     		.section	.text.nrf24l01DisableDynamicPipeSize,"ax",%progbits
ARM GAS  /var/folders/m4/4md61f0s1_g0rzfghffqnxvr0000gn/T//ccHVf8ER.s 			page 20


 1084              		.align	2
 1085              		.p2align 4,,15
 1086              		.global	nrf24l01DisableDynamicPipeSize
 1087              		.thumb
 1088              		.thumb_func
 1089              		.type	nrf24l01DisableDynamicPipeSize, %function
 1090              	nrf24l01DisableDynamicPipeSize:
 1091              	.LFB297:
 1092              		.loc 1 473 0
 1093              		.cfi_startproc
 1094              		@ args = 0, pretend = 0, frame = 0
 1095              		@ frame_needed = 0, uses_anonymous_args = 0
 1096              	.LVL107:
 1097 0000 38B5     		push	{r3, r4, r5, lr}
 1098              		.cfi_def_cfa_offset 16
 1099              		.cfi_offset 3, -16
 1100              		.cfi_offset 4, -12
 1101              		.cfi_offset 5, -8
 1102              		.cfi_offset 14, -4
 1103              		.loc 1 473 0
 1104 0002 0C46     		mov	r4, r1
 1105              		.loc 1 474 0
 1106 0004 1C21     		movs	r1, #28
 1107              	.LVL108:
 1108              		.loc 1 473 0
 1109 0006 0546     		mov	r5, r0
 1110              		.loc 1 474 0
 1111 0008 FFF7FEFF 		bl	nrf24l01ReadRegister
 1112              	.LVL109:
 1113              		.loc 1 475 0
 1114 000c 04F03F04 		and	r4, r4, #63
 1115 0010 20EA0402 		bic	r2, r0, r4
 1116              	.LVL110:
 1117              		.loc 1 476 0
 1118 0014 D2B2     		uxtb	r2, r2
 1119 0016 2846     		mov	r0, r5
 1120 0018 1C21     		movs	r1, #28
 1121              		.loc 1 477 0
 1122 001a BDE83840 		pop	{r3, r4, r5, lr}
 1123              		.cfi_restore 14
 1124              		.cfi_restore 5
 1125              		.cfi_restore 4
 1126              		.cfi_restore 3
 1127              		.cfi_def_cfa_offset 0
 1128              	.LVL111:
 1129              		.loc 1 476 0
 1130 001e FFF7FEBF 		b	nrf24l01WriteRegister
 1131              	.LVL112:
 1132              		.cfi_endproc
 1133              	.LFE297:
 1134              		.size	nrf24l01DisableDynamicPipeSize, .-nrf24l01DisableDynamicPipeSize
 1135 0022 00BF     		.section	.text.nrf24l01ReadPayload,"ax",%progbits
 1136              		.align	2
 1137              		.p2align 4,,15
 1138              		.global	nrf24l01ReadPayload
 1139              		.thumb
 1140              		.thumb_func
ARM GAS  /var/folders/m4/4md61f0s1_g0rzfghffqnxvr0000gn/T//ccHVf8ER.s 			page 21


 1141              		.type	nrf24l01ReadPayload, %function
 1142              	nrf24l01ReadPayload:
 1143              	.LFB298:
 1144              		.loc 1 480 0
 1145              		.cfi_startproc
 1146              		@ args = 0, pretend = 0, frame = 0
 1147              		@ frame_needed = 0, uses_anonymous_args = 0
 1148              		@ link register save eliminated.
 1149              	.LVL113:
 1150              		.loc 1 481 0
 1151 0000 2029     		cmp	r1, #32
 1152 0002 00D9     		bls	.L54
 1153 0004 7047     		bx	lr
 1154              	.L54:
 1155 0006 FFF7FEBF 		b	nrf24l01ReadPayload.part.2
 1156              	.LVL114:
 1157              		.cfi_endproc
 1158              	.LFE298:
 1159              		.size	nrf24l01ReadPayload, .-nrf24l01ReadPayload
 1160 000a 00BF     		.section	.text.nrf24l01WritePayload,"ax",%progbits
 1161              		.align	2
 1162              		.p2align 4,,15
 1163              		.global	nrf24l01WritePayload
 1164              		.thumb
 1165              		.thumb_func
 1166              		.type	nrf24l01WritePayload, %function
 1167              	nrf24l01WritePayload:
 1168              	.LFB299:
 1169              		.loc 1 496 0
 1170              		.cfi_startproc
 1171              		@ args = 0, pretend = 0, frame = 0
 1172              		@ frame_needed = 0, uses_anonymous_args = 0
 1173              		@ link register save eliminated.
 1174              	.LVL115:
 1175              		.loc 1 497 0
 1176 0000 2029     		cmp	r1, #32
 1177 0002 00D9     		bls	.L57
 1178 0004 7047     		bx	lr
 1179              	.L57:
 1180 0006 FFF7FEBF 		b	nrf24l01WritePayload.part.3
 1181              	.LVL116:
 1182              		.cfi_endproc
 1183              	.LFE299:
 1184              		.size	nrf24l01WritePayload, .-nrf24l01WritePayload
 1185 000a 00BF     		.section	.text.nrf24l01ToggleFeatures,"ax",%progbits
 1186              		.align	2
 1187              		.p2align 4,,15
 1188              		.global	nrf24l01ToggleFeatures
 1189              		.thumb
 1190              		.thumb_func
 1191              		.type	nrf24l01ToggleFeatures, %function
 1192              	nrf24l01ToggleFeatures:
 1193              	.LFB300:
 1194              		.loc 1 509 0
 1195              		.cfi_startproc
 1196              		@ args = 0, pretend = 0, frame = 8
 1197              		@ frame_needed = 0, uses_anonymous_args = 0
ARM GAS  /var/folders/m4/4md61f0s1_g0rzfghffqnxvr0000gn/T//ccHVf8ER.s 			page 22


 1198              	.LVL117:
 1199 0000 10B5     		push	{r4, lr}
 1200              		.cfi_def_cfa_offset 8
 1201              		.cfi_offset 4, -8
 1202              		.cfi_offset 14, -4
 1203              		.loc 1 510 0
 1204 0002 0C4A     		ldr	r2, .L60
 1205              		.loc 1 512 0
 1206 0004 D0F82431 		ldr	r3, [r0, #292]
 1207              		.loc 1 510 0
 1208 0008 1288     		ldrh	r2, [r2]	@ unaligned
 1209              		.loc 1 509 0
 1210 000a 82B0     		sub	sp, sp, #8
 1211              		.cfi_def_cfa_offset 16
 1212              		.loc 1 509 0
 1213 000c 0446     		mov	r4, r0
 1214              		.loc 1 510 0
 1215 000e ADF80420 		strh	r2, [sp, #4]	@ unaligned
 1216              		.loc 1 512 0
 1217 0012 1868     		ldr	r0, [r3]
 1218              	.LVL118:
 1219 0014 FFF7FEFF 		bl	spiSelect
 1220              	.LVL119:
 1221              		.loc 1 513 0
 1222 0018 D4F82431 		ldr	r3, [r4, #292]
 1223 001c 01AA     		add	r2, sp, #4
 1224 001e 1868     		ldr	r0, [r3]
 1225 0020 0221     		movs	r1, #2
 1226 0022 FFF7FEFF 		bl	spiSend
 1227              	.LVL120:
 1228              		.loc 1 514 0
 1229 0026 D4F82431 		ldr	r3, [r4, #292]
 1230 002a 1868     		ldr	r0, [r3]
 1231 002c FFF7FEFF 		bl	spiUnselect
 1232              	.LVL121:
 1233              		.loc 1 515 0
 1234 0030 02B0     		add	sp, sp, #8
 1235              		.cfi_def_cfa_offset 8
 1236              		@ sp needed
 1237 0032 10BD     		pop	{r4, pc}
 1238              	.LVL122:
 1239              	.L61:
 1240              		.align	2
 1241              	.L60:
 1242 0034 00000000 		.word	.LANCHOR2
 1243              		.cfi_endproc
 1244              	.LFE300:
 1245              		.size	nrf24l01ToggleFeatures, .-nrf24l01ToggleFeatures
 1246              		.section	.text.nrf24l01EnableDynamicSize,"ax",%progbits
 1247              		.align	2
 1248              		.p2align 4,,15
 1249              		.global	nrf24l01EnableDynamicSize
 1250              		.thumb
 1251              		.thumb_func
 1252              		.type	nrf24l01EnableDynamicSize, %function
 1253              	nrf24l01EnableDynamicSize:
 1254              	.LFB294:
ARM GAS  /var/folders/m4/4md61f0s1_g0rzfghffqnxvr0000gn/T//ccHVf8ER.s 			page 23


 1255              		.loc 1 441 0
 1256              		.cfi_startproc
 1257              		@ args = 0, pretend = 0, frame = 0
 1258              		@ frame_needed = 0, uses_anonymous_args = 0
 1259              	.LVL123:
 1260 0000 38B5     		push	{r3, r4, r5, lr}
 1261              		.cfi_def_cfa_offset 16
 1262              		.cfi_offset 3, -16
 1263              		.cfi_offset 4, -12
 1264              		.cfi_offset 5, -8
 1265              		.cfi_offset 14, -4
 1266              		.loc 1 442 0
 1267 0002 1D21     		movs	r1, #29
 1268              		.loc 1 441 0
 1269 0004 0446     		mov	r4, r0
 1270              		.loc 1 442 0
 1271 0006 FFF7FEFF 		bl	nrf24l01ReadRegister
 1272              	.LVL124:
 1273              		.loc 1 444 0
 1274 000a 4207     		lsls	r2, r0, #29
 1275 000c 00D5     		bpl	.L67
 1276              	.L62:
 1277 000e 38BD     		pop	{r3, r4, r5, pc}
 1278              	.LVL125:
 1279              	.L67:
 1280              		.loc 1 447 0
 1281 0010 40F00402 		orr	r2, r0, #4
 1282              		.loc 1 448 0
 1283 0014 D2B2     		uxtb	r2, r2
 1284 0016 2046     		mov	r0, r4
 1285              	.LVL126:
 1286 0018 1D21     		movs	r1, #29
 1287 001a FFF7FEFF 		bl	nrf24l01WriteRegister
 1288              	.LVL127:
 1289              		.loc 1 450 0
 1290 001e 2046     		mov	r0, r4
 1291 0020 1D21     		movs	r1, #29
 1292 0022 FFF7FEFF 		bl	nrf24l01ReadRegister
 1293              	.LVL128:
 1294              		.loc 1 451 0
 1295 0026 4307     		lsls	r3, r0, #29
 1296              		.loc 1 450 0
 1297 0028 0546     		mov	r5, r0
 1298              	.LVL129:
 1299              		.loc 1 451 0
 1300 002a F0D4     		bmi	.L62
 1301              		.loc 1 453 0
 1302 002c 2046     		mov	r0, r4
 1303              	.LVL130:
 1304 002e FFF7FEFF 		bl	nrf24l01ToggleFeatures
 1305              	.LVL131:
 1306              		.loc 1 454 0
 1307 0032 2046     		mov	r0, r4
 1308 0034 2A46     		mov	r2, r5
 1309 0036 1D21     		movs	r1, #29
 1310              		.loc 1 456 0
 1311 0038 BDE83840 		pop	{r3, r4, r5, lr}
ARM GAS  /var/folders/m4/4md61f0s1_g0rzfghffqnxvr0000gn/T//ccHVf8ER.s 			page 24


 1312              		.cfi_restore 14
 1313              		.cfi_restore 5
 1314              		.cfi_restore 4
 1315              		.cfi_restore 3
 1316              		.cfi_def_cfa_offset 0
 1317              	.LVL132:
 1318              		.loc 1 454 0
 1319 003c FFF7FEBF 		b	nrf24l01WriteRegister
 1320              	.LVL133:
 1321              		.cfi_endproc
 1322              	.LFE294:
 1323              		.size	nrf24l01EnableDynamicSize, .-nrf24l01EnableDynamicSize
 1324              		.section	.text.nrf24l01FlushRX,"ax",%progbits
 1325              		.align	2
 1326              		.p2align 4,,15
 1327              		.global	nrf24l01FlushRX
 1328              		.thumb
 1329              		.thumb_func
 1330              		.type	nrf24l01FlushRX, %function
 1331              	nrf24l01FlushRX:
 1332              	.LFB301:
 1333              		.loc 1 518 0
 1334              		.cfi_startproc
 1335              		@ args = 0, pretend = 0, frame = 8
 1336              		@ frame_needed = 0, uses_anonymous_args = 0
 1337              	.LVL134:
 1338 0000 30B5     		push	{r4, r5, lr}
 1339              		.cfi_def_cfa_offset 12
 1340              		.cfi_offset 4, -12
 1341              		.cfi_offset 5, -8
 1342              		.cfi_offset 14, -4
 1343 0002 83B0     		sub	sp, sp, #12
 1344              		.cfi_def_cfa_offset 24
 1345              		.loc 1 519 0
 1346 0004 02AD     		add	r5, sp, #8
 1347 0006 E222     		movs	r2, #226
 1348 0008 05F8012D 		strb	r2, [r5, #-1]!
 1349              		.loc 1 521 0
 1350 000c D0F82431 		ldr	r3, [r0, #292]
 1351              		.loc 1 518 0
 1352 0010 0446     		mov	r4, r0
 1353              		.loc 1 521 0
 1354 0012 1868     		ldr	r0, [r3]
 1355              	.LVL135:
 1356 0014 FFF7FEFF 		bl	spiSelect
 1357              	.LVL136:
 1358              		.loc 1 522 0
 1359 0018 D4F82431 		ldr	r3, [r4, #292]
 1360 001c 2A46     		mov	r2, r5
 1361 001e 1868     		ldr	r0, [r3]
 1362 0020 0121     		movs	r1, #1
 1363 0022 FFF7FEFF 		bl	spiSend
 1364              	.LVL137:
 1365              		.loc 1 523 0
 1366 0026 D4F82431 		ldr	r3, [r4, #292]
 1367 002a 1868     		ldr	r0, [r3]
 1368 002c FFF7FEFF 		bl	spiUnselect
ARM GAS  /var/folders/m4/4md61f0s1_g0rzfghffqnxvr0000gn/T//ccHVf8ER.s 			page 25


 1369              	.LVL138:
 1370              		.loc 1 524 0
 1371 0030 03B0     		add	sp, sp, #12
 1372              		.cfi_def_cfa_offset 12
 1373              		@ sp needed
 1374 0032 30BD     		pop	{r4, r5, pc}
 1375              		.cfi_endproc
 1376              	.LFE301:
 1377              		.size	nrf24l01FlushRX, .-nrf24l01FlushRX
 1378              		.section	.text.nrf24l01FlushTX,"ax",%progbits
 1379              		.align	2
 1380              		.p2align 4,,15
 1381              		.global	nrf24l01FlushTX
 1382              		.thumb
 1383              		.thumb_func
 1384              		.type	nrf24l01FlushTX, %function
 1385              	nrf24l01FlushTX:
 1386              	.LFB302:
 1387              		.loc 1 527 0
 1388              		.cfi_startproc
 1389              		@ args = 0, pretend = 0, frame = 8
 1390              		@ frame_needed = 0, uses_anonymous_args = 0
 1391              	.LVL139:
 1392 0000 30B5     		push	{r4, r5, lr}
 1393              		.cfi_def_cfa_offset 12
 1394              		.cfi_offset 4, -12
 1395              		.cfi_offset 5, -8
 1396              		.cfi_offset 14, -4
 1397 0002 83B0     		sub	sp, sp, #12
 1398              		.cfi_def_cfa_offset 24
 1399              		.loc 1 528 0
 1400 0004 02AD     		add	r5, sp, #8
 1401 0006 E122     		movs	r2, #225
 1402 0008 05F8012D 		strb	r2, [r5, #-1]!
 1403              		.loc 1 530 0
 1404 000c D0F82431 		ldr	r3, [r0, #292]
 1405              		.loc 1 527 0
 1406 0010 0446     		mov	r4, r0
 1407              		.loc 1 530 0
 1408 0012 1868     		ldr	r0, [r3]
 1409              	.LVL140:
 1410 0014 FFF7FEFF 		bl	spiSelect
 1411              	.LVL141:
 1412              		.loc 1 531 0
 1413 0018 D4F82431 		ldr	r3, [r4, #292]
 1414 001c 2A46     		mov	r2, r5
 1415 001e 1868     		ldr	r0, [r3]
 1416 0020 0121     		movs	r1, #1
 1417 0022 FFF7FEFF 		bl	spiSend
 1418              	.LVL142:
 1419              		.loc 1 532 0
 1420 0026 D4F82431 		ldr	r3, [r4, #292]
 1421 002a 1868     		ldr	r0, [r3]
 1422 002c FFF7FEFF 		bl	spiUnselect
 1423              	.LVL143:
 1424              		.loc 1 533 0
 1425 0030 03B0     		add	sp, sp, #12
ARM GAS  /var/folders/m4/4md61f0s1_g0rzfghffqnxvr0000gn/T//ccHVf8ER.s 			page 26


 1426              		.cfi_def_cfa_offset 12
 1427              		@ sp needed
 1428 0032 30BD     		pop	{r4, r5, pc}
 1429              		.cfi_endproc
 1430              	.LFE302:
 1431              		.size	nrf24l01FlushTX, .-nrf24l01FlushTX
 1432              		.section	.text.initNRF24L01,"ax",%progbits
 1433              		.align	2
 1434              		.p2align 4,,15
 1435              		.global	initNRF24L01
 1436              		.thumb
 1437              		.thumb_func
 1438              		.type	initNRF24L01, %function
 1439              	initNRF24L01:
 1440              	.LFB269:
 1441              		.loc 1 59 0
 1442              		.cfi_startproc
 1443              		@ args = 0, pretend = 0, frame = 0
 1444              		@ frame_needed = 0, uses_anonymous_args = 0
 1445 0000 38B5     		push	{r3, r4, r5, lr}
 1446              		.cfi_def_cfa_offset 16
 1447              		.cfi_offset 3, -16
 1448              		.cfi_offset 4, -12
 1449              		.cfi_offset 5, -8
 1450              		.cfi_offset 14, -4
 1451              		.loc 1 60 0
 1452 0002 2F4D     		ldr	r5, .L76
 1453              		.loc 1 62 0
 1454 0004 2F4C     		ldr	r4, .L76+4
 1455              		.loc 1 60 0
 1456 0006 2846     		mov	r0, r5
 1457 0008 1021     		movs	r1, #16
 1458 000a 0122     		movs	r2, #1
 1459 000c FFF7FEFF 		bl	_pal_lld_setgroupmode
 1460              	.LVL144:
 1461              		.loc 1 61 0
 1462 0010 1023     		movs	r3, #16
 1463 0012 2B83     		strh	r3, [r5, #24]	@ movhi
 1464              		.loc 1 62 0
 1465 0014 2046     		mov	r0, r4
 1466 0016 0221     		movs	r1, #2
 1467 0018 0122     		movs	r2, #1
 1468 001a FFF7FEFF 		bl	_pal_lld_setgroupmode
 1469              	.LVL145:
 1470              		.loc 1 63 0
 1471 001e 0223     		movs	r3, #2
 1472              		.loc 1 64 0
 1473 0020 2021     		movs	r1, #32
 1474 0022 0A46     		mov	r2, r1
 1475              		.loc 1 63 0
 1476 0024 6383     		strh	r3, [r4, #26]	@ movhi
 1477              		.loc 1 64 0
 1478 0026 2848     		ldr	r0, .L76+8
 1479 0028 284D     		ldr	r5, .L76+12
 1480 002a FFF7FEFF 		bl	_pal_lld_setgroupmode
 1481              	.LVL146:
 1482              		.loc 1 66 0
ARM GAS  /var/folders/m4/4md61f0s1_g0rzfghffqnxvr0000gn/T//ccHVf8ER.s 			page 27


 1483 002e 2848     		ldr	r0, .L76+16
 1484 0030 2849     		ldr	r1, .L76+20
 1485 0032 FFF7FEFF 		bl	spiStart
 1486              	.LVL147:
 1487              		.loc 1 67 0
 1488 0036 2848     		ldr	r0, .L76+24
 1489 0038 2849     		ldr	r1, .L76+28
 1490 003a FFF7FEFF 		bl	extStart
 1491              	.LVL148:
 1492 003e 284B     		ldr	r3, .L76+32
 1493              	.LBB152:
 1494              	.LBB153:
 1495              	.LBB154:
 1496              		.loc 1 315 0
 1497 0040 0022     		movs	r2, #0
 1498 0042 03F59070 		add	r0, r3, #288
 1499 0046 A3F12C01 		sub	r1, r3, #44
 1500              	.LVL149:
 1501              	.L73:
 1502              		.loc 1 314 0
 1503 004a 43F82C5C 		str	r5, [r3, #-44]
 1504              		.loc 1 315 0
 1505 004e 03F8042C 		strb	r2, [r3, #-4]
 1506              		.loc 1 316 0
 1507 0052 43F8281C 		str	r1, [r3, #-40]
 1508              	.LVL150:
 1509              	.LBB155:
 1510              	.LBB156:
 1511              		.loc 3 172 0
 1512 0056 1B60     		str	r3, [r3]
 1513 0058 3033     		adds	r3, r3, #48
 1514              	.LVL151:
 1515              	.LBE156:
 1516              	.LBE155:
 1517              		.loc 1 312 0
 1518 005a 8342     		cmp	r3, r0
 1519              		.loc 1 316 0
 1520 005c 214C     		ldr	r4, .L76+36
 1521              		.loc 1 312 0
 1522 005e F4D1     		bne	.L73
 1523              	.LVL152:
 1524              	.LBE154:
 1525              	.LBB157:
 1526              	.LBB158:
 1527              		.loc 3 172 0
 1528 0060 04F59072 		add	r2, r4, #288
 1529              	.LBE158:
 1530              	.LBE157:
 1531              	.LBE153:
 1532              	.LBE152:
 1533              	.LBB162:
 1534              	.LBB163:
 1535              		.loc 1 325 0
 1536 0064 204B     		ldr	r3, .L76+40
 1537              	.LVL153:
 1538              	.LBE163:
 1539              	.LBE162:
ARM GAS  /var/folders/m4/4md61f0s1_g0rzfghffqnxvr0000gn/T//ccHVf8ER.s 			page 28


 1540              	.LBB165:
 1541              	.LBB161:
 1542              	.LBB160:
 1543              	.LBB159:
 1544              		.loc 3 172 0
 1545 0066 C4F82021 		str	r2, [r4, #288]
 1546              	.LVL154:
 1547              	.LBE159:
 1548              	.LBE160:
 1549              	.LBE161:
 1550              	.LBE165:
 1551              		.loc 1 70 0
 1552 006a 0521     		movs	r1, #5
 1553 006c 1A48     		ldr	r0, .L76+24
 1554              	.LBB166:
 1555              	.LBB164:
 1556              		.loc 1 325 0
 1557 006e C4F82431 		str	r3, [r4, #292]
 1558              	.LBE164:
 1559              	.LBE166:
 1560              		.loc 1 70 0
 1561 0072 FFF7FEFF 		bl	extChannelEnable
 1562              	.LVL155:
 1563              		.loc 1 72 0
 1564 0076 2046     		mov	r0, r4
 1565 0078 FFF7FEFF 		bl	nrf24l01EnableDynamicSize
 1566              	.LVL156:
 1567              		.loc 1 73 0
 1568 007c 2046     		mov	r0, r4
 1569 007e 3F21     		movs	r1, #63
 1570 0080 FFF7FEFF 		bl	nrf24l01EnableDynamicPipeSize
 1571              	.LVL157:
 1572              		.loc 1 75 0
 1573 0084 2046     		mov	r0, r4
 1574 0086 1949     		ldr	r1, .L76+44
 1575 0088 FFF7FEFF 		bl	nrf24l01SetTXAddress
 1576              	.LVL158:
 1577              		.loc 1 76 0
 1578 008c 2046     		mov	r0, r4
 1579 008e 0021     		movs	r1, #0
 1580 0090 164A     		ldr	r2, .L76+44
 1581 0092 FFF7FEFF 		bl	nrf24l01SetRXAddress
 1582              	.LVL159:
 1583              	.LBB167:
 1584              	.LBB168:
 1585              	.LBB169:
 1586              		.loc 1 432 0
 1587 0096 1121     		movs	r1, #17
 1588 0098 2022     		movs	r2, #32
 1589 009a 2046     		mov	r0, r4
 1590 009c FFF7FEFF 		bl	nrf24l01WriteRegister
 1591              	.LVL160:
 1592              	.LBE169:
 1593              	.LBE168:
 1594              	.LBE167:
 1595              		.loc 1 79 0
 1596 00a0 2046     		mov	r0, r4
ARM GAS  /var/folders/m4/4md61f0s1_g0rzfghffqnxvr0000gn/T//ccHVf8ER.s 			page 29


 1597 00a2 FFF7FEFF 		bl	nrf24l01FlushRX
 1598              	.LVL161:
 1599              		.loc 1 80 0
 1600 00a6 2046     		mov	r0, r4
 1601 00a8 FFF7FEFF 		bl	nrf24l01FlushTX
 1602              	.LVL162:
 1603              	.LBB170:
 1604              	.LBB171:
 1605              		.loc 1 409 0
 1606 00ac 2046     		mov	r0, r4
 1607 00ae 0721     		movs	r1, #7
 1608 00b0 7022     		movs	r2, #112
 1609 00b2 FFF7FEFF 		bl	nrf24l01WriteRegister
 1610              	.LVL163:
 1611              	.LBE171:
 1612              	.LBE170:
 1613              		.loc 1 83 0
 1614 00b6 2046     		mov	r0, r4
 1615              		.loc 1 84 0
 1616 00b8 BDE83840 		pop	{r3, r4, r5, lr}
 1617              		.cfi_restore 14
 1618              		.cfi_restore 5
 1619              		.cfi_restore 4
 1620              		.cfi_restore 3
 1621              		.cfi_def_cfa_offset 0
 1622              		.loc 1 83 0
 1623 00bc FFF7FEBF 		b	nrf24l01PowerUp
 1624              	.LVL164:
 1625              	.L77:
 1626              		.align	2
 1627              	.L76:
 1628 00c0 00000240 		.word	1073872896
 1629 00c4 00040240 		.word	1073873920
 1630 00c8 00080240 		.word	1073874944
 1631 00cc 00000000 		.word	.LANCHOR1
 1632 00d0 00000000 		.word	SPID1
 1633 00d4 00000000 		.word	.LANCHOR3
 1634 00d8 00000000 		.word	EXTD1
 1635 00dc 00000000 		.word	.LANCHOR4
 1636 00e0 2C000000 		.word	.LANCHOR0+44
 1637 00e4 00000000 		.word	.LANCHOR0
 1638 00e8 00000000 		.word	.LANCHOR5
 1639 00ec 00000000 		.word	.LANCHOR6
 1640              		.cfi_endproc
 1641              	.LFE269:
 1642              		.size	initNRF24L01, .-initNRF24L01
 1643              		.section	.text.nrf24l01GetSize,"ax",%progbits
 1644              		.align	2
 1645              		.p2align 4,,15
 1646              		.global	nrf24l01GetSize
 1647              		.thumb
 1648              		.thumb_func
 1649              		.type	nrf24l01GetSize, %function
 1650              	nrf24l01GetSize:
 1651              	.LFB303:
 1652              		.loc 1 536 0
 1653              		.cfi_startproc
ARM GAS  /var/folders/m4/4md61f0s1_g0rzfghffqnxvr0000gn/T//ccHVf8ER.s 			page 30


 1654              		@ args = 0, pretend = 0, frame = 8
 1655              		@ frame_needed = 0, uses_anonymous_args = 0
 1656              	.LVL165:
 1657 0000 10B5     		push	{r4, lr}
 1658              		.cfi_def_cfa_offset 8
 1659              		.cfi_offset 4, -8
 1660              		.cfi_offset 14, -4
 1661 0002 82B0     		sub	sp, sp, #8
 1662              		.cfi_def_cfa_offset 16
 1663              		.loc 1 537 0
 1664 0004 6023     		movs	r3, #96
 1665 0006 8DF80030 		strb	r3, [sp]
 1666              		.loc 1 540 0
 1667 000a D0F82421 		ldr	r2, [r0, #292]
 1668              		.loc 1 537 0
 1669 000e 0023     		movs	r3, #0
 1670              		.loc 1 536 0
 1671 0010 0446     		mov	r4, r0
 1672              		.loc 1 537 0
 1673 0012 8DF80130 		strb	r3, [sp, #1]
 1674              		.loc 1 538 0
 1675 0016 8DF80430 		strb	r3, [sp, #4]
 1676 001a 8DF80530 		strb	r3, [sp, #5]
 1677              		.loc 1 540 0
 1678 001e 1068     		ldr	r0, [r2]
 1679              	.LVL166:
 1680 0020 FFF7FEFF 		bl	spiSelect
 1681              	.LVL167:
 1682              		.loc 1 541 0
 1683 0024 D4F82431 		ldr	r3, [r4, #292]
 1684 0028 0221     		movs	r1, #2
 1685 002a 1868     		ldr	r0, [r3]
 1686 002c 6A46     		mov	r2, sp
 1687 002e 01AB     		add	r3, sp, #4
 1688 0030 FFF7FEFF 		bl	spiExchange
 1689              	.LVL168:
 1690              		.loc 1 542 0
 1691 0034 D4F82431 		ldr	r3, [r4, #292]
 1692 0038 1868     		ldr	r0, [r3]
 1693 003a FFF7FEFF 		bl	spiUnselect
 1694              	.LVL169:
 1695              		.loc 1 545 0
 1696 003e 9DF80500 		ldrb	r0, [sp, #5]	@ zero_extendqisi2
 1697 0042 02B0     		add	sp, sp, #8
 1698              		.cfi_def_cfa_offset 8
 1699              		@ sp needed
 1700 0044 10BD     		pop	{r4, pc}
 1701              		.cfi_endproc
 1702              	.LFE303:
 1703              		.size	nrf24l01GetSize, .-nrf24l01GetSize
 1704 0046 00BF     		.section	.text.nrf24l01EnterRX,"ax",%progbits
 1705              		.align	2
 1706              		.p2align 4,,15
 1707              		.global	nrf24l01EnterRX
 1708              		.thumb
 1709              		.thumb_func
 1710              		.type	nrf24l01EnterRX, %function
ARM GAS  /var/folders/m4/4md61f0s1_g0rzfghffqnxvr0000gn/T//ccHVf8ER.s 			page 31


 1711              	nrf24l01EnterRX:
 1712              	.LFB304:
 1713              		.loc 1 548 0
 1714              		.cfi_startproc
 1715              		@ args = 0, pretend = 0, frame = 0
 1716              		@ frame_needed = 0, uses_anonymous_args = 0
 1717              	.LVL170:
 1718 0000 38B5     		push	{r3, r4, r5, lr}
 1719              		.cfi_def_cfa_offset 16
 1720              		.cfi_offset 3, -16
 1721              		.cfi_offset 4, -12
 1722              		.cfi_offset 5, -8
 1723              		.cfi_offset 14, -4
 1724              		.loc 1 549 0
 1725 0002 D0F82431 		ldr	r3, [r0, #292]
 1726 0006 1989     		ldrh	r1, [r3, #8]
 1727 0008 5A68     		ldr	r2, [r3, #4]
 1728 000a 0124     		movs	r4, #1
 1729 000c 04FA01F3 		lsl	r3, r4, r1
 1730 0010 9BB2     		uxth	r3, r3
 1731 0012 5383     		strh	r3, [r2, #26]	@ movhi
 1732              		.loc 1 551 0
 1733 0014 0021     		movs	r1, #0
 1734              		.loc 1 548 0
 1735 0016 0546     		mov	r5, r0
 1736              		.loc 1 551 0
 1737 0018 FFF7FEFF 		bl	nrf24l01ReadRegister
 1738              	.LVL171:
 1739              		.loc 1 552 0
 1740 001c 40EA0402 		orr	r2, r0, r4
 1741              		.loc 1 553 0
 1742 0020 D2B2     		uxtb	r2, r2
 1743 0022 2846     		mov	r0, r5
 1744              	.LVL172:
 1745 0024 0021     		movs	r1, #0
 1746 0026 FFF7FEFF 		bl	nrf24l01WriteRegister
 1747              	.LVL173:
 1748              		.loc 1 555 0
 1749 002a D5F82431 		ldr	r3, [r5, #292]
 1750 002e 1A89     		ldrh	r2, [r3, #8]
 1751 0030 5B68     		ldr	r3, [r3, #4]
 1752 0032 9440     		lsls	r4, r4, r2
 1753 0034 A4B2     		uxth	r4, r4
 1754 0036 1C83     		strh	r4, [r3, #24]	@ movhi
 1755 0038 38BD     		pop	{r3, r4, r5, pc}
 1756              		.cfi_endproc
 1757              	.LFE304:
 1758              		.size	nrf24l01EnterRX, .-nrf24l01EnterRX
 1759 003a 00BF     		.section	.text.readt,"ax",%progbits
 1760              		.align	2
 1761              		.p2align 4,,15
 1762              		.thumb
 1763              		.thumb_func
 1764              		.type	readt, %function
 1765              	readt:
 1766              	.LFB271:
 1767              		.loc 1 147 0
ARM GAS  /var/folders/m4/4md61f0s1_g0rzfghffqnxvr0000gn/T//ccHVf8ER.s 			page 32


 1768              		.cfi_startproc
 1769              		@ args = 0, pretend = 0, frame = 32
 1770              		@ frame_needed = 0, uses_anonymous_args = 0
 1771              	.LVL174:
 1772 0000 2DE9F04F 		push	{r4, r5, r6, r7, r8, r9, r10, fp, lr}
 1773              		.cfi_def_cfa_offset 36
 1774              		.cfi_offset 4, -36
 1775              		.cfi_offset 5, -32
 1776              		.cfi_offset 6, -28
 1777              		.cfi_offset 7, -24
 1778              		.cfi_offset 8, -20
 1779              		.cfi_offset 9, -16
 1780              		.cfi_offset 10, -12
 1781              		.cfi_offset 11, -8
 1782              		.cfi_offset 14, -4
 1783              		.loc 1 149 0
 1784 0004 D0F80490 		ldr	r9, [r0, #4]
 1785              	.LVL175:
 1786              		.loc 1 147 0
 1787 0008 89B0     		sub	sp, sp, #36
 1788              		.cfi_def_cfa_offset 72
 1789 000a 09F59074 		add	r4, r9, #288
 1790 000e 4D46     		mov	r5, r9
 1791 0010 0194     		str	r4, [sp, #4]
 1792              	.LVL176:
 1793              	.L85:
 1794              	.LBB172:
 1795              		.loc 1 154 0
 1796 0012 A842     		cmp	r0, r5
 1797 0014 05F13005 		add	r5, r5, #48
 1798 0018 06D0     		beq	.L123
 1799              		.loc 1 152 0 discriminator 2
 1800 001a A542     		cmp	r5, r4
 1801 001c F9D1     		bne	.L85
 1802              	.LBE172:
 1803              		.loc 1 162 0
 1804 001e 0026     		movs	r6, #0
 1805              		.loc 1 245 0
 1806 0020 3046     		mov	r0, r6
 1807              	.LVL177:
 1808 0022 09B0     		add	sp, sp, #36
 1809              		.cfi_remember_state
 1810              		.cfi_def_cfa_offset 36
 1811              		@ sp needed
 1812 0024 BDE8F08F 		pop	{r4, r5, r6, r7, r8, r9, r10, fp, pc}
 1813              	.LVL178:
 1814              	.L123:
 1815              		.cfi_restore_state
 1816 0028 0093     		str	r3, [sp]
 1817 002a 0446     		mov	r4, r0
 1818              	.LVL179:
 1819              	.LBB173:
 1820              	.LBB174:
 1821              		.loc 3 193 0
 1822 002c 4FF0FF33 		mov	r3, #-1
 1823              	.LVL180:
 1824 0030 0198     		ldr	r0, [sp, #4]
ARM GAS  /var/folders/m4/4md61f0s1_g0rzfghffqnxvr0000gn/T//ccHVf8ER.s 			page 33


 1825              	.LVL181:
 1826 0032 1746     		mov	r7, r2
 1827 0034 8A46     		mov	r10, r1
 1828 0036 0122     		movs	r2, #1
 1829              	.LVL182:
 1830 0038 03A9     		add	r1, sp, #12
 1831              	.LVL183:
 1832 003a FFF7FEFF 		bl	chEvtRegisterMaskWithFlags
 1833              	.LVL184:
 1834              	.LBE174:
 1835              	.LBE173:
 1836              		.loc 1 168 0
 1837 003e 4846     		mov	r0, r9
 1838 0040 FFF7FEFF 		bl	nrf24l01EnterRX
 1839              	.LVL185:
 1840 0044 94F82830 		ldrb	r3, [r4, #40]	@ zero_extendqisi2
 1841              		.loc 1 164 0
 1842 0048 0025     		movs	r5, #0
 1843              	.LVL186:
 1844              	.L84:
 1845              		.loc 1 170 0
 1846 004a BD42     		cmp	r5, r7
 1847 004c 2E46     		mov	r6, r5
 1848 004e 20D2     		bcs	.L124
 1849              	.L109:
 1850              	.LBB175:
 1851              		.loc 1 172 0
 1852 0050 93B3     		cbz	r3, .L87
 1853              	.LBB176:
 1854              		.loc 1 174 0
 1855 0052 7E1B     		subs	r6, r7, r5
 1856 0054 9E42     		cmp	r6, r3
 1857 0056 28BF     		it	cs
 1858 0058 1E46     		movcs	r6, r3
 1859 005a 5FFA86FE 		uxtb	lr, r6
 1860              	.LVL187:
 1861              	.LBB177:
 1862              		.loc 1 175 0
 1863 005e 76B1     		cbz	r6, .L88
 1864 0060 0AEB0500 		add	r0, r10, r5
 1865 0064 0021     		movs	r1, #0
 1866              	.LVL188:
 1867              	.L90:
 1868              		.loc 1 176 0 discriminator 3
 1869 0066 6218     		adds	r2, r4, r1
 1870 0068 D31A     		subs	r3, r2, r3
 1871 006a 0131     		adds	r1, r1, #1
 1872              	.LVL189:
 1873 006c 93F82830 		ldrb	r3, [r3, #40]	@ zero_extendqisi2
 1874 0070 00F8013B 		strb	r3, [r0], #1
 1875              		.loc 1 175 0 discriminator 3
 1876 0074 CBB2     		uxtb	r3, r1
 1877 0076 9E45     		cmp	lr, r3
 1878 0078 94F82830 		ldrb	r3, [r4, #40]	@ zero_extendqisi2
 1879 007c F3D8     		bhi	.L90
 1880              	.L88:
 1881              	.LBE177:
ARM GAS  /var/folders/m4/4md61f0s1_g0rzfghffqnxvr0000gn/T//ccHVf8ER.s 			page 34


 1882              		.loc 1 178 0
 1883 007e 3544     		add	r5, r5, r6
 1884              	.LVL190:
 1885 0080 ADB2     		uxth	r5, r5
 1886              	.LVL191:
 1887              		.loc 1 177 0
 1888 0082 CEEB0303 		rsb	r3, lr, r3
 1889 0086 DBB2     		uxtb	r3, r3
 1890              	.LBE176:
 1891              	.LBE175:
 1892              		.loc 1 170 0
 1893 0088 BD42     		cmp	r5, r7
 1894              	.LBB208:
 1895              	.LBB178:
 1896              		.loc 1 177 0
 1897 008a 84F82830 		strb	r3, [r4, #40]
 1898              	.LBE178:
 1899              	.LBE208:
 1900              		.loc 1 170 0
 1901 008e 2E46     		mov	r6, r5
 1902 0090 DED3     		bcc	.L109
 1903              	.LVL192:
 1904              	.L124:
 1905              		.loc 1 238 0
 1906 0092 002B     		cmp	r3, #0
 1907 0094 40F08B80 		bne	.L125
 1908              	.L110:
 1909              	.LVL193:
 1910              	.LBB209:
 1911              	.LBB210:
 1912              		.loc 1 571 0
 1913 0098 D9F82431 		ldr	r3, [r9, #292]
 1914              	.LBE210:
 1915              	.LBE209:
 1916              		.loc 1 242 0
 1917 009c 0198     		ldr	r0, [sp, #4]
 1918              	.LBB213:
 1919              	.LBB211:
 1920              		.loc 1 571 0
 1921 009e 1989     		ldrh	r1, [r3, #8]
 1922 00a0 5A68     		ldr	r2, [r3, #4]
 1923 00a2 0123     		movs	r3, #1
 1924 00a4 8B40     		lsls	r3, r3, r1
 1925 00a6 9BB2     		uxth	r3, r3
 1926              	.LBE211:
 1927              	.LBE213:
 1928              		.loc 1 242 0
 1929 00a8 03A9     		add	r1, sp, #12
 1930              	.LVL194:
 1931              	.LBB214:
 1932              	.LBB212:
 1933              		.loc 1 571 0
 1934 00aa 5383     		strh	r3, [r2, #26]	@ movhi
 1935              	.LBE212:
 1936              	.LBE214:
 1937              		.loc 1 242 0
 1938 00ac FFF7FEFF 		bl	chEvtUnregister
ARM GAS  /var/folders/m4/4md61f0s1_g0rzfghffqnxvr0000gn/T//ccHVf8ER.s 			page 35


 1939              	.LVL195:
 1940              		.loc 1 245 0
 1941 00b0 3046     		mov	r0, r6
 1942 00b2 09B0     		add	sp, sp, #36
 1943              		.cfi_remember_state
 1944              		.cfi_def_cfa_offset 36
 1945              	.LVL196:
 1946              		@ sp needed
 1947 00b4 BDE8F08F 		pop	{r4, r5, r6, r7, r8, r9, r10, fp, pc}
 1948              	.LVL197:
 1949              	.L87:
 1950              		.cfi_restore_state
 1951              	.LBB215:
 1952              	.LBB179:
 1953              	.LBB180:
 1954              		.loc 1 437 0
 1955 00b8 4846     		mov	r0, r9
 1956 00ba 1721     		movs	r1, #23
 1957 00bc FFF7FEFF 		bl	nrf24l01ReadRegister
 1958              	.LVL198:
 1959              	.LBE180:
 1960              	.LBE179:
 1961              		.loc 1 183 0
 1962 00c0 C207     		lsls	r2, r0, #31
 1963 00c2 44D4     		bmi	.L92
 1964              	.LBB181:
 1965              		.loc 1 185 0
 1966 00c4 C0F34203 		ubfx	r3, r0, #1, #3
 1967              		.loc 1 186 0
 1968 00c8 4846     		mov	r0, r9
 1969              		.loc 1 185 0
 1970 00ca 8DF80B30 		strb	r3, [sp, #11]
 1971              		.loc 1 186 0
 1972 00ce FFF7FEFF 		bl	nrf24l01GetSize
 1973              	.LVL199:
 1974              		.loc 1 188 0
 1975 00d2 9DF80B60 		ldrb	r6, [sp, #11]	@ zero_extendqisi2
 1976 00d6 4FEA460B 		lsl	fp, r6, #1
 1977 00da 0BEB0603 		add	r3, fp, r6
 1978 00de 1B01     		lsls	r3, r3, #4
 1979 00e0 09EB0302 		add	r2, r9, r3
 1980              		.loc 1 190 0
 1981 00e4 9442     		cmp	r4, r2
 1982              		.loc 1 186 0
 1983 00e6 8046     		mov	r8, r0
 1984              	.LVL200:
 1985              		.loc 1 190 0
 1986 00e8 59D0     		beq	.L93
 1987              		.loc 1 192 0
 1988 00ea 92F82830 		ldrb	r3, [r2, #40]	@ zero_extendqisi2
 1989 00ee 1918     		adds	r1, r3, r0
 1990 00f0 2029     		cmp	r1, #32
 1991 00f2 3DDC     		bgt	.L94
 1992              		.loc 1 192 0 is_stmt 0 discriminator 1
 1993 00f4 002B     		cmp	r3, #0
 1994 00f6 3BD0     		beq	.L94
 1995 00f8 C3F12003 		rsb	r3, r3, #32
ARM GAS  /var/folders/m4/4md61f0s1_g0rzfghffqnxvr0000gn/T//ccHVf8ER.s 			page 36


 1996              	.LBB182:
 1997              		.loc 1 201 0 is_stmt 1
 1998 00fc 1B1A     		subs	r3, r3, r0
 1999 00fe DBB2     		uxtb	r3, r3
 2000              	.LVL201:
 2001 0100 C0F1200E 		rsb	lr, r0, #32
 2002 0104 9E45     		cmp	lr, r3
 2003              		.loc 1 202 0
 2004 0106 C8BF     		it	gt
 2005 0108 02EB000C 		addgt	ip, r2, r0
 2006              		.loc 1 201 0
 2007 010c 08DD     		ble	.L102
 2008              	.LVL202:
 2009              	.L101:
 2010              		.loc 1 202 0 discriminator 3
 2011 010e 0CEB0300 		add	r0, ip, r3
 2012 0112 D118     		adds	r1, r2, r3
 2013              		.loc 1 201 0 discriminator 3
 2014 0114 0133     		adds	r3, r3, #1
 2015              	.LVL203:
 2016 0116 DBB2     		uxtb	r3, r3
 2017              	.LVL204:
 2018              		.loc 1 202 0 discriminator 3
 2019 0118 007A     		ldrb	r0, [r0, #8]	@ zero_extendqisi2
 2020 011a 0872     		strb	r0, [r1, #8]
 2021              		.loc 1 201 0 discriminator 3
 2022 011c 7345     		cmp	r3, lr
 2023 011e F6DB     		blt	.L101
 2024              	.L102:
 2025              	.LVL205:
 2026              	.LBE182:
 2027              	.LBB183:
 2028              	.LBB184:
 2029              		.loc 1 481 0
 2030 0120 B8F1200F 		cmp	r8, #32
 2031 0124 52D9     		bls	.L126
 2032              	.LVL206:
 2033              	.L99:
 2034              	.LBE184:
 2035              	.LBE183:
 2036              		.loc 1 205 0
 2037 0126 0BEB0603 		add	r3, fp, r6
 2038 012a 09EB0313 		add	r3, r9, r3, lsl #4
 2039 012e 93F82820 		ldrb	r2, [r3, #40]	@ zero_extendqisi2
 2040 0132 9044     		add	r8, r8, r2
 2041              	.LVL207:
 2042 0134 83F82880 		strb	r8, [r3, #40]
 2043              	.LVL208:
 2044              	.L97:
 2045              		.loc 1 207 0
 2046 0138 0BEB0600 		add	r0, fp, r6
 2047 013c 09EB0010 		add	r0, r9, r0, lsl #4
 2048 0140 2C30     		adds	r0, r0, #44
 2049 0142 0421     		movs	r1, #4
 2050 0144 FFF7FEFF 		bl	chEvtBroadcastFlags
 2051              	.LVL209:
 2052              	.L121:
ARM GAS  /var/folders/m4/4md61f0s1_g0rzfghffqnxvr0000gn/T//ccHVf8ER.s 			page 37


 2053 0148 94F82830 		ldrb	r3, [r4, #40]	@ zero_extendqisi2
 2054 014c 7DE7     		b	.L84
 2055              	.L92:
 2056              	.LBE181:
 2057              		.loc 1 225 0
 2058 014e 0120     		movs	r0, #1
 2059 0150 0099     		ldr	r1, [sp]
 2060 0152 FFF7FEFF 		bl	chEvtWaitOneTimeout
 2061              	.LVL210:
 2062 0156 0028     		cmp	r0, #0
 2063 0158 45D0     		beq	.L127
 2064              		.loc 1 232 0
 2065 015a 4846     		mov	r0, r9
 2066 015c FFF7FEFF 		bl	nrf24l01GetStatus
 2067              	.LVL211:
 2068              		.loc 1 234 0
 2069 0160 4306     		lsls	r3, r0, #25
 2070 0162 F1D5     		bpl	.L121
 2071              	.LVL212:
 2072              	.LBB199:
 2073              	.LBB200:
 2074              		.loc 1 409 0
 2075 0164 4846     		mov	r0, r9
 2076              	.LVL213:
 2077 0166 0721     		movs	r1, #7
 2078 0168 4022     		movs	r2, #64
 2079 016a FFF7FEFF 		bl	nrf24l01WriteRegister
 2080              	.LVL214:
 2081 016e EBE7     		b	.L121
 2082              	.LVL215:
 2083              	.L94:
 2084              	.LBE200:
 2085              	.LBE199:
 2086              	.LBB201:
 2087              	.LBB186:
 2088              	.LBB187:
 2089              		.loc 1 481 0
 2090 0170 B8F1200F 		cmp	r8, #32
 2091 0174 06D9     		bls	.L128
 2092              	.LVL216:
 2093              	.L96:
 2094              	.LBE187:
 2095              	.LBE186:
 2096              		.loc 1 196 0
 2097 0176 0BEB0603 		add	r3, fp, r6
 2098 017a 09EB0313 		add	r3, r9, r3, lsl #4
 2099 017e 83F82880 		strb	r8, [r3, #40]
 2100 0182 D9E7     		b	.L97
 2101              	.LVL217:
 2102              	.L128:
 2103              		.loc 1 195 0
 2104 0184 0BEB0602 		add	r2, fp, r6
 2105 0188 C8EB0212 		rsb	r2, r8, r2, lsl #4
 2106 018c 2832     		adds	r2, r2, #40
 2107              	.LBB189:
 2108              	.LBB188:
 2109 018e 4A44     		add	r2, r2, r9
ARM GAS  /var/folders/m4/4md61f0s1_g0rzfghffqnxvr0000gn/T//ccHVf8ER.s 			page 38


 2110 0190 4846     		mov	r0, r9
 2111              	.LVL218:
 2112 0192 4146     		mov	r1, r8
 2113 0194 0DF10B03 		add	r3, sp, #11
 2114              	.LVL219:
 2115 0198 FFF7FEFF 		bl	nrf24l01ReadPayload.part.2
 2116              	.LVL220:
 2117 019c EBE7     		b	.L96
 2118              	.LVL221:
 2119              	.L93:
 2120              	.LBE188:
 2121              	.LBE189:
 2122              		.loc 1 211 0
 2123 019e 7A1B     		subs	r2, r7, r5
 2124 01a0 9042     		cmp	r0, r2
 2125 01a2 0AD8     		bhi	.L104
 2126              	.LVL222:
 2127              	.LBB190:
 2128              	.LBB191:
 2129              		.loc 1 481 0
 2130 01a4 2028     		cmp	r0, #32
 2131 01a6 39D9     		bls	.L129
 2132              	.LVL223:
 2133              	.L105:
 2134              	.LBE191:
 2135              	.LBE190:
 2136              		.loc 1 214 0
 2137 01a8 4544     		add	r5, r5, r8
 2138              	.LVL224:
 2139 01aa ADB2     		uxth	r5, r5
 2140              	.LVL225:
 2141 01ac CCE7     		b	.L121
 2142              	.LVL226:
 2143              	.L125:
 2144              	.LBE201:
 2145              	.LBE215:
 2146              		.loc 1 239 0
 2147 01ae 04F12C00 		add	r0, r4, #44
 2148 01b2 0421     		movs	r1, #4
 2149 01b4 FFF7FEFF 		bl	chEvtBroadcastFlags
 2150              	.LVL227:
 2151 01b8 6EE7     		b	.L110
 2152              	.LVL228:
 2153              	.L104:
 2154              	.LBB216:
 2155              	.LBB202:
 2156              	.LBB193:
 2157              	.LBB194:
 2158              		.loc 1 481 0
 2159 01ba 2028     		cmp	r0, #32
 2160 01bc 23D9     		bls	.L130
 2161              	.LVL229:
 2162              	.L106:
 2163              	.LBE194:
 2164              	.LBE193:
 2165              		.loc 1 219 0
 2166 01be 0BEB0603 		add	r3, fp, r6
ARM GAS  /var/folders/m4/4md61f0s1_g0rzfghffqnxvr0000gn/T//ccHVf8ER.s 			page 39


 2167 01c2 09EB0313 		add	r3, r9, r3, lsl #4
 2168 01c6 83F82880 		strb	r8, [r3, #40]
 2169 01ca BDE7     		b	.L121
 2170              	.LVL230:
 2171              	.L126:
 2172              		.loc 1 204 0
 2173 01cc 0BEB0602 		add	r2, fp, r6
 2174 01d0 0EEB0212 		add	r2, lr, r2, lsl #4
 2175 01d4 0832     		adds	r2, r2, #8
 2176              	.LBB196:
 2177              	.LBB185:
 2178 01d6 4A44     		add	r2, r2, r9
 2179 01d8 4846     		mov	r0, r9
 2180 01da 4146     		mov	r1, r8
 2181 01dc 0DF10B03 		add	r3, sp, #11
 2182              	.LVL231:
 2183 01e0 FFF7FEFF 		bl	nrf24l01ReadPayload.part.2
 2184              	.LVL232:
 2185 01e4 9FE7     		b	.L99
 2186              	.LVL233:
 2187              	.L127:
 2188              	.LBE185:
 2189              	.LBE196:
 2190              	.LBE202:
 2191              		.loc 1 227 0
 2192 01e6 0198     		ldr	r0, [sp, #4]
 2193 01e8 03A9     		add	r1, sp, #12
 2194              	.LVL234:
 2195 01ea FFF7FEFF 		bl	chEvtUnregister
 2196              	.LVL235:
 2197              	.LBB203:
 2198              	.LBB204:
 2199              		.loc 1 571 0
 2200 01ee D9F82431 		ldr	r3, [r9, #292]
 2201 01f2 1989     		ldrh	r1, [r3, #8]
 2202 01f4 5A68     		ldr	r2, [r3, #4]
 2203 01f6 0123     		movs	r3, #1
 2204 01f8 8B40     		lsls	r3, r3, r1
 2205 01fa 9BB2     		uxth	r3, r3
 2206              	.LBE204:
 2207              	.LBE203:
 2208              	.LBE216:
 2209              		.loc 1 245 0
 2210 01fc 3046     		mov	r0, r6
 2211              	.LBB217:
 2212              	.LBB206:
 2213              	.LBB205:
 2214              		.loc 1 571 0
 2215 01fe 5383     		strh	r3, [r2, #26]	@ movhi
 2216              	.LBE205:
 2217              	.LBE206:
 2218              	.LBE217:
 2219              		.loc 1 245 0
 2220 0200 09B0     		add	sp, sp, #36
 2221              		.cfi_remember_state
 2222              		.cfi_def_cfa_offset 36
 2223              	.LVL236:
ARM GAS  /var/folders/m4/4md61f0s1_g0rzfghffqnxvr0000gn/T//ccHVf8ER.s 			page 40


 2224              		@ sp needed
 2225 0202 BDE8F08F 		pop	{r4, r5, r6, r7, r8, r9, r10, fp, pc}
 2226              	.LVL237:
 2227              	.L130:
 2228              		.cfi_restore_state
 2229              	.LBB218:
 2230              	.LBB207:
 2231              		.loc 1 218 0
 2232 0206 1B1A     		subs	r3, r3, r0
 2233 0208 03F12802 		add	r2, r3, #40
 2234              	.LBB197:
 2235              	.LBB195:
 2236 020c 4A44     		add	r2, r2, r9
 2237 020e 4846     		mov	r0, r9
 2238              	.LVL238:
 2239 0210 4146     		mov	r1, r8
 2240 0212 0DF10B03 		add	r3, sp, #11
 2241              	.LVL239:
 2242 0216 FFF7FEFF 		bl	nrf24l01ReadPayload.part.2
 2243              	.LVL240:
 2244 021a D0E7     		b	.L106
 2245              	.LVL241:
 2246              	.L129:
 2247              	.LBE195:
 2248              	.LBE197:
 2249              	.LBB198:
 2250              	.LBB192:
 2251 021c 4846     		mov	r0, r9
 2252              	.LVL242:
 2253 021e 4146     		mov	r1, r8
 2254 0220 0AEB0502 		add	r2, r10, r5
 2255 0224 0DF10B03 		add	r3, sp, #11
 2256              	.LVL243:
 2257 0228 FFF7FEFF 		bl	nrf24l01ReadPayload.part.2
 2258              	.LVL244:
 2259 022c BCE7     		b	.L105
 2260              	.LBE192:
 2261              	.LBE198:
 2262              	.LBE207:
 2263              	.LBE218:
 2264              		.cfi_endproc
 2265              	.LFE271:
 2266              		.size	readt, .-readt
 2267 022e 00BF     		.section	.text.gett,"ax",%progbits
 2268              		.align	2
 2269              		.p2align 4,,15
 2270              		.thumb
 2271              		.thumb_func
 2272              		.type	gett, %function
 2273              	gett:
 2274              	.LFB273:
 2275              		.loc 1 255 0
 2276              		.cfi_startproc
 2277              		@ args = 0, pretend = 0, frame = 8
 2278              		@ frame_needed = 0, uses_anonymous_args = 0
 2279              	.LVL245:
 2280 0000 10B5     		push	{r4, lr}
ARM GAS  /var/folders/m4/4md61f0s1_g0rzfghffqnxvr0000gn/T//ccHVf8ER.s 			page 41


 2281              		.cfi_def_cfa_offset 8
 2282              		.cfi_offset 4, -8
 2283              		.cfi_offset 14, -4
 2284              		.loc 1 256 0
 2285 0002 4268     		ldr	r2, [r0, #4]
 2286              	.LVL246:
 2287              		.loc 1 255 0
 2288 0004 82B0     		sub	sp, sp, #8
 2289              		.cfi_def_cfa_offset 16
 2290 0006 02F59074 		add	r4, r2, #288
 2291              	.LVL247:
 2292              	.L135:
 2293              	.LBB226:
 2294              		.loc 1 261 0
 2295 000a 9042     		cmp	r0, r2
 2296 000c 02F13002 		add	r2, r2, #48
 2297 0010 05D0     		beq	.L143
 2298              		.loc 1 259 0 discriminator 2
 2299 0012 A242     		cmp	r2, r4
 2300 0014 F9D1     		bne	.L135
 2301              	.LBE226:
 2302              		.loc 1 269 0
 2303 0016 6FF00100 		mvn	r0, #1
 2304              	.LVL248:
 2305              		.loc 1 284 0
 2306 001a 02B0     		add	sp, sp, #8
 2307              		.cfi_remember_state
 2308              		.cfi_def_cfa_offset 8
 2309              		@ sp needed
 2310 001c 10BD     		pop	{r4, pc}
 2311              	.LVL249:
 2312              	.L143:
 2313              		.cfi_restore_state
 2314              		.loc 1 271 0
 2315 001e 90F82820 		ldrb	r2, [r0, #40]	@ zero_extendqisi2
 2316 0022 42B1     		cbz	r2, .L144
 2317              	.LBB227:
 2318              		.loc 1 273 0
 2319 0024 831A     		subs	r3, r0, r2
 2320              		.loc 1 274 0
 2321 0026 013A     		subs	r2, r2, #1
 2322              		.loc 1 273 0
 2323 0028 93F82830 		ldrb	r3, [r3, #40]	@ zero_extendqisi2
 2324              	.LVL250:
 2325              		.loc 1 274 0
 2326 002c 80F82820 		strb	r2, [r0, #40]
 2327              		.loc 1 275 0
 2328 0030 1846     		mov	r0, r3
 2329              	.LVL251:
 2330              	.LBE227:
 2331              		.loc 1 284 0
 2332 0032 02B0     		add	sp, sp, #8
 2333              		.cfi_remember_state
 2334              		.cfi_def_cfa_offset 8
 2335              		@ sp needed
 2336 0034 10BD     		pop	{r4, pc}
 2337              	.LVL252:
ARM GAS  /var/folders/m4/4md61f0s1_g0rzfghffqnxvr0000gn/T//ccHVf8ER.s 			page 42


 2338              	.L144:
 2339              		.cfi_restore_state
 2340 0036 0B46     		mov	r3, r1
 2341              	.LVL253:
 2342              	.LBB228:
 2343              	.LBB229:
 2344              	.LBB230:
 2345              		.loc 1 280 0
 2346 0038 0122     		movs	r2, #1
 2347 003a 0DF10701 		add	r1, sp, #7
 2348              	.LVL254:
 2349 003e FFF7FEFF 		bl	readt
 2350              	.LVL255:
 2351 0042 18B9     		cbnz	r0, .L145
 2352              		.loc 1 281 0
 2353 0044 4FF0FF30 		mov	r0, #-1
 2354              	.LBE230:
 2355              	.LBE229:
 2356              	.LBE228:
 2357              		.loc 1 284 0
 2358 0048 02B0     		add	sp, sp, #8
 2359              		.cfi_remember_state
 2360              		.cfi_def_cfa_offset 8
 2361              		@ sp needed
 2362 004a 10BD     		pop	{r4, pc}
 2363              	.L145:
 2364              		.cfi_restore_state
 2365              	.LBB233:
 2366              	.LBB232:
 2367              	.LBB231:
 2368              		.loc 1 282 0
 2369 004c 9DF80700 		ldrb	r0, [sp, #7]	@ zero_extendqisi2
 2370              	.LBE231:
 2371              	.LBE232:
 2372              	.LBE233:
 2373              		.loc 1 284 0
 2374 0050 02B0     		add	sp, sp, #8
 2375              		.cfi_def_cfa_offset 8
 2376              		@ sp needed
 2377 0052 10BD     		pop	{r4, pc}
 2378              		.cfi_endproc
 2379              	.LFE273:
 2380              		.size	gett, .-gett
 2381              		.section	.text.get,"ax",%progbits
 2382              		.align	2
 2383              		.p2align 4,,15
 2384              		.thumb
 2385              		.thumb_func
 2386              		.type	get, %function
 2387              	get:
 2388              	.LFB277:
 2389              		.loc 1 302 0
 2390              		.cfi_startproc
 2391              		@ args = 0, pretend = 0, frame = 0
 2392              		@ frame_needed = 0, uses_anonymous_args = 0
 2393              		@ link register save eliminated.
 2394              	.LVL256:
ARM GAS  /var/folders/m4/4md61f0s1_g0rzfghffqnxvr0000gn/T//ccHVf8ER.s 			page 43


 2395              		.loc 1 303 0
 2396 0000 4FF0FF31 		mov	r1, #-1
 2397 0004 FFF7FEBF 		b	gett
 2398              	.LVL257:
 2399              		.cfi_endproc
 2400              	.LFE277:
 2401              		.size	get, .-get
 2402              		.section	.text.read,"ax",%progbits
 2403              		.align	2
 2404              		.p2align 4,,15
 2405              		.thumb
 2406              		.thumb_func
 2407              		.type	read, %function
 2408              	read:
 2409              	.LFB275:
 2410              		.loc 1 292 0
 2411              		.cfi_startproc
 2412              		@ args = 0, pretend = 0, frame = 0
 2413              		@ frame_needed = 0, uses_anonymous_args = 0
 2414              		@ link register save eliminated.
 2415              	.LVL258:
 2416              		.loc 1 293 0
 2417 0000 4FF0FF33 		mov	r3, #-1
 2418 0004 FFF7FEBF 		b	readt
 2419              	.LVL259:
 2420              		.cfi_endproc
 2421              	.LFE275:
 2422              		.size	read, .-read
 2423              		.section	.text.nrf24l01EnterTX,"ax",%progbits
 2424              		.align	2
 2425              		.p2align 4,,15
 2426              		.global	nrf24l01EnterTX
 2427              		.thumb
 2428              		.thumb_func
 2429              		.type	nrf24l01EnterTX, %function
 2430              	nrf24l01EnterTX:
 2431              	.LFB305:
 2432              		.loc 1 559 0
 2433              		.cfi_startproc
 2434              		@ args = 0, pretend = 0, frame = 0
 2435              		@ frame_needed = 0, uses_anonymous_args = 0
 2436              	.LVL260:
 2437 0000 38B5     		push	{r3, r4, r5, lr}
 2438              		.cfi_def_cfa_offset 16
 2439              		.cfi_offset 3, -16
 2440              		.cfi_offset 4, -12
 2441              		.cfi_offset 5, -8
 2442              		.cfi_offset 14, -4
 2443              		.loc 1 560 0
 2444 0002 D0F82431 		ldr	r3, [r0, #292]
 2445 0006 1989     		ldrh	r1, [r3, #8]
 2446 0008 5A68     		ldr	r2, [r3, #4]
 2447 000a 0124     		movs	r4, #1
 2448 000c 04FA01F3 		lsl	r3, r4, r1
 2449 0010 9BB2     		uxth	r3, r3
 2450 0012 5383     		strh	r3, [r2, #26]	@ movhi
 2451              		.loc 1 562 0
ARM GAS  /var/folders/m4/4md61f0s1_g0rzfghffqnxvr0000gn/T//ccHVf8ER.s 			page 44


 2452 0014 0021     		movs	r1, #0
 2453              		.loc 1 559 0
 2454 0016 0546     		mov	r5, r0
 2455              		.loc 1 562 0
 2456 0018 FFF7FEFF 		bl	nrf24l01ReadRegister
 2457              	.LVL261:
 2458              		.loc 1 564 0
 2459 001c 0021     		movs	r1, #0
 2460 001e 00F0FE02 		and	r2, r0, #254
 2461 0022 2846     		mov	r0, r5
 2462              	.LVL262:
 2463 0024 FFF7FEFF 		bl	nrf24l01WriteRegister
 2464              	.LVL263:
 2465              		.loc 1 566 0
 2466 0028 D5F82431 		ldr	r3, [r5, #292]
 2467 002c 1A89     		ldrh	r2, [r3, #8]
 2468 002e 5B68     		ldr	r3, [r3, #4]
 2469 0030 9440     		lsls	r4, r4, r2
 2470 0032 A4B2     		uxth	r4, r4
 2471 0034 1C83     		strh	r4, [r3, #24]	@ movhi
 2472 0036 38BD     		pop	{r3, r4, r5, pc}
 2473              		.cfi_endproc
 2474              	.LFE305:
 2475              		.size	nrf24l01EnterTX, .-nrf24l01EnterTX
 2476              		.section	.text.writet,"ax",%progbits
 2477              		.align	2
 2478              		.p2align 4,,15
 2479              		.thumb
 2480              		.thumb_func
 2481              		.type	writet, %function
 2482              	writet:
 2483              	.LFB270:
 2484              		.loc 1 87 0
 2485              		.cfi_startproc
 2486              		@ args = 0, pretend = 0, frame = 24
 2487              		@ frame_needed = 0, uses_anonymous_args = 0
 2488              	.LVL264:
 2489 0000 2DE9F04F 		push	{r4, r5, r6, r7, r8, r9, r10, fp, lr}
 2490              		.cfi_def_cfa_offset 36
 2491              		.cfi_offset 4, -36
 2492              		.cfi_offset 5, -32
 2493              		.cfi_offset 6, -28
 2494              		.cfi_offset 7, -24
 2495              		.cfi_offset 8, -20
 2496              		.cfi_offset 9, -16
 2497              		.cfi_offset 10, -12
 2498              		.cfi_offset 11, -8
 2499              		.cfi_offset 14, -4
 2500              		.loc 1 89 0
 2501 0004 4668     		ldr	r6, [r0, #4]
 2502              	.LVL265:
 2503              		.loc 1 90 0
 2504 0006 8642     		cmp	r6, r0
 2505              		.loc 1 87 0
 2506 0008 87B0     		sub	sp, sp, #28
 2507              		.cfi_def_cfa_offset 64
 2508              		.loc 1 91 0
ARM GAS  /var/folders/m4/4md61f0s1_g0rzfghffqnxvr0000gn/T//ccHVf8ER.s 			page 45


 2509 000a 18BF     		it	ne
 2510 000c 0025     		movne	r5, #0
 2511              		.loc 1 90 0
 2512 000e 03D0     		beq	.L166
 2513              	.LVL266:
 2514              	.L151:
 2515              		.loc 1 144 0
 2516 0010 2846     		mov	r0, r5
 2517 0012 07B0     		add	sp, sp, #28
 2518              		.cfi_remember_state
 2519              		.cfi_def_cfa_offset 36
 2520              		@ sp needed
 2521 0014 BDE8F08F 		pop	{r4, r5, r6, r7, r8, r9, r10, fp, pc}
 2522              	.LVL267:
 2523              	.L166:
 2524              		.cfi_restore_state
 2525              		.loc 1 93 0
 2526 0018 06F5907A 		add	r10, r6, #288
 2527              	.LVL268:
 2528              	.LBB234:
 2529              	.LBB235:
 2530              		.loc 3 193 0
 2531 001c 5046     		mov	r0, r10
 2532              	.LVL269:
 2533 001e 9946     		mov	r9, r3
 2534 0020 1746     		mov	r7, r2
 2535 0022 4FF0FF33 		mov	r3, #-1
 2536              	.LVL270:
 2537 0026 0122     		movs	r2, #1
 2538              	.LVL271:
 2539 0028 8846     		mov	r8, r1
 2540 002a 01A9     		add	r1, sp, #4
 2541              	.LVL272:
 2542 002c FFF7FEFF 		bl	chEvtRegisterMaskWithFlags
 2543              	.LVL273:
 2544              	.LBE235:
 2545              	.LBE234:
 2546              		.loc 1 98 0
 2547 0030 3046     		mov	r0, r6
 2548 0032 FFF7FEFF 		bl	nrf24l01GetStatus
 2549              	.LVL274:
 2550              		.loc 1 100 0
 2551 0036 10F00105 		ands	r5, r0, #1
 2552 003a 27D1     		bne	.L167
 2553              		.loc 1 106 0
 2554 003c 3046     		mov	r0, r6
 2555              	.LVL275:
 2556 003e FFF7FEFF 		bl	nrf24l01EnterTX
 2557              	.LVL276:
 2558              		.loc 1 108 0
 2559 0042 4FB3     		cbz	r7, .L159
 2560 0044 AB46     		mov	fp, r5
 2561 0046 05E0     		b	.L157
 2562              	.LVL277:
 2563              	.L156:
 2564              	.LBB236:
 2565              		.loc 1 135 0
ARM GAS  /var/folders/m4/4md61f0s1_g0rzfghffqnxvr0000gn/T//ccHVf8ER.s 			page 46


 2566 0048 5C44     		add	r4, r4, fp
 2567              	.LVL278:
 2568 004a 1FFA84FB 		uxth	fp, r4
 2569              	.LVL279:
 2570              	.LBE236:
 2571              		.loc 1 108 0
 2572 004e BB45     		cmp	fp, r7
 2573 0050 5D46     		mov	r5, fp
 2574              	.LVL280:
 2575 0052 22D2     		bcs	.L153
 2576              	.LVL281:
 2577              	.L157:
 2578              	.LBB245:
 2579              		.loc 1 110 0
 2580 0054 7C1B     		subs	r4, r7, r5
 2581 0056 202C     		cmp	r4, #32
 2582 0058 28BF     		it	cs
 2583 005a 2024     		movcs	r4, #32
 2584              	.LVL282:
 2585              	.LBB237:
 2586              	.LBB238:
 2587 005c E1B2     		uxtb	r1, r4
 2588 005e 3046     		mov	r0, r6
 2589 0060 08EB0502 		add	r2, r8, r5
 2590              	.LVL283:
 2591 0064 FFF7FEFF 		bl	nrf24l01WritePayload.part.3
 2592              	.LVL284:
 2593              	.LBE238:
 2594              	.LBE237:
 2595              		.loc 1 114 0
 2596 0068 0120     		movs	r0, #1
 2597 006a 4946     		mov	r1, r9
 2598 006c FFF7FEFF 		bl	chEvtWaitOneTimeout
 2599              	.LVL285:
 2600 0070 28B3     		cbz	r0, .L168
 2601              		.loc 1 121 0
 2602 0072 3046     		mov	r0, r6
 2603 0074 FFF7FEFF 		bl	nrf24l01GetStatus
 2604              	.LVL286:
 2605              		.loc 1 123 0
 2606 0078 C206     		lsls	r2, r0, #27
 2607 007a 2DD4     		bmi	.L169
 2608              		.loc 1 132 0
 2609 007c 8306     		lsls	r3, r0, #26
 2610 007e E3D5     		bpl	.L156
 2611              	.LVL287:
 2612              	.LBB239:
 2613              	.LBB240:
 2614              		.loc 1 409 0
 2615 0080 3046     		mov	r0, r6
 2616              	.LVL288:
 2617 0082 0721     		movs	r1, #7
 2618 0084 2022     		movs	r2, #32
 2619 0086 FFF7FEFF 		bl	nrf24l01WriteRegister
 2620              	.LVL289:
 2621 008a DDE7     		b	.L156
 2622              	.LVL290:
ARM GAS  /var/folders/m4/4md61f0s1_g0rzfghffqnxvr0000gn/T//ccHVf8ER.s 			page 47


 2623              	.L167:
 2624              	.LBE240:
 2625              	.LBE239:
 2626              	.LBE245:
 2627              		.loc 1 102 0
 2628 008c 5046     		mov	r0, r10
 2629              	.LVL291:
 2630 008e 01A9     		add	r1, sp, #4
 2631              	.LVL292:
 2632 0090 FFF7FEFF 		bl	chEvtUnregister
 2633              	.LVL293:
 2634              		.loc 1 103 0
 2635 0094 0025     		movs	r5, #0
 2636 0096 BBE7     		b	.L151
 2637              	.L159:
 2638              		.loc 1 108 0
 2639 0098 3D46     		mov	r5, r7
 2640              	.LVL294:
 2641              	.L153:
 2642              	.LBB246:
 2643              	.LBB247:
 2644              		.loc 1 571 0
 2645 009a D6F82431 		ldr	r3, [r6, #292]
 2646 009e 1989     		ldrh	r1, [r3, #8]
 2647 00a0 5A68     		ldr	r2, [r3, #4]
 2648 00a2 0123     		movs	r3, #1
 2649 00a4 8B40     		lsls	r3, r3, r1
 2650 00a6 9BB2     		uxth	r3, r3
 2651              	.LBE247:
 2652              	.LBE246:
 2653              		.loc 1 140 0
 2654 00a8 06F12C00 		add	r0, r6, #44
 2655              	.LBB249:
 2656              	.LBB248:
 2657              		.loc 1 571 0
 2658 00ac 5383     		strh	r3, [r2, #26]	@ movhi
 2659              	.LBE248:
 2660              	.LBE249:
 2661              		.loc 1 140 0
 2662 00ae 1821     		movs	r1, #24
 2663 00b0 FFF7FEFF 		bl	chEvtBroadcastFlags
 2664              	.LVL295:
 2665              		.loc 1 141 0
 2666 00b4 5046     		mov	r0, r10
 2667 00b6 01A9     		add	r1, sp, #4
 2668              	.LVL296:
 2669 00b8 FFF7FEFF 		bl	chEvtUnregister
 2670              	.LVL297:
 2671              		.loc 1 143 0
 2672 00bc A8E7     		b	.L151
 2673              	.LVL298:
 2674              	.L168:
 2675              	.LBB250:
 2676              		.loc 1 116 0
 2677 00be 5046     		mov	r0, r10
 2678 00c0 01A9     		add	r1, sp, #4
 2679              	.LVL299:
ARM GAS  /var/folders/m4/4md61f0s1_g0rzfghffqnxvr0000gn/T//ccHVf8ER.s 			page 48


 2680 00c2 FFF7FEFF 		bl	chEvtUnregister
 2681              	.LVL300:
 2682              	.L165:
 2683              	.LBB241:
 2684              	.LBB242:
 2685              		.loc 1 571 0
 2686 00c6 D6F82431 		ldr	r3, [r6, #292]
 2687 00ca 1989     		ldrh	r1, [r3, #8]
 2688 00cc 5A68     		ldr	r2, [r3, #4]
 2689 00ce 0123     		movs	r3, #1
 2690 00d0 8B40     		lsls	r3, r3, r1
 2691 00d2 9BB2     		uxth	r3, r3
 2692 00d4 5383     		strh	r3, [r2, #26]	@ movhi
 2693              	.LBE242:
 2694              	.LBE241:
 2695              		.loc 1 129 0
 2696 00d6 9BE7     		b	.L151
 2697              	.LVL301:
 2698              	.L169:
 2699              		.loc 1 125 0
 2700 00d8 5046     		mov	r0, r10
 2701              	.LVL302:
 2702 00da 01A9     		add	r1, sp, #4
 2703              	.LVL303:
 2704 00dc FFF7FEFF 		bl	chEvtUnregister
 2705              	.LVL304:
 2706              	.LBB243:
 2707              	.LBB244:
 2708              		.loc 1 409 0
 2709 00e0 3046     		mov	r0, r6
 2710 00e2 0721     		movs	r1, #7
 2711 00e4 1022     		movs	r2, #16
 2712 00e6 FFF7FEFF 		bl	nrf24l01WriteRegister
 2713              	.LVL305:
 2714              	.LBE244:
 2715              	.LBE243:
 2716              		.loc 1 127 0
 2717 00ea 3046     		mov	r0, r6
 2718 00ec FFF7FEFF 		bl	nrf24l01FlushTX
 2719              	.LVL306:
 2720 00f0 E9E7     		b	.L165
 2721              	.LBE250:
 2722              		.cfi_endproc
 2723              	.LFE270:
 2724              		.size	writet, .-writet
 2725 00f2 00BF     		.section	.text.putt,"ax",%progbits
 2726              		.align	2
 2727              		.p2align 4,,15
 2728              		.thumb
 2729              		.thumb_func
 2730              		.type	putt, %function
 2731              	putt:
 2732              	.LFB272:
 2733              		.loc 1 248 0
 2734              		.cfi_startproc
 2735              		@ args = 0, pretend = 0, frame = 8
 2736              		@ frame_needed = 0, uses_anonymous_args = 0
ARM GAS  /var/folders/m4/4md61f0s1_g0rzfghffqnxvr0000gn/T//ccHVf8ER.s 			page 49


 2737              	.LVL307:
 2738 0000 10B5     		push	{r4, lr}
 2739              		.cfi_def_cfa_offset 8
 2740              		.cfi_offset 4, -8
 2741              		.cfi_offset 14, -4
 2742 0002 82B0     		sub	sp, sp, #8
 2743              		.cfi_def_cfa_offset 16
 2744              		.loc 1 248 0
 2745 0004 02AC     		add	r4, sp, #8
 2746 0006 1346     		mov	r3, r2
 2747 0008 04F8011D 		strb	r1, [r4, #-1]!
 2748              		.loc 1 249 0
 2749 000c 0122     		movs	r2, #1
 2750              	.LVL308:
 2751 000e 2146     		mov	r1, r4
 2752              	.LVL309:
 2753 0010 FFF7FEFF 		bl	writet
 2754              	.LVL310:
 2755 0014 B0FA80F0 		clz	r0, r0
 2756 0018 4009     		lsrs	r0, r0, #5
 2757              		.loc 1 252 0
 2758 001a 4042     		negs	r0, r0
 2759 001c 02B0     		add	sp, sp, #8
 2760              		.cfi_def_cfa_offset 8
 2761              		@ sp needed
 2762 001e 10BD     		pop	{r4, pc}
 2763              		.cfi_endproc
 2764              	.LFE272:
 2765              		.size	putt, .-putt
 2766              		.section	.text.put,"ax",%progbits
 2767              		.align	2
 2768              		.p2align 4,,15
 2769              		.thumb
 2770              		.thumb_func
 2771              		.type	put, %function
 2772              	put:
 2773              	.LFB276:
 2774              		.loc 1 297 0
 2775              		.cfi_startproc
 2776              		@ args = 0, pretend = 0, frame = 8
 2777              		@ frame_needed = 0, uses_anonymous_args = 0
 2778              	.LVL311:
 2779 0000 10B5     		push	{r4, lr}
 2780              		.cfi_def_cfa_offset 8
 2781              		.cfi_offset 4, -8
 2782              		.cfi_offset 14, -4
 2783 0002 82B0     		sub	sp, sp, #8
 2784              		.cfi_def_cfa_offset 16
 2785 0004 02AC     		add	r4, sp, #8
 2786              	.LBB251:
 2787              	.LBB252:
 2788              		.loc 1 249 0
 2789 0006 0122     		movs	r2, #1
 2790 0008 04F8011D 		strb	r1, [r4, #-1]!
 2791              	.LVL312:
 2792 000c 4FF0FF33 		mov	r3, #-1
 2793 0010 2146     		mov	r1, r4
ARM GAS  /var/folders/m4/4md61f0s1_g0rzfghffqnxvr0000gn/T//ccHVf8ER.s 			page 50


 2794              	.LVL313:
 2795 0012 FFF7FEFF 		bl	writet
 2796              	.LVL314:
 2797 0016 B0FA80F0 		clz	r0, r0
 2798 001a 4009     		lsrs	r0, r0, #5
 2799              	.LBE252:
 2800              	.LBE251:
 2801              		.loc 1 299 0
 2802 001c 4042     		negs	r0, r0
 2803 001e 02B0     		add	sp, sp, #8
 2804              		.cfi_def_cfa_offset 8
 2805              		@ sp needed
 2806 0020 10BD     		pop	{r4, pc}
 2807              		.cfi_endproc
 2808              	.LFE276:
 2809              		.size	put, .-put
 2810 0022 00BF     		.section	.text.write,"ax",%progbits
 2811              		.align	2
 2812              		.p2align 4,,15
 2813              		.thumb
 2814              		.thumb_func
 2815              		.type	write, %function
 2816              	write:
 2817              	.LFB274:
 2818              		.loc 1 287 0
 2819              		.cfi_startproc
 2820              		@ args = 0, pretend = 0, frame = 0
 2821              		@ frame_needed = 0, uses_anonymous_args = 0
 2822              		@ link register save eliminated.
 2823              	.LVL315:
 2824              		.loc 1 288 0
 2825 0000 4FF0FF33 		mov	r3, #-1
 2826 0004 FFF7FEBF 		b	writet
 2827              	.LVL316:
 2828              		.cfi_endproc
 2829              	.LFE274:
 2830              		.size	write, .-write
 2831              		.section	.text.nrf24l01EnterStandby,"ax",%progbits
 2832              		.align	2
 2833              		.p2align 4,,15
 2834              		.global	nrf24l01EnterStandby
 2835              		.thumb
 2836              		.thumb_func
 2837              		.type	nrf24l01EnterStandby, %function
 2838              	nrf24l01EnterStandby:
 2839              	.LFB306:
 2840              		.loc 1 570 0
 2841              		.cfi_startproc
 2842              		@ args = 0, pretend = 0, frame = 0
 2843              		@ frame_needed = 0, uses_anonymous_args = 0
 2844              		@ link register save eliminated.
 2845              	.LVL317:
 2846              		.loc 1 571 0
 2847 0000 D0F82431 		ldr	r3, [r0, #292]
 2848 0004 1989     		ldrh	r1, [r3, #8]
 2849 0006 5A68     		ldr	r2, [r3, #4]
 2850 0008 0123     		movs	r3, #1
ARM GAS  /var/folders/m4/4md61f0s1_g0rzfghffqnxvr0000gn/T//ccHVf8ER.s 			page 51


 2851 000a 8B40     		lsls	r3, r3, r1
 2852 000c 9BB2     		uxth	r3, r3
 2853 000e 5383     		strh	r3, [r2, #26]	@ movhi
 2854 0010 7047     		bx	lr
 2855              		.cfi_endproc
 2856              	.LFE306:
 2857              		.size	nrf24l01EnterStandby, .-nrf24l01EnterStandby
 2858 0012 00BF     		.section	.text.nrf24l01EnablePipes,"ax",%progbits
 2859              		.align	2
 2860              		.p2align 4,,15
 2861              		.global	nrf24l01EnablePipes
 2862              		.thumb
 2863              		.thumb_func
 2864              		.type	nrf24l01EnablePipes, %function
 2865              	nrf24l01EnablePipes:
 2866              	.LFB307:
 2867              		.loc 1 575 0
 2868              		.cfi_startproc
 2869              		@ args = 0, pretend = 0, frame = 0
 2870              		@ frame_needed = 0, uses_anonymous_args = 0
 2871              	.LVL318:
 2872 0000 38B5     		push	{r3, r4, r5, lr}
 2873              		.cfi_def_cfa_offset 16
 2874              		.cfi_offset 3, -16
 2875              		.cfi_offset 4, -12
 2876              		.cfi_offset 5, -8
 2877              		.cfi_offset 14, -4
 2878              		.loc 1 575 0
 2879 0002 0C46     		mov	r4, r1
 2880              		.loc 1 576 0
 2881 0004 0221     		movs	r1, #2
 2882              	.LVL319:
 2883              		.loc 1 575 0
 2884 0006 0546     		mov	r5, r0
 2885              		.loc 1 576 0
 2886 0008 FFF7FEFF 		bl	nrf24l01ReadRegister
 2887              	.LVL320:
 2888              		.loc 1 577 0
 2889 000c 04F03F04 		and	r4, r4, #63
 2890 0010 20EA0402 		bic	r2, r0, r4
 2891              	.LVL321:
 2892              		.loc 1 578 0
 2893 0014 D2B2     		uxtb	r2, r2
 2894 0016 2846     		mov	r0, r5
 2895 0018 0221     		movs	r1, #2
 2896              		.loc 1 579 0
 2897 001a BDE83840 		pop	{r3, r4, r5, lr}
 2898              		.cfi_restore 14
 2899              		.cfi_restore 5
 2900              		.cfi_restore 4
 2901              		.cfi_restore 3
 2902              		.cfi_def_cfa_offset 0
 2903              	.LVL322:
 2904              		.loc 1 578 0
 2905 001e FFF7FEBF 		b	nrf24l01WriteRegister
 2906              	.LVL323:
 2907              		.cfi_endproc
ARM GAS  /var/folders/m4/4md61f0s1_g0rzfghffqnxvr0000gn/T//ccHVf8ER.s 			page 52


 2908              	.LFE307:
 2909              		.size	nrf24l01EnablePipes, .-nrf24l01EnablePipes
 2910 0022 00BF     		.section	.text.nrf24l01ExtIRQ,"ax",%progbits
 2911              		.align	2
 2912              		.p2align 4,,15
 2913              		.global	nrf24l01ExtIRQ
 2914              		.thumb
 2915              		.thumb_func
 2916              		.type	nrf24l01ExtIRQ, %function
 2917              	nrf24l01ExtIRQ:
 2918              	.LFB308:
 2919              		.loc 1 582 0
 2920              		.cfi_startproc
 2921              		@ args = 0, pretend = 0, frame = 0
 2922              		@ frame_needed = 0, uses_anonymous_args = 0
 2923              	.LVL324:
 2924 0000 08B5     		push	{r3, lr}
 2925              		.cfi_def_cfa_offset 8
 2926              		.cfi_offset 3, -8
 2927              		.cfi_offset 14, -4
 2928              	.LBB253:
 2929              	.LBB254:
 2930              	.LBB255:
 2931              	.LBB256:
 2932              	.LBB257:
 2933              		.loc 2 548 0
 2934 0002 2023     		movs	r3, #32
 2935              	@ 548 "ChibiOS_16.1.4/os/ext/CMSIS/include/core_cmFunc.h" 1
 2936 0004 83F31188 		MSR basepri, r3
 2937              	@ 0 "" 2
 2938              		.thumb
 2939              	.LBE257:
 2940              	.LBE256:
 2941              	.LBE255:
 2942              	.LBE254:
 2943              	.LBE253:
 2944              		.loc 1 584 0
 2945 0008 0121     		movs	r1, #1
 2946 000a 00F59070 		add	r0, r0, #288
 2947              	.LVL325:
 2948 000e FFF7FEFF 		bl	chEvtBroadcastFlagsI
 2949              	.LVL326:
 2950              	.LBB258:
 2951              	.LBB259:
 2952              	.LBB260:
 2953              	.LBB261:
 2954              	.LBB262:
 2955              		.loc 2 548 0
 2956 0012 0023     		movs	r3, #0
 2957              	@ 548 "ChibiOS_16.1.4/os/ext/CMSIS/include/core_cmFunc.h" 1
 2958 0014 83F31188 		MSR basepri, r3
 2959              	@ 0 "" 2
 2960              		.thumb
 2961 0018 08BD     		pop	{r3, pc}
 2962              	.LBE262:
 2963              	.LBE261:
 2964              	.LBE260:
ARM GAS  /var/folders/m4/4md61f0s1_g0rzfghffqnxvr0000gn/T//ccHVf8ER.s 			page 53


 2965              	.LBE259:
 2966              	.LBE258:
 2967              		.cfi_endproc
 2968              	.LFE308:
 2969              		.size	nrf24l01ExtIRQ, .-nrf24l01ExtIRQ
 2970              		.global	nrf24l01
 2971 001a 00BF     		.section	.rodata
 2972              		.align	2
 2973              		.set	.LANCHOR2,. + 0
 2974              	.LC0:
 2975 0000 50       		.byte	80
 2976 0001 73       		.byte	115
 2977              		.section	.rodata.nrf24l01SPI,"a",%progbits
 2978              		.align	2
 2979              		.set	.LANCHOR3,. + 0
 2980              		.type	nrf24l01SPI, %object
 2981              		.size	nrf24l01SPI, 12
 2982              	nrf24l01SPI:
 2983 0000 00000000 		.word	0
 2984 0004 00000240 		.word	1073872896
 2985 0008 0400     		.short	4
 2986 000a 0800     		.short	8
 2987              		.section	.rodata.nrf24l01Config,"a",%progbits
 2988              		.align	2
 2989              		.set	.LANCHOR5,. + 0
 2990              		.type	nrf24l01Config, %object
 2991              		.size	nrf24l01Config, 12
 2992              	nrf24l01Config:
 2993 0000 00000000 		.word	SPID1
 2994 0004 00040240 		.word	1073873920
 2995 0008 0100     		.short	1
 2996 000a 0000     		.space	2
 2997              		.section	.bss.nrf24l01,"aw",%nobits
 2998              		.align	2
 2999              		.set	.LANCHOR0,. + 0
 3000              		.type	nrf24l01, %object
 3001              		.size	nrf24l01, 296
 3002              	nrf24l01:
 3003 0000 00000000 		.space	296
 3003      00000000 
 3003      00000000 
 3003      00000000 
 3003      00000000 
 3004              		.section	.rodata.extcfg,"a",%progbits
 3005              		.align	2
 3006              		.set	.LANCHOR4,. + 0
 3007              		.type	extcfg, %object
 3008              		.size	extcfg, 184
 3009              	extcfg:
 3010 0000 00000000 		.word	0
 3011 0004 00000000 		.word	0
 3012 0008 00000000 		.word	0
 3013 000c 00000000 		.word	0
 3014 0010 00000000 		.word	0
 3015 0014 00000000 		.word	0
 3016 0018 00000000 		.word	0
 3017 001c 00000000 		.word	0
ARM GAS  /var/folders/m4/4md61f0s1_g0rzfghffqnxvr0000gn/T//ccHVf8ER.s 			page 54


 3018 0020 00000000 		.word	0
 3019 0024 00000000 		.word	0
 3020 0028 00000000 		.word	0
 3021 002c 00000000 		.word	0
 3022 0030 00000000 		.word	0
 3023 0034 00000000 		.word	0
 3024 0038 00000000 		.word	0
 3025 003c 00000000 		.word	0
 3026 0040 00000000 		.word	0
 3027 0044 00000000 		.word	0
 3028 0048 00000000 		.word	0
 3029 004c 00000000 		.word	0
 3030 0050 00000000 		.word	0
 3031 0054 00000000 		.word	0
 3032 0058 00000000 		.word	0
 3033 005c 00000000 		.word	0
 3034 0060 00000000 		.word	0
 3035 0064 00000000 		.word	0
 3036 0068 00000000 		.word	0
 3037 006c 00000000 		.word	0
 3038 0070 00000000 		.word	0
 3039 0074 00000000 		.word	0
 3040 0078 26000000 		.word	38
 3041 007c 00000000 		.word	nrfExtCallback
 3042 0080 00000000 		.word	0
 3043 0084 00000000 		.word	0
 3044 0088 00000000 		.word	0
 3045 008c 00000000 		.word	0
 3046 0090 00000000 		.word	0
 3047 0094 00000000 		.word	0
 3048 0098 00000000 		.word	0
 3049 009c 00000000 		.word	0
 3050 00a0 00000000 		.word	0
 3051 00a4 00000000 		.word	0
 3052 00a8 00000000 		.word	0
 3053 00ac 00000000 		.word	0
 3054 00b0 00000000 		.word	0
 3055 00b4 00000000 		.word	0
 3056              		.section	.rodata.addr,"a",%progbits
 3057              		.align	2
 3058              		.set	.LANCHOR6,. + 0
 3059              		.type	addr, %object
 3060              		.size	addr, 4
 3061              	addr:
 3062 0000 51554144 		.ascii	"QUAD"
 3063              		.section	.rodata.vmt,"a",%progbits
 3064              		.align	2
 3065              		.set	.LANCHOR1,. + 0
 3066              		.type	vmt, %object
 3067              		.size	vmt, 32
 3068              	vmt:
 3069 0000 00000000 		.word	write
 3070 0004 00000000 		.word	read
 3071 0008 00000000 		.word	put
 3072 000c 00000000 		.word	get
 3073 0010 00000000 		.word	putt
 3074 0014 00000000 		.word	gett
ARM GAS  /var/folders/m4/4md61f0s1_g0rzfghffqnxvr0000gn/T//ccHVf8ER.s 			page 55


 3075 0018 00000000 		.word	writet
 3076 001c 00000000 		.word	readt
 3077              		.text
 3078              	.Letext0:
 3079              		.file 4 "/usr/local/Cellar/gcc-arm-none-eabi-49/20150609/lib/gcc/arm-none-eabi/4.9.3/include/stdde
 3080              		.file 5 "/usr/local/Cellar/gcc-arm-none-eabi-49/20150609/arm-none-eabi/include/machine/_default_ty
 3081              		.file 6 "/usr/local/Cellar/gcc-arm-none-eabi-49/20150609/arm-none-eabi/include/sys/_stdint.h"
 3082              		.file 7 "ChibiOS_16.1.4/os/rt/ports/ARMCMx/compilers/GCC/chtypes.h"
 3083              		.file 8 "ChibiOS_16.1.4/os/rt/include/chsystypes.h"
 3084              		.file 9 "ChibiOS_16.1.4/os/rt/include/chschd.h"
 3085              		.file 10 "ChibiOS_16.1.4/os/ext/CMSIS/ST/STM32F4xx/stm32f446xx.h"
 3086              		.file 11 "ChibiOS_16.1.4/os/rt/ports/ARMCMx/chcore.h"
 3087              		.file 12 "ChibiOS_16.1.4/os/rt/ports/ARMCMx/chcore_v7m.h"
 3088              		.file 13 "ChibiOS_16.1.4/os/rt/include/chtm.h"
 3089              		.file 14 "ChibiOS_16.1.4/os/rt/include/chsem.h"
 3090              		.file 15 "ChibiOS_16.1.4/os/rt/include/chmtx.h"
 3091              		.file 16 "ChibiOS_16.1.4/os/hal/ports/STM32/LLD/DMAv2/stm32_dma.h"
 3092              		.file 17 "ChibiOS_16.1.4/os/hal/ports/STM32/LLD/GPIOv2/pal_lld.h"
 3093              		.file 18 "ChibiOS_16.1.4/os/hal/include/ext.h"
 3094              		.file 19 "ChibiOS_16.1.4/os/hal/ports/STM32/LLD/EXTIv1/ext_lld.h"
 3095              		.file 20 "ChibiOS_16.1.4/os/hal/include/spi.h"
 3096              		.file 21 "ChibiOS_16.1.4/os/hal/ports/STM32/LLD/SPIv1/spi_lld.h"
 3097              		.file 22 "nrf24l01.h"
 3098              		.file 23 "ChibiOS_16.1.4/os/rt/include/chsys.h"
 3099              		.file 24 "ChibiOS_16.1.4/os/ext/CMSIS/include/core_cm4.h"
 3100              		.section	.debug_info,"",%progbits
 3101              	.Ldebug_info0:
 3102 0000 B12F0000 		.4byte	0x2fb1
 3103 0004 0400     		.2byte	0x4
 3104 0006 00000000 		.4byte	.Ldebug_abbrev0
 3105 000a 04       		.byte	0x4
 3106 000b 01       		.uleb128 0x1
 3107 000c 780B0000 		.4byte	.LASF279
 3108 0010 01       		.byte	0x1
 3109 0011 4D0A0000 		.4byte	.LASF280
 3110 0015 3F0D0000 		.4byte	.LASF281
 3111 0019 C0010000 		.4byte	.Ldebug_ranges0+0x1c0
 3112 001d 00000000 		.4byte	0
 3113 0021 00000000 		.4byte	.Ldebug_line0
 3114 0025 02       		.uleb128 0x2
 3115 0026 04       		.byte	0x4
 3116 0027 05       		.byte	0x5
 3117 0028 696E7400 		.ascii	"int\000"
 3118 002c 03       		.uleb128 0x3
 3119 002d 18000000 		.4byte	.LASF2
 3120 0031 04       		.byte	0x4
 3121 0032 D4       		.byte	0xd4
 3122 0033 37000000 		.4byte	0x37
 3123 0037 04       		.uleb128 0x4
 3124 0038 04       		.byte	0x4
 3125 0039 07       		.byte	0x7
 3126 003a FD060000 		.4byte	.LASF0
 3127 003e 04       		.uleb128 0x4
 3128 003f 01       		.byte	0x1
 3129 0040 06       		.byte	0x6
 3130 0041 6B020000 		.4byte	.LASF1
 3131 0045 03       		.uleb128 0x3
ARM GAS  /var/folders/m4/4md61f0s1_g0rzfghffqnxvr0000gn/T//ccHVf8ER.s 			page 56


 3132 0046 7C010000 		.4byte	.LASF3
 3133 004a 05       		.byte	0x5
 3134 004b 1D       		.byte	0x1d
 3135 004c 50000000 		.4byte	0x50
 3136 0050 04       		.uleb128 0x4
 3137 0051 01       		.byte	0x1
 3138 0052 08       		.byte	0x8
 3139 0053 BF020000 		.4byte	.LASF4
 3140 0057 04       		.uleb128 0x4
 3141 0058 02       		.byte	0x2
 3142 0059 05       		.byte	0x5
 3143 005a 630A0000 		.4byte	.LASF5
 3144 005e 03       		.uleb128 0x3
 3145 005f 62030000 		.4byte	.LASF6
 3146 0063 05       		.byte	0x5
 3147 0064 2B       		.byte	0x2b
 3148 0065 69000000 		.4byte	0x69
 3149 0069 04       		.uleb128 0x4
 3150 006a 02       		.byte	0x2
 3151 006b 07       		.byte	0x7
 3152 006c D90C0000 		.4byte	.LASF7
 3153 0070 03       		.uleb128 0x3
 3154 0071 1E0D0000 		.4byte	.LASF8
 3155 0075 05       		.byte	0x5
 3156 0076 3F       		.byte	0x3f
 3157 0077 7B000000 		.4byte	0x7b
 3158 007b 04       		.uleb128 0x4
 3159 007c 04       		.byte	0x4
 3160 007d 05       		.byte	0x5
 3161 007e C6010000 		.4byte	.LASF9
 3162 0082 03       		.uleb128 0x3
 3163 0083 BC050000 		.4byte	.LASF10
 3164 0087 05       		.byte	0x5
 3165 0088 41       		.byte	0x41
 3166 0089 8D000000 		.4byte	0x8d
 3167 008d 04       		.uleb128 0x4
 3168 008e 04       		.byte	0x4
 3169 008f 07       		.byte	0x7
 3170 0090 F6040000 		.4byte	.LASF11
 3171 0094 04       		.uleb128 0x4
 3172 0095 08       		.byte	0x8
 3173 0096 05       		.byte	0x5
 3174 0097 D1050000 		.4byte	.LASF12
 3175 009b 03       		.uleb128 0x3
 3176 009c E0040000 		.4byte	.LASF13
 3177 00a0 05       		.byte	0x5
 3178 00a1 5B       		.byte	0x5b
 3179 00a2 A6000000 		.4byte	0xa6
 3180 00a6 04       		.uleb128 0x4
 3181 00a7 08       		.byte	0x8
 3182 00a8 07       		.byte	0x7
 3183 00a9 A8080000 		.4byte	.LASF14
 3184 00ad 03       		.uleb128 0x3
 3185 00ae 81020000 		.4byte	.LASF15
 3186 00b2 06       		.byte	0x6
 3187 00b3 14       		.byte	0x14
 3188 00b4 45000000 		.4byte	0x45
ARM GAS  /var/folders/m4/4md61f0s1_g0rzfghffqnxvr0000gn/T//ccHVf8ER.s 			page 57


 3189 00b8 03       		.uleb128 0x3
 3190 00b9 C7080000 		.4byte	.LASF16
 3191 00bd 06       		.byte	0x6
 3192 00be 1A       		.byte	0x1a
 3193 00bf 5E000000 		.4byte	0x5e
 3194 00c3 03       		.uleb128 0x3
 3195 00c4 8D000000 		.4byte	.LASF17
 3196 00c8 06       		.byte	0x6
 3197 00c9 1F       		.byte	0x1f
 3198 00ca 70000000 		.4byte	0x70
 3199 00ce 03       		.uleb128 0x3
 3200 00cf 040B0000 		.4byte	.LASF18
 3201 00d3 06       		.byte	0x6
 3202 00d4 20       		.byte	0x20
 3203 00d5 82000000 		.4byte	0x82
 3204 00d9 03       		.uleb128 0x3
 3205 00da 7A0A0000 		.4byte	.LASF19
 3206 00de 06       		.byte	0x6
 3207 00df 26       		.byte	0x26
 3208 00e0 9B000000 		.4byte	0x9b
 3209 00e4 03       		.uleb128 0x3
 3210 00e5 32070000 		.4byte	.LASF20
 3211 00e9 07       		.byte	0x7
 3212 00ea 39       		.byte	0x39
 3213 00eb CE000000 		.4byte	0xce
 3214 00ef 03       		.uleb128 0x3
 3215 00f0 E5090000 		.4byte	.LASF21
 3216 00f4 07       		.byte	0x7
 3217 00f5 3C       		.byte	0x3c
 3218 00f6 AD000000 		.4byte	0xad
 3219 00fa 03       		.uleb128 0x3
 3220 00fb 1B020000 		.4byte	.LASF22
 3221 00ff 07       		.byte	0x7
 3222 0100 3D       		.byte	0x3d
 3223 0101 AD000000 		.4byte	0xad
 3224 0105 03       		.uleb128 0x3
 3225 0106 E30A0000 		.4byte	.LASF23
 3226 010a 07       		.byte	0x7
 3227 010b 3E       		.byte	0x3e
 3228 010c AD000000 		.4byte	0xad
 3229 0110 03       		.uleb128 0x3
 3230 0111 13090000 		.4byte	.LASF24
 3231 0115 07       		.byte	0x7
 3232 0116 3F       		.byte	0x3f
 3233 0117 AD000000 		.4byte	0xad
 3234 011b 03       		.uleb128 0x3
 3235 011c 5C000000 		.4byte	.LASF25
 3236 0120 07       		.byte	0x7
 3237 0121 40       		.byte	0x40
 3238 0122 CE000000 		.4byte	0xce
 3239 0126 03       		.uleb128 0x3
 3240 0127 D0080000 		.4byte	.LASF26
 3241 012b 07       		.byte	0x7
 3242 012c 41       		.byte	0x41
 3243 012d C3000000 		.4byte	0xc3
 3244 0131 03       		.uleb128 0x3
 3245 0132 92020000 		.4byte	.LASF27
ARM GAS  /var/folders/m4/4md61f0s1_g0rzfghffqnxvr0000gn/T//ccHVf8ER.s 			page 58


 3246 0136 07       		.byte	0x7
 3247 0137 43       		.byte	0x43
 3248 0138 CE000000 		.4byte	0xce
 3249 013c 03       		.uleb128 0x3
 3250 013d E7080000 		.4byte	.LASF28
 3251 0141 07       		.byte	0x7
 3252 0142 44       		.byte	0x44
 3253 0143 CE000000 		.4byte	0xce
 3254 0147 03       		.uleb128 0x3
 3255 0148 41040000 		.4byte	.LASF29
 3256 014c 07       		.byte	0x7
 3257 014d 45       		.byte	0x45
 3258 014e C3000000 		.4byte	0xc3
 3259 0152 03       		.uleb128 0x3
 3260 0153 4C000000 		.4byte	.LASF30
 3261 0157 08       		.byte	0x8
 3262 0158 33       		.byte	0x33
 3263 0159 CE000000 		.4byte	0xce
 3264 015d 03       		.uleb128 0x3
 3265 015e 0E080000 		.4byte	.LASF31
 3266 0162 08       		.byte	0x8
 3267 0163 3F       		.byte	0x3f
 3268 0164 68010000 		.4byte	0x168
 3269 0168 05       		.uleb128 0x5
 3270 0169 26050000 		.4byte	.LASF53
 3271 016d 48       		.byte	0x48
 3272 016e 09       		.byte	0x9
 3273 016f C2       		.byte	0xc2
 3274 0170 6D020000 		.4byte	0x26d
 3275 0174 06       		.uleb128 0x6
 3276 0175 DA010000 		.4byte	.LASF32
 3277 0179 09       		.byte	0x9
 3278 017a C3       		.byte	0xc3
 3279 017b 78020000 		.4byte	0x278
 3280 017f 00       		.byte	0
 3281 0180 06       		.uleb128 0x6
 3282 0181 ED010000 		.4byte	.LASF33
 3283 0185 09       		.byte	0x9
 3284 0186 C5       		.byte	0xc5
 3285 0187 78020000 		.4byte	0x278
 3286 018b 04       		.byte	0x4
 3287 018c 06       		.uleb128 0x6
 3288 018d 51030000 		.4byte	.LASF34
 3289 0191 09       		.byte	0x9
 3290 0192 C7       		.byte	0xc7
 3291 0193 1B010000 		.4byte	0x11b
 3292 0197 08       		.byte	0x8
 3293 0198 06       		.uleb128 0x6
 3294 0199 56000000 		.4byte	.LASF35
 3295 019d 09       		.byte	0x9
 3296 019e C8       		.byte	0xc8
 3297 019f 99050000 		.4byte	0x599
 3298 01a3 0C       		.byte	0xc
 3299 01a4 06       		.uleb128 0x6
 3300 01a5 B5010000 		.4byte	.LASF36
 3301 01a9 09       		.byte	0x9
 3302 01aa CA       		.byte	0xca
ARM GAS  /var/folders/m4/4md61f0s1_g0rzfghffqnxvr0000gn/T//ccHVf8ER.s 			page 59


 3303 01ab 78020000 		.4byte	0x278
 3304 01af 10       		.byte	0x10
 3305 01b0 06       		.uleb128 0x6
 3306 01b1 BF080000 		.4byte	.LASF37
 3307 01b5 09       		.byte	0x9
 3308 01b6 CB       		.byte	0xcb
 3309 01b7 78020000 		.4byte	0x278
 3310 01bb 14       		.byte	0x14
 3311 01bc 06       		.uleb128 0x6
 3312 01bd 380D0000 		.4byte	.LASF38
 3313 01c1 09       		.byte	0x9
 3314 01c2 D2       		.byte	0xd2
 3315 01c3 E7070000 		.4byte	0x7e7
 3316 01c7 18       		.byte	0x18
 3317 01c8 06       		.uleb128 0x6
 3318 01c9 AB0D0000 		.4byte	.LASF39
 3319 01cd 09       		.byte	0x9
 3320 01ce DD       		.byte	0xdd
 3321 01cf FA000000 		.4byte	0xfa
 3322 01d3 1C       		.byte	0x1c
 3323 01d4 06       		.uleb128 0x6
 3324 01d5 DA060000 		.4byte	.LASF40
 3325 01d9 09       		.byte	0x9
 3326 01da E1       		.byte	0xe1
 3327 01db EF000000 		.4byte	0xef
 3328 01df 1D       		.byte	0x1d
 3329 01e0 06       		.uleb128 0x6
 3330 01e1 4B070000 		.4byte	.LASF41
 3331 01e5 09       		.byte	0x9
 3332 01e6 E6       		.byte	0xe6
 3333 01e7 05010000 		.4byte	0x105
 3334 01eb 1E       		.byte	0x1e
 3335 01ec 06       		.uleb128 0x6
 3336 01ed 77020000 		.4byte	.LASF42
 3337 01f1 09       		.byte	0x9
 3338 01f2 EC       		.byte	0xec
 3339 01f3 10010000 		.4byte	0x110
 3340 01f7 1F       		.byte	0x1f
 3341 01f8 06       		.uleb128 0x6
 3342 01f9 E4070000 		.4byte	.LASF43
 3343 01fd 09       		.byte	0x9
 3344 01fe F3       		.byte	0xf3
 3345 01ff F9070000 		.4byte	0x7f9
 3346 0203 20       		.byte	0x20
 3347 0204 07       		.uleb128 0x7
 3348 0205 705F7500 		.ascii	"p_u\000"
 3349 0209 09       		.byte	0x9
 3350 020a 3101     		.2byte	0x131
 3351 020c 22070000 		.4byte	0x722
 3352 0210 24       		.byte	0x24
 3353 0211 08       		.uleb128 0x8
 3354 0212 B9060000 		.4byte	.LASF44
 3355 0216 09       		.byte	0x9
 3356 0217 3601     		.2byte	0x136
 3357 0219 7E020000 		.4byte	0x27e
 3358 021d 28       		.byte	0x28
 3359 021e 08       		.uleb128 0x8
ARM GAS  /var/folders/m4/4md61f0s1_g0rzfghffqnxvr0000gn/T//ccHVf8ER.s 			page 60


 3360 021f 76000000 		.4byte	.LASF45
 3361 0223 09       		.byte	0x9
 3362 0224 3C01     		.2byte	0x13c
 3363 0226 A2020000 		.4byte	0x2a2
 3364 022a 2C       		.byte	0x2c
 3365 022b 08       		.uleb128 0x8
 3366 022c 990D0000 		.4byte	.LASF46
 3367 0230 09       		.byte	0x9
 3368 0231 4001     		.2byte	0x140
 3369 0233 26010000 		.4byte	0x126
 3370 0237 34       		.byte	0x34
 3371 0238 08       		.uleb128 0x8
 3372 0239 4F040000 		.4byte	.LASF47
 3373 023d 09       		.byte	0x9
 3374 023e 4601     		.2byte	0x146
 3375 0240 31010000 		.4byte	0x131
 3376 0244 38       		.byte	0x38
 3377 0245 08       		.uleb128 0x8
 3378 0246 34020000 		.4byte	.LASF48
 3379 024a 09       		.byte	0x9
 3380 024b 4D01     		.2byte	0x14d
 3381 024d E1070000 		.4byte	0x7e1
 3382 0251 3C       		.byte	0x3c
 3383 0252 08       		.uleb128 0x8
 3384 0253 2A080000 		.4byte	.LASF49
 3385 0257 09       		.byte	0x9
 3386 0258 5101     		.2byte	0x151
 3387 025a 1B010000 		.4byte	0x11b
 3388 025e 40       		.byte	0x40
 3389 025f 08       		.uleb128 0x8
 3390 0260 3A070000 		.4byte	.LASF50
 3391 0264 09       		.byte	0x9
 3392 0265 5801     		.2byte	0x158
 3393 0267 55030000 		.4byte	0x355
 3394 026b 44       		.byte	0x44
 3395 026c 00       		.byte	0
 3396 026d 03       		.uleb128 0x3
 3397 026e 17080000 		.4byte	.LASF51
 3398 0272 08       		.byte	0x8
 3399 0273 44       		.byte	0x44
 3400 0274 78020000 		.4byte	0x278
 3401 0278 09       		.uleb128 0x9
 3402 0279 04       		.byte	0x4
 3403 027a 5D010000 		.4byte	0x15d
 3404 027e 03       		.uleb128 0x3
 3405 027f EB0A0000 		.4byte	.LASF52
 3406 0283 08       		.byte	0x8
 3407 0284 49       		.byte	0x49
 3408 0285 89020000 		.4byte	0x289
 3409 0289 05       		.uleb128 0x5
 3410 028a 89050000 		.4byte	.LASF54
 3411 028e 04       		.byte	0x4
 3412 028f 09       		.byte	0x9
 3413 0290 B0       		.byte	0xb0
 3414 0291 A2020000 		.4byte	0x2a2
 3415 0295 06       		.uleb128 0x6
 3416 0296 DA010000 		.4byte	.LASF32
ARM GAS  /var/folders/m4/4md61f0s1_g0rzfghffqnxvr0000gn/T//ccHVf8ER.s 			page 61


 3417 029a 09       		.byte	0x9
 3418 029b B1       		.byte	0xb1
 3419 029c 78020000 		.4byte	0x278
 3420 02a0 00       		.byte	0
 3421 02a1 00       		.byte	0
 3422 02a2 03       		.uleb128 0x3
 3423 02a3 24020000 		.4byte	.LASF55
 3424 02a7 08       		.byte	0x8
 3425 02a8 50       		.byte	0x50
 3426 02a9 AD020000 		.4byte	0x2ad
 3427 02ad 05       		.uleb128 0x5
 3428 02ae D6080000 		.4byte	.LASF56
 3429 02b2 08       		.byte	0x8
 3430 02b3 09       		.byte	0x9
 3431 02b4 B7       		.byte	0xb7
 3432 02b5 D2020000 		.4byte	0x2d2
 3433 02b9 06       		.uleb128 0x6
 3434 02ba DA010000 		.4byte	.LASF32
 3435 02be 09       		.byte	0x9
 3436 02bf B8       		.byte	0xb8
 3437 02c0 78020000 		.4byte	0x278
 3438 02c4 00       		.byte	0
 3439 02c5 06       		.uleb128 0x6
 3440 02c6 ED010000 		.4byte	.LASF33
 3441 02ca 09       		.byte	0x9
 3442 02cb B9       		.byte	0xb9
 3443 02cc 78020000 		.4byte	0x278
 3444 02d0 04       		.byte	0x4
 3445 02d1 00       		.byte	0
 3446 02d2 03       		.uleb128 0x3
 3447 02d3 6A050000 		.4byte	.LASF57
 3448 02d7 08       		.byte	0x8
 3449 02d8 57       		.byte	0x57
 3450 02d9 DD020000 		.4byte	0x2dd
 3451 02dd 0A       		.uleb128 0xa
 3452 02de 61040000 		.4byte	.LASF58
 3453 02e2 1C       		.byte	0x1c
 3454 02e3 09       		.byte	0x9
 3455 02e4 9001     		.2byte	0x190
 3456 02e6 39030000 		.4byte	0x339
 3457 02ea 08       		.uleb128 0x8
 3458 02eb A8090000 		.4byte	.LASF59
 3459 02ef 09       		.byte	0x9
 3460 02f0 9101     		.2byte	0x191
 3461 02f2 A2020000 		.4byte	0x2a2
 3462 02f6 00       		.byte	0
 3463 02f7 08       		.uleb128 0x8
 3464 02f8 A20A0000 		.4byte	.LASF60
 3465 02fc 09       		.byte	0x9
 3466 02fd 9201     		.2byte	0x192
 3467 02ff 1B010000 		.4byte	0x11b
 3468 0303 08       		.byte	0x8
 3469 0304 08       		.uleb128 0x8
 3470 0305 81000000 		.4byte	.LASF61
 3471 0309 09       		.byte	0x9
 3472 030a 9401     		.2byte	0x194
 3473 030c 99050000 		.4byte	0x599
ARM GAS  /var/folders/m4/4md61f0s1_g0rzfghffqnxvr0000gn/T//ccHVf8ER.s 			page 62


 3474 0310 0C       		.byte	0xc
 3475 0311 08       		.uleb128 0x8
 3476 0312 01030000 		.4byte	.LASF62
 3477 0316 09       		.byte	0x9
 3478 0317 9701     		.2byte	0x197
 3479 0319 78020000 		.4byte	0x278
 3480 031d 10       		.byte	0x10
 3481 031e 08       		.uleb128 0x8
 3482 031f 160A0000 		.4byte	.LASF63
 3483 0323 09       		.byte	0x9
 3484 0324 9801     		.2byte	0x198
 3485 0326 78020000 		.4byte	0x278
 3486 032a 14       		.byte	0x14
 3487 032b 08       		.uleb128 0x8
 3488 032c 4B090000 		.4byte	.LASF64
 3489 0330 09       		.byte	0x9
 3490 0331 9B01     		.2byte	0x19b
 3491 0333 78020000 		.4byte	0x278
 3492 0337 18       		.byte	0x18
 3493 0338 00       		.byte	0
 3494 0339 03       		.uleb128 0x3
 3495 033a 9C000000 		.4byte	.LASF65
 3496 033e 08       		.byte	0x8
 3497 033f 5C       		.byte	0x5c
 3498 0340 44030000 		.4byte	0x344
 3499 0344 09       		.uleb128 0x9
 3500 0345 04       		.byte	0x4
 3501 0346 4A030000 		.4byte	0x34a
 3502 034a 0B       		.uleb128 0xb
 3503 034b 55030000 		.4byte	0x355
 3504 034f 0C       		.uleb128 0xc
 3505 0350 55030000 		.4byte	0x355
 3506 0354 00       		.byte	0
 3507 0355 0D       		.uleb128 0xd
 3508 0356 04       		.byte	0x4
 3509 0357 03       		.uleb128 0x3
 3510 0358 5A050000 		.4byte	.LASF66
 3511 035c 08       		.byte	0x8
 3512 035d 61       		.byte	0x61
 3513 035e 62030000 		.4byte	0x362
 3514 0362 0A       		.uleb128 0xa
 3515 0363 82080000 		.4byte	.LASF67
 3516 0367 14       		.byte	0x14
 3517 0368 09       		.byte	0x9
 3518 0369 6B01     		.2byte	0x16b
 3519 036b B1030000 		.4byte	0x3b1
 3520 036f 08       		.uleb128 0x8
 3521 0370 05060000 		.4byte	.LASF68
 3522 0374 09       		.byte	0x9
 3523 0375 6C01     		.2byte	0x16c
 3524 0377 FE070000 		.4byte	0x7fe
 3525 037b 00       		.byte	0
 3526 037c 08       		.uleb128 0x8
 3527 037d 30060000 		.4byte	.LASF69
 3528 0381 09       		.byte	0x9
 3529 0382 6D01     		.2byte	0x16d
 3530 0384 FE070000 		.4byte	0x7fe
ARM GAS  /var/folders/m4/4md61f0s1_g0rzfghffqnxvr0000gn/T//ccHVf8ER.s 			page 63


 3531 0388 04       		.byte	0x4
 3532 0389 08       		.uleb128 0x8
 3533 038a 65080000 		.4byte	.LASF70
 3534 038e 09       		.byte	0x9
 3535 038f 6E01     		.2byte	0x16e
 3536 0391 52010000 		.4byte	0x152
 3537 0395 08       		.byte	0x8
 3538 0396 08       		.uleb128 0x8
 3539 0397 47040000 		.4byte	.LASF71
 3540 039b 09       		.byte	0x9
 3541 039c 6F01     		.2byte	0x16f
 3542 039e 39030000 		.4byte	0x339
 3543 03a2 0C       		.byte	0xc
 3544 03a3 08       		.uleb128 0x8
 3545 03a4 5D010000 		.4byte	.LASF72
 3546 03a8 09       		.byte	0x9
 3547 03a9 7101     		.2byte	0x171
 3548 03ab 55030000 		.4byte	0x355
 3549 03af 10       		.byte	0x10
 3550 03b0 00       		.byte	0
 3551 03b1 03       		.uleb128 0x3
 3552 03b2 30050000 		.4byte	.LASF73
 3553 03b6 08       		.byte	0x8
 3554 03b7 66       		.byte	0x66
 3555 03b8 BC030000 		.4byte	0x3bc
 3556 03bc 0A       		.uleb128 0xa
 3557 03bd A5000000 		.4byte	.LASF74
 3558 03c1 10       		.byte	0x10
 3559 03c2 09       		.byte	0x9
 3560 03c3 7B01     		.2byte	0x17b
 3561 03c5 FE030000 		.4byte	0x3fe
 3562 03c9 08       		.uleb128 0x8
 3563 03ca 05060000 		.4byte	.LASF68
 3564 03ce 09       		.byte	0x9
 3565 03cf 7C01     		.2byte	0x17c
 3566 03d1 FE070000 		.4byte	0x7fe
 3567 03d5 00       		.byte	0
 3568 03d6 08       		.uleb128 0x8
 3569 03d7 30060000 		.4byte	.LASF69
 3570 03db 09       		.byte	0x9
 3571 03dc 7E01     		.2byte	0x17e
 3572 03de FE070000 		.4byte	0x7fe
 3573 03e2 04       		.byte	0x4
 3574 03e3 08       		.uleb128 0x8
 3575 03e4 65080000 		.4byte	.LASF70
 3576 03e8 09       		.byte	0x9
 3577 03e9 8001     		.2byte	0x180
 3578 03eb 52010000 		.4byte	0x152
 3579 03ef 08       		.byte	0x8
 3580 03f0 08       		.uleb128 0x8
 3581 03f1 0B0A0000 		.4byte	.LASF75
 3582 03f5 09       		.byte	0x9
 3583 03f6 8201     		.2byte	0x182
 3584 03f8 F9070000 		.4byte	0x7f9
 3585 03fc 0C       		.byte	0xc
 3586 03fd 00       		.byte	0
 3587 03fe 03       		.uleb128 0x3
ARM GAS  /var/folders/m4/4md61f0s1_g0rzfghffqnxvr0000gn/T//ccHVf8ER.s 			page 64


 3588 03ff 09030000 		.4byte	.LASF76
 3589 0403 08       		.byte	0x8
 3590 0404 6B       		.byte	0x6b
 3591 0405 09040000 		.4byte	0x409
 3592 0409 0A       		.uleb128 0xa
 3593 040a A90A0000 		.4byte	.LASF77
 3594 040e 04       		.byte	0x4
 3595 040f 09       		.byte	0x9
 3596 0410 A201     		.2byte	0x1a2
 3597 0412 24040000 		.4byte	0x424
 3598 0416 08       		.uleb128 0x8
 3599 0417 E8020000 		.4byte	.LASF78
 3600 041b 09       		.byte	0x9
 3601 041c AA01     		.2byte	0x1aa
 3602 041e 04080000 		.4byte	0x804
 3603 0422 00       		.byte	0
 3604 0423 00       		.byte	0
 3605 0424 03       		.uleb128 0x3
 3606 0425 EC0C0000 		.4byte	.LASF79
 3607 0429 08       		.byte	0x8
 3608 042a 70       		.byte	0x70
 3609 042b 2F040000 		.4byte	0x42f
 3610 042f 0E       		.uleb128 0xe
 3611 0430 FA0A0000 		.4byte	.LASF80
 3612 0434 5802     		.2byte	0x258
 3613 0436 09       		.byte	0x9
 3614 0437 C201     		.2byte	0x1c2
 3615 0439 8B040000 		.4byte	0x48b
 3616 043d 08       		.uleb128 0x8
 3617 043e DF090000 		.4byte	.LASF81
 3618 0442 09       		.byte	0x9
 3619 0443 C601     		.2byte	0x1c6
 3620 0445 D2020000 		.4byte	0x2d2
 3621 0449 00       		.byte	0
 3622 044a 08       		.uleb128 0x8
 3623 044b D40A0000 		.4byte	.LASF82
 3624 044f 09       		.byte	0x9
 3625 0450 CA01     		.2byte	0x1ca
 3626 0452 B1030000 		.4byte	0x3b1
 3627 0456 1C       		.byte	0x1c
 3628 0457 07       		.uleb128 0x7
 3629 0458 64626700 		.ascii	"dbg\000"
 3630 045c 09       		.byte	0x9
 3631 045d CE01     		.2byte	0x1ce
 3632 045f FE030000 		.4byte	0x3fe
 3633 0463 2C       		.byte	0x2c
 3634 0464 08       		.uleb128 0x8
 3635 0465 8F090000 		.4byte	.LASF83
 3636 0469 09       		.byte	0x9
 3637 046a D201     		.2byte	0x1d2
 3638 046c 5D010000 		.4byte	0x15d
 3639 0470 30       		.byte	0x30
 3640 0471 07       		.uleb128 0x7
 3641 0472 746D00   		.ascii	"tm\000"
 3642 0475 09       		.byte	0x9
 3643 0476 D701     		.2byte	0x1d7
 3644 0478 17070000 		.4byte	0x717
ARM GAS  /var/folders/m4/4md61f0s1_g0rzfghffqnxvr0000gn/T//ccHVf8ER.s 			page 65


 3645 047c 78       		.byte	0x78
 3646 047d 08       		.uleb128 0x8
 3647 047e EE060000 		.4byte	.LASF84
 3648 0482 09       		.byte	0x9
 3649 0483 E301     		.2byte	0x1e3
 3650 0485 09080000 		.4byte	0x809
 3651 0489 80       		.byte	0x80
 3652 048a 00       		.byte	0
 3653 048b 04       		.uleb128 0x4
 3654 048c 04       		.byte	0x4
 3655 048d 07       		.byte	0x7
 3656 048e 28000000 		.4byte	.LASF85
 3657 0492 0F       		.uleb128 0xf
 3658 0493 CE000000 		.4byte	0xce
 3659 0497 10       		.uleb128 0x10
 3660 0498 18       		.byte	0x18
 3661 0499 0A       		.byte	0xa
 3662 049a 7D01     		.2byte	0x17d
 3663 049c EE040000 		.4byte	0x4ee
 3664 04a0 07       		.uleb128 0x7
 3665 04a1 435200   		.ascii	"CR\000"
 3666 04a4 0A       		.byte	0xa
 3667 04a5 7F01     		.2byte	0x17f
 3668 04a7 92040000 		.4byte	0x492
 3669 04ab 00       		.byte	0
 3670 04ac 08       		.uleb128 0x8
 3671 04ad 280D0000 		.4byte	.LASF86
 3672 04b1 0A       		.byte	0xa
 3673 04b2 8001     		.2byte	0x180
 3674 04b4 92040000 		.4byte	0x492
 3675 04b8 04       		.byte	0x4
 3676 04b9 07       		.uleb128 0x7
 3677 04ba 50415200 		.ascii	"PAR\000"
 3678 04be 0A       		.byte	0xa
 3679 04bf 8101     		.2byte	0x181
 3680 04c1 92040000 		.4byte	0x492
 3681 04c5 08       		.byte	0x8
 3682 04c6 08       		.uleb128 0x8
 3683 04c7 360A0000 		.4byte	.LASF87
 3684 04cb 0A       		.byte	0xa
 3685 04cc 8201     		.2byte	0x182
 3686 04ce 92040000 		.4byte	0x492
 3687 04d2 0C       		.byte	0xc
 3688 04d3 08       		.uleb128 0x8
 3689 04d4 00000000 		.4byte	.LASF88
 3690 04d8 0A       		.byte	0xa
 3691 04d9 8301     		.2byte	0x183
 3692 04db 92040000 		.4byte	0x492
 3693 04df 10       		.byte	0x10
 3694 04e0 07       		.uleb128 0x7
 3695 04e1 46435200 		.ascii	"FCR\000"
 3696 04e5 0A       		.byte	0xa
 3697 04e6 8401     		.2byte	0x184
 3698 04e8 92040000 		.4byte	0x492
 3699 04ec 14       		.byte	0x14
 3700 04ed 00       		.byte	0
 3701 04ee 11       		.uleb128 0x11
ARM GAS  /var/folders/m4/4md61f0s1_g0rzfghffqnxvr0000gn/T//ccHVf8ER.s 			page 66


 3702 04ef D1070000 		.4byte	.LASF89
 3703 04f3 0A       		.byte	0xa
 3704 04f4 8501     		.2byte	0x185
 3705 04f6 97040000 		.4byte	0x497
 3706 04fa 10       		.uleb128 0x10
 3707 04fb 24       		.byte	0x24
 3708 04fc 0A       		.byte	0xa
 3709 04fd C402     		.2byte	0x2c4
 3710 04ff 77050000 		.4byte	0x577
 3711 0503 07       		.uleb128 0x7
 3712 0504 43523100 		.ascii	"CR1\000"
 3713 0508 0A       		.byte	0xa
 3714 0509 C602     		.2byte	0x2c6
 3715 050b 92040000 		.4byte	0x492
 3716 050f 00       		.byte	0
 3717 0510 07       		.uleb128 0x7
 3718 0511 43523200 		.ascii	"CR2\000"
 3719 0515 0A       		.byte	0xa
 3720 0516 C702     		.2byte	0x2c7
 3721 0518 92040000 		.4byte	0x492
 3722 051c 04       		.byte	0x4
 3723 051d 07       		.uleb128 0x7
 3724 051e 535200   		.ascii	"SR\000"
 3725 0521 0A       		.byte	0xa
 3726 0522 C802     		.2byte	0x2c8
 3727 0524 92040000 		.4byte	0x492
 3728 0528 08       		.byte	0x8
 3729 0529 07       		.uleb128 0x7
 3730 052a 445200   		.ascii	"DR\000"
 3731 052d 0A       		.byte	0xa
 3732 052e C902     		.2byte	0x2c9
 3733 0530 92040000 		.4byte	0x492
 3734 0534 0C       		.byte	0xc
 3735 0535 08       		.uleb128 0x8
 3736 0536 ED090000 		.4byte	.LASF90
 3737 053a 0A       		.byte	0xa
 3738 053b CA02     		.2byte	0x2ca
 3739 053d 92040000 		.4byte	0x492
 3740 0541 10       		.byte	0x10
 3741 0542 08       		.uleb128 0x8
 3742 0543 94060000 		.4byte	.LASF91
 3743 0547 0A       		.byte	0xa
 3744 0548 CB02     		.2byte	0x2cb
 3745 054a 92040000 		.4byte	0x492
 3746 054e 14       		.byte	0x14
 3747 054f 08       		.uleb128 0x8
 3748 0550 CC090000 		.4byte	.LASF92
 3749 0554 0A       		.byte	0xa
 3750 0555 CC02     		.2byte	0x2cc
 3751 0557 92040000 		.4byte	0x492
 3752 055b 18       		.byte	0x18
 3753 055c 08       		.uleb128 0x8
 3754 055d 74010000 		.4byte	.LASF93
 3755 0561 0A       		.byte	0xa
 3756 0562 CD02     		.2byte	0x2cd
 3757 0564 92040000 		.4byte	0x492
 3758 0568 1C       		.byte	0x1c
ARM GAS  /var/folders/m4/4md61f0s1_g0rzfghffqnxvr0000gn/T//ccHVf8ER.s 			page 67


 3759 0569 08       		.uleb128 0x8
 3760 056a 2C0B0000 		.4byte	.LASF94
 3761 056e 0A       		.byte	0xa
 3762 056f CE02     		.2byte	0x2ce
 3763 0571 92040000 		.4byte	0x492
 3764 0575 20       		.byte	0x20
 3765 0576 00       		.byte	0
 3766 0577 11       		.uleb128 0x11
 3767 0578 D3090000 		.4byte	.LASF95
 3768 057c 0A       		.byte	0xa
 3769 057d CF02     		.2byte	0x2cf
 3770 057f FA040000 		.4byte	0x4fa
 3771 0583 03       		.uleb128 0x3
 3772 0584 3E020000 		.4byte	.LASF96
 3773 0588 0B       		.byte	0xb
 3774 0589 65       		.byte	0x65
 3775 058a 55030000 		.4byte	0x355
 3776 058e 03       		.uleb128 0x3
 3777 058f 9C030000 		.4byte	.LASF97
 3778 0593 0B       		.byte	0xb
 3779 0594 6D       		.byte	0x6d
 3780 0595 D9000000 		.4byte	0xd9
 3781 0599 05       		.uleb128 0x5
 3782 059a 9E020000 		.4byte	.LASF98
 3783 059e 04       		.byte	0x4
 3784 059f 0B       		.byte	0xb
 3785 05a0 89       		.byte	0x89
 3786 05a1 B2050000 		.4byte	0x5b2
 3787 05a5 12       		.uleb128 0x12
 3788 05a6 72313300 		.ascii	"r13\000"
 3789 05aa 0B       		.byte	0xb
 3790 05ab 8A       		.byte	0x8a
 3791 05ac FC060000 		.4byte	0x6fc
 3792 05b0 00       		.byte	0
 3793 05b1 00       		.byte	0
 3794 05b2 05       		.uleb128 0x5
 3795 05b3 35080000 		.4byte	.LASF99
 3796 05b7 64       		.byte	0x64
 3797 05b8 0C       		.byte	0xc
 3798 05b9 FD       		.byte	0xfd
 3799 05ba FC060000 		.4byte	0x6fc
 3800 05be 12       		.uleb128 0x12
 3801 05bf 73313600 		.ascii	"s16\000"
 3802 05c3 0C       		.byte	0xc
 3803 05c4 FF       		.byte	0xff
 3804 05c5 83050000 		.4byte	0x583
 3805 05c9 00       		.byte	0
 3806 05ca 07       		.uleb128 0x7
 3807 05cb 73313700 		.ascii	"s17\000"
 3808 05cf 0C       		.byte	0xc
 3809 05d0 0001     		.2byte	0x100
 3810 05d2 83050000 		.4byte	0x583
 3811 05d6 04       		.byte	0x4
 3812 05d7 07       		.uleb128 0x7
 3813 05d8 73313800 		.ascii	"s18\000"
 3814 05dc 0C       		.byte	0xc
 3815 05dd 0101     		.2byte	0x101
ARM GAS  /var/folders/m4/4md61f0s1_g0rzfghffqnxvr0000gn/T//ccHVf8ER.s 			page 68


 3816 05df 83050000 		.4byte	0x583
 3817 05e3 08       		.byte	0x8
 3818 05e4 07       		.uleb128 0x7
 3819 05e5 73313900 		.ascii	"s19\000"
 3820 05e9 0C       		.byte	0xc
 3821 05ea 0201     		.2byte	0x102
 3822 05ec 83050000 		.4byte	0x583
 3823 05f0 0C       		.byte	0xc
 3824 05f1 07       		.uleb128 0x7
 3825 05f2 73323000 		.ascii	"s20\000"
 3826 05f6 0C       		.byte	0xc
 3827 05f7 0301     		.2byte	0x103
 3828 05f9 83050000 		.4byte	0x583
 3829 05fd 10       		.byte	0x10
 3830 05fe 07       		.uleb128 0x7
 3831 05ff 73323100 		.ascii	"s21\000"
 3832 0603 0C       		.byte	0xc
 3833 0604 0401     		.2byte	0x104
 3834 0606 83050000 		.4byte	0x583
 3835 060a 14       		.byte	0x14
 3836 060b 07       		.uleb128 0x7
 3837 060c 73323200 		.ascii	"s22\000"
 3838 0610 0C       		.byte	0xc
 3839 0611 0501     		.2byte	0x105
 3840 0613 83050000 		.4byte	0x583
 3841 0617 18       		.byte	0x18
 3842 0618 07       		.uleb128 0x7
 3843 0619 73323300 		.ascii	"s23\000"
 3844 061d 0C       		.byte	0xc
 3845 061e 0601     		.2byte	0x106
 3846 0620 83050000 		.4byte	0x583
 3847 0624 1C       		.byte	0x1c
 3848 0625 07       		.uleb128 0x7
 3849 0626 73323400 		.ascii	"s24\000"
 3850 062a 0C       		.byte	0xc
 3851 062b 0701     		.2byte	0x107
 3852 062d 83050000 		.4byte	0x583
 3853 0631 20       		.byte	0x20
 3854 0632 07       		.uleb128 0x7
 3855 0633 73323500 		.ascii	"s25\000"
 3856 0637 0C       		.byte	0xc
 3857 0638 0801     		.2byte	0x108
 3858 063a 83050000 		.4byte	0x583
 3859 063e 24       		.byte	0x24
 3860 063f 07       		.uleb128 0x7
 3861 0640 73323600 		.ascii	"s26\000"
 3862 0644 0C       		.byte	0xc
 3863 0645 0901     		.2byte	0x109
 3864 0647 83050000 		.4byte	0x583
 3865 064b 28       		.byte	0x28
 3866 064c 07       		.uleb128 0x7
 3867 064d 73323700 		.ascii	"s27\000"
 3868 0651 0C       		.byte	0xc
 3869 0652 0A01     		.2byte	0x10a
 3870 0654 83050000 		.4byte	0x583
 3871 0658 2C       		.byte	0x2c
 3872 0659 07       		.uleb128 0x7
ARM GAS  /var/folders/m4/4md61f0s1_g0rzfghffqnxvr0000gn/T//ccHVf8ER.s 			page 69


 3873 065a 73323800 		.ascii	"s28\000"
 3874 065e 0C       		.byte	0xc
 3875 065f 0B01     		.2byte	0x10b
 3876 0661 83050000 		.4byte	0x583
 3877 0665 30       		.byte	0x30
 3878 0666 07       		.uleb128 0x7
 3879 0667 73323900 		.ascii	"s29\000"
 3880 066b 0C       		.byte	0xc
 3881 066c 0C01     		.2byte	0x10c
 3882 066e 83050000 		.4byte	0x583
 3883 0672 34       		.byte	0x34
 3884 0673 07       		.uleb128 0x7
 3885 0674 73333000 		.ascii	"s30\000"
 3886 0678 0C       		.byte	0xc
 3887 0679 0D01     		.2byte	0x10d
 3888 067b 83050000 		.4byte	0x583
 3889 067f 38       		.byte	0x38
 3890 0680 07       		.uleb128 0x7
 3891 0681 73333100 		.ascii	"s31\000"
 3892 0685 0C       		.byte	0xc
 3893 0686 0E01     		.2byte	0x10e
 3894 0688 83050000 		.4byte	0x583
 3895 068c 3C       		.byte	0x3c
 3896 068d 07       		.uleb128 0x7
 3897 068e 723400   		.ascii	"r4\000"
 3898 0691 0C       		.byte	0xc
 3899 0692 1001     		.2byte	0x110
 3900 0694 83050000 		.4byte	0x583
 3901 0698 40       		.byte	0x40
 3902 0699 07       		.uleb128 0x7
 3903 069a 723500   		.ascii	"r5\000"
 3904 069d 0C       		.byte	0xc
 3905 069e 1101     		.2byte	0x111
 3906 06a0 83050000 		.4byte	0x583
 3907 06a4 44       		.byte	0x44
 3908 06a5 07       		.uleb128 0x7
 3909 06a6 723600   		.ascii	"r6\000"
 3910 06a9 0C       		.byte	0xc
 3911 06aa 1201     		.2byte	0x112
 3912 06ac 83050000 		.4byte	0x583
 3913 06b0 48       		.byte	0x48
 3914 06b1 07       		.uleb128 0x7
 3915 06b2 723700   		.ascii	"r7\000"
 3916 06b5 0C       		.byte	0xc
 3917 06b6 1301     		.2byte	0x113
 3918 06b8 83050000 		.4byte	0x583
 3919 06bc 4C       		.byte	0x4c
 3920 06bd 07       		.uleb128 0x7
 3921 06be 723800   		.ascii	"r8\000"
 3922 06c1 0C       		.byte	0xc
 3923 06c2 1401     		.2byte	0x114
 3924 06c4 83050000 		.4byte	0x583
 3925 06c8 50       		.byte	0x50
 3926 06c9 07       		.uleb128 0x7
 3927 06ca 723900   		.ascii	"r9\000"
 3928 06cd 0C       		.byte	0xc
 3929 06ce 1501     		.2byte	0x115
ARM GAS  /var/folders/m4/4md61f0s1_g0rzfghffqnxvr0000gn/T//ccHVf8ER.s 			page 70


 3930 06d0 83050000 		.4byte	0x583
 3931 06d4 54       		.byte	0x54
 3932 06d5 07       		.uleb128 0x7
 3933 06d6 72313000 		.ascii	"r10\000"
 3934 06da 0C       		.byte	0xc
 3935 06db 1601     		.2byte	0x116
 3936 06dd 83050000 		.4byte	0x583
 3937 06e1 58       		.byte	0x58
 3938 06e2 07       		.uleb128 0x7
 3939 06e3 72313100 		.ascii	"r11\000"
 3940 06e7 0C       		.byte	0xc
 3941 06e8 1701     		.2byte	0x117
 3942 06ea 83050000 		.4byte	0x583
 3943 06ee 5C       		.byte	0x5c
 3944 06ef 07       		.uleb128 0x7
 3945 06f0 6C7200   		.ascii	"lr\000"
 3946 06f3 0C       		.byte	0xc
 3947 06f4 1801     		.2byte	0x118
 3948 06f6 83050000 		.4byte	0x583
 3949 06fa 60       		.byte	0x60
 3950 06fb 00       		.byte	0
 3951 06fc 09       		.uleb128 0x9
 3952 06fd 04       		.byte	0x4
 3953 06fe B2050000 		.4byte	0x5b2
 3954 0702 13       		.uleb128 0x13
 3955 0703 04       		.byte	0x4
 3956 0704 0D       		.byte	0xd
 3957 0705 38       		.byte	0x38
 3958 0706 17070000 		.4byte	0x717
 3959 070a 06       		.uleb128 0x6
 3960 070b CA070000 		.4byte	.LASF100
 3961 070f 0D       		.byte	0xd
 3962 0710 3C       		.byte	0x3c
 3963 0711 E4000000 		.4byte	0xe4
 3964 0715 00       		.byte	0
 3965 0716 00       		.byte	0
 3966 0717 03       		.uleb128 0x3
 3967 0718 1E0A0000 		.4byte	.LASF101
 3968 071c 0D       		.byte	0xd
 3969 071d 3D       		.byte	0x3d
 3970 071e 02070000 		.4byte	0x702
 3971 0722 14       		.uleb128 0x14
 3972 0723 04       		.byte	0x4
 3973 0724 09       		.byte	0x9
 3974 0725 FA       		.byte	0xfa
 3975 0726 7F070000 		.4byte	0x77f
 3976 072a 15       		.uleb128 0x15
 3977 072b C00C0000 		.4byte	.LASF102
 3978 072f 09       		.byte	0x9
 3979 0730 0101     		.2byte	0x101
 3980 0732 26010000 		.4byte	0x126
 3981 0736 15       		.uleb128 0x15
 3982 0737 6B010000 		.4byte	.LASF103
 3983 073b 09       		.byte	0x9
 3984 073c 0801     		.2byte	0x108
 3985 073e 26010000 		.4byte	0x126
 3986 0742 15       		.uleb128 0x15
ARM GAS  /var/folders/m4/4md61f0s1_g0rzfghffqnxvr0000gn/T//ccHVf8ER.s 			page 71


 3987 0743 6D030000 		.4byte	.LASF104
 3988 0747 09       		.byte	0x9
 3989 0748 0F01     		.2byte	0x10f
 3990 074a 55030000 		.4byte	0x355
 3991 074e 15       		.uleb128 0x15
 3992 074f A6020000 		.4byte	.LASF105
 3993 0753 09       		.byte	0x9
 3994 0754 1601     		.2byte	0x116
 3995 0756 7F070000 		.4byte	0x77f
 3996 075a 15       		.uleb128 0x15
 3997 075b 45000000 		.4byte	.LASF106
 3998 075f 09       		.byte	0x9
 3999 0760 1E01     		.2byte	0x11e
 4000 0762 AA070000 		.4byte	0x7aa
 4001 0766 15       		.uleb128 0x15
 4002 0767 5A040000 		.4byte	.LASF107
 4003 076b 09       		.byte	0x9
 4004 076c 2701     		.2byte	0x127
 4005 076e E1070000 		.4byte	0x7e1
 4006 0772 15       		.uleb128 0x15
 4007 0773 8B010000 		.4byte	.LASF108
 4008 0777 09       		.byte	0x9
 4009 0778 2F01     		.2byte	0x12f
 4010 077a 31010000 		.4byte	0x131
 4011 077e 00       		.byte	0
 4012 077f 09       		.uleb128 0x9
 4013 0780 04       		.byte	0x4
 4014 0781 6D020000 		.4byte	0x26d
 4015 0785 05       		.uleb128 0x5
 4016 0786 0F050000 		.4byte	.LASF109
 4017 078a 0C       		.byte	0xc
 4018 078b 0E       		.byte	0xe
 4019 078c 34       		.byte	0x34
 4020 078d AA070000 		.4byte	0x7aa
 4021 0791 06       		.uleb128 0x6
 4022 0792 450A0000 		.4byte	.LASF110
 4023 0796 0E       		.byte	0xe
 4024 0797 35       		.byte	0x35
 4025 0798 A2020000 		.4byte	0x2a2
 4026 079c 00       		.byte	0
 4027 079d 06       		.uleb128 0x6
 4028 079e 93080000 		.4byte	.LASF111
 4029 07a2 0E       		.byte	0xe
 4030 07a3 37       		.byte	0x37
 4031 07a4 47010000 		.4byte	0x147
 4032 07a8 08       		.byte	0x8
 4033 07a9 00       		.byte	0
 4034 07aa 09       		.uleb128 0x9
 4035 07ab 04       		.byte	0x4
 4036 07ac 85070000 		.4byte	0x785
 4037 07b0 05       		.uleb128 0x5
 4038 07b1 880A0000 		.4byte	.LASF112
 4039 07b5 10       		.byte	0x10
 4040 07b6 0F       		.byte	0xf
 4041 07b7 39       		.byte	0x39
 4042 07b8 E1070000 		.4byte	0x7e1
 4043 07bc 06       		.uleb128 0x6
ARM GAS  /var/folders/m4/4md61f0s1_g0rzfghffqnxvr0000gn/T//ccHVf8ER.s 			page 72


 4044 07bd DF050000 		.4byte	.LASF113
 4045 07c1 0F       		.byte	0xf
 4046 07c2 3A       		.byte	0x3a
 4047 07c3 A2020000 		.4byte	0x2a2
 4048 07c7 00       		.byte	0
 4049 07c8 06       		.uleb128 0x6
 4050 07c9 55010000 		.4byte	.LASF114
 4051 07cd 0F       		.byte	0xf
 4052 07ce 3C       		.byte	0x3c
 4053 07cf 78020000 		.4byte	0x278
 4054 07d3 08       		.byte	0x8
 4055 07d4 06       		.uleb128 0x6
 4056 07d5 700D0000 		.4byte	.LASF115
 4057 07d9 0F       		.byte	0xf
 4058 07da 3E       		.byte	0x3e
 4059 07db 24080000 		.4byte	0x824
 4060 07df 0C       		.byte	0xc
 4061 07e0 00       		.byte	0
 4062 07e1 09       		.uleb128 0x9
 4063 07e2 04       		.byte	0x4
 4064 07e3 B0070000 		.4byte	0x7b0
 4065 07e7 09       		.uleb128 0x9
 4066 07e8 04       		.byte	0x4
 4067 07e9 ED070000 		.4byte	0x7ed
 4068 07ed 16       		.uleb128 0x16
 4069 07ee F2070000 		.4byte	0x7f2
 4070 07f2 04       		.uleb128 0x4
 4071 07f3 01       		.byte	0x1
 4072 07f4 08       		.byte	0x8
 4073 07f5 35030000 		.4byte	.LASF116
 4074 07f9 0F       		.uleb128 0xf
 4075 07fa 52010000 		.4byte	0x152
 4076 07fe 09       		.uleb128 0x9
 4077 07ff 04       		.byte	0x4
 4078 0800 57030000 		.4byte	0x357
 4079 0804 0F       		.uleb128 0xf
 4080 0805 E7070000 		.4byte	0x7e7
 4081 0809 17       		.uleb128 0x17
 4082 080a 8E050000 		.4byte	0x58e
 4083 080e 19080000 		.4byte	0x819
 4084 0812 18       		.uleb128 0x18
 4085 0813 8B040000 		.4byte	0x48b
 4086 0817 3A       		.byte	0x3a
 4087 0818 00       		.byte	0
 4088 0819 03       		.uleb128 0x3
 4089 081a DB0A0000 		.4byte	.LASF117
 4090 081e 0F       		.byte	0xf
 4091 081f 34       		.byte	0x34
 4092 0820 B0070000 		.4byte	0x7b0
 4093 0824 09       		.uleb128 0x9
 4094 0825 04       		.byte	0x4
 4095 0826 19080000 		.4byte	0x819
 4096 082a 03       		.uleb128 0x3
 4097 082b FA030000 		.4byte	.LASF118
 4098 082f 03       		.byte	0x3
 4099 0830 34       		.byte	0x34
 4100 0831 35080000 		.4byte	0x835
ARM GAS  /var/folders/m4/4md61f0s1_g0rzfghffqnxvr0000gn/T//ccHVf8ER.s 			page 73


 4101 0835 05       		.uleb128 0x5
 4102 0836 B10C0000 		.4byte	.LASF119
 4103 083a 14       		.byte	0x14
 4104 083b 03       		.byte	0x3
 4105 083c 39       		.byte	0x39
 4106 083d 7E080000 		.4byte	0x87e
 4107 0841 06       		.uleb128 0x6
 4108 0842 46050000 		.4byte	.LASF120
 4109 0846 03       		.byte	0x3
 4110 0847 3A       		.byte	0x3a
 4111 0848 7E080000 		.4byte	0x87e
 4112 084c 00       		.byte	0
 4113 084d 06       		.uleb128 0x6
 4114 084e 9F0D0000 		.4byte	.LASF121
 4115 0852 03       		.byte	0x3
 4116 0853 3D       		.byte	0x3d
 4117 0854 78020000 		.4byte	0x278
 4118 0858 04       		.byte	0x4
 4119 0859 06       		.uleb128 0x6
 4120 085a A8070000 		.4byte	.LASF122
 4121 085e 03       		.byte	0x3
 4122 085f 3F       		.byte	0x3f
 4123 0860 31010000 		.4byte	0x131
 4124 0864 08       		.byte	0x8
 4125 0865 06       		.uleb128 0x6
 4126 0866 E1000000 		.4byte	.LASF123
 4127 086a 03       		.byte	0x3
 4128 086b 41       		.byte	0x41
 4129 086c 3C010000 		.4byte	0x13c
 4130 0870 0C       		.byte	0xc
 4131 0871 06       		.uleb128 0x6
 4132 0872 71070000 		.4byte	.LASF124
 4133 0876 03       		.byte	0x3
 4134 0877 43       		.byte	0x43
 4135 0878 3C010000 		.4byte	0x13c
 4136 087c 10       		.byte	0x10
 4137 087d 00       		.byte	0
 4138 087e 09       		.uleb128 0x9
 4139 087f 04       		.byte	0x4
 4140 0880 2A080000 		.4byte	0x82a
 4141 0884 05       		.uleb128 0x5
 4142 0885 6D0A0000 		.4byte	.LASF125
 4143 0889 04       		.byte	0x4
 4144 088a 03       		.byte	0x3
 4145 088b 4A       		.byte	0x4a
 4146 088c 9D080000 		.4byte	0x89d
 4147 0890 06       		.uleb128 0x6
 4148 0891 BD040000 		.4byte	.LASF126
 4149 0895 03       		.byte	0x3
 4150 0896 4B       		.byte	0x4b
 4151 0897 7E080000 		.4byte	0x87e
 4152 089b 00       		.byte	0
 4153 089c 00       		.byte	0
 4154 089d 03       		.uleb128 0x3
 4155 089e 43060000 		.4byte	.LASF127
 4156 08a2 03       		.byte	0x3
 4157 08a3 4E       		.byte	0x4e
ARM GAS  /var/folders/m4/4md61f0s1_g0rzfghffqnxvr0000gn/T//ccHVf8ER.s 			page 74


 4158 08a4 84080000 		.4byte	0x884
 4159 08a8 09       		.uleb128 0x9
 4160 08a9 04       		.byte	0x4
 4161 08aa AD000000 		.4byte	0xad
 4162 08ae 19       		.uleb128 0x19
 4163 08af 2C000000 		.4byte	0x2c
 4164 08b3 C7080000 		.4byte	0x8c7
 4165 08b7 0C       		.uleb128 0xc
 4166 08b8 55030000 		.4byte	0x355
 4167 08bc 0C       		.uleb128 0xc
 4168 08bd C7080000 		.4byte	0x8c7
 4169 08c1 0C       		.uleb128 0xc
 4170 08c2 2C000000 		.4byte	0x2c
 4171 08c6 00       		.byte	0
 4172 08c7 09       		.uleb128 0x9
 4173 08c8 04       		.byte	0x4
 4174 08c9 CD080000 		.4byte	0x8cd
 4175 08cd 16       		.uleb128 0x16
 4176 08ce AD000000 		.4byte	0xad
 4177 08d2 09       		.uleb128 0x9
 4178 08d3 04       		.byte	0x4
 4179 08d4 AE080000 		.4byte	0x8ae
 4180 08d8 19       		.uleb128 0x19
 4181 08d9 2C000000 		.4byte	0x2c
 4182 08dd F1080000 		.4byte	0x8f1
 4183 08e1 0C       		.uleb128 0xc
 4184 08e2 55030000 		.4byte	0x355
 4185 08e6 0C       		.uleb128 0xc
 4186 08e7 A8080000 		.4byte	0x8a8
 4187 08eb 0C       		.uleb128 0xc
 4188 08ec 2C000000 		.4byte	0x2c
 4189 08f0 00       		.byte	0
 4190 08f1 09       		.uleb128 0x9
 4191 08f2 04       		.byte	0x4
 4192 08f3 D8080000 		.4byte	0x8d8
 4193 08f7 19       		.uleb128 0x19
 4194 08f8 26010000 		.4byte	0x126
 4195 08fc 0B090000 		.4byte	0x90b
 4196 0900 0C       		.uleb128 0xc
 4197 0901 55030000 		.4byte	0x355
 4198 0905 0C       		.uleb128 0xc
 4199 0906 AD000000 		.4byte	0xad
 4200 090a 00       		.byte	0
 4201 090b 09       		.uleb128 0x9
 4202 090c 04       		.byte	0x4
 4203 090d F7080000 		.4byte	0x8f7
 4204 0911 19       		.uleb128 0x19
 4205 0912 26010000 		.4byte	0x126
 4206 0916 20090000 		.4byte	0x920
 4207 091a 0C       		.uleb128 0xc
 4208 091b 55030000 		.4byte	0x355
 4209 091f 00       		.byte	0
 4210 0920 09       		.uleb128 0x9
 4211 0921 04       		.byte	0x4
 4212 0922 11090000 		.4byte	0x911
 4213 0926 10       		.uleb128 0x10
 4214 0927 0C       		.byte	0xc
ARM GAS  /var/folders/m4/4md61f0s1_g0rzfghffqnxvr0000gn/T//ccHVf8ER.s 			page 75


 4215 0928 10       		.byte	0x10
 4216 0929 6D01     		.2byte	0x16d
 4217 092b 71090000 		.4byte	0x971
 4218 092f 08       		.uleb128 0x8
 4219 0930 F3030000 		.4byte	.LASF128
 4220 0934 10       		.byte	0x10
 4221 0935 6E01     		.2byte	0x16e
 4222 0937 71090000 		.4byte	0x971
 4223 093b 00       		.byte	0
 4224 093c 08       		.uleb128 0x8
 4225 093d 2D0D0000 		.4byte	.LASF129
 4226 0941 10       		.byte	0x10
 4227 0942 6F01     		.2byte	0x16f
 4228 0944 77090000 		.4byte	0x977
 4229 0948 04       		.byte	0x4
 4230 0949 08       		.uleb128 0x8
 4231 094a 4A030000 		.4byte	.LASF130
 4232 094e 10       		.byte	0x10
 4233 094f 7001     		.2byte	0x170
 4234 0951 AD000000 		.4byte	0xad
 4235 0955 08       		.byte	0x8
 4236 0956 08       		.uleb128 0x8
 4237 0957 99080000 		.4byte	.LASF131
 4238 095b 10       		.byte	0x10
 4239 095c 7201     		.2byte	0x172
 4240 095e AD000000 		.4byte	0xad
 4241 0962 09       		.byte	0x9
 4242 0963 08       		.uleb128 0x8
 4243 0964 7C090000 		.4byte	.LASF132
 4244 0968 10       		.byte	0x10
 4245 0969 7301     		.2byte	0x173
 4246 096b AD000000 		.4byte	0xad
 4247 096f 0A       		.byte	0xa
 4248 0970 00       		.byte	0
 4249 0971 09       		.uleb128 0x9
 4250 0972 04       		.byte	0x4
 4251 0973 EE040000 		.4byte	0x4ee
 4252 0977 09       		.uleb128 0x9
 4253 0978 04       		.byte	0x4
 4254 0979 92040000 		.4byte	0x492
 4255 097d 11       		.uleb128 0x11
 4256 097e 05000000 		.4byte	.LASF133
 4257 0982 10       		.byte	0x10
 4258 0983 7401     		.2byte	0x174
 4259 0985 26090000 		.4byte	0x926
 4260 0989 19       		.uleb128 0x19
 4261 098a 26010000 		.4byte	0x126
 4262 098e A2090000 		.4byte	0x9a2
 4263 0992 0C       		.uleb128 0xc
 4264 0993 55030000 		.4byte	0x355
 4265 0997 0C       		.uleb128 0xc
 4266 0998 AD000000 		.4byte	0xad
 4267 099c 0C       		.uleb128 0xc
 4268 099d 52010000 		.4byte	0x152
 4269 09a1 00       		.byte	0
 4270 09a2 09       		.uleb128 0x9
 4271 09a3 04       		.byte	0x4
ARM GAS  /var/folders/m4/4md61f0s1_g0rzfghffqnxvr0000gn/T//ccHVf8ER.s 			page 76


 4272 09a4 89090000 		.4byte	0x989
 4273 09a8 19       		.uleb128 0x19
 4274 09a9 26010000 		.4byte	0x126
 4275 09ad BC090000 		.4byte	0x9bc
 4276 09b1 0C       		.uleb128 0xc
 4277 09b2 55030000 		.4byte	0x355
 4278 09b6 0C       		.uleb128 0xc
 4279 09b7 52010000 		.4byte	0x152
 4280 09bb 00       		.byte	0
 4281 09bc 09       		.uleb128 0x9
 4282 09bd 04       		.byte	0x4
 4283 09be A8090000 		.4byte	0x9a8
 4284 09c2 19       		.uleb128 0x19
 4285 09c3 2C000000 		.4byte	0x2c
 4286 09c7 E0090000 		.4byte	0x9e0
 4287 09cb 0C       		.uleb128 0xc
 4288 09cc 55030000 		.4byte	0x355
 4289 09d0 0C       		.uleb128 0xc
 4290 09d1 C7080000 		.4byte	0x8c7
 4291 09d5 0C       		.uleb128 0xc
 4292 09d6 2C000000 		.4byte	0x2c
 4293 09da 0C       		.uleb128 0xc
 4294 09db 52010000 		.4byte	0x152
 4295 09df 00       		.byte	0
 4296 09e0 09       		.uleb128 0x9
 4297 09e1 04       		.byte	0x4
 4298 09e2 C2090000 		.4byte	0x9c2
 4299 09e6 19       		.uleb128 0x19
 4300 09e7 2C000000 		.4byte	0x2c
 4301 09eb 040A0000 		.4byte	0xa04
 4302 09ef 0C       		.uleb128 0xc
 4303 09f0 55030000 		.4byte	0x355
 4304 09f4 0C       		.uleb128 0xc
 4305 09f5 A8080000 		.4byte	0x8a8
 4306 09f9 0C       		.uleb128 0xc
 4307 09fa 2C000000 		.4byte	0x2c
 4308 09fe 0C       		.uleb128 0xc
 4309 09ff 52010000 		.4byte	0x152
 4310 0a03 00       		.byte	0
 4311 0a04 09       		.uleb128 0x9
 4312 0a05 04       		.byte	0x4
 4313 0a06 E6090000 		.4byte	0x9e6
 4314 0a0a 04       		.uleb128 0x4
 4315 0a0b 01       		.byte	0x1
 4316 0a0c 02       		.byte	0x2
 4317 0a0d 18030000 		.4byte	.LASF134
 4318 0a11 13       		.uleb128 0x13
 4319 0a12 04       		.byte	0x4
 4320 0a13 11       		.byte	0x11
 4321 0a14 E7       		.byte	0xe7
 4322 0a15 320A0000 		.4byte	0xa32
 4323 0a19 12       		.uleb128 0x12
 4324 0a1a 73657400 		.ascii	"set\000"
 4325 0a1e 11       		.byte	0x11
 4326 0a1f E8       		.byte	0xe8
 4327 0a20 B8000000 		.4byte	0xb8
 4328 0a24 00       		.byte	0
ARM GAS  /var/folders/m4/4md61f0s1_g0rzfghffqnxvr0000gn/T//ccHVf8ER.s 			page 77


 4329 0a25 06       		.uleb128 0x6
 4330 0a26 9B040000 		.4byte	.LASF135
 4331 0a2a 11       		.byte	0x11
 4332 0a2b E9       		.byte	0xe9
 4333 0a2c B8000000 		.4byte	0xb8
 4334 0a30 02       		.byte	0x2
 4335 0a31 00       		.byte	0
 4336 0a32 14       		.uleb128 0x14
 4337 0a33 04       		.byte	0x4
 4338 0a34 11       		.byte	0x11
 4339 0a35 E5       		.byte	0xe5
 4340 0a36 4D0A0000 		.4byte	0xa4d
 4341 0a3a 1A       		.uleb128 0x1a
 4342 0a3b 5700     		.ascii	"W\000"
 4343 0a3d 11       		.byte	0x11
 4344 0a3e E6       		.byte	0xe6
 4345 0a3f CE000000 		.4byte	0xce
 4346 0a43 1A       		.uleb128 0x1a
 4347 0a44 4800     		.ascii	"H\000"
 4348 0a46 11       		.byte	0x11
 4349 0a47 EA       		.byte	0xea
 4350 0a48 110A0000 		.4byte	0xa11
 4351 0a4c 00       		.byte	0
 4352 0a4d 13       		.uleb128 0x13
 4353 0a4e 2C       		.byte	0x2c
 4354 0a4f 11       		.byte	0x11
 4355 0a50 DD       		.byte	0xdd
 4356 0a51 DA0A0000 		.4byte	0xada
 4357 0a55 06       		.uleb128 0x6
 4358 0a56 D4060000 		.4byte	.LASF136
 4359 0a5a 11       		.byte	0x11
 4360 0a5b DF       		.byte	0xdf
 4361 0a5c 92040000 		.4byte	0x492
 4362 0a60 00       		.byte	0
 4363 0a61 06       		.uleb128 0x6
 4364 0a62 B0090000 		.4byte	.LASF137
 4365 0a66 11       		.byte	0x11
 4366 0a67 E0       		.byte	0xe0
 4367 0a68 92040000 		.4byte	0x492
 4368 0a6c 04       		.byte	0x4
 4369 0a6d 06       		.uleb128 0x6
 4370 0a6e 99050000 		.4byte	.LASF138
 4371 0a72 11       		.byte	0x11
 4372 0a73 E1       		.byte	0xe1
 4373 0a74 92040000 		.4byte	0x492
 4374 0a78 08       		.byte	0x8
 4375 0a79 06       		.uleb128 0x6
 4376 0a7a A9010000 		.4byte	.LASF139
 4377 0a7e 11       		.byte	0x11
 4378 0a7f E2       		.byte	0xe2
 4379 0a80 92040000 		.4byte	0x492
 4380 0a84 0C       		.byte	0xc
 4381 0a85 12       		.uleb128 0x12
 4382 0a86 49445200 		.ascii	"IDR\000"
 4383 0a8a 11       		.byte	0x11
 4384 0a8b E3       		.byte	0xe3
 4385 0a8c 92040000 		.4byte	0x492
ARM GAS  /var/folders/m4/4md61f0s1_g0rzfghffqnxvr0000gn/T//ccHVf8ER.s 			page 78


 4386 0a90 10       		.byte	0x10
 4387 0a91 12       		.uleb128 0x12
 4388 0a92 4F445200 		.ascii	"ODR\000"
 4389 0a96 11       		.byte	0x11
 4390 0a97 E4       		.byte	0xe4
 4391 0a98 92040000 		.4byte	0x492
 4392 0a9c 14       		.byte	0x14
 4393 0a9d 06       		.uleb128 0x6
 4394 0a9e B90A0000 		.4byte	.LASF140
 4395 0aa2 11       		.byte	0x11
 4396 0aa3 EB       		.byte	0xeb
 4397 0aa4 DA0A0000 		.4byte	0xada
 4398 0aa8 18       		.byte	0x18
 4399 0aa9 06       		.uleb128 0x6
 4400 0aaa 77050000 		.4byte	.LASF141
 4401 0aae 11       		.byte	0x11
 4402 0aaf EC       		.byte	0xec
 4403 0ab0 92040000 		.4byte	0x492
 4404 0ab4 1C       		.byte	0x1c
 4405 0ab5 06       		.uleb128 0x6
 4406 0ab6 77090000 		.4byte	.LASF142
 4407 0aba 11       		.byte	0x11
 4408 0abb ED       		.byte	0xed
 4409 0abc 92040000 		.4byte	0x492
 4410 0ac0 20       		.byte	0x20
 4411 0ac1 06       		.uleb128 0x6
 4412 0ac2 72090000 		.4byte	.LASF143
 4413 0ac6 11       		.byte	0x11
 4414 0ac7 EE       		.byte	0xee
 4415 0ac8 92040000 		.4byte	0x492
 4416 0acc 24       		.byte	0x24
 4417 0acd 12       		.uleb128 0x12
 4418 0ace 42525200 		.ascii	"BRR\000"
 4419 0ad2 11       		.byte	0x11
 4420 0ad3 EF       		.byte	0xef
 4421 0ad4 92040000 		.4byte	0x492
 4422 0ad8 28       		.byte	0x28
 4423 0ad9 00       		.byte	0
 4424 0ada 0F       		.uleb128 0xf
 4425 0adb 320A0000 		.4byte	0xa32
 4426 0adf 03       		.uleb128 0x3
 4427 0ae0 CD020000 		.4byte	.LASF144
 4428 0ae4 11       		.byte	0x11
 4429 0ae5 F0       		.byte	0xf0
 4430 0ae6 4D0A0000 		.4byte	0xa4d
 4431 0aea 11       		.uleb128 0x11
 4432 0aeb 0B040000 		.4byte	.LASF145
 4433 0aef 11       		.byte	0x11
 4434 0af0 3F01     		.2byte	0x13f
 4435 0af2 CE000000 		.4byte	0xce
 4436 0af6 11       		.uleb128 0x11
 4437 0af7 30010000 		.4byte	.LASF146
 4438 0afb 11       		.byte	0x11
 4439 0afc 4401     		.2byte	0x144
 4440 0afe CE000000 		.4byte	0xce
 4441 0b02 11       		.uleb128 0x11
 4442 0b03 10020000 		.4byte	.LASF147
ARM GAS  /var/folders/m4/4md61f0s1_g0rzfghffqnxvr0000gn/T//ccHVf8ER.s 			page 79


 4443 0b07 11       		.byte	0x11
 4444 0b08 5101     		.2byte	0x151
 4445 0b0a 0E0B0000 		.4byte	0xb0e
 4446 0b0e 09       		.uleb128 0x9
 4447 0b0f 04       		.byte	0x4
 4448 0b10 DF0A0000 		.4byte	0xadf
 4449 0b14 09       		.uleb128 0x9
 4450 0b15 04       		.byte	0x4
 4451 0b16 1A0B0000 		.4byte	0xb1a
 4452 0b1a 16       		.uleb128 0x16
 4453 0b1b 7D090000 		.4byte	0x97d
 4454 0b1f 1B       		.uleb128 0x1b
 4455 0b20 01       		.byte	0x1
 4456 0b21 12       		.byte	0x12
 4457 0b22 3F       		.byte	0x3f
 4458 0b23 3A0B0000 		.4byte	0xb3a
 4459 0b27 1C       		.uleb128 0x1c
 4460 0b28 EB040000 		.4byte	.LASF148
 4461 0b2c 00       		.sleb128 0
 4462 0b2d 1C       		.uleb128 0x1c
 4463 0b2e 92040000 		.4byte	.LASF149
 4464 0b32 01       		.sleb128 1
 4465 0b33 1C       		.uleb128 0x1c
 4466 0b34 FA050000 		.4byte	.LASF150
 4467 0b38 02       		.sleb128 2
 4468 0b39 00       		.byte	0
 4469 0b3a 03       		.uleb128 0x3
 4470 0b3b 60020000 		.4byte	.LASF151
 4471 0b3f 12       		.byte	0x12
 4472 0b40 43       		.byte	0x43
 4473 0b41 1F0B0000 		.4byte	0xb1f
 4474 0b45 03       		.uleb128 0x3
 4475 0b46 A1050000 		.4byte	.LASF152
 4476 0b4a 12       		.byte	0x12
 4477 0b4b 48       		.byte	0x48
 4478 0b4c 500B0000 		.4byte	0xb50
 4479 0b50 05       		.uleb128 0x5
 4480 0b51 A1050000 		.4byte	.LASF152
 4481 0b55 08       		.byte	0x8
 4482 0b56 13       		.byte	0x13
 4483 0b57 73       		.byte	0x73
 4484 0b58 750B0000 		.4byte	0xb75
 4485 0b5c 06       		.uleb128 0x6
 4486 0b5d F1000000 		.4byte	.LASF153
 4487 0b61 13       		.byte	0x13
 4488 0b62 77       		.byte	0x77
 4489 0b63 3A0B0000 		.4byte	0xb3a
 4490 0b67 00       		.byte	0
 4491 0b68 06       		.uleb128 0x6
 4492 0b69 EA000000 		.4byte	.LASF154
 4493 0b6d 13       		.byte	0x13
 4494 0b6e 7B       		.byte	0x7b
 4495 0b6f 020C0000 		.4byte	0xc02
 4496 0b73 04       		.byte	0x4
 4497 0b74 00       		.byte	0
 4498 0b75 03       		.uleb128 0x3
 4499 0b76 F3090000 		.4byte	.LASF155
ARM GAS  /var/folders/m4/4md61f0s1_g0rzfghffqnxvr0000gn/T//ccHVf8ER.s 			page 80


 4500 0b7a 13       		.byte	0x13
 4501 0b7b 49       		.byte	0x49
 4502 0b7c CE000000 		.4byte	0xce
 4503 0b80 03       		.uleb128 0x3
 4504 0b81 00080000 		.4byte	.LASF156
 4505 0b85 13       		.byte	0x13
 4506 0b86 51       		.byte	0x51
 4507 0b87 8B0B0000 		.4byte	0xb8b
 4508 0b8b 09       		.uleb128 0x9
 4509 0b8c 04       		.byte	0x4
 4510 0b8d 910B0000 		.4byte	0xb91
 4511 0b91 0B       		.uleb128 0xb
 4512 0b92 A10B0000 		.4byte	0xba1
 4513 0b96 0C       		.uleb128 0xc
 4514 0b97 A10B0000 		.4byte	0xba1
 4515 0b9b 0C       		.uleb128 0xc
 4516 0b9c 750B0000 		.4byte	0xb75
 4517 0ba0 00       		.byte	0
 4518 0ba1 09       		.uleb128 0x9
 4519 0ba2 04       		.byte	0x4
 4520 0ba3 450B0000 		.4byte	0xb45
 4521 0ba7 13       		.uleb128 0x13
 4522 0ba8 08       		.byte	0x8
 4523 0ba9 13       		.byte	0x13
 4524 0baa 56       		.byte	0x56
 4525 0bab C70B0000 		.4byte	0xbc7
 4526 0baf 06       		.uleb128 0x6
 4527 0bb0 830A0000 		.4byte	.LASF157
 4528 0bb4 13       		.byte	0x13
 4529 0bb5 5A       		.byte	0x5a
 4530 0bb6 CE000000 		.4byte	0xce
 4531 0bba 00       		.byte	0
 4532 0bbb 12       		.uleb128 0x12
 4533 0bbc 636200   		.ascii	"cb\000"
 4534 0bbf 13       		.byte	0x13
 4535 0bc0 61       		.byte	0x61
 4536 0bc1 800B0000 		.4byte	0xb80
 4537 0bc5 04       		.byte	0x4
 4538 0bc6 00       		.byte	0
 4539 0bc7 03       		.uleb128 0x3
 4540 0bc8 19010000 		.4byte	.LASF158
 4541 0bcc 13       		.byte	0x13
 4542 0bcd 62       		.byte	0x62
 4543 0bce A70B0000 		.4byte	0xba7
 4544 0bd2 13       		.uleb128 0x13
 4545 0bd3 B8       		.byte	0xb8
 4546 0bd4 13       		.byte	0x13
 4547 0bd5 68       		.byte	0x68
 4548 0bd6 E70B0000 		.4byte	0xbe7
 4549 0bda 06       		.uleb128 0x6
 4550 0bdb 42070000 		.4byte	.LASF159
 4551 0bdf 13       		.byte	0x13
 4552 0be0 6C       		.byte	0x6c
 4553 0be1 E70B0000 		.4byte	0xbe7
 4554 0be5 00       		.byte	0
 4555 0be6 00       		.byte	0
 4556 0be7 17       		.uleb128 0x17
ARM GAS  /var/folders/m4/4md61f0s1_g0rzfghffqnxvr0000gn/T//ccHVf8ER.s 			page 81


 4557 0be8 C70B0000 		.4byte	0xbc7
 4558 0bec F70B0000 		.4byte	0xbf7
 4559 0bf0 18       		.uleb128 0x18
 4560 0bf1 8B040000 		.4byte	0x48b
 4561 0bf5 16       		.byte	0x16
 4562 0bf6 00       		.byte	0
 4563 0bf7 03       		.uleb128 0x3
 4564 0bf8 1C050000 		.4byte	.LASF160
 4565 0bfc 13       		.byte	0x13
 4566 0bfd 6E       		.byte	0x6e
 4567 0bfe D20B0000 		.4byte	0xbd2
 4568 0c02 09       		.uleb128 0x9
 4569 0c03 04       		.byte	0x4
 4570 0c04 080C0000 		.4byte	0xc08
 4571 0c08 16       		.uleb128 0x16
 4572 0c09 F70B0000 		.4byte	0xbf7
 4573 0c0d 1B       		.uleb128 0x1b
 4574 0c0e 01       		.byte	0x1
 4575 0c0f 14       		.byte	0x14
 4576 0c10 46       		.byte	0x46
 4577 0c11 340C0000 		.4byte	0xc34
 4578 0c15 1C       		.uleb128 0x1c
 4579 0c16 CF010000 		.4byte	.LASF161
 4580 0c1a 00       		.sleb128 0
 4581 0c1b 1C       		.uleb128 0x1c
 4582 0c1c BD010000 		.4byte	.LASF162
 4583 0c20 01       		.sleb128 1
 4584 0c21 1C       		.uleb128 0x1c
 4585 0c22 C7050000 		.4byte	.LASF163
 4586 0c26 02       		.sleb128 2
 4587 0c27 1C       		.uleb128 0x1c
 4588 0c28 27070000 		.4byte	.LASF164
 4589 0c2c 03       		.sleb128 3
 4590 0c2d 1C       		.uleb128 0x1c
 4591 0c2e 420B0000 		.4byte	.LASF165
 4592 0c32 04       		.sleb128 4
 4593 0c33 00       		.byte	0
 4594 0c34 03       		.uleb128 0x3
 4595 0c35 F80C0000 		.4byte	.LASF166
 4596 0c39 14       		.byte	0x14
 4597 0c3a 4C       		.byte	0x4c
 4598 0c3b 0D0C0000 		.4byte	0xc0d
 4599 0c3f 11       		.uleb128 0x11
 4600 0c40 58030000 		.4byte	.LASF167
 4601 0c44 15       		.byte	0x15
 4602 0c45 9601     		.2byte	0x196
 4603 0c47 4B0C0000 		.4byte	0xc4b
 4604 0c4b 0A       		.uleb128 0xa
 4605 0c4c 58030000 		.4byte	.LASF167
 4606 0c50 30       		.byte	0x30
 4607 0c51 15       		.byte	0x15
 4608 0c52 BA01     		.2byte	0x1ba
 4609 0c54 CE0C0000 		.4byte	0xcce
 4610 0c58 08       		.uleb128 0x8
 4611 0c59 F1000000 		.4byte	.LASF153
 4612 0c5d 15       		.byte	0x15
 4613 0c5e BE01     		.2byte	0x1be
ARM GAS  /var/folders/m4/4md61f0s1_g0rzfghffqnxvr0000gn/T//ccHVf8ER.s 			page 82


 4614 0c60 340C0000 		.4byte	0xc34
 4615 0c64 00       		.byte	0
 4616 0c65 08       		.uleb128 0x8
 4617 0c66 EA000000 		.4byte	.LASF154
 4618 0c6a 15       		.byte	0x15
 4619 0c6b C201     		.2byte	0x1c2
 4620 0c6d 3B0D0000 		.4byte	0xd3b
 4621 0c71 04       		.byte	0x4
 4622 0c72 08       		.uleb128 0x8
 4623 0c73 2F0A0000 		.4byte	.LASF168
 4624 0c77 15       		.byte	0x15
 4625 0c78 C701     		.2byte	0x1c7
 4626 0c7a 6D020000 		.4byte	0x26d
 4627 0c7e 08       		.byte	0x8
 4628 0c7f 08       		.uleb128 0x8
 4629 0c80 5B060000 		.4byte	.LASF169
 4630 0c84 15       		.byte	0x15
 4631 0c85 CD01     		.2byte	0x1cd
 4632 0c87 19080000 		.4byte	0x819
 4633 0c8b 0C       		.byte	0xc
 4634 0c8c 07       		.uleb128 0x7
 4635 0c8d 73706900 		.ascii	"spi\000"
 4636 0c91 15       		.byte	0x15
 4637 0c92 D601     		.2byte	0x1d6
 4638 0c94 460D0000 		.4byte	0xd46
 4639 0c98 1C       		.byte	0x1c
 4640 0c99 08       		.uleb128 0x8
 4641 0c9a B6050000 		.4byte	.LASF170
 4642 0c9e 15       		.byte	0x15
 4643 0c9f DA01     		.2byte	0x1da
 4644 0ca1 140B0000 		.4byte	0xb14
 4645 0ca5 20       		.byte	0x20
 4646 0ca6 08       		.uleb128 0x8
 4647 0ca7 CE060000 		.4byte	.LASF171
 4648 0cab 15       		.byte	0x15
 4649 0cac DE01     		.2byte	0x1de
 4650 0cae 140B0000 		.4byte	0xb14
 4651 0cb2 24       		.byte	0x24
 4652 0cb3 08       		.uleb128 0x8
 4653 0cb4 AA060000 		.4byte	.LASF172
 4654 0cb8 15       		.byte	0x15
 4655 0cb9 E201     		.2byte	0x1e2
 4656 0cbb CE000000 		.4byte	0xce
 4657 0cbf 28       		.byte	0x28
 4658 0cc0 08       		.uleb128 0x8
 4659 0cc1 830D0000 		.4byte	.LASF173
 4660 0cc5 15       		.byte	0x15
 4661 0cc6 E601     		.2byte	0x1e6
 4662 0cc8 CE000000 		.4byte	0xce
 4663 0ccc 2C       		.byte	0x2c
 4664 0ccd 00       		.byte	0
 4665 0cce 11       		.uleb128 0x11
 4666 0ccf DA020000 		.4byte	.LASF174
 4667 0cd3 15       		.byte	0x15
 4668 0cd4 9E01     		.2byte	0x19e
 4669 0cd6 DA0C0000 		.4byte	0xcda
 4670 0cda 09       		.uleb128 0x9
ARM GAS  /var/folders/m4/4md61f0s1_g0rzfghffqnxvr0000gn/T//ccHVf8ER.s 			page 83


 4671 0cdb 04       		.byte	0x4
 4672 0cdc E00C0000 		.4byte	0xce0
 4673 0ce0 0B       		.uleb128 0xb
 4674 0ce1 EB0C0000 		.4byte	0xceb
 4675 0ce5 0C       		.uleb128 0xc
 4676 0ce6 EB0C0000 		.4byte	0xceb
 4677 0cea 00       		.byte	0
 4678 0ceb 09       		.uleb128 0x9
 4679 0cec 04       		.byte	0x4
 4680 0ced 3F0C0000 		.4byte	0xc3f
 4681 0cf1 10       		.uleb128 0x10
 4682 0cf2 0C       		.byte	0xc
 4683 0cf3 15       		.byte	0x15
 4684 0cf4 A301     		.2byte	0x1a3
 4685 0cf6 2F0D0000 		.4byte	0xd2f
 4686 0cfa 08       		.uleb128 0x8
 4687 0cfb 64010000 		.4byte	.LASF175
 4688 0cff 15       		.byte	0x15
 4689 0d00 A701     		.2byte	0x1a7
 4690 0d02 CE0C0000 		.4byte	0xcce
 4691 0d06 00       		.byte	0
 4692 0d07 08       		.uleb128 0x8
 4693 0d08 BC000000 		.4byte	.LASF176
 4694 0d0c 15       		.byte	0x15
 4695 0d0d AC01     		.2byte	0x1ac
 4696 0d0f 020B0000 		.4byte	0xb02
 4697 0d13 04       		.byte	0x4
 4698 0d14 08       		.uleb128 0x8
 4699 0d15 320D0000 		.4byte	.LASF177
 4700 0d19 15       		.byte	0x15
 4701 0d1a B001     		.2byte	0x1b0
 4702 0d1c B8000000 		.4byte	0xb8
 4703 0d20 08       		.byte	0x8
 4704 0d21 07       		.uleb128 0x7
 4705 0d22 63723100 		.ascii	"cr1\000"
 4706 0d26 15       		.byte	0x15
 4707 0d27 B401     		.2byte	0x1b4
 4708 0d29 B8000000 		.4byte	0xb8
 4709 0d2d 0A       		.byte	0xa
 4710 0d2e 00       		.byte	0
 4711 0d2f 11       		.uleb128 0x11
 4712 0d30 11070000 		.4byte	.LASF178
 4713 0d34 15       		.byte	0x15
 4714 0d35 B501     		.2byte	0x1b5
 4715 0d37 F10C0000 		.4byte	0xcf1
 4716 0d3b 09       		.uleb128 0x9
 4717 0d3c 04       		.byte	0x4
 4718 0d3d 410D0000 		.4byte	0xd41
 4719 0d41 16       		.uleb128 0x16
 4720 0d42 2F0D0000 		.4byte	0xd2f
 4721 0d46 09       		.uleb128 0x9
 4722 0d47 04       		.byte	0x4
 4723 0d48 77050000 		.4byte	0x577
 4724 0d4c 17       		.uleb128 0x17
 4725 0d4d AD000000 		.4byte	0xad
 4726 0d51 5C0D0000 		.4byte	0xd5c
 4727 0d55 18       		.uleb128 0x18
ARM GAS  /var/folders/m4/4md61f0s1_g0rzfghffqnxvr0000gn/T//ccHVf8ER.s 			page 84


 4728 0d56 8B040000 		.4byte	0x48b
 4729 0d5a 03       		.byte	0x3
 4730 0d5b 00       		.byte	0
 4731 0d5c 13       		.uleb128 0x13
 4732 0d5d 0C       		.byte	0xc
 4733 0d5e 16       		.byte	0x16
 4734 0d5f 64       		.byte	0x64
 4735 0d60 890D0000 		.4byte	0xd89
 4736 0d64 06       		.uleb128 0x6
 4737 0d65 B4060000 		.4byte	.LASF179
 4738 0d69 16       		.byte	0x16
 4739 0d6a 66       		.byte	0x66
 4740 0d6b EB0C0000 		.4byte	0xceb
 4741 0d6f 00       		.byte	0
 4742 0d70 06       		.uleb128 0x6
 4743 0d71 6A070000 		.4byte	.LASF180
 4744 0d75 16       		.byte	0x16
 4745 0d76 67       		.byte	0x67
 4746 0d77 020B0000 		.4byte	0xb02
 4747 0d7b 04       		.byte	0x4
 4748 0d7c 06       		.uleb128 0x6
 4749 0d7d C4070000 		.4byte	.LASF181
 4750 0d81 16       		.byte	0x16
 4751 0d82 68       		.byte	0x68
 4752 0d83 B8000000 		.4byte	0xb8
 4753 0d87 08       		.byte	0x8
 4754 0d88 00       		.byte	0
 4755 0d89 03       		.uleb128 0x3
 4756 0d8a CA030000 		.4byte	.LASF182
 4757 0d8e 16       		.byte	0x16
 4758 0d8f 69       		.byte	0x69
 4759 0d90 5C0D0000 		.4byte	0xd5c
 4760 0d94 05       		.uleb128 0x5
 4761 0d95 84030000 		.4byte	.LASF183
 4762 0d99 20       		.byte	0x20
 4763 0d9a 16       		.byte	0x16
 4764 0d9b 6B       		.byte	0x6b
 4765 0d9c 010E0000 		.4byte	0xe01
 4766 0da0 06       		.uleb128 0x6
 4767 0da1 DB000000 		.4byte	.LASF184
 4768 0da5 16       		.byte	0x16
 4769 0da6 6D       		.byte	0x6d
 4770 0da7 D2080000 		.4byte	0x8d2
 4771 0dab 00       		.byte	0
 4772 0dac 06       		.uleb128 0x6
 4773 0dad E2060000 		.4byte	.LASF185
 4774 0db1 16       		.byte	0x16
 4775 0db2 6D       		.byte	0x6d
 4776 0db3 F1080000 		.4byte	0x8f1
 4777 0db7 04       		.byte	0x4
 4778 0db8 12       		.uleb128 0x12
 4779 0db9 70757400 		.ascii	"put\000"
 4780 0dbd 16       		.byte	0x16
 4781 0dbe 6D       		.byte	0x6d
 4782 0dbf 0B090000 		.4byte	0x90b
 4783 0dc3 08       		.byte	0x8
 4784 0dc4 12       		.uleb128 0x12
ARM GAS  /var/folders/m4/4md61f0s1_g0rzfghffqnxvr0000gn/T//ccHVf8ER.s 			page 85


 4785 0dc5 67657400 		.ascii	"get\000"
 4786 0dc9 16       		.byte	0x16
 4787 0dca 6D       		.byte	0x6d
 4788 0dcb 20090000 		.4byte	0x920
 4789 0dcf 0C       		.byte	0xc
 4790 0dd0 06       		.uleb128 0x6
 4791 0dd1 F7000000 		.4byte	.LASF186
 4792 0dd5 16       		.byte	0x16
 4793 0dd6 6D       		.byte	0x6d
 4794 0dd7 A2090000 		.4byte	0x9a2
 4795 0ddb 10       		.byte	0x10
 4796 0ddc 06       		.uleb128 0x6
 4797 0ddd 97030000 		.4byte	.LASF187
 4798 0de1 16       		.byte	0x16
 4799 0de2 6D       		.byte	0x6d
 4800 0de3 BC090000 		.4byte	0x9bc
 4801 0de7 14       		.byte	0x14
 4802 0de8 06       		.uleb128 0x6
 4803 0de9 95000000 		.4byte	.LASF188
 4804 0ded 16       		.byte	0x16
 4805 0dee 6D       		.byte	0x6d
 4806 0def E0090000 		.4byte	0x9e0
 4807 0df3 18       		.byte	0x18
 4808 0df4 06       		.uleb128 0x6
 4809 0df5 AF010000 		.4byte	.LASF189
 4810 0df9 16       		.byte	0x16
 4811 0dfa 6D       		.byte	0x6d
 4812 0dfb 040A0000 		.4byte	0xa04
 4813 0dff 1C       		.byte	0x1c
 4814 0e00 00       		.byte	0
 4815 0e01 05       		.uleb128 0x5
 4816 0e02 BC090000 		.4byte	.LASF190
 4817 0e06 30       		.byte	0x30
 4818 0e07 16       		.byte	0x16
 4819 0e08 70       		.byte	0x70
 4820 0e09 4A0E0000 		.4byte	0xe4a
 4821 0e0d 12       		.uleb128 0x12
 4822 0e0e 766D7400 		.ascii	"vmt\000"
 4823 0e12 16       		.byte	0x16
 4824 0e13 72       		.byte	0x72
 4825 0e14 4A0E0000 		.4byte	0xe4a
 4826 0e18 00       		.byte	0
 4827 0e19 06       		.uleb128 0x6
 4828 0e1a 55090000 		.4byte	.LASF191
 4829 0e1e 16       		.byte	0x16
 4830 0e1f 73       		.byte	0x73
 4831 0e20 890E0000 		.4byte	0xe89
 4832 0e24 04       		.byte	0x4
 4833 0e25 06       		.uleb128 0x6
 4834 0e26 87000000 		.4byte	.LASF192
 4835 0e2a 16       		.byte	0x16
 4836 0e2b 74       		.byte	0x74
 4837 0e2c 8F0E0000 		.4byte	0xe8f
 4838 0e30 08       		.byte	0x8
 4839 0e31 06       		.uleb128 0x6
 4840 0e32 AB050000 		.4byte	.LASF193
 4841 0e36 16       		.byte	0x16
ARM GAS  /var/folders/m4/4md61f0s1_g0rzfghffqnxvr0000gn/T//ccHVf8ER.s 			page 86


 4842 0e37 75       		.byte	0x75
 4843 0e38 AD000000 		.4byte	0xad
 4844 0e3c 28       		.byte	0x28
 4845 0e3d 06       		.uleb128 0x6
 4846 0e3e C3060000 		.4byte	.LASF194
 4847 0e42 16       		.byte	0x16
 4848 0e43 76       		.byte	0x76
 4849 0e44 9D080000 		.4byte	0x89d
 4850 0e48 2C       		.byte	0x2c
 4851 0e49 00       		.byte	0
 4852 0e4a 09       		.uleb128 0x9
 4853 0e4b 04       		.byte	0x4
 4854 0e4c 500E0000 		.4byte	0xe50
 4855 0e50 16       		.uleb128 0x16
 4856 0e51 940D0000 		.4byte	0xd94
 4857 0e55 1D       		.uleb128 0x1d
 4858 0e56 C3000000 		.4byte	.LASF195
 4859 0e5a 2801     		.2byte	0x128
 4860 0e5c 16       		.byte	0x16
 4861 0e5d 79       		.byte	0x79
 4862 0e5e 890E0000 		.4byte	0xe89
 4863 0e62 06       		.uleb128 0x6
 4864 0e63 42070000 		.4byte	.LASF159
 4865 0e67 16       		.byte	0x16
 4866 0e68 7B       		.byte	0x7b
 4867 0e69 9F0E0000 		.4byte	0xe9f
 4868 0e6d 00       		.byte	0
 4869 0e6e 1E       		.uleb128 0x1e
 4870 0e6f 8D0D0000 		.4byte	.LASF196
 4871 0e73 16       		.byte	0x16
 4872 0e74 7C       		.byte	0x7c
 4873 0e75 9D080000 		.4byte	0x89d
 4874 0e79 2001     		.2byte	0x120
 4875 0e7b 1E       		.uleb128 0x1e
 4876 0e7c EA000000 		.4byte	.LASF154
 4877 0e80 16       		.byte	0x16
 4878 0e81 7D       		.byte	0x7d
 4879 0e82 AF0E0000 		.4byte	0xeaf
 4880 0e86 2401     		.2byte	0x124
 4881 0e88 00       		.byte	0
 4882 0e89 09       		.uleb128 0x9
 4883 0e8a 04       		.byte	0x4
 4884 0e8b 550E0000 		.4byte	0xe55
 4885 0e8f 17       		.uleb128 0x17
 4886 0e90 AD000000 		.4byte	0xad
 4887 0e94 9F0E0000 		.4byte	0xe9f
 4888 0e98 18       		.uleb128 0x18
 4889 0e99 8B040000 		.4byte	0x48b
 4890 0e9d 1F       		.byte	0x1f
 4891 0e9e 00       		.byte	0
 4892 0e9f 17       		.uleb128 0x17
 4893 0ea0 010E0000 		.4byte	0xe01
 4894 0ea4 AF0E0000 		.4byte	0xeaf
 4895 0ea8 18       		.uleb128 0x18
 4896 0ea9 8B040000 		.4byte	0x48b
 4897 0ead 05       		.byte	0x5
 4898 0eae 00       		.byte	0
ARM GAS  /var/folders/m4/4md61f0s1_g0rzfghffqnxvr0000gn/T//ccHVf8ER.s 			page 87


 4899 0eaf 09       		.uleb128 0x9
 4900 0eb0 04       		.byte	0x4
 4901 0eb1 B50E0000 		.4byte	0xeb5
 4902 0eb5 16       		.uleb128 0x16
 4903 0eb6 890D0000 		.4byte	0xd89
 4904 0eba 03       		.uleb128 0x3
 4905 0ebb C3000000 		.4byte	.LASF195
 4906 0ebf 16       		.byte	0x16
 4907 0ec0 80       		.byte	0x80
 4908 0ec1 550E0000 		.4byte	0xe55
 4909 0ec5 1F       		.uleb128 0x1f
 4910 0ec6 9A090000 		.4byte	.LASF201
 4911 0eca 02       		.byte	0x2
 4912 0ecb 2202     		.2byte	0x222
 4913 0ecd 03       		.byte	0x3
 4914 0ece DF0E0000 		.4byte	0xedf
 4915 0ed2 20       		.uleb128 0x20
 4916 0ed3 1E030000 		.4byte	.LASF203
 4917 0ed7 02       		.byte	0x2
 4918 0ed8 2202     		.2byte	0x222
 4919 0eda CE000000 		.4byte	0xce
 4920 0ede 00       		.byte	0
 4921 0edf 21       		.uleb128 0x21
 4922 0ee0 3B0A0000 		.4byte	.LASF197
 4923 0ee4 0C       		.byte	0xc
 4924 0ee5 C801     		.2byte	0x1c8
 4925 0ee7 03       		.byte	0x3
 4926 0ee8 21       		.uleb128 0x21
 4927 0ee9 E1010000 		.4byte	.LASF198
 4928 0eed 0C       		.byte	0xc
 4929 0eee E001     		.2byte	0x1e0
 4930 0ef0 03       		.byte	0x3
 4931 0ef1 21       		.uleb128 0x21
 4932 0ef2 E7050000 		.4byte	.LASF199
 4933 0ef6 0C       		.byte	0xc
 4934 0ef7 EF01     		.2byte	0x1ef
 4935 0ef9 03       		.byte	0x3
 4936 0efa 21       		.uleb128 0x21
 4937 0efb 50080000 		.4byte	.LASF200
 4938 0eff 0C       		.byte	0xc
 4939 0f00 FA01     		.2byte	0x1fa
 4940 0f02 03       		.byte	0x3
 4941 0f03 22       		.uleb128 0x22
 4942 0f04 3A030000 		.4byte	.LASF202
 4943 0f08 03       		.byte	0x3
 4944 0f09 AA       		.byte	0xaa
 4945 0f0a 03       		.byte	0x3
 4946 0f0b 1B0F0000 		.4byte	0xf1b
 4947 0f0f 23       		.uleb128 0x23
 4948 0f10 65737000 		.ascii	"esp\000"
 4949 0f14 03       		.byte	0x3
 4950 0f15 AA       		.byte	0xaa
 4951 0f16 1B0F0000 		.4byte	0xf1b
 4952 0f1a 00       		.byte	0
 4953 0f1b 09       		.uleb128 0x9
 4954 0f1c 04       		.byte	0x4
 4955 0f1d 9D080000 		.4byte	0x89d
ARM GAS  /var/folders/m4/4md61f0s1_g0rzfghffqnxvr0000gn/T//ccHVf8ER.s 			page 88


 4956 0f21 24       		.uleb128 0x24
 4957 0f22 72060000 		.4byte	.LASF206
 4958 0f26 01       		.byte	0x1
 4959 0f27 9C01     		.2byte	0x19c
 4960 0f29 01       		.byte	0x1
 4961 0f2a 530F0000 		.4byte	0xf53
 4962 0f2e 20       		.uleb128 0x20
 4963 0f2f 55090000 		.4byte	.LASF191
 4964 0f33 01       		.byte	0x1
 4965 0f34 9C01     		.2byte	0x19c
 4966 0f36 530F0000 		.4byte	0xf53
 4967 0f3a 20       		.uleb128 0x20
 4968 0f3b 3E060000 		.4byte	.LASF204
 4969 0f3f 01       		.byte	0x1
 4970 0f40 9C01     		.2byte	0x19c
 4971 0f42 AD000000 		.4byte	0xad
 4972 0f46 20       		.uleb128 0x20
 4973 0f47 C9060000 		.4byte	.LASF205
 4974 0f4b 01       		.byte	0x1
 4975 0f4c 9C01     		.2byte	0x19c
 4976 0f4e C7080000 		.4byte	0x8c7
 4977 0f52 00       		.byte	0
 4978 0f53 09       		.uleb128 0x9
 4979 0f54 04       		.byte	0x4
 4980 0f55 BA0E0000 		.4byte	0xeba
 4981 0f59 24       		.uleb128 0x24
 4982 0f5a 92010000 		.4byte	.LASF207
 4983 0f5e 01       		.byte	0x1
 4984 0f5f AB01     		.2byte	0x1ab
 4985 0f61 01       		.byte	0x1
 4986 0f62 8B0F0000 		.4byte	0xf8b
 4987 0f66 20       		.uleb128 0x20
 4988 0f67 55090000 		.4byte	.LASF191
 4989 0f6b 01       		.byte	0x1
 4990 0f6c AB01     		.2byte	0x1ab
 4991 0f6e 530F0000 		.4byte	0xf53
 4992 0f72 20       		.uleb128 0x20
 4993 0f73 3E060000 		.4byte	.LASF204
 4994 0f77 01       		.byte	0x1
 4995 0f78 AB01     		.2byte	0x1ab
 4996 0f7a AD000000 		.4byte	0xad
 4997 0f7e 20       		.uleb128 0x20
 4998 0f7f A3080000 		.4byte	.LASF208
 4999 0f83 01       		.byte	0x1
 5000 0f84 AB01     		.2byte	0x1ab
 5001 0f86 AD000000 		.4byte	0xad
 5002 0f8a 00       		.byte	0
 5003 0f8b 24       		.uleb128 0x24
 5004 0f8c 31000000 		.4byte	.LASF209
 5005 0f90 01       		.byte	0x1
 5006 0f91 DF01     		.2byte	0x1df
 5007 0f93 01       		.byte	0x1
 5008 0f94 E00F0000 		.4byte	0xfe0
 5009 0f98 20       		.uleb128 0x20
 5010 0f99 55090000 		.4byte	.LASF191
 5011 0f9d 01       		.byte	0x1
 5012 0f9e DF01     		.2byte	0x1df
ARM GAS  /var/folders/m4/4md61f0s1_g0rzfghffqnxvr0000gn/T//ccHVf8ER.s 			page 89


 5013 0fa0 530F0000 		.4byte	0xf53
 5014 0fa4 20       		.uleb128 0x20
 5015 0fa5 A3080000 		.4byte	.LASF208
 5016 0fa9 01       		.byte	0x1
 5017 0faa DF01     		.2byte	0x1df
 5018 0fac AD000000 		.4byte	0xad
 5019 0fb0 20       		.uleb128 0x20
 5020 0fb1 6B0D0000 		.4byte	.LASF210
 5021 0fb5 01       		.byte	0x1
 5022 0fb6 DF01     		.2byte	0x1df
 5023 0fb8 A8080000 		.4byte	0x8a8
 5024 0fbc 20       		.uleb128 0x20
 5025 0fbd 3E060000 		.4byte	.LASF204
 5026 0fc1 01       		.byte	0x1
 5027 0fc2 DF01     		.2byte	0x1df
 5028 0fc4 A8080000 		.4byte	0x8a8
 5029 0fc8 25       		.uleb128 0x25
 5030 0fc9 6F7000   		.ascii	"op\000"
 5031 0fcc 01       		.byte	0x1
 5032 0fcd E401     		.2byte	0x1e4
 5033 0fcf AD000000 		.4byte	0xad
 5034 0fd3 26       		.uleb128 0x26
 5035 0fd4 08050000 		.4byte	.LASF211
 5036 0fd8 01       		.byte	0x1
 5037 0fd9 E501     		.2byte	0x1e5
 5038 0fdb AD000000 		.4byte	0xad
 5039 0fdf 00       		.byte	0
 5040 0fe0 24       		.uleb128 0x24
 5041 0fe1 630B0000 		.4byte	.LASF212
 5042 0fe5 01       		.byte	0x1
 5043 0fe6 EF01     		.2byte	0x1ef
 5044 0fe8 01       		.byte	0x1
 5045 0fe9 1D100000 		.4byte	0x101d
 5046 0fed 20       		.uleb128 0x20
 5047 0fee 55090000 		.4byte	.LASF191
 5048 0ff2 01       		.byte	0x1
 5049 0ff3 EF01     		.2byte	0x1ef
 5050 0ff5 530F0000 		.4byte	0xf53
 5051 0ff9 20       		.uleb128 0x20
 5052 0ffa A3080000 		.4byte	.LASF208
 5053 0ffe 01       		.byte	0x1
 5054 0fff EF01     		.2byte	0x1ef
 5055 1001 AD000000 		.4byte	0xad
 5056 1005 20       		.uleb128 0x20
 5057 1006 6B0D0000 		.4byte	.LASF210
 5058 100a 01       		.byte	0x1
 5059 100b EF01     		.2byte	0x1ef
 5060 100d C7080000 		.4byte	0x8c7
 5061 1011 25       		.uleb128 0x25
 5062 1012 6F7000   		.ascii	"op\000"
 5063 1015 01       		.byte	0x1
 5064 1016 F401     		.2byte	0x1f4
 5065 1018 AD000000 		.4byte	0xad
 5066 101c 00       		.byte	0
 5067 101d 24       		.uleb128 0x24
 5068 101e 47020000 		.4byte	.LASF213
 5069 1022 01       		.byte	0x1
ARM GAS  /var/folders/m4/4md61f0s1_g0rzfghffqnxvr0000gn/T//ccHVf8ER.s 			page 90


 5070 1023 3601     		.2byte	0x136
 5071 1025 01       		.byte	0x1
 5072 1026 43100000 		.4byte	0x1043
 5073 102a 20       		.uleb128 0x20
 5074 102b 55090000 		.4byte	.LASF191
 5075 102f 01       		.byte	0x1
 5076 1030 3601     		.2byte	0x136
 5077 1032 530F0000 		.4byte	0xf53
 5078 1036 27       		.uleb128 0x27
 5079 1037 25       		.uleb128 0x25
 5080 1038 6900     		.ascii	"i\000"
 5081 103a 01       		.byte	0x1
 5082 103b 3801     		.2byte	0x138
 5083 103d 25000000 		.4byte	0x25
 5084 1041 00       		.byte	0
 5085 1042 00       		.byte	0
 5086 1043 24       		.uleb128 0x24
 5087 1044 BC030000 		.4byte	.LASF214
 5088 1048 01       		.byte	0x1
 5089 1049 4301     		.2byte	0x143
 5090 104b 01       		.byte	0x1
 5091 104c 69100000 		.4byte	0x1069
 5092 1050 20       		.uleb128 0x20
 5093 1051 55090000 		.4byte	.LASF191
 5094 1055 01       		.byte	0x1
 5095 1056 4301     		.2byte	0x143
 5096 1058 530F0000 		.4byte	0xf53
 5097 105c 20       		.uleb128 0x20
 5098 105d EA000000 		.4byte	.LASF154
 5099 1061 01       		.byte	0x1
 5100 1062 4301     		.2byte	0x143
 5101 1064 AF0E0000 		.4byte	0xeaf
 5102 1068 00       		.byte	0
 5103 1069 24       		.uleb128 0x24
 5104 106a 61060000 		.4byte	.LASF215
 5105 106e 01       		.byte	0x1
 5106 106f 9701     		.2byte	0x197
 5107 1071 01       		.byte	0x1
 5108 1072 8F100000 		.4byte	0x108f
 5109 1076 20       		.uleb128 0x20
 5110 1077 55090000 		.4byte	.LASF191
 5111 107b 01       		.byte	0x1
 5112 107c 9701     		.2byte	0x197
 5113 107e 530F0000 		.4byte	0xf53
 5114 1082 28       		.uleb128 0x28
 5115 1083 69727100 		.ascii	"irq\000"
 5116 1087 01       		.byte	0x1
 5117 1088 9701     		.2byte	0x197
 5118 108a AD000000 		.4byte	0xad
 5119 108e 00       		.byte	0
 5120 108f 22       		.uleb128 0x22
 5121 1090 C70C0000 		.4byte	.LASF216
 5122 1094 03       		.byte	0x3
 5123 1095 BD       		.byte	0xbd
 5124 1096 03       		.byte	0x3
 5125 1097 BD100000 		.4byte	0x10bd
 5126 109b 23       		.uleb128 0x23
ARM GAS  /var/folders/m4/4md61f0s1_g0rzfghffqnxvr0000gn/T//ccHVf8ER.s 			page 91


 5127 109c 65737000 		.ascii	"esp\000"
 5128 10a0 03       		.byte	0x3
 5129 10a1 BD       		.byte	0xbd
 5130 10a2 1B0F0000 		.4byte	0xf1b
 5131 10a6 23       		.uleb128 0x23
 5132 10a7 656C7000 		.ascii	"elp\000"
 5133 10ab 03       		.byte	0x3
 5134 10ac BE       		.byte	0xbe
 5135 10ad 7E080000 		.4byte	0x87e
 5136 10b1 29       		.uleb128 0x29
 5137 10b2 9B0A0000 		.4byte	.LASF217
 5138 10b6 03       		.byte	0x3
 5139 10b7 BF       		.byte	0xbf
 5140 10b8 31010000 		.4byte	0x131
 5141 10bc 00       		.byte	0
 5142 10bd 2A       		.uleb128 0x2a
 5143 10be BE0A0000 		.4byte	.LASF277
 5144 10c2 01       		.byte	0x1
 5145 10c3 B301     		.2byte	0x1b3
 5146 10c5 AD000000 		.4byte	0xad
 5147 10c9 01       		.byte	0x1
 5148 10ca DB100000 		.4byte	0x10db
 5149 10ce 20       		.uleb128 0x20
 5150 10cf 55090000 		.4byte	.LASF191
 5151 10d3 01       		.byte	0x1
 5152 10d4 B301     		.2byte	0x1b3
 5153 10d6 530F0000 		.4byte	0xf53
 5154 10da 00       		.byte	0
 5155 10db 24       		.uleb128 0x24
 5156 10dc 2C040000 		.4byte	.LASF218
 5157 10e0 01       		.byte	0x1
 5158 10e1 3902     		.2byte	0x239
 5159 10e3 01       		.byte	0x1
 5160 10e4 F5100000 		.4byte	0x10f5
 5161 10e8 20       		.uleb128 0x20
 5162 10e9 55090000 		.4byte	.LASF191
 5163 10ed 01       		.byte	0x1
 5164 10ee 3902     		.2byte	0x239
 5165 10f0 530F0000 		.4byte	0xf53
 5166 10f4 00       		.byte	0
 5167 10f5 2B       		.uleb128 0x2b
 5168 10f6 97030000 		.4byte	.LASF187
 5169 10fa 01       		.byte	0x1
 5170 10fb FE       		.byte	0xfe
 5171 10fc 26010000 		.4byte	0x126
 5172 1100 01       		.byte	0x1
 5173 1101 60110000 		.4byte	0x1160
 5174 1105 29       		.uleb128 0x29
 5175 1106 D2000000 		.4byte	.LASF219
 5176 110a 01       		.byte	0x1
 5177 110b FE       		.byte	0xfe
 5178 110c 55030000 		.4byte	0x355
 5179 1110 29       		.uleb128 0x29
 5180 1111 B7090000 		.4byte	.LASF220
 5181 1115 01       		.byte	0x1
 5182 1116 FE       		.byte	0xfe
 5183 1117 52010000 		.4byte	0x152
ARM GAS  /var/folders/m4/4md61f0s1_g0rzfghffqnxvr0000gn/T//ccHVf8ER.s 			page 92


 5184 111b 26       		.uleb128 0x26
 5185 111c 55090000 		.4byte	.LASF191
 5186 1120 01       		.byte	0x1
 5187 1121 0001     		.2byte	0x100
 5188 1123 530F0000 		.4byte	0xf53
 5189 1127 25       		.uleb128 0x25
 5190 1128 63687000 		.ascii	"chp\000"
 5191 112c 01       		.byte	0x1
 5192 112d 0101     		.2byte	0x101
 5193 112f 60110000 		.4byte	0x1160
 5194 1133 2C       		.uleb128 0x2c
 5195 1134 43110000 		.4byte	0x1143
 5196 1138 25       		.uleb128 0x25
 5197 1139 6900     		.ascii	"i\000"
 5198 113b 01       		.byte	0x1
 5199 113c 0301     		.2byte	0x103
 5200 113e 25000000 		.4byte	0x25
 5201 1142 00       		.byte	0
 5202 1143 2C       		.uleb128 0x2c
 5203 1144 53110000 		.4byte	0x1153
 5204 1148 25       		.uleb128 0x25
 5205 1149 6200     		.ascii	"b\000"
 5206 114b 01       		.byte	0x1
 5207 114c 1101     		.2byte	0x111
 5208 114e AD000000 		.4byte	0xad
 5209 1152 00       		.byte	0
 5210 1153 27       		.uleb128 0x27
 5211 1154 25       		.uleb128 0x25
 5212 1155 6200     		.ascii	"b\000"
 5213 1157 01       		.byte	0x1
 5214 1158 1701     		.2byte	0x117
 5215 115a AD000000 		.4byte	0xad
 5216 115e 00       		.byte	0
 5217 115f 00       		.byte	0
 5218 1160 09       		.uleb128 0x9
 5219 1161 04       		.byte	0x4
 5220 1162 010E0000 		.4byte	0xe01
 5221 1166 2B       		.uleb128 0x2b
 5222 1167 F7000000 		.4byte	.LASF186
 5223 116b 01       		.byte	0x1
 5224 116c F7       		.byte	0xf7
 5225 116d 26010000 		.4byte	0x126
 5226 1171 01       		.byte	0x1
 5227 1172 96110000 		.4byte	0x1196
 5228 1176 29       		.uleb128 0x29
 5229 1177 D2000000 		.4byte	.LASF219
 5230 117b 01       		.byte	0x1
 5231 117c F7       		.byte	0xf7
 5232 117d 55030000 		.4byte	0x355
 5233 1181 23       		.uleb128 0x23
 5234 1182 6200     		.ascii	"b\000"
 5235 1184 01       		.byte	0x1
 5236 1185 F7       		.byte	0xf7
 5237 1186 AD000000 		.4byte	0xad
 5238 118a 29       		.uleb128 0x29
 5239 118b B7090000 		.4byte	.LASF220
 5240 118f 01       		.byte	0x1
ARM GAS  /var/folders/m4/4md61f0s1_g0rzfghffqnxvr0000gn/T//ccHVf8ER.s 			page 93


 5241 1190 F7       		.byte	0xf7
 5242 1191 52010000 		.4byte	0x152
 5243 1195 00       		.byte	0
 5244 1196 21       		.uleb128 0x21
 5245 1197 F4010000 		.4byte	.LASF221
 5246 119b 17       		.byte	0x17
 5247 119c 8201     		.2byte	0x182
 5248 119e 03       		.byte	0x3
 5249 119f 21       		.uleb128 0x21
 5250 11a0 AC020000 		.4byte	.LASF222
 5251 11a4 17       		.byte	0x17
 5252 11a5 9601     		.2byte	0x196
 5253 11a7 03       		.byte	0x3
 5254 11a8 24       		.uleb128 0x24
 5255 11a9 F2020000 		.4byte	.LASF223
 5256 11ad 01       		.byte	0x1
 5257 11ae 4502     		.2byte	0x245
 5258 11b0 01       		.byte	0x1
 5259 11b1 C2110000 		.4byte	0x11c2
 5260 11b5 20       		.uleb128 0x20
 5261 11b6 55090000 		.4byte	.LASF191
 5262 11ba 01       		.byte	0x1
 5263 11bb 4502     		.2byte	0x245
 5264 11bd 530F0000 		.4byte	0xf53
 5265 11c1 00       		.byte	0
 5266 11c2 2D       		.uleb128 0x2d
 5267 11c3 9B060000 		.4byte	.LASF282
 5268 11c7 01       		.byte	0x1
 5269 11c8 18       		.byte	0x18
 5270 11c9 00000000 		.4byte	.LFB268
 5271 11cd 1C000000 		.4byte	.LFE268-.LFB268
 5272 11d1 01       		.uleb128 0x1
 5273 11d2 9C       		.byte	0x9c
 5274 11d3 C6120000 		.4byte	0x12c6
 5275 11d7 2E       		.uleb128 0x2e
 5276 11d8 86010000 		.4byte	.LASF224
 5277 11dc 01       		.byte	0x1
 5278 11dd 18       		.byte	0x18
 5279 11de A10B0000 		.4byte	0xba1
 5280 11e2 00000000 		.4byte	.LLST0
 5281 11e6 2E       		.uleb128 0x2e
 5282 11e7 7C050000 		.4byte	.LASF225
 5283 11eb 01       		.byte	0x1
 5284 11ec 18       		.byte	0x18
 5285 11ed 750B0000 		.4byte	0xb75
 5286 11f1 21000000 		.4byte	.LLST1
 5287 11f5 2F       		.uleb128 0x2f
 5288 11f6 A8110000 		.4byte	0x11a8
 5289 11fa 02000000 		.4byte	.LBB110
 5290 11fe 1A000000 		.4byte	.LBE110-.LBB110
 5291 1202 01       		.byte	0x1
 5292 1203 1A       		.byte	0x1a
 5293 1204 30       		.uleb128 0x30
 5294 1205 B5110000 		.4byte	0x11b5
 5295 1209 06       		.uleb128 0x6
 5296 120a 03       		.byte	0x3
 5297 120b 00000000 		.4byte	nrf24l01
ARM GAS  /var/folders/m4/4md61f0s1_g0rzfghffqnxvr0000gn/T//ccHVf8ER.s 			page 94


 5298 120f 9F       		.byte	0x9f
 5299 1210 31       		.uleb128 0x31
 5300 1211 96110000 		.4byte	0x1196
 5301 1215 02000000 		.4byte	.LBB112
 5302 1219 06000000 		.4byte	.LBE112-.LBB112
 5303 121d 01       		.byte	0x1
 5304 121e 4702     		.2byte	0x247
 5305 1220 5E120000 		.4byte	0x125e
 5306 1224 32       		.uleb128 0x32
 5307 1225 F10E0000 		.4byte	0xef1
 5308 1229 02000000 		.4byte	.LBB113
 5309 122d 06000000 		.4byte	.LBE113-.LBB113
 5310 1231 17       		.byte	0x17
 5311 1232 8401     		.2byte	0x184
 5312 1234 32       		.uleb128 0x32
 5313 1235 DF0E0000 		.4byte	0xedf
 5314 1239 02000000 		.4byte	.LBB114
 5315 123d 06000000 		.4byte	.LBE114-.LBB114
 5316 1241 0C       		.byte	0xc
 5317 1242 F101     		.2byte	0x1f1
 5318 1244 32       		.uleb128 0x32
 5319 1245 C50E0000 		.4byte	0xec5
 5320 1249 02000000 		.4byte	.LBB115
 5321 124d 06000000 		.4byte	.LBE115-.LBB115
 5322 1251 0C       		.byte	0xc
 5323 1252 D001     		.2byte	0x1d0
 5324 1254 33       		.uleb128 0x33
 5325 1255 D20E0000 		.4byte	0xed2
 5326 1259 20       		.byte	0x20
 5327 125a 00       		.byte	0
 5328 125b 00       		.byte	0
 5329 125c 00       		.byte	0
 5330 125d 00       		.byte	0
 5331 125e 31       		.uleb128 0x31
 5332 125f 9F110000 		.4byte	0x119f
 5333 1263 10000000 		.4byte	.LBB117
 5334 1267 0C000000 		.4byte	.LBE117-.LBB117
 5335 126b 01       		.byte	0x1
 5336 126c 4902     		.2byte	0x249
 5337 126e AC120000 		.4byte	0x12ac
 5338 1272 32       		.uleb128 0x32
 5339 1273 FA0E0000 		.4byte	0xefa
 5340 1277 10000000 		.4byte	.LBB118
 5341 127b 0C000000 		.4byte	.LBE118-.LBB118
 5342 127f 17       		.byte	0x17
 5343 1280 9A01     		.2byte	0x19a
 5344 1282 32       		.uleb128 0x32
 5345 1283 E80E0000 		.4byte	0xee8
 5346 1287 10000000 		.4byte	.LBB119
 5347 128b 0C000000 		.4byte	.LBE119-.LBB119
 5348 128f 0C       		.byte	0xc
 5349 1290 FC01     		.2byte	0x1fc
 5350 1292 32       		.uleb128 0x32
 5351 1293 C50E0000 		.4byte	0xec5
 5352 1297 10000000 		.4byte	.LBB120
 5353 129b 0C000000 		.4byte	.LBE120-.LBB120
 5354 129f 0C       		.byte	0xc
ARM GAS  /var/folders/m4/4md61f0s1_g0rzfghffqnxvr0000gn/T//ccHVf8ER.s 			page 95


 5355 12a0 E301     		.2byte	0x1e3
 5356 12a2 33       		.uleb128 0x33
 5357 12a3 D20E0000 		.4byte	0xed2
 5358 12a7 00       		.byte	0
 5359 12a8 00       		.byte	0
 5360 12a9 00       		.byte	0
 5361 12aa 00       		.byte	0
 5362 12ab 00       		.byte	0
 5363 12ac 34       		.uleb128 0x34
 5364 12ad 10000000 		.4byte	.LVL3
 5365 12b1 592E0000 		.4byte	0x2e59
 5366 12b5 35       		.uleb128 0x35
 5367 12b6 01       		.uleb128 0x1
 5368 12b7 51       		.byte	0x51
 5369 12b8 01       		.uleb128 0x1
 5370 12b9 31       		.byte	0x31
 5371 12ba 35       		.uleb128 0x35
 5372 12bb 01       		.uleb128 0x1
 5373 12bc 50       		.byte	0x50
 5374 12bd 05       		.uleb128 0x5
 5375 12be 03       		.byte	0x3
 5376 12bf 20010000 		.4byte	.LANCHOR0+288
 5377 12c3 00       		.byte	0
 5378 12c4 00       		.byte	0
 5379 12c5 00       		.byte	0
 5380 12c6 36       		.uleb128 0x36
 5381 12c7 8B0F0000 		.4byte	0xf8b
 5382 12cb 00000000 		.4byte	.LFB311
 5383 12cf 5A000000 		.4byte	.LFE311-.LFB311
 5384 12d3 01       		.uleb128 0x1
 5385 12d4 9C       		.byte	0x9c
 5386 12d5 59130000 		.4byte	0x1359
 5387 12d9 37       		.uleb128 0x37
 5388 12da 980F0000 		.4byte	0xf98
 5389 12de 42000000 		.4byte	.LLST2
 5390 12e2 37       		.uleb128 0x37
 5391 12e3 A40F0000 		.4byte	0xfa4
 5392 12e7 60000000 		.4byte	.LLST3
 5393 12eb 37       		.uleb128 0x37
 5394 12ec B00F0000 		.4byte	0xfb0
 5395 12f0 81000000 		.4byte	.LLST4
 5396 12f4 37       		.uleb128 0x37
 5397 12f5 BC0F0000 		.4byte	0xfbc
 5398 12f9 9F000000 		.4byte	.LLST5
 5399 12fd 38       		.uleb128 0x38
 5400 12fe C80F0000 		.4byte	0xfc8
 5401 1302 02       		.uleb128 0x2
 5402 1303 91       		.byte	0x91
 5403 1304 66       		.sleb128 -26
 5404 1305 38       		.uleb128 0x38
 5405 1306 D30F0000 		.4byte	0xfd3
 5406 130a 02       		.uleb128 0x2
 5407 130b 91       		.byte	0x91
 5408 130c 67       		.sleb128 -25
 5409 130d 39       		.uleb128 0x39
 5410 130e 20000000 		.4byte	.LVL6
 5411 1312 6F2E0000 		.4byte	0x2e6f
ARM GAS  /var/folders/m4/4md61f0s1_g0rzfghffqnxvr0000gn/T//ccHVf8ER.s 			page 96


 5412 1316 3A       		.uleb128 0x3a
 5413 1317 32000000 		.4byte	.LVL7
 5414 131b 812E0000 		.4byte	0x2e81
 5415 131f 35130000 		.4byte	0x1335
 5416 1323 35       		.uleb128 0x35
 5417 1324 01       		.uleb128 0x1
 5418 1325 53       		.byte	0x53
 5419 1326 02       		.uleb128 0x2
 5420 1327 91       		.byte	0x91
 5421 1328 67       		.sleb128 -25
 5422 1329 35       		.uleb128 0x35
 5423 132a 01       		.uleb128 0x1
 5424 132b 52       		.byte	0x52
 5425 132c 02       		.uleb128 0x2
 5426 132d 75       		.byte	0x75
 5427 132e 00       		.sleb128 0
 5428 132f 35       		.uleb128 0x35
 5429 1330 01       		.uleb128 0x1
 5430 1331 51       		.byte	0x51
 5431 1332 01       		.uleb128 0x1
 5432 1333 31       		.byte	0x31
 5433 1334 00       		.byte	0
 5434 1335 3A       		.uleb128 0x3a
 5435 1336 40000000 		.4byte	.LVL8
 5436 133a A92E0000 		.4byte	0x2ea9
 5437 133e 4F130000 		.4byte	0x134f
 5438 1342 35       		.uleb128 0x35
 5439 1343 01       		.uleb128 0x1
 5440 1344 52       		.byte	0x52
 5441 1345 02       		.uleb128 0x2
 5442 1346 77       		.byte	0x77
 5443 1347 00       		.sleb128 0
 5444 1348 35       		.uleb128 0x35
 5445 1349 01       		.uleb128 0x1
 5446 134a 51       		.byte	0x51
 5447 134b 02       		.uleb128 0x2
 5448 134c 78       		.byte	0x78
 5449 134d 00       		.sleb128 0
 5450 134e 00       		.byte	0
 5451 134f 39       		.uleb128 0x39
 5452 1350 4A000000 		.4byte	.LVL9
 5453 1354 C52E0000 		.4byte	0x2ec5
 5454 1358 00       		.byte	0
 5455 1359 36       		.uleb128 0x36
 5456 135a E00F0000 		.4byte	0xfe0
 5457 135e 00000000 		.4byte	.LFB312
 5458 1362 46000000 		.4byte	.LFE312-.LFB312
 5459 1366 01       		.uleb128 0x1
 5460 1367 9C       		.byte	0x9c
 5461 1368 D5130000 		.4byte	0x13d5
 5462 136c 37       		.uleb128 0x37
 5463 136d ED0F0000 		.4byte	0xfed
 5464 1371 BD000000 		.4byte	.LLST6
 5465 1375 37       		.uleb128 0x37
 5466 1376 F90F0000 		.4byte	0xff9
 5467 137a DB000000 		.4byte	.LLST7
 5468 137e 37       		.uleb128 0x37
ARM GAS  /var/folders/m4/4md61f0s1_g0rzfghffqnxvr0000gn/T//ccHVf8ER.s 			page 97


 5469 137f 05100000 		.4byte	0x1005
 5470 1383 FC000000 		.4byte	.LLST8
 5471 1387 38       		.uleb128 0x38
 5472 1388 11100000 		.4byte	0x1011
 5473 138c 02       		.uleb128 0x2
 5474 138d 91       		.byte	0x91
 5475 138e 67       		.sleb128 -25
 5476 138f 39       		.uleb128 0x39
 5477 1390 1C000000 		.4byte	.LVL12
 5478 1394 6F2E0000 		.4byte	0x2e6f
 5479 1398 3A       		.uleb128 0x3a
 5480 1399 2A000000 		.4byte	.LVL13
 5481 139d D72E0000 		.4byte	0x2ed7
 5482 13a1 B1130000 		.4byte	0x13b1
 5483 13a5 35       		.uleb128 0x35
 5484 13a6 01       		.uleb128 0x1
 5485 13a7 52       		.byte	0x52
 5486 13a8 02       		.uleb128 0x2
 5487 13a9 75       		.byte	0x75
 5488 13aa 00       		.sleb128 0
 5489 13ab 35       		.uleb128 0x35
 5490 13ac 01       		.uleb128 0x1
 5491 13ad 51       		.byte	0x51
 5492 13ae 01       		.uleb128 0x1
 5493 13af 31       		.byte	0x31
 5494 13b0 00       		.byte	0
 5495 13b1 3A       		.uleb128 0x3a
 5496 13b2 38000000 		.4byte	.LVL14
 5497 13b6 D72E0000 		.4byte	0x2ed7
 5498 13ba CB130000 		.4byte	0x13cb
 5499 13be 35       		.uleb128 0x35
 5500 13bf 01       		.uleb128 0x1
 5501 13c0 52       		.byte	0x52
 5502 13c1 02       		.uleb128 0x2
 5503 13c2 76       		.byte	0x76
 5504 13c3 00       		.sleb128 0
 5505 13c4 35       		.uleb128 0x35
 5506 13c5 01       		.uleb128 0x1
 5507 13c6 51       		.byte	0x51
 5508 13c7 02       		.uleb128 0x2
 5509 13c8 77       		.byte	0x77
 5510 13c9 00       		.sleb128 0
 5511 13ca 00       		.byte	0
 5512 13cb 39       		.uleb128 0x39
 5513 13cc 42000000 		.4byte	.LVL15
 5514 13d0 C52E0000 		.4byte	0x2ec5
 5515 13d4 00       		.byte	0
 5516 13d5 36       		.uleb128 0x36
 5517 13d6 1D100000 		.4byte	0x101d
 5518 13da 00000000 		.4byte	.LFB278
 5519 13de 34000000 		.4byte	.LFE278-.LFB278
 5520 13e2 01       		.uleb128 0x1
 5521 13e3 9C       		.byte	0x9c
 5522 13e4 3B140000 		.4byte	0x143b
 5523 13e8 30       		.uleb128 0x30
 5524 13e9 2A100000 		.4byte	0x102a
 5525 13ed 01       		.uleb128 0x1
ARM GAS  /var/folders/m4/4md61f0s1_g0rzfghffqnxvr0000gn/T//ccHVf8ER.s 			page 98


 5526 13ee 50       		.byte	0x50
 5527 13ef 3B       		.uleb128 0x3b
 5528 13f0 0C000000 		.4byte	.LBB122
 5529 13f4 16000000 		.4byte	.LBE122-.LBB122
 5530 13f8 20140000 		.4byte	0x1420
 5531 13fc 3C       		.uleb128 0x3c
 5532 13fd 37100000 		.4byte	0x1037
 5533 1401 1A010000 		.4byte	.LLST9
 5534 1405 32       		.uleb128 0x32
 5535 1406 030F0000 		.4byte	0xf03
 5536 140a 1A000000 		.4byte	.LBB123
 5537 140e 04000000 		.4byte	.LBE123-.LBB123
 5538 1412 01       		.byte	0x1
 5539 1413 3D01     		.2byte	0x13d
 5540 1415 37       		.uleb128 0x37
 5541 1416 0F0F0000 		.4byte	0xf0f
 5542 141a 2E010000 		.4byte	.LLST10
 5543 141e 00       		.byte	0
 5544 141f 00       		.byte	0
 5545 1420 32       		.uleb128 0x32
 5546 1421 030F0000 		.4byte	0xf03
 5547 1425 26000000 		.4byte	.LBB125
 5548 1429 04000000 		.4byte	.LBE125-.LBB125
 5549 142d 01       		.byte	0x1
 5550 142e 4001     		.2byte	0x140
 5551 1430 37       		.uleb128 0x37
 5552 1431 0F0F0000 		.4byte	0xf0f
 5553 1435 4E010000 		.4byte	.LLST11
 5554 1439 00       		.byte	0
 5555 143a 00       		.byte	0
 5556 143b 36       		.uleb128 0x36
 5557 143c 43100000 		.4byte	0x1043
 5558 1440 00000000 		.4byte	.LFB279
 5559 1444 06000000 		.4byte	.LFE279-.LFB279
 5560 1448 01       		.uleb128 0x1
 5561 1449 9C       		.byte	0x9c
 5562 144a 5D140000 		.4byte	0x145d
 5563 144e 30       		.uleb128 0x30
 5564 144f 50100000 		.4byte	0x1050
 5565 1453 01       		.uleb128 0x1
 5566 1454 50       		.byte	0x50
 5567 1455 30       		.uleb128 0x30
 5568 1456 5C100000 		.4byte	0x105c
 5569 145a 01       		.uleb128 0x1
 5570 145b 51       		.byte	0x51
 5571 145c 00       		.byte	0
 5572 145d 3D       		.uleb128 0x3d
 5573 145e 160B0000 		.4byte	.LASF226
 5574 1462 01       		.byte	0x1
 5575 1463 4801     		.2byte	0x148
 5576 1465 00000000 		.4byte	.LFB280
 5577 1469 3C000000 		.4byte	.LFE280-.LFB280
 5578 146d 01       		.uleb128 0x1
 5579 146e 9C       		.byte	0x9c
 5580 146f DD140000 		.4byte	0x14dd
 5581 1473 3E       		.uleb128 0x3e
 5582 1474 55090000 		.4byte	.LASF191
ARM GAS  /var/folders/m4/4md61f0s1_g0rzfghffqnxvr0000gn/T//ccHVf8ER.s 			page 99


 5583 1478 01       		.byte	0x1
 5584 1479 4801     		.2byte	0x148
 5585 147b 530F0000 		.4byte	0xf53
 5586 147f 6F010000 		.4byte	.LLST12
 5587 1483 3F       		.uleb128 0x3f
 5588 1484 72656700 		.ascii	"reg\000"
 5589 1488 01       		.byte	0x1
 5590 1489 4801     		.2byte	0x148
 5591 148b AD000000 		.4byte	0xad
 5592 148f 8D010000 		.4byte	.LLST13
 5593 1493 3E       		.uleb128 0x3e
 5594 1494 1E030000 		.4byte	.LASF203
 5595 1498 01       		.byte	0x1
 5596 1499 4801     		.2byte	0x148
 5597 149b AD000000 		.4byte	0xad
 5598 149f AE010000 		.4byte	.LLST14
 5599 14a3 40       		.uleb128 0x40
 5600 14a4 6F7000   		.ascii	"op\000"
 5601 14a7 01       		.byte	0x1
 5602 14a8 4A01     		.2byte	0x14a
 5603 14aa DD140000 		.4byte	0x14dd
 5604 14ae 02       		.uleb128 0x2
 5605 14af 91       		.byte	0x91
 5606 14b0 74       		.sleb128 -12
 5607 14b1 39       		.uleb128 0x39
 5608 14b2 20000000 		.4byte	.LVL26
 5609 14b6 6F2E0000 		.4byte	0x2e6f
 5610 14ba 3A       		.uleb128 0x3a
 5611 14bb 2E000000 		.4byte	.LVL27
 5612 14bf D72E0000 		.4byte	0x2ed7
 5613 14c3 D3140000 		.4byte	0x14d3
 5614 14c7 35       		.uleb128 0x35
 5615 14c8 01       		.uleb128 0x1
 5616 14c9 52       		.byte	0x52
 5617 14ca 02       		.uleb128 0x2
 5618 14cb 91       		.byte	0x91
 5619 14cc 74       		.sleb128 -12
 5620 14cd 35       		.uleb128 0x35
 5621 14ce 01       		.uleb128 0x1
 5622 14cf 51       		.byte	0x51
 5623 14d0 01       		.uleb128 0x1
 5624 14d1 32       		.byte	0x32
 5625 14d2 00       		.byte	0
 5626 14d3 39       		.uleb128 0x39
 5627 14d4 38000000 		.4byte	.LVL28
 5628 14d8 C52E0000 		.4byte	0x2ec5
 5629 14dc 00       		.byte	0
 5630 14dd 17       		.uleb128 0x17
 5631 14de AD000000 		.4byte	0xad
 5632 14e2 ED140000 		.4byte	0x14ed
 5633 14e6 18       		.uleb128 0x18
 5634 14e7 8B040000 		.4byte	0x48b
 5635 14eb 01       		.byte	0x1
 5636 14ec 00       		.byte	0
 5637 14ed 41       		.uleb128 0x41
 5638 14ee 9C0C0000 		.4byte	.LASF229
 5639 14f2 01       		.byte	0x1
ARM GAS  /var/folders/m4/4md61f0s1_g0rzfghffqnxvr0000gn/T//ccHVf8ER.s 			page 100


 5640 14f3 5101     		.2byte	0x151
 5641 14f5 AD000000 		.4byte	0xad
 5642 14f9 00000000 		.4byte	.LFB281
 5643 14fd 48000000 		.4byte	.LFE281-.LFB281
 5644 1501 01       		.uleb128 0x1
 5645 1502 9C       		.byte	0x9c
 5646 1503 76150000 		.4byte	0x1576
 5647 1507 3E       		.uleb128 0x3e
 5648 1508 55090000 		.4byte	.LASF191
 5649 150c 01       		.byte	0x1
 5650 150d 5101     		.2byte	0x151
 5651 150f 530F0000 		.4byte	0xf53
 5652 1513 CF010000 		.4byte	.LLST15
 5653 1517 3F       		.uleb128 0x3f
 5654 1518 72656700 		.ascii	"reg\000"
 5655 151c 01       		.byte	0x1
 5656 151d 5101     		.2byte	0x151
 5657 151f AD000000 		.4byte	0xad
 5658 1523 ED010000 		.4byte	.LLST16
 5659 1527 40       		.uleb128 0x40
 5660 1528 6F7000   		.ascii	"op\000"
 5661 152b 01       		.byte	0x1
 5662 152c 5301     		.2byte	0x153
 5663 152e DD140000 		.4byte	0x14dd
 5664 1532 02       		.uleb128 0x2
 5665 1533 91       		.byte	0x91
 5666 1534 70       		.sleb128 -16
 5667 1535 42       		.uleb128 0x42
 5668 1536 6B0D0000 		.4byte	.LASF210
 5669 153a 01       		.byte	0x1
 5670 153b 5401     		.2byte	0x154
 5671 153d DD140000 		.4byte	0x14dd
 5672 1541 02       		.uleb128 0x2
 5673 1542 91       		.byte	0x91
 5674 1543 74       		.sleb128 -12
 5675 1544 39       		.uleb128 0x39
 5676 1545 26000000 		.4byte	.LVL32
 5677 1549 6F2E0000 		.4byte	0x2e6f
 5678 154d 3A       		.uleb128 0x3a
 5679 154e 36000000 		.4byte	.LVL33
 5680 1552 812E0000 		.4byte	0x2e81
 5681 1556 6C150000 		.4byte	0x156c
 5682 155a 35       		.uleb128 0x35
 5683 155b 01       		.uleb128 0x1
 5684 155c 53       		.byte	0x53
 5685 155d 02       		.uleb128 0x2
 5686 155e 91       		.byte	0x91
 5687 155f 74       		.sleb128 -12
 5688 1560 35       		.uleb128 0x35
 5689 1561 01       		.uleb128 0x1
 5690 1562 52       		.byte	0x52
 5691 1563 02       		.uleb128 0x2
 5692 1564 7D       		.byte	0x7d
 5693 1565 00       		.sleb128 0
 5694 1566 35       		.uleb128 0x35
 5695 1567 01       		.uleb128 0x1
 5696 1568 51       		.byte	0x51
ARM GAS  /var/folders/m4/4md61f0s1_g0rzfghffqnxvr0000gn/T//ccHVf8ER.s 			page 101


 5697 1569 01       		.uleb128 0x1
 5698 156a 32       		.byte	0x32
 5699 156b 00       		.byte	0
 5700 156c 39       		.uleb128 0x39
 5701 156d 40000000 		.4byte	.LVL34
 5702 1571 C52E0000 		.4byte	0x2ec5
 5703 1575 00       		.byte	0
 5704 1576 3D       		.uleb128 0x3d
 5705 1577 0D060000 		.4byte	.LASF227
 5706 157b 01       		.byte	0x1
 5707 157c 5D01     		.2byte	0x15d
 5708 157e 00000000 		.4byte	.LFB282
 5709 1582 4A000000 		.4byte	.LFE282-.LFB282
 5710 1586 01       		.uleb128 0x1
 5711 1587 9C       		.byte	0x9c
 5712 1588 0F160000 		.4byte	0x160f
 5713 158c 3E       		.uleb128 0x3e
 5714 158d 55090000 		.4byte	.LASF191
 5715 1591 01       		.byte	0x1
 5716 1592 5D01     		.2byte	0x15d
 5717 1594 530F0000 		.4byte	0xf53
 5718 1598 0E020000 		.4byte	.LLST17
 5719 159c 3F       		.uleb128 0x3f
 5720 159d 72656700 		.ascii	"reg\000"
 5721 15a1 01       		.byte	0x1
 5722 15a2 5D01     		.2byte	0x15d
 5723 15a4 AD000000 		.4byte	0xad
 5724 15a8 2C020000 		.4byte	.LLST18
 5725 15ac 3E       		.uleb128 0x3e
 5726 15ad 1E030000 		.4byte	.LASF203
 5727 15b1 01       		.byte	0x1
 5728 15b2 5D01     		.2byte	0x15d
 5729 15b4 C7080000 		.4byte	0x8c7
 5730 15b8 4D020000 		.4byte	.LLST19
 5731 15bc 40       		.uleb128 0x40
 5732 15bd 6F7000   		.ascii	"op\000"
 5733 15c0 01       		.byte	0x1
 5734 15c1 5F01     		.2byte	0x15f
 5735 15c3 AD000000 		.4byte	0xad
 5736 15c7 02       		.uleb128 0x2
 5737 15c8 91       		.byte	0x91
 5738 15c9 6F       		.sleb128 -17
 5739 15ca 39       		.uleb128 0x39
 5740 15cb 20000000 		.4byte	.LVL38
 5741 15cf 6F2E0000 		.4byte	0x2e6f
 5742 15d3 3A       		.uleb128 0x3a
 5743 15d4 2E000000 		.4byte	.LVL39
 5744 15d8 D72E0000 		.4byte	0x2ed7
 5745 15dc EC150000 		.4byte	0x15ec
 5746 15e0 35       		.uleb128 0x35
 5747 15e1 01       		.uleb128 0x1
 5748 15e2 52       		.byte	0x52
 5749 15e3 02       		.uleb128 0x2
 5750 15e4 75       		.byte	0x75
 5751 15e5 00       		.sleb128 0
 5752 15e6 35       		.uleb128 0x35
 5753 15e7 01       		.uleb128 0x1
ARM GAS  /var/folders/m4/4md61f0s1_g0rzfghffqnxvr0000gn/T//ccHVf8ER.s 			page 102


 5754 15e8 51       		.byte	0x51
 5755 15e9 01       		.uleb128 0x1
 5756 15ea 31       		.byte	0x31
 5757 15eb 00       		.byte	0
 5758 15ec 3A       		.uleb128 0x3a
 5759 15ed 3C000000 		.4byte	.LVL40
 5760 15f1 D72E0000 		.4byte	0x2ed7
 5761 15f5 05160000 		.4byte	0x1605
 5762 15f9 35       		.uleb128 0x35
 5763 15fa 01       		.uleb128 0x1
 5764 15fb 52       		.byte	0x52
 5765 15fc 02       		.uleb128 0x2
 5766 15fd 76       		.byte	0x76
 5767 15fe 00       		.sleb128 0
 5768 15ff 35       		.uleb128 0x35
 5769 1600 01       		.uleb128 0x1
 5770 1601 51       		.byte	0x51
 5771 1602 01       		.uleb128 0x1
 5772 1603 35       		.byte	0x35
 5773 1604 00       		.byte	0
 5774 1605 39       		.uleb128 0x39
 5775 1606 46000000 		.4byte	.LVL41
 5776 160a C52E0000 		.4byte	0x2ec5
 5777 160e 00       		.byte	0
 5778 160f 3D       		.uleb128 0x3d
 5779 1610 A1040000 		.4byte	.LASF228
 5780 1614 01       		.byte	0x1
 5781 1615 6701     		.2byte	0x167
 5782 1617 00000000 		.4byte	.LFB283
 5783 161b 46000000 		.4byte	.LFE283-.LFB283
 5784 161f 01       		.uleb128 0x1
 5785 1620 9C       		.byte	0x9c
 5786 1621 A8160000 		.4byte	0x16a8
 5787 1625 3E       		.uleb128 0x3e
 5788 1626 55090000 		.4byte	.LASF191
 5789 162a 01       		.byte	0x1
 5790 162b 6701     		.2byte	0x167
 5791 162d 530F0000 		.4byte	0xf53
 5792 1631 6B020000 		.4byte	.LLST20
 5793 1635 3F       		.uleb128 0x3f
 5794 1636 72656700 		.ascii	"reg\000"
 5795 163a 01       		.byte	0x1
 5796 163b 6701     		.2byte	0x167
 5797 163d AD000000 		.4byte	0xad
 5798 1641 89020000 		.4byte	.LLST21
 5799 1645 3E       		.uleb128 0x3e
 5800 1646 1E030000 		.4byte	.LASF203
 5801 164a 01       		.byte	0x1
 5802 164b 6701     		.2byte	0x167
 5803 164d A8080000 		.4byte	0x8a8
 5804 1651 AA020000 		.4byte	.LLST22
 5805 1655 40       		.uleb128 0x40
 5806 1656 6F7000   		.ascii	"op\000"
 5807 1659 01       		.byte	0x1
 5808 165a 6901     		.2byte	0x169
 5809 165c AD000000 		.4byte	0xad
 5810 1660 02       		.uleb128 0x2
ARM GAS  /var/folders/m4/4md61f0s1_g0rzfghffqnxvr0000gn/T//ccHVf8ER.s 			page 103


 5811 1661 91       		.byte	0x91
 5812 1662 6F       		.sleb128 -17
 5813 1663 39       		.uleb128 0x39
 5814 1664 1C000000 		.4byte	.LVL45
 5815 1668 6F2E0000 		.4byte	0x2e6f
 5816 166c 3A       		.uleb128 0x3a
 5817 166d 2A000000 		.4byte	.LVL46
 5818 1671 D72E0000 		.4byte	0x2ed7
 5819 1675 85160000 		.4byte	0x1685
 5820 1679 35       		.uleb128 0x35
 5821 167a 01       		.uleb128 0x1
 5822 167b 52       		.byte	0x52
 5823 167c 02       		.uleb128 0x2
 5824 167d 75       		.byte	0x75
 5825 167e 00       		.sleb128 0
 5826 167f 35       		.uleb128 0x35
 5827 1680 01       		.uleb128 0x1
 5828 1681 51       		.byte	0x51
 5829 1682 01       		.uleb128 0x1
 5830 1683 31       		.byte	0x31
 5831 1684 00       		.byte	0
 5832 1685 3A       		.uleb128 0x3a
 5833 1686 38000000 		.4byte	.LVL47
 5834 168a A92E0000 		.4byte	0x2ea9
 5835 168e 9E160000 		.4byte	0x169e
 5836 1692 35       		.uleb128 0x35
 5837 1693 01       		.uleb128 0x1
 5838 1694 52       		.byte	0x52
 5839 1695 02       		.uleb128 0x2
 5840 1696 76       		.byte	0x76
 5841 1697 00       		.sleb128 0
 5842 1698 35       		.uleb128 0x35
 5843 1699 01       		.uleb128 0x1
 5844 169a 51       		.byte	0x51
 5845 169b 01       		.uleb128 0x1
 5846 169c 35       		.byte	0x35
 5847 169d 00       		.byte	0
 5848 169e 39       		.uleb128 0x39
 5849 169f 42000000 		.4byte	.LVL48
 5850 16a3 C52E0000 		.4byte	0x2ec5
 5851 16a7 00       		.byte	0
 5852 16a8 41       		.uleb128 0x41
 5853 16a9 64000000 		.4byte	.LASF230
 5854 16ad 01       		.byte	0x1
 5855 16ae 7101     		.2byte	0x171
 5856 16b0 AD000000 		.4byte	0xad
 5857 16b4 00000000 		.4byte	.LFB284
 5858 16b8 3C000000 		.4byte	.LFE284-.LFB284
 5859 16bc 01       		.uleb128 0x1
 5860 16bd 9C       		.byte	0x9c
 5861 16be 21170000 		.4byte	0x1721
 5862 16c2 3E       		.uleb128 0x3e
 5863 16c3 55090000 		.4byte	.LASF191
 5864 16c7 01       		.byte	0x1
 5865 16c8 7101     		.2byte	0x171
 5866 16ca 530F0000 		.4byte	0xf53
 5867 16ce C8020000 		.4byte	.LLST23
ARM GAS  /var/folders/m4/4md61f0s1_g0rzfghffqnxvr0000gn/T//ccHVf8ER.s 			page 104


 5868 16d2 40       		.uleb128 0x40
 5869 16d3 6F7000   		.ascii	"op\000"
 5870 16d6 01       		.byte	0x1
 5871 16d7 7301     		.2byte	0x173
 5872 16d9 AD000000 		.4byte	0xad
 5873 16dd 02       		.uleb128 0x2
 5874 16de 91       		.byte	0x91
 5875 16df 6E       		.sleb128 -18
 5876 16e0 42       		.uleb128 0x42
 5877 16e1 6B0D0000 		.4byte	.LASF210
 5878 16e5 01       		.byte	0x1
 5879 16e6 7401     		.2byte	0x174
 5880 16e8 AD000000 		.4byte	0xad
 5881 16ec 02       		.uleb128 0x2
 5882 16ed 91       		.byte	0x91
 5883 16ee 6F       		.sleb128 -17
 5884 16ef 39       		.uleb128 0x39
 5885 16f0 18000000 		.4byte	.LVL51
 5886 16f4 6F2E0000 		.4byte	0x2e6f
 5887 16f8 3A       		.uleb128 0x3a
 5888 16f9 2A000000 		.4byte	.LVL52
 5889 16fd 812E0000 		.4byte	0x2e81
 5890 1701 17170000 		.4byte	0x1717
 5891 1705 35       		.uleb128 0x35
 5892 1706 01       		.uleb128 0x1
 5893 1707 53       		.byte	0x53
 5894 1708 02       		.uleb128 0x2
 5895 1709 91       		.byte	0x91
 5896 170a 6F       		.sleb128 -17
 5897 170b 35       		.uleb128 0x35
 5898 170c 01       		.uleb128 0x1
 5899 170d 52       		.byte	0x52
 5900 170e 02       		.uleb128 0x2
 5901 170f 75       		.byte	0x75
 5902 1710 00       		.sleb128 0
 5903 1711 35       		.uleb128 0x35
 5904 1712 01       		.uleb128 0x1
 5905 1713 51       		.byte	0x51
 5906 1714 01       		.uleb128 0x1
 5907 1715 31       		.byte	0x31
 5908 1716 00       		.byte	0
 5909 1717 39       		.uleb128 0x39
 5910 1718 34000000 		.4byte	.LVL53
 5911 171c C52E0000 		.4byte	0x2ec5
 5912 1720 00       		.byte	0
 5913 1721 3D       		.uleb128 0x3d
 5914 1722 5A090000 		.4byte	.LASF231
 5915 1726 01       		.byte	0x1
 5916 1727 7D01     		.2byte	0x17d
 5917 1729 00000000 		.4byte	.LFB285
 5918 172d 1C000000 		.4byte	.LFE285-.LFB285
 5919 1731 01       		.uleb128 0x1
 5920 1732 9C       		.byte	0x9c
 5921 1733 87170000 		.4byte	0x1787
 5922 1737 3E       		.uleb128 0x3e
 5923 1738 55090000 		.4byte	.LASF191
 5924 173c 01       		.byte	0x1
ARM GAS  /var/folders/m4/4md61f0s1_g0rzfghffqnxvr0000gn/T//ccHVf8ER.s 			page 105


 5925 173d 7D01     		.2byte	0x17d
 5926 173f 530F0000 		.4byte	0xf53
 5927 1743 E6020000 		.4byte	.LLST24
 5928 1747 43       		.uleb128 0x43
 5929 1748 72656700 		.ascii	"reg\000"
 5930 174c 01       		.byte	0x1
 5931 174d 7F01     		.2byte	0x17f
 5932 174f AD000000 		.4byte	0xad
 5933 1753 1D030000 		.4byte	.LLST25
 5934 1757 3A       		.uleb128 0x3a
 5935 1758 0A000000 		.4byte	.LVL55
 5936 175c ED140000 		.4byte	0x14ed
 5937 1760 70170000 		.4byte	0x1770
 5938 1764 35       		.uleb128 0x35
 5939 1765 01       		.uleb128 0x1
 5940 1766 51       		.byte	0x51
 5941 1767 01       		.uleb128 0x1
 5942 1768 30       		.byte	0x30
 5943 1769 35       		.uleb128 0x35
 5944 176a 01       		.uleb128 0x1
 5945 176b 50       		.byte	0x50
 5946 176c 02       		.uleb128 0x2
 5947 176d 74       		.byte	0x74
 5948 176e 00       		.sleb128 0
 5949 176f 00       		.byte	0
 5950 1770 44       		.uleb128 0x44
 5951 1771 1C000000 		.4byte	.LVL58
 5952 1775 5D140000 		.4byte	0x145d
 5953 1779 35       		.uleb128 0x35
 5954 177a 01       		.uleb128 0x1
 5955 177b 51       		.byte	0x51
 5956 177c 01       		.uleb128 0x1
 5957 177d 30       		.byte	0x30
 5958 177e 35       		.uleb128 0x35
 5959 177f 01       		.uleb128 0x1
 5960 1780 50       		.byte	0x50
 5961 1781 03       		.uleb128 0x3
 5962 1782 F3       		.byte	0xf3
 5963 1783 01       		.uleb128 0x1
 5964 1784 50       		.byte	0x50
 5965 1785 00       		.byte	0
 5966 1786 00       		.byte	0
 5967 1787 3D       		.uleb128 0x3d
 5968 1788 B2070000 		.4byte	.LASF232
 5969 178c 01       		.byte	0x1
 5970 178d 8401     		.2byte	0x184
 5971 178f 00000000 		.4byte	.LFB286
 5972 1793 1A000000 		.4byte	.LFE286-.LFB286
 5973 1797 01       		.uleb128 0x1
 5974 1798 9C       		.byte	0x9c
 5975 1799 ED170000 		.4byte	0x17ed
 5976 179d 3E       		.uleb128 0x3e
 5977 179e 55090000 		.4byte	.LASF191
 5978 17a2 01       		.byte	0x1
 5979 17a3 8401     		.2byte	0x184
 5980 17a5 530F0000 		.4byte	0xf53
 5981 17a9 34030000 		.4byte	.LLST26
ARM GAS  /var/folders/m4/4md61f0s1_g0rzfghffqnxvr0000gn/T//ccHVf8ER.s 			page 106


 5982 17ad 43       		.uleb128 0x43
 5983 17ae 72656700 		.ascii	"reg\000"
 5984 17b2 01       		.byte	0x1
 5985 17b3 8601     		.2byte	0x186
 5986 17b5 AD000000 		.4byte	0xad
 5987 17b9 6B030000 		.4byte	.LLST27
 5988 17bd 3A       		.uleb128 0x3a
 5989 17be 0A000000 		.4byte	.LVL60
 5990 17c2 ED140000 		.4byte	0x14ed
 5991 17c6 D6170000 		.4byte	0x17d6
 5992 17ca 35       		.uleb128 0x35
 5993 17cb 01       		.uleb128 0x1
 5994 17cc 51       		.byte	0x51
 5995 17cd 01       		.uleb128 0x1
 5996 17ce 30       		.byte	0x30
 5997 17cf 35       		.uleb128 0x35
 5998 17d0 01       		.uleb128 0x1
 5999 17d1 50       		.byte	0x50
 6000 17d2 02       		.uleb128 0x2
 6001 17d3 74       		.byte	0x74
 6002 17d4 00       		.sleb128 0
 6003 17d5 00       		.byte	0
 6004 17d6 44       		.uleb128 0x44
 6005 17d7 1A000000 		.4byte	.LVL63
 6006 17db 5D140000 		.4byte	0x145d
 6007 17df 35       		.uleb128 0x35
 6008 17e0 01       		.uleb128 0x1
 6009 17e1 51       		.byte	0x51
 6010 17e2 01       		.uleb128 0x1
 6011 17e3 30       		.byte	0x30
 6012 17e4 35       		.uleb128 0x35
 6013 17e5 01       		.uleb128 0x1
 6014 17e6 50       		.byte	0x50
 6015 17e7 03       		.uleb128 0x3
 6016 17e8 F3       		.byte	0xf3
 6017 17e9 01       		.uleb128 0x1
 6018 17ea 50       		.byte	0x50
 6019 17eb 00       		.byte	0
 6020 17ec 00       		.byte	0
 6021 17ed 3D       		.uleb128 0x3d
 6022 17ee 52070000 		.4byte	.LASF233
 6023 17f2 01       		.byte	0x1
 6024 17f3 8B01     		.2byte	0x18b
 6025 17f5 00000000 		.4byte	.LFB287
 6026 17f9 10000000 		.4byte	.LFE287-.LFB287
 6027 17fd 01       		.uleb128 0x1
 6028 17fe 9C       		.byte	0x9c
 6029 17ff 5A180000 		.4byte	0x185a
 6030 1803 3E       		.uleb128 0x3e
 6031 1804 55090000 		.4byte	.LASF191
 6032 1808 01       		.byte	0x1
 6033 1809 8B01     		.2byte	0x18b
 6034 180b 530F0000 		.4byte	0xf53
 6035 180f 83030000 		.4byte	.LLST28
 6036 1813 3E       		.uleb128 0x3e
 6037 1814 2A010000 		.4byte	.LASF234
 6038 1818 01       		.byte	0x1
ARM GAS  /var/folders/m4/4md61f0s1_g0rzfghffqnxvr0000gn/T//ccHVf8ER.s 			page 107


 6039 1819 8B01     		.2byte	0x18b
 6040 181b AD000000 		.4byte	0xad
 6041 181f A4030000 		.4byte	.LLST29
 6042 1823 3E       		.uleb128 0x3e
 6043 1824 4F010000 		.4byte	.LASF235
 6044 1828 01       		.byte	0x1
 6045 1829 8B01     		.2byte	0x18b
 6046 182b AD000000 		.4byte	0xad
 6047 182f C5030000 		.4byte	.LLST30
 6048 1833 43       		.uleb128 0x43
 6049 1834 72656700 		.ascii	"reg\000"
 6050 1838 01       		.byte	0x1
 6051 1839 8D01     		.2byte	0x18d
 6052 183b AD000000 		.4byte	0xad
 6053 183f E6030000 		.4byte	.LLST31
 6054 1843 44       		.uleb128 0x44
 6055 1844 10000000 		.4byte	.LVL67
 6056 1848 5D140000 		.4byte	0x145d
 6057 184c 35       		.uleb128 0x35
 6058 184d 01       		.uleb128 0x1
 6059 184e 51       		.byte	0x51
 6060 184f 01       		.uleb128 0x1
 6061 1850 34       		.byte	0x34
 6062 1851 35       		.uleb128 0x35
 6063 1852 01       		.uleb128 0x1
 6064 1853 50       		.byte	0x50
 6065 1854 03       		.uleb128 0x3
 6066 1855 F3       		.byte	0xf3
 6067 1856 01       		.uleb128 0x1
 6068 1857 50       		.byte	0x50
 6069 1858 00       		.byte	0
 6070 1859 00       		.byte	0
 6071 185a 3D       		.uleb128 0x3d
 6072 185b 7F040000 		.4byte	.LASF236
 6073 185f 01       		.byte	0x1
 6074 1860 9101     		.2byte	0x191
 6075 1862 00000000 		.4byte	.LFB288
 6076 1866 0A000000 		.4byte	.LFE288-.LFB288
 6077 186a 01       		.uleb128 0x1
 6078 186b 9C       		.byte	0x9c
 6079 186c B7180000 		.4byte	0x18b7
 6080 1870 3E       		.uleb128 0x3e
 6081 1871 55090000 		.4byte	.LASF191
 6082 1875 01       		.byte	0x1
 6083 1876 9101     		.2byte	0x191
 6084 1878 530F0000 		.4byte	0xf53
 6085 187c 2D040000 		.4byte	.LLST32
 6086 1880 3E       		.uleb128 0x3e
 6087 1881 7C050000 		.4byte	.LASF225
 6088 1885 01       		.byte	0x1
 6089 1886 9101     		.2byte	0x191
 6090 1888 AD000000 		.4byte	0xad
 6091 188c 4E040000 		.4byte	.LLST33
 6092 1890 43       		.uleb128 0x43
 6093 1891 72656700 		.ascii	"reg\000"
 6094 1895 01       		.byte	0x1
 6095 1896 9301     		.2byte	0x193
ARM GAS  /var/folders/m4/4md61f0s1_g0rzfghffqnxvr0000gn/T//ccHVf8ER.s 			page 108


 6096 1898 AD000000 		.4byte	0xad
 6097 189c 6F040000 		.4byte	.LLST34
 6098 18a0 44       		.uleb128 0x44
 6099 18a1 0A000000 		.4byte	.LVL70
 6100 18a5 5D140000 		.4byte	0x145d
 6101 18a9 35       		.uleb128 0x35
 6102 18aa 01       		.uleb128 0x1
 6103 18ab 51       		.byte	0x51
 6104 18ac 01       		.uleb128 0x1
 6105 18ad 35       		.byte	0x35
 6106 18ae 35       		.uleb128 0x35
 6107 18af 01       		.uleb128 0x1
 6108 18b0 50       		.byte	0x50
 6109 18b1 03       		.uleb128 0x3
 6110 18b2 F3       		.byte	0xf3
 6111 18b3 01       		.uleb128 0x1
 6112 18b4 50       		.byte	0x50
 6113 18b5 00       		.byte	0
 6114 18b6 00       		.byte	0
 6115 18b7 36       		.uleb128 0x36
 6116 18b8 69100000 		.4byte	0x1069
 6117 18bc 00000000 		.4byte	.LFB289
 6118 18c0 0A000000 		.4byte	.LFE289-.LFB289
 6119 18c4 01       		.uleb128 0x1
 6120 18c5 9C       		.byte	0x9c
 6121 18c6 F3180000 		.4byte	0x18f3
 6122 18ca 37       		.uleb128 0x37
 6123 18cb 76100000 		.4byte	0x1076
 6124 18cf 98040000 		.4byte	.LLST35
 6125 18d3 37       		.uleb128 0x37
 6126 18d4 82100000 		.4byte	0x1082
 6127 18d8 B9040000 		.4byte	.LLST36
 6128 18dc 44       		.uleb128 0x44
 6129 18dd 0A000000 		.4byte	.LVL73
 6130 18e1 5D140000 		.4byte	0x145d
 6131 18e5 35       		.uleb128 0x35
 6132 18e6 01       		.uleb128 0x1
 6133 18e7 51       		.byte	0x51
 6134 18e8 01       		.uleb128 0x1
 6135 18e9 37       		.byte	0x37
 6136 18ea 35       		.uleb128 0x35
 6137 18eb 01       		.uleb128 0x1
 6138 18ec 50       		.byte	0x50
 6139 18ed 03       		.uleb128 0x3
 6140 18ee F3       		.byte	0xf3
 6141 18ef 01       		.uleb128 0x1
 6142 18f0 50       		.byte	0x50
 6143 18f1 00       		.byte	0
 6144 18f2 00       		.byte	0
 6145 18f3 36       		.uleb128 0x36
 6146 18f4 210F0000 		.4byte	0xf21
 6147 18f8 00000000 		.4byte	.LFB290
 6148 18fc 40000000 		.4byte	.LFE290-.LFB290
 6149 1900 01       		.uleb128 0x1
 6150 1901 9C       		.byte	0x9c
 6151 1902 8F190000 		.4byte	0x198f
 6152 1906 37       		.uleb128 0x37
ARM GAS  /var/folders/m4/4md61f0s1_g0rzfghffqnxvr0000gn/T//ccHVf8ER.s 			page 109


 6153 1907 2E0F0000 		.4byte	0xf2e
 6154 190b DA040000 		.4byte	.LLST37
 6155 190f 37       		.uleb128 0x37
 6156 1910 3A0F0000 		.4byte	0xf3a
 6157 1914 35050000 		.4byte	.LLST38
 6158 1918 37       		.uleb128 0x37
 6159 1919 460F0000 		.4byte	0xf46
 6160 191d 56050000 		.4byte	.LLST39
 6161 1921 45       		.uleb128 0x45
 6162 1922 00000000 		.4byte	.Ldebug_ranges0+0
 6163 1926 57190000 		.4byte	0x1957
 6164 192a 37       		.uleb128 0x37
 6165 192b 460F0000 		.4byte	0xf46
 6166 192f A6050000 		.4byte	.LLST40
 6167 1933 37       		.uleb128 0x37
 6168 1934 3A0F0000 		.4byte	0xf3a
 6169 1938 C7050000 		.4byte	.LLST41
 6170 193c 37       		.uleb128 0x37
 6171 193d 2E0F0000 		.4byte	0xf2e
 6172 1941 DA050000 		.4byte	.LLST42
 6173 1945 44       		.uleb128 0x44
 6174 1946 2E000000 		.4byte	.LVL80
 6175 194a 5D140000 		.4byte	0x145d
 6176 194e 35       		.uleb128 0x35
 6177 194f 01       		.uleb128 0x1
 6178 1950 50       		.byte	0x50
 6179 1951 03       		.uleb128 0x3
 6180 1952 F3       		.byte	0xf3
 6181 1953 01       		.uleb128 0x1
 6182 1954 50       		.byte	0x50
 6183 1955 00       		.byte	0
 6184 1956 00       		.byte	0
 6185 1957 3A       		.uleb128 0x3a
 6186 1958 10000000 		.4byte	.LVL77
 6187 195c 5D140000 		.4byte	0x145d
 6188 1960 76190000 		.4byte	0x1976
 6189 1964 35       		.uleb128 0x35
 6190 1965 01       		.uleb128 0x1
 6191 1966 52       		.byte	0x52
 6192 1967 02       		.uleb128 0x2
 6193 1968 09       		.byte	0x9
 6194 1969 80       		.byte	0x80
 6195 196a 35       		.uleb128 0x35
 6196 196b 01       		.uleb128 0x1
 6197 196c 51       		.byte	0x51
 6198 196d 01       		.uleb128 0x1
 6199 196e 33       		.byte	0x33
 6200 196f 35       		.uleb128 0x35
 6201 1970 01       		.uleb128 0x1
 6202 1971 50       		.byte	0x50
 6203 1972 02       		.uleb128 0x2
 6204 1973 76       		.byte	0x76
 6205 1974 00       		.sleb128 0
 6206 1975 00       		.byte	0
 6207 1976 44       		.uleb128 0x44
 6208 1977 40000000 		.4byte	.LVL82
 6209 197b 76150000 		.4byte	0x1576
ARM GAS  /var/folders/m4/4md61f0s1_g0rzfghffqnxvr0000gn/T//ccHVf8ER.s 			page 110


 6210 197f 35       		.uleb128 0x35
 6211 1980 01       		.uleb128 0x1
 6212 1981 52       		.byte	0x52
 6213 1982 03       		.uleb128 0x3
 6214 1983 F3       		.byte	0xf3
 6215 1984 01       		.uleb128 0x1
 6216 1985 52       		.byte	0x52
 6217 1986 35       		.uleb128 0x35
 6218 1987 01       		.uleb128 0x1
 6219 1988 50       		.byte	0x50
 6220 1989 03       		.uleb128 0x3
 6221 198a F3       		.byte	0xf3
 6222 198b 01       		.uleb128 0x1
 6223 198c 50       		.byte	0x50
 6224 198d 00       		.byte	0
 6225 198e 00       		.byte	0
 6226 198f 3D       		.uleb128 0x3d
 6227 1990 A7030000 		.4byte	.LASF237
 6228 1994 01       		.byte	0x1
 6229 1995 A501     		.2byte	0x1a5
 6230 1997 00000000 		.4byte	.LFB291
 6231 199b 1C000000 		.4byte	.LFE291-.LFB291
 6232 199f 01       		.uleb128 0x1
 6233 19a0 9C       		.byte	0x9c
 6234 19a1 021A0000 		.4byte	0x1a02
 6235 19a5 3E       		.uleb128 0x3e
 6236 19a6 55090000 		.4byte	.LASF191
 6237 19aa 01       		.byte	0x1
 6238 19ab A501     		.2byte	0x1a5
 6239 19ad 530F0000 		.4byte	0xf53
 6240 19b1 06060000 		.4byte	.LLST43
 6241 19b5 3E       		.uleb128 0x3e
 6242 19b6 C9060000 		.4byte	.LASF205
 6243 19ba 01       		.byte	0x1
 6244 19bb A501     		.2byte	0x1a5
 6245 19bd C7080000 		.4byte	0x8c7
 6246 19c1 3D060000 		.4byte	.LLST44
 6247 19c5 3A       		.uleb128 0x3a
 6248 19c6 0E000000 		.4byte	.LVL85
 6249 19ca 5D140000 		.4byte	0x145d
 6250 19ce E4190000 		.4byte	0x19e4
 6251 19d2 35       		.uleb128 0x35
 6252 19d3 01       		.uleb128 0x1
 6253 19d4 52       		.byte	0x52
 6254 19d5 02       		.uleb128 0x2
 6255 19d6 09       		.byte	0x9
 6256 19d7 80       		.byte	0x80
 6257 19d8 35       		.uleb128 0x35
 6258 19d9 01       		.uleb128 0x1
 6259 19da 51       		.byte	0x51
 6260 19db 01       		.uleb128 0x1
 6261 19dc 33       		.byte	0x33
 6262 19dd 35       		.uleb128 0x35
 6263 19de 01       		.uleb128 0x1
 6264 19df 50       		.byte	0x50
 6265 19e0 02       		.uleb128 0x2
 6266 19e1 75       		.byte	0x75
ARM GAS  /var/folders/m4/4md61f0s1_g0rzfghffqnxvr0000gn/T//ccHVf8ER.s 			page 111


 6267 19e2 00       		.sleb128 0
 6268 19e3 00       		.byte	0
 6269 19e4 44       		.uleb128 0x44
 6270 19e5 1C000000 		.4byte	.LVL87
 6271 19e9 76150000 		.4byte	0x1576
 6272 19ed 35       		.uleb128 0x35
 6273 19ee 01       		.uleb128 0x1
 6274 19ef 52       		.byte	0x52
 6275 19f0 03       		.uleb128 0x3
 6276 19f1 F3       		.byte	0xf3
 6277 19f2 01       		.uleb128 0x1
 6278 19f3 51       		.byte	0x51
 6279 19f4 35       		.uleb128 0x35
 6280 19f5 01       		.uleb128 0x1
 6281 19f6 51       		.byte	0x51
 6282 19f7 01       		.uleb128 0x1
 6283 19f8 40       		.byte	0x40
 6284 19f9 35       		.uleb128 0x35
 6285 19fa 01       		.uleb128 0x1
 6286 19fb 50       		.byte	0x50
 6287 19fc 03       		.uleb128 0x3
 6288 19fd F3       		.byte	0xf3
 6289 19fe 01       		.uleb128 0x1
 6290 19ff 50       		.byte	0x50
 6291 1a00 00       		.byte	0
 6292 1a01 00       		.byte	0
 6293 1a02 36       		.uleb128 0x36
 6294 1a03 590F0000 		.4byte	0xf59
 6295 1a07 00000000 		.4byte	.LFB292
 6296 1a0b 12000000 		.4byte	.LFE292-.LFB292
 6297 1a0f 01       		.uleb128 0x1
 6298 1a10 9C       		.byte	0x9c
 6299 1a11 5B1A0000 		.4byte	0x1a5b
 6300 1a15 37       		.uleb128 0x37
 6301 1a16 660F0000 		.4byte	0xf66
 6302 1a1a 74060000 		.4byte	.LLST45
 6303 1a1e 37       		.uleb128 0x37
 6304 1a1f 720F0000 		.4byte	0xf72
 6305 1a23 95060000 		.4byte	.LLST46
 6306 1a27 37       		.uleb128 0x37
 6307 1a28 7E0F0000 		.4byte	0xf7e
 6308 1a2c B6060000 		.4byte	.LLST47
 6309 1a30 46       		.uleb128 0x46
 6310 1a31 04000000 		.4byte	.LBB135
 6311 1a35 0E000000 		.4byte	.LBE135-.LBB135
 6312 1a39 37       		.uleb128 0x37
 6313 1a3a 7E0F0000 		.4byte	0xf7e
 6314 1a3e D7060000 		.4byte	.LLST48
 6315 1a42 37       		.uleb128 0x37
 6316 1a43 720F0000 		.4byte	0xf72
 6317 1a47 03070000 		.4byte	.LLST49
 6318 1a4b 47       		.uleb128 0x47
 6319 1a4c 660F0000 		.4byte	0xf66
 6320 1a50 48       		.uleb128 0x48
 6321 1a51 12000000 		.4byte	.LVL93
 6322 1a55 5D140000 		.4byte	0x145d
 6323 1a59 00       		.byte	0
ARM GAS  /var/folders/m4/4md61f0s1_g0rzfghffqnxvr0000gn/T//ccHVf8ER.s 			page 112


 6324 1a5a 00       		.byte	0
 6325 1a5b 36       		.uleb128 0x36
 6326 1a5c BD100000 		.4byte	0x10bd
 6327 1a60 00000000 		.4byte	.LFB293
 6328 1a64 06000000 		.4byte	.LFE293-.LFB293
 6329 1a68 01       		.uleb128 0x1
 6330 1a69 9C       		.byte	0x9c
 6331 1a6a 8E1A0000 		.4byte	0x1a8e
 6332 1a6e 37       		.uleb128 0x37
 6333 1a6f CE100000 		.4byte	0x10ce
 6334 1a73 2F070000 		.4byte	.LLST50
 6335 1a77 44       		.uleb128 0x44
 6336 1a78 06000000 		.4byte	.LVL95
 6337 1a7c ED140000 		.4byte	0x14ed
 6338 1a80 35       		.uleb128 0x35
 6339 1a81 01       		.uleb128 0x1
 6340 1a82 51       		.byte	0x51
 6341 1a83 01       		.uleb128 0x1
 6342 1a84 47       		.byte	0x47
 6343 1a85 35       		.uleb128 0x35
 6344 1a86 01       		.uleb128 0x1
 6345 1a87 50       		.byte	0x50
 6346 1a88 03       		.uleb128 0x3
 6347 1a89 F3       		.byte	0xf3
 6348 1a8a 01       		.uleb128 0x1
 6349 1a8b 50       		.byte	0x50
 6350 1a8c 00       		.byte	0
 6351 1a8d 00       		.byte	0
 6352 1a8e 3D       		.uleb128 0x3d
 6353 1a8f 1D090000 		.4byte	.LASF238
 6354 1a93 01       		.byte	0x1
 6355 1a94 CA01     		.2byte	0x1ca
 6356 1a96 00000000 		.4byte	.LFB295
 6357 1a9a 22000000 		.4byte	.LFE295-.LFB295
 6358 1a9e 01       		.uleb128 0x1
 6359 1a9f 9C       		.byte	0x9c
 6360 1aa0 041B0000 		.4byte	0x1b04
 6361 1aa4 3E       		.uleb128 0x3e
 6362 1aa5 55090000 		.4byte	.LASF191
 6363 1aa9 01       		.byte	0x1
 6364 1aaa CA01     		.2byte	0x1ca
 6365 1aac 530F0000 		.4byte	0xf53
 6366 1ab0 50070000 		.4byte	.LLST51
 6367 1ab4 3E       		.uleb128 0x3e
 6368 1ab5 5A020000 		.4byte	.LASF239
 6369 1ab9 01       		.byte	0x1
 6370 1aba CA01     		.2byte	0x1ca
 6371 1abc AD000000 		.4byte	0xad
 6372 1ac0 87070000 		.4byte	.LLST52
 6373 1ac4 43       		.uleb128 0x43
 6374 1ac5 72656700 		.ascii	"reg\000"
 6375 1ac9 01       		.byte	0x1
 6376 1aca CC01     		.2byte	0x1cc
 6377 1acc AD000000 		.4byte	0xad
 6378 1ad0 A8070000 		.4byte	.LLST53
 6379 1ad4 3A       		.uleb128 0x3a
 6380 1ad5 0C000000 		.4byte	.LVL98
ARM GAS  /var/folders/m4/4md61f0s1_g0rzfghffqnxvr0000gn/T//ccHVf8ER.s 			page 113


 6381 1ad9 ED140000 		.4byte	0x14ed
 6382 1add ED1A0000 		.4byte	0x1aed
 6383 1ae1 35       		.uleb128 0x35
 6384 1ae2 01       		.uleb128 0x1
 6385 1ae3 51       		.byte	0x51
 6386 1ae4 01       		.uleb128 0x1
 6387 1ae5 4C       		.byte	0x4c
 6388 1ae6 35       		.uleb128 0x35
 6389 1ae7 01       		.uleb128 0x1
 6390 1ae8 50       		.byte	0x50
 6391 1ae9 02       		.uleb128 0x2
 6392 1aea 75       		.byte	0x75
 6393 1aeb 00       		.sleb128 0
 6394 1aec 00       		.byte	0
 6395 1aed 44       		.uleb128 0x44
 6396 1aee 22000000 		.4byte	.LVL101
 6397 1af2 5D140000 		.4byte	0x145d
 6398 1af6 35       		.uleb128 0x35
 6399 1af7 01       		.uleb128 0x1
 6400 1af8 51       		.byte	0x51
 6401 1af9 01       		.uleb128 0x1
 6402 1afa 4C       		.byte	0x4c
 6403 1afb 35       		.uleb128 0x35
 6404 1afc 01       		.uleb128 0x1
 6405 1afd 50       		.byte	0x50
 6406 1afe 03       		.uleb128 0x3
 6407 1aff F3       		.byte	0xf3
 6408 1b00 01       		.uleb128 0x1
 6409 1b01 50       		.byte	0x50
 6410 1b02 00       		.byte	0
 6411 1b03 00       		.byte	0
 6412 1b04 3D       		.uleb128 0x3d
 6413 1b05 030D0000 		.4byte	.LASF240
 6414 1b09 01       		.byte	0x1
 6415 1b0a D101     		.2byte	0x1d1
 6416 1b0c 00000000 		.4byte	.LFB296
 6417 1b10 1A000000 		.4byte	.LFE296-.LFB296
 6418 1b14 01       		.uleb128 0x1
 6419 1b15 9C       		.byte	0x9c
 6420 1b16 6A1B0000 		.4byte	0x1b6a
 6421 1b1a 3E       		.uleb128 0x3e
 6422 1b1b 55090000 		.4byte	.LASF191
 6423 1b1f 01       		.byte	0x1
 6424 1b20 D101     		.2byte	0x1d1
 6425 1b22 530F0000 		.4byte	0xf53
 6426 1b26 C6070000 		.4byte	.LLST54
 6427 1b2a 43       		.uleb128 0x43
 6428 1b2b 72656700 		.ascii	"reg\000"
 6429 1b2f 01       		.byte	0x1
 6430 1b30 D301     		.2byte	0x1d3
 6431 1b32 AD000000 		.4byte	0xad
 6432 1b36 FD070000 		.4byte	.LLST55
 6433 1b3a 3A       		.uleb128 0x3a
 6434 1b3b 0A000000 		.4byte	.LVL103
 6435 1b3f ED140000 		.4byte	0x14ed
 6436 1b43 531B0000 		.4byte	0x1b53
 6437 1b47 35       		.uleb128 0x35
ARM GAS  /var/folders/m4/4md61f0s1_g0rzfghffqnxvr0000gn/T//ccHVf8ER.s 			page 114


 6438 1b48 01       		.uleb128 0x1
 6439 1b49 51       		.byte	0x51
 6440 1b4a 01       		.uleb128 0x1
 6441 1b4b 4D       		.byte	0x4d
 6442 1b4c 35       		.uleb128 0x35
 6443 1b4d 01       		.uleb128 0x1
 6444 1b4e 50       		.byte	0x50
 6445 1b4f 02       		.uleb128 0x2
 6446 1b50 74       		.byte	0x74
 6447 1b51 00       		.sleb128 0
 6448 1b52 00       		.byte	0
 6449 1b53 44       		.uleb128 0x44
 6450 1b54 1A000000 		.4byte	.LVL106
 6451 1b58 5D140000 		.4byte	0x145d
 6452 1b5c 35       		.uleb128 0x35
 6453 1b5d 01       		.uleb128 0x1
 6454 1b5e 51       		.byte	0x51
 6455 1b5f 01       		.uleb128 0x1
 6456 1b60 4D       		.byte	0x4d
 6457 1b61 35       		.uleb128 0x35
 6458 1b62 01       		.uleb128 0x1
 6459 1b63 50       		.byte	0x50
 6460 1b64 03       		.uleb128 0x3
 6461 1b65 F3       		.byte	0xf3
 6462 1b66 01       		.uleb128 0x1
 6463 1b67 50       		.byte	0x50
 6464 1b68 00       		.byte	0
 6465 1b69 00       		.byte	0
 6466 1b6a 3D       		.uleb128 0x3d
 6467 1b6b F4080000 		.4byte	.LASF241
 6468 1b6f 01       		.byte	0x1
 6469 1b70 D801     		.2byte	0x1d8
 6470 1b72 00000000 		.4byte	.LFB297
 6471 1b76 22000000 		.4byte	.LFE297-.LFB297
 6472 1b7a 01       		.uleb128 0x1
 6473 1b7b 9C       		.byte	0x9c
 6474 1b7c E01B0000 		.4byte	0x1be0
 6475 1b80 3E       		.uleb128 0x3e
 6476 1b81 55090000 		.4byte	.LASF191
 6477 1b85 01       		.byte	0x1
 6478 1b86 D801     		.2byte	0x1d8
 6479 1b88 530F0000 		.4byte	0xf53
 6480 1b8c 15080000 		.4byte	.LLST56
 6481 1b90 3E       		.uleb128 0x3e
 6482 1b91 5A020000 		.4byte	.LASF239
 6483 1b95 01       		.byte	0x1
 6484 1b96 D801     		.2byte	0x1d8
 6485 1b98 AD000000 		.4byte	0xad
 6486 1b9c 4C080000 		.4byte	.LLST57
 6487 1ba0 43       		.uleb128 0x43
 6488 1ba1 72656700 		.ascii	"reg\000"
 6489 1ba5 01       		.byte	0x1
 6490 1ba6 DA01     		.2byte	0x1da
 6491 1ba8 AD000000 		.4byte	0xad
 6492 1bac 6D080000 		.4byte	.LLST58
 6493 1bb0 3A       		.uleb128 0x3a
 6494 1bb1 0C000000 		.4byte	.LVL109
ARM GAS  /var/folders/m4/4md61f0s1_g0rzfghffqnxvr0000gn/T//ccHVf8ER.s 			page 115


 6495 1bb5 ED140000 		.4byte	0x14ed
 6496 1bb9 C91B0000 		.4byte	0x1bc9
 6497 1bbd 35       		.uleb128 0x35
 6498 1bbe 01       		.uleb128 0x1
 6499 1bbf 51       		.byte	0x51
 6500 1bc0 01       		.uleb128 0x1
 6501 1bc1 4C       		.byte	0x4c
 6502 1bc2 35       		.uleb128 0x35
 6503 1bc3 01       		.uleb128 0x1
 6504 1bc4 50       		.byte	0x50
 6505 1bc5 02       		.uleb128 0x2
 6506 1bc6 75       		.byte	0x75
 6507 1bc7 00       		.sleb128 0
 6508 1bc8 00       		.byte	0
 6509 1bc9 44       		.uleb128 0x44
 6510 1bca 22000000 		.4byte	.LVL112
 6511 1bce 5D140000 		.4byte	0x145d
 6512 1bd2 35       		.uleb128 0x35
 6513 1bd3 01       		.uleb128 0x1
 6514 1bd4 51       		.byte	0x51
 6515 1bd5 01       		.uleb128 0x1
 6516 1bd6 4C       		.byte	0x4c
 6517 1bd7 35       		.uleb128 0x35
 6518 1bd8 01       		.uleb128 0x1
 6519 1bd9 50       		.byte	0x50
 6520 1bda 03       		.uleb128 0x3
 6521 1bdb F3       		.byte	0xf3
 6522 1bdc 01       		.uleb128 0x1
 6523 1bdd 50       		.byte	0x50
 6524 1bde 00       		.byte	0
 6525 1bdf 00       		.byte	0
 6526 1be0 36       		.uleb128 0x36
 6527 1be1 8B0F0000 		.4byte	0xf8b
 6528 1be5 00000000 		.4byte	.LFB298
 6529 1be9 0A000000 		.4byte	.LFE298-.LFB298
 6530 1bed 01       		.uleb128 0x1
 6531 1bee 9C       		.byte	0x9c
 6532 1bef 2B1C0000 		.4byte	0x1c2b
 6533 1bf3 37       		.uleb128 0x37
 6534 1bf4 980F0000 		.4byte	0xf98
 6535 1bf8 8B080000 		.4byte	.LLST59
 6536 1bfc 37       		.uleb128 0x37
 6537 1bfd A40F0000 		.4byte	0xfa4
 6538 1c01 AC080000 		.4byte	.LLST60
 6539 1c05 37       		.uleb128 0x37
 6540 1c06 B00F0000 		.4byte	0xfb0
 6541 1c0a CD080000 		.4byte	.LLST61
 6542 1c0e 37       		.uleb128 0x37
 6543 1c0f BC0F0000 		.4byte	0xfbc
 6544 1c13 EE080000 		.4byte	.LLST62
 6545 1c17 49       		.uleb128 0x49
 6546 1c18 C80F0000 		.4byte	0xfc8
 6547 1c1c 49       		.uleb128 0x49
 6548 1c1d D30F0000 		.4byte	0xfd3
 6549 1c21 48       		.uleb128 0x48
 6550 1c22 0A000000 		.4byte	.LVL114
 6551 1c26 C6120000 		.4byte	0x12c6
ARM GAS  /var/folders/m4/4md61f0s1_g0rzfghffqnxvr0000gn/T//ccHVf8ER.s 			page 116


 6552 1c2a 00       		.byte	0
 6553 1c2b 36       		.uleb128 0x36
 6554 1c2c E00F0000 		.4byte	0xfe0
 6555 1c30 00000000 		.4byte	.LFB299
 6556 1c34 0A000000 		.4byte	.LFE299-.LFB299
 6557 1c38 01       		.uleb128 0x1
 6558 1c39 9C       		.byte	0x9c
 6559 1c3a 681C0000 		.4byte	0x1c68
 6560 1c3e 37       		.uleb128 0x37
 6561 1c3f ED0F0000 		.4byte	0xfed
 6562 1c43 0F090000 		.4byte	.LLST63
 6563 1c47 37       		.uleb128 0x37
 6564 1c48 F90F0000 		.4byte	0xff9
 6565 1c4c 30090000 		.4byte	.LLST64
 6566 1c50 37       		.uleb128 0x37
 6567 1c51 05100000 		.4byte	0x1005
 6568 1c55 51090000 		.4byte	.LLST65
 6569 1c59 49       		.uleb128 0x49
 6570 1c5a 11100000 		.4byte	0x1011
 6571 1c5e 48       		.uleb128 0x48
 6572 1c5f 0A000000 		.4byte	.LVL116
 6573 1c63 59130000 		.4byte	0x1359
 6574 1c67 00       		.byte	0
 6575 1c68 3D       		.uleb128 0x3d
 6576 1c69 02010000 		.4byte	.LASF242
 6577 1c6d 01       		.byte	0x1
 6578 1c6e FC01     		.2byte	0x1fc
 6579 1c70 00000000 		.4byte	.LFB300
 6580 1c74 38000000 		.4byte	.LFE300-.LFB300
 6581 1c78 01       		.uleb128 0x1
 6582 1c79 9C       		.byte	0x9c
 6583 1c7a C81C0000 		.4byte	0x1cc8
 6584 1c7e 3E       		.uleb128 0x3e
 6585 1c7f 55090000 		.4byte	.LASF191
 6586 1c83 01       		.byte	0x1
 6587 1c84 FC01     		.2byte	0x1fc
 6588 1c86 530F0000 		.4byte	0xf53
 6589 1c8a 72090000 		.4byte	.LLST66
 6590 1c8e 40       		.uleb128 0x40
 6591 1c8f 6F7000   		.ascii	"op\000"
 6592 1c92 01       		.byte	0x1
 6593 1c93 FE01     		.2byte	0x1fe
 6594 1c95 DD140000 		.4byte	0x14dd
 6595 1c99 02       		.uleb128 0x2
 6596 1c9a 91       		.byte	0x91
 6597 1c9b 74       		.sleb128 -12
 6598 1c9c 39       		.uleb128 0x39
 6599 1c9d 18000000 		.4byte	.LVL119
 6600 1ca1 6F2E0000 		.4byte	0x2e6f
 6601 1ca5 3A       		.uleb128 0x3a
 6602 1ca6 26000000 		.4byte	.LVL120
 6603 1caa D72E0000 		.4byte	0x2ed7
 6604 1cae BE1C0000 		.4byte	0x1cbe
 6605 1cb2 35       		.uleb128 0x35
 6606 1cb3 01       		.uleb128 0x1
 6607 1cb4 52       		.byte	0x52
 6608 1cb5 02       		.uleb128 0x2
ARM GAS  /var/folders/m4/4md61f0s1_g0rzfghffqnxvr0000gn/T//ccHVf8ER.s 			page 117


 6609 1cb6 91       		.byte	0x91
 6610 1cb7 74       		.sleb128 -12
 6611 1cb8 35       		.uleb128 0x35
 6612 1cb9 01       		.uleb128 0x1
 6613 1cba 51       		.byte	0x51
 6614 1cbb 01       		.uleb128 0x1
 6615 1cbc 32       		.byte	0x32
 6616 1cbd 00       		.byte	0
 6617 1cbe 39       		.uleb128 0x39
 6618 1cbf 30000000 		.4byte	.LVL121
 6619 1cc3 C52E0000 		.4byte	0x2ec5
 6620 1cc7 00       		.byte	0
 6621 1cc8 3D       		.uleb128 0x3d
 6622 1cc9 D9030000 		.4byte	.LASF243
 6623 1ccd 01       		.byte	0x1
 6624 1cce B801     		.2byte	0x1b8
 6625 1cd0 00000000 		.4byte	.LFB294
 6626 1cd4 40000000 		.4byte	.LFE294-.LFB294
 6627 1cd8 01       		.uleb128 0x1
 6628 1cd9 9C       		.byte	0x9c
 6629 1cda 741D0000 		.4byte	0x1d74
 6630 1cde 3E       		.uleb128 0x3e
 6631 1cdf 55090000 		.4byte	.LASF191
 6632 1ce3 01       		.byte	0x1
 6633 1ce4 B801     		.2byte	0x1b8
 6634 1ce6 530F0000 		.4byte	0xf53
 6635 1cea 9E090000 		.4byte	.LLST67
 6636 1cee 43       		.uleb128 0x43
 6637 1cef 72656700 		.ascii	"reg\000"
 6638 1cf3 01       		.byte	0x1
 6639 1cf4 BA01     		.2byte	0x1ba
 6640 1cf6 AD000000 		.4byte	0xad
 6641 1cfa D5090000 		.4byte	.LLST68
 6642 1cfe 3A       		.uleb128 0x3a
 6643 1cff 0A000000 		.4byte	.LVL124
 6644 1d03 ED140000 		.4byte	0x14ed
 6645 1d07 171D0000 		.4byte	0x1d17
 6646 1d0b 35       		.uleb128 0x35
 6647 1d0c 01       		.uleb128 0x1
 6648 1d0d 51       		.byte	0x51
 6649 1d0e 01       		.uleb128 0x1
 6650 1d0f 4D       		.byte	0x4d
 6651 1d10 35       		.uleb128 0x35
 6652 1d11 01       		.uleb128 0x1
 6653 1d12 50       		.byte	0x50
 6654 1d13 02       		.uleb128 0x2
 6655 1d14 74       		.byte	0x74
 6656 1d15 00       		.sleb128 0
 6657 1d16 00       		.byte	0
 6658 1d17 3A       		.uleb128 0x3a
 6659 1d18 1E000000 		.4byte	.LVL127
 6660 1d1c 5D140000 		.4byte	0x145d
 6661 1d20 301D0000 		.4byte	0x1d30
 6662 1d24 35       		.uleb128 0x35
 6663 1d25 01       		.uleb128 0x1
 6664 1d26 51       		.byte	0x51
 6665 1d27 01       		.uleb128 0x1
ARM GAS  /var/folders/m4/4md61f0s1_g0rzfghffqnxvr0000gn/T//ccHVf8ER.s 			page 118


 6666 1d28 4D       		.byte	0x4d
 6667 1d29 35       		.uleb128 0x35
 6668 1d2a 01       		.uleb128 0x1
 6669 1d2b 50       		.byte	0x50
 6670 1d2c 02       		.uleb128 0x2
 6671 1d2d 74       		.byte	0x74
 6672 1d2e 00       		.sleb128 0
 6673 1d2f 00       		.byte	0
 6674 1d30 3A       		.uleb128 0x3a
 6675 1d31 26000000 		.4byte	.LVL128
 6676 1d35 ED140000 		.4byte	0x14ed
 6677 1d39 491D0000 		.4byte	0x1d49
 6678 1d3d 35       		.uleb128 0x35
 6679 1d3e 01       		.uleb128 0x1
 6680 1d3f 51       		.byte	0x51
 6681 1d40 01       		.uleb128 0x1
 6682 1d41 4D       		.byte	0x4d
 6683 1d42 35       		.uleb128 0x35
 6684 1d43 01       		.uleb128 0x1
 6685 1d44 50       		.byte	0x50
 6686 1d45 02       		.uleb128 0x2
 6687 1d46 74       		.byte	0x74
 6688 1d47 00       		.sleb128 0
 6689 1d48 00       		.byte	0
 6690 1d49 3A       		.uleb128 0x3a
 6691 1d4a 32000000 		.4byte	.LVL131
 6692 1d4e 681C0000 		.4byte	0x1c68
 6693 1d52 5D1D0000 		.4byte	0x1d5d
 6694 1d56 35       		.uleb128 0x35
 6695 1d57 01       		.uleb128 0x1
 6696 1d58 50       		.byte	0x50
 6697 1d59 02       		.uleb128 0x2
 6698 1d5a 74       		.byte	0x74
 6699 1d5b 00       		.sleb128 0
 6700 1d5c 00       		.byte	0
 6701 1d5d 44       		.uleb128 0x44
 6702 1d5e 40000000 		.4byte	.LVL133
 6703 1d62 5D140000 		.4byte	0x145d
 6704 1d66 35       		.uleb128 0x35
 6705 1d67 01       		.uleb128 0x1
 6706 1d68 51       		.byte	0x51
 6707 1d69 01       		.uleb128 0x1
 6708 1d6a 4D       		.byte	0x4d
 6709 1d6b 35       		.uleb128 0x35
 6710 1d6c 01       		.uleb128 0x1
 6711 1d6d 50       		.byte	0x50
 6712 1d6e 03       		.uleb128 0x3
 6713 1d6f F3       		.byte	0xf3
 6714 1d70 01       		.uleb128 0x1
 6715 1d71 50       		.byte	0x50
 6716 1d72 00       		.byte	0
 6717 1d73 00       		.byte	0
 6718 1d74 3D       		.uleb128 0x3d
 6719 1d75 74030000 		.4byte	.LASF244
 6720 1d79 01       		.byte	0x1
 6721 1d7a 0502     		.2byte	0x205
 6722 1d7c 00000000 		.4byte	.LFB301
ARM GAS  /var/folders/m4/4md61f0s1_g0rzfghffqnxvr0000gn/T//ccHVf8ER.s 			page 119


 6723 1d80 34000000 		.4byte	.LFE301-.LFB301
 6724 1d84 01       		.uleb128 0x1
 6725 1d85 9C       		.byte	0x9c
 6726 1d86 D41D0000 		.4byte	0x1dd4
 6727 1d8a 3E       		.uleb128 0x3e
 6728 1d8b 55090000 		.4byte	.LASF191
 6729 1d8f 01       		.byte	0x1
 6730 1d90 0502     		.2byte	0x205
 6731 1d92 530F0000 		.4byte	0xf53
 6732 1d96 020A0000 		.4byte	.LLST69
 6733 1d9a 40       		.uleb128 0x40
 6734 1d9b 6F7000   		.ascii	"op\000"
 6735 1d9e 01       		.byte	0x1
 6736 1d9f 0702     		.2byte	0x207
 6737 1da1 AD000000 		.4byte	0xad
 6738 1da5 02       		.uleb128 0x2
 6739 1da6 91       		.byte	0x91
 6740 1da7 6F       		.sleb128 -17
 6741 1da8 39       		.uleb128 0x39
 6742 1da9 18000000 		.4byte	.LVL136
 6743 1dad 6F2E0000 		.4byte	0x2e6f
 6744 1db1 3A       		.uleb128 0x3a
 6745 1db2 26000000 		.4byte	.LVL137
 6746 1db6 D72E0000 		.4byte	0x2ed7
 6747 1dba CA1D0000 		.4byte	0x1dca
 6748 1dbe 35       		.uleb128 0x35
 6749 1dbf 01       		.uleb128 0x1
 6750 1dc0 52       		.byte	0x52
 6751 1dc1 02       		.uleb128 0x2
 6752 1dc2 75       		.byte	0x75
 6753 1dc3 00       		.sleb128 0
 6754 1dc4 35       		.uleb128 0x35
 6755 1dc5 01       		.uleb128 0x1
 6756 1dc6 51       		.byte	0x51
 6757 1dc7 01       		.uleb128 0x1
 6758 1dc8 31       		.byte	0x31
 6759 1dc9 00       		.byte	0
 6760 1dca 39       		.uleb128 0x39
 6761 1dcb 30000000 		.4byte	.LVL138
 6762 1dcf C52E0000 		.4byte	0x2ec5
 6763 1dd3 00       		.byte	0
 6764 1dd4 3D       		.uleb128 0x3d
 6765 1dd5 6F040000 		.4byte	.LASF245
 6766 1dd9 01       		.byte	0x1
 6767 1dda 0E02     		.2byte	0x20e
 6768 1ddc 00000000 		.4byte	.LFB302
 6769 1de0 34000000 		.4byte	.LFE302-.LFB302
 6770 1de4 01       		.uleb128 0x1
 6771 1de5 9C       		.byte	0x9c
 6772 1de6 341E0000 		.4byte	0x1e34
 6773 1dea 3E       		.uleb128 0x3e
 6774 1deb 55090000 		.4byte	.LASF191
 6775 1def 01       		.byte	0x1
 6776 1df0 0E02     		.2byte	0x20e
 6777 1df2 530F0000 		.4byte	0xf53
 6778 1df6 200A0000 		.4byte	.LLST70
 6779 1dfa 40       		.uleb128 0x40
ARM GAS  /var/folders/m4/4md61f0s1_g0rzfghffqnxvr0000gn/T//ccHVf8ER.s 			page 120


 6780 1dfb 6F7000   		.ascii	"op\000"
 6781 1dfe 01       		.byte	0x1
 6782 1dff 1002     		.2byte	0x210
 6783 1e01 AD000000 		.4byte	0xad
 6784 1e05 02       		.uleb128 0x2
 6785 1e06 91       		.byte	0x91
 6786 1e07 6F       		.sleb128 -17
 6787 1e08 39       		.uleb128 0x39
 6788 1e09 18000000 		.4byte	.LVL141
 6789 1e0d 6F2E0000 		.4byte	0x2e6f
 6790 1e11 3A       		.uleb128 0x3a
 6791 1e12 26000000 		.4byte	.LVL142
 6792 1e16 D72E0000 		.4byte	0x2ed7
 6793 1e1a 2A1E0000 		.4byte	0x1e2a
 6794 1e1e 35       		.uleb128 0x35
 6795 1e1f 01       		.uleb128 0x1
 6796 1e20 52       		.byte	0x52
 6797 1e21 02       		.uleb128 0x2
 6798 1e22 75       		.byte	0x75
 6799 1e23 00       		.sleb128 0
 6800 1e24 35       		.uleb128 0x35
 6801 1e25 01       		.uleb128 0x1
 6802 1e26 51       		.byte	0x51
 6803 1e27 01       		.uleb128 0x1
 6804 1e28 31       		.byte	0x31
 6805 1e29 00       		.byte	0
 6806 1e2a 39       		.uleb128 0x39
 6807 1e2b 30000000 		.4byte	.LVL143
 6808 1e2f C52E0000 		.4byte	0x2ec5
 6809 1e33 00       		.byte	0
 6810 1e34 4A       		.uleb128 0x4a
 6811 1e35 9B070000 		.4byte	.LASF246
 6812 1e39 01       		.byte	0x1
 6813 1e3a 3A       		.byte	0x3a
 6814 1e3b 00000000 		.4byte	.LFB269
 6815 1e3f F0000000 		.4byte	.LFE269-.LFB269
 6816 1e43 01       		.uleb128 0x1
 6817 1e44 9C       		.byte	0x9c
 6818 1e45 D6200000 		.4byte	0x20d6
 6819 1e49 4B       		.uleb128 0x4b
 6820 1e4a 1D100000 		.4byte	0x101d
 6821 1e4e 40000000 		.4byte	.LBB152
 6822 1e52 18000000 		.4byte	.Ldebug_ranges0+0x18
 6823 1e56 01       		.byte	0x1
 6824 1e57 44       		.byte	0x44
 6825 1e58 B71E0000 		.4byte	0x1eb7
 6826 1e5c 30       		.uleb128 0x30
 6827 1e5d 2A100000 		.4byte	0x102a
 6828 1e61 06       		.uleb128 0x6
 6829 1e62 03       		.byte	0x3
 6830 1e63 00000000 		.4byte	nrf24l01
 6831 1e67 9F       		.byte	0x9f
 6832 1e68 3B       		.uleb128 0x3b
 6833 1e69 40000000 		.4byte	.LBB154
 6834 1e6d 20000000 		.4byte	.LBE154-.LBB154
 6835 1e71 991E0000 		.4byte	0x1e99
 6836 1e75 3C       		.uleb128 0x3c
ARM GAS  /var/folders/m4/4md61f0s1_g0rzfghffqnxvr0000gn/T//ccHVf8ER.s 			page 121


 6837 1e76 37100000 		.4byte	0x1037
 6838 1e7a 3E0A0000 		.4byte	.LLST71
 6839 1e7e 32       		.uleb128 0x32
 6840 1e7f 030F0000 		.4byte	0xf03
 6841 1e83 56000000 		.4byte	.LBB155
 6842 1e87 04000000 		.4byte	.LBE155-.LBB155
 6843 1e8b 01       		.byte	0x1
 6844 1e8c 3D01     		.2byte	0x13d
 6845 1e8e 37       		.uleb128 0x37
 6846 1e8f 0F0F0000 		.4byte	0xf0f
 6847 1e93 520A0000 		.4byte	.LLST72
 6848 1e97 00       		.byte	0
 6849 1e98 00       		.byte	0
 6850 1e99 4C       		.uleb128 0x4c
 6851 1e9a 030F0000 		.4byte	0xf03
 6852 1e9e 60000000 		.4byte	.LBB157
 6853 1ea2 30000000 		.4byte	.Ldebug_ranges0+0x30
 6854 1ea6 01       		.byte	0x1
 6855 1ea7 4001     		.2byte	0x140
 6856 1ea9 30       		.uleb128 0x30
 6857 1eaa 0F0F0000 		.4byte	0xf0f
 6858 1eae 06       		.uleb128 0x6
 6859 1eaf 03       		.byte	0x3
 6860 1eb0 20010000 		.4byte	nrf24l01+288
 6861 1eb4 9F       		.byte	0x9f
 6862 1eb5 00       		.byte	0
 6863 1eb6 00       		.byte	0
 6864 1eb7 4B       		.uleb128 0x4b
 6865 1eb8 43100000 		.4byte	0x1043
 6866 1ebc 64000000 		.4byte	.LBB162
 6867 1ec0 48000000 		.4byte	.Ldebug_ranges0+0x48
 6868 1ec4 01       		.byte	0x1
 6869 1ec5 45       		.byte	0x45
 6870 1ec6 E31E0000 		.4byte	0x1ee3
 6871 1eca 30       		.uleb128 0x30
 6872 1ecb 5C100000 		.4byte	0x105c
 6873 1ecf 06       		.uleb128 0x6
 6874 1ed0 03       		.byte	0x3
 6875 1ed1 00000000 		.4byte	nrf24l01Config
 6876 1ed5 9F       		.byte	0x9f
 6877 1ed6 30       		.uleb128 0x30
 6878 1ed7 50100000 		.4byte	0x1050
 6879 1edb 06       		.uleb128 0x6
 6880 1edc 03       		.byte	0x3
 6881 1edd 00000000 		.4byte	nrf24l01
 6882 1ee1 9F       		.byte	0x9f
 6883 1ee2 00       		.byte	0
 6884 1ee3 4D       		.uleb128 0x4d
 6885 1ee4 590F0000 		.4byte	0xf59
 6886 1ee8 96000000 		.4byte	.LBB167
 6887 1eec 0A000000 		.4byte	.LBE167-.LBB167
 6888 1ef0 01       		.byte	0x1
 6889 1ef1 4D       		.byte	0x4d
 6890 1ef2 4C1F0000 		.4byte	0x1f4c
 6891 1ef6 33       		.uleb128 0x33
 6892 1ef7 7E0F0000 		.4byte	0xf7e
 6893 1efb 20       		.byte	0x20
ARM GAS  /var/folders/m4/4md61f0s1_g0rzfghffqnxvr0000gn/T//ccHVf8ER.s 			page 122


 6894 1efc 33       		.uleb128 0x33
 6895 1efd 720F0000 		.4byte	0xf72
 6896 1f01 00       		.byte	0
 6897 1f02 30       		.uleb128 0x30
 6898 1f03 660F0000 		.4byte	0xf66
 6899 1f07 06       		.uleb128 0x6
 6900 1f08 03       		.byte	0x3
 6901 1f09 00000000 		.4byte	nrf24l01
 6902 1f0d 9F       		.byte	0x9f
 6903 1f0e 46       		.uleb128 0x46
 6904 1f0f 96000000 		.4byte	.LBB168
 6905 1f13 0A000000 		.4byte	.LBE168-.LBB168
 6906 1f17 33       		.uleb128 0x33
 6907 1f18 7E0F0000 		.4byte	0xf7e
 6908 1f1c 20       		.byte	0x20
 6909 1f1d 33       		.uleb128 0x33
 6910 1f1e 720F0000 		.4byte	0xf72
 6911 1f22 00       		.byte	0
 6912 1f23 30       		.uleb128 0x30
 6913 1f24 660F0000 		.4byte	0xf66
 6914 1f28 06       		.uleb128 0x6
 6915 1f29 03       		.byte	0x3
 6916 1f2a 00000000 		.4byte	nrf24l01
 6917 1f2e 9F       		.byte	0x9f
 6918 1f2f 34       		.uleb128 0x34
 6919 1f30 A0000000 		.4byte	.LVL160
 6920 1f34 5D140000 		.4byte	0x145d
 6921 1f38 35       		.uleb128 0x35
 6922 1f39 01       		.uleb128 0x1
 6923 1f3a 52       		.byte	0x52
 6924 1f3b 02       		.uleb128 0x2
 6925 1f3c 08       		.byte	0x8
 6926 1f3d 20       		.byte	0x20
 6927 1f3e 35       		.uleb128 0x35
 6928 1f3f 01       		.uleb128 0x1
 6929 1f40 51       		.byte	0x51
 6930 1f41 01       		.uleb128 0x1
 6931 1f42 41       		.byte	0x41
 6932 1f43 35       		.uleb128 0x35
 6933 1f44 01       		.uleb128 0x1
 6934 1f45 50       		.byte	0x50
 6935 1f46 02       		.uleb128 0x2
 6936 1f47 74       		.byte	0x74
 6937 1f48 00       		.sleb128 0
 6938 1f49 00       		.byte	0
 6939 1f4a 00       		.byte	0
 6940 1f4b 00       		.byte	0
 6941 1f4c 4D       		.uleb128 0x4d
 6942 1f4d 69100000 		.4byte	0x1069
 6943 1f51 AC000000 		.4byte	.LBB170
 6944 1f55 0A000000 		.4byte	.LBE170-.LBB170
 6945 1f59 01       		.byte	0x1
 6946 1f5a 51       		.byte	0x51
 6947 1f5b 8D1F0000 		.4byte	0x1f8d
 6948 1f5f 33       		.uleb128 0x33
 6949 1f60 82100000 		.4byte	0x1082
 6950 1f64 70       		.byte	0x70
ARM GAS  /var/folders/m4/4md61f0s1_g0rzfghffqnxvr0000gn/T//ccHVf8ER.s 			page 123


 6951 1f65 30       		.uleb128 0x30
 6952 1f66 76100000 		.4byte	0x1076
 6953 1f6a 06       		.uleb128 0x6
 6954 1f6b 03       		.byte	0x3
 6955 1f6c 00000000 		.4byte	nrf24l01
 6956 1f70 9F       		.byte	0x9f
 6957 1f71 34       		.uleb128 0x34
 6958 1f72 B6000000 		.4byte	.LVL163
 6959 1f76 5D140000 		.4byte	0x145d
 6960 1f7a 35       		.uleb128 0x35
 6961 1f7b 01       		.uleb128 0x1
 6962 1f7c 52       		.byte	0x52
 6963 1f7d 02       		.uleb128 0x2
 6964 1f7e 08       		.byte	0x8
 6965 1f7f 70       		.byte	0x70
 6966 1f80 35       		.uleb128 0x35
 6967 1f81 01       		.uleb128 0x1
 6968 1f82 51       		.byte	0x51
 6969 1f83 01       		.uleb128 0x1
 6970 1f84 37       		.byte	0x37
 6971 1f85 35       		.uleb128 0x35
 6972 1f86 01       		.uleb128 0x1
 6973 1f87 50       		.byte	0x50
 6974 1f88 02       		.uleb128 0x2
 6975 1f89 74       		.byte	0x74
 6976 1f8a 00       		.sleb128 0
 6977 1f8b 00       		.byte	0
 6978 1f8c 00       		.byte	0
 6979 1f8d 3A       		.uleb128 0x3a
 6980 1f8e 10000000 		.4byte	.LVL144
 6981 1f92 F32E0000 		.4byte	0x2ef3
 6982 1f96 AB1F0000 		.4byte	0x1fab
 6983 1f9a 35       		.uleb128 0x35
 6984 1f9b 01       		.uleb128 0x1
 6985 1f9c 52       		.byte	0x52
 6986 1f9d 01       		.uleb128 0x1
 6987 1f9e 31       		.byte	0x31
 6988 1f9f 35       		.uleb128 0x35
 6989 1fa0 01       		.uleb128 0x1
 6990 1fa1 51       		.byte	0x51
 6991 1fa2 01       		.uleb128 0x1
 6992 1fa3 40       		.byte	0x40
 6993 1fa4 35       		.uleb128 0x35
 6994 1fa5 01       		.uleb128 0x1
 6995 1fa6 50       		.byte	0x50
 6996 1fa7 02       		.uleb128 0x2
 6997 1fa8 75       		.byte	0x75
 6998 1fa9 00       		.sleb128 0
 6999 1faa 00       		.byte	0
 7000 1fab 3A       		.uleb128 0x3a
 7001 1fac 1E000000 		.4byte	.LVL145
 7002 1fb0 F32E0000 		.4byte	0x2ef3
 7003 1fb4 C91F0000 		.4byte	0x1fc9
 7004 1fb8 35       		.uleb128 0x35
 7005 1fb9 01       		.uleb128 0x1
 7006 1fba 52       		.byte	0x52
 7007 1fbb 01       		.uleb128 0x1
ARM GAS  /var/folders/m4/4md61f0s1_g0rzfghffqnxvr0000gn/T//ccHVf8ER.s 			page 124


 7008 1fbc 31       		.byte	0x31
 7009 1fbd 35       		.uleb128 0x35
 7010 1fbe 01       		.uleb128 0x1
 7011 1fbf 51       		.byte	0x51
 7012 1fc0 01       		.uleb128 0x1
 7013 1fc1 32       		.byte	0x32
 7014 1fc2 35       		.uleb128 0x35
 7015 1fc3 01       		.uleb128 0x1
 7016 1fc4 50       		.byte	0x50
 7017 1fc5 02       		.uleb128 0x2
 7018 1fc6 74       		.byte	0x74
 7019 1fc7 00       		.sleb128 0
 7020 1fc8 00       		.byte	0
 7021 1fc9 3A       		.uleb128 0x3a
 7022 1fca 2E000000 		.4byte	.LVL146
 7023 1fce F32E0000 		.4byte	0x2ef3
 7024 1fd2 EC1F0000 		.4byte	0x1fec
 7025 1fd6 35       		.uleb128 0x35
 7026 1fd7 01       		.uleb128 0x1
 7027 1fd8 52       		.byte	0x52
 7028 1fd9 02       		.uleb128 0x2
 7029 1fda 08       		.byte	0x8
 7030 1fdb 20       		.byte	0x20
 7031 1fdc 35       		.uleb128 0x35
 7032 1fdd 01       		.uleb128 0x1
 7033 1fde 51       		.byte	0x51
 7034 1fdf 02       		.uleb128 0x2
 7035 1fe0 08       		.byte	0x8
 7036 1fe1 20       		.byte	0x20
 7037 1fe2 35       		.uleb128 0x35
 7038 1fe3 01       		.uleb128 0x1
 7039 1fe4 50       		.byte	0x50
 7040 1fe5 05       		.uleb128 0x5
 7041 1fe6 0C       		.byte	0xc
 7042 1fe7 00080240 		.4byte	0x40020800
 7043 1feb 00       		.byte	0
 7044 1fec 3A       		.uleb128 0x3a
 7045 1fed 36000000 		.4byte	.LVL147
 7046 1ff1 0F2F0000 		.4byte	0x2f0f
 7047 1ff5 03200000 		.4byte	0x2003
 7048 1ff9 35       		.uleb128 0x35
 7049 1ffa 01       		.uleb128 0x1
 7050 1ffb 51       		.byte	0x51
 7051 1ffc 05       		.uleb128 0x5
 7052 1ffd 03       		.byte	0x3
 7053 1ffe 00000000 		.4byte	.LANCHOR3
 7054 2002 00       		.byte	0
 7055 2003 3A       		.uleb128 0x3a
 7056 2004 3E000000 		.4byte	.LVL148
 7057 2008 262F0000 		.4byte	0x2f26
 7058 200c 1A200000 		.4byte	0x201a
 7059 2010 35       		.uleb128 0x35
 7060 2011 01       		.uleb128 0x1
 7061 2012 51       		.byte	0x51
 7062 2013 05       		.uleb128 0x5
 7063 2014 03       		.byte	0x3
 7064 2015 00000000 		.4byte	.LANCHOR4
ARM GAS  /var/folders/m4/4md61f0s1_g0rzfghffqnxvr0000gn/T//ccHVf8ER.s 			page 125


 7065 2019 00       		.byte	0
 7066 201a 3A       		.uleb128 0x3a
 7067 201b 76000000 		.4byte	.LVL155
 7068 201f 3C2F0000 		.4byte	0x2f3c
 7069 2023 2D200000 		.4byte	0x202d
 7070 2027 35       		.uleb128 0x35
 7071 2028 01       		.uleb128 0x1
 7072 2029 51       		.byte	0x51
 7073 202a 01       		.uleb128 0x1
 7074 202b 35       		.byte	0x35
 7075 202c 00       		.byte	0
 7076 202d 3A       		.uleb128 0x3a
 7077 202e 7C000000 		.4byte	.LVL156
 7078 2032 C81C0000 		.4byte	0x1cc8
 7079 2036 41200000 		.4byte	0x2041
 7080 203a 35       		.uleb128 0x35
 7081 203b 01       		.uleb128 0x1
 7082 203c 50       		.byte	0x50
 7083 203d 02       		.uleb128 0x2
 7084 203e 74       		.byte	0x74
 7085 203f 00       		.sleb128 0
 7086 2040 00       		.byte	0
 7087 2041 3A       		.uleb128 0x3a
 7088 2042 84000000 		.4byte	.LVL157
 7089 2046 8E1A0000 		.4byte	0x1a8e
 7090 204a 5B200000 		.4byte	0x205b
 7091 204e 35       		.uleb128 0x35
 7092 204f 01       		.uleb128 0x1
 7093 2050 51       		.byte	0x51
 7094 2051 02       		.uleb128 0x2
 7095 2052 08       		.byte	0x8
 7096 2053 3F       		.byte	0x3f
 7097 2054 35       		.uleb128 0x35
 7098 2055 01       		.uleb128 0x1
 7099 2056 50       		.byte	0x50
 7100 2057 02       		.uleb128 0x2
 7101 2058 74       		.byte	0x74
 7102 2059 00       		.sleb128 0
 7103 205a 00       		.byte	0
 7104 205b 3A       		.uleb128 0x3a
 7105 205c 8C000000 		.4byte	.LVL158
 7106 2060 8F190000 		.4byte	0x198f
 7107 2064 78200000 		.4byte	0x2078
 7108 2068 35       		.uleb128 0x35
 7109 2069 01       		.uleb128 0x1
 7110 206a 51       		.byte	0x51
 7111 206b 05       		.uleb128 0x5
 7112 206c 03       		.byte	0x3
 7113 206d 00000000 		.4byte	.LANCHOR6
 7114 2071 35       		.uleb128 0x35
 7115 2072 01       		.uleb128 0x1
 7116 2073 50       		.byte	0x50
 7117 2074 02       		.uleb128 0x2
 7118 2075 74       		.byte	0x74
 7119 2076 00       		.sleb128 0
 7120 2077 00       		.byte	0
 7121 2078 3A       		.uleb128 0x3a
ARM GAS  /var/folders/m4/4md61f0s1_g0rzfghffqnxvr0000gn/T//ccHVf8ER.s 			page 126


 7122 2079 96000000 		.4byte	.LVL159
 7123 207d 210F0000 		.4byte	0xf21
 7124 2081 9A200000 		.4byte	0x209a
 7125 2085 35       		.uleb128 0x35
 7126 2086 01       		.uleb128 0x1
 7127 2087 52       		.byte	0x52
 7128 2088 05       		.uleb128 0x5
 7129 2089 03       		.byte	0x3
 7130 208a 00000000 		.4byte	.LANCHOR6
 7131 208e 35       		.uleb128 0x35
 7132 208f 01       		.uleb128 0x1
 7133 2090 51       		.byte	0x51
 7134 2091 01       		.uleb128 0x1
 7135 2092 30       		.byte	0x30
 7136 2093 35       		.uleb128 0x35
 7137 2094 01       		.uleb128 0x1
 7138 2095 50       		.byte	0x50
 7139 2096 02       		.uleb128 0x2
 7140 2097 74       		.byte	0x74
 7141 2098 00       		.sleb128 0
 7142 2099 00       		.byte	0
 7143 209a 3A       		.uleb128 0x3a
 7144 209b A6000000 		.4byte	.LVL161
 7145 209f 741D0000 		.4byte	0x1d74
 7146 20a3 AE200000 		.4byte	0x20ae
 7147 20a7 35       		.uleb128 0x35
 7148 20a8 01       		.uleb128 0x1
 7149 20a9 50       		.byte	0x50
 7150 20aa 02       		.uleb128 0x2
 7151 20ab 74       		.byte	0x74
 7152 20ac 00       		.sleb128 0
 7153 20ad 00       		.byte	0
 7154 20ae 3A       		.uleb128 0x3a
 7155 20af AC000000 		.4byte	.LVL162
 7156 20b3 D41D0000 		.4byte	0x1dd4
 7157 20b7 C2200000 		.4byte	0x20c2
 7158 20bb 35       		.uleb128 0x35
 7159 20bc 01       		.uleb128 0x1
 7160 20bd 50       		.byte	0x50
 7161 20be 02       		.uleb128 0x2
 7162 20bf 74       		.byte	0x74
 7163 20c0 00       		.sleb128 0
 7164 20c1 00       		.byte	0
 7165 20c2 44       		.uleb128 0x44
 7166 20c3 C0000000 		.4byte	.LVL164
 7167 20c7 21170000 		.4byte	0x1721
 7168 20cb 35       		.uleb128 0x35
 7169 20cc 01       		.uleb128 0x1
 7170 20cd 50       		.byte	0x50
 7171 20ce 05       		.uleb128 0x5
 7172 20cf 03       		.byte	0x3
 7173 20d0 00000000 		.4byte	.LANCHOR0
 7174 20d4 00       		.byte	0
 7175 20d5 00       		.byte	0
 7176 20d6 41       		.uleb128 0x41
 7177 20d7 320B0000 		.4byte	.LASF247
 7178 20db 01       		.byte	0x1
ARM GAS  /var/folders/m4/4md61f0s1_g0rzfghffqnxvr0000gn/T//ccHVf8ER.s 			page 127


 7179 20dc 1702     		.2byte	0x217
 7180 20de AD000000 		.4byte	0xad
 7181 20e2 00000000 		.4byte	.LFB303
 7182 20e6 46000000 		.4byte	.LFE303-.LFB303
 7183 20ea 01       		.uleb128 0x1
 7184 20eb 9C       		.byte	0x9c
 7185 20ec 4F210000 		.4byte	0x214f
 7186 20f0 3E       		.uleb128 0x3e
 7187 20f1 55090000 		.4byte	.LASF191
 7188 20f5 01       		.byte	0x1
 7189 20f6 1702     		.2byte	0x217
 7190 20f8 530F0000 		.4byte	0xf53
 7191 20fc 720A0000 		.4byte	.LLST73
 7192 2100 40       		.uleb128 0x40
 7193 2101 6F7000   		.ascii	"op\000"
 7194 2104 01       		.byte	0x1
 7195 2105 1902     		.2byte	0x219
 7196 2107 DD140000 		.4byte	0x14dd
 7197 210b 02       		.uleb128 0x2
 7198 210c 91       		.byte	0x91
 7199 210d 70       		.sleb128 -16
 7200 210e 42       		.uleb128 0x42
 7201 210f 6B0D0000 		.4byte	.LASF210
 7202 2113 01       		.byte	0x1
 7203 2114 1A02     		.2byte	0x21a
 7204 2116 DD140000 		.4byte	0x14dd
 7205 211a 02       		.uleb128 0x2
 7206 211b 91       		.byte	0x91
 7207 211c 74       		.sleb128 -12
 7208 211d 39       		.uleb128 0x39
 7209 211e 24000000 		.4byte	.LVL167
 7210 2122 6F2E0000 		.4byte	0x2e6f
 7211 2126 3A       		.uleb128 0x3a
 7212 2127 34000000 		.4byte	.LVL168
 7213 212b 812E0000 		.4byte	0x2e81
 7214 212f 45210000 		.4byte	0x2145
 7215 2133 35       		.uleb128 0x35
 7216 2134 01       		.uleb128 0x1
 7217 2135 53       		.byte	0x53
 7218 2136 02       		.uleb128 0x2
 7219 2137 91       		.byte	0x91
 7220 2138 74       		.sleb128 -12
 7221 2139 35       		.uleb128 0x35
 7222 213a 01       		.uleb128 0x1
 7223 213b 52       		.byte	0x52
 7224 213c 02       		.uleb128 0x2
 7225 213d 7D       		.byte	0x7d
 7226 213e 00       		.sleb128 0
 7227 213f 35       		.uleb128 0x35
 7228 2140 01       		.uleb128 0x1
 7229 2141 51       		.byte	0x51
 7230 2142 01       		.uleb128 0x1
 7231 2143 32       		.byte	0x32
 7232 2144 00       		.byte	0
 7233 2145 39       		.uleb128 0x39
 7234 2146 3E000000 		.4byte	.LVL169
 7235 214a C52E0000 		.4byte	0x2ec5
ARM GAS  /var/folders/m4/4md61f0s1_g0rzfghffqnxvr0000gn/T//ccHVf8ER.s 			page 128


 7236 214e 00       		.byte	0
 7237 214f 3D       		.uleb128 0x3d
 7238 2150 7B070000 		.4byte	.LASF248
 7239 2154 01       		.byte	0x1
 7240 2155 2302     		.2byte	0x223
 7241 2157 00000000 		.4byte	.LFB304
 7242 215b 3A000000 		.4byte	.LFE304-.LFB304
 7243 215f 01       		.uleb128 0x1
 7244 2160 9C       		.byte	0x9c
 7245 2161 B4210000 		.4byte	0x21b4
 7246 2165 3E       		.uleb128 0x3e
 7247 2166 55090000 		.4byte	.LASF191
 7248 216a 01       		.byte	0x1
 7249 216b 2302     		.2byte	0x223
 7250 216d 530F0000 		.4byte	0xf53
 7251 2171 900A0000 		.4byte	.LLST74
 7252 2175 43       		.uleb128 0x43
 7253 2176 72656700 		.ascii	"reg\000"
 7254 217a 01       		.byte	0x1
 7255 217b 2702     		.2byte	0x227
 7256 217d AD000000 		.4byte	0xad
 7257 2181 AE0A0000 		.4byte	.LLST75
 7258 2185 3A       		.uleb128 0x3a
 7259 2186 1C000000 		.4byte	.LVL171
 7260 218a ED140000 		.4byte	0x14ed
 7261 218e 9E210000 		.4byte	0x219e
 7262 2192 35       		.uleb128 0x35
 7263 2193 01       		.uleb128 0x1
 7264 2194 51       		.byte	0x51
 7265 2195 01       		.uleb128 0x1
 7266 2196 30       		.byte	0x30
 7267 2197 35       		.uleb128 0x35
 7268 2198 01       		.uleb128 0x1
 7269 2199 50       		.byte	0x50
 7270 219a 02       		.uleb128 0x2
 7271 219b 75       		.byte	0x75
 7272 219c 00       		.sleb128 0
 7273 219d 00       		.byte	0
 7274 219e 34       		.uleb128 0x34
 7275 219f 2A000000 		.4byte	.LVL173
 7276 21a3 5D140000 		.4byte	0x145d
 7277 21a7 35       		.uleb128 0x35
 7278 21a8 01       		.uleb128 0x1
 7279 21a9 51       		.byte	0x51
 7280 21aa 01       		.uleb128 0x1
 7281 21ab 30       		.byte	0x30
 7282 21ac 35       		.uleb128 0x35
 7283 21ad 01       		.uleb128 0x1
 7284 21ae 50       		.byte	0x50
 7285 21af 02       		.uleb128 0x2
 7286 21b0 75       		.byte	0x75
 7287 21b1 00       		.sleb128 0
 7288 21b2 00       		.byte	0
 7289 21b3 00       		.byte	0
 7290 21b4 4E       		.uleb128 0x4e
 7291 21b5 AF010000 		.4byte	.LASF189
 7292 21b9 01       		.byte	0x1
ARM GAS  /var/folders/m4/4md61f0s1_g0rzfghffqnxvr0000gn/T//ccHVf8ER.s 			page 129


 7293 21ba 92       		.byte	0x92
 7294 21bb 2C000000 		.4byte	0x2c
 7295 21bf 00000000 		.4byte	.LFB271
 7296 21c3 2E020000 		.4byte	.LFE271-.LFB271
 7297 21c7 01       		.uleb128 0x1
 7298 21c8 9C       		.byte	0x9c
 7299 21c9 61260000 		.4byte	0x2661
 7300 21cd 2E       		.uleb128 0x2e
 7301 21ce D2000000 		.4byte	.LASF219
 7302 21d2 01       		.byte	0x1
 7303 21d3 92       		.byte	0x92
 7304 21d4 55030000 		.4byte	0x355
 7305 21d8 C50A0000 		.4byte	.LLST76
 7306 21dc 4F       		.uleb128 0x4f
 7307 21dd 627000   		.ascii	"bp\000"
 7308 21e0 01       		.byte	0x1
 7309 21e1 92       		.byte	0x92
 7310 21e2 A8080000 		.4byte	0x8a8
 7311 21e6 FC0A0000 		.4byte	.LLST77
 7312 21ea 4F       		.uleb128 0x4f
 7313 21eb 6E00     		.ascii	"n\000"
 7314 21ed 01       		.byte	0x1
 7315 21ee 92       		.byte	0x92
 7316 21ef 2C000000 		.4byte	0x2c
 7317 21f3 1A0B0000 		.4byte	.LLST78
 7318 21f7 2E       		.uleb128 0x2e
 7319 21f8 B7090000 		.4byte	.LASF220
 7320 21fc 01       		.byte	0x1
 7321 21fd 92       		.byte	0x92
 7322 21fe 52010000 		.4byte	0x152
 7323 2202 380B0000 		.4byte	.LLST79
 7324 2206 50       		.uleb128 0x50
 7325 2207 83090000 		.4byte	.LASF249
 7326 220b 01       		.byte	0x1
 7327 220c 94       		.byte	0x94
 7328 220d 2A080000 		.4byte	0x82a
 7329 2211 02       		.uleb128 0x2
 7330 2212 91       		.byte	0x91
 7331 2213 44       		.sleb128 -60
 7332 2214 50       		.uleb128 0x50
 7333 2215 55090000 		.4byte	.LASF191
 7334 2219 01       		.byte	0x1
 7335 221a 95       		.byte	0x95
 7336 221b 530F0000 		.4byte	0xf53
 7337 221f 01       		.uleb128 0x1
 7338 2220 59       		.byte	0x59
 7339 2221 51       		.uleb128 0x51
 7340 2222 63687000 		.ascii	"chp\000"
 7341 2226 01       		.byte	0x1
 7342 2227 96       		.byte	0x96
 7343 2228 60110000 		.4byte	0x1160
 7344 222c 890B0000 		.4byte	.LLST80
 7345 2230 52       		.uleb128 0x52
 7346 2231 0D0B0000 		.4byte	.LASF250
 7347 2235 01       		.byte	0x1
 7348 2236 A4       		.byte	0xa4
 7349 2237 B8000000 		.4byte	0xb8
ARM GAS  /var/folders/m4/4md61f0s1_g0rzfghffqnxvr0000gn/T//ccHVf8ER.s 			page 130


 7350 223b A80B0000 		.4byte	.LLST81
 7351 223f 3B       		.uleb128 0x3b
 7352 2240 12000000 		.4byte	.LBB172
 7353 2244 0C000000 		.4byte	.LBE172-.LBB172
 7354 2248 5A220000 		.4byte	0x225a
 7355 224c 51       		.uleb128 0x51
 7356 224d 6900     		.ascii	"i\000"
 7357 224f 01       		.byte	0x1
 7358 2250 98       		.byte	0x98
 7359 2251 25000000 		.4byte	0x25
 7360 2255 DD0B0000 		.4byte	.LLST82
 7361 2259 00       		.byte	0
 7362 225a 4D       		.uleb128 0x4d
 7363 225b 8F100000 		.4byte	0x108f
 7364 225f 2C000000 		.4byte	.LBB173
 7365 2263 12000000 		.4byte	.LBE173-.LBB173
 7366 2267 01       		.byte	0x1
 7367 2268 A6       		.byte	0xa6
 7368 2269 A9220000 		.4byte	0x22a9
 7369 226d 33       		.uleb128 0x33
 7370 226e B1100000 		.4byte	0x10b1
 7371 2272 01       		.byte	0x1
 7372 2273 37       		.uleb128 0x37
 7373 2274 A6100000 		.4byte	0x10a6
 7374 2278 F10B0000 		.4byte	.LLST83
 7375 227c 30       		.uleb128 0x30
 7376 227d 9B100000 		.4byte	0x109b
 7377 2281 03       		.uleb128 0x3
 7378 2282 91       		.byte	0x91
 7379 2283 BC7F     		.sleb128 -68
 7380 2285 34       		.uleb128 0x34
 7381 2286 3E000000 		.4byte	.LVL184
 7382 228a 522F0000 		.4byte	0x2f52
 7383 228e 35       		.uleb128 0x35
 7384 228f 01       		.uleb128 0x1
 7385 2290 53       		.byte	0x53
 7386 2291 02       		.uleb128 0x2
 7387 2292 09       		.byte	0x9
 7388 2293 FF       		.byte	0xff
 7389 2294 35       		.uleb128 0x35
 7390 2295 01       		.uleb128 0x1
 7391 2296 52       		.byte	0x52
 7392 2297 01       		.uleb128 0x1
 7393 2298 31       		.byte	0x31
 7394 2299 35       		.uleb128 0x35
 7395 229a 01       		.uleb128 0x1
 7396 229b 51       		.byte	0x51
 7397 229c 02       		.uleb128 0x2
 7398 229d 91       		.byte	0x91
 7399 229e 44       		.sleb128 -60
 7400 229f 35       		.uleb128 0x35
 7401 22a0 01       		.uleb128 0x1
 7402 22a1 50       		.byte	0x50
 7403 22a2 04       		.uleb128 0x4
 7404 22a3 91       		.byte	0x91
 7405 22a4 BC7F     		.sleb128 -68
 7406 22a6 06       		.byte	0x6
ARM GAS  /var/folders/m4/4md61f0s1_g0rzfghffqnxvr0000gn/T//ccHVf8ER.s 			page 131


 7407 22a7 00       		.byte	0
 7408 22a8 00       		.byte	0
 7409 22a9 45       		.uleb128 0x45
 7410 22aa 60000000 		.4byte	.Ldebug_ranges0+0x60
 7411 22ae FE250000 		.4byte	0x25fe
 7412 22b2 52       		.uleb128 0x52
 7413 22b3 580A0000 		.4byte	.LASF251
 7414 22b7 01       		.byte	0x1
 7415 22b8 B5       		.byte	0xb5
 7416 22b9 AD000000 		.4byte	0xad
 7417 22bd 4E0C0000 		.4byte	.LLST84
 7418 22c1 45       		.uleb128 0x45
 7419 22c2 98000000 		.4byte	.Ldebug_ranges0+0x98
 7420 22c6 F1220000 		.4byte	0x22f1
 7421 22ca 51       		.uleb128 0x51
 7422 22cb 6C656E00 		.ascii	"len\000"
 7423 22cf 01       		.byte	0x1
 7424 22d0 AE       		.byte	0xae
 7425 22d1 AD000000 		.4byte	0xad
 7426 22d5 610C0000 		.4byte	.LLST85
 7427 22d9 46       		.uleb128 0x46
 7428 22da 5E000000 		.4byte	.LBB177
 7429 22de 20000000 		.4byte	.LBE177-.LBB177
 7430 22e2 51       		.uleb128 0x51
 7431 22e3 6900     		.ascii	"i\000"
 7432 22e5 01       		.byte	0x1
 7433 22e6 AF       		.byte	0xaf
 7434 22e7 AD000000 		.4byte	0xad
 7435 22eb 740C0000 		.4byte	.LLST86
 7436 22ef 00       		.byte	0
 7437 22f0 00       		.byte	0
 7438 22f1 4D       		.uleb128 0x4d
 7439 22f2 BD100000 		.4byte	0x10bd
 7440 22f6 B8000000 		.4byte	.LBB179
 7441 22fa 08000000 		.4byte	.LBE179-.LBB179
 7442 22fe 01       		.byte	0x1
 7443 22ff B5       		.byte	0xb5
 7444 2300 23230000 		.4byte	0x2323
 7445 2304 37       		.uleb128 0x37
 7446 2305 CE100000 		.4byte	0x10ce
 7447 2309 930C0000 		.4byte	.LLST87
 7448 230d 34       		.uleb128 0x34
 7449 230e C0000000 		.4byte	.LVL198
 7450 2312 ED140000 		.4byte	0x14ed
 7451 2316 35       		.uleb128 0x35
 7452 2317 01       		.uleb128 0x1
 7453 2318 51       		.byte	0x51
 7454 2319 01       		.uleb128 0x1
 7455 231a 47       		.byte	0x47
 7456 231b 35       		.uleb128 0x35
 7457 231c 01       		.uleb128 0x1
 7458 231d 50       		.byte	0x50
 7459 231e 02       		.uleb128 0x2
 7460 231f 79       		.byte	0x79
 7461 2320 00       		.sleb128 0
 7462 2321 00       		.byte	0
 7463 2322 00       		.byte	0
ARM GAS  /var/folders/m4/4md61f0s1_g0rzfghffqnxvr0000gn/T//ccHVf8ER.s 			page 132


 7464 2323 45       		.uleb128 0x45
 7465 2324 B0000000 		.4byte	.Ldebug_ranges0+0xb0
 7466 2328 59250000 		.4byte	0x2559
 7467 232c 50       		.uleb128 0x50
 7468 232d 3E060000 		.4byte	.LASF204
 7469 2331 01       		.byte	0x1
 7470 2332 B9       		.byte	0xb9
 7471 2333 AD000000 		.4byte	0xad
 7472 2337 02       		.uleb128 0x2
 7473 2338 91       		.byte	0x91
 7474 2339 43       		.sleb128 -61
 7475 233a 52       		.uleb128 0x52
 7476 233b 05020000 		.4byte	.LASF252
 7477 233f 01       		.byte	0x1
 7478 2340 BA       		.byte	0xba
 7479 2341 AD000000 		.4byte	0xad
 7480 2345 B10C0000 		.4byte	.LLST88
 7481 2349 52       		.uleb128 0x52
 7482 234a 84050000 		.4byte	.LASF253
 7483 234e 01       		.byte	0x1
 7484 234f BB       		.byte	0xbb
 7485 2350 60110000 		.4byte	0x1160
 7486 2354 060D0000 		.4byte	.LLST89
 7487 2358 3B       		.uleb128 0x3b
 7488 2359 FC000000 		.4byte	.LBB182
 7489 235d 24000000 		.4byte	.LBE182-.LBB182
 7490 2361 73230000 		.4byte	0x2373
 7491 2365 51       		.uleb128 0x51
 7492 2366 6900     		.ascii	"i\000"
 7493 2368 01       		.byte	0x1
 7494 2369 C9       		.byte	0xc9
 7495 236a AD000000 		.4byte	0xad
 7496 236e 5A0D0000 		.4byte	.LLST90
 7497 2372 00       		.byte	0
 7498 2373 4B       		.uleb128 0x4b
 7499 2374 8B0F0000 		.4byte	0xf8b
 7500 2378 20010000 		.4byte	.LBB183
 7501 237c D8000000 		.4byte	.Ldebug_ranges0+0xd8
 7502 2380 01       		.byte	0x1
 7503 2381 CC       		.byte	0xcc
 7504 2382 E2230000 		.4byte	0x23e2
 7505 2386 37       		.uleb128 0x37
 7506 2387 BC0F0000 		.4byte	0xfbc
 7507 238b 830D0000 		.4byte	.LLST91
 7508 238f 47       		.uleb128 0x47
 7509 2390 B00F0000 		.4byte	0xfb0
 7510 2394 37       		.uleb128 0x37
 7511 2395 A40F0000 		.4byte	0xfa4
 7512 2399 BD0D0000 		.4byte	.LLST92
 7513 239d 47       		.uleb128 0x47
 7514 239e 980F0000 		.4byte	0xf98
 7515 23a2 53       		.uleb128 0x53
 7516 23a3 D8000000 		.4byte	.Ldebug_ranges0+0xd8
 7517 23a7 49       		.uleb128 0x49
 7518 23a8 C80F0000 		.4byte	0xfc8
 7519 23ac 49       		.uleb128 0x49
 7520 23ad D30F0000 		.4byte	0xfd3
ARM GAS  /var/folders/m4/4md61f0s1_g0rzfghffqnxvr0000gn/T//ccHVf8ER.s 			page 133


 7521 23b1 34       		.uleb128 0x34
 7522 23b2 E4010000 		.4byte	.LVL232
 7523 23b6 C6120000 		.4byte	0x12c6
 7524 23ba 35       		.uleb128 0x35
 7525 23bb 01       		.uleb128 0x1
 7526 23bc 53       		.byte	0x53
 7527 23bd 02       		.uleb128 0x2
 7528 23be 91       		.byte	0x91
 7529 23bf 43       		.sleb128 -61
 7530 23c0 35       		.uleb128 0x35
 7531 23c1 01       		.uleb128 0x1
 7532 23c2 52       		.byte	0x52
 7533 23c3 0F       		.uleb128 0xf
 7534 23c4 7B       		.byte	0x7b
 7535 23c5 00       		.sleb128 0
 7536 23c6 76       		.byte	0x76
 7537 23c7 00       		.sleb128 0
 7538 23c8 22       		.byte	0x22
 7539 23c9 34       		.byte	0x34
 7540 23ca 24       		.byte	0x24
 7541 23cb 79       		.byte	0x79
 7542 23cc 00       		.sleb128 0
 7543 23cd 22       		.byte	0x22
 7544 23ce 78       		.byte	0x78
 7545 23cf 00       		.sleb128 0
 7546 23d0 1C       		.byte	0x1c
 7547 23d1 23       		.byte	0x23
 7548 23d2 28       		.uleb128 0x28
 7549 23d3 35       		.uleb128 0x35
 7550 23d4 01       		.uleb128 0x1
 7551 23d5 51       		.byte	0x51
 7552 23d6 02       		.uleb128 0x2
 7553 23d7 78       		.byte	0x78
 7554 23d8 00       		.sleb128 0
 7555 23d9 35       		.uleb128 0x35
 7556 23da 01       		.uleb128 0x1
 7557 23db 50       		.byte	0x50
 7558 23dc 02       		.uleb128 0x2
 7559 23dd 79       		.byte	0x79
 7560 23de 00       		.sleb128 0
 7561 23df 00       		.byte	0
 7562 23e0 00       		.byte	0
 7563 23e1 00       		.byte	0
 7564 23e2 4B       		.uleb128 0x4b
 7565 23e3 8B0F0000 		.4byte	0xf8b
 7566 23e7 70010000 		.4byte	.LBB186
 7567 23eb F0000000 		.4byte	.Ldebug_ranges0+0xf0
 7568 23ef 01       		.byte	0x1
 7569 23f0 C3       		.byte	0xc3
 7570 23f1 51240000 		.4byte	0x2451
 7571 23f5 37       		.uleb128 0x37
 7572 23f6 BC0F0000 		.4byte	0xfbc
 7573 23fa DB0D0000 		.4byte	.LLST93
 7574 23fe 47       		.uleb128 0x47
 7575 23ff B00F0000 		.4byte	0xfb0
 7576 2403 37       		.uleb128 0x37
 7577 2404 A40F0000 		.4byte	0xfa4
ARM GAS  /var/folders/m4/4md61f0s1_g0rzfghffqnxvr0000gn/T//ccHVf8ER.s 			page 134


 7578 2408 080E0000 		.4byte	.LLST94
 7579 240c 47       		.uleb128 0x47
 7580 240d 980F0000 		.4byte	0xf98
 7581 2411 53       		.uleb128 0x53
 7582 2412 F0000000 		.4byte	.Ldebug_ranges0+0xf0
 7583 2416 49       		.uleb128 0x49
 7584 2417 C80F0000 		.4byte	0xfc8
 7585 241b 49       		.uleb128 0x49
 7586 241c D30F0000 		.4byte	0xfd3
 7587 2420 34       		.uleb128 0x34
 7588 2421 9C010000 		.4byte	.LVL220
 7589 2425 C6120000 		.4byte	0x12c6
 7590 2429 35       		.uleb128 0x35
 7591 242a 01       		.uleb128 0x1
 7592 242b 53       		.byte	0x53
 7593 242c 02       		.uleb128 0x2
 7594 242d 91       		.byte	0x91
 7595 242e 43       		.sleb128 -61
 7596 242f 35       		.uleb128 0x35
 7597 2430 01       		.uleb128 0x1
 7598 2431 52       		.byte	0x52
 7599 2432 0F       		.uleb128 0xf
 7600 2433 7B       		.byte	0x7b
 7601 2434 00       		.sleb128 0
 7602 2435 76       		.byte	0x76
 7603 2436 00       		.sleb128 0
 7604 2437 22       		.byte	0x22
 7605 2438 34       		.byte	0x34
 7606 2439 24       		.byte	0x24
 7607 243a 79       		.byte	0x79
 7608 243b 00       		.sleb128 0
 7609 243c 22       		.byte	0x22
 7610 243d 78       		.byte	0x78
 7611 243e 00       		.sleb128 0
 7612 243f 1C       		.byte	0x1c
 7613 2440 23       		.byte	0x23
 7614 2441 28       		.uleb128 0x28
 7615 2442 35       		.uleb128 0x35
 7616 2443 01       		.uleb128 0x1
 7617 2444 51       		.byte	0x51
 7618 2445 02       		.uleb128 0x2
 7619 2446 78       		.byte	0x78
 7620 2447 00       		.sleb128 0
 7621 2448 35       		.uleb128 0x35
 7622 2449 01       		.uleb128 0x1
 7623 244a 50       		.byte	0x50
 7624 244b 02       		.uleb128 0x2
 7625 244c 79       		.byte	0x79
 7626 244d 00       		.sleb128 0
 7627 244e 00       		.byte	0
 7628 244f 00       		.byte	0
 7629 2450 00       		.byte	0
 7630 2451 4B       		.uleb128 0x4b
 7631 2452 8B0F0000 		.4byte	0xf8b
 7632 2456 A4010000 		.4byte	.LBB190
 7633 245a 08010000 		.4byte	.Ldebug_ranges0+0x108
 7634 245e 01       		.byte	0x1
ARM GAS  /var/folders/m4/4md61f0s1_g0rzfghffqnxvr0000gn/T//ccHVf8ER.s 			page 135


 7635 245f D5       		.byte	0xd5
 7636 2460 B6240000 		.4byte	0x24b6
 7637 2464 37       		.uleb128 0x37
 7638 2465 BC0F0000 		.4byte	0xfbc
 7639 2469 1B0E0000 		.4byte	.LLST95
 7640 246d 47       		.uleb128 0x47
 7641 246e B00F0000 		.4byte	0xfb0
 7642 2472 37       		.uleb128 0x37
 7643 2473 A40F0000 		.4byte	0xfa4
 7644 2477 550E0000 		.4byte	.LLST96
 7645 247b 47       		.uleb128 0x47
 7646 247c 980F0000 		.4byte	0xf98
 7647 2480 53       		.uleb128 0x53
 7648 2481 08010000 		.4byte	.Ldebug_ranges0+0x108
 7649 2485 49       		.uleb128 0x49
 7650 2486 C80F0000 		.4byte	0xfc8
 7651 248a 49       		.uleb128 0x49
 7652 248b D30F0000 		.4byte	0xfd3
 7653 248f 34       		.uleb128 0x34
 7654 2490 2C020000 		.4byte	.LVL244
 7655 2494 C6120000 		.4byte	0x12c6
 7656 2498 35       		.uleb128 0x35
 7657 2499 01       		.uleb128 0x1
 7658 249a 53       		.byte	0x53
 7659 249b 02       		.uleb128 0x2
 7660 249c 91       		.byte	0x91
 7661 249d 43       		.sleb128 -61
 7662 249e 35       		.uleb128 0x35
 7663 249f 01       		.uleb128 0x1
 7664 24a0 52       		.byte	0x52
 7665 24a1 05       		.uleb128 0x5
 7666 24a2 7A       		.byte	0x7a
 7667 24a3 00       		.sleb128 0
 7668 24a4 75       		.byte	0x75
 7669 24a5 00       		.sleb128 0
 7670 24a6 22       		.byte	0x22
 7671 24a7 35       		.uleb128 0x35
 7672 24a8 01       		.uleb128 0x1
 7673 24a9 51       		.byte	0x51
 7674 24aa 02       		.uleb128 0x2
 7675 24ab 78       		.byte	0x78
 7676 24ac 00       		.sleb128 0
 7677 24ad 35       		.uleb128 0x35
 7678 24ae 01       		.uleb128 0x1
 7679 24af 50       		.byte	0x50
 7680 24b0 02       		.uleb128 0x2
 7681 24b1 79       		.byte	0x79
 7682 24b2 00       		.sleb128 0
 7683 24b3 00       		.byte	0
 7684 24b4 00       		.byte	0
 7685 24b5 00       		.byte	0
 7686 24b6 4B       		.uleb128 0x4b
 7687 24b7 8B0F0000 		.4byte	0xf8b
 7688 24bb BA010000 		.4byte	.LBB193
 7689 24bf 20010000 		.4byte	.Ldebug_ranges0+0x120
 7690 24c3 01       		.byte	0x1
 7691 24c4 DA       		.byte	0xda
ARM GAS  /var/folders/m4/4md61f0s1_g0rzfghffqnxvr0000gn/T//ccHVf8ER.s 			page 136


 7692 24c5 25250000 		.4byte	0x2525
 7693 24c9 37       		.uleb128 0x37
 7694 24ca BC0F0000 		.4byte	0xfbc
 7695 24ce 730E0000 		.4byte	.LLST97
 7696 24d2 47       		.uleb128 0x47
 7697 24d3 B00F0000 		.4byte	0xfb0
 7698 24d7 37       		.uleb128 0x37
 7699 24d8 A40F0000 		.4byte	0xfa4
 7700 24dc AD0E0000 		.4byte	.LLST98
 7701 24e0 47       		.uleb128 0x47
 7702 24e1 980F0000 		.4byte	0xf98
 7703 24e5 53       		.uleb128 0x53
 7704 24e6 20010000 		.4byte	.Ldebug_ranges0+0x120
 7705 24ea 49       		.uleb128 0x49
 7706 24eb C80F0000 		.4byte	0xfc8
 7707 24ef 49       		.uleb128 0x49
 7708 24f0 D30F0000 		.4byte	0xfd3
 7709 24f4 34       		.uleb128 0x34
 7710 24f5 1A020000 		.4byte	.LVL240
 7711 24f9 C6120000 		.4byte	0x12c6
 7712 24fd 35       		.uleb128 0x35
 7713 24fe 01       		.uleb128 0x1
 7714 24ff 53       		.byte	0x53
 7715 2500 02       		.uleb128 0x2
 7716 2501 91       		.byte	0x91
 7717 2502 43       		.sleb128 -61
 7718 2503 35       		.uleb128 0x35
 7719 2504 01       		.uleb128 0x1
 7720 2505 52       		.byte	0x52
 7721 2506 0F       		.uleb128 0xf
 7722 2507 7B       		.byte	0x7b
 7723 2508 00       		.sleb128 0
 7724 2509 76       		.byte	0x76
 7725 250a 00       		.sleb128 0
 7726 250b 22       		.byte	0x22
 7727 250c 34       		.byte	0x34
 7728 250d 24       		.byte	0x24
 7729 250e 79       		.byte	0x79
 7730 250f 00       		.sleb128 0
 7731 2510 22       		.byte	0x22
 7732 2511 78       		.byte	0x78
 7733 2512 00       		.sleb128 0
 7734 2513 1C       		.byte	0x1c
 7735 2514 23       		.byte	0x23
 7736 2515 28       		.uleb128 0x28
 7737 2516 35       		.uleb128 0x35
 7738 2517 01       		.uleb128 0x1
 7739 2518 51       		.byte	0x51
 7740 2519 02       		.uleb128 0x2
 7741 251a 78       		.byte	0x78
 7742 251b 00       		.sleb128 0
 7743 251c 35       		.uleb128 0x35
 7744 251d 01       		.uleb128 0x1
 7745 251e 50       		.byte	0x50
 7746 251f 02       		.uleb128 0x2
 7747 2520 79       		.byte	0x79
 7748 2521 00       		.sleb128 0
ARM GAS  /var/folders/m4/4md61f0s1_g0rzfghffqnxvr0000gn/T//ccHVf8ER.s 			page 137


 7749 2522 00       		.byte	0
 7750 2523 00       		.byte	0
 7751 2524 00       		.byte	0
 7752 2525 3A       		.uleb128 0x3a
 7753 2526 D2000000 		.4byte	.LVL199
 7754 252a D6200000 		.4byte	0x20d6
 7755 252e 39250000 		.4byte	0x2539
 7756 2532 35       		.uleb128 0x35
 7757 2533 01       		.uleb128 0x1
 7758 2534 50       		.byte	0x50
 7759 2535 02       		.uleb128 0x2
 7760 2536 79       		.byte	0x79
 7761 2537 00       		.sleb128 0
 7762 2538 00       		.byte	0
 7763 2539 34       		.uleb128 0x34
 7764 253a 48010000 		.4byte	.LVL209
 7765 253e 722F0000 		.4byte	0x2f72
 7766 2542 35       		.uleb128 0x35
 7767 2543 01       		.uleb128 0x1
 7768 2544 51       		.byte	0x51
 7769 2545 01       		.uleb128 0x1
 7770 2546 34       		.byte	0x34
 7771 2547 35       		.uleb128 0x35
 7772 2548 01       		.uleb128 0x1
 7773 2549 50       		.byte	0x50
 7774 254a 0C       		.uleb128 0xc
 7775 254b 7B       		.byte	0x7b
 7776 254c 00       		.sleb128 0
 7777 254d 76       		.byte	0x76
 7778 254e 00       		.sleb128 0
 7779 254f 22       		.byte	0x22
 7780 2550 34       		.byte	0x34
 7781 2551 24       		.byte	0x24
 7782 2552 79       		.byte	0x79
 7783 2553 00       		.sleb128 0
 7784 2554 22       		.byte	0x22
 7785 2555 23       		.byte	0x23
 7786 2556 2C       		.uleb128 0x2c
 7787 2557 00       		.byte	0
 7788 2558 00       		.byte	0
 7789 2559 4D       		.uleb128 0x4d
 7790 255a 69100000 		.4byte	0x1069
 7791 255e 64010000 		.4byte	.LBB199
 7792 2562 0C000000 		.4byte	.LBE199-.LBB199
 7793 2566 01       		.byte	0x1
 7794 2567 EB       		.byte	0xeb
 7795 2568 9A250000 		.4byte	0x259a
 7796 256c 37       		.uleb128 0x37
 7797 256d 82100000 		.4byte	0x1082
 7798 2571 CB0E0000 		.4byte	.LLST99
 7799 2575 37       		.uleb128 0x37
 7800 2576 76100000 		.4byte	0x1076
 7801 257a E00E0000 		.4byte	.LLST100
 7802 257e 34       		.uleb128 0x34
 7803 257f 6E010000 		.4byte	.LVL214
 7804 2583 5D140000 		.4byte	0x145d
 7805 2587 35       		.uleb128 0x35
ARM GAS  /var/folders/m4/4md61f0s1_g0rzfghffqnxvr0000gn/T//ccHVf8ER.s 			page 138


 7806 2588 01       		.uleb128 0x1
 7807 2589 52       		.byte	0x52
 7808 258a 02       		.uleb128 0x2
 7809 258b 08       		.byte	0x8
 7810 258c 40       		.byte	0x40
 7811 258d 35       		.uleb128 0x35
 7812 258e 01       		.uleb128 0x1
 7813 258f 51       		.byte	0x51
 7814 2590 01       		.uleb128 0x1
 7815 2591 37       		.byte	0x37
 7816 2592 35       		.uleb128 0x35
 7817 2593 01       		.uleb128 0x1
 7818 2594 50       		.byte	0x50
 7819 2595 02       		.uleb128 0x2
 7820 2596 79       		.byte	0x79
 7821 2597 00       		.sleb128 0
 7822 2598 00       		.byte	0
 7823 2599 00       		.byte	0
 7824 259a 4B       		.uleb128 0x4b
 7825 259b DB100000 		.4byte	0x10db
 7826 259f EE010000 		.4byte	.LBB203
 7827 25a3 38010000 		.4byte	.Ldebug_ranges0+0x138
 7828 25a7 01       		.byte	0x1
 7829 25a8 E4       		.byte	0xe4
 7830 25a9 B7250000 		.4byte	0x25b7
 7831 25ad 37       		.uleb128 0x37
 7832 25ae E8100000 		.4byte	0x10e8
 7833 25b2 F30E0000 		.4byte	.LLST101
 7834 25b6 00       		.byte	0
 7835 25b7 3A       		.uleb128 0x3a
 7836 25b8 56010000 		.4byte	.LVL210
 7837 25bc 882F0000 		.4byte	0x2f88
 7838 25c0 D1250000 		.4byte	0x25d1
 7839 25c4 35       		.uleb128 0x35
 7840 25c5 01       		.uleb128 0x1
 7841 25c6 51       		.byte	0x51
 7842 25c7 03       		.uleb128 0x3
 7843 25c8 7D       		.byte	0x7d
 7844 25c9 00       		.sleb128 0
 7845 25ca 06       		.byte	0x6
 7846 25cb 35       		.uleb128 0x35
 7847 25cc 01       		.uleb128 0x1
 7848 25cd 50       		.byte	0x50
 7849 25ce 01       		.uleb128 0x1
 7850 25cf 31       		.byte	0x31
 7851 25d0 00       		.byte	0
 7852 25d1 3A       		.uleb128 0x3a
 7853 25d2 60010000 		.4byte	.LVL211
 7854 25d6 A8160000 		.4byte	0x16a8
 7855 25da E5250000 		.4byte	0x25e5
 7856 25de 35       		.uleb128 0x35
 7857 25df 01       		.uleb128 0x1
 7858 25e0 50       		.byte	0x50
 7859 25e1 02       		.uleb128 0x2
 7860 25e2 79       		.byte	0x79
 7861 25e3 00       		.sleb128 0
 7862 25e4 00       		.byte	0
ARM GAS  /var/folders/m4/4md61f0s1_g0rzfghffqnxvr0000gn/T//ccHVf8ER.s 			page 139


 7863 25e5 34       		.uleb128 0x34
 7864 25e6 EE010000 		.4byte	.LVL235
 7865 25ea A22F0000 		.4byte	0x2fa2
 7866 25ee 35       		.uleb128 0x35
 7867 25ef 01       		.uleb128 0x1
 7868 25f0 51       		.byte	0x51
 7869 25f1 02       		.uleb128 0x2
 7870 25f2 91       		.byte	0x91
 7871 25f3 44       		.sleb128 -60
 7872 25f4 35       		.uleb128 0x35
 7873 25f5 01       		.uleb128 0x1
 7874 25f6 50       		.byte	0x50
 7875 25f7 04       		.uleb128 0x4
 7876 25f8 91       		.byte	0x91
 7877 25f9 BC7F     		.sleb128 -68
 7878 25fb 06       		.byte	0x6
 7879 25fc 00       		.byte	0
 7880 25fd 00       		.byte	0
 7881 25fe 4B       		.uleb128 0x4b
 7882 25ff DB100000 		.4byte	0x10db
 7883 2603 98000000 		.4byte	.LBB209
 7884 2607 50010000 		.4byte	.Ldebug_ranges0+0x150
 7885 260b 01       		.byte	0x1
 7886 260c F1       		.byte	0xf1
 7887 260d 1B260000 		.4byte	0x261b
 7888 2611 37       		.uleb128 0x37
 7889 2612 E8100000 		.4byte	0x10e8
 7890 2616 060F0000 		.4byte	.LLST102
 7891 261a 00       		.byte	0
 7892 261b 3A       		.uleb128 0x3a
 7893 261c 44000000 		.4byte	.LVL185
 7894 2620 4F210000 		.4byte	0x214f
 7895 2624 2F260000 		.4byte	0x262f
 7896 2628 35       		.uleb128 0x35
 7897 2629 01       		.uleb128 0x1
 7898 262a 50       		.byte	0x50
 7899 262b 02       		.uleb128 0x2
 7900 262c 79       		.byte	0x79
 7901 262d 00       		.sleb128 0
 7902 262e 00       		.byte	0
 7903 262f 3A       		.uleb128 0x3a
 7904 2630 B0000000 		.4byte	.LVL195
 7905 2634 A22F0000 		.4byte	0x2fa2
 7906 2638 4B260000 		.4byte	0x264b
 7907 263c 35       		.uleb128 0x35
 7908 263d 01       		.uleb128 0x1
 7909 263e 51       		.byte	0x51
 7910 263f 02       		.uleb128 0x2
 7911 2640 91       		.byte	0x91
 7912 2641 44       		.sleb128 -60
 7913 2642 35       		.uleb128 0x35
 7914 2643 01       		.uleb128 0x1
 7915 2644 50       		.byte	0x50
 7916 2645 04       		.uleb128 0x4
 7917 2646 91       		.byte	0x91
 7918 2647 BC7F     		.sleb128 -68
 7919 2649 06       		.byte	0x6
ARM GAS  /var/folders/m4/4md61f0s1_g0rzfghffqnxvr0000gn/T//ccHVf8ER.s 			page 140


 7920 264a 00       		.byte	0
 7921 264b 34       		.uleb128 0x34
 7922 264c B8010000 		.4byte	.LVL227
 7923 2650 722F0000 		.4byte	0x2f72
 7924 2654 35       		.uleb128 0x35
 7925 2655 01       		.uleb128 0x1
 7926 2656 51       		.byte	0x51
 7927 2657 01       		.uleb128 0x1
 7928 2658 34       		.byte	0x34
 7929 2659 35       		.uleb128 0x35
 7930 265a 01       		.uleb128 0x1
 7931 265b 50       		.byte	0x50
 7932 265c 02       		.uleb128 0x2
 7933 265d 74       		.byte	0x74
 7934 265e 2C       		.sleb128 44
 7935 265f 00       		.byte	0
 7936 2660 00       		.byte	0
 7937 2661 36       		.uleb128 0x36
 7938 2662 F5100000 		.4byte	0x10f5
 7939 2666 00000000 		.4byte	.LFB273
 7940 266a 54000000 		.4byte	.LFE273-.LFB273
 7941 266e 01       		.uleb128 0x1
 7942 266f 9C       		.byte	0x9c
 7943 2670 1C270000 		.4byte	0x271c
 7944 2674 37       		.uleb128 0x37
 7945 2675 05110000 		.4byte	0x1105
 7946 2679 190F0000 		.4byte	.LLST103
 7947 267d 37       		.uleb128 0x37
 7948 267e 10110000 		.4byte	0x1110
 7949 2682 6C0F0000 		.4byte	.LLST104
 7950 2686 49       		.uleb128 0x49
 7951 2687 1B110000 		.4byte	0x111b
 7952 268b 3C       		.uleb128 0x3c
 7953 268c 27110000 		.4byte	0x1127
 7954 2690 980F0000 		.4byte	.LLST105
 7955 2694 3B       		.uleb128 0x3b
 7956 2695 0A000000 		.4byte	.LBB226
 7957 2699 0C000000 		.4byte	.LBE226-.LBB226
 7958 269d AB260000 		.4byte	0x26ab
 7959 26a1 3C       		.uleb128 0x3c
 7960 26a2 38110000 		.4byte	0x1138
 7961 26a6 DE0F0000 		.4byte	.LLST106
 7962 26aa 00       		.byte	0
 7963 26ab 3B       		.uleb128 0x3b
 7964 26ac 24000000 		.4byte	.LBB227
 7965 26b0 0E000000 		.4byte	.LBE227-.LBB227
 7966 26b4 C2260000 		.4byte	0x26c2
 7967 26b8 3C       		.uleb128 0x3c
 7968 26b9 48110000 		.4byte	0x1148
 7969 26bd F20F0000 		.4byte	.LLST107
 7970 26c1 00       		.byte	0
 7971 26c2 53       		.uleb128 0x53
 7972 26c3 70010000 		.4byte	.Ldebug_ranges0+0x170
 7973 26c7 37       		.uleb128 0x37
 7974 26c8 10110000 		.4byte	0x1110
 7975 26cc 05100000 		.4byte	.LLST108
 7976 26d0 37       		.uleb128 0x37
ARM GAS  /var/folders/m4/4md61f0s1_g0rzfghffqnxvr0000gn/T//ccHVf8ER.s 			page 141


 7977 26d1 05110000 		.4byte	0x1105
 7978 26d5 26100000 		.4byte	.LLST109
 7979 26d9 53       		.uleb128 0x53
 7980 26da 70010000 		.4byte	.Ldebug_ranges0+0x170
 7981 26de 49       		.uleb128 0x49
 7982 26df 1B110000 		.4byte	0x111b
 7983 26e3 49       		.uleb128 0x49
 7984 26e4 27110000 		.4byte	0x1127
 7985 26e8 53       		.uleb128 0x53
 7986 26e9 70010000 		.4byte	.Ldebug_ranges0+0x170
 7987 26ed 38       		.uleb128 0x38
 7988 26ee 54110000 		.4byte	0x1154
 7989 26f2 02       		.uleb128 0x2
 7990 26f3 91       		.byte	0x91
 7991 26f4 77       		.sleb128 -9
 7992 26f5 34       		.uleb128 0x34
 7993 26f6 42000000 		.4byte	.LVL255
 7994 26fa B4210000 		.4byte	0x21b4
 7995 26fe 35       		.uleb128 0x35
 7996 26ff 01       		.uleb128 0x1
 7997 2700 53       		.byte	0x53
 7998 2701 03       		.uleb128 0x3
 7999 2702 F3       		.byte	0xf3
 8000 2703 01       		.uleb128 0x1
 8001 2704 51       		.byte	0x51
 8002 2705 35       		.uleb128 0x35
 8003 2706 01       		.uleb128 0x1
 8004 2707 52       		.byte	0x52
 8005 2708 01       		.uleb128 0x1
 8006 2709 31       		.byte	0x31
 8007 270a 35       		.uleb128 0x35
 8008 270b 01       		.uleb128 0x1
 8009 270c 51       		.byte	0x51
 8010 270d 02       		.uleb128 0x2
 8011 270e 91       		.byte	0x91
 8012 270f 77       		.sleb128 -9
 8013 2710 35       		.uleb128 0x35
 8014 2711 01       		.uleb128 0x1
 8015 2712 50       		.byte	0x50
 8016 2713 03       		.uleb128 0x3
 8017 2714 F3       		.byte	0xf3
 8018 2715 01       		.uleb128 0x1
 8019 2716 50       		.byte	0x50
 8020 2717 00       		.byte	0
 8021 2718 00       		.byte	0
 8022 2719 00       		.byte	0
 8023 271a 00       		.byte	0
 8024 271b 00       		.byte	0
 8025 271c 54       		.uleb128 0x54
 8026 271d 67657400 		.ascii	"get\000"
 8027 2721 01       		.byte	0x1
 8028 2722 2D01     		.2byte	0x12d
 8029 2724 26010000 		.4byte	0x126
 8030 2728 00000000 		.4byte	.LFB277
 8031 272c 08000000 		.4byte	.LFE277-.LFB277
 8032 2730 01       		.uleb128 0x1
 8033 2731 9C       		.byte	0x9c
ARM GAS  /var/folders/m4/4md61f0s1_g0rzfghffqnxvr0000gn/T//ccHVf8ER.s 			page 142


 8034 2732 5E270000 		.4byte	0x275e
 8035 2736 3E       		.uleb128 0x3e
 8036 2737 D2000000 		.4byte	.LASF219
 8037 273b 01       		.byte	0x1
 8038 273c 2D01     		.2byte	0x12d
 8039 273e 55030000 		.4byte	0x355
 8040 2742 47100000 		.4byte	.LLST110
 8041 2746 44       		.uleb128 0x44
 8042 2747 08000000 		.4byte	.LVL257
 8043 274b F5100000 		.4byte	0x10f5
 8044 274f 35       		.uleb128 0x35
 8045 2750 01       		.uleb128 0x1
 8046 2751 51       		.byte	0x51
 8047 2752 02       		.uleb128 0x2
 8048 2753 09       		.byte	0x9
 8049 2754 FF       		.byte	0xff
 8050 2755 35       		.uleb128 0x35
 8051 2756 01       		.uleb128 0x1
 8052 2757 50       		.byte	0x50
 8053 2758 03       		.uleb128 0x3
 8054 2759 F3       		.byte	0xf3
 8055 275a 01       		.uleb128 0x1
 8056 275b 50       		.byte	0x50
 8057 275c 00       		.byte	0
 8058 275d 00       		.byte	0
 8059 275e 55       		.uleb128 0x55
 8060 275f E2060000 		.4byte	.LASF185
 8061 2763 01       		.byte	0x1
 8062 2764 2301     		.2byte	0x123
 8063 2766 2C000000 		.4byte	0x2c
 8064 276a 00000000 		.4byte	.LFB275
 8065 276e 08000000 		.4byte	.LFE275-.LFB275
 8066 2772 01       		.uleb128 0x1
 8067 2773 9C       		.byte	0x9c
 8068 2774 CB270000 		.4byte	0x27cb
 8069 2778 3E       		.uleb128 0x3e
 8070 2779 D2000000 		.4byte	.LASF219
 8071 277d 01       		.byte	0x1
 8072 277e 2301     		.2byte	0x123
 8073 2780 55030000 		.4byte	0x355
 8074 2784 68100000 		.4byte	.LLST111
 8075 2788 3F       		.uleb128 0x3f
 8076 2789 627000   		.ascii	"bp\000"
 8077 278c 01       		.byte	0x1
 8078 278d 2301     		.2byte	0x123
 8079 278f A8080000 		.4byte	0x8a8
 8080 2793 89100000 		.4byte	.LLST112
 8081 2797 3F       		.uleb128 0x3f
 8082 2798 6E00     		.ascii	"n\000"
 8083 279a 01       		.byte	0x1
 8084 279b 2301     		.2byte	0x123
 8085 279d 2C000000 		.4byte	0x2c
 8086 27a1 AA100000 		.4byte	.LLST113
 8087 27a5 44       		.uleb128 0x44
 8088 27a6 08000000 		.4byte	.LVL259
 8089 27aa B4210000 		.4byte	0x21b4
 8090 27ae 35       		.uleb128 0x35
ARM GAS  /var/folders/m4/4md61f0s1_g0rzfghffqnxvr0000gn/T//ccHVf8ER.s 			page 143


 8091 27af 01       		.uleb128 0x1
 8092 27b0 53       		.byte	0x53
 8093 27b1 02       		.uleb128 0x2
 8094 27b2 09       		.byte	0x9
 8095 27b3 FF       		.byte	0xff
 8096 27b4 35       		.uleb128 0x35
 8097 27b5 01       		.uleb128 0x1
 8098 27b6 52       		.byte	0x52
 8099 27b7 03       		.uleb128 0x3
 8100 27b8 F3       		.byte	0xf3
 8101 27b9 01       		.uleb128 0x1
 8102 27ba 52       		.byte	0x52
 8103 27bb 35       		.uleb128 0x35
 8104 27bc 01       		.uleb128 0x1
 8105 27bd 51       		.byte	0x51
 8106 27be 03       		.uleb128 0x3
 8107 27bf F3       		.byte	0xf3
 8108 27c0 01       		.uleb128 0x1
 8109 27c1 51       		.byte	0x51
 8110 27c2 35       		.uleb128 0x35
 8111 27c3 01       		.uleb128 0x1
 8112 27c4 50       		.byte	0x50
 8113 27c5 03       		.uleb128 0x3
 8114 27c6 F3       		.byte	0xf3
 8115 27c7 01       		.uleb128 0x1
 8116 27c8 50       		.byte	0x50
 8117 27c9 00       		.byte	0
 8118 27ca 00       		.byte	0
 8119 27cb 3D       		.uleb128 0x3d
 8120 27cc 8B070000 		.4byte	.LASF254
 8121 27d0 01       		.byte	0x1
 8122 27d1 2E02     		.2byte	0x22e
 8123 27d3 00000000 		.4byte	.LFB305
 8124 27d7 38000000 		.4byte	.LFE305-.LFB305
 8125 27db 01       		.uleb128 0x1
 8126 27dc 9C       		.byte	0x9c
 8127 27dd 30280000 		.4byte	0x2830
 8128 27e1 3E       		.uleb128 0x3e
 8129 27e2 55090000 		.4byte	.LASF191
 8130 27e6 01       		.byte	0x1
 8131 27e7 2E02     		.2byte	0x22e
 8132 27e9 530F0000 		.4byte	0xf53
 8133 27ed CB100000 		.4byte	.LLST114
 8134 27f1 43       		.uleb128 0x43
 8135 27f2 72656700 		.ascii	"reg\000"
 8136 27f6 01       		.byte	0x1
 8137 27f7 3202     		.2byte	0x232
 8138 27f9 AD000000 		.4byte	0xad
 8139 27fd E9100000 		.4byte	.LLST115
 8140 2801 3A       		.uleb128 0x3a
 8141 2802 1C000000 		.4byte	.LVL261
 8142 2806 ED140000 		.4byte	0x14ed
 8143 280a 1A280000 		.4byte	0x281a
 8144 280e 35       		.uleb128 0x35
 8145 280f 01       		.uleb128 0x1
 8146 2810 51       		.byte	0x51
 8147 2811 01       		.uleb128 0x1
ARM GAS  /var/folders/m4/4md61f0s1_g0rzfghffqnxvr0000gn/T//ccHVf8ER.s 			page 144


 8148 2812 30       		.byte	0x30
 8149 2813 35       		.uleb128 0x35
 8150 2814 01       		.uleb128 0x1
 8151 2815 50       		.byte	0x50
 8152 2816 02       		.uleb128 0x2
 8153 2817 75       		.byte	0x75
 8154 2818 00       		.sleb128 0
 8155 2819 00       		.byte	0
 8156 281a 34       		.uleb128 0x34
 8157 281b 28000000 		.4byte	.LVL263
 8158 281f 5D140000 		.4byte	0x145d
 8159 2823 35       		.uleb128 0x35
 8160 2824 01       		.uleb128 0x1
 8161 2825 51       		.byte	0x51
 8162 2826 01       		.uleb128 0x1
 8163 2827 30       		.byte	0x30
 8164 2828 35       		.uleb128 0x35
 8165 2829 01       		.uleb128 0x1
 8166 282a 50       		.byte	0x50
 8167 282b 02       		.uleb128 0x2
 8168 282c 75       		.byte	0x75
 8169 282d 00       		.sleb128 0
 8170 282e 00       		.byte	0
 8171 282f 00       		.byte	0
 8172 2830 4E       		.uleb128 0x4e
 8173 2831 95000000 		.4byte	.LASF188
 8174 2835 01       		.byte	0x1
 8175 2836 56       		.byte	0x56
 8176 2837 2C000000 		.4byte	0x2c
 8177 283b 00000000 		.4byte	.LFB270
 8178 283f F2000000 		.4byte	.LFE270-.LFB270
 8179 2843 01       		.uleb128 0x1
 8180 2844 9C       		.byte	0x9c
 8181 2845 152B0000 		.4byte	0x2b15
 8182 2849 2E       		.uleb128 0x2e
 8183 284a D2000000 		.4byte	.LASF219
 8184 284e 01       		.byte	0x1
 8185 284f 56       		.byte	0x56
 8186 2850 55030000 		.4byte	0x355
 8187 2854 01110000 		.4byte	.LLST116
 8188 2858 4F       		.uleb128 0x4f
 8189 2859 627000   		.ascii	"bp\000"
 8190 285c 01       		.byte	0x1
 8191 285d 56       		.byte	0x56
 8192 285e C7080000 		.4byte	0x8c7
 8193 2862 3B110000 		.4byte	.LLST117
 8194 2866 4F       		.uleb128 0x4f
 8195 2867 6E00     		.ascii	"n\000"
 8196 2869 01       		.byte	0x1
 8197 286a 56       		.byte	0x56
 8198 286b 2C000000 		.4byte	0x2c
 8199 286f 72110000 		.4byte	.LLST118
 8200 2873 2E       		.uleb128 0x2e
 8201 2874 B7090000 		.4byte	.LASF220
 8202 2878 01       		.byte	0x1
 8203 2879 56       		.byte	0x56
 8204 287a 52010000 		.4byte	0x152
ARM GAS  /var/folders/m4/4md61f0s1_g0rzfghffqnxvr0000gn/T//ccHVf8ER.s 			page 145


 8205 287e A9110000 		.4byte	.LLST119
 8206 2882 50       		.uleb128 0x50
 8207 2883 83090000 		.4byte	.LASF249
 8208 2887 01       		.byte	0x1
 8209 2888 58       		.byte	0x58
 8210 2889 2A080000 		.4byte	0x82a
 8211 288d 02       		.uleb128 0x2
 8212 288e 91       		.byte	0x91
 8213 288f 44       		.sleb128 -60
 8214 2890 50       		.uleb128 0x50
 8215 2891 55090000 		.4byte	.LASF191
 8216 2895 01       		.byte	0x1
 8217 2896 59       		.byte	0x59
 8218 2897 530F0000 		.4byte	0xf53
 8219 289b 01       		.uleb128 0x1
 8220 289c 56       		.byte	0x56
 8221 289d 52       		.uleb128 0x52
 8222 289e E7060000 		.4byte	.LASF255
 8223 28a2 01       		.byte	0x1
 8224 28a3 5F       		.byte	0x5f
 8225 28a4 B8000000 		.4byte	0xb8
 8226 28a8 E0110000 		.4byte	.LLST120
 8227 28ac 52       		.uleb128 0x52
 8228 28ad 580A0000 		.4byte	.LASF251
 8229 28b1 01       		.byte	0x1
 8230 28b2 60       		.byte	0x60
 8231 28b3 AD000000 		.4byte	0xad
 8232 28b7 16120000 		.4byte	.LLST121
 8233 28bb 4D       		.uleb128 0x4d
 8234 28bc 8F100000 		.4byte	0x108f
 8235 28c0 1C000000 		.4byte	.LBB234
 8236 28c4 14000000 		.4byte	.LBE234-.LBB234
 8237 28c8 01       		.byte	0x1
 8238 28c9 5D       		.byte	0x5d
 8239 28ca 06290000 		.4byte	0x2906
 8240 28ce 33       		.uleb128 0x33
 8241 28cf B1100000 		.4byte	0x10b1
 8242 28d3 01       		.byte	0x1
 8243 28d4 37       		.uleb128 0x37
 8244 28d5 A6100000 		.4byte	0x10a6
 8245 28d9 4A120000 		.4byte	.LLST122
 8246 28dd 30       		.uleb128 0x30
 8247 28de 9B100000 		.4byte	0x109b
 8248 28e2 01       		.uleb128 0x1
 8249 28e3 5A       		.byte	0x5a
 8250 28e4 34       		.uleb128 0x34
 8251 28e5 30000000 		.4byte	.LVL273
 8252 28e9 522F0000 		.4byte	0x2f52
 8253 28ed 35       		.uleb128 0x35
 8254 28ee 01       		.uleb128 0x1
 8255 28ef 53       		.byte	0x53
 8256 28f0 02       		.uleb128 0x2
 8257 28f1 09       		.byte	0x9
 8258 28f2 FF       		.byte	0xff
 8259 28f3 35       		.uleb128 0x35
 8260 28f4 01       		.uleb128 0x1
 8261 28f5 52       		.byte	0x52
ARM GAS  /var/folders/m4/4md61f0s1_g0rzfghffqnxvr0000gn/T//ccHVf8ER.s 			page 146


 8262 28f6 01       		.uleb128 0x1
 8263 28f7 31       		.byte	0x31
 8264 28f8 35       		.uleb128 0x35
 8265 28f9 01       		.uleb128 0x1
 8266 28fa 51       		.byte	0x51
 8267 28fb 02       		.uleb128 0x2
 8268 28fc 91       		.byte	0x91
 8269 28fd 44       		.sleb128 -60
 8270 28fe 35       		.uleb128 0x35
 8271 28ff 01       		.uleb128 0x1
 8272 2900 50       		.byte	0x50
 8273 2901 02       		.uleb128 0x2
 8274 2902 7A       		.byte	0x7a
 8275 2903 00       		.sleb128 0
 8276 2904 00       		.byte	0
 8277 2905 00       		.byte	0
 8278 2906 45       		.uleb128 0x45
 8279 2907 88010000 		.4byte	.Ldebug_ranges0+0x188
 8280 290b 862A0000 		.4byte	0x2a86
 8281 290f 52       		.uleb128 0x52
 8282 2910 38060000 		.4byte	.LASF256
 8283 2914 01       		.byte	0x1
 8284 2915 6E       		.byte	0x6e
 8285 2916 AD000000 		.4byte	0xad
 8286 291a D7120000 		.4byte	.LLST123
 8287 291e 4D       		.uleb128 0x4d
 8288 291f E00F0000 		.4byte	0xfe0
 8289 2923 5C000000 		.4byte	.LBB237
 8290 2927 0C000000 		.4byte	.LBE237-.LBB237
 8291 292b 01       		.byte	0x1
 8292 292c 70       		.byte	0x70
 8293 292d 7B290000 		.4byte	0x297b
 8294 2931 37       		.uleb128 0x37
 8295 2932 05100000 		.4byte	0x1005
 8296 2936 26130000 		.4byte	.LLST124
 8297 293a 37       		.uleb128 0x37
 8298 293b F90F0000 		.4byte	0xff9
 8299 293f D7120000 		.4byte	.LLST123
 8300 2943 37       		.uleb128 0x37
 8301 2944 ED0F0000 		.4byte	0xfed
 8302 2948 79130000 		.4byte	.LLST126
 8303 294c 46       		.uleb128 0x46
 8304 294d 5C000000 		.4byte	.LBB238
 8305 2951 0C000000 		.4byte	.LBE238-.LBB238
 8306 2955 49       		.uleb128 0x49
 8307 2956 11100000 		.4byte	0x1011
 8308 295a 34       		.uleb128 0x34
 8309 295b 68000000 		.4byte	.LVL284
 8310 295f 59130000 		.4byte	0x1359
 8311 2963 35       		.uleb128 0x35
 8312 2964 01       		.uleb128 0x1
 8313 2965 52       		.byte	0x52
 8314 2966 05       		.uleb128 0x5
 8315 2967 78       		.byte	0x78
 8316 2968 00       		.sleb128 0
 8317 2969 75       		.byte	0x75
 8318 296a 00       		.sleb128 0
ARM GAS  /var/folders/m4/4md61f0s1_g0rzfghffqnxvr0000gn/T//ccHVf8ER.s 			page 147


 8319 296b 22       		.byte	0x22
 8320 296c 35       		.uleb128 0x35
 8321 296d 01       		.uleb128 0x1
 8322 296e 51       		.byte	0x51
 8323 296f 02       		.uleb128 0x2
 8324 2970 74       		.byte	0x74
 8325 2971 00       		.sleb128 0
 8326 2972 35       		.uleb128 0x35
 8327 2973 01       		.uleb128 0x1
 8328 2974 50       		.byte	0x50
 8329 2975 02       		.uleb128 0x2
 8330 2976 76       		.byte	0x76
 8331 2977 00       		.sleb128 0
 8332 2978 00       		.byte	0
 8333 2979 00       		.byte	0
 8334 297a 00       		.byte	0
 8335 297b 4D       		.uleb128 0x4d
 8336 297c 69100000 		.4byte	0x1069
 8337 2980 80000000 		.4byte	.LBB239
 8338 2984 0C000000 		.4byte	.LBE239-.LBB239
 8339 2988 01       		.byte	0x1
 8340 2989 85       		.byte	0x85
 8341 298a BC290000 		.4byte	0x29bc
 8342 298e 37       		.uleb128 0x37
 8343 298f 82100000 		.4byte	0x1082
 8344 2993 A2130000 		.4byte	.LLST127
 8345 2997 37       		.uleb128 0x37
 8346 2998 76100000 		.4byte	0x1076
 8347 299c B7130000 		.4byte	.LLST128
 8348 29a0 34       		.uleb128 0x34
 8349 29a1 8A000000 		.4byte	.LVL289
 8350 29a5 5D140000 		.4byte	0x145d
 8351 29a9 35       		.uleb128 0x35
 8352 29aa 01       		.uleb128 0x1
 8353 29ab 52       		.byte	0x52
 8354 29ac 02       		.uleb128 0x2
 8355 29ad 08       		.byte	0x8
 8356 29ae 20       		.byte	0x20
 8357 29af 35       		.uleb128 0x35
 8358 29b0 01       		.uleb128 0x1
 8359 29b1 51       		.byte	0x51
 8360 29b2 01       		.uleb128 0x1
 8361 29b3 37       		.byte	0x37
 8362 29b4 35       		.uleb128 0x35
 8363 29b5 01       		.uleb128 0x1
 8364 29b6 50       		.byte	0x50
 8365 29b7 02       		.uleb128 0x2
 8366 29b8 76       		.byte	0x76
 8367 29b9 00       		.sleb128 0
 8368 29ba 00       		.byte	0
 8369 29bb 00       		.byte	0
 8370 29bc 4D       		.uleb128 0x4d
 8371 29bd DB100000 		.4byte	0x10db
 8372 29c1 C6000000 		.4byte	.LBB241
 8373 29c5 10000000 		.4byte	.LBE241-.LBB241
 8374 29c9 01       		.byte	0x1
 8375 29ca 80       		.byte	0x80
ARM GAS  /var/folders/m4/4md61f0s1_g0rzfghffqnxvr0000gn/T//ccHVf8ER.s 			page 148


 8376 29cb D9290000 		.4byte	0x29d9
 8377 29cf 37       		.uleb128 0x37
 8378 29d0 E8100000 		.4byte	0x10e8
 8379 29d4 CA130000 		.4byte	.LLST129
 8380 29d8 00       		.byte	0
 8381 29d9 4D       		.uleb128 0x4d
 8382 29da 69100000 		.4byte	0x1069
 8383 29de E0000000 		.4byte	.LBB243
 8384 29e2 0A000000 		.4byte	.LBE243-.LBB243
 8385 29e6 01       		.byte	0x1
 8386 29e7 7E       		.byte	0x7e
 8387 29e8 142A0000 		.4byte	0x2a14
 8388 29ec 33       		.uleb128 0x33
 8389 29ed 82100000 		.4byte	0x1082
 8390 29f1 10       		.byte	0x10
 8391 29f2 30       		.uleb128 0x30
 8392 29f3 76100000 		.4byte	0x1076
 8393 29f7 01       		.uleb128 0x1
 8394 29f8 56       		.byte	0x56
 8395 29f9 34       		.uleb128 0x34
 8396 29fa EA000000 		.4byte	.LVL305
 8397 29fe 5D140000 		.4byte	0x145d
 8398 2a02 35       		.uleb128 0x35
 8399 2a03 01       		.uleb128 0x1
 8400 2a04 52       		.byte	0x52
 8401 2a05 01       		.uleb128 0x1
 8402 2a06 40       		.byte	0x40
 8403 2a07 35       		.uleb128 0x35
 8404 2a08 01       		.uleb128 0x1
 8405 2a09 51       		.byte	0x51
 8406 2a0a 01       		.uleb128 0x1
 8407 2a0b 37       		.byte	0x37
 8408 2a0c 35       		.uleb128 0x35
 8409 2a0d 01       		.uleb128 0x1
 8410 2a0e 50       		.byte	0x50
 8411 2a0f 02       		.uleb128 0x2
 8412 2a10 76       		.byte	0x76
 8413 2a11 00       		.sleb128 0
 8414 2a12 00       		.byte	0
 8415 2a13 00       		.byte	0
 8416 2a14 3A       		.uleb128 0x3a
 8417 2a15 70000000 		.4byte	.LVL285
 8418 2a19 882F0000 		.4byte	0x2f88
 8419 2a1d 2D2A0000 		.4byte	0x2a2d
 8420 2a21 35       		.uleb128 0x35
 8421 2a22 01       		.uleb128 0x1
 8422 2a23 51       		.byte	0x51
 8423 2a24 02       		.uleb128 0x2
 8424 2a25 79       		.byte	0x79
 8425 2a26 00       		.sleb128 0
 8426 2a27 35       		.uleb128 0x35
 8427 2a28 01       		.uleb128 0x1
 8428 2a29 50       		.byte	0x50
 8429 2a2a 01       		.uleb128 0x1
 8430 2a2b 31       		.byte	0x31
 8431 2a2c 00       		.byte	0
 8432 2a2d 3A       		.uleb128 0x3a
ARM GAS  /var/folders/m4/4md61f0s1_g0rzfghffqnxvr0000gn/T//ccHVf8ER.s 			page 149


 8433 2a2e 78000000 		.4byte	.LVL286
 8434 2a32 A8160000 		.4byte	0x16a8
 8435 2a36 412A0000 		.4byte	0x2a41
 8436 2a3a 35       		.uleb128 0x35
 8437 2a3b 01       		.uleb128 0x1
 8438 2a3c 50       		.byte	0x50
 8439 2a3d 02       		.uleb128 0x2
 8440 2a3e 76       		.byte	0x76
 8441 2a3f 00       		.sleb128 0
 8442 2a40 00       		.byte	0
 8443 2a41 3A       		.uleb128 0x3a
 8444 2a42 C6000000 		.4byte	.LVL300
 8445 2a46 A22F0000 		.4byte	0x2fa2
 8446 2a4a 5B2A0000 		.4byte	0x2a5b
 8447 2a4e 35       		.uleb128 0x35
 8448 2a4f 01       		.uleb128 0x1
 8449 2a50 51       		.byte	0x51
 8450 2a51 02       		.uleb128 0x2
 8451 2a52 91       		.byte	0x91
 8452 2a53 44       		.sleb128 -60
 8453 2a54 35       		.uleb128 0x35
 8454 2a55 01       		.uleb128 0x1
 8455 2a56 50       		.byte	0x50
 8456 2a57 02       		.uleb128 0x2
 8457 2a58 7A       		.byte	0x7a
 8458 2a59 00       		.sleb128 0
 8459 2a5a 00       		.byte	0
 8460 2a5b 3A       		.uleb128 0x3a
 8461 2a5c E0000000 		.4byte	.LVL304
 8462 2a60 A22F0000 		.4byte	0x2fa2
 8463 2a64 752A0000 		.4byte	0x2a75
 8464 2a68 35       		.uleb128 0x35
 8465 2a69 01       		.uleb128 0x1
 8466 2a6a 51       		.byte	0x51
 8467 2a6b 02       		.uleb128 0x2
 8468 2a6c 91       		.byte	0x91
 8469 2a6d 44       		.sleb128 -60
 8470 2a6e 35       		.uleb128 0x35
 8471 2a6f 01       		.uleb128 0x1
 8472 2a70 50       		.byte	0x50
 8473 2a71 02       		.uleb128 0x2
 8474 2a72 7A       		.byte	0x7a
 8475 2a73 00       		.sleb128 0
 8476 2a74 00       		.byte	0
 8477 2a75 34       		.uleb128 0x34
 8478 2a76 F0000000 		.4byte	.LVL306
 8479 2a7a D41D0000 		.4byte	0x1dd4
 8480 2a7e 35       		.uleb128 0x35
 8481 2a7f 01       		.uleb128 0x1
 8482 2a80 50       		.byte	0x50
 8483 2a81 02       		.uleb128 0x2
 8484 2a82 76       		.byte	0x76
 8485 2a83 00       		.sleb128 0
 8486 2a84 00       		.byte	0
 8487 2a85 00       		.byte	0
 8488 2a86 4B       		.uleb128 0x4b
 8489 2a87 DB100000 		.4byte	0x10db
ARM GAS  /var/folders/m4/4md61f0s1_g0rzfghffqnxvr0000gn/T//ccHVf8ER.s 			page 150


 8490 2a8b 9A000000 		.4byte	.LBB246
 8491 2a8f A8010000 		.4byte	.Ldebug_ranges0+0x1a8
 8492 2a93 01       		.byte	0x1
 8493 2a94 8A       		.byte	0x8a
 8494 2a95 A32A0000 		.4byte	0x2aa3
 8495 2a99 37       		.uleb128 0x37
 8496 2a9a E8100000 		.4byte	0x10e8
 8497 2a9e DD130000 		.4byte	.LLST130
 8498 2aa2 00       		.byte	0
 8499 2aa3 3A       		.uleb128 0x3a
 8500 2aa4 36000000 		.4byte	.LVL274
 8501 2aa8 A8160000 		.4byte	0x16a8
 8502 2aac B72A0000 		.4byte	0x2ab7
 8503 2ab0 35       		.uleb128 0x35
 8504 2ab1 01       		.uleb128 0x1
 8505 2ab2 50       		.byte	0x50
 8506 2ab3 02       		.uleb128 0x2
 8507 2ab4 76       		.byte	0x76
 8508 2ab5 00       		.sleb128 0
 8509 2ab6 00       		.byte	0
 8510 2ab7 3A       		.uleb128 0x3a
 8511 2ab8 42000000 		.4byte	.LVL276
 8512 2abc CB270000 		.4byte	0x27cb
 8513 2ac0 CB2A0000 		.4byte	0x2acb
 8514 2ac4 35       		.uleb128 0x35
 8515 2ac5 01       		.uleb128 0x1
 8516 2ac6 50       		.byte	0x50
 8517 2ac7 02       		.uleb128 0x2
 8518 2ac8 76       		.byte	0x76
 8519 2ac9 00       		.sleb128 0
 8520 2aca 00       		.byte	0
 8521 2acb 3A       		.uleb128 0x3a
 8522 2acc 94000000 		.4byte	.LVL293
 8523 2ad0 A22F0000 		.4byte	0x2fa2
 8524 2ad4 E52A0000 		.4byte	0x2ae5
 8525 2ad8 35       		.uleb128 0x35
 8526 2ad9 01       		.uleb128 0x1
 8527 2ada 51       		.byte	0x51
 8528 2adb 02       		.uleb128 0x2
 8529 2adc 91       		.byte	0x91
 8530 2add 44       		.sleb128 -60
 8531 2ade 35       		.uleb128 0x35
 8532 2adf 01       		.uleb128 0x1
 8533 2ae0 50       		.byte	0x50
 8534 2ae1 02       		.uleb128 0x2
 8535 2ae2 7A       		.byte	0x7a
 8536 2ae3 00       		.sleb128 0
 8537 2ae4 00       		.byte	0
 8538 2ae5 3A       		.uleb128 0x3a
 8539 2ae6 B4000000 		.4byte	.LVL295
 8540 2aea 722F0000 		.4byte	0x2f72
 8541 2aee FE2A0000 		.4byte	0x2afe
 8542 2af2 35       		.uleb128 0x35
 8543 2af3 01       		.uleb128 0x1
 8544 2af4 51       		.byte	0x51
 8545 2af5 01       		.uleb128 0x1
 8546 2af6 48       		.byte	0x48
ARM GAS  /var/folders/m4/4md61f0s1_g0rzfghffqnxvr0000gn/T//ccHVf8ER.s 			page 151


 8547 2af7 35       		.uleb128 0x35
 8548 2af8 01       		.uleb128 0x1
 8549 2af9 50       		.byte	0x50
 8550 2afa 02       		.uleb128 0x2
 8551 2afb 76       		.byte	0x76
 8552 2afc 2C       		.sleb128 44
 8553 2afd 00       		.byte	0
 8554 2afe 34       		.uleb128 0x34
 8555 2aff BC000000 		.4byte	.LVL297
 8556 2b03 A22F0000 		.4byte	0x2fa2
 8557 2b07 35       		.uleb128 0x35
 8558 2b08 01       		.uleb128 0x1
 8559 2b09 51       		.byte	0x51
 8560 2b0a 02       		.uleb128 0x2
 8561 2b0b 91       		.byte	0x91
 8562 2b0c 44       		.sleb128 -60
 8563 2b0d 35       		.uleb128 0x35
 8564 2b0e 01       		.uleb128 0x1
 8565 2b0f 50       		.byte	0x50
 8566 2b10 02       		.uleb128 0x2
 8567 2b11 7A       		.byte	0x7a
 8568 2b12 00       		.sleb128 0
 8569 2b13 00       		.byte	0
 8570 2b14 00       		.byte	0
 8571 2b15 36       		.uleb128 0x36
 8572 2b16 66110000 		.4byte	0x1166
 8573 2b1a 00000000 		.4byte	.LFB272
 8574 2b1e 20000000 		.4byte	.LFE272-.LFB272
 8575 2b22 01       		.uleb128 0x1
 8576 2b23 9C       		.byte	0x9c
 8577 2b24 672B0000 		.4byte	0x2b67
 8578 2b28 37       		.uleb128 0x37
 8579 2b29 76110000 		.4byte	0x1176
 8580 2b2d F0130000 		.4byte	.LLST131
 8581 2b31 37       		.uleb128 0x37
 8582 2b32 81110000 		.4byte	0x1181
 8583 2b36 11140000 		.4byte	.LLST132
 8584 2b3a 37       		.uleb128 0x37
 8585 2b3b 8A110000 		.4byte	0x118a
 8586 2b3f 3C140000 		.4byte	.LLST133
 8587 2b43 34       		.uleb128 0x34
 8588 2b44 14000000 		.4byte	.LVL310
 8589 2b48 30280000 		.4byte	0x2830
 8590 2b4c 35       		.uleb128 0x35
 8591 2b4d 01       		.uleb128 0x1
 8592 2b4e 53       		.byte	0x53
 8593 2b4f 03       		.uleb128 0x3
 8594 2b50 F3       		.byte	0xf3
 8595 2b51 01       		.uleb128 0x1
 8596 2b52 52       		.byte	0x52
 8597 2b53 35       		.uleb128 0x35
 8598 2b54 01       		.uleb128 0x1
 8599 2b55 52       		.byte	0x52
 8600 2b56 01       		.uleb128 0x1
 8601 2b57 31       		.byte	0x31
 8602 2b58 35       		.uleb128 0x35
 8603 2b59 01       		.uleb128 0x1
ARM GAS  /var/folders/m4/4md61f0s1_g0rzfghffqnxvr0000gn/T//ccHVf8ER.s 			page 152


 8604 2b5a 51       		.byte	0x51
 8605 2b5b 02       		.uleb128 0x2
 8606 2b5c 74       		.byte	0x74
 8607 2b5d 00       		.sleb128 0
 8608 2b5e 35       		.uleb128 0x35
 8609 2b5f 01       		.uleb128 0x1
 8610 2b60 50       		.byte	0x50
 8611 2b61 03       		.uleb128 0x3
 8612 2b62 F3       		.byte	0xf3
 8613 2b63 01       		.uleb128 0x1
 8614 2b64 50       		.byte	0x50
 8615 2b65 00       		.byte	0
 8616 2b66 00       		.byte	0
 8617 2b67 54       		.uleb128 0x54
 8618 2b68 70757400 		.ascii	"put\000"
 8619 2b6c 01       		.byte	0x1
 8620 2b6d 2801     		.2byte	0x128
 8621 2b6f 26010000 		.4byte	0x126
 8622 2b73 00000000 		.4byte	.LFB276
 8623 2b77 22000000 		.4byte	.LFE276-.LFB276
 8624 2b7b 01       		.uleb128 0x1
 8625 2b7c 9C       		.byte	0x9c
 8626 2b7d EA2B0000 		.4byte	0x2bea
 8627 2b81 3E       		.uleb128 0x3e
 8628 2b82 D2000000 		.4byte	.LASF219
 8629 2b86 01       		.byte	0x1
 8630 2b87 2801     		.2byte	0x128
 8631 2b89 55030000 		.4byte	0x355
 8632 2b8d 68140000 		.4byte	.LLST134
 8633 2b91 3F       		.uleb128 0x3f
 8634 2b92 6200     		.ascii	"b\000"
 8635 2b94 01       		.byte	0x1
 8636 2b95 2801     		.2byte	0x128
 8637 2b97 AD000000 		.4byte	0xad
 8638 2b9b 89140000 		.4byte	.LLST135
 8639 2b9f 32       		.uleb128 0x32
 8640 2ba0 66110000 		.4byte	0x1166
 8641 2ba4 06000000 		.4byte	.LBB251
 8642 2ba8 16000000 		.4byte	.LBE251-.LBB251
 8643 2bac 01       		.byte	0x1
 8644 2bad 2A01     		.2byte	0x12a
 8645 2baf 56       		.uleb128 0x56
 8646 2bb0 8A110000 		.4byte	0x118a
 8647 2bb4 7F       		.sleb128 -1
 8648 2bb5 30       		.uleb128 0x30
 8649 2bb6 81110000 		.4byte	0x1181
 8650 2bba 02       		.uleb128 0x2
 8651 2bbb 91       		.byte	0x91
 8652 2bbc 77       		.sleb128 -9
 8653 2bbd 37       		.uleb128 0x37
 8654 2bbe 76110000 		.4byte	0x1176
 8655 2bc2 68140000 		.4byte	.LLST134
 8656 2bc6 34       		.uleb128 0x34
 8657 2bc7 16000000 		.4byte	.LVL314
 8658 2bcb 30280000 		.4byte	0x2830
 8659 2bcf 35       		.uleb128 0x35
 8660 2bd0 01       		.uleb128 0x1
ARM GAS  /var/folders/m4/4md61f0s1_g0rzfghffqnxvr0000gn/T//ccHVf8ER.s 			page 153


 8661 2bd1 53       		.byte	0x53
 8662 2bd2 02       		.uleb128 0x2
 8663 2bd3 09       		.byte	0x9
 8664 2bd4 FF       		.byte	0xff
 8665 2bd5 35       		.uleb128 0x35
 8666 2bd6 01       		.uleb128 0x1
 8667 2bd7 52       		.byte	0x52
 8668 2bd8 01       		.uleb128 0x1
 8669 2bd9 31       		.byte	0x31
 8670 2bda 35       		.uleb128 0x35
 8671 2bdb 01       		.uleb128 0x1
 8672 2bdc 51       		.byte	0x51
 8673 2bdd 02       		.uleb128 0x2
 8674 2bde 74       		.byte	0x74
 8675 2bdf 00       		.sleb128 0
 8676 2be0 35       		.uleb128 0x35
 8677 2be1 01       		.uleb128 0x1
 8678 2be2 50       		.byte	0x50
 8679 2be3 03       		.uleb128 0x3
 8680 2be4 F3       		.byte	0xf3
 8681 2be5 01       		.uleb128 0x1
 8682 2be6 50       		.byte	0x50
 8683 2be7 00       		.byte	0
 8684 2be8 00       		.byte	0
 8685 2be9 00       		.byte	0
 8686 2bea 55       		.uleb128 0x55
 8687 2beb DB000000 		.4byte	.LASF184
 8688 2bef 01       		.byte	0x1
 8689 2bf0 1E01     		.2byte	0x11e
 8690 2bf2 2C000000 		.4byte	0x2c
 8691 2bf6 00000000 		.4byte	.LFB274
 8692 2bfa 08000000 		.4byte	.LFE274-.LFB274
 8693 2bfe 01       		.uleb128 0x1
 8694 2bff 9C       		.byte	0x9c
 8695 2c00 572C0000 		.4byte	0x2c57
 8696 2c04 3E       		.uleb128 0x3e
 8697 2c05 D2000000 		.4byte	.LASF219
 8698 2c09 01       		.byte	0x1
 8699 2c0a 1E01     		.2byte	0x11e
 8700 2c0c 55030000 		.4byte	0x355
 8701 2c10 B6140000 		.4byte	.LLST137
 8702 2c14 3F       		.uleb128 0x3f
 8703 2c15 627000   		.ascii	"bp\000"
 8704 2c18 01       		.byte	0x1
 8705 2c19 1E01     		.2byte	0x11e
 8706 2c1b C7080000 		.4byte	0x8c7
 8707 2c1f D7140000 		.4byte	.LLST138
 8708 2c23 3F       		.uleb128 0x3f
 8709 2c24 6E00     		.ascii	"n\000"
 8710 2c26 01       		.byte	0x1
 8711 2c27 1E01     		.2byte	0x11e
 8712 2c29 2C000000 		.4byte	0x2c
 8713 2c2d F8140000 		.4byte	.LLST139
 8714 2c31 44       		.uleb128 0x44
 8715 2c32 08000000 		.4byte	.LVL316
 8716 2c36 30280000 		.4byte	0x2830
 8717 2c3a 35       		.uleb128 0x35
ARM GAS  /var/folders/m4/4md61f0s1_g0rzfghffqnxvr0000gn/T//ccHVf8ER.s 			page 154


 8718 2c3b 01       		.uleb128 0x1
 8719 2c3c 53       		.byte	0x53
 8720 2c3d 02       		.uleb128 0x2
 8721 2c3e 09       		.byte	0x9
 8722 2c3f FF       		.byte	0xff
 8723 2c40 35       		.uleb128 0x35
 8724 2c41 01       		.uleb128 0x1
 8725 2c42 52       		.byte	0x52
 8726 2c43 03       		.uleb128 0x3
 8727 2c44 F3       		.byte	0xf3
 8728 2c45 01       		.uleb128 0x1
 8729 2c46 52       		.byte	0x52
 8730 2c47 35       		.uleb128 0x35
 8731 2c48 01       		.uleb128 0x1
 8732 2c49 51       		.byte	0x51
 8733 2c4a 03       		.uleb128 0x3
 8734 2c4b F3       		.byte	0xf3
 8735 2c4c 01       		.uleb128 0x1
 8736 2c4d 51       		.byte	0x51
 8737 2c4e 35       		.uleb128 0x35
 8738 2c4f 01       		.uleb128 0x1
 8739 2c50 50       		.byte	0x50
 8740 2c51 03       		.uleb128 0x3
 8741 2c52 F3       		.byte	0xf3
 8742 2c53 01       		.uleb128 0x1
 8743 2c54 50       		.byte	0x50
 8744 2c55 00       		.byte	0
 8745 2c56 00       		.byte	0
 8746 2c57 36       		.uleb128 0x36
 8747 2c58 DB100000 		.4byte	0x10db
 8748 2c5c 00000000 		.4byte	.LFB306
 8749 2c60 12000000 		.4byte	.LFE306-.LFB306
 8750 2c64 01       		.uleb128 0x1
 8751 2c65 9C       		.byte	0x9c
 8752 2c66 722C0000 		.4byte	0x2c72
 8753 2c6a 30       		.uleb128 0x30
 8754 2c6b E8100000 		.4byte	0x10e8
 8755 2c6f 01       		.uleb128 0x1
 8756 2c70 50       		.byte	0x50
 8757 2c71 00       		.byte	0
 8758 2c72 3D       		.uleb128 0x3d
 8759 2c73 4F0B0000 		.4byte	.LASF257
 8760 2c77 01       		.byte	0x1
 8761 2c78 3E02     		.2byte	0x23e
 8762 2c7a 00000000 		.4byte	.LFB307
 8763 2c7e 22000000 		.4byte	.LFE307-.LFB307
 8764 2c82 01       		.uleb128 0x1
 8765 2c83 9C       		.byte	0x9c
 8766 2c84 E82C0000 		.4byte	0x2ce8
 8767 2c88 3E       		.uleb128 0x3e
 8768 2c89 55090000 		.4byte	.LASF191
 8769 2c8d 01       		.byte	0x1
 8770 2c8e 3E02     		.2byte	0x23e
 8771 2c90 530F0000 		.4byte	0xf53
 8772 2c94 19150000 		.4byte	.LLST140
 8773 2c98 3E       		.uleb128 0x3e
 8774 2c99 5A020000 		.4byte	.LASF239
ARM GAS  /var/folders/m4/4md61f0s1_g0rzfghffqnxvr0000gn/T//ccHVf8ER.s 			page 155


 8775 2c9d 01       		.byte	0x1
 8776 2c9e 3E02     		.2byte	0x23e
 8777 2ca0 AD000000 		.4byte	0xad
 8778 2ca4 50150000 		.4byte	.LLST141
 8779 2ca8 43       		.uleb128 0x43
 8780 2ca9 72656700 		.ascii	"reg\000"
 8781 2cad 01       		.byte	0x1
 8782 2cae 4002     		.2byte	0x240
 8783 2cb0 AD000000 		.4byte	0xad
 8784 2cb4 71150000 		.4byte	.LLST142
 8785 2cb8 3A       		.uleb128 0x3a
 8786 2cb9 0C000000 		.4byte	.LVL320
 8787 2cbd ED140000 		.4byte	0x14ed
 8788 2cc1 D12C0000 		.4byte	0x2cd1
 8789 2cc5 35       		.uleb128 0x35
 8790 2cc6 01       		.uleb128 0x1
 8791 2cc7 51       		.byte	0x51
 8792 2cc8 01       		.uleb128 0x1
 8793 2cc9 32       		.byte	0x32
 8794 2cca 35       		.uleb128 0x35
 8795 2ccb 01       		.uleb128 0x1
 8796 2ccc 50       		.byte	0x50
 8797 2ccd 02       		.uleb128 0x2
 8798 2cce 75       		.byte	0x75
 8799 2ccf 00       		.sleb128 0
 8800 2cd0 00       		.byte	0
 8801 2cd1 44       		.uleb128 0x44
 8802 2cd2 22000000 		.4byte	.LVL323
 8803 2cd6 5D140000 		.4byte	0x145d
 8804 2cda 35       		.uleb128 0x35
 8805 2cdb 01       		.uleb128 0x1
 8806 2cdc 51       		.byte	0x51
 8807 2cdd 01       		.uleb128 0x1
 8808 2cde 32       		.byte	0x32
 8809 2cdf 35       		.uleb128 0x35
 8810 2ce0 01       		.uleb128 0x1
 8811 2ce1 50       		.byte	0x50
 8812 2ce2 03       		.uleb128 0x3
 8813 2ce3 F3       		.byte	0xf3
 8814 2ce4 01       		.uleb128 0x1
 8815 2ce5 50       		.byte	0x50
 8816 2ce6 00       		.byte	0
 8817 2ce7 00       		.byte	0
 8818 2ce8 36       		.uleb128 0x36
 8819 2ce9 A8110000 		.4byte	0x11a8
 8820 2ced 00000000 		.4byte	.LFB308
 8821 2cf1 1A000000 		.4byte	.LFE308-.LFB308
 8822 2cf5 01       		.uleb128 0x1
 8823 2cf6 9C       		.byte	0x9c
 8824 2cf7 BA2D0000 		.4byte	0x2dba
 8825 2cfb 37       		.uleb128 0x37
 8826 2cfc B5110000 		.4byte	0x11b5
 8827 2d00 8F150000 		.4byte	.LLST143
 8828 2d04 31       		.uleb128 0x31
 8829 2d05 96110000 		.4byte	0x1196
 8830 2d09 02000000 		.4byte	.LBB253
 8831 2d0d 06000000 		.4byte	.LBE253-.LBB253
ARM GAS  /var/folders/m4/4md61f0s1_g0rzfghffqnxvr0000gn/T//ccHVf8ER.s 			page 156


 8832 2d11 01       		.byte	0x1
 8833 2d12 4702     		.2byte	0x247
 8834 2d14 522D0000 		.4byte	0x2d52
 8835 2d18 32       		.uleb128 0x32
 8836 2d19 F10E0000 		.4byte	0xef1
 8837 2d1d 02000000 		.4byte	.LBB254
 8838 2d21 06000000 		.4byte	.LBE254-.LBB254
 8839 2d25 17       		.byte	0x17
 8840 2d26 8401     		.2byte	0x184
 8841 2d28 32       		.uleb128 0x32
 8842 2d29 DF0E0000 		.4byte	0xedf
 8843 2d2d 02000000 		.4byte	.LBB255
 8844 2d31 06000000 		.4byte	.LBE255-.LBB255
 8845 2d35 0C       		.byte	0xc
 8846 2d36 F101     		.2byte	0x1f1
 8847 2d38 32       		.uleb128 0x32
 8848 2d39 C50E0000 		.4byte	0xec5
 8849 2d3d 02000000 		.4byte	.LBB256
 8850 2d41 06000000 		.4byte	.LBE256-.LBB256
 8851 2d45 0C       		.byte	0xc
 8852 2d46 D001     		.2byte	0x1d0
 8853 2d48 33       		.uleb128 0x33
 8854 2d49 D20E0000 		.4byte	0xed2
 8855 2d4d 20       		.byte	0x20
 8856 2d4e 00       		.byte	0
 8857 2d4f 00       		.byte	0
 8858 2d50 00       		.byte	0
 8859 2d51 00       		.byte	0
 8860 2d52 31       		.uleb128 0x31
 8861 2d53 9F110000 		.4byte	0x119f
 8862 2d57 12000000 		.4byte	.LBB258
 8863 2d5b 08000000 		.4byte	.LBE258-.LBB258
 8864 2d5f 01       		.byte	0x1
 8865 2d60 4902     		.2byte	0x249
 8866 2d62 A02D0000 		.4byte	0x2da0
 8867 2d66 32       		.uleb128 0x32
 8868 2d67 FA0E0000 		.4byte	0xefa
 8869 2d6b 12000000 		.4byte	.LBB259
 8870 2d6f 08000000 		.4byte	.LBE259-.LBB259
 8871 2d73 17       		.byte	0x17
 8872 2d74 9A01     		.2byte	0x19a
 8873 2d76 32       		.uleb128 0x32
 8874 2d77 E80E0000 		.4byte	0xee8
 8875 2d7b 12000000 		.4byte	.LBB260
 8876 2d7f 08000000 		.4byte	.LBE260-.LBB260
 8877 2d83 0C       		.byte	0xc
 8878 2d84 FC01     		.2byte	0x1fc
 8879 2d86 32       		.uleb128 0x32
 8880 2d87 C50E0000 		.4byte	0xec5
 8881 2d8b 12000000 		.4byte	.LBB261
 8882 2d8f 08000000 		.4byte	.LBE261-.LBB261
 8883 2d93 0C       		.byte	0xc
 8884 2d94 E301     		.2byte	0x1e3
 8885 2d96 33       		.uleb128 0x33
 8886 2d97 D20E0000 		.4byte	0xed2
 8887 2d9b 00       		.byte	0
 8888 2d9c 00       		.byte	0
ARM GAS  /var/folders/m4/4md61f0s1_g0rzfghffqnxvr0000gn/T//ccHVf8ER.s 			page 157


 8889 2d9d 00       		.byte	0
 8890 2d9e 00       		.byte	0
 8891 2d9f 00       		.byte	0
 8892 2da0 34       		.uleb128 0x34
 8893 2da1 12000000 		.4byte	.LVL326
 8894 2da5 592E0000 		.4byte	0x2e59
 8895 2da9 35       		.uleb128 0x35
 8896 2daa 01       		.uleb128 0x1
 8897 2dab 51       		.byte	0x51
 8898 2dac 01       		.uleb128 0x1
 8899 2dad 31       		.byte	0x31
 8900 2dae 35       		.uleb128 0x35
 8901 2daf 01       		.uleb128 0x1
 8902 2db0 50       		.byte	0x50
 8903 2db1 06       		.uleb128 0x6
 8904 2db2 F3       		.byte	0xf3
 8905 2db3 01       		.uleb128 0x1
 8906 2db4 50       		.byte	0x50
 8907 2db5 23       		.byte	0x23
 8908 2db6 A002     		.uleb128 0x120
 8909 2db8 00       		.byte	0
 8910 2db9 00       		.byte	0
 8911 2dba 50       		.uleb128 0x50
 8912 2dbb 770D0000 		.4byte	.LASF258
 8913 2dbf 01       		.byte	0x1
 8914 2dc0 06       		.byte	0x6
 8915 2dc1 410D0000 		.4byte	0xd41
 8916 2dc5 05       		.uleb128 0x5
 8917 2dc6 03       		.byte	0x3
 8918 2dc7 00000000 		.4byte	nrf24l01SPI
 8919 2dcb 50       		.uleb128 0x50
 8920 2dcc 41080000 		.4byte	.LASF259
 8921 2dd0 01       		.byte	0x1
 8922 2dd1 0E       		.byte	0xe
 8923 2dd2 B50E0000 		.4byte	0xeb5
 8924 2dd6 05       		.uleb128 0x5
 8925 2dd7 03       		.byte	0x3
 8926 2dd8 00000000 		.4byte	nrf24l01Config
 8927 2ddc 50       		.uleb128 0x50
 8928 2ddd C9060000 		.4byte	.LASF205
 8929 2de1 01       		.byte	0x1
 8930 2de2 16       		.byte	0x16
 8931 2de3 ED2D0000 		.4byte	0x2ded
 8932 2de7 05       		.uleb128 0x5
 8933 2de8 03       		.byte	0x3
 8934 2de9 00000000 		.4byte	addr
 8935 2ded 16       		.uleb128 0x16
 8936 2dee 4C0D0000 		.4byte	0xd4c
 8937 2df2 50       		.uleb128 0x50
 8938 2df3 0A070000 		.4byte	.LASF260
 8939 2df7 01       		.byte	0x1
 8940 2df8 1D       		.byte	0x1d
 8941 2df9 080C0000 		.4byte	0xc08
 8942 2dfd 05       		.uleb128 0x5
 8943 2dfe 03       		.byte	0x3
 8944 2dff 00000000 		.4byte	extcfg
 8945 2e03 40       		.uleb128 0x40
ARM GAS  /var/folders/m4/4md61f0s1_g0rzfghffqnxvr0000gn/T//ccHVf8ER.s 			page 158


 8946 2e04 766D7400 		.ascii	"vmt\000"
 8947 2e08 01       		.byte	0x1
 8948 2e09 3201     		.2byte	0x132
 8949 2e0b 500E0000 		.4byte	0xe50
 8950 2e0f 05       		.uleb128 0x5
 8951 2e10 03       		.byte	0x3
 8952 2e11 00000000 		.4byte	vmt
 8953 2e15 57       		.uleb128 0x57
 8954 2e16 87060000 		.4byte	.LASF261
 8955 2e1a 18       		.byte	0x18
 8956 2e1b FA06     		.2byte	0x6fa
 8957 2e1d 212E0000 		.4byte	0x2e21
 8958 2e21 0F       		.uleb128 0xf
 8959 2e22 C3000000 		.4byte	0xc3
 8960 2e26 58       		.uleb128 0x58
 8961 2e27 636800   		.ascii	"ch\000"
 8962 2e2a 09       		.byte	0x9
 8963 2e2b 0902     		.2byte	0x209
 8964 2e2d 24040000 		.4byte	0x424
 8965 2e31 59       		.uleb128 0x59
 8966 2e32 2A060000 		.4byte	.LASF262
 8967 2e36 13       		.byte	0x13
 8968 2e37 88       		.byte	0x88
 8969 2e38 450B0000 		.4byte	0xb45
 8970 2e3c 57       		.uleb128 0x57
 8971 2e3d FC000000 		.4byte	.LASF263
 8972 2e41 15       		.byte	0x15
 8973 2e42 F201     		.2byte	0x1f2
 8974 2e44 3F0C0000 		.4byte	0xc3f
 8975 2e48 5A       		.uleb128 0x5a
 8976 2e49 52060000 		.4byte	.LASF264
 8977 2e4d 01       		.byte	0x1
 8978 2e4e 15       		.byte	0x15
 8979 2e4f BA0E0000 		.4byte	0xeba
 8980 2e53 05       		.uleb128 0x5
 8981 2e54 03       		.byte	0x3
 8982 2e55 00000000 		.4byte	nrf24l01
 8983 2e59 5B       		.uleb128 0x5b
 8984 2e5a EB070000 		.4byte	.LASF265
 8985 2e5e 03       		.byte	0x3
 8986 2e5f 87       		.byte	0x87
 8987 2e60 6F2E0000 		.4byte	0x2e6f
 8988 2e64 0C       		.uleb128 0xc
 8989 2e65 1B0F0000 		.4byte	0xf1b
 8990 2e69 0C       		.uleb128 0xc
 8991 2e6a 3C010000 		.4byte	0x13c
 8992 2e6e 00       		.byte	0
 8993 2e6f 5C       		.uleb128 0x5c
 8994 2e70 910A0000 		.4byte	.LASF266
 8995 2e74 14       		.byte	0x14
 8996 2e75 0A01     		.2byte	0x10a
 8997 2e77 812E0000 		.4byte	0x2e81
 8998 2e7b 0C       		.uleb128 0xc
 8999 2e7c EB0C0000 		.4byte	0xceb
 9000 2e80 00       		.byte	0
 9001 2e81 5C       		.uleb128 0x5c
 9002 2e82 1B070000 		.4byte	.LASF267
ARM GAS  /var/folders/m4/4md61f0s1_g0rzfghffqnxvr0000gn/T//ccHVf8ER.s 			page 159


 9003 2e86 14       		.byte	0x14
 9004 2e87 1301     		.2byte	0x113
 9005 2e89 A22E0000 		.4byte	0x2ea2
 9006 2e8d 0C       		.uleb128 0xc
 9007 2e8e EB0C0000 		.4byte	0xceb
 9008 2e92 0C       		.uleb128 0xc
 9009 2e93 2C000000 		.4byte	0x2c
 9010 2e97 0C       		.uleb128 0xc
 9011 2e98 A22E0000 		.4byte	0x2ea2
 9012 2e9c 0C       		.uleb128 0xc
 9013 2e9d 55030000 		.4byte	0x355
 9014 2ea1 00       		.byte	0
 9015 2ea2 09       		.uleb128 0x9
 9016 2ea3 04       		.byte	0x4
 9017 2ea4 A82E0000 		.4byte	0x2ea8
 9018 2ea8 5D       		.uleb128 0x5d
 9019 2ea9 5C       		.uleb128 0x5c
 9020 2eaa 000A0000 		.4byte	.LASF268
 9021 2eae 14       		.byte	0x14
 9022 2eaf 1501     		.2byte	0x115
 9023 2eb1 C52E0000 		.4byte	0x2ec5
 9024 2eb5 0C       		.uleb128 0xc
 9025 2eb6 EB0C0000 		.4byte	0xceb
 9026 2eba 0C       		.uleb128 0xc
 9027 2ebb 2C000000 		.4byte	0x2c
 9028 2ebf 0C       		.uleb128 0xc
 9029 2ec0 55030000 		.4byte	0x355
 9030 2ec4 00       		.byte	0
 9031 2ec5 5C       		.uleb128 0x5c
 9032 2ec6 4E050000 		.4byte	.LASF269
 9033 2eca 14       		.byte	0x14
 9034 2ecb 0B01     		.2byte	0x10b
 9035 2ecd D72E0000 		.4byte	0x2ed7
 9036 2ed1 0C       		.uleb128 0xc
 9037 2ed2 EB0C0000 		.4byte	0xceb
 9038 2ed6 00       		.byte	0
 9039 2ed7 5C       		.uleb128 0x5c
 9040 2ed8 6A090000 		.4byte	.LASF270
 9041 2edc 14       		.byte	0x14
 9042 2edd 1401     		.2byte	0x114
 9043 2edf F32E0000 		.4byte	0x2ef3
 9044 2ee3 0C       		.uleb128 0xc
 9045 2ee4 EB0C0000 		.4byte	0xceb
 9046 2ee8 0C       		.uleb128 0xc
 9047 2ee9 2C000000 		.4byte	0x2c
 9048 2eed 0C       		.uleb128 0xc
 9049 2eee A22E0000 		.4byte	0x2ea2
 9050 2ef2 00       		.byte	0
 9051 2ef3 5C       		.uleb128 0x5c
 9052 2ef4 39010000 		.4byte	.LASF271
 9053 2ef8 11       		.byte	0x11
 9054 2ef9 2402     		.2byte	0x224
 9055 2efb 0F2F0000 		.4byte	0x2f0f
 9056 2eff 0C       		.uleb128 0xc
 9057 2f00 020B0000 		.4byte	0xb02
 9058 2f04 0C       		.uleb128 0xc
 9059 2f05 EA0A0000 		.4byte	0xaea
ARM GAS  /var/folders/m4/4md61f0s1_g0rzfghffqnxvr0000gn/T//ccHVf8ER.s 			page 160


 9060 2f09 0C       		.uleb128 0xc
 9061 2f0a F60A0000 		.4byte	0xaf6
 9062 2f0e 00       		.byte	0
 9063 2f0f 5C       		.uleb128 0x5c
 9064 2f10 1F000000 		.4byte	.LASF272
 9065 2f14 14       		.byte	0x14
 9066 2f15 0801     		.2byte	0x108
 9067 2f17 262F0000 		.4byte	0x2f26
 9068 2f1b 0C       		.uleb128 0xc
 9069 2f1c EB0C0000 		.4byte	0xceb
 9070 2f20 0C       		.uleb128 0xc
 9071 2f21 3B0D0000 		.4byte	0xd3b
 9072 2f25 00       		.byte	0
 9073 2f26 5B       		.uleb128 0x5b
 9074 2f27 89020000 		.4byte	.LASF273
 9075 2f2b 12       		.byte	0x12
 9076 2f2c 87       		.byte	0x87
 9077 2f2d 3C2F0000 		.4byte	0x2f3c
 9078 2f31 0C       		.uleb128 0xc
 9079 2f32 A10B0000 		.4byte	0xba1
 9080 2f36 0C       		.uleb128 0xc
 9081 2f37 020C0000 		.4byte	0xc02
 9082 2f3b 00       		.byte	0
 9083 2f3c 5B       		.uleb128 0x5b
 9084 2f3d 24030000 		.4byte	.LASF274
 9085 2f41 12       		.byte	0x12
 9086 2f42 89       		.byte	0x89
 9087 2f43 522F0000 		.4byte	0x2f52
 9088 2f47 0C       		.uleb128 0xc
 9089 2f48 A10B0000 		.4byte	0xba1
 9090 2f4c 0C       		.uleb128 0xc
 9091 2f4d 750B0000 		.4byte	0xb75
 9092 2f51 00       		.byte	0
 9093 2f52 5B       		.uleb128 0x5b
 9094 2f53 C5040000 		.4byte	.LASF275
 9095 2f57 03       		.byte	0x3
 9096 2f58 7B       		.byte	0x7b
 9097 2f59 722F0000 		.4byte	0x2f72
 9098 2f5d 0C       		.uleb128 0xc
 9099 2f5e 1B0F0000 		.4byte	0xf1b
 9100 2f62 0C       		.uleb128 0xc
 9101 2f63 7E080000 		.4byte	0x87e
 9102 2f67 0C       		.uleb128 0xc
 9103 2f68 31010000 		.4byte	0x131
 9104 2f6c 0C       		.uleb128 0xc
 9105 2f6d 3C010000 		.4byte	0x13c
 9106 2f71 00       		.byte	0
 9107 2f72 5B       		.uleb128 0x5b
 9108 2f73 18040000 		.4byte	.LASF276
 9109 2f77 03       		.byte	0x3
 9110 2f78 86       		.byte	0x86
 9111 2f79 882F0000 		.4byte	0x2f88
 9112 2f7d 0C       		.uleb128 0xc
 9113 2f7e 1B0F0000 		.4byte	0xf1b
 9114 2f82 0C       		.uleb128 0xc
 9115 2f83 3C010000 		.4byte	0x13c
 9116 2f87 00       		.byte	0
ARM GAS  /var/folders/m4/4md61f0s1_g0rzfghffqnxvr0000gn/T//ccHVf8ER.s 			page 161


 9117 2f88 5E       		.uleb128 0x5e
 9118 2f89 6E080000 		.4byte	.LASF278
 9119 2f8d 03       		.byte	0x3
 9120 2f8e 8F       		.byte	0x8f
 9121 2f8f 31010000 		.4byte	0x131
 9122 2f93 A22F0000 		.4byte	0x2fa2
 9123 2f97 0C       		.uleb128 0xc
 9124 2f98 31010000 		.4byte	0x131
 9125 2f9c 0C       		.uleb128 0xc
 9126 2f9d 52010000 		.4byte	0x152
 9127 2fa1 00       		.byte	0
 9128 2fa2 5F       		.uleb128 0x5f
 9129 2fa3 3B090000 		.4byte	.LASF283
 9130 2fa7 03       		.byte	0x3
 9131 2fa8 7F       		.byte	0x7f
 9132 2fa9 0C       		.uleb128 0xc
 9133 2faa 1B0F0000 		.4byte	0xf1b
 9134 2fae 0C       		.uleb128 0xc
 9135 2faf 7E080000 		.4byte	0x87e
 9136 2fb3 00       		.byte	0
 9137 2fb4 00       		.byte	0
 9138              		.section	.debug_abbrev,"",%progbits
 9139              	.Ldebug_abbrev0:
 9140 0000 01       		.uleb128 0x1
 9141 0001 11       		.uleb128 0x11
 9142 0002 01       		.byte	0x1
 9143 0003 25       		.uleb128 0x25
 9144 0004 0E       		.uleb128 0xe
 9145 0005 13       		.uleb128 0x13
 9146 0006 0B       		.uleb128 0xb
 9147 0007 03       		.uleb128 0x3
 9148 0008 0E       		.uleb128 0xe
 9149 0009 1B       		.uleb128 0x1b
 9150 000a 0E       		.uleb128 0xe
 9151 000b 55       		.uleb128 0x55
 9152 000c 17       		.uleb128 0x17
 9153 000d 11       		.uleb128 0x11
 9154 000e 01       		.uleb128 0x1
 9155 000f 10       		.uleb128 0x10
 9156 0010 17       		.uleb128 0x17
 9157 0011 00       		.byte	0
 9158 0012 00       		.byte	0
 9159 0013 02       		.uleb128 0x2
 9160 0014 24       		.uleb128 0x24
 9161 0015 00       		.byte	0
 9162 0016 0B       		.uleb128 0xb
 9163 0017 0B       		.uleb128 0xb
 9164 0018 3E       		.uleb128 0x3e
 9165 0019 0B       		.uleb128 0xb
 9166 001a 03       		.uleb128 0x3
 9167 001b 08       		.uleb128 0x8
 9168 001c 00       		.byte	0
 9169 001d 00       		.byte	0
 9170 001e 03       		.uleb128 0x3
 9171 001f 16       		.uleb128 0x16
 9172 0020 00       		.byte	0
 9173 0021 03       		.uleb128 0x3
ARM GAS  /var/folders/m4/4md61f0s1_g0rzfghffqnxvr0000gn/T//ccHVf8ER.s 			page 162


 9174 0022 0E       		.uleb128 0xe
 9175 0023 3A       		.uleb128 0x3a
 9176 0024 0B       		.uleb128 0xb
 9177 0025 3B       		.uleb128 0x3b
 9178 0026 0B       		.uleb128 0xb
 9179 0027 49       		.uleb128 0x49
 9180 0028 13       		.uleb128 0x13
 9181 0029 00       		.byte	0
 9182 002a 00       		.byte	0
 9183 002b 04       		.uleb128 0x4
 9184 002c 24       		.uleb128 0x24
 9185 002d 00       		.byte	0
 9186 002e 0B       		.uleb128 0xb
 9187 002f 0B       		.uleb128 0xb
 9188 0030 3E       		.uleb128 0x3e
 9189 0031 0B       		.uleb128 0xb
 9190 0032 03       		.uleb128 0x3
 9191 0033 0E       		.uleb128 0xe
 9192 0034 00       		.byte	0
 9193 0035 00       		.byte	0
 9194 0036 05       		.uleb128 0x5
 9195 0037 13       		.uleb128 0x13
 9196 0038 01       		.byte	0x1
 9197 0039 03       		.uleb128 0x3
 9198 003a 0E       		.uleb128 0xe
 9199 003b 0B       		.uleb128 0xb
 9200 003c 0B       		.uleb128 0xb
 9201 003d 3A       		.uleb128 0x3a
 9202 003e 0B       		.uleb128 0xb
 9203 003f 3B       		.uleb128 0x3b
 9204 0040 0B       		.uleb128 0xb
 9205 0041 01       		.uleb128 0x1
 9206 0042 13       		.uleb128 0x13
 9207 0043 00       		.byte	0
 9208 0044 00       		.byte	0
 9209 0045 06       		.uleb128 0x6
 9210 0046 0D       		.uleb128 0xd
 9211 0047 00       		.byte	0
 9212 0048 03       		.uleb128 0x3
 9213 0049 0E       		.uleb128 0xe
 9214 004a 3A       		.uleb128 0x3a
 9215 004b 0B       		.uleb128 0xb
 9216 004c 3B       		.uleb128 0x3b
 9217 004d 0B       		.uleb128 0xb
 9218 004e 49       		.uleb128 0x49
 9219 004f 13       		.uleb128 0x13
 9220 0050 38       		.uleb128 0x38
 9221 0051 0B       		.uleb128 0xb
 9222 0052 00       		.byte	0
 9223 0053 00       		.byte	0
 9224 0054 07       		.uleb128 0x7
 9225 0055 0D       		.uleb128 0xd
 9226 0056 00       		.byte	0
 9227 0057 03       		.uleb128 0x3
 9228 0058 08       		.uleb128 0x8
 9229 0059 3A       		.uleb128 0x3a
 9230 005a 0B       		.uleb128 0xb
ARM GAS  /var/folders/m4/4md61f0s1_g0rzfghffqnxvr0000gn/T//ccHVf8ER.s 			page 163


 9231 005b 3B       		.uleb128 0x3b
 9232 005c 05       		.uleb128 0x5
 9233 005d 49       		.uleb128 0x49
 9234 005e 13       		.uleb128 0x13
 9235 005f 38       		.uleb128 0x38
 9236 0060 0B       		.uleb128 0xb
 9237 0061 00       		.byte	0
 9238 0062 00       		.byte	0
 9239 0063 08       		.uleb128 0x8
 9240 0064 0D       		.uleb128 0xd
 9241 0065 00       		.byte	0
 9242 0066 03       		.uleb128 0x3
 9243 0067 0E       		.uleb128 0xe
 9244 0068 3A       		.uleb128 0x3a
 9245 0069 0B       		.uleb128 0xb
 9246 006a 3B       		.uleb128 0x3b
 9247 006b 05       		.uleb128 0x5
 9248 006c 49       		.uleb128 0x49
 9249 006d 13       		.uleb128 0x13
 9250 006e 38       		.uleb128 0x38
 9251 006f 0B       		.uleb128 0xb
 9252 0070 00       		.byte	0
 9253 0071 00       		.byte	0
 9254 0072 09       		.uleb128 0x9
 9255 0073 0F       		.uleb128 0xf
 9256 0074 00       		.byte	0
 9257 0075 0B       		.uleb128 0xb
 9258 0076 0B       		.uleb128 0xb
 9259 0077 49       		.uleb128 0x49
 9260 0078 13       		.uleb128 0x13
 9261 0079 00       		.byte	0
 9262 007a 00       		.byte	0
 9263 007b 0A       		.uleb128 0xa
 9264 007c 13       		.uleb128 0x13
 9265 007d 01       		.byte	0x1
 9266 007e 03       		.uleb128 0x3
 9267 007f 0E       		.uleb128 0xe
 9268 0080 0B       		.uleb128 0xb
 9269 0081 0B       		.uleb128 0xb
 9270 0082 3A       		.uleb128 0x3a
 9271 0083 0B       		.uleb128 0xb
 9272 0084 3B       		.uleb128 0x3b
 9273 0085 05       		.uleb128 0x5
 9274 0086 01       		.uleb128 0x1
 9275 0087 13       		.uleb128 0x13
 9276 0088 00       		.byte	0
 9277 0089 00       		.byte	0
 9278 008a 0B       		.uleb128 0xb
 9279 008b 15       		.uleb128 0x15
 9280 008c 01       		.byte	0x1
 9281 008d 27       		.uleb128 0x27
 9282 008e 19       		.uleb128 0x19
 9283 008f 01       		.uleb128 0x1
 9284 0090 13       		.uleb128 0x13
 9285 0091 00       		.byte	0
 9286 0092 00       		.byte	0
 9287 0093 0C       		.uleb128 0xc
ARM GAS  /var/folders/m4/4md61f0s1_g0rzfghffqnxvr0000gn/T//ccHVf8ER.s 			page 164


 9288 0094 05       		.uleb128 0x5
 9289 0095 00       		.byte	0
 9290 0096 49       		.uleb128 0x49
 9291 0097 13       		.uleb128 0x13
 9292 0098 00       		.byte	0
 9293 0099 00       		.byte	0
 9294 009a 0D       		.uleb128 0xd
 9295 009b 0F       		.uleb128 0xf
 9296 009c 00       		.byte	0
 9297 009d 0B       		.uleb128 0xb
 9298 009e 0B       		.uleb128 0xb
 9299 009f 00       		.byte	0
 9300 00a0 00       		.byte	0
 9301 00a1 0E       		.uleb128 0xe
 9302 00a2 13       		.uleb128 0x13
 9303 00a3 01       		.byte	0x1
 9304 00a4 03       		.uleb128 0x3
 9305 00a5 0E       		.uleb128 0xe
 9306 00a6 0B       		.uleb128 0xb
 9307 00a7 05       		.uleb128 0x5
 9308 00a8 3A       		.uleb128 0x3a
 9309 00a9 0B       		.uleb128 0xb
 9310 00aa 3B       		.uleb128 0x3b
 9311 00ab 05       		.uleb128 0x5
 9312 00ac 01       		.uleb128 0x1
 9313 00ad 13       		.uleb128 0x13
 9314 00ae 00       		.byte	0
 9315 00af 00       		.byte	0
 9316 00b0 0F       		.uleb128 0xf
 9317 00b1 35       		.uleb128 0x35
 9318 00b2 00       		.byte	0
 9319 00b3 49       		.uleb128 0x49
 9320 00b4 13       		.uleb128 0x13
 9321 00b5 00       		.byte	0
 9322 00b6 00       		.byte	0
 9323 00b7 10       		.uleb128 0x10
 9324 00b8 13       		.uleb128 0x13
 9325 00b9 01       		.byte	0x1
 9326 00ba 0B       		.uleb128 0xb
 9327 00bb 0B       		.uleb128 0xb
 9328 00bc 3A       		.uleb128 0x3a
 9329 00bd 0B       		.uleb128 0xb
 9330 00be 3B       		.uleb128 0x3b
 9331 00bf 05       		.uleb128 0x5
 9332 00c0 01       		.uleb128 0x1
 9333 00c1 13       		.uleb128 0x13
 9334 00c2 00       		.byte	0
 9335 00c3 00       		.byte	0
 9336 00c4 11       		.uleb128 0x11
 9337 00c5 16       		.uleb128 0x16
 9338 00c6 00       		.byte	0
 9339 00c7 03       		.uleb128 0x3
 9340 00c8 0E       		.uleb128 0xe
 9341 00c9 3A       		.uleb128 0x3a
 9342 00ca 0B       		.uleb128 0xb
 9343 00cb 3B       		.uleb128 0x3b
 9344 00cc 05       		.uleb128 0x5
ARM GAS  /var/folders/m4/4md61f0s1_g0rzfghffqnxvr0000gn/T//ccHVf8ER.s 			page 165


 9345 00cd 49       		.uleb128 0x49
 9346 00ce 13       		.uleb128 0x13
 9347 00cf 00       		.byte	0
 9348 00d0 00       		.byte	0
 9349 00d1 12       		.uleb128 0x12
 9350 00d2 0D       		.uleb128 0xd
 9351 00d3 00       		.byte	0
 9352 00d4 03       		.uleb128 0x3
 9353 00d5 08       		.uleb128 0x8
 9354 00d6 3A       		.uleb128 0x3a
 9355 00d7 0B       		.uleb128 0xb
 9356 00d8 3B       		.uleb128 0x3b
 9357 00d9 0B       		.uleb128 0xb
 9358 00da 49       		.uleb128 0x49
 9359 00db 13       		.uleb128 0x13
 9360 00dc 38       		.uleb128 0x38
 9361 00dd 0B       		.uleb128 0xb
 9362 00de 00       		.byte	0
 9363 00df 00       		.byte	0
 9364 00e0 13       		.uleb128 0x13
 9365 00e1 13       		.uleb128 0x13
 9366 00e2 01       		.byte	0x1
 9367 00e3 0B       		.uleb128 0xb
 9368 00e4 0B       		.uleb128 0xb
 9369 00e5 3A       		.uleb128 0x3a
 9370 00e6 0B       		.uleb128 0xb
 9371 00e7 3B       		.uleb128 0x3b
 9372 00e8 0B       		.uleb128 0xb
 9373 00e9 01       		.uleb128 0x1
 9374 00ea 13       		.uleb128 0x13
 9375 00eb 00       		.byte	0
 9376 00ec 00       		.byte	0
 9377 00ed 14       		.uleb128 0x14
 9378 00ee 17       		.uleb128 0x17
 9379 00ef 01       		.byte	0x1
 9380 00f0 0B       		.uleb128 0xb
 9381 00f1 0B       		.uleb128 0xb
 9382 00f2 3A       		.uleb128 0x3a
 9383 00f3 0B       		.uleb128 0xb
 9384 00f4 3B       		.uleb128 0x3b
 9385 00f5 0B       		.uleb128 0xb
 9386 00f6 01       		.uleb128 0x1
 9387 00f7 13       		.uleb128 0x13
 9388 00f8 00       		.byte	0
 9389 00f9 00       		.byte	0
 9390 00fa 15       		.uleb128 0x15
 9391 00fb 0D       		.uleb128 0xd
 9392 00fc 00       		.byte	0
 9393 00fd 03       		.uleb128 0x3
 9394 00fe 0E       		.uleb128 0xe
 9395 00ff 3A       		.uleb128 0x3a
 9396 0100 0B       		.uleb128 0xb
 9397 0101 3B       		.uleb128 0x3b
 9398 0102 05       		.uleb128 0x5
 9399 0103 49       		.uleb128 0x49
 9400 0104 13       		.uleb128 0x13
 9401 0105 00       		.byte	0
ARM GAS  /var/folders/m4/4md61f0s1_g0rzfghffqnxvr0000gn/T//ccHVf8ER.s 			page 166


 9402 0106 00       		.byte	0
 9403 0107 16       		.uleb128 0x16
 9404 0108 26       		.uleb128 0x26
 9405 0109 00       		.byte	0
 9406 010a 49       		.uleb128 0x49
 9407 010b 13       		.uleb128 0x13
 9408 010c 00       		.byte	0
 9409 010d 00       		.byte	0
 9410 010e 17       		.uleb128 0x17
 9411 010f 01       		.uleb128 0x1
 9412 0110 01       		.byte	0x1
 9413 0111 49       		.uleb128 0x49
 9414 0112 13       		.uleb128 0x13
 9415 0113 01       		.uleb128 0x1
 9416 0114 13       		.uleb128 0x13
 9417 0115 00       		.byte	0
 9418 0116 00       		.byte	0
 9419 0117 18       		.uleb128 0x18
 9420 0118 21       		.uleb128 0x21
 9421 0119 00       		.byte	0
 9422 011a 49       		.uleb128 0x49
 9423 011b 13       		.uleb128 0x13
 9424 011c 2F       		.uleb128 0x2f
 9425 011d 0B       		.uleb128 0xb
 9426 011e 00       		.byte	0
 9427 011f 00       		.byte	0
 9428 0120 19       		.uleb128 0x19
 9429 0121 15       		.uleb128 0x15
 9430 0122 01       		.byte	0x1
 9431 0123 27       		.uleb128 0x27
 9432 0124 19       		.uleb128 0x19
 9433 0125 49       		.uleb128 0x49
 9434 0126 13       		.uleb128 0x13
 9435 0127 01       		.uleb128 0x1
 9436 0128 13       		.uleb128 0x13
 9437 0129 00       		.byte	0
 9438 012a 00       		.byte	0
 9439 012b 1A       		.uleb128 0x1a
 9440 012c 0D       		.uleb128 0xd
 9441 012d 00       		.byte	0
 9442 012e 03       		.uleb128 0x3
 9443 012f 08       		.uleb128 0x8
 9444 0130 3A       		.uleb128 0x3a
 9445 0131 0B       		.uleb128 0xb
 9446 0132 3B       		.uleb128 0x3b
 9447 0133 0B       		.uleb128 0xb
 9448 0134 49       		.uleb128 0x49
 9449 0135 13       		.uleb128 0x13
 9450 0136 00       		.byte	0
 9451 0137 00       		.byte	0
 9452 0138 1B       		.uleb128 0x1b
 9453 0139 04       		.uleb128 0x4
 9454 013a 01       		.byte	0x1
 9455 013b 0B       		.uleb128 0xb
 9456 013c 0B       		.uleb128 0xb
 9457 013d 3A       		.uleb128 0x3a
 9458 013e 0B       		.uleb128 0xb
ARM GAS  /var/folders/m4/4md61f0s1_g0rzfghffqnxvr0000gn/T//ccHVf8ER.s 			page 167


 9459 013f 3B       		.uleb128 0x3b
 9460 0140 0B       		.uleb128 0xb
 9461 0141 01       		.uleb128 0x1
 9462 0142 13       		.uleb128 0x13
 9463 0143 00       		.byte	0
 9464 0144 00       		.byte	0
 9465 0145 1C       		.uleb128 0x1c
 9466 0146 28       		.uleb128 0x28
 9467 0147 00       		.byte	0
 9468 0148 03       		.uleb128 0x3
 9469 0149 0E       		.uleb128 0xe
 9470 014a 1C       		.uleb128 0x1c
 9471 014b 0D       		.uleb128 0xd
 9472 014c 00       		.byte	0
 9473 014d 00       		.byte	0
 9474 014e 1D       		.uleb128 0x1d
 9475 014f 13       		.uleb128 0x13
 9476 0150 01       		.byte	0x1
 9477 0151 03       		.uleb128 0x3
 9478 0152 0E       		.uleb128 0xe
 9479 0153 0B       		.uleb128 0xb
 9480 0154 05       		.uleb128 0x5
 9481 0155 3A       		.uleb128 0x3a
 9482 0156 0B       		.uleb128 0xb
 9483 0157 3B       		.uleb128 0x3b
 9484 0158 0B       		.uleb128 0xb
 9485 0159 01       		.uleb128 0x1
 9486 015a 13       		.uleb128 0x13
 9487 015b 00       		.byte	0
 9488 015c 00       		.byte	0
 9489 015d 1E       		.uleb128 0x1e
 9490 015e 0D       		.uleb128 0xd
 9491 015f 00       		.byte	0
 9492 0160 03       		.uleb128 0x3
 9493 0161 0E       		.uleb128 0xe
 9494 0162 3A       		.uleb128 0x3a
 9495 0163 0B       		.uleb128 0xb
 9496 0164 3B       		.uleb128 0x3b
 9497 0165 0B       		.uleb128 0xb
 9498 0166 49       		.uleb128 0x49
 9499 0167 13       		.uleb128 0x13
 9500 0168 38       		.uleb128 0x38
 9501 0169 05       		.uleb128 0x5
 9502 016a 00       		.byte	0
 9503 016b 00       		.byte	0
 9504 016c 1F       		.uleb128 0x1f
 9505 016d 2E       		.uleb128 0x2e
 9506 016e 01       		.byte	0x1
 9507 016f 03       		.uleb128 0x3
 9508 0170 0E       		.uleb128 0xe
 9509 0171 3A       		.uleb128 0x3a
 9510 0172 0B       		.uleb128 0xb
 9511 0173 3B       		.uleb128 0x3b
 9512 0174 05       		.uleb128 0x5
 9513 0175 27       		.uleb128 0x27
 9514 0176 19       		.uleb128 0x19
 9515 0177 20       		.uleb128 0x20
ARM GAS  /var/folders/m4/4md61f0s1_g0rzfghffqnxvr0000gn/T//ccHVf8ER.s 			page 168


 9516 0178 0B       		.uleb128 0xb
 9517 0179 01       		.uleb128 0x1
 9518 017a 13       		.uleb128 0x13
 9519 017b 00       		.byte	0
 9520 017c 00       		.byte	0
 9521 017d 20       		.uleb128 0x20
 9522 017e 05       		.uleb128 0x5
 9523 017f 00       		.byte	0
 9524 0180 03       		.uleb128 0x3
 9525 0181 0E       		.uleb128 0xe
 9526 0182 3A       		.uleb128 0x3a
 9527 0183 0B       		.uleb128 0xb
 9528 0184 3B       		.uleb128 0x3b
 9529 0185 05       		.uleb128 0x5
 9530 0186 49       		.uleb128 0x49
 9531 0187 13       		.uleb128 0x13
 9532 0188 00       		.byte	0
 9533 0189 00       		.byte	0
 9534 018a 21       		.uleb128 0x21
 9535 018b 2E       		.uleb128 0x2e
 9536 018c 00       		.byte	0
 9537 018d 03       		.uleb128 0x3
 9538 018e 0E       		.uleb128 0xe
 9539 018f 3A       		.uleb128 0x3a
 9540 0190 0B       		.uleb128 0xb
 9541 0191 3B       		.uleb128 0x3b
 9542 0192 05       		.uleb128 0x5
 9543 0193 27       		.uleb128 0x27
 9544 0194 19       		.uleb128 0x19
 9545 0195 20       		.uleb128 0x20
 9546 0196 0B       		.uleb128 0xb
 9547 0197 00       		.byte	0
 9548 0198 00       		.byte	0
 9549 0199 22       		.uleb128 0x22
 9550 019a 2E       		.uleb128 0x2e
 9551 019b 01       		.byte	0x1
 9552 019c 03       		.uleb128 0x3
 9553 019d 0E       		.uleb128 0xe
 9554 019e 3A       		.uleb128 0x3a
 9555 019f 0B       		.uleb128 0xb
 9556 01a0 3B       		.uleb128 0x3b
 9557 01a1 0B       		.uleb128 0xb
 9558 01a2 27       		.uleb128 0x27
 9559 01a3 19       		.uleb128 0x19
 9560 01a4 20       		.uleb128 0x20
 9561 01a5 0B       		.uleb128 0xb
 9562 01a6 01       		.uleb128 0x1
 9563 01a7 13       		.uleb128 0x13
 9564 01a8 00       		.byte	0
 9565 01a9 00       		.byte	0
 9566 01aa 23       		.uleb128 0x23
 9567 01ab 05       		.uleb128 0x5
 9568 01ac 00       		.byte	0
 9569 01ad 03       		.uleb128 0x3
 9570 01ae 08       		.uleb128 0x8
 9571 01af 3A       		.uleb128 0x3a
 9572 01b0 0B       		.uleb128 0xb
ARM GAS  /var/folders/m4/4md61f0s1_g0rzfghffqnxvr0000gn/T//ccHVf8ER.s 			page 169


 9573 01b1 3B       		.uleb128 0x3b
 9574 01b2 0B       		.uleb128 0xb
 9575 01b3 49       		.uleb128 0x49
 9576 01b4 13       		.uleb128 0x13
 9577 01b5 00       		.byte	0
 9578 01b6 00       		.byte	0
 9579 01b7 24       		.uleb128 0x24
 9580 01b8 2E       		.uleb128 0x2e
 9581 01b9 01       		.byte	0x1
 9582 01ba 3F       		.uleb128 0x3f
 9583 01bb 19       		.uleb128 0x19
 9584 01bc 03       		.uleb128 0x3
 9585 01bd 0E       		.uleb128 0xe
 9586 01be 3A       		.uleb128 0x3a
 9587 01bf 0B       		.uleb128 0xb
 9588 01c0 3B       		.uleb128 0x3b
 9589 01c1 05       		.uleb128 0x5
 9590 01c2 27       		.uleb128 0x27
 9591 01c3 19       		.uleb128 0x19
 9592 01c4 20       		.uleb128 0x20
 9593 01c5 0B       		.uleb128 0xb
 9594 01c6 01       		.uleb128 0x1
 9595 01c7 13       		.uleb128 0x13
 9596 01c8 00       		.byte	0
 9597 01c9 00       		.byte	0
 9598 01ca 25       		.uleb128 0x25
 9599 01cb 34       		.uleb128 0x34
 9600 01cc 00       		.byte	0
 9601 01cd 03       		.uleb128 0x3
 9602 01ce 08       		.uleb128 0x8
 9603 01cf 3A       		.uleb128 0x3a
 9604 01d0 0B       		.uleb128 0xb
 9605 01d1 3B       		.uleb128 0x3b
 9606 01d2 05       		.uleb128 0x5
 9607 01d3 49       		.uleb128 0x49
 9608 01d4 13       		.uleb128 0x13
 9609 01d5 00       		.byte	0
 9610 01d6 00       		.byte	0
 9611 01d7 26       		.uleb128 0x26
 9612 01d8 34       		.uleb128 0x34
 9613 01d9 00       		.byte	0
 9614 01da 03       		.uleb128 0x3
 9615 01db 0E       		.uleb128 0xe
 9616 01dc 3A       		.uleb128 0x3a
 9617 01dd 0B       		.uleb128 0xb
 9618 01de 3B       		.uleb128 0x3b
 9619 01df 05       		.uleb128 0x5
 9620 01e0 49       		.uleb128 0x49
 9621 01e1 13       		.uleb128 0x13
 9622 01e2 00       		.byte	0
 9623 01e3 00       		.byte	0
 9624 01e4 27       		.uleb128 0x27
 9625 01e5 0B       		.uleb128 0xb
 9626 01e6 01       		.byte	0x1
 9627 01e7 00       		.byte	0
 9628 01e8 00       		.byte	0
 9629 01e9 28       		.uleb128 0x28
ARM GAS  /var/folders/m4/4md61f0s1_g0rzfghffqnxvr0000gn/T//ccHVf8ER.s 			page 170


 9630 01ea 05       		.uleb128 0x5
 9631 01eb 00       		.byte	0
 9632 01ec 03       		.uleb128 0x3
 9633 01ed 08       		.uleb128 0x8
 9634 01ee 3A       		.uleb128 0x3a
 9635 01ef 0B       		.uleb128 0xb
 9636 01f0 3B       		.uleb128 0x3b
 9637 01f1 05       		.uleb128 0x5
 9638 01f2 49       		.uleb128 0x49
 9639 01f3 13       		.uleb128 0x13
 9640 01f4 00       		.byte	0
 9641 01f5 00       		.byte	0
 9642 01f6 29       		.uleb128 0x29
 9643 01f7 05       		.uleb128 0x5
 9644 01f8 00       		.byte	0
 9645 01f9 03       		.uleb128 0x3
 9646 01fa 0E       		.uleb128 0xe
 9647 01fb 3A       		.uleb128 0x3a
 9648 01fc 0B       		.uleb128 0xb
 9649 01fd 3B       		.uleb128 0x3b
 9650 01fe 0B       		.uleb128 0xb
 9651 01ff 49       		.uleb128 0x49
 9652 0200 13       		.uleb128 0x13
 9653 0201 00       		.byte	0
 9654 0202 00       		.byte	0
 9655 0203 2A       		.uleb128 0x2a
 9656 0204 2E       		.uleb128 0x2e
 9657 0205 01       		.byte	0x1
 9658 0206 3F       		.uleb128 0x3f
 9659 0207 19       		.uleb128 0x19
 9660 0208 03       		.uleb128 0x3
 9661 0209 0E       		.uleb128 0xe
 9662 020a 3A       		.uleb128 0x3a
 9663 020b 0B       		.uleb128 0xb
 9664 020c 3B       		.uleb128 0x3b
 9665 020d 05       		.uleb128 0x5
 9666 020e 27       		.uleb128 0x27
 9667 020f 19       		.uleb128 0x19
 9668 0210 49       		.uleb128 0x49
 9669 0211 13       		.uleb128 0x13
 9670 0212 20       		.uleb128 0x20
 9671 0213 0B       		.uleb128 0xb
 9672 0214 01       		.uleb128 0x1
 9673 0215 13       		.uleb128 0x13
 9674 0216 00       		.byte	0
 9675 0217 00       		.byte	0
 9676 0218 2B       		.uleb128 0x2b
 9677 0219 2E       		.uleb128 0x2e
 9678 021a 01       		.byte	0x1
 9679 021b 03       		.uleb128 0x3
 9680 021c 0E       		.uleb128 0xe
 9681 021d 3A       		.uleb128 0x3a
 9682 021e 0B       		.uleb128 0xb
 9683 021f 3B       		.uleb128 0x3b
 9684 0220 0B       		.uleb128 0xb
 9685 0221 27       		.uleb128 0x27
 9686 0222 19       		.uleb128 0x19
ARM GAS  /var/folders/m4/4md61f0s1_g0rzfghffqnxvr0000gn/T//ccHVf8ER.s 			page 171


 9687 0223 49       		.uleb128 0x49
 9688 0224 13       		.uleb128 0x13
 9689 0225 20       		.uleb128 0x20
 9690 0226 0B       		.uleb128 0xb
 9691 0227 01       		.uleb128 0x1
 9692 0228 13       		.uleb128 0x13
 9693 0229 00       		.byte	0
 9694 022a 00       		.byte	0
 9695 022b 2C       		.uleb128 0x2c
 9696 022c 0B       		.uleb128 0xb
 9697 022d 01       		.byte	0x1
 9698 022e 01       		.uleb128 0x1
 9699 022f 13       		.uleb128 0x13
 9700 0230 00       		.byte	0
 9701 0231 00       		.byte	0
 9702 0232 2D       		.uleb128 0x2d
 9703 0233 2E       		.uleb128 0x2e
 9704 0234 01       		.byte	0x1
 9705 0235 03       		.uleb128 0x3
 9706 0236 0E       		.uleb128 0xe
 9707 0237 3A       		.uleb128 0x3a
 9708 0238 0B       		.uleb128 0xb
 9709 0239 3B       		.uleb128 0x3b
 9710 023a 0B       		.uleb128 0xb
 9711 023b 27       		.uleb128 0x27
 9712 023c 19       		.uleb128 0x19
 9713 023d 11       		.uleb128 0x11
 9714 023e 01       		.uleb128 0x1
 9715 023f 12       		.uleb128 0x12
 9716 0240 06       		.uleb128 0x6
 9717 0241 40       		.uleb128 0x40
 9718 0242 18       		.uleb128 0x18
 9719 0243 9742     		.uleb128 0x2117
 9720 0245 19       		.uleb128 0x19
 9721 0246 01       		.uleb128 0x1
 9722 0247 13       		.uleb128 0x13
 9723 0248 00       		.byte	0
 9724 0249 00       		.byte	0
 9725 024a 2E       		.uleb128 0x2e
 9726 024b 05       		.uleb128 0x5
 9727 024c 00       		.byte	0
 9728 024d 03       		.uleb128 0x3
 9729 024e 0E       		.uleb128 0xe
 9730 024f 3A       		.uleb128 0x3a
 9731 0250 0B       		.uleb128 0xb
 9732 0251 3B       		.uleb128 0x3b
 9733 0252 0B       		.uleb128 0xb
 9734 0253 49       		.uleb128 0x49
 9735 0254 13       		.uleb128 0x13
 9736 0255 02       		.uleb128 0x2
 9737 0256 17       		.uleb128 0x17
 9738 0257 00       		.byte	0
 9739 0258 00       		.byte	0
 9740 0259 2F       		.uleb128 0x2f
 9741 025a 1D       		.uleb128 0x1d
 9742 025b 01       		.byte	0x1
 9743 025c 31       		.uleb128 0x31
ARM GAS  /var/folders/m4/4md61f0s1_g0rzfghffqnxvr0000gn/T//ccHVf8ER.s 			page 172


 9744 025d 13       		.uleb128 0x13
 9745 025e 11       		.uleb128 0x11
 9746 025f 01       		.uleb128 0x1
 9747 0260 12       		.uleb128 0x12
 9748 0261 06       		.uleb128 0x6
 9749 0262 58       		.uleb128 0x58
 9750 0263 0B       		.uleb128 0xb
 9751 0264 59       		.uleb128 0x59
 9752 0265 0B       		.uleb128 0xb
 9753 0266 00       		.byte	0
 9754 0267 00       		.byte	0
 9755 0268 30       		.uleb128 0x30
 9756 0269 05       		.uleb128 0x5
 9757 026a 00       		.byte	0
 9758 026b 31       		.uleb128 0x31
 9759 026c 13       		.uleb128 0x13
 9760 026d 02       		.uleb128 0x2
 9761 026e 18       		.uleb128 0x18
 9762 026f 00       		.byte	0
 9763 0270 00       		.byte	0
 9764 0271 31       		.uleb128 0x31
 9765 0272 1D       		.uleb128 0x1d
 9766 0273 01       		.byte	0x1
 9767 0274 31       		.uleb128 0x31
 9768 0275 13       		.uleb128 0x13
 9769 0276 11       		.uleb128 0x11
 9770 0277 01       		.uleb128 0x1
 9771 0278 12       		.uleb128 0x12
 9772 0279 06       		.uleb128 0x6
 9773 027a 58       		.uleb128 0x58
 9774 027b 0B       		.uleb128 0xb
 9775 027c 59       		.uleb128 0x59
 9776 027d 05       		.uleb128 0x5
 9777 027e 01       		.uleb128 0x1
 9778 027f 13       		.uleb128 0x13
 9779 0280 00       		.byte	0
 9780 0281 00       		.byte	0
 9781 0282 32       		.uleb128 0x32
 9782 0283 1D       		.uleb128 0x1d
 9783 0284 01       		.byte	0x1
 9784 0285 31       		.uleb128 0x31
 9785 0286 13       		.uleb128 0x13
 9786 0287 11       		.uleb128 0x11
 9787 0288 01       		.uleb128 0x1
 9788 0289 12       		.uleb128 0x12
 9789 028a 06       		.uleb128 0x6
 9790 028b 58       		.uleb128 0x58
 9791 028c 0B       		.uleb128 0xb
 9792 028d 59       		.uleb128 0x59
 9793 028e 05       		.uleb128 0x5
 9794 028f 00       		.byte	0
 9795 0290 00       		.byte	0
 9796 0291 33       		.uleb128 0x33
 9797 0292 05       		.uleb128 0x5
 9798 0293 00       		.byte	0
 9799 0294 31       		.uleb128 0x31
 9800 0295 13       		.uleb128 0x13
ARM GAS  /var/folders/m4/4md61f0s1_g0rzfghffqnxvr0000gn/T//ccHVf8ER.s 			page 173


 9801 0296 1C       		.uleb128 0x1c
 9802 0297 0B       		.uleb128 0xb
 9803 0298 00       		.byte	0
 9804 0299 00       		.byte	0
 9805 029a 34       		.uleb128 0x34
 9806 029b 898201   		.uleb128 0x4109
 9807 029e 01       		.byte	0x1
 9808 029f 11       		.uleb128 0x11
 9809 02a0 01       		.uleb128 0x1
 9810 02a1 31       		.uleb128 0x31
 9811 02a2 13       		.uleb128 0x13
 9812 02a3 00       		.byte	0
 9813 02a4 00       		.byte	0
 9814 02a5 35       		.uleb128 0x35
 9815 02a6 8A8201   		.uleb128 0x410a
 9816 02a9 00       		.byte	0
 9817 02aa 02       		.uleb128 0x2
 9818 02ab 18       		.uleb128 0x18
 9819 02ac 9142     		.uleb128 0x2111
 9820 02ae 18       		.uleb128 0x18
 9821 02af 00       		.byte	0
 9822 02b0 00       		.byte	0
 9823 02b1 36       		.uleb128 0x36
 9824 02b2 2E       		.uleb128 0x2e
 9825 02b3 01       		.byte	0x1
 9826 02b4 31       		.uleb128 0x31
 9827 02b5 13       		.uleb128 0x13
 9828 02b6 11       		.uleb128 0x11
 9829 02b7 01       		.uleb128 0x1
 9830 02b8 12       		.uleb128 0x12
 9831 02b9 06       		.uleb128 0x6
 9832 02ba 40       		.uleb128 0x40
 9833 02bb 18       		.uleb128 0x18
 9834 02bc 9742     		.uleb128 0x2117
 9835 02be 19       		.uleb128 0x19
 9836 02bf 01       		.uleb128 0x1
 9837 02c0 13       		.uleb128 0x13
 9838 02c1 00       		.byte	0
 9839 02c2 00       		.byte	0
 9840 02c3 37       		.uleb128 0x37
 9841 02c4 05       		.uleb128 0x5
 9842 02c5 00       		.byte	0
 9843 02c6 31       		.uleb128 0x31
 9844 02c7 13       		.uleb128 0x13
 9845 02c8 02       		.uleb128 0x2
 9846 02c9 17       		.uleb128 0x17
 9847 02ca 00       		.byte	0
 9848 02cb 00       		.byte	0
 9849 02cc 38       		.uleb128 0x38
 9850 02cd 34       		.uleb128 0x34
 9851 02ce 00       		.byte	0
 9852 02cf 31       		.uleb128 0x31
 9853 02d0 13       		.uleb128 0x13
 9854 02d1 02       		.uleb128 0x2
 9855 02d2 18       		.uleb128 0x18
 9856 02d3 00       		.byte	0
 9857 02d4 00       		.byte	0
ARM GAS  /var/folders/m4/4md61f0s1_g0rzfghffqnxvr0000gn/T//ccHVf8ER.s 			page 174


 9858 02d5 39       		.uleb128 0x39
 9859 02d6 898201   		.uleb128 0x4109
 9860 02d9 00       		.byte	0
 9861 02da 11       		.uleb128 0x11
 9862 02db 01       		.uleb128 0x1
 9863 02dc 31       		.uleb128 0x31
 9864 02dd 13       		.uleb128 0x13
 9865 02de 00       		.byte	0
 9866 02df 00       		.byte	0
 9867 02e0 3A       		.uleb128 0x3a
 9868 02e1 898201   		.uleb128 0x4109
 9869 02e4 01       		.byte	0x1
 9870 02e5 11       		.uleb128 0x11
 9871 02e6 01       		.uleb128 0x1
 9872 02e7 31       		.uleb128 0x31
 9873 02e8 13       		.uleb128 0x13
 9874 02e9 01       		.uleb128 0x1
 9875 02ea 13       		.uleb128 0x13
 9876 02eb 00       		.byte	0
 9877 02ec 00       		.byte	0
 9878 02ed 3B       		.uleb128 0x3b
 9879 02ee 0B       		.uleb128 0xb
 9880 02ef 01       		.byte	0x1
 9881 02f0 11       		.uleb128 0x11
 9882 02f1 01       		.uleb128 0x1
 9883 02f2 12       		.uleb128 0x12
 9884 02f3 06       		.uleb128 0x6
 9885 02f4 01       		.uleb128 0x1
 9886 02f5 13       		.uleb128 0x13
 9887 02f6 00       		.byte	0
 9888 02f7 00       		.byte	0
 9889 02f8 3C       		.uleb128 0x3c
 9890 02f9 34       		.uleb128 0x34
 9891 02fa 00       		.byte	0
 9892 02fb 31       		.uleb128 0x31
 9893 02fc 13       		.uleb128 0x13
 9894 02fd 02       		.uleb128 0x2
 9895 02fe 17       		.uleb128 0x17
 9896 02ff 00       		.byte	0
 9897 0300 00       		.byte	0
 9898 0301 3D       		.uleb128 0x3d
 9899 0302 2E       		.uleb128 0x2e
 9900 0303 01       		.byte	0x1
 9901 0304 3F       		.uleb128 0x3f
 9902 0305 19       		.uleb128 0x19
 9903 0306 03       		.uleb128 0x3
 9904 0307 0E       		.uleb128 0xe
 9905 0308 3A       		.uleb128 0x3a
 9906 0309 0B       		.uleb128 0xb
 9907 030a 3B       		.uleb128 0x3b
 9908 030b 05       		.uleb128 0x5
 9909 030c 27       		.uleb128 0x27
 9910 030d 19       		.uleb128 0x19
 9911 030e 11       		.uleb128 0x11
 9912 030f 01       		.uleb128 0x1
 9913 0310 12       		.uleb128 0x12
 9914 0311 06       		.uleb128 0x6
ARM GAS  /var/folders/m4/4md61f0s1_g0rzfghffqnxvr0000gn/T//ccHVf8ER.s 			page 175


 9915 0312 40       		.uleb128 0x40
 9916 0313 18       		.uleb128 0x18
 9917 0314 9742     		.uleb128 0x2117
 9918 0316 19       		.uleb128 0x19
 9919 0317 01       		.uleb128 0x1
 9920 0318 13       		.uleb128 0x13
 9921 0319 00       		.byte	0
 9922 031a 00       		.byte	0
 9923 031b 3E       		.uleb128 0x3e
 9924 031c 05       		.uleb128 0x5
 9925 031d 00       		.byte	0
 9926 031e 03       		.uleb128 0x3
 9927 031f 0E       		.uleb128 0xe
 9928 0320 3A       		.uleb128 0x3a
 9929 0321 0B       		.uleb128 0xb
 9930 0322 3B       		.uleb128 0x3b
 9931 0323 05       		.uleb128 0x5
 9932 0324 49       		.uleb128 0x49
 9933 0325 13       		.uleb128 0x13
 9934 0326 02       		.uleb128 0x2
 9935 0327 17       		.uleb128 0x17
 9936 0328 00       		.byte	0
 9937 0329 00       		.byte	0
 9938 032a 3F       		.uleb128 0x3f
 9939 032b 05       		.uleb128 0x5
 9940 032c 00       		.byte	0
 9941 032d 03       		.uleb128 0x3
 9942 032e 08       		.uleb128 0x8
 9943 032f 3A       		.uleb128 0x3a
 9944 0330 0B       		.uleb128 0xb
 9945 0331 3B       		.uleb128 0x3b
 9946 0332 05       		.uleb128 0x5
 9947 0333 49       		.uleb128 0x49
 9948 0334 13       		.uleb128 0x13
 9949 0335 02       		.uleb128 0x2
 9950 0336 17       		.uleb128 0x17
 9951 0337 00       		.byte	0
 9952 0338 00       		.byte	0
 9953 0339 40       		.uleb128 0x40
 9954 033a 34       		.uleb128 0x34
 9955 033b 00       		.byte	0
 9956 033c 03       		.uleb128 0x3
 9957 033d 08       		.uleb128 0x8
 9958 033e 3A       		.uleb128 0x3a
 9959 033f 0B       		.uleb128 0xb
 9960 0340 3B       		.uleb128 0x3b
 9961 0341 05       		.uleb128 0x5
 9962 0342 49       		.uleb128 0x49
 9963 0343 13       		.uleb128 0x13
 9964 0344 02       		.uleb128 0x2
 9965 0345 18       		.uleb128 0x18
 9966 0346 00       		.byte	0
 9967 0347 00       		.byte	0
 9968 0348 41       		.uleb128 0x41
 9969 0349 2E       		.uleb128 0x2e
 9970 034a 01       		.byte	0x1
 9971 034b 3F       		.uleb128 0x3f
ARM GAS  /var/folders/m4/4md61f0s1_g0rzfghffqnxvr0000gn/T//ccHVf8ER.s 			page 176


 9972 034c 19       		.uleb128 0x19
 9973 034d 03       		.uleb128 0x3
 9974 034e 0E       		.uleb128 0xe
 9975 034f 3A       		.uleb128 0x3a
 9976 0350 0B       		.uleb128 0xb
 9977 0351 3B       		.uleb128 0x3b
 9978 0352 05       		.uleb128 0x5
 9979 0353 27       		.uleb128 0x27
 9980 0354 19       		.uleb128 0x19
 9981 0355 49       		.uleb128 0x49
 9982 0356 13       		.uleb128 0x13
 9983 0357 11       		.uleb128 0x11
 9984 0358 01       		.uleb128 0x1
 9985 0359 12       		.uleb128 0x12
 9986 035a 06       		.uleb128 0x6
 9987 035b 40       		.uleb128 0x40
 9988 035c 18       		.uleb128 0x18
 9989 035d 9742     		.uleb128 0x2117
 9990 035f 19       		.uleb128 0x19
 9991 0360 01       		.uleb128 0x1
 9992 0361 13       		.uleb128 0x13
 9993 0362 00       		.byte	0
 9994 0363 00       		.byte	0
 9995 0364 42       		.uleb128 0x42
 9996 0365 34       		.uleb128 0x34
 9997 0366 00       		.byte	0
 9998 0367 03       		.uleb128 0x3
 9999 0368 0E       		.uleb128 0xe
 10000 0369 3A       		.uleb128 0x3a
 10001 036a 0B       		.uleb128 0xb
 10002 036b 3B       		.uleb128 0x3b
 10003 036c 05       		.uleb128 0x5
 10004 036d 49       		.uleb128 0x49
 10005 036e 13       		.uleb128 0x13
 10006 036f 02       		.uleb128 0x2
 10007 0370 18       		.uleb128 0x18
 10008 0371 00       		.byte	0
 10009 0372 00       		.byte	0
 10010 0373 43       		.uleb128 0x43
 10011 0374 34       		.uleb128 0x34
 10012 0375 00       		.byte	0
 10013 0376 03       		.uleb128 0x3
 10014 0377 08       		.uleb128 0x8
 10015 0378 3A       		.uleb128 0x3a
 10016 0379 0B       		.uleb128 0xb
 10017 037a 3B       		.uleb128 0x3b
 10018 037b 05       		.uleb128 0x5
 10019 037c 49       		.uleb128 0x49
 10020 037d 13       		.uleb128 0x13
 10021 037e 02       		.uleb128 0x2
 10022 037f 17       		.uleb128 0x17
 10023 0380 00       		.byte	0
 10024 0381 00       		.byte	0
 10025 0382 44       		.uleb128 0x44
 10026 0383 898201   		.uleb128 0x4109
 10027 0386 01       		.byte	0x1
 10028 0387 11       		.uleb128 0x11
ARM GAS  /var/folders/m4/4md61f0s1_g0rzfghffqnxvr0000gn/T//ccHVf8ER.s 			page 177


 10029 0388 01       		.uleb128 0x1
 10030 0389 9542     		.uleb128 0x2115
 10031 038b 19       		.uleb128 0x19
 10032 038c 31       		.uleb128 0x31
 10033 038d 13       		.uleb128 0x13
 10034 038e 00       		.byte	0
 10035 038f 00       		.byte	0
 10036 0390 45       		.uleb128 0x45
 10037 0391 0B       		.uleb128 0xb
 10038 0392 01       		.byte	0x1
 10039 0393 55       		.uleb128 0x55
 10040 0394 17       		.uleb128 0x17
 10041 0395 01       		.uleb128 0x1
 10042 0396 13       		.uleb128 0x13
 10043 0397 00       		.byte	0
 10044 0398 00       		.byte	0
 10045 0399 46       		.uleb128 0x46
 10046 039a 0B       		.uleb128 0xb
 10047 039b 01       		.byte	0x1
 10048 039c 11       		.uleb128 0x11
 10049 039d 01       		.uleb128 0x1
 10050 039e 12       		.uleb128 0x12
 10051 039f 06       		.uleb128 0x6
 10052 03a0 00       		.byte	0
 10053 03a1 00       		.byte	0
 10054 03a2 47       		.uleb128 0x47
 10055 03a3 05       		.uleb128 0x5
 10056 03a4 00       		.byte	0
 10057 03a5 31       		.uleb128 0x31
 10058 03a6 13       		.uleb128 0x13
 10059 03a7 00       		.byte	0
 10060 03a8 00       		.byte	0
 10061 03a9 48       		.uleb128 0x48
 10062 03aa 898201   		.uleb128 0x4109
 10063 03ad 00       		.byte	0
 10064 03ae 11       		.uleb128 0x11
 10065 03af 01       		.uleb128 0x1
 10066 03b0 9542     		.uleb128 0x2115
 10067 03b2 19       		.uleb128 0x19
 10068 03b3 31       		.uleb128 0x31
 10069 03b4 13       		.uleb128 0x13
 10070 03b5 00       		.byte	0
 10071 03b6 00       		.byte	0
 10072 03b7 49       		.uleb128 0x49
 10073 03b8 34       		.uleb128 0x34
 10074 03b9 00       		.byte	0
 10075 03ba 31       		.uleb128 0x31
 10076 03bb 13       		.uleb128 0x13
 10077 03bc 00       		.byte	0
 10078 03bd 00       		.byte	0
 10079 03be 4A       		.uleb128 0x4a
 10080 03bf 2E       		.uleb128 0x2e
 10081 03c0 01       		.byte	0x1
 10082 03c1 3F       		.uleb128 0x3f
 10083 03c2 19       		.uleb128 0x19
 10084 03c3 03       		.uleb128 0x3
 10085 03c4 0E       		.uleb128 0xe
ARM GAS  /var/folders/m4/4md61f0s1_g0rzfghffqnxvr0000gn/T//ccHVf8ER.s 			page 178


 10086 03c5 3A       		.uleb128 0x3a
 10087 03c6 0B       		.uleb128 0xb
 10088 03c7 3B       		.uleb128 0x3b
 10089 03c8 0B       		.uleb128 0xb
 10090 03c9 27       		.uleb128 0x27
 10091 03ca 19       		.uleb128 0x19
 10092 03cb 11       		.uleb128 0x11
 10093 03cc 01       		.uleb128 0x1
 10094 03cd 12       		.uleb128 0x12
 10095 03ce 06       		.uleb128 0x6
 10096 03cf 40       		.uleb128 0x40
 10097 03d0 18       		.uleb128 0x18
 10098 03d1 9742     		.uleb128 0x2117
 10099 03d3 19       		.uleb128 0x19
 10100 03d4 01       		.uleb128 0x1
 10101 03d5 13       		.uleb128 0x13
 10102 03d6 00       		.byte	0
 10103 03d7 00       		.byte	0
 10104 03d8 4B       		.uleb128 0x4b
 10105 03d9 1D       		.uleb128 0x1d
 10106 03da 01       		.byte	0x1
 10107 03db 31       		.uleb128 0x31
 10108 03dc 13       		.uleb128 0x13
 10109 03dd 52       		.uleb128 0x52
 10110 03de 01       		.uleb128 0x1
 10111 03df 55       		.uleb128 0x55
 10112 03e0 17       		.uleb128 0x17
 10113 03e1 58       		.uleb128 0x58
 10114 03e2 0B       		.uleb128 0xb
 10115 03e3 59       		.uleb128 0x59
 10116 03e4 0B       		.uleb128 0xb
 10117 03e5 01       		.uleb128 0x1
 10118 03e6 13       		.uleb128 0x13
 10119 03e7 00       		.byte	0
 10120 03e8 00       		.byte	0
 10121 03e9 4C       		.uleb128 0x4c
 10122 03ea 1D       		.uleb128 0x1d
 10123 03eb 01       		.byte	0x1
 10124 03ec 31       		.uleb128 0x31
 10125 03ed 13       		.uleb128 0x13
 10126 03ee 52       		.uleb128 0x52
 10127 03ef 01       		.uleb128 0x1
 10128 03f0 55       		.uleb128 0x55
 10129 03f1 17       		.uleb128 0x17
 10130 03f2 58       		.uleb128 0x58
 10131 03f3 0B       		.uleb128 0xb
 10132 03f4 59       		.uleb128 0x59
 10133 03f5 05       		.uleb128 0x5
 10134 03f6 00       		.byte	0
 10135 03f7 00       		.byte	0
 10136 03f8 4D       		.uleb128 0x4d
 10137 03f9 1D       		.uleb128 0x1d
 10138 03fa 01       		.byte	0x1
 10139 03fb 31       		.uleb128 0x31
 10140 03fc 13       		.uleb128 0x13
 10141 03fd 11       		.uleb128 0x11
 10142 03fe 01       		.uleb128 0x1
ARM GAS  /var/folders/m4/4md61f0s1_g0rzfghffqnxvr0000gn/T//ccHVf8ER.s 			page 179


 10143 03ff 12       		.uleb128 0x12
 10144 0400 06       		.uleb128 0x6
 10145 0401 58       		.uleb128 0x58
 10146 0402 0B       		.uleb128 0xb
 10147 0403 59       		.uleb128 0x59
 10148 0404 0B       		.uleb128 0xb
 10149 0405 01       		.uleb128 0x1
 10150 0406 13       		.uleb128 0x13
 10151 0407 00       		.byte	0
 10152 0408 00       		.byte	0
 10153 0409 4E       		.uleb128 0x4e
 10154 040a 2E       		.uleb128 0x2e
 10155 040b 01       		.byte	0x1
 10156 040c 03       		.uleb128 0x3
 10157 040d 0E       		.uleb128 0xe
 10158 040e 3A       		.uleb128 0x3a
 10159 040f 0B       		.uleb128 0xb
 10160 0410 3B       		.uleb128 0x3b
 10161 0411 0B       		.uleb128 0xb
 10162 0412 27       		.uleb128 0x27
 10163 0413 19       		.uleb128 0x19
 10164 0414 49       		.uleb128 0x49
 10165 0415 13       		.uleb128 0x13
 10166 0416 11       		.uleb128 0x11
 10167 0417 01       		.uleb128 0x1
 10168 0418 12       		.uleb128 0x12
 10169 0419 06       		.uleb128 0x6
 10170 041a 40       		.uleb128 0x40
 10171 041b 18       		.uleb128 0x18
 10172 041c 9742     		.uleb128 0x2117
 10173 041e 19       		.uleb128 0x19
 10174 041f 01       		.uleb128 0x1
 10175 0420 13       		.uleb128 0x13
 10176 0421 00       		.byte	0
 10177 0422 00       		.byte	0
 10178 0423 4F       		.uleb128 0x4f
 10179 0424 05       		.uleb128 0x5
 10180 0425 00       		.byte	0
 10181 0426 03       		.uleb128 0x3
 10182 0427 08       		.uleb128 0x8
 10183 0428 3A       		.uleb128 0x3a
 10184 0429 0B       		.uleb128 0xb
 10185 042a 3B       		.uleb128 0x3b
 10186 042b 0B       		.uleb128 0xb
 10187 042c 49       		.uleb128 0x49
 10188 042d 13       		.uleb128 0x13
 10189 042e 02       		.uleb128 0x2
 10190 042f 17       		.uleb128 0x17
 10191 0430 00       		.byte	0
 10192 0431 00       		.byte	0
 10193 0432 50       		.uleb128 0x50
 10194 0433 34       		.uleb128 0x34
 10195 0434 00       		.byte	0
 10196 0435 03       		.uleb128 0x3
 10197 0436 0E       		.uleb128 0xe
 10198 0437 3A       		.uleb128 0x3a
 10199 0438 0B       		.uleb128 0xb
ARM GAS  /var/folders/m4/4md61f0s1_g0rzfghffqnxvr0000gn/T//ccHVf8ER.s 			page 180


 10200 0439 3B       		.uleb128 0x3b
 10201 043a 0B       		.uleb128 0xb
 10202 043b 49       		.uleb128 0x49
 10203 043c 13       		.uleb128 0x13
 10204 043d 02       		.uleb128 0x2
 10205 043e 18       		.uleb128 0x18
 10206 043f 00       		.byte	0
 10207 0440 00       		.byte	0
 10208 0441 51       		.uleb128 0x51
 10209 0442 34       		.uleb128 0x34
 10210 0443 00       		.byte	0
 10211 0444 03       		.uleb128 0x3
 10212 0445 08       		.uleb128 0x8
 10213 0446 3A       		.uleb128 0x3a
 10214 0447 0B       		.uleb128 0xb
 10215 0448 3B       		.uleb128 0x3b
 10216 0449 0B       		.uleb128 0xb
 10217 044a 49       		.uleb128 0x49
 10218 044b 13       		.uleb128 0x13
 10219 044c 02       		.uleb128 0x2
 10220 044d 17       		.uleb128 0x17
 10221 044e 00       		.byte	0
 10222 044f 00       		.byte	0
 10223 0450 52       		.uleb128 0x52
 10224 0451 34       		.uleb128 0x34
 10225 0452 00       		.byte	0
 10226 0453 03       		.uleb128 0x3
 10227 0454 0E       		.uleb128 0xe
 10228 0455 3A       		.uleb128 0x3a
 10229 0456 0B       		.uleb128 0xb
 10230 0457 3B       		.uleb128 0x3b
 10231 0458 0B       		.uleb128 0xb
 10232 0459 49       		.uleb128 0x49
 10233 045a 13       		.uleb128 0x13
 10234 045b 02       		.uleb128 0x2
 10235 045c 17       		.uleb128 0x17
 10236 045d 00       		.byte	0
 10237 045e 00       		.byte	0
 10238 045f 53       		.uleb128 0x53
 10239 0460 0B       		.uleb128 0xb
 10240 0461 01       		.byte	0x1
 10241 0462 55       		.uleb128 0x55
 10242 0463 17       		.uleb128 0x17
 10243 0464 00       		.byte	0
 10244 0465 00       		.byte	0
 10245 0466 54       		.uleb128 0x54
 10246 0467 2E       		.uleb128 0x2e
 10247 0468 01       		.byte	0x1
 10248 0469 03       		.uleb128 0x3
 10249 046a 08       		.uleb128 0x8
 10250 046b 3A       		.uleb128 0x3a
 10251 046c 0B       		.uleb128 0xb
 10252 046d 3B       		.uleb128 0x3b
 10253 046e 05       		.uleb128 0x5
 10254 046f 27       		.uleb128 0x27
 10255 0470 19       		.uleb128 0x19
 10256 0471 49       		.uleb128 0x49
ARM GAS  /var/folders/m4/4md61f0s1_g0rzfghffqnxvr0000gn/T//ccHVf8ER.s 			page 181


 10257 0472 13       		.uleb128 0x13
 10258 0473 11       		.uleb128 0x11
 10259 0474 01       		.uleb128 0x1
 10260 0475 12       		.uleb128 0x12
 10261 0476 06       		.uleb128 0x6
 10262 0477 40       		.uleb128 0x40
 10263 0478 18       		.uleb128 0x18
 10264 0479 9742     		.uleb128 0x2117
 10265 047b 19       		.uleb128 0x19
 10266 047c 01       		.uleb128 0x1
 10267 047d 13       		.uleb128 0x13
 10268 047e 00       		.byte	0
 10269 047f 00       		.byte	0
 10270 0480 55       		.uleb128 0x55
 10271 0481 2E       		.uleb128 0x2e
 10272 0482 01       		.byte	0x1
 10273 0483 03       		.uleb128 0x3
 10274 0484 0E       		.uleb128 0xe
 10275 0485 3A       		.uleb128 0x3a
 10276 0486 0B       		.uleb128 0xb
 10277 0487 3B       		.uleb128 0x3b
 10278 0488 05       		.uleb128 0x5
 10279 0489 27       		.uleb128 0x27
 10280 048a 19       		.uleb128 0x19
 10281 048b 49       		.uleb128 0x49
 10282 048c 13       		.uleb128 0x13
 10283 048d 11       		.uleb128 0x11
 10284 048e 01       		.uleb128 0x1
 10285 048f 12       		.uleb128 0x12
 10286 0490 06       		.uleb128 0x6
 10287 0491 40       		.uleb128 0x40
 10288 0492 18       		.uleb128 0x18
 10289 0493 9742     		.uleb128 0x2117
 10290 0495 19       		.uleb128 0x19
 10291 0496 01       		.uleb128 0x1
 10292 0497 13       		.uleb128 0x13
 10293 0498 00       		.byte	0
 10294 0499 00       		.byte	0
 10295 049a 56       		.uleb128 0x56
 10296 049b 05       		.uleb128 0x5
 10297 049c 00       		.byte	0
 10298 049d 31       		.uleb128 0x31
 10299 049e 13       		.uleb128 0x13
 10300 049f 1C       		.uleb128 0x1c
 10301 04a0 0D       		.uleb128 0xd
 10302 04a1 00       		.byte	0
 10303 04a2 00       		.byte	0
 10304 04a3 57       		.uleb128 0x57
 10305 04a4 34       		.uleb128 0x34
 10306 04a5 00       		.byte	0
 10307 04a6 03       		.uleb128 0x3
 10308 04a7 0E       		.uleb128 0xe
 10309 04a8 3A       		.uleb128 0x3a
 10310 04a9 0B       		.uleb128 0xb
 10311 04aa 3B       		.uleb128 0x3b
 10312 04ab 05       		.uleb128 0x5
 10313 04ac 49       		.uleb128 0x49
ARM GAS  /var/folders/m4/4md61f0s1_g0rzfghffqnxvr0000gn/T//ccHVf8ER.s 			page 182


 10314 04ad 13       		.uleb128 0x13
 10315 04ae 3F       		.uleb128 0x3f
 10316 04af 19       		.uleb128 0x19
 10317 04b0 3C       		.uleb128 0x3c
 10318 04b1 19       		.uleb128 0x19
 10319 04b2 00       		.byte	0
 10320 04b3 00       		.byte	0
 10321 04b4 58       		.uleb128 0x58
 10322 04b5 34       		.uleb128 0x34
 10323 04b6 00       		.byte	0
 10324 04b7 03       		.uleb128 0x3
 10325 04b8 08       		.uleb128 0x8
 10326 04b9 3A       		.uleb128 0x3a
 10327 04ba 0B       		.uleb128 0xb
 10328 04bb 3B       		.uleb128 0x3b
 10329 04bc 05       		.uleb128 0x5
 10330 04bd 49       		.uleb128 0x49
 10331 04be 13       		.uleb128 0x13
 10332 04bf 3F       		.uleb128 0x3f
 10333 04c0 19       		.uleb128 0x19
 10334 04c1 3C       		.uleb128 0x3c
 10335 04c2 19       		.uleb128 0x19
 10336 04c3 00       		.byte	0
 10337 04c4 00       		.byte	0
 10338 04c5 59       		.uleb128 0x59
 10339 04c6 34       		.uleb128 0x34
 10340 04c7 00       		.byte	0
 10341 04c8 03       		.uleb128 0x3
 10342 04c9 0E       		.uleb128 0xe
 10343 04ca 3A       		.uleb128 0x3a
 10344 04cb 0B       		.uleb128 0xb
 10345 04cc 3B       		.uleb128 0x3b
 10346 04cd 0B       		.uleb128 0xb
 10347 04ce 49       		.uleb128 0x49
 10348 04cf 13       		.uleb128 0x13
 10349 04d0 3F       		.uleb128 0x3f
 10350 04d1 19       		.uleb128 0x19
 10351 04d2 3C       		.uleb128 0x3c
 10352 04d3 19       		.uleb128 0x19
 10353 04d4 00       		.byte	0
 10354 04d5 00       		.byte	0
 10355 04d6 5A       		.uleb128 0x5a
 10356 04d7 34       		.uleb128 0x34
 10357 04d8 00       		.byte	0
 10358 04d9 03       		.uleb128 0x3
 10359 04da 0E       		.uleb128 0xe
 10360 04db 3A       		.uleb128 0x3a
 10361 04dc 0B       		.uleb128 0xb
 10362 04dd 3B       		.uleb128 0x3b
 10363 04de 0B       		.uleb128 0xb
 10364 04df 49       		.uleb128 0x49
 10365 04e0 13       		.uleb128 0x13
 10366 04e1 3F       		.uleb128 0x3f
 10367 04e2 19       		.uleb128 0x19
 10368 04e3 02       		.uleb128 0x2
 10369 04e4 18       		.uleb128 0x18
 10370 04e5 00       		.byte	0
ARM GAS  /var/folders/m4/4md61f0s1_g0rzfghffqnxvr0000gn/T//ccHVf8ER.s 			page 183


 10371 04e6 00       		.byte	0
 10372 04e7 5B       		.uleb128 0x5b
 10373 04e8 2E       		.uleb128 0x2e
 10374 04e9 01       		.byte	0x1
 10375 04ea 3F       		.uleb128 0x3f
 10376 04eb 19       		.uleb128 0x19
 10377 04ec 03       		.uleb128 0x3
 10378 04ed 0E       		.uleb128 0xe
 10379 04ee 3A       		.uleb128 0x3a
 10380 04ef 0B       		.uleb128 0xb
 10381 04f0 3B       		.uleb128 0x3b
 10382 04f1 0B       		.uleb128 0xb
 10383 04f2 27       		.uleb128 0x27
 10384 04f3 19       		.uleb128 0x19
 10385 04f4 3C       		.uleb128 0x3c
 10386 04f5 19       		.uleb128 0x19
 10387 04f6 01       		.uleb128 0x1
 10388 04f7 13       		.uleb128 0x13
 10389 04f8 00       		.byte	0
 10390 04f9 00       		.byte	0
 10391 04fa 5C       		.uleb128 0x5c
 10392 04fb 2E       		.uleb128 0x2e
 10393 04fc 01       		.byte	0x1
 10394 04fd 3F       		.uleb128 0x3f
 10395 04fe 19       		.uleb128 0x19
 10396 04ff 03       		.uleb128 0x3
 10397 0500 0E       		.uleb128 0xe
 10398 0501 3A       		.uleb128 0x3a
 10399 0502 0B       		.uleb128 0xb
 10400 0503 3B       		.uleb128 0x3b
 10401 0504 05       		.uleb128 0x5
 10402 0505 27       		.uleb128 0x27
 10403 0506 19       		.uleb128 0x19
 10404 0507 3C       		.uleb128 0x3c
 10405 0508 19       		.uleb128 0x19
 10406 0509 01       		.uleb128 0x1
 10407 050a 13       		.uleb128 0x13
 10408 050b 00       		.byte	0
 10409 050c 00       		.byte	0
 10410 050d 5D       		.uleb128 0x5d
 10411 050e 26       		.uleb128 0x26
 10412 050f 00       		.byte	0
 10413 0510 00       		.byte	0
 10414 0511 00       		.byte	0
 10415 0512 5E       		.uleb128 0x5e
 10416 0513 2E       		.uleb128 0x2e
 10417 0514 01       		.byte	0x1
 10418 0515 3F       		.uleb128 0x3f
 10419 0516 19       		.uleb128 0x19
 10420 0517 03       		.uleb128 0x3
 10421 0518 0E       		.uleb128 0xe
 10422 0519 3A       		.uleb128 0x3a
 10423 051a 0B       		.uleb128 0xb
 10424 051b 3B       		.uleb128 0x3b
 10425 051c 0B       		.uleb128 0xb
 10426 051d 27       		.uleb128 0x27
 10427 051e 19       		.uleb128 0x19
ARM GAS  /var/folders/m4/4md61f0s1_g0rzfghffqnxvr0000gn/T//ccHVf8ER.s 			page 184


 10428 051f 49       		.uleb128 0x49
 10429 0520 13       		.uleb128 0x13
 10430 0521 3C       		.uleb128 0x3c
 10431 0522 19       		.uleb128 0x19
 10432 0523 01       		.uleb128 0x1
 10433 0524 13       		.uleb128 0x13
 10434 0525 00       		.byte	0
 10435 0526 00       		.byte	0
 10436 0527 5F       		.uleb128 0x5f
 10437 0528 2E       		.uleb128 0x2e
 10438 0529 01       		.byte	0x1
 10439 052a 3F       		.uleb128 0x3f
 10440 052b 19       		.uleb128 0x19
 10441 052c 03       		.uleb128 0x3
 10442 052d 0E       		.uleb128 0xe
 10443 052e 3A       		.uleb128 0x3a
 10444 052f 0B       		.uleb128 0xb
 10445 0530 3B       		.uleb128 0x3b
 10446 0531 0B       		.uleb128 0xb
 10447 0532 27       		.uleb128 0x27
 10448 0533 19       		.uleb128 0x19
 10449 0534 3C       		.uleb128 0x3c
 10450 0535 19       		.uleb128 0x19
 10451 0536 00       		.byte	0
 10452 0537 00       		.byte	0
 10453 0538 00       		.byte	0
 10454              		.section	.debug_loc,"",%progbits
 10455              	.Ldebug_loc0:
 10456              	.LLST0:
 10457 0000 00000000 		.4byte	.LVL0
 10458 0004 0A000000 		.4byte	.LVL1
 10459 0008 0100     		.2byte	0x1
 10460 000a 50       		.byte	0x50
 10461 000b 0A000000 		.4byte	.LVL1
 10462 000f 1C000000 		.4byte	.LFE268
 10463 0013 0400     		.2byte	0x4
 10464 0015 F3       		.byte	0xf3
 10465 0016 01       		.uleb128 0x1
 10466 0017 50       		.byte	0x50
 10467 0018 9F       		.byte	0x9f
 10468 0019 00000000 		.4byte	0
 10469 001d 00000000 		.4byte	0
 10470              	.LLST1:
 10471 0021 00000000 		.4byte	.LVL0
 10472 0025 0C000000 		.4byte	.LVL2
 10473 0029 0100     		.2byte	0x1
 10474 002b 51       		.byte	0x51
 10475 002c 0C000000 		.4byte	.LVL2
 10476 0030 1C000000 		.4byte	.LFE268
 10477 0034 0400     		.2byte	0x4
 10478 0036 F3       		.byte	0xf3
 10479 0037 01       		.uleb128 0x1
 10480 0038 51       		.byte	0x51
 10481 0039 9F       		.byte	0x9f
 10482 003a 00000000 		.4byte	0
 10483 003e 00000000 		.4byte	0
 10484              	.LLST2:
ARM GAS  /var/folders/m4/4md61f0s1_g0rzfghffqnxvr0000gn/T//ccHVf8ER.s 			page 185


 10485 0042 00000000 		.4byte	.LVL4
 10486 0046 14000000 		.4byte	.LVL5
 10487 004a 0100     		.2byte	0x1
 10488 004c 50       		.byte	0x50
 10489 004d 14000000 		.4byte	.LVL5
 10490 0051 5A000000 		.4byte	.LFE311
 10491 0055 0100     		.2byte	0x1
 10492 0057 54       		.byte	0x54
 10493 0058 00000000 		.4byte	0
 10494 005c 00000000 		.4byte	0
 10495              	.LLST3:
 10496 0060 00000000 		.4byte	.LVL4
 10497 0064 1F000000 		.4byte	.LVL6-1
 10498 0068 0100     		.2byte	0x1
 10499 006a 51       		.byte	0x51
 10500 006b 1F000000 		.4byte	.LVL6-1
 10501 006f 5A000000 		.4byte	.LFE311
 10502 0073 0400     		.2byte	0x4
 10503 0075 F3       		.byte	0xf3
 10504 0076 01       		.uleb128 0x1
 10505 0077 51       		.byte	0x51
 10506 0078 9F       		.byte	0x9f
 10507 0079 00000000 		.4byte	0
 10508 007d 00000000 		.4byte	0
 10509              	.LLST4:
 10510 0081 00000000 		.4byte	.LVL4
 10511 0085 1F000000 		.4byte	.LVL6-1
 10512 0089 0100     		.2byte	0x1
 10513 008b 52       		.byte	0x52
 10514 008c 1F000000 		.4byte	.LVL6-1
 10515 0090 5A000000 		.4byte	.LFE311
 10516 0094 0100     		.2byte	0x1
 10517 0096 57       		.byte	0x57
 10518 0097 00000000 		.4byte	0
 10519 009b 00000000 		.4byte	0
 10520              	.LLST5:
 10521 009f 00000000 		.4byte	.LVL4
 10522 00a3 1F000000 		.4byte	.LVL6-1
 10523 00a7 0100     		.2byte	0x1
 10524 00a9 53       		.byte	0x53
 10525 00aa 1F000000 		.4byte	.LVL6-1
 10526 00ae 5A000000 		.4byte	.LFE311
 10527 00b2 0100     		.2byte	0x1
 10528 00b4 56       		.byte	0x56
 10529 00b5 00000000 		.4byte	0
 10530 00b9 00000000 		.4byte	0
 10531              	.LLST6:
 10532 00bd 00000000 		.4byte	.LVL10
 10533 00c1 0A000000 		.4byte	.LVL11
 10534 00c5 0100     		.2byte	0x1
 10535 00c7 50       		.byte	0x50
 10536 00c8 0A000000 		.4byte	.LVL11
 10537 00cc 46000000 		.4byte	.LFE312
 10538 00d0 0100     		.2byte	0x1
 10539 00d2 54       		.byte	0x54
 10540 00d3 00000000 		.4byte	0
 10541 00d7 00000000 		.4byte	0
ARM GAS  /var/folders/m4/4md61f0s1_g0rzfghffqnxvr0000gn/T//ccHVf8ER.s 			page 186


 10542              	.LLST7:
 10543 00db 00000000 		.4byte	.LVL10
 10544 00df 1B000000 		.4byte	.LVL12-1
 10545 00e3 0100     		.2byte	0x1
 10546 00e5 51       		.byte	0x51
 10547 00e6 1B000000 		.4byte	.LVL12-1
 10548 00ea 46000000 		.4byte	.LFE312
 10549 00ee 0400     		.2byte	0x4
 10550 00f0 F3       		.byte	0xf3
 10551 00f1 01       		.uleb128 0x1
 10552 00f2 51       		.byte	0x51
 10553 00f3 9F       		.byte	0x9f
 10554 00f4 00000000 		.4byte	0
 10555 00f8 00000000 		.4byte	0
 10556              	.LLST8:
 10557 00fc 00000000 		.4byte	.LVL10
 10558 0100 1B000000 		.4byte	.LVL12-1
 10559 0104 0100     		.2byte	0x1
 10560 0106 52       		.byte	0x52
 10561 0107 1B000000 		.4byte	.LVL12-1
 10562 010b 46000000 		.4byte	.LFE312
 10563 010f 0100     		.2byte	0x1
 10564 0111 56       		.byte	0x56
 10565 0112 00000000 		.4byte	0
 10566 0116 00000000 		.4byte	0
 10567              	.LLST9:
 10568 011a 00000000 		.4byte	.LVL16
 10569 011e 0E000000 		.4byte	.LVL17
 10570 0122 0200     		.2byte	0x2
 10571 0124 30       		.byte	0x30
 10572 0125 9F       		.byte	0x9f
 10573 0126 00000000 		.4byte	0
 10574 012a 00000000 		.4byte	0
 10575              	.LLST10:
 10576 012e 1A000000 		.4byte	.LVL18
 10577 0132 1E000000 		.4byte	.LVL19
 10578 0136 0100     		.2byte	0x1
 10579 0138 53       		.byte	0x53
 10580 0139 1E000000 		.4byte	.LVL19
 10581 013d 26000000 		.4byte	.LVL21
 10582 0141 0300     		.2byte	0x3
 10583 0143 73       		.byte	0x73
 10584 0144 50       		.sleb128 -48
 10585 0145 9F       		.byte	0x9f
 10586 0146 00000000 		.4byte	0
 10587 014a 00000000 		.4byte	0
 10588              	.LLST11:
 10589 014e 22000000 		.4byte	.LVL20
 10590 0152 26000000 		.4byte	.LVL21
 10591 0156 0400     		.2byte	0x4
 10592 0158 70       		.byte	0x70
 10593 0159 A002     		.sleb128 288
 10594 015b 9F       		.byte	0x9f
 10595 015c 26000000 		.4byte	.LVL21
 10596 0160 34000000 		.4byte	.LFE278
 10597 0164 0100     		.2byte	0x1
 10598 0166 53       		.byte	0x53
ARM GAS  /var/folders/m4/4md61f0s1_g0rzfghffqnxvr0000gn/T//ccHVf8ER.s 			page 187


 10599 0167 00000000 		.4byte	0
 10600 016b 00000000 		.4byte	0
 10601              	.LLST12:
 10602 016f 00000000 		.4byte	.LVL23
 10603 0173 1C000000 		.4byte	.LVL25
 10604 0177 0100     		.2byte	0x1
 10605 0179 50       		.byte	0x50
 10606 017a 1C000000 		.4byte	.LVL25
 10607 017e 3C000000 		.4byte	.LFE280
 10608 0182 0100     		.2byte	0x1
 10609 0184 54       		.byte	0x54
 10610 0185 00000000 		.4byte	0
 10611 0189 00000000 		.4byte	0
 10612              	.LLST13:
 10613 018d 00000000 		.4byte	.LVL23
 10614 0191 06000000 		.4byte	.LVL24
 10615 0195 0100     		.2byte	0x1
 10616 0197 51       		.byte	0x51
 10617 0198 06000000 		.4byte	.LVL24
 10618 019c 3C000000 		.4byte	.LFE280
 10619 01a0 0400     		.2byte	0x4
 10620 01a2 F3       		.byte	0xf3
 10621 01a3 01       		.uleb128 0x1
 10622 01a4 51       		.byte	0x51
 10623 01a5 9F       		.byte	0x9f
 10624 01a6 00000000 		.4byte	0
 10625 01aa 00000000 		.4byte	0
 10626              	.LLST14:
 10627 01ae 00000000 		.4byte	.LVL23
 10628 01b2 1F000000 		.4byte	.LVL26-1
 10629 01b6 0100     		.2byte	0x1
 10630 01b8 52       		.byte	0x52
 10631 01b9 1F000000 		.4byte	.LVL26-1
 10632 01bd 3C000000 		.4byte	.LFE280
 10633 01c1 0400     		.2byte	0x4
 10634 01c3 F3       		.byte	0xf3
 10635 01c4 01       		.uleb128 0x1
 10636 01c5 52       		.byte	0x52
 10637 01c6 9F       		.byte	0x9f
 10638 01c7 00000000 		.4byte	0
 10639 01cb 00000000 		.4byte	0
 10640              	.LLST15:
 10641 01cf 00000000 		.4byte	.LVL29
 10642 01d3 22000000 		.4byte	.LVL31
 10643 01d7 0100     		.2byte	0x1
 10644 01d9 50       		.byte	0x50
 10645 01da 22000000 		.4byte	.LVL31
 10646 01de 48000000 		.4byte	.LFE281
 10647 01e2 0100     		.2byte	0x1
 10648 01e4 54       		.byte	0x54
 10649 01e5 00000000 		.4byte	0
 10650 01e9 00000000 		.4byte	0
 10651              	.LLST16:
 10652 01ed 00000000 		.4byte	.LVL29
 10653 01f1 0A000000 		.4byte	.LVL30
 10654 01f5 0100     		.2byte	0x1
 10655 01f7 51       		.byte	0x51
ARM GAS  /var/folders/m4/4md61f0s1_g0rzfghffqnxvr0000gn/T//ccHVf8ER.s 			page 188


 10656 01f8 0A000000 		.4byte	.LVL30
 10657 01fc 48000000 		.4byte	.LFE281
 10658 0200 0400     		.2byte	0x4
 10659 0202 F3       		.byte	0xf3
 10660 0203 01       		.uleb128 0x1
 10661 0204 51       		.byte	0x51
 10662 0205 9F       		.byte	0x9f
 10663 0206 00000000 		.4byte	0
 10664 020a 00000000 		.4byte	0
 10665              	.LLST17:
 10666 020e 00000000 		.4byte	.LVL35
 10667 0212 1A000000 		.4byte	.LVL37
 10668 0216 0100     		.2byte	0x1
 10669 0218 50       		.byte	0x50
 10670 0219 1A000000 		.4byte	.LVL37
 10671 021d 4A000000 		.4byte	.LFE282
 10672 0221 0100     		.2byte	0x1
 10673 0223 54       		.byte	0x54
 10674 0224 00000000 		.4byte	0
 10675 0228 00000000 		.4byte	0
 10676              	.LLST18:
 10677 022c 00000000 		.4byte	.LVL35
 10678 0230 0A000000 		.4byte	.LVL36
 10679 0234 0100     		.2byte	0x1
 10680 0236 51       		.byte	0x51
 10681 0237 0A000000 		.4byte	.LVL36
 10682 023b 4A000000 		.4byte	.LFE282
 10683 023f 0400     		.2byte	0x4
 10684 0241 F3       		.byte	0xf3
 10685 0242 01       		.uleb128 0x1
 10686 0243 51       		.byte	0x51
 10687 0244 9F       		.byte	0x9f
 10688 0245 00000000 		.4byte	0
 10689 0249 00000000 		.4byte	0
 10690              	.LLST19:
 10691 024d 00000000 		.4byte	.LVL35
 10692 0251 1F000000 		.4byte	.LVL38-1
 10693 0255 0100     		.2byte	0x1
 10694 0257 52       		.byte	0x52
 10695 0258 1F000000 		.4byte	.LVL38-1
 10696 025c 4A000000 		.4byte	.LFE282
 10697 0260 0100     		.2byte	0x1
 10698 0262 56       		.byte	0x56
 10699 0263 00000000 		.4byte	0
 10700 0267 00000000 		.4byte	0
 10701              	.LLST20:
 10702 026b 00000000 		.4byte	.LVL42
 10703 026f 16000000 		.4byte	.LVL44
 10704 0273 0100     		.2byte	0x1
 10705 0275 50       		.byte	0x50
 10706 0276 16000000 		.4byte	.LVL44
 10707 027a 46000000 		.4byte	.LFE283
 10708 027e 0100     		.2byte	0x1
 10709 0280 54       		.byte	0x54
 10710 0281 00000000 		.4byte	0
 10711 0285 00000000 		.4byte	0
 10712              	.LLST21:
ARM GAS  /var/folders/m4/4md61f0s1_g0rzfghffqnxvr0000gn/T//ccHVf8ER.s 			page 189


 10713 0289 00000000 		.4byte	.LVL42
 10714 028d 0A000000 		.4byte	.LVL43
 10715 0291 0100     		.2byte	0x1
 10716 0293 51       		.byte	0x51
 10717 0294 0A000000 		.4byte	.LVL43
 10718 0298 46000000 		.4byte	.LFE283
 10719 029c 0400     		.2byte	0x4
 10720 029e F3       		.byte	0xf3
 10721 029f 01       		.uleb128 0x1
 10722 02a0 51       		.byte	0x51
 10723 02a1 9F       		.byte	0x9f
 10724 02a2 00000000 		.4byte	0
 10725 02a6 00000000 		.4byte	0
 10726              	.LLST22:
 10727 02aa 00000000 		.4byte	.LVL42
 10728 02ae 1B000000 		.4byte	.LVL45-1
 10729 02b2 0100     		.2byte	0x1
 10730 02b4 52       		.byte	0x52
 10731 02b5 1B000000 		.4byte	.LVL45-1
 10732 02b9 46000000 		.4byte	.LFE283
 10733 02bd 0100     		.2byte	0x1
 10734 02bf 56       		.byte	0x56
 10735 02c0 00000000 		.4byte	0
 10736 02c4 00000000 		.4byte	0
 10737              	.LLST23:
 10738 02c8 00000000 		.4byte	.LVL49
 10739 02cc 14000000 		.4byte	.LVL50
 10740 02d0 0100     		.2byte	0x1
 10741 02d2 50       		.byte	0x50
 10742 02d3 14000000 		.4byte	.LVL50
 10743 02d7 3C000000 		.4byte	.LFE284
 10744 02db 0100     		.2byte	0x1
 10745 02dd 54       		.byte	0x54
 10746 02de 00000000 		.4byte	0
 10747 02e2 00000000 		.4byte	0
 10748              	.LLST24:
 10749 02e6 00000000 		.4byte	.LVL54
 10750 02ea 09000000 		.4byte	.LVL55-1
 10751 02ee 0100     		.2byte	0x1
 10752 02f0 50       		.byte	0x50
 10753 02f1 09000000 		.4byte	.LVL55-1
 10754 02f5 18000000 		.4byte	.LVL57
 10755 02f9 0100     		.2byte	0x1
 10756 02fb 54       		.byte	0x54
 10757 02fc 18000000 		.4byte	.LVL57
 10758 0300 1B000000 		.4byte	.LVL58-1
 10759 0304 0100     		.2byte	0x1
 10760 0306 50       		.byte	0x50
 10761 0307 1B000000 		.4byte	.LVL58-1
 10762 030b 1C000000 		.4byte	.LFE285
 10763 030f 0400     		.2byte	0x4
 10764 0311 F3       		.byte	0xf3
 10765 0312 01       		.uleb128 0x1
 10766 0313 50       		.byte	0x50
 10767 0314 9F       		.byte	0x9f
 10768 0315 00000000 		.4byte	0
 10769 0319 00000000 		.4byte	0
ARM GAS  /var/folders/m4/4md61f0s1_g0rzfghffqnxvr0000gn/T//ccHVf8ER.s 			page 190


 10770              	.LLST25:
 10771 031d 0A000000 		.4byte	.LVL55
 10772 0321 12000000 		.4byte	.LVL56
 10773 0325 0500     		.2byte	0x5
 10774 0327 70       		.byte	0x70
 10775 0328 00       		.sleb128 0
 10776 0329 32       		.byte	0x32
 10777 032a 21       		.byte	0x21
 10778 032b 9F       		.byte	0x9f
 10779 032c 00000000 		.4byte	0
 10780 0330 00000000 		.4byte	0
 10781              	.LLST26:
 10782 0334 00000000 		.4byte	.LVL59
 10783 0338 09000000 		.4byte	.LVL60-1
 10784 033c 0100     		.2byte	0x1
 10785 033e 50       		.byte	0x50
 10786 033f 09000000 		.4byte	.LVL60-1
 10787 0343 16000000 		.4byte	.LVL62
 10788 0347 0100     		.2byte	0x1
 10789 0349 54       		.byte	0x54
 10790 034a 16000000 		.4byte	.LVL62
 10791 034e 19000000 		.4byte	.LVL63-1
 10792 0352 0100     		.2byte	0x1
 10793 0354 50       		.byte	0x50
 10794 0355 19000000 		.4byte	.LVL63-1
 10795 0359 1A000000 		.4byte	.LFE286
 10796 035d 0400     		.2byte	0x4
 10797 035f F3       		.byte	0xf3
 10798 0360 01       		.uleb128 0x1
 10799 0361 50       		.byte	0x50
 10800 0362 9F       		.byte	0x9f
 10801 0363 00000000 		.4byte	0
 10802 0367 00000000 		.4byte	0
 10803              	.LLST27:
 10804 036b 0A000000 		.4byte	.LVL60
 10805 036f 12000000 		.4byte	.LVL61
 10806 0373 0600     		.2byte	0x6
 10807 0375 70       		.byte	0x70
 10808 0376 00       		.sleb128 0
 10809 0377 09       		.byte	0x9
 10810 0378 FD       		.byte	0xfd
 10811 0379 1A       		.byte	0x1a
 10812 037a 9F       		.byte	0x9f
 10813 037b 00000000 		.4byte	0
 10814 037f 00000000 		.4byte	0
 10815              	.LLST28:
 10816 0383 00000000 		.4byte	.LVL64
 10817 0387 0F000000 		.4byte	.LVL67-1
 10818 038b 0100     		.2byte	0x1
 10819 038d 50       		.byte	0x50
 10820 038e 0F000000 		.4byte	.LVL67-1
 10821 0392 10000000 		.4byte	.LFE287
 10822 0396 0400     		.2byte	0x4
 10823 0398 F3       		.byte	0xf3
 10824 0399 01       		.uleb128 0x1
 10825 039a 50       		.byte	0x50
 10826 039b 9F       		.byte	0x9f
ARM GAS  /var/folders/m4/4md61f0s1_g0rzfghffqnxvr0000gn/T//ccHVf8ER.s 			page 191


 10827 039c 00000000 		.4byte	0
 10828 03a0 00000000 		.4byte	0
 10829              	.LLST29:
 10830 03a4 00000000 		.4byte	.LVL64
 10831 03a8 0C000000 		.4byte	.LVL66
 10832 03ac 0100     		.2byte	0x1
 10833 03ae 51       		.byte	0x51
 10834 03af 0C000000 		.4byte	.LVL66
 10835 03b3 10000000 		.4byte	.LFE287
 10836 03b7 0400     		.2byte	0x4
 10837 03b9 F3       		.byte	0xf3
 10838 03ba 01       		.uleb128 0x1
 10839 03bb 51       		.byte	0x51
 10840 03bc 9F       		.byte	0x9f
 10841 03bd 00000000 		.4byte	0
 10842 03c1 00000000 		.4byte	0
 10843              	.LLST30:
 10844 03c5 00000000 		.4byte	.LVL64
 10845 03c9 04000000 		.4byte	.LVL65
 10846 03cd 0100     		.2byte	0x1
 10847 03cf 52       		.byte	0x52
 10848 03d0 04000000 		.4byte	.LVL65
 10849 03d4 10000000 		.4byte	.LFE287
 10850 03d8 0400     		.2byte	0x4
 10851 03da F3       		.byte	0xf3
 10852 03db 01       		.uleb128 0x1
 10853 03dc 52       		.byte	0x52
 10854 03dd 9F       		.byte	0x9f
 10855 03de 00000000 		.4byte	0
 10856 03e2 00000000 		.4byte	0
 10857              	.LLST31:
 10858 03e6 00000000 		.4byte	.LVL64
 10859 03ea 04000000 		.4byte	.LVL65
 10860 03ee 0A00     		.2byte	0xa
 10861 03f0 72       		.byte	0x72
 10862 03f1 00       		.sleb128 0
 10863 03f2 3F       		.byte	0x3f
 10864 03f3 1A       		.byte	0x1a
 10865 03f4 71       		.byte	0x71
 10866 03f5 00       		.sleb128 0
 10867 03f6 34       		.byte	0x34
 10868 03f7 24       		.byte	0x24
 10869 03f8 21       		.byte	0x21
 10870 03f9 9F       		.byte	0x9f
 10871 03fa 04000000 		.4byte	.LVL65
 10872 03fe 0C000000 		.4byte	.LVL66
 10873 0402 0B00     		.2byte	0xb
 10874 0404 F3       		.byte	0xf3
 10875 0405 01       		.uleb128 0x1
 10876 0406 52       		.byte	0x52
 10877 0407 3F       		.byte	0x3f
 10878 0408 1A       		.byte	0x1a
 10879 0409 71       		.byte	0x71
 10880 040a 00       		.sleb128 0
 10881 040b 34       		.byte	0x34
 10882 040c 24       		.byte	0x24
 10883 040d 21       		.byte	0x21
ARM GAS  /var/folders/m4/4md61f0s1_g0rzfghffqnxvr0000gn/T//ccHVf8ER.s 			page 192


 10884 040e 9F       		.byte	0x9f
 10885 040f 0C000000 		.4byte	.LVL66
 10886 0413 10000000 		.4byte	.LFE287
 10887 0417 0C00     		.2byte	0xc
 10888 0419 F3       		.byte	0xf3
 10889 041a 01       		.uleb128 0x1
 10890 041b 52       		.byte	0x52
 10891 041c 3F       		.byte	0x3f
 10892 041d 1A       		.byte	0x1a
 10893 041e F3       		.byte	0xf3
 10894 041f 01       		.uleb128 0x1
 10895 0420 51       		.byte	0x51
 10896 0421 34       		.byte	0x34
 10897 0422 24       		.byte	0x24
 10898 0423 21       		.byte	0x21
 10899 0424 9F       		.byte	0x9f
 10900 0425 00000000 		.4byte	0
 10901 0429 00000000 		.4byte	0
 10902              	.LLST32:
 10903 042d 00000000 		.4byte	.LVL68
 10904 0431 09000000 		.4byte	.LVL70-1
 10905 0435 0100     		.2byte	0x1
 10906 0437 50       		.byte	0x50
 10907 0438 09000000 		.4byte	.LVL70-1
 10908 043c 0A000000 		.4byte	.LFE288
 10909 0440 0400     		.2byte	0x4
 10910 0442 F3       		.byte	0xf3
 10911 0443 01       		.uleb128 0x1
 10912 0444 50       		.byte	0x50
 10913 0445 9F       		.byte	0x9f
 10914 0446 00000000 		.4byte	0
 10915 044a 00000000 		.4byte	0
 10916              	.LLST33:
 10917 044e 00000000 		.4byte	.LVL68
 10918 0452 06000000 		.4byte	.LVL69
 10919 0456 0100     		.2byte	0x1
 10920 0458 51       		.byte	0x51
 10921 0459 06000000 		.4byte	.LVL69
 10922 045d 0A000000 		.4byte	.LFE288
 10923 0461 0400     		.2byte	0x4
 10924 0463 F3       		.byte	0xf3
 10925 0464 01       		.uleb128 0x1
 10926 0465 51       		.byte	0x51
 10927 0466 9F       		.byte	0x9f
 10928 0467 00000000 		.4byte	0
 10929 046b 00000000 		.4byte	0
 10930              	.LLST34:
 10931 046f 00000000 		.4byte	.LVL68
 10932 0473 06000000 		.4byte	.LVL69
 10933 0477 0600     		.2byte	0x6
 10934 0479 71       		.byte	0x71
 10935 047a 00       		.sleb128 0
 10936 047b 08       		.byte	0x8
 10937 047c 7F       		.byte	0x7f
 10938 047d 1A       		.byte	0x1a
 10939 047e 9F       		.byte	0x9f
 10940 047f 06000000 		.4byte	.LVL69
ARM GAS  /var/folders/m4/4md61f0s1_g0rzfghffqnxvr0000gn/T//ccHVf8ER.s 			page 193


 10941 0483 0A000000 		.4byte	.LFE288
 10942 0487 0700     		.2byte	0x7
 10943 0489 F3       		.byte	0xf3
 10944 048a 01       		.uleb128 0x1
 10945 048b 51       		.byte	0x51
 10946 048c 08       		.byte	0x8
 10947 048d 7F       		.byte	0x7f
 10948 048e 1A       		.byte	0x1a
 10949 048f 9F       		.byte	0x9f
 10950 0490 00000000 		.4byte	0
 10951 0494 00000000 		.4byte	0
 10952              	.LLST35:
 10953 0498 00000000 		.4byte	.LVL71
 10954 049c 09000000 		.4byte	.LVL73-1
 10955 04a0 0100     		.2byte	0x1
 10956 04a2 50       		.byte	0x50
 10957 04a3 09000000 		.4byte	.LVL73-1
 10958 04a7 0A000000 		.4byte	.LFE289
 10959 04ab 0400     		.2byte	0x4
 10960 04ad F3       		.byte	0xf3
 10961 04ae 01       		.uleb128 0x1
 10962 04af 50       		.byte	0x50
 10963 04b0 9F       		.byte	0x9f
 10964 04b1 00000000 		.4byte	0
 10965 04b5 00000000 		.4byte	0
 10966              	.LLST36:
 10967 04b9 00000000 		.4byte	.LVL71
 10968 04bd 06000000 		.4byte	.LVL72
 10969 04c1 0100     		.2byte	0x1
 10970 04c3 51       		.byte	0x51
 10971 04c4 06000000 		.4byte	.LVL72
 10972 04c8 0A000000 		.4byte	.LFE289
 10973 04cc 0400     		.2byte	0x4
 10974 04ce F3       		.byte	0xf3
 10975 04cf 01       		.uleb128 0x1
 10976 04d0 51       		.byte	0x51
 10977 04d1 9F       		.byte	0x9f
 10978 04d2 00000000 		.4byte	0
 10979 04d6 00000000 		.4byte	0
 10980              	.LLST37:
 10981 04da 00000000 		.4byte	.LVL74
 10982 04de 0F000000 		.4byte	.LVL77-1
 10983 04e2 0100     		.2byte	0x1
 10984 04e4 50       		.byte	0x50
 10985 04e5 0F000000 		.4byte	.LVL77-1
 10986 04e9 2A000000 		.4byte	.LVL79
 10987 04ed 0100     		.2byte	0x1
 10988 04ef 56       		.byte	0x56
 10989 04f0 2A000000 		.4byte	.LVL79
 10990 04f4 2D000000 		.4byte	.LVL80-1
 10991 04f8 0100     		.2byte	0x1
 10992 04fa 50       		.byte	0x50
 10993 04fb 2D000000 		.4byte	.LVL80-1
 10994 04ff 2E000000 		.4byte	.LVL80
 10995 0503 0400     		.2byte	0x4
 10996 0505 F3       		.byte	0xf3
 10997 0506 01       		.uleb128 0x1
ARM GAS  /var/folders/m4/4md61f0s1_g0rzfghffqnxvr0000gn/T//ccHVf8ER.s 			page 194


 10998 0507 50       		.byte	0x50
 10999 0508 9F       		.byte	0x9f
 11000 0509 2E000000 		.4byte	.LVL80
 11001 050d 3C000000 		.4byte	.LVL81
 11002 0511 0100     		.2byte	0x1
 11003 0513 56       		.byte	0x56
 11004 0514 3C000000 		.4byte	.LVL81
 11005 0518 3F000000 		.4byte	.LVL82-1
 11006 051c 0100     		.2byte	0x1
 11007 051e 50       		.byte	0x50
 11008 051f 3F000000 		.4byte	.LVL82-1
 11009 0523 40000000 		.4byte	.LFE290
 11010 0527 0400     		.2byte	0x4
 11011 0529 F3       		.byte	0xf3
 11012 052a 01       		.uleb128 0x1
 11013 052b 50       		.byte	0x50
 11014 052c 9F       		.byte	0x9f
 11015 052d 00000000 		.4byte	0
 11016 0531 00000000 		.4byte	0
 11017              	.LLST38:
 11018 0535 00000000 		.4byte	.LVL74
 11019 0539 08000000 		.4byte	.LVL75
 11020 053d 0100     		.2byte	0x1
 11021 053f 51       		.byte	0x51
 11022 0540 08000000 		.4byte	.LVL75
 11023 0544 40000000 		.4byte	.LFE290
 11024 0548 0400     		.2byte	0x4
 11025 054a F3       		.byte	0xf3
 11026 054b 01       		.uleb128 0x1
 11027 054c 51       		.byte	0x51
 11028 054d 9F       		.byte	0x9f
 11029 054e 00000000 		.4byte	0
 11030 0552 00000000 		.4byte	0
 11031              	.LLST39:
 11032 0556 00000000 		.4byte	.LVL74
 11033 055a 0A000000 		.4byte	.LVL76
 11034 055e 0100     		.2byte	0x1
 11035 0560 52       		.byte	0x52
 11036 0561 0A000000 		.4byte	.LVL76
 11037 0565 2A000000 		.4byte	.LVL79
 11038 0569 0100     		.2byte	0x1
 11039 056b 55       		.byte	0x55
 11040 056c 2A000000 		.4byte	.LVL79
 11041 0570 2E000000 		.4byte	.LVL80
 11042 0574 0400     		.2byte	0x4
 11043 0576 F3       		.byte	0xf3
 11044 0577 01       		.uleb128 0x1
 11045 0578 52       		.byte	0x52
 11046 0579 9F       		.byte	0x9f
 11047 057a 2E000000 		.4byte	.LVL80
 11048 057e 3C000000 		.4byte	.LVL81
 11049 0582 0100     		.2byte	0x1
 11050 0584 55       		.byte	0x55
 11051 0585 3C000000 		.4byte	.LVL81
 11052 0589 3F000000 		.4byte	.LVL82-1
 11053 058d 0100     		.2byte	0x1
 11054 058f 52       		.byte	0x52
ARM GAS  /var/folders/m4/4md61f0s1_g0rzfghffqnxvr0000gn/T//ccHVf8ER.s 			page 195


 11055 0590 3F000000 		.4byte	.LVL82-1
 11056 0594 40000000 		.4byte	.LFE290
 11057 0598 0400     		.2byte	0x4
 11058 059a F3       		.byte	0xf3
 11059 059b 01       		.uleb128 0x1
 11060 059c 52       		.byte	0x52
 11061 059d 9F       		.byte	0x9f
 11062 059e 00000000 		.4byte	0
 11063 05a2 00000000 		.4byte	0
 11064              	.LLST40:
 11065 05a6 1C000000 		.4byte	.LVL78
 11066 05aa 2A000000 		.4byte	.LVL79
 11067 05ae 0100     		.2byte	0x1
 11068 05b0 55       		.byte	0x55
 11069 05b1 2A000000 		.4byte	.LVL79
 11070 05b5 2E000000 		.4byte	.LVL80
 11071 05b9 0400     		.2byte	0x4
 11072 05bb F3       		.byte	0xf3
 11073 05bc 01       		.uleb128 0x1
 11074 05bd 52       		.byte	0x52
 11075 05be 9F       		.byte	0x9f
 11076 05bf 00000000 		.4byte	0
 11077 05c3 00000000 		.4byte	0
 11078              	.LLST41:
 11079 05c7 1C000000 		.4byte	.LVL78
 11080 05cb 2A000000 		.4byte	.LVL79
 11081 05cf 0100     		.2byte	0x1
 11082 05d1 54       		.byte	0x54
 11083 05d2 00000000 		.4byte	0
 11084 05d6 00000000 		.4byte	0
 11085              	.LLST42:
 11086 05da 1C000000 		.4byte	.LVL78
 11087 05de 2A000000 		.4byte	.LVL79
 11088 05e2 0100     		.2byte	0x1
 11089 05e4 56       		.byte	0x56
 11090 05e5 2A000000 		.4byte	.LVL79
 11091 05e9 2D000000 		.4byte	.LVL80-1
 11092 05ed 0100     		.2byte	0x1
 11093 05ef 50       		.byte	0x50
 11094 05f0 2D000000 		.4byte	.LVL80-1
 11095 05f4 2E000000 		.4byte	.LVL80
 11096 05f8 0400     		.2byte	0x4
 11097 05fa F3       		.byte	0xf3
 11098 05fb 01       		.uleb128 0x1
 11099 05fc 50       		.byte	0x50
 11100 05fd 9F       		.byte	0x9f
 11101 05fe 00000000 		.4byte	0
 11102 0602 00000000 		.4byte	0
 11103              	.LLST43:
 11104 0606 00000000 		.4byte	.LVL83
 11105 060a 0D000000 		.4byte	.LVL85-1
 11106 060e 0100     		.2byte	0x1
 11107 0610 50       		.byte	0x50
 11108 0611 0D000000 		.4byte	.LVL85-1
 11109 0615 18000000 		.4byte	.LVL86
 11110 0619 0100     		.2byte	0x1
 11111 061b 55       		.byte	0x55
ARM GAS  /var/folders/m4/4md61f0s1_g0rzfghffqnxvr0000gn/T//ccHVf8ER.s 			page 196


 11112 061c 18000000 		.4byte	.LVL86
 11113 0620 1B000000 		.4byte	.LVL87-1
 11114 0624 0100     		.2byte	0x1
 11115 0626 50       		.byte	0x50
 11116 0627 1B000000 		.4byte	.LVL87-1
 11117 062b 1C000000 		.4byte	.LFE291
 11118 062f 0400     		.2byte	0x4
 11119 0631 F3       		.byte	0xf3
 11120 0632 01       		.uleb128 0x1
 11121 0633 50       		.byte	0x50
 11122 0634 9F       		.byte	0x9f
 11123 0635 00000000 		.4byte	0
 11124 0639 00000000 		.4byte	0
 11125              	.LLST44:
 11126 063d 00000000 		.4byte	.LVL83
 11127 0641 0A000000 		.4byte	.LVL84
 11128 0645 0100     		.2byte	0x1
 11129 0647 51       		.byte	0x51
 11130 0648 0A000000 		.4byte	.LVL84
 11131 064c 18000000 		.4byte	.LVL86
 11132 0650 0100     		.2byte	0x1
 11133 0652 54       		.byte	0x54
 11134 0653 18000000 		.4byte	.LVL86
 11135 0657 1B000000 		.4byte	.LVL87-1
 11136 065b 0100     		.2byte	0x1
 11137 065d 52       		.byte	0x52
 11138 065e 1B000000 		.4byte	.LVL87-1
 11139 0662 1C000000 		.4byte	.LFE291
 11140 0666 0400     		.2byte	0x4
 11141 0668 F3       		.byte	0xf3
 11142 0669 01       		.uleb128 0x1
 11143 066a 51       		.byte	0x51
 11144 066b 9F       		.byte	0x9f
 11145 066c 00000000 		.4byte	0
 11146 0670 00000000 		.4byte	0
 11147              	.LLST45:
 11148 0674 00000000 		.4byte	.LVL88
 11149 0678 11000000 		.4byte	.LVL93-1
 11150 067c 0100     		.2byte	0x1
 11151 067e 50       		.byte	0x50
 11152 067f 11000000 		.4byte	.LVL93-1
 11153 0683 12000000 		.4byte	.LFE292
 11154 0687 0400     		.2byte	0x4
 11155 0689 F3       		.byte	0xf3
 11156 068a 01       		.uleb128 0x1
 11157 068b 50       		.byte	0x50
 11158 068c 9F       		.byte	0x9f
 11159 068d 00000000 		.4byte	0
 11160 0691 00000000 		.4byte	0
 11161              	.LLST46:
 11162 0695 00000000 		.4byte	.LVL88
 11163 0699 0C000000 		.4byte	.LVL92
 11164 069d 0100     		.2byte	0x1
 11165 069f 51       		.byte	0x51
 11166 06a0 0C000000 		.4byte	.LVL92
 11167 06a4 12000000 		.4byte	.LFE292
 11168 06a8 0400     		.2byte	0x4
ARM GAS  /var/folders/m4/4md61f0s1_g0rzfghffqnxvr0000gn/T//ccHVf8ER.s 			page 197


 11169 06aa F3       		.byte	0xf3
 11170 06ab 01       		.uleb128 0x1
 11171 06ac 51       		.byte	0x51
 11172 06ad 9F       		.byte	0x9f
 11173 06ae 00000000 		.4byte	0
 11174 06b2 00000000 		.4byte	0
 11175              	.LLST47:
 11176 06b6 00000000 		.4byte	.LVL88
 11177 06ba 11000000 		.4byte	.LVL93-1
 11178 06be 0100     		.2byte	0x1
 11179 06c0 52       		.byte	0x52
 11180 06c1 11000000 		.4byte	.LVL93-1
 11181 06c5 12000000 		.4byte	.LFE292
 11182 06c9 0400     		.2byte	0x4
 11183 06cb F3       		.byte	0xf3
 11184 06cc 01       		.uleb128 0x1
 11185 06cd 52       		.byte	0x52
 11186 06ce 9F       		.byte	0x9f
 11187 06cf 00000000 		.4byte	0
 11188 06d3 00000000 		.4byte	0
 11189              	.LLST48:
 11190 06d7 04000000 		.4byte	.LVL89
 11191 06db 08000000 		.4byte	.LVL90
 11192 06df 0100     		.2byte	0x1
 11193 06e1 52       		.byte	0x52
 11194 06e2 0A000000 		.4byte	.LVL91
 11195 06e6 11000000 		.4byte	.LVL93-1
 11196 06ea 0100     		.2byte	0x1
 11197 06ec 52       		.byte	0x52
 11198 06ed 11000000 		.4byte	.LVL93-1
 11199 06f1 12000000 		.4byte	.LFE292
 11200 06f5 0400     		.2byte	0x4
 11201 06f7 F3       		.byte	0xf3
 11202 06f8 01       		.uleb128 0x1
 11203 06f9 52       		.byte	0x52
 11204 06fa 9F       		.byte	0x9f
 11205 06fb 00000000 		.4byte	0
 11206 06ff 00000000 		.4byte	0
 11207              	.LLST49:
 11208 0703 04000000 		.4byte	.LVL89
 11209 0707 08000000 		.4byte	.LVL90
 11210 070b 0100     		.2byte	0x1
 11211 070d 51       		.byte	0x51
 11212 070e 0A000000 		.4byte	.LVL91
 11213 0712 0C000000 		.4byte	.LVL92
 11214 0716 0100     		.2byte	0x1
 11215 0718 51       		.byte	0x51
 11216 0719 0C000000 		.4byte	.LVL92
 11217 071d 12000000 		.4byte	.LFE292
 11218 0721 0400     		.2byte	0x4
 11219 0723 F3       		.byte	0xf3
 11220 0724 01       		.uleb128 0x1
 11221 0725 51       		.byte	0x51
 11222 0726 9F       		.byte	0x9f
 11223 0727 00000000 		.4byte	0
 11224 072b 00000000 		.4byte	0
 11225              	.LLST50:
ARM GAS  /var/folders/m4/4md61f0s1_g0rzfghffqnxvr0000gn/T//ccHVf8ER.s 			page 198


 11226 072f 00000000 		.4byte	.LVL94
 11227 0733 05000000 		.4byte	.LVL95-1
 11228 0737 0100     		.2byte	0x1
 11229 0739 50       		.byte	0x50
 11230 073a 05000000 		.4byte	.LVL95-1
 11231 073e 06000000 		.4byte	.LFE293
 11232 0742 0400     		.2byte	0x4
 11233 0744 F3       		.byte	0xf3
 11234 0745 01       		.uleb128 0x1
 11235 0746 50       		.byte	0x50
 11236 0747 9F       		.byte	0x9f
 11237 0748 00000000 		.4byte	0
 11238 074c 00000000 		.4byte	0
 11239              	.LLST51:
 11240 0750 00000000 		.4byte	.LVL96
 11241 0754 0B000000 		.4byte	.LVL98-1
 11242 0758 0100     		.2byte	0x1
 11243 075a 50       		.byte	0x50
 11244 075b 0B000000 		.4byte	.LVL98-1
 11245 075f 1E000000 		.4byte	.LVL100
 11246 0763 0100     		.2byte	0x1
 11247 0765 55       		.byte	0x55
 11248 0766 1E000000 		.4byte	.LVL100
 11249 076a 21000000 		.4byte	.LVL101-1
 11250 076e 0100     		.2byte	0x1
 11251 0770 50       		.byte	0x50
 11252 0771 21000000 		.4byte	.LVL101-1
 11253 0775 22000000 		.4byte	.LFE295
 11254 0779 0400     		.2byte	0x4
 11255 077b F3       		.byte	0xf3
 11256 077c 01       		.uleb128 0x1
 11257 077d 50       		.byte	0x50
 11258 077e 9F       		.byte	0x9f
 11259 077f 00000000 		.4byte	0
 11260 0783 00000000 		.4byte	0
 11261              	.LLST52:
 11262 0787 00000000 		.4byte	.LVL96
 11263 078b 06000000 		.4byte	.LVL97
 11264 078f 0100     		.2byte	0x1
 11265 0791 51       		.byte	0x51
 11266 0792 06000000 		.4byte	.LVL97
 11267 0796 22000000 		.4byte	.LFE295
 11268 079a 0400     		.2byte	0x4
 11269 079c F3       		.byte	0xf3
 11270 079d 01       		.uleb128 0x1
 11271 079e 51       		.byte	0x51
 11272 079f 9F       		.byte	0x9f
 11273 07a0 00000000 		.4byte	0
 11274 07a4 00000000 		.4byte	0
 11275              	.LLST53:
 11276 07a8 0C000000 		.4byte	.LVL98
 11277 07ac 14000000 		.4byte	.LVL99
 11278 07b0 0100     		.2byte	0x1
 11279 07b2 50       		.byte	0x50
 11280 07b3 14000000 		.4byte	.LVL99
 11281 07b7 21000000 		.4byte	.LVL101-1
 11282 07bb 0100     		.2byte	0x1
ARM GAS  /var/folders/m4/4md61f0s1_g0rzfghffqnxvr0000gn/T//ccHVf8ER.s 			page 199


 11283 07bd 52       		.byte	0x52
 11284 07be 00000000 		.4byte	0
 11285 07c2 00000000 		.4byte	0
 11286              	.LLST54:
 11287 07c6 00000000 		.4byte	.LVL102
 11288 07ca 09000000 		.4byte	.LVL103-1
 11289 07ce 0100     		.2byte	0x1
 11290 07d0 50       		.byte	0x50
 11291 07d1 09000000 		.4byte	.LVL103-1
 11292 07d5 16000000 		.4byte	.LVL105
 11293 07d9 0100     		.2byte	0x1
 11294 07db 54       		.byte	0x54
 11295 07dc 16000000 		.4byte	.LVL105
 11296 07e0 19000000 		.4byte	.LVL106-1
 11297 07e4 0100     		.2byte	0x1
 11298 07e6 50       		.byte	0x50
 11299 07e7 19000000 		.4byte	.LVL106-1
 11300 07eb 1A000000 		.4byte	.LFE296
 11301 07ef 0400     		.2byte	0x4
 11302 07f1 F3       		.byte	0xf3
 11303 07f2 01       		.uleb128 0x1
 11304 07f3 50       		.byte	0x50
 11305 07f4 9F       		.byte	0x9f
 11306 07f5 00000000 		.4byte	0
 11307 07f9 00000000 		.4byte	0
 11308              	.LLST55:
 11309 07fd 0A000000 		.4byte	.LVL103
 11310 0801 12000000 		.4byte	.LVL104
 11311 0805 0600     		.2byte	0x6
 11312 0807 70       		.byte	0x70
 11313 0808 00       		.sleb128 0
 11314 0809 09       		.byte	0x9
 11315 080a FB       		.byte	0xfb
 11316 080b 1A       		.byte	0x1a
 11317 080c 9F       		.byte	0x9f
 11318 080d 00000000 		.4byte	0
 11319 0811 00000000 		.4byte	0
 11320              	.LLST56:
 11321 0815 00000000 		.4byte	.LVL107
 11322 0819 0B000000 		.4byte	.LVL109-1
 11323 081d 0100     		.2byte	0x1
 11324 081f 50       		.byte	0x50
 11325 0820 0B000000 		.4byte	.LVL109-1
 11326 0824 1E000000 		.4byte	.LVL111
 11327 0828 0100     		.2byte	0x1
 11328 082a 55       		.byte	0x55
 11329 082b 1E000000 		.4byte	.LVL111
 11330 082f 21000000 		.4byte	.LVL112-1
 11331 0833 0100     		.2byte	0x1
 11332 0835 50       		.byte	0x50
 11333 0836 21000000 		.4byte	.LVL112-1
 11334 083a 22000000 		.4byte	.LFE297
 11335 083e 0400     		.2byte	0x4
 11336 0840 F3       		.byte	0xf3
 11337 0841 01       		.uleb128 0x1
 11338 0842 50       		.byte	0x50
 11339 0843 9F       		.byte	0x9f
ARM GAS  /var/folders/m4/4md61f0s1_g0rzfghffqnxvr0000gn/T//ccHVf8ER.s 			page 200


 11340 0844 00000000 		.4byte	0
 11341 0848 00000000 		.4byte	0
 11342              	.LLST57:
 11343 084c 00000000 		.4byte	.LVL107
 11344 0850 06000000 		.4byte	.LVL108
 11345 0854 0100     		.2byte	0x1
 11346 0856 51       		.byte	0x51
 11347 0857 06000000 		.4byte	.LVL108
 11348 085b 22000000 		.4byte	.LFE297
 11349 085f 0400     		.2byte	0x4
 11350 0861 F3       		.byte	0xf3
 11351 0862 01       		.uleb128 0x1
 11352 0863 51       		.byte	0x51
 11353 0864 9F       		.byte	0x9f
 11354 0865 00000000 		.4byte	0
 11355 0869 00000000 		.4byte	0
 11356              	.LLST58:
 11357 086d 0C000000 		.4byte	.LVL109
 11358 0871 14000000 		.4byte	.LVL110
 11359 0875 0100     		.2byte	0x1
 11360 0877 50       		.byte	0x50
 11361 0878 14000000 		.4byte	.LVL110
 11362 087c 21000000 		.4byte	.LVL112-1
 11363 0880 0100     		.2byte	0x1
 11364 0882 52       		.byte	0x52
 11365 0883 00000000 		.4byte	0
 11366 0887 00000000 		.4byte	0
 11367              	.LLST59:
 11368 088b 00000000 		.4byte	.LVL113
 11369 088f 09000000 		.4byte	.LVL114-1
 11370 0893 0100     		.2byte	0x1
 11371 0895 50       		.byte	0x50
 11372 0896 09000000 		.4byte	.LVL114-1
 11373 089a 0A000000 		.4byte	.LFE298
 11374 089e 0400     		.2byte	0x4
 11375 08a0 F3       		.byte	0xf3
 11376 08a1 01       		.uleb128 0x1
 11377 08a2 50       		.byte	0x50
 11378 08a3 9F       		.byte	0x9f
 11379 08a4 00000000 		.4byte	0
 11380 08a8 00000000 		.4byte	0
 11381              	.LLST60:
 11382 08ac 00000000 		.4byte	.LVL113
 11383 08b0 09000000 		.4byte	.LVL114-1
 11384 08b4 0100     		.2byte	0x1
 11385 08b6 51       		.byte	0x51
 11386 08b7 09000000 		.4byte	.LVL114-1
 11387 08bb 0A000000 		.4byte	.LFE298
 11388 08bf 0400     		.2byte	0x4
 11389 08c1 F3       		.byte	0xf3
 11390 08c2 01       		.uleb128 0x1
 11391 08c3 51       		.byte	0x51
 11392 08c4 9F       		.byte	0x9f
 11393 08c5 00000000 		.4byte	0
 11394 08c9 00000000 		.4byte	0
 11395              	.LLST61:
 11396 08cd 00000000 		.4byte	.LVL113
ARM GAS  /var/folders/m4/4md61f0s1_g0rzfghffqnxvr0000gn/T//ccHVf8ER.s 			page 201


 11397 08d1 09000000 		.4byte	.LVL114-1
 11398 08d5 0100     		.2byte	0x1
 11399 08d7 52       		.byte	0x52
 11400 08d8 09000000 		.4byte	.LVL114-1
 11401 08dc 0A000000 		.4byte	.LFE298
 11402 08e0 0400     		.2byte	0x4
 11403 08e2 F3       		.byte	0xf3
 11404 08e3 01       		.uleb128 0x1
 11405 08e4 52       		.byte	0x52
 11406 08e5 9F       		.byte	0x9f
 11407 08e6 00000000 		.4byte	0
 11408 08ea 00000000 		.4byte	0
 11409              	.LLST62:
 11410 08ee 00000000 		.4byte	.LVL113
 11411 08f2 09000000 		.4byte	.LVL114-1
 11412 08f6 0100     		.2byte	0x1
 11413 08f8 53       		.byte	0x53
 11414 08f9 09000000 		.4byte	.LVL114-1
 11415 08fd 0A000000 		.4byte	.LFE298
 11416 0901 0400     		.2byte	0x4
 11417 0903 F3       		.byte	0xf3
 11418 0904 01       		.uleb128 0x1
 11419 0905 53       		.byte	0x53
 11420 0906 9F       		.byte	0x9f
 11421 0907 00000000 		.4byte	0
 11422 090b 00000000 		.4byte	0
 11423              	.LLST63:
 11424 090f 00000000 		.4byte	.LVL115
 11425 0913 09000000 		.4byte	.LVL116-1
 11426 0917 0100     		.2byte	0x1
 11427 0919 50       		.byte	0x50
 11428 091a 09000000 		.4byte	.LVL116-1
 11429 091e 0A000000 		.4byte	.LFE299
 11430 0922 0400     		.2byte	0x4
 11431 0924 F3       		.byte	0xf3
 11432 0925 01       		.uleb128 0x1
 11433 0926 50       		.byte	0x50
 11434 0927 9F       		.byte	0x9f
 11435 0928 00000000 		.4byte	0
 11436 092c 00000000 		.4byte	0
 11437              	.LLST64:
 11438 0930 00000000 		.4byte	.LVL115
 11439 0934 09000000 		.4byte	.LVL116-1
 11440 0938 0100     		.2byte	0x1
 11441 093a 51       		.byte	0x51
 11442 093b 09000000 		.4byte	.LVL116-1
 11443 093f 0A000000 		.4byte	.LFE299
 11444 0943 0400     		.2byte	0x4
 11445 0945 F3       		.byte	0xf3
 11446 0946 01       		.uleb128 0x1
 11447 0947 51       		.byte	0x51
 11448 0948 9F       		.byte	0x9f
 11449 0949 00000000 		.4byte	0
 11450 094d 00000000 		.4byte	0
 11451              	.LLST65:
 11452 0951 00000000 		.4byte	.LVL115
 11453 0955 09000000 		.4byte	.LVL116-1
ARM GAS  /var/folders/m4/4md61f0s1_g0rzfghffqnxvr0000gn/T//ccHVf8ER.s 			page 202


 11454 0959 0100     		.2byte	0x1
 11455 095b 52       		.byte	0x52
 11456 095c 09000000 		.4byte	.LVL116-1
 11457 0960 0A000000 		.4byte	.LFE299
 11458 0964 0400     		.2byte	0x4
 11459 0966 F3       		.byte	0xf3
 11460 0967 01       		.uleb128 0x1
 11461 0968 52       		.byte	0x52
 11462 0969 9F       		.byte	0x9f
 11463 096a 00000000 		.4byte	0
 11464 096e 00000000 		.4byte	0
 11465              	.LLST66:
 11466 0972 00000000 		.4byte	.LVL117
 11467 0976 14000000 		.4byte	.LVL118
 11468 097a 0100     		.2byte	0x1
 11469 097c 50       		.byte	0x50
 11470 097d 14000000 		.4byte	.LVL118
 11471 0981 34000000 		.4byte	.LVL122
 11472 0985 0100     		.2byte	0x1
 11473 0987 54       		.byte	0x54
 11474 0988 34000000 		.4byte	.LVL122
 11475 098c 38000000 		.4byte	.LFE300
 11476 0990 0400     		.2byte	0x4
 11477 0992 F3       		.byte	0xf3
 11478 0993 01       		.uleb128 0x1
 11479 0994 50       		.byte	0x50
 11480 0995 9F       		.byte	0x9f
 11481 0996 00000000 		.4byte	0
 11482 099a 00000000 		.4byte	0
 11483              	.LLST67:
 11484 099e 00000000 		.4byte	.LVL123
 11485 09a2 09000000 		.4byte	.LVL124-1
 11486 09a6 0100     		.2byte	0x1
 11487 09a8 50       		.byte	0x50
 11488 09a9 09000000 		.4byte	.LVL124-1
 11489 09ad 3C000000 		.4byte	.LVL132
 11490 09b1 0100     		.2byte	0x1
 11491 09b3 54       		.byte	0x54
 11492 09b4 3C000000 		.4byte	.LVL132
 11493 09b8 3F000000 		.4byte	.LVL133-1
 11494 09bc 0100     		.2byte	0x1
 11495 09be 50       		.byte	0x50
 11496 09bf 3F000000 		.4byte	.LVL133-1
 11497 09c3 40000000 		.4byte	.LFE294
 11498 09c7 0400     		.2byte	0x4
 11499 09c9 F3       		.byte	0xf3
 11500 09ca 01       		.uleb128 0x1
 11501 09cb 50       		.byte	0x50
 11502 09cc 9F       		.byte	0x9f
 11503 09cd 00000000 		.4byte	0
 11504 09d1 00000000 		.4byte	0
 11505              	.LLST68:
 11506 09d5 0A000000 		.4byte	.LVL124
 11507 09d9 10000000 		.4byte	.LVL125
 11508 09dd 0100     		.2byte	0x1
 11509 09df 50       		.byte	0x50
 11510 09e0 10000000 		.4byte	.LVL125
ARM GAS  /var/folders/m4/4md61f0s1_g0rzfghffqnxvr0000gn/T//ccHVf8ER.s 			page 203


 11511 09e4 18000000 		.4byte	.LVL126
 11512 09e8 0500     		.2byte	0x5
 11513 09ea 70       		.byte	0x70
 11514 09eb 00       		.sleb128 0
 11515 09ec 34       		.byte	0x34
 11516 09ed 21       		.byte	0x21
 11517 09ee 9F       		.byte	0x9f
 11518 09ef 2A000000 		.4byte	.LVL129
 11519 09f3 2E000000 		.4byte	.LVL130
 11520 09f7 0100     		.2byte	0x1
 11521 09f9 50       		.byte	0x50
 11522 09fa 00000000 		.4byte	0
 11523 09fe 00000000 		.4byte	0
 11524              	.LLST69:
 11525 0a02 00000000 		.4byte	.LVL134
 11526 0a06 14000000 		.4byte	.LVL135
 11527 0a0a 0100     		.2byte	0x1
 11528 0a0c 50       		.byte	0x50
 11529 0a0d 14000000 		.4byte	.LVL135
 11530 0a11 34000000 		.4byte	.LFE301
 11531 0a15 0100     		.2byte	0x1
 11532 0a17 54       		.byte	0x54
 11533 0a18 00000000 		.4byte	0
 11534 0a1c 00000000 		.4byte	0
 11535              	.LLST70:
 11536 0a20 00000000 		.4byte	.LVL139
 11537 0a24 14000000 		.4byte	.LVL140
 11538 0a28 0100     		.2byte	0x1
 11539 0a2a 50       		.byte	0x50
 11540 0a2b 14000000 		.4byte	.LVL140
 11541 0a2f 34000000 		.4byte	.LFE302
 11542 0a33 0100     		.2byte	0x1
 11543 0a35 54       		.byte	0x54
 11544 0a36 00000000 		.4byte	0
 11545 0a3a 00000000 		.4byte	0
 11546              	.LLST71:
 11547 0a3e 3E000000 		.4byte	.LVL148
 11548 0a42 4A000000 		.4byte	.LVL149
 11549 0a46 0200     		.2byte	0x2
 11550 0a48 30       		.byte	0x30
 11551 0a49 9F       		.byte	0x9f
 11552 0a4a 00000000 		.4byte	0
 11553 0a4e 00000000 		.4byte	0
 11554              	.LLST72:
 11555 0a52 56000000 		.4byte	.LVL150
 11556 0a56 5A000000 		.4byte	.LVL151
 11557 0a5a 0100     		.2byte	0x1
 11558 0a5c 53       		.byte	0x53
 11559 0a5d 5A000000 		.4byte	.LVL151
 11560 0a61 66000000 		.4byte	.LVL153
 11561 0a65 0300     		.2byte	0x3
 11562 0a67 73       		.byte	0x73
 11563 0a68 50       		.sleb128 -48
 11564 0a69 9F       		.byte	0x9f
 11565 0a6a 00000000 		.4byte	0
 11566 0a6e 00000000 		.4byte	0
 11567              	.LLST73:
ARM GAS  /var/folders/m4/4md61f0s1_g0rzfghffqnxvr0000gn/T//ccHVf8ER.s 			page 204


 11568 0a72 00000000 		.4byte	.LVL165
 11569 0a76 20000000 		.4byte	.LVL166
 11570 0a7a 0100     		.2byte	0x1
 11571 0a7c 50       		.byte	0x50
 11572 0a7d 20000000 		.4byte	.LVL166
 11573 0a81 46000000 		.4byte	.LFE303
 11574 0a85 0100     		.2byte	0x1
 11575 0a87 54       		.byte	0x54
 11576 0a88 00000000 		.4byte	0
 11577 0a8c 00000000 		.4byte	0
 11578              	.LLST74:
 11579 0a90 00000000 		.4byte	.LVL170
 11580 0a94 1B000000 		.4byte	.LVL171-1
 11581 0a98 0100     		.2byte	0x1
 11582 0a9a 50       		.byte	0x50
 11583 0a9b 1B000000 		.4byte	.LVL171-1
 11584 0a9f 3A000000 		.4byte	.LFE304
 11585 0aa3 0100     		.2byte	0x1
 11586 0aa5 55       		.byte	0x55
 11587 0aa6 00000000 		.4byte	0
 11588 0aaa 00000000 		.4byte	0
 11589              	.LLST75:
 11590 0aae 1C000000 		.4byte	.LVL171
 11591 0ab2 24000000 		.4byte	.LVL172
 11592 0ab6 0500     		.2byte	0x5
 11593 0ab8 70       		.byte	0x70
 11594 0ab9 00       		.sleb128 0
 11595 0aba 31       		.byte	0x31
 11596 0abb 21       		.byte	0x21
 11597 0abc 9F       		.byte	0x9f
 11598 0abd 00000000 		.4byte	0
 11599 0ac1 00000000 		.4byte	0
 11600              	.LLST76:
 11601 0ac5 00000000 		.4byte	.LVL174
 11602 0ac9 22000000 		.4byte	.LVL177
 11603 0acd 0100     		.2byte	0x1
 11604 0acf 50       		.byte	0x50
 11605 0ad0 22000000 		.4byte	.LVL177
 11606 0ad4 28000000 		.4byte	.LVL178
 11607 0ad8 0400     		.2byte	0x4
 11608 0ada F3       		.byte	0xf3
 11609 0adb 01       		.uleb128 0x1
 11610 0adc 50       		.byte	0x50
 11611 0add 9F       		.byte	0x9f
 11612 0ade 28000000 		.4byte	.LVL178
 11613 0ae2 32000000 		.4byte	.LVL181
 11614 0ae6 0100     		.2byte	0x1
 11615 0ae8 50       		.byte	0x50
 11616 0ae9 32000000 		.4byte	.LVL181
 11617 0aed 2E020000 		.4byte	.LFE271
 11618 0af1 0100     		.2byte	0x1
 11619 0af3 54       		.byte	0x54
 11620 0af4 00000000 		.4byte	0
 11621 0af8 00000000 		.4byte	0
 11622              	.LLST77:
 11623 0afc 00000000 		.4byte	.LVL174
 11624 0b00 3A000000 		.4byte	.LVL183
ARM GAS  /var/folders/m4/4md61f0s1_g0rzfghffqnxvr0000gn/T//ccHVf8ER.s 			page 205


 11625 0b04 0100     		.2byte	0x1
 11626 0b06 51       		.byte	0x51
 11627 0b07 3A000000 		.4byte	.LVL183
 11628 0b0b 2E020000 		.4byte	.LFE271
 11629 0b0f 0100     		.2byte	0x1
 11630 0b11 5A       		.byte	0x5a
 11631 0b12 00000000 		.4byte	0
 11632 0b16 00000000 		.4byte	0
 11633              	.LLST78:
 11634 0b1a 00000000 		.4byte	.LVL174
 11635 0b1e 38000000 		.4byte	.LVL182
 11636 0b22 0100     		.2byte	0x1
 11637 0b24 52       		.byte	0x52
 11638 0b25 38000000 		.4byte	.LVL182
 11639 0b29 2E020000 		.4byte	.LFE271
 11640 0b2d 0100     		.2byte	0x1
 11641 0b2f 57       		.byte	0x57
 11642 0b30 00000000 		.4byte	0
 11643 0b34 00000000 		.4byte	0
 11644              	.LLST79:
 11645 0b38 00000000 		.4byte	.LVL174
 11646 0b3c 30000000 		.4byte	.LVL180
 11647 0b40 0100     		.2byte	0x1
 11648 0b42 53       		.byte	0x53
 11649 0b43 30000000 		.4byte	.LVL180
 11650 0b47 B4000000 		.4byte	.LVL196
 11651 0b4b 0200     		.2byte	0x2
 11652 0b4d 7D       		.byte	0x7d
 11653 0b4e 00       		.sleb128 0
 11654 0b4f B4000000 		.4byte	.LVL196
 11655 0b53 B8000000 		.4byte	.LVL197
 11656 0b57 0300     		.2byte	0x3
 11657 0b59 91       		.byte	0x91
 11658 0b5a B87F     		.sleb128 -72
 11659 0b5c B8000000 		.4byte	.LVL197
 11660 0b60 02020000 		.4byte	.LVL236
 11661 0b64 0200     		.2byte	0x2
 11662 0b66 7D       		.byte	0x7d
 11663 0b67 00       		.sleb128 0
 11664 0b68 02020000 		.4byte	.LVL236
 11665 0b6c 06020000 		.4byte	.LVL237
 11666 0b70 0300     		.2byte	0x3
 11667 0b72 91       		.byte	0x91
 11668 0b73 B87F     		.sleb128 -72
 11669 0b75 06020000 		.4byte	.LVL237
 11670 0b79 2E020000 		.4byte	.LFE271
 11671 0b7d 0200     		.2byte	0x2
 11672 0b7f 7D       		.byte	0x7d
 11673 0b80 00       		.sleb128 0
 11674 0b81 00000000 		.4byte	0
 11675 0b85 00000000 		.4byte	0
 11676              	.LLST80:
 11677 0b89 08000000 		.4byte	.LVL175
 11678 0b8d 2C000000 		.4byte	.LVL179
 11679 0b91 0200     		.2byte	0x2
 11680 0b93 30       		.byte	0x30
 11681 0b94 9F       		.byte	0x9f
ARM GAS  /var/folders/m4/4md61f0s1_g0rzfghffqnxvr0000gn/T//ccHVf8ER.s 			page 206


 11682 0b95 2C000000 		.4byte	.LVL179
 11683 0b99 2E020000 		.4byte	.LFE271
 11684 0b9d 0100     		.2byte	0x1
 11685 0b9f 54       		.byte	0x54
 11686 0ba0 00000000 		.4byte	0
 11687 0ba4 00000000 		.4byte	0
 11688              	.LLST81:
 11689 0ba8 2C000000 		.4byte	.LVL179
 11690 0bac 4A000000 		.4byte	.LVL186
 11691 0bb0 0200     		.2byte	0x2
 11692 0bb2 30       		.byte	0x30
 11693 0bb3 9F       		.byte	0x9f
 11694 0bb4 4A000000 		.4byte	.LVL186
 11695 0bb8 80000000 		.4byte	.LVL190
 11696 0bbc 0100     		.2byte	0x1
 11697 0bbe 55       		.byte	0x55
 11698 0bbf 82000000 		.4byte	.LVL191
 11699 0bc3 AA010000 		.4byte	.LVL224
 11700 0bc7 0100     		.2byte	0x1
 11701 0bc9 55       		.byte	0x55
 11702 0bca AC010000 		.4byte	.LVL225
 11703 0bce 2E020000 		.4byte	.LFE271
 11704 0bd2 0100     		.2byte	0x1
 11705 0bd4 55       		.byte	0x55
 11706 0bd5 00000000 		.4byte	0
 11707 0bd9 00000000 		.4byte	0
 11708              	.LLST82:
 11709 0bdd 08000000 		.4byte	.LVL175
 11710 0be1 12000000 		.4byte	.LVL176
 11711 0be5 0200     		.2byte	0x2
 11712 0be7 30       		.byte	0x30
 11713 0be8 9F       		.byte	0x9f
 11714 0be9 00000000 		.4byte	0
 11715 0bed 00000000 		.4byte	0
 11716              	.LLST83:
 11717 0bf1 2C000000 		.4byte	.LVL179
 11718 0bf5 3A000000 		.4byte	.LVL183
 11719 0bf9 0300     		.2byte	0x3
 11720 0bfb 91       		.byte	0x91
 11721 0bfc 44       		.sleb128 -60
 11722 0bfd 9F       		.byte	0x9f
 11723 0bfe 3A000000 		.4byte	.LVL183
 11724 0c02 3D000000 		.4byte	.LVL184-1
 11725 0c06 0100     		.2byte	0x1
 11726 0c08 51       		.byte	0x51
 11727 0c09 3D000000 		.4byte	.LVL184-1
 11728 0c0d AA000000 		.4byte	.LVL194
 11729 0c11 0300     		.2byte	0x3
 11730 0c13 91       		.byte	0x91
 11731 0c14 44       		.sleb128 -60
 11732 0c15 9F       		.byte	0x9f
 11733 0c16 AA000000 		.4byte	.LVL194
 11734 0c1a AF000000 		.4byte	.LVL195-1
 11735 0c1e 0100     		.2byte	0x1
 11736 0c20 51       		.byte	0x51
 11737 0c21 AF000000 		.4byte	.LVL195-1
 11738 0c25 EA010000 		.4byte	.LVL234
ARM GAS  /var/folders/m4/4md61f0s1_g0rzfghffqnxvr0000gn/T//ccHVf8ER.s 			page 207


 11739 0c29 0300     		.2byte	0x3
 11740 0c2b 91       		.byte	0x91
 11741 0c2c 44       		.sleb128 -60
 11742 0c2d 9F       		.byte	0x9f
 11743 0c2e EA010000 		.4byte	.LVL234
 11744 0c32 ED010000 		.4byte	.LVL235-1
 11745 0c36 0100     		.2byte	0x1
 11746 0c38 51       		.byte	0x51
 11747 0c39 ED010000 		.4byte	.LVL235-1
 11748 0c3d 2E020000 		.4byte	.LFE271
 11749 0c41 0300     		.2byte	0x3
 11750 0c43 91       		.byte	0x91
 11751 0c44 44       		.sleb128 -60
 11752 0c45 9F       		.byte	0x9f
 11753 0c46 00000000 		.4byte	0
 11754 0c4a 00000000 		.4byte	0
 11755              	.LLST84:
 11756 0c4e 60010000 		.4byte	.LVL211
 11757 0c52 66010000 		.4byte	.LVL213
 11758 0c56 0100     		.2byte	0x1
 11759 0c58 50       		.byte	0x50
 11760 0c59 00000000 		.4byte	0
 11761 0c5d 00000000 		.4byte	0
 11762              	.LLST85:
 11763 0c61 5E000000 		.4byte	.LVL187
 11764 0c65 92000000 		.4byte	.LVL192
 11765 0c69 0100     		.2byte	0x1
 11766 0c6b 5E       		.byte	0x5e
 11767 0c6c 00000000 		.4byte	0
 11768 0c70 00000000 		.4byte	0
 11769              	.LLST86:
 11770 0c74 5E000000 		.4byte	.LVL187
 11771 0c78 66000000 		.4byte	.LVL188
 11772 0c7c 0200     		.2byte	0x2
 11773 0c7e 30       		.byte	0x30
 11774 0c7f 9F       		.byte	0x9f
 11775 0c80 66000000 		.4byte	.LVL188
 11776 0c84 6C000000 		.4byte	.LVL189
 11777 0c88 0100     		.2byte	0x1
 11778 0c8a 51       		.byte	0x51
 11779 0c8b 00000000 		.4byte	0
 11780 0c8f 00000000 		.4byte	0
 11781              	.LLST87:
 11782 0c93 B8000000 		.4byte	.LVL197
 11783 0c97 AE010000 		.4byte	.LVL226
 11784 0c9b 0100     		.2byte	0x1
 11785 0c9d 59       		.byte	0x59
 11786 0c9e BA010000 		.4byte	.LVL228
 11787 0ca2 2E020000 		.4byte	.LFE271
 11788 0ca6 0100     		.2byte	0x1
 11789 0ca8 59       		.byte	0x59
 11790 0ca9 00000000 		.4byte	0
 11791 0cad 00000000 		.4byte	0
 11792              	.LLST88:
 11793 0cb1 E8000000 		.4byte	.LVL200
 11794 0cb5 0E010000 		.4byte	.LVL202
 11795 0cb9 0100     		.2byte	0x1
ARM GAS  /var/folders/m4/4md61f0s1_g0rzfghffqnxvr0000gn/T//ccHVf8ER.s 			page 208


 11796 0cbb 50       		.byte	0x50
 11797 0cbc 70010000 		.4byte	.LVL215
 11798 0cc0 76010000 		.4byte	.LVL216
 11799 0cc4 0100     		.2byte	0x1
 11800 0cc6 50       		.byte	0x50
 11801 0cc7 84010000 		.4byte	.LVL217
 11802 0ccb 92010000 		.4byte	.LVL218
 11803 0ccf 0100     		.2byte	0x1
 11804 0cd1 50       		.byte	0x50
 11805 0cd2 9E010000 		.4byte	.LVL221
 11806 0cd6 A8010000 		.4byte	.LVL223
 11807 0cda 0100     		.2byte	0x1
 11808 0cdc 50       		.byte	0x50
 11809 0cdd BA010000 		.4byte	.LVL228
 11810 0ce1 BE010000 		.4byte	.LVL229
 11811 0ce5 0100     		.2byte	0x1
 11812 0ce7 50       		.byte	0x50
 11813 0ce8 06020000 		.4byte	.LVL237
 11814 0cec 10020000 		.4byte	.LVL238
 11815 0cf0 0100     		.2byte	0x1
 11816 0cf2 50       		.byte	0x50
 11817 0cf3 1C020000 		.4byte	.LVL241
 11818 0cf7 1E020000 		.4byte	.LVL242
 11819 0cfb 0100     		.2byte	0x1
 11820 0cfd 50       		.byte	0x50
 11821 0cfe 00000000 		.4byte	0
 11822 0d02 00000000 		.4byte	0
 11823              	.LLST89:
 11824 0d06 E8000000 		.4byte	.LVL200
 11825 0d0a 48010000 		.4byte	.LVL209
 11826 0d0e 0900     		.2byte	0x9
 11827 0d10 76       		.byte	0x76
 11828 0d11 00       		.sleb128 0
 11829 0d12 08       		.byte	0x8
 11830 0d13 30       		.byte	0x30
 11831 0d14 1E       		.byte	0x1e
 11832 0d15 79       		.byte	0x79
 11833 0d16 00       		.sleb128 0
 11834 0d17 22       		.byte	0x22
 11835 0d18 9F       		.byte	0x9f
 11836 0d19 70010000 		.4byte	.LVL215
 11837 0d1d AE010000 		.4byte	.LVL226
 11838 0d21 0900     		.2byte	0x9
 11839 0d23 76       		.byte	0x76
 11840 0d24 00       		.sleb128 0
 11841 0d25 08       		.byte	0x8
 11842 0d26 30       		.byte	0x30
 11843 0d27 1E       		.byte	0x1e
 11844 0d28 79       		.byte	0x79
 11845 0d29 00       		.sleb128 0
 11846 0d2a 22       		.byte	0x22
 11847 0d2b 9F       		.byte	0x9f
 11848 0d2c BA010000 		.4byte	.LVL228
 11849 0d30 E6010000 		.4byte	.LVL233
 11850 0d34 0900     		.2byte	0x9
 11851 0d36 76       		.byte	0x76
 11852 0d37 00       		.sleb128 0
ARM GAS  /var/folders/m4/4md61f0s1_g0rzfghffqnxvr0000gn/T//ccHVf8ER.s 			page 209


 11853 0d38 08       		.byte	0x8
 11854 0d39 30       		.byte	0x30
 11855 0d3a 1E       		.byte	0x1e
 11856 0d3b 79       		.byte	0x79
 11857 0d3c 00       		.sleb128 0
 11858 0d3d 22       		.byte	0x22
 11859 0d3e 9F       		.byte	0x9f
 11860 0d3f 06020000 		.4byte	.LVL237
 11861 0d43 2E020000 		.4byte	.LFE271
 11862 0d47 0900     		.2byte	0x9
 11863 0d49 76       		.byte	0x76
 11864 0d4a 00       		.sleb128 0
 11865 0d4b 08       		.byte	0x8
 11866 0d4c 30       		.byte	0x30
 11867 0d4d 1E       		.byte	0x1e
 11868 0d4e 79       		.byte	0x79
 11869 0d4f 00       		.sleb128 0
 11870 0d50 22       		.byte	0x22
 11871 0d51 9F       		.byte	0x9f
 11872 0d52 00000000 		.4byte	0
 11873 0d56 00000000 		.4byte	0
 11874              	.LLST90:
 11875 0d5a 00010000 		.4byte	.LVL201
 11876 0d5e 16010000 		.4byte	.LVL203
 11877 0d62 0100     		.2byte	0x1
 11878 0d64 53       		.byte	0x53
 11879 0d65 18010000 		.4byte	.LVL204
 11880 0d69 26010000 		.4byte	.LVL206
 11881 0d6d 0100     		.2byte	0x1
 11882 0d6f 53       		.byte	0x53
 11883 0d70 CC010000 		.4byte	.LVL230
 11884 0d74 E0010000 		.4byte	.LVL231
 11885 0d78 0100     		.2byte	0x1
 11886 0d7a 53       		.byte	0x53
 11887 0d7b 00000000 		.4byte	0
 11888 0d7f 00000000 		.4byte	0
 11889              	.LLST91:
 11890 0d83 20010000 		.4byte	.LVL205
 11891 0d87 38010000 		.4byte	.LVL208
 11892 0d8b 0300     		.2byte	0x3
 11893 0d8d 91       		.byte	0x91
 11894 0d8e 43       		.sleb128 -61
 11895 0d8f 9F       		.byte	0x9f
 11896 0d90 CC010000 		.4byte	.LVL230
 11897 0d94 E0010000 		.4byte	.LVL231
 11898 0d98 0300     		.2byte	0x3
 11899 0d9a 91       		.byte	0x91
 11900 0d9b 43       		.sleb128 -61
 11901 0d9c 9F       		.byte	0x9f
 11902 0d9d E0010000 		.4byte	.LVL231
 11903 0da1 E3010000 		.4byte	.LVL232-1
 11904 0da5 0100     		.2byte	0x1
 11905 0da7 53       		.byte	0x53
 11906 0da8 E3010000 		.4byte	.LVL232-1
 11907 0dac E6010000 		.4byte	.LVL233
 11908 0db0 0300     		.2byte	0x3
 11909 0db2 91       		.byte	0x91
ARM GAS  /var/folders/m4/4md61f0s1_g0rzfghffqnxvr0000gn/T//ccHVf8ER.s 			page 210


 11910 0db3 43       		.sleb128 -61
 11911 0db4 9F       		.byte	0x9f
 11912 0db5 00000000 		.4byte	0
 11913 0db9 00000000 		.4byte	0
 11914              	.LLST92:
 11915 0dbd 20010000 		.4byte	.LVL205
 11916 0dc1 34010000 		.4byte	.LVL207
 11917 0dc5 0100     		.2byte	0x1
 11918 0dc7 58       		.byte	0x58
 11919 0dc8 CC010000 		.4byte	.LVL230
 11920 0dcc E6010000 		.4byte	.LVL233
 11921 0dd0 0100     		.2byte	0x1
 11922 0dd2 58       		.byte	0x58
 11923 0dd3 00000000 		.4byte	0
 11924 0dd7 00000000 		.4byte	0
 11925              	.LLST93:
 11926 0ddb 70010000 		.4byte	.LVL215
 11927 0ddf 98010000 		.4byte	.LVL219
 11928 0de3 0300     		.2byte	0x3
 11929 0de5 91       		.byte	0x91
 11930 0de6 43       		.sleb128 -61
 11931 0de7 9F       		.byte	0x9f
 11932 0de8 98010000 		.4byte	.LVL219
 11933 0dec 9B010000 		.4byte	.LVL220-1
 11934 0df0 0100     		.2byte	0x1
 11935 0df2 53       		.byte	0x53
 11936 0df3 9B010000 		.4byte	.LVL220-1
 11937 0df7 9E010000 		.4byte	.LVL221
 11938 0dfb 0300     		.2byte	0x3
 11939 0dfd 91       		.byte	0x91
 11940 0dfe 43       		.sleb128 -61
 11941 0dff 9F       		.byte	0x9f
 11942 0e00 00000000 		.4byte	0
 11943 0e04 00000000 		.4byte	0
 11944              	.LLST94:
 11945 0e08 70010000 		.4byte	.LVL215
 11946 0e0c 9E010000 		.4byte	.LVL221
 11947 0e10 0100     		.2byte	0x1
 11948 0e12 58       		.byte	0x58
 11949 0e13 00000000 		.4byte	0
 11950 0e17 00000000 		.4byte	0
 11951              	.LLST95:
 11952 0e1b A4010000 		.4byte	.LVL222
 11953 0e1f AE010000 		.4byte	.LVL226
 11954 0e23 0300     		.2byte	0x3
 11955 0e25 91       		.byte	0x91
 11956 0e26 43       		.sleb128 -61
 11957 0e27 9F       		.byte	0x9f
 11958 0e28 1C020000 		.4byte	.LVL241
 11959 0e2c 28020000 		.4byte	.LVL243
 11960 0e30 0300     		.2byte	0x3
 11961 0e32 91       		.byte	0x91
 11962 0e33 43       		.sleb128 -61
 11963 0e34 9F       		.byte	0x9f
 11964 0e35 28020000 		.4byte	.LVL243
 11965 0e39 2B020000 		.4byte	.LVL244-1
 11966 0e3d 0100     		.2byte	0x1
ARM GAS  /var/folders/m4/4md61f0s1_g0rzfghffqnxvr0000gn/T//ccHVf8ER.s 			page 211


 11967 0e3f 53       		.byte	0x53
 11968 0e40 2B020000 		.4byte	.LVL244-1
 11969 0e44 2E020000 		.4byte	.LFE271
 11970 0e48 0300     		.2byte	0x3
 11971 0e4a 91       		.byte	0x91
 11972 0e4b 43       		.sleb128 -61
 11973 0e4c 9F       		.byte	0x9f
 11974 0e4d 00000000 		.4byte	0
 11975 0e51 00000000 		.4byte	0
 11976              	.LLST96:
 11977 0e55 A4010000 		.4byte	.LVL222
 11978 0e59 A8010000 		.4byte	.LVL223
 11979 0e5d 0100     		.2byte	0x1
 11980 0e5f 50       		.byte	0x50
 11981 0e60 1C020000 		.4byte	.LVL241
 11982 0e64 1E020000 		.4byte	.LVL242
 11983 0e68 0100     		.2byte	0x1
 11984 0e6a 50       		.byte	0x50
 11985 0e6b 00000000 		.4byte	0
 11986 0e6f 00000000 		.4byte	0
 11987              	.LLST97:
 11988 0e73 BA010000 		.4byte	.LVL228
 11989 0e77 CC010000 		.4byte	.LVL230
 11990 0e7b 0300     		.2byte	0x3
 11991 0e7d 91       		.byte	0x91
 11992 0e7e 43       		.sleb128 -61
 11993 0e7f 9F       		.byte	0x9f
 11994 0e80 06020000 		.4byte	.LVL237
 11995 0e84 16020000 		.4byte	.LVL239
 11996 0e88 0300     		.2byte	0x3
 11997 0e8a 91       		.byte	0x91
 11998 0e8b 43       		.sleb128 -61
 11999 0e8c 9F       		.byte	0x9f
 12000 0e8d 16020000 		.4byte	.LVL239
 12001 0e91 19020000 		.4byte	.LVL240-1
 12002 0e95 0100     		.2byte	0x1
 12003 0e97 53       		.byte	0x53
 12004 0e98 19020000 		.4byte	.LVL240-1
 12005 0e9c 1C020000 		.4byte	.LVL241
 12006 0ea0 0300     		.2byte	0x3
 12007 0ea2 91       		.byte	0x91
 12008 0ea3 43       		.sleb128 -61
 12009 0ea4 9F       		.byte	0x9f
 12010 0ea5 00000000 		.4byte	0
 12011 0ea9 00000000 		.4byte	0
 12012              	.LLST98:
 12013 0ead BA010000 		.4byte	.LVL228
 12014 0eb1 BE010000 		.4byte	.LVL229
 12015 0eb5 0100     		.2byte	0x1
 12016 0eb7 50       		.byte	0x50
 12017 0eb8 06020000 		.4byte	.LVL237
 12018 0ebc 10020000 		.4byte	.LVL238
 12019 0ec0 0100     		.2byte	0x1
 12020 0ec2 50       		.byte	0x50
 12021 0ec3 00000000 		.4byte	0
 12022 0ec7 00000000 		.4byte	0
 12023              	.LLST99:
ARM GAS  /var/folders/m4/4md61f0s1_g0rzfghffqnxvr0000gn/T//ccHVf8ER.s 			page 212


 12024 0ecb 64010000 		.4byte	.LVL212
 12025 0ecf 70010000 		.4byte	.LVL215
 12026 0ed3 0300     		.2byte	0x3
 12027 0ed5 08       		.byte	0x8
 12028 0ed6 40       		.byte	0x40
 12029 0ed7 9F       		.byte	0x9f
 12030 0ed8 00000000 		.4byte	0
 12031 0edc 00000000 		.4byte	0
 12032              	.LLST100:
 12033 0ee0 64010000 		.4byte	.LVL212
 12034 0ee4 70010000 		.4byte	.LVL215
 12035 0ee8 0100     		.2byte	0x1
 12036 0eea 59       		.byte	0x59
 12037 0eeb 00000000 		.4byte	0
 12038 0eef 00000000 		.4byte	0
 12039              	.LLST101:
 12040 0ef3 EE010000 		.4byte	.LVL235
 12041 0ef7 06020000 		.4byte	.LVL237
 12042 0efb 0100     		.2byte	0x1
 12043 0efd 59       		.byte	0x59
 12044 0efe 00000000 		.4byte	0
 12045 0f02 00000000 		.4byte	0
 12046              	.LLST102:
 12047 0f06 98000000 		.4byte	.LVL193
 12048 0f0a B8000000 		.4byte	.LVL197
 12049 0f0e 0100     		.2byte	0x1
 12050 0f10 59       		.byte	0x59
 12051 0f11 00000000 		.4byte	0
 12052 0f15 00000000 		.4byte	0
 12053              	.LLST103:
 12054 0f19 00000000 		.4byte	.LVL245
 12055 0f1d 1A000000 		.4byte	.LVL248
 12056 0f21 0100     		.2byte	0x1
 12057 0f23 50       		.byte	0x50
 12058 0f24 1A000000 		.4byte	.LVL248
 12059 0f28 1E000000 		.4byte	.LVL249
 12060 0f2c 0400     		.2byte	0x4
 12061 0f2e F3       		.byte	0xf3
 12062 0f2f 01       		.uleb128 0x1
 12063 0f30 50       		.byte	0x50
 12064 0f31 9F       		.byte	0x9f
 12065 0f32 1E000000 		.4byte	.LVL249
 12066 0f36 32000000 		.4byte	.LVL251
 12067 0f3a 0100     		.2byte	0x1
 12068 0f3c 50       		.byte	0x50
 12069 0f3d 32000000 		.4byte	.LVL251
 12070 0f41 36000000 		.4byte	.LVL252
 12071 0f45 0400     		.2byte	0x4
 12072 0f47 F3       		.byte	0xf3
 12073 0f48 01       		.uleb128 0x1
 12074 0f49 50       		.byte	0x50
 12075 0f4a 9F       		.byte	0x9f
 12076 0f4b 36000000 		.4byte	.LVL252
 12077 0f4f 41000000 		.4byte	.LVL255-1
 12078 0f53 0100     		.2byte	0x1
 12079 0f55 50       		.byte	0x50
 12080 0f56 41000000 		.4byte	.LVL255-1
ARM GAS  /var/folders/m4/4md61f0s1_g0rzfghffqnxvr0000gn/T//ccHVf8ER.s 			page 213


 12081 0f5a 54000000 		.4byte	.LFE273
 12082 0f5e 0400     		.2byte	0x4
 12083 0f60 F3       		.byte	0xf3
 12084 0f61 01       		.uleb128 0x1
 12085 0f62 50       		.byte	0x50
 12086 0f63 9F       		.byte	0x9f
 12087 0f64 00000000 		.4byte	0
 12088 0f68 00000000 		.4byte	0
 12089              	.LLST104:
 12090 0f6c 00000000 		.4byte	.LVL245
 12091 0f70 3E000000 		.4byte	.LVL254
 12092 0f74 0100     		.2byte	0x1
 12093 0f76 51       		.byte	0x51
 12094 0f77 3E000000 		.4byte	.LVL254
 12095 0f7b 41000000 		.4byte	.LVL255-1
 12096 0f7f 0100     		.2byte	0x1
 12097 0f81 53       		.byte	0x53
 12098 0f82 41000000 		.4byte	.LVL255-1
 12099 0f86 54000000 		.4byte	.LFE273
 12100 0f8a 0400     		.2byte	0x4
 12101 0f8c F3       		.byte	0xf3
 12102 0f8d 01       		.uleb128 0x1
 12103 0f8e 51       		.byte	0x51
 12104 0f8f 9F       		.byte	0x9f
 12105 0f90 00000000 		.4byte	0
 12106 0f94 00000000 		.4byte	0
 12107              	.LLST105:
 12108 0f98 04000000 		.4byte	.LVL246
 12109 0f9c 1E000000 		.4byte	.LVL249
 12110 0fa0 0200     		.2byte	0x2
 12111 0fa2 30       		.byte	0x30
 12112 0fa3 9F       		.byte	0x9f
 12113 0fa4 1E000000 		.4byte	.LVL249
 12114 0fa8 32000000 		.4byte	.LVL251
 12115 0fac 0100     		.2byte	0x1
 12116 0fae 50       		.byte	0x50
 12117 0faf 32000000 		.4byte	.LVL251
 12118 0fb3 36000000 		.4byte	.LVL252
 12119 0fb7 0400     		.2byte	0x4
 12120 0fb9 F3       		.byte	0xf3
 12121 0fba 01       		.uleb128 0x1
 12122 0fbb 50       		.byte	0x50
 12123 0fbc 9F       		.byte	0x9f
 12124 0fbd 36000000 		.4byte	.LVL252
 12125 0fc1 41000000 		.4byte	.LVL255-1
 12126 0fc5 0100     		.2byte	0x1
 12127 0fc7 50       		.byte	0x50
 12128 0fc8 41000000 		.4byte	.LVL255-1
 12129 0fcc 54000000 		.4byte	.LFE273
 12130 0fd0 0400     		.2byte	0x4
 12131 0fd2 F3       		.byte	0xf3
 12132 0fd3 01       		.uleb128 0x1
 12133 0fd4 50       		.byte	0x50
 12134 0fd5 9F       		.byte	0x9f
 12135 0fd6 00000000 		.4byte	0
 12136 0fda 00000000 		.4byte	0
 12137              	.LLST106:
ARM GAS  /var/folders/m4/4md61f0s1_g0rzfghffqnxvr0000gn/T//ccHVf8ER.s 			page 214


 12138 0fde 04000000 		.4byte	.LVL246
 12139 0fe2 0A000000 		.4byte	.LVL247
 12140 0fe6 0200     		.2byte	0x2
 12141 0fe8 30       		.byte	0x30
 12142 0fe9 9F       		.byte	0x9f
 12143 0fea 00000000 		.4byte	0
 12144 0fee 00000000 		.4byte	0
 12145              	.LLST107:
 12146 0ff2 2C000000 		.4byte	.LVL250
 12147 0ff6 36000000 		.4byte	.LVL252
 12148 0ffa 0100     		.2byte	0x1
 12149 0ffc 53       		.byte	0x53
 12150 0ffd 00000000 		.4byte	0
 12151 1001 00000000 		.4byte	0
 12152              	.LLST108:
 12153 1005 38000000 		.4byte	.LVL253
 12154 1009 41000000 		.4byte	.LVL255-1
 12155 100d 0100     		.2byte	0x1
 12156 100f 53       		.byte	0x53
 12157 1010 41000000 		.4byte	.LVL255-1
 12158 1014 54000000 		.4byte	.LFE273
 12159 1018 0400     		.2byte	0x4
 12160 101a F3       		.byte	0xf3
 12161 101b 01       		.uleb128 0x1
 12162 101c 51       		.byte	0x51
 12163 101d 9F       		.byte	0x9f
 12164 101e 00000000 		.4byte	0
 12165 1022 00000000 		.4byte	0
 12166              	.LLST109:
 12167 1026 36000000 		.4byte	.LVL252
 12168 102a 41000000 		.4byte	.LVL255-1
 12169 102e 0100     		.2byte	0x1
 12170 1030 50       		.byte	0x50
 12171 1031 41000000 		.4byte	.LVL255-1
 12172 1035 54000000 		.4byte	.LFE273
 12173 1039 0400     		.2byte	0x4
 12174 103b F3       		.byte	0xf3
 12175 103c 01       		.uleb128 0x1
 12176 103d 50       		.byte	0x50
 12177 103e 9F       		.byte	0x9f
 12178 103f 00000000 		.4byte	0
 12179 1043 00000000 		.4byte	0
 12180              	.LLST110:
 12181 1047 00000000 		.4byte	.LVL256
 12182 104b 07000000 		.4byte	.LVL257-1
 12183 104f 0100     		.2byte	0x1
 12184 1051 50       		.byte	0x50
 12185 1052 07000000 		.4byte	.LVL257-1
 12186 1056 08000000 		.4byte	.LFE277
 12187 105a 0400     		.2byte	0x4
 12188 105c F3       		.byte	0xf3
 12189 105d 01       		.uleb128 0x1
 12190 105e 50       		.byte	0x50
 12191 105f 9F       		.byte	0x9f
 12192 1060 00000000 		.4byte	0
 12193 1064 00000000 		.4byte	0
 12194              	.LLST111:
ARM GAS  /var/folders/m4/4md61f0s1_g0rzfghffqnxvr0000gn/T//ccHVf8ER.s 			page 215


 12195 1068 00000000 		.4byte	.LVL258
 12196 106c 07000000 		.4byte	.LVL259-1
 12197 1070 0100     		.2byte	0x1
 12198 1072 50       		.byte	0x50
 12199 1073 07000000 		.4byte	.LVL259-1
 12200 1077 08000000 		.4byte	.LFE275
 12201 107b 0400     		.2byte	0x4
 12202 107d F3       		.byte	0xf3
 12203 107e 01       		.uleb128 0x1
 12204 107f 50       		.byte	0x50
 12205 1080 9F       		.byte	0x9f
 12206 1081 00000000 		.4byte	0
 12207 1085 00000000 		.4byte	0
 12208              	.LLST112:
 12209 1089 00000000 		.4byte	.LVL258
 12210 108d 07000000 		.4byte	.LVL259-1
 12211 1091 0100     		.2byte	0x1
 12212 1093 51       		.byte	0x51
 12213 1094 07000000 		.4byte	.LVL259-1
 12214 1098 08000000 		.4byte	.LFE275
 12215 109c 0400     		.2byte	0x4
 12216 109e F3       		.byte	0xf3
 12217 109f 01       		.uleb128 0x1
 12218 10a0 51       		.byte	0x51
 12219 10a1 9F       		.byte	0x9f
 12220 10a2 00000000 		.4byte	0
 12221 10a6 00000000 		.4byte	0
 12222              	.LLST113:
 12223 10aa 00000000 		.4byte	.LVL258
 12224 10ae 07000000 		.4byte	.LVL259-1
 12225 10b2 0100     		.2byte	0x1
 12226 10b4 52       		.byte	0x52
 12227 10b5 07000000 		.4byte	.LVL259-1
 12228 10b9 08000000 		.4byte	.LFE275
 12229 10bd 0400     		.2byte	0x4
 12230 10bf F3       		.byte	0xf3
 12231 10c0 01       		.uleb128 0x1
 12232 10c1 52       		.byte	0x52
 12233 10c2 9F       		.byte	0x9f
 12234 10c3 00000000 		.4byte	0
 12235 10c7 00000000 		.4byte	0
 12236              	.LLST114:
 12237 10cb 00000000 		.4byte	.LVL260
 12238 10cf 1B000000 		.4byte	.LVL261-1
 12239 10d3 0100     		.2byte	0x1
 12240 10d5 50       		.byte	0x50
 12241 10d6 1B000000 		.4byte	.LVL261-1
 12242 10da 38000000 		.4byte	.LFE305
 12243 10de 0100     		.2byte	0x1
 12244 10e0 55       		.byte	0x55
 12245 10e1 00000000 		.4byte	0
 12246 10e5 00000000 		.4byte	0
 12247              	.LLST115:
 12248 10e9 1C000000 		.4byte	.LVL261
 12249 10ed 24000000 		.4byte	.LVL262
 12250 10f1 0600     		.2byte	0x6
 12251 10f3 70       		.byte	0x70
ARM GAS  /var/folders/m4/4md61f0s1_g0rzfghffqnxvr0000gn/T//ccHVf8ER.s 			page 216


 12252 10f4 00       		.sleb128 0
 12253 10f5 09       		.byte	0x9
 12254 10f6 FE       		.byte	0xfe
 12255 10f7 1A       		.byte	0x1a
 12256 10f8 9F       		.byte	0x9f
 12257 10f9 00000000 		.4byte	0
 12258 10fd 00000000 		.4byte	0
 12259              	.LLST116:
 12260 1101 00000000 		.4byte	.LVL264
 12261 1105 10000000 		.4byte	.LVL266
 12262 1109 0100     		.2byte	0x1
 12263 110b 50       		.byte	0x50
 12264 110c 10000000 		.4byte	.LVL266
 12265 1110 18000000 		.4byte	.LVL267
 12266 1114 0400     		.2byte	0x4
 12267 1116 F3       		.byte	0xf3
 12268 1117 01       		.uleb128 0x1
 12269 1118 50       		.byte	0x50
 12270 1119 9F       		.byte	0x9f
 12271 111a 18000000 		.4byte	.LVL267
 12272 111e 1E000000 		.4byte	.LVL269
 12273 1122 0100     		.2byte	0x1
 12274 1124 50       		.byte	0x50
 12275 1125 1E000000 		.4byte	.LVL269
 12276 1129 F2000000 		.4byte	.LFE270
 12277 112d 0400     		.2byte	0x4
 12278 112f F3       		.byte	0xf3
 12279 1130 01       		.uleb128 0x1
 12280 1131 50       		.byte	0x50
 12281 1132 9F       		.byte	0x9f
 12282 1133 00000000 		.4byte	0
 12283 1137 00000000 		.4byte	0
 12284              	.LLST117:
 12285 113b 00000000 		.4byte	.LVL264
 12286 113f 10000000 		.4byte	.LVL266
 12287 1143 0100     		.2byte	0x1
 12288 1145 51       		.byte	0x51
 12289 1146 10000000 		.4byte	.LVL266
 12290 114a 18000000 		.4byte	.LVL267
 12291 114e 0400     		.2byte	0x4
 12292 1150 F3       		.byte	0xf3
 12293 1151 01       		.uleb128 0x1
 12294 1152 51       		.byte	0x51
 12295 1153 9F       		.byte	0x9f
 12296 1154 18000000 		.4byte	.LVL267
 12297 1158 2C000000 		.4byte	.LVL272
 12298 115c 0100     		.2byte	0x1
 12299 115e 51       		.byte	0x51
 12300 115f 2C000000 		.4byte	.LVL272
 12301 1163 F2000000 		.4byte	.LFE270
 12302 1167 0100     		.2byte	0x1
 12303 1169 58       		.byte	0x58
 12304 116a 00000000 		.4byte	0
 12305 116e 00000000 		.4byte	0
 12306              	.LLST118:
 12307 1172 00000000 		.4byte	.LVL264
 12308 1176 10000000 		.4byte	.LVL266
ARM GAS  /var/folders/m4/4md61f0s1_g0rzfghffqnxvr0000gn/T//ccHVf8ER.s 			page 217


 12309 117a 0100     		.2byte	0x1
 12310 117c 52       		.byte	0x52
 12311 117d 10000000 		.4byte	.LVL266
 12312 1181 18000000 		.4byte	.LVL267
 12313 1185 0400     		.2byte	0x4
 12314 1187 F3       		.byte	0xf3
 12315 1188 01       		.uleb128 0x1
 12316 1189 52       		.byte	0x52
 12317 118a 9F       		.byte	0x9f
 12318 118b 18000000 		.4byte	.LVL267
 12319 118f 28000000 		.4byte	.LVL271
 12320 1193 0100     		.2byte	0x1
 12321 1195 52       		.byte	0x52
 12322 1196 28000000 		.4byte	.LVL271
 12323 119a F2000000 		.4byte	.LFE270
 12324 119e 0100     		.2byte	0x1
 12325 11a0 57       		.byte	0x57
 12326 11a1 00000000 		.4byte	0
 12327 11a5 00000000 		.4byte	0
 12328              	.LLST119:
 12329 11a9 00000000 		.4byte	.LVL264
 12330 11ad 10000000 		.4byte	.LVL266
 12331 11b1 0100     		.2byte	0x1
 12332 11b3 53       		.byte	0x53
 12333 11b4 10000000 		.4byte	.LVL266
 12334 11b8 18000000 		.4byte	.LVL267
 12335 11bc 0400     		.2byte	0x4
 12336 11be F3       		.byte	0xf3
 12337 11bf 01       		.uleb128 0x1
 12338 11c0 53       		.byte	0x53
 12339 11c1 9F       		.byte	0x9f
 12340 11c2 18000000 		.4byte	.LVL267
 12341 11c6 26000000 		.4byte	.LVL270
 12342 11ca 0100     		.2byte	0x1
 12343 11cc 53       		.byte	0x53
 12344 11cd 26000000 		.4byte	.LVL270
 12345 11d1 F2000000 		.4byte	.LFE270
 12346 11d5 0100     		.2byte	0x1
 12347 11d7 59       		.byte	0x59
 12348 11d8 00000000 		.4byte	0
 12349 11dc 00000000 		.4byte	0
 12350              	.LLST120:
 12351 11e0 30000000 		.4byte	.LVL273
 12352 11e4 48000000 		.4byte	.LVL277
 12353 11e8 0200     		.2byte	0x2
 12354 11ea 30       		.byte	0x30
 12355 11eb 9F       		.byte	0x9f
 12356 11ec 48000000 		.4byte	.LVL277
 12357 11f0 8C000000 		.4byte	.LVL290
 12358 11f4 0100     		.2byte	0x1
 12359 11f6 5B       		.byte	0x5b
 12360 11f7 8C000000 		.4byte	.LVL290
 12361 11fb 9A000000 		.4byte	.LVL294
 12362 11ff 0200     		.2byte	0x2
 12363 1201 30       		.byte	0x30
 12364 1202 9F       		.byte	0x9f
 12365 1203 BE000000 		.4byte	.LVL298
ARM GAS  /var/folders/m4/4md61f0s1_g0rzfghffqnxvr0000gn/T//ccHVf8ER.s 			page 218


 12366 1207 F2000000 		.4byte	.LFE270
 12367 120b 0100     		.2byte	0x1
 12368 120d 5B       		.byte	0x5b
 12369 120e 00000000 		.4byte	0
 12370 1212 00000000 		.4byte	0
 12371              	.LLST121:
 12372 1216 36000000 		.4byte	.LVL274
 12373 121a 3E000000 		.4byte	.LVL275
 12374 121e 0100     		.2byte	0x1
 12375 1220 50       		.byte	0x50
 12376 1221 78000000 		.4byte	.LVL286
 12377 1225 82000000 		.4byte	.LVL288
 12378 1229 0100     		.2byte	0x1
 12379 122b 50       		.byte	0x50
 12380 122c 8C000000 		.4byte	.LVL290
 12381 1230 8E000000 		.4byte	.LVL291
 12382 1234 0100     		.2byte	0x1
 12383 1236 50       		.byte	0x50
 12384 1237 D8000000 		.4byte	.LVL301
 12385 123b DA000000 		.4byte	.LVL302
 12386 123f 0100     		.2byte	0x1
 12387 1241 50       		.byte	0x50
 12388 1242 00000000 		.4byte	0
 12389 1246 00000000 		.4byte	0
 12390              	.LLST122:
 12391 124a 1C000000 		.4byte	.LVL268
 12392 124e 2C000000 		.4byte	.LVL272
 12393 1252 0300     		.2byte	0x3
 12394 1254 91       		.byte	0x91
 12395 1255 44       		.sleb128 -60
 12396 1256 9F       		.byte	0x9f
 12397 1257 2C000000 		.4byte	.LVL272
 12398 125b 2F000000 		.4byte	.LVL273-1
 12399 125f 0100     		.2byte	0x1
 12400 1261 51       		.byte	0x51
 12401 1262 2F000000 		.4byte	.LVL273-1
 12402 1266 90000000 		.4byte	.LVL292
 12403 126a 0300     		.2byte	0x3
 12404 126c 91       		.byte	0x91
 12405 126d 44       		.sleb128 -60
 12406 126e 9F       		.byte	0x9f
 12407 126f 90000000 		.4byte	.LVL292
 12408 1273 93000000 		.4byte	.LVL293-1
 12409 1277 0100     		.2byte	0x1
 12410 1279 51       		.byte	0x51
 12411 127a 93000000 		.4byte	.LVL293-1
 12412 127e B8000000 		.4byte	.LVL296
 12413 1282 0300     		.2byte	0x3
 12414 1284 91       		.byte	0x91
 12415 1285 44       		.sleb128 -60
 12416 1286 9F       		.byte	0x9f
 12417 1287 B8000000 		.4byte	.LVL296
 12418 128b BB000000 		.4byte	.LVL297-1
 12419 128f 0100     		.2byte	0x1
 12420 1291 51       		.byte	0x51
 12421 1292 BB000000 		.4byte	.LVL297-1
 12422 1296 C2000000 		.4byte	.LVL299
ARM GAS  /var/folders/m4/4md61f0s1_g0rzfghffqnxvr0000gn/T//ccHVf8ER.s 			page 219


 12423 129a 0300     		.2byte	0x3
 12424 129c 91       		.byte	0x91
 12425 129d 44       		.sleb128 -60
 12426 129e 9F       		.byte	0x9f
 12427 129f C2000000 		.4byte	.LVL299
 12428 12a3 C5000000 		.4byte	.LVL300-1
 12429 12a7 0100     		.2byte	0x1
 12430 12a9 51       		.byte	0x51
 12431 12aa C5000000 		.4byte	.LVL300-1
 12432 12ae DC000000 		.4byte	.LVL303
 12433 12b2 0300     		.2byte	0x3
 12434 12b4 91       		.byte	0x91
 12435 12b5 44       		.sleb128 -60
 12436 12b6 9F       		.byte	0x9f
 12437 12b7 DC000000 		.4byte	.LVL303
 12438 12bb DF000000 		.4byte	.LVL304-1
 12439 12bf 0100     		.2byte	0x1
 12440 12c1 51       		.byte	0x51
 12441 12c2 DF000000 		.4byte	.LVL304-1
 12442 12c6 F2000000 		.4byte	.LFE270
 12443 12ca 0300     		.2byte	0x3
 12444 12cc 91       		.byte	0x91
 12445 12cd 44       		.sleb128 -60
 12446 12ce 9F       		.byte	0x9f
 12447 12cf 00000000 		.4byte	0
 12448 12d3 00000000 		.4byte	0
 12449              	.LLST123:
 12450 12d7 48000000 		.4byte	.LVL277
 12451 12db 4A000000 		.4byte	.LVL278
 12452 12df 0100     		.2byte	0x1
 12453 12e1 54       		.byte	0x54
 12454 12e2 4A000000 		.4byte	.LVL278
 12455 12e6 52000000 		.4byte	.LVL280
 12456 12ea 1C00     		.2byte	0x1c
 12457 12ec 08       		.byte	0x8
 12458 12ed 20       		.byte	0x20
 12459 12ee 77       		.byte	0x77
 12460 12ef 00       		.sleb128 0
 12461 12f0 75       		.byte	0x75
 12462 12f1 00       		.sleb128 0
 12463 12f2 1C       		.byte	0x1c
 12464 12f3 77       		.byte	0x77
 12465 12f4 00       		.sleb128 0
 12466 12f5 75       		.byte	0x75
 12467 12f6 00       		.sleb128 0
 12468 12f7 1C       		.byte	0x1c
 12469 12f8 40       		.byte	0x40
 12470 12f9 4B       		.byte	0x4b
 12471 12fa 24       		.byte	0x24
 12472 12fb 22       		.byte	0x22
 12473 12fc 0C       		.byte	0xc
 12474 12fd 20000080 		.4byte	0x80000020
 12475 1301 2A       		.byte	0x2a
 12476 1302 28       		.byte	0x28
 12477 1303 0100     		.2byte	0x1
 12478 1305 16       		.byte	0x16
 12479 1306 13       		.byte	0x13
ARM GAS  /var/folders/m4/4md61f0s1_g0rzfghffqnxvr0000gn/T//ccHVf8ER.s 			page 220


 12480 1307 9F       		.byte	0x9f
 12481 1308 5C000000 		.4byte	.LVL282
 12482 130c 8C000000 		.4byte	.LVL290
 12483 1310 0100     		.2byte	0x1
 12484 1312 54       		.byte	0x54
 12485 1313 BE000000 		.4byte	.LVL298
 12486 1317 F2000000 		.4byte	.LFE270
 12487 131b 0100     		.2byte	0x1
 12488 131d 54       		.byte	0x54
 12489 131e 00000000 		.4byte	0
 12490 1322 00000000 		.4byte	0
 12491              	.LLST124:
 12492 1326 48000000 		.4byte	.LVL277
 12493 132a 52000000 		.4byte	.LVL280
 12494 132e 0600     		.2byte	0x6
 12495 1330 78       		.byte	0x78
 12496 1331 00       		.sleb128 0
 12497 1332 75       		.byte	0x75
 12498 1333 00       		.sleb128 0
 12499 1334 22       		.byte	0x22
 12500 1335 9F       		.byte	0x9f
 12501 1336 5C000000 		.4byte	.LVL282
 12502 133a 64000000 		.4byte	.LVL283
 12503 133e 0600     		.2byte	0x6
 12504 1340 78       		.byte	0x78
 12505 1341 00       		.sleb128 0
 12506 1342 75       		.byte	0x75
 12507 1343 00       		.sleb128 0
 12508 1344 22       		.byte	0x22
 12509 1345 9F       		.byte	0x9f
 12510 1346 64000000 		.4byte	.LVL283
 12511 134a 67000000 		.4byte	.LVL284-1
 12512 134e 0100     		.2byte	0x1
 12513 1350 52       		.byte	0x52
 12514 1351 67000000 		.4byte	.LVL284-1
 12515 1355 8C000000 		.4byte	.LVL290
 12516 1359 0600     		.2byte	0x6
 12517 135b 78       		.byte	0x78
 12518 135c 00       		.sleb128 0
 12519 135d 75       		.byte	0x75
 12520 135e 00       		.sleb128 0
 12521 135f 22       		.byte	0x22
 12522 1360 9F       		.byte	0x9f
 12523 1361 BE000000 		.4byte	.LVL298
 12524 1365 F2000000 		.4byte	.LFE270
 12525 1369 0600     		.2byte	0x6
 12526 136b 78       		.byte	0x78
 12527 136c 00       		.sleb128 0
 12528 136d 75       		.byte	0x75
 12529 136e 00       		.sleb128 0
 12530 136f 22       		.byte	0x22
 12531 1370 9F       		.byte	0x9f
 12532 1371 00000000 		.4byte	0
 12533 1375 00000000 		.4byte	0
 12534              	.LLST126:
 12535 1379 48000000 		.4byte	.LVL277
 12536 137d 54000000 		.4byte	.LVL281
ARM GAS  /var/folders/m4/4md61f0s1_g0rzfghffqnxvr0000gn/T//ccHVf8ER.s 			page 221


 12537 1381 0100     		.2byte	0x1
 12538 1383 56       		.byte	0x56
 12539 1384 5C000000 		.4byte	.LVL282
 12540 1388 8C000000 		.4byte	.LVL290
 12541 138c 0100     		.2byte	0x1
 12542 138e 56       		.byte	0x56
 12543 138f BE000000 		.4byte	.LVL298
 12544 1393 F2000000 		.4byte	.LFE270
 12545 1397 0100     		.2byte	0x1
 12546 1399 56       		.byte	0x56
 12547 139a 00000000 		.4byte	0
 12548 139e 00000000 		.4byte	0
 12549              	.LLST127:
 12550 13a2 80000000 		.4byte	.LVL287
 12551 13a6 8C000000 		.4byte	.LVL290
 12552 13aa 0300     		.2byte	0x3
 12553 13ac 08       		.byte	0x8
 12554 13ad 20       		.byte	0x20
 12555 13ae 9F       		.byte	0x9f
 12556 13af 00000000 		.4byte	0
 12557 13b3 00000000 		.4byte	0
 12558              	.LLST128:
 12559 13b7 80000000 		.4byte	.LVL287
 12560 13bb 8C000000 		.4byte	.LVL290
 12561 13bf 0100     		.2byte	0x1
 12562 13c1 56       		.byte	0x56
 12563 13c2 00000000 		.4byte	0
 12564 13c6 00000000 		.4byte	0
 12565              	.LLST129:
 12566 13ca C6000000 		.4byte	.LVL300
 12567 13ce D8000000 		.4byte	.LVL301
 12568 13d2 0100     		.2byte	0x1
 12569 13d4 56       		.byte	0x56
 12570 13d5 00000000 		.4byte	0
 12571 13d9 00000000 		.4byte	0
 12572              	.LLST130:
 12573 13dd 9A000000 		.4byte	.LVL294
 12574 13e1 BE000000 		.4byte	.LVL298
 12575 13e5 0100     		.2byte	0x1
 12576 13e7 56       		.byte	0x56
 12577 13e8 00000000 		.4byte	0
 12578 13ec 00000000 		.4byte	0
 12579              	.LLST131:
 12580 13f0 00000000 		.4byte	.LVL307
 12581 13f4 13000000 		.4byte	.LVL310-1
 12582 13f8 0100     		.2byte	0x1
 12583 13fa 50       		.byte	0x50
 12584 13fb 13000000 		.4byte	.LVL310-1
 12585 13ff 20000000 		.4byte	.LFE272
 12586 1403 0400     		.2byte	0x4
 12587 1405 F3       		.byte	0xf3
 12588 1406 01       		.uleb128 0x1
 12589 1407 50       		.byte	0x50
 12590 1408 9F       		.byte	0x9f
 12591 1409 00000000 		.4byte	0
 12592 140d 00000000 		.4byte	0
 12593              	.LLST132:
ARM GAS  /var/folders/m4/4md61f0s1_g0rzfghffqnxvr0000gn/T//ccHVf8ER.s 			page 222


 12594 1411 00000000 		.4byte	.LVL307
 12595 1415 10000000 		.4byte	.LVL309
 12596 1419 0100     		.2byte	0x1
 12597 141b 51       		.byte	0x51
 12598 141c 10000000 		.4byte	.LVL309
 12599 1420 13000000 		.4byte	.LVL310-1
 12600 1424 0200     		.2byte	0x2
 12601 1426 71       		.byte	0x71
 12602 1427 00       		.sleb128 0
 12603 1428 13000000 		.4byte	.LVL310-1
 12604 142c 20000000 		.4byte	.LFE272
 12605 1430 0200     		.2byte	0x2
 12606 1432 74       		.byte	0x74
 12607 1433 00       		.sleb128 0
 12608 1434 00000000 		.4byte	0
 12609 1438 00000000 		.4byte	0
 12610              	.LLST133:
 12611 143c 00000000 		.4byte	.LVL307
 12612 1440 0E000000 		.4byte	.LVL308
 12613 1444 0100     		.2byte	0x1
 12614 1446 52       		.byte	0x52
 12615 1447 0E000000 		.4byte	.LVL308
 12616 144b 13000000 		.4byte	.LVL310-1
 12617 144f 0100     		.2byte	0x1
 12618 1451 53       		.byte	0x53
 12619 1452 13000000 		.4byte	.LVL310-1
 12620 1456 20000000 		.4byte	.LFE272
 12621 145a 0400     		.2byte	0x4
 12622 145c F3       		.byte	0xf3
 12623 145d 01       		.uleb128 0x1
 12624 145e 52       		.byte	0x52
 12625 145f 9F       		.byte	0x9f
 12626 1460 00000000 		.4byte	0
 12627 1464 00000000 		.4byte	0
 12628              	.LLST134:
 12629 1468 00000000 		.4byte	.LVL311
 12630 146c 15000000 		.4byte	.LVL314-1
 12631 1470 0100     		.2byte	0x1
 12632 1472 50       		.byte	0x50
 12633 1473 15000000 		.4byte	.LVL314-1
 12634 1477 22000000 		.4byte	.LFE276
 12635 147b 0400     		.2byte	0x4
 12636 147d F3       		.byte	0xf3
 12637 147e 01       		.uleb128 0x1
 12638 147f 50       		.byte	0x50
 12639 1480 9F       		.byte	0x9f
 12640 1481 00000000 		.4byte	0
 12641 1485 00000000 		.4byte	0
 12642              	.LLST135:
 12643 1489 00000000 		.4byte	.LVL311
 12644 148d 12000000 		.4byte	.LVL313
 12645 1491 0100     		.2byte	0x1
 12646 1493 51       		.byte	0x51
 12647 1494 12000000 		.4byte	.LVL313
 12648 1498 15000000 		.4byte	.LVL314-1
 12649 149c 0200     		.2byte	0x2
 12650 149e 71       		.byte	0x71
ARM GAS  /var/folders/m4/4md61f0s1_g0rzfghffqnxvr0000gn/T//ccHVf8ER.s 			page 223


 12651 149f 00       		.sleb128 0
 12652 14a0 15000000 		.4byte	.LVL314-1
 12653 14a4 22000000 		.4byte	.LFE276
 12654 14a8 0400     		.2byte	0x4
 12655 14aa F3       		.byte	0xf3
 12656 14ab 01       		.uleb128 0x1
 12657 14ac 51       		.byte	0x51
 12658 14ad 9F       		.byte	0x9f
 12659 14ae 00000000 		.4byte	0
 12660 14b2 00000000 		.4byte	0
 12661              	.LLST137:
 12662 14b6 00000000 		.4byte	.LVL315
 12663 14ba 07000000 		.4byte	.LVL316-1
 12664 14be 0100     		.2byte	0x1
 12665 14c0 50       		.byte	0x50
 12666 14c1 07000000 		.4byte	.LVL316-1
 12667 14c5 08000000 		.4byte	.LFE274
 12668 14c9 0400     		.2byte	0x4
 12669 14cb F3       		.byte	0xf3
 12670 14cc 01       		.uleb128 0x1
 12671 14cd 50       		.byte	0x50
 12672 14ce 9F       		.byte	0x9f
 12673 14cf 00000000 		.4byte	0
 12674 14d3 00000000 		.4byte	0
 12675              	.LLST138:
 12676 14d7 00000000 		.4byte	.LVL315
 12677 14db 07000000 		.4byte	.LVL316-1
 12678 14df 0100     		.2byte	0x1
 12679 14e1 51       		.byte	0x51
 12680 14e2 07000000 		.4byte	.LVL316-1
 12681 14e6 08000000 		.4byte	.LFE274
 12682 14ea 0400     		.2byte	0x4
 12683 14ec F3       		.byte	0xf3
 12684 14ed 01       		.uleb128 0x1
 12685 14ee 51       		.byte	0x51
 12686 14ef 9F       		.byte	0x9f
 12687 14f0 00000000 		.4byte	0
 12688 14f4 00000000 		.4byte	0
 12689              	.LLST139:
 12690 14f8 00000000 		.4byte	.LVL315
 12691 14fc 07000000 		.4byte	.LVL316-1
 12692 1500 0100     		.2byte	0x1
 12693 1502 52       		.byte	0x52
 12694 1503 07000000 		.4byte	.LVL316-1
 12695 1507 08000000 		.4byte	.LFE274
 12696 150b 0400     		.2byte	0x4
 12697 150d F3       		.byte	0xf3
 12698 150e 01       		.uleb128 0x1
 12699 150f 52       		.byte	0x52
 12700 1510 9F       		.byte	0x9f
 12701 1511 00000000 		.4byte	0
 12702 1515 00000000 		.4byte	0
 12703              	.LLST140:
 12704 1519 00000000 		.4byte	.LVL318
 12705 151d 0B000000 		.4byte	.LVL320-1
 12706 1521 0100     		.2byte	0x1
 12707 1523 50       		.byte	0x50
ARM GAS  /var/folders/m4/4md61f0s1_g0rzfghffqnxvr0000gn/T//ccHVf8ER.s 			page 224


 12708 1524 0B000000 		.4byte	.LVL320-1
 12709 1528 1E000000 		.4byte	.LVL322
 12710 152c 0100     		.2byte	0x1
 12711 152e 55       		.byte	0x55
 12712 152f 1E000000 		.4byte	.LVL322
 12713 1533 21000000 		.4byte	.LVL323-1
 12714 1537 0100     		.2byte	0x1
 12715 1539 50       		.byte	0x50
 12716 153a 21000000 		.4byte	.LVL323-1
 12717 153e 22000000 		.4byte	.LFE307
 12718 1542 0400     		.2byte	0x4
 12719 1544 F3       		.byte	0xf3
 12720 1545 01       		.uleb128 0x1
 12721 1546 50       		.byte	0x50
 12722 1547 9F       		.byte	0x9f
 12723 1548 00000000 		.4byte	0
 12724 154c 00000000 		.4byte	0
 12725              	.LLST141:
 12726 1550 00000000 		.4byte	.LVL318
 12727 1554 06000000 		.4byte	.LVL319
 12728 1558 0100     		.2byte	0x1
 12729 155a 51       		.byte	0x51
 12730 155b 06000000 		.4byte	.LVL319
 12731 155f 22000000 		.4byte	.LFE307
 12732 1563 0400     		.2byte	0x4
 12733 1565 F3       		.byte	0xf3
 12734 1566 01       		.uleb128 0x1
 12735 1567 51       		.byte	0x51
 12736 1568 9F       		.byte	0x9f
 12737 1569 00000000 		.4byte	0
 12738 156d 00000000 		.4byte	0
 12739              	.LLST142:
 12740 1571 0C000000 		.4byte	.LVL320
 12741 1575 14000000 		.4byte	.LVL321
 12742 1579 0100     		.2byte	0x1
 12743 157b 50       		.byte	0x50
 12744 157c 14000000 		.4byte	.LVL321
 12745 1580 21000000 		.4byte	.LVL323-1
 12746 1584 0100     		.2byte	0x1
 12747 1586 52       		.byte	0x52
 12748 1587 00000000 		.4byte	0
 12749 158b 00000000 		.4byte	0
 12750              	.LLST143:
 12751 158f 00000000 		.4byte	.LVL324
 12752 1593 0E000000 		.4byte	.LVL325
 12753 1597 0100     		.2byte	0x1
 12754 1599 50       		.byte	0x50
 12755 159a 0E000000 		.4byte	.LVL325
 12756 159e 11000000 		.4byte	.LVL326-1
 12757 15a2 0400     		.2byte	0x4
 12758 15a4 70       		.byte	0x70
 12759 15a5 E07D     		.sleb128 -288
 12760 15a7 9F       		.byte	0x9f
 12761 15a8 11000000 		.4byte	.LVL326-1
 12762 15ac 1A000000 		.4byte	.LFE308
 12763 15b0 0400     		.2byte	0x4
 12764 15b2 F3       		.byte	0xf3
ARM GAS  /var/folders/m4/4md61f0s1_g0rzfghffqnxvr0000gn/T//ccHVf8ER.s 			page 225


 12765 15b3 01       		.uleb128 0x1
 12766 15b4 50       		.byte	0x50
 12767 15b5 9F       		.byte	0x9f
 12768 15b6 00000000 		.4byte	0
 12769 15ba 00000000 		.4byte	0
 12770              		.section	.debug_aranges,"",%progbits
 12771 0000 6C010000 		.4byte	0x16c
 12772 0004 0200     		.2byte	0x2
 12773 0006 00000000 		.4byte	.Ldebug_info0
 12774 000a 04       		.byte	0x4
 12775 000b 00       		.byte	0
 12776 000c 0000     		.2byte	0
 12777 000e 0000     		.2byte	0
 12778 0010 00000000 		.4byte	.LFB268
 12779 0014 1C000000 		.4byte	.LFE268-.LFB268
 12780 0018 00000000 		.4byte	.LFB311
 12781 001c 5A000000 		.4byte	.LFE311-.LFB311
 12782 0020 00000000 		.4byte	.LFB312
 12783 0024 46000000 		.4byte	.LFE312-.LFB312
 12784 0028 00000000 		.4byte	.LFB278
 12785 002c 34000000 		.4byte	.LFE278-.LFB278
 12786 0030 00000000 		.4byte	.LFB279
 12787 0034 06000000 		.4byte	.LFE279-.LFB279
 12788 0038 00000000 		.4byte	.LFB280
 12789 003c 3C000000 		.4byte	.LFE280-.LFB280
 12790 0040 00000000 		.4byte	.LFB281
 12791 0044 48000000 		.4byte	.LFE281-.LFB281
 12792 0048 00000000 		.4byte	.LFB282
 12793 004c 4A000000 		.4byte	.LFE282-.LFB282
 12794 0050 00000000 		.4byte	.LFB283
 12795 0054 46000000 		.4byte	.LFE283-.LFB283
 12796 0058 00000000 		.4byte	.LFB284
 12797 005c 3C000000 		.4byte	.LFE284-.LFB284
 12798 0060 00000000 		.4byte	.LFB285
 12799 0064 1C000000 		.4byte	.LFE285-.LFB285
 12800 0068 00000000 		.4byte	.LFB286
 12801 006c 1A000000 		.4byte	.LFE286-.LFB286
 12802 0070 00000000 		.4byte	.LFB287
 12803 0074 10000000 		.4byte	.LFE287-.LFB287
 12804 0078 00000000 		.4byte	.LFB288
 12805 007c 0A000000 		.4byte	.LFE288-.LFB288
 12806 0080 00000000 		.4byte	.LFB289
 12807 0084 0A000000 		.4byte	.LFE289-.LFB289
 12808 0088 00000000 		.4byte	.LFB290
 12809 008c 40000000 		.4byte	.LFE290-.LFB290
 12810 0090 00000000 		.4byte	.LFB291
 12811 0094 1C000000 		.4byte	.LFE291-.LFB291
 12812 0098 00000000 		.4byte	.LFB292
 12813 009c 12000000 		.4byte	.LFE292-.LFB292
 12814 00a0 00000000 		.4byte	.LFB293
 12815 00a4 06000000 		.4byte	.LFE293-.LFB293
 12816 00a8 00000000 		.4byte	.LFB295
 12817 00ac 22000000 		.4byte	.LFE295-.LFB295
 12818 00b0 00000000 		.4byte	.LFB296
 12819 00b4 1A000000 		.4byte	.LFE296-.LFB296
 12820 00b8 00000000 		.4byte	.LFB297
 12821 00bc 22000000 		.4byte	.LFE297-.LFB297
ARM GAS  /var/folders/m4/4md61f0s1_g0rzfghffqnxvr0000gn/T//ccHVf8ER.s 			page 226


 12822 00c0 00000000 		.4byte	.LFB298
 12823 00c4 0A000000 		.4byte	.LFE298-.LFB298
 12824 00c8 00000000 		.4byte	.LFB299
 12825 00cc 0A000000 		.4byte	.LFE299-.LFB299
 12826 00d0 00000000 		.4byte	.LFB300
 12827 00d4 38000000 		.4byte	.LFE300-.LFB300
 12828 00d8 00000000 		.4byte	.LFB294
 12829 00dc 40000000 		.4byte	.LFE294-.LFB294
 12830 00e0 00000000 		.4byte	.LFB301
 12831 00e4 34000000 		.4byte	.LFE301-.LFB301
 12832 00e8 00000000 		.4byte	.LFB302
 12833 00ec 34000000 		.4byte	.LFE302-.LFB302
 12834 00f0 00000000 		.4byte	.LFB269
 12835 00f4 F0000000 		.4byte	.LFE269-.LFB269
 12836 00f8 00000000 		.4byte	.LFB303
 12837 00fc 46000000 		.4byte	.LFE303-.LFB303
 12838 0100 00000000 		.4byte	.LFB304
 12839 0104 3A000000 		.4byte	.LFE304-.LFB304
 12840 0108 00000000 		.4byte	.LFB271
 12841 010c 2E020000 		.4byte	.LFE271-.LFB271
 12842 0110 00000000 		.4byte	.LFB273
 12843 0114 54000000 		.4byte	.LFE273-.LFB273
 12844 0118 00000000 		.4byte	.LFB277
 12845 011c 08000000 		.4byte	.LFE277-.LFB277
 12846 0120 00000000 		.4byte	.LFB275
 12847 0124 08000000 		.4byte	.LFE275-.LFB275
 12848 0128 00000000 		.4byte	.LFB305
 12849 012c 38000000 		.4byte	.LFE305-.LFB305
 12850 0130 00000000 		.4byte	.LFB270
 12851 0134 F2000000 		.4byte	.LFE270-.LFB270
 12852 0138 00000000 		.4byte	.LFB272
 12853 013c 20000000 		.4byte	.LFE272-.LFB272
 12854 0140 00000000 		.4byte	.LFB276
 12855 0144 22000000 		.4byte	.LFE276-.LFB276
 12856 0148 00000000 		.4byte	.LFB274
 12857 014c 08000000 		.4byte	.LFE274-.LFB274
 12858 0150 00000000 		.4byte	.LFB306
 12859 0154 12000000 		.4byte	.LFE306-.LFB306
 12860 0158 00000000 		.4byte	.LFB307
 12861 015c 22000000 		.4byte	.LFE307-.LFB307
 12862 0160 00000000 		.4byte	.LFB308
 12863 0164 1A000000 		.4byte	.LFE308-.LFB308
 12864 0168 00000000 		.4byte	0
 12865 016c 00000000 		.4byte	0
 12866              		.section	.debug_ranges,"",%progbits
 12867              	.Ldebug_ranges0:
 12868 0000 1C000000 		.4byte	.LBB129
 12869 0004 26000000 		.4byte	.LBE129
 12870 0008 2A000000 		.4byte	.LBB132
 12871 000c 2E000000 		.4byte	.LBE132
 12872 0010 00000000 		.4byte	0
 12873 0014 00000000 		.4byte	0
 12874 0018 40000000 		.4byte	.LBB152
 12875 001c 64000000 		.4byte	.LBE152
 12876 0020 66000000 		.4byte	.LBB165
 12877 0024 6A000000 		.4byte	.LBE165
 12878 0028 00000000 		.4byte	0
ARM GAS  /var/folders/m4/4md61f0s1_g0rzfghffqnxvr0000gn/T//ccHVf8ER.s 			page 227


 12879 002c 00000000 		.4byte	0
 12880 0030 60000000 		.4byte	.LBB157
 12881 0034 64000000 		.4byte	.LBE157
 12882 0038 66000000 		.4byte	.LBB160
 12883 003c 6A000000 		.4byte	.LBE160
 12884 0040 00000000 		.4byte	0
 12885 0044 00000000 		.4byte	0
 12886 0048 64000000 		.4byte	.LBB162
 12887 004c 66000000 		.4byte	.LBE162
 12888 0050 6E000000 		.4byte	.LBB166
 12889 0054 72000000 		.4byte	.LBE166
 12890 0058 00000000 		.4byte	0
 12891 005c 00000000 		.4byte	0
 12892 0060 50000000 		.4byte	.LBB175
 12893 0064 88000000 		.4byte	.LBE175
 12894 0068 8A000000 		.4byte	.LBB208
 12895 006c 8E000000 		.4byte	.LBE208
 12896 0070 B8000000 		.4byte	.LBB215
 12897 0074 AE010000 		.4byte	.LBE215
 12898 0078 BA010000 		.4byte	.LBB216
 12899 007c FC010000 		.4byte	.LBE216
 12900 0080 FE010000 		.4byte	.LBB217
 12901 0084 00020000 		.4byte	.LBE217
 12902 0088 06020000 		.4byte	.LBB218
 12903 008c 2E020000 		.4byte	.LBE218
 12904 0090 00000000 		.4byte	0
 12905 0094 00000000 		.4byte	0
 12906 0098 52000000 		.4byte	.LBB176
 12907 009c 88000000 		.4byte	.LBE176
 12908 00a0 8A000000 		.4byte	.LBB178
 12909 00a4 8E000000 		.4byte	.LBE178
 12910 00a8 00000000 		.4byte	0
 12911 00ac 00000000 		.4byte	0
 12912 00b0 C4000000 		.4byte	.LBB181
 12913 00b4 4E010000 		.4byte	.LBE181
 12914 00b8 70010000 		.4byte	.LBB201
 12915 00bc AE010000 		.4byte	.LBE201
 12916 00c0 BA010000 		.4byte	.LBB202
 12917 00c4 E6010000 		.4byte	.LBE202
 12918 00c8 06020000 		.4byte	.LBB207
 12919 00cc 2E020000 		.4byte	.LBE207
 12920 00d0 00000000 		.4byte	0
 12921 00d4 00000000 		.4byte	0
 12922 00d8 20010000 		.4byte	.LBB183
 12923 00dc 26010000 		.4byte	.LBE183
 12924 00e0 D6010000 		.4byte	.LBB196
 12925 00e4 E6010000 		.4byte	.LBE196
 12926 00e8 00000000 		.4byte	0
 12927 00ec 00000000 		.4byte	0
 12928 00f0 70010000 		.4byte	.LBB186
 12929 00f4 76010000 		.4byte	.LBE186
 12930 00f8 8E010000 		.4byte	.LBB189
 12931 00fc 9E010000 		.4byte	.LBE189
 12932 0100 00000000 		.4byte	0
 12933 0104 00000000 		.4byte	0
 12934 0108 A4010000 		.4byte	.LBB190
 12935 010c A8010000 		.4byte	.LBE190
ARM GAS  /var/folders/m4/4md61f0s1_g0rzfghffqnxvr0000gn/T//ccHVf8ER.s 			page 228


 12936 0110 1C020000 		.4byte	.LBB198
 12937 0114 2E020000 		.4byte	.LBE198
 12938 0118 00000000 		.4byte	0
 12939 011c 00000000 		.4byte	0
 12940 0120 BA010000 		.4byte	.LBB193
 12941 0124 BE010000 		.4byte	.LBE193
 12942 0128 0C020000 		.4byte	.LBB197
 12943 012c 1C020000 		.4byte	.LBE197
 12944 0130 00000000 		.4byte	0
 12945 0134 00000000 		.4byte	0
 12946 0138 EE010000 		.4byte	.LBB203
 12947 013c FC010000 		.4byte	.LBE203
 12948 0140 FE010000 		.4byte	.LBB206
 12949 0144 00020000 		.4byte	.LBE206
 12950 0148 00000000 		.4byte	0
 12951 014c 00000000 		.4byte	0
 12952 0150 98000000 		.4byte	.LBB209
 12953 0154 9C000000 		.4byte	.LBE209
 12954 0158 9E000000 		.4byte	.LBB213
 12955 015c A8000000 		.4byte	.LBE213
 12956 0160 AA000000 		.4byte	.LBB214
 12957 0164 AC000000 		.4byte	.LBE214
 12958 0168 00000000 		.4byte	0
 12959 016c 00000000 		.4byte	0
 12960 0170 38000000 		.4byte	.LBB228
 12961 0174 48000000 		.4byte	.LBE228
 12962 0178 4C000000 		.4byte	.LBB233
 12963 017c 50000000 		.4byte	.LBE233
 12964 0180 00000000 		.4byte	0
 12965 0184 00000000 		.4byte	0
 12966 0188 48000000 		.4byte	.LBB236
 12967 018c 4E000000 		.4byte	.LBE236
 12968 0190 54000000 		.4byte	.LBB245
 12969 0194 8C000000 		.4byte	.LBE245
 12970 0198 BE000000 		.4byte	.LBB250
 12971 019c F2000000 		.4byte	.LBE250
 12972 01a0 00000000 		.4byte	0
 12973 01a4 00000000 		.4byte	0
 12974 01a8 9A000000 		.4byte	.LBB246
 12975 01ac A8000000 		.4byte	.LBE246
 12976 01b0 AC000000 		.4byte	.LBB249
 12977 01b4 AE000000 		.4byte	.LBE249
 12978 01b8 00000000 		.4byte	0
 12979 01bc 00000000 		.4byte	0
 12980 01c0 00000000 		.4byte	.LFB268
 12981 01c4 1C000000 		.4byte	.LFE268
 12982 01c8 00000000 		.4byte	.LFB311
 12983 01cc 5A000000 		.4byte	.LFE311
 12984 01d0 00000000 		.4byte	.LFB312
 12985 01d4 46000000 		.4byte	.LFE312
 12986 01d8 00000000 		.4byte	.LFB278
 12987 01dc 34000000 		.4byte	.LFE278
 12988 01e0 00000000 		.4byte	.LFB279
 12989 01e4 06000000 		.4byte	.LFE279
 12990 01e8 00000000 		.4byte	.LFB280
 12991 01ec 3C000000 		.4byte	.LFE280
 12992 01f0 00000000 		.4byte	.LFB281
ARM GAS  /var/folders/m4/4md61f0s1_g0rzfghffqnxvr0000gn/T//ccHVf8ER.s 			page 229


 12993 01f4 48000000 		.4byte	.LFE281
 12994 01f8 00000000 		.4byte	.LFB282
 12995 01fc 4A000000 		.4byte	.LFE282
 12996 0200 00000000 		.4byte	.LFB283
 12997 0204 46000000 		.4byte	.LFE283
 12998 0208 00000000 		.4byte	.LFB284
 12999 020c 3C000000 		.4byte	.LFE284
 13000 0210 00000000 		.4byte	.LFB285
 13001 0214 1C000000 		.4byte	.LFE285
 13002 0218 00000000 		.4byte	.LFB286
 13003 021c 1A000000 		.4byte	.LFE286
 13004 0220 00000000 		.4byte	.LFB287
 13005 0224 10000000 		.4byte	.LFE287
 13006 0228 00000000 		.4byte	.LFB288
 13007 022c 0A000000 		.4byte	.LFE288
 13008 0230 00000000 		.4byte	.LFB289
 13009 0234 0A000000 		.4byte	.LFE289
 13010 0238 00000000 		.4byte	.LFB290
 13011 023c 40000000 		.4byte	.LFE290
 13012 0240 00000000 		.4byte	.LFB291
 13013 0244 1C000000 		.4byte	.LFE291
 13014 0248 00000000 		.4byte	.LFB292
 13015 024c 12000000 		.4byte	.LFE292
 13016 0250 00000000 		.4byte	.LFB293
 13017 0254 06000000 		.4byte	.LFE293
 13018 0258 00000000 		.4byte	.LFB295
 13019 025c 22000000 		.4byte	.LFE295
 13020 0260 00000000 		.4byte	.LFB296
 13021 0264 1A000000 		.4byte	.LFE296
 13022 0268 00000000 		.4byte	.LFB297
 13023 026c 22000000 		.4byte	.LFE297
 13024 0270 00000000 		.4byte	.LFB298
 13025 0274 0A000000 		.4byte	.LFE298
 13026 0278 00000000 		.4byte	.LFB299
 13027 027c 0A000000 		.4byte	.LFE299
 13028 0280 00000000 		.4byte	.LFB300
 13029 0284 38000000 		.4byte	.LFE300
 13030 0288 00000000 		.4byte	.LFB294
 13031 028c 40000000 		.4byte	.LFE294
 13032 0290 00000000 		.4byte	.LFB301
 13033 0294 34000000 		.4byte	.LFE301
 13034 0298 00000000 		.4byte	.LFB302
 13035 029c 34000000 		.4byte	.LFE302
 13036 02a0 00000000 		.4byte	.LFB269
 13037 02a4 F0000000 		.4byte	.LFE269
 13038 02a8 00000000 		.4byte	.LFB303
 13039 02ac 46000000 		.4byte	.LFE303
 13040 02b0 00000000 		.4byte	.LFB304
 13041 02b4 3A000000 		.4byte	.LFE304
 13042 02b8 00000000 		.4byte	.LFB271
 13043 02bc 2E020000 		.4byte	.LFE271
 13044 02c0 00000000 		.4byte	.LFB273
 13045 02c4 54000000 		.4byte	.LFE273
 13046 02c8 00000000 		.4byte	.LFB277
 13047 02cc 08000000 		.4byte	.LFE277
 13048 02d0 00000000 		.4byte	.LFB275
 13049 02d4 08000000 		.4byte	.LFE275
ARM GAS  /var/folders/m4/4md61f0s1_g0rzfghffqnxvr0000gn/T//ccHVf8ER.s 			page 230


 13050 02d8 00000000 		.4byte	.LFB305
 13051 02dc 38000000 		.4byte	.LFE305
 13052 02e0 00000000 		.4byte	.LFB270
 13053 02e4 F2000000 		.4byte	.LFE270
 13054 02e8 00000000 		.4byte	.LFB272
 13055 02ec 20000000 		.4byte	.LFE272
 13056 02f0 00000000 		.4byte	.LFB276
 13057 02f4 22000000 		.4byte	.LFE276
 13058 02f8 00000000 		.4byte	.LFB274
 13059 02fc 08000000 		.4byte	.LFE274
 13060 0300 00000000 		.4byte	.LFB306
 13061 0304 12000000 		.4byte	.LFE306
 13062 0308 00000000 		.4byte	.LFB307
 13063 030c 22000000 		.4byte	.LFE307
 13064 0310 00000000 		.4byte	.LFB308
 13065 0314 1A000000 		.4byte	.LFE308
 13066 0318 00000000 		.4byte	0
 13067 031c 00000000 		.4byte	0
 13068              		.section	.debug_line,"",%progbits
 13069              	.Ldebug_line0:
 13070 0000 3E090000 		.section	.debug_str,"MS",%progbits,1
 13070      0200CA03 
 13070      00000201 
 13070      FB0E0D00 
 13070      01010101 
 13071              	.LASF88:
 13072 0000 4D314152 		.ascii	"M1AR\000"
 13072      00
 13073              	.LASF133:
 13074 0005 73746D33 		.ascii	"stm32_dma_stream_t\000"
 13074      325F646D 
 13074      615F7374 
 13074      7265616D 
 13074      5F7400
 13075              	.LASF2:
 13076 0018 73697A65 		.ascii	"size_t\000"
 13076      5F7400
 13077              	.LASF272:
 13078 001f 73706953 		.ascii	"spiStart\000"
 13078      74617274 
 13078      00
 13079              	.LASF85:
 13080 0028 73697A65 		.ascii	"sizetype\000"
 13080      74797065 
 13080      00
 13081              	.LASF209:
 13082 0031 6E726632 		.ascii	"nrf24l01ReadPayload\000"
 13082      346C3031 
 13082      52656164 
 13082      5061796C 
 13082      6F616400 
 13083              	.LASF106:
 13084 0045 77747365 		.ascii	"wtsemp\000"
 13084      6D7000
 13085              	.LASF30:
 13086 004c 73797374 		.ascii	"systime_t\000"
 13086      696D655F 
ARM GAS  /var/folders/m4/4md61f0s1_g0rzfghffqnxvr0000gn/T//ccHVf8ER.s 			page 231


 13086      7400
 13087              	.LASF35:
 13088 0056 705F6374 		.ascii	"p_ctx\000"
 13088      7800
 13089              	.LASF25:
 13090 005c 74707269 		.ascii	"tprio_t\000"
 13090      6F5F7400 
 13091              	.LASF230:
 13092 0064 6E726632 		.ascii	"nrf24l01GetStatus\000"
 13092      346C3031 
 13092      47657453 
 13092      74617475 
 13092      7300
 13093              	.LASF45:
 13094 0076 705F6D73 		.ascii	"p_msgqueue\000"
 13094      67717565 
 13094      756500
 13095              	.LASF61:
 13096 0081 725F6374 		.ascii	"r_ctx\000"
 13096      7800
 13097              	.LASF192:
 13098 0087 72784275 		.ascii	"rxBuf\000"
 13098      6600
 13099              	.LASF17:
 13100 008d 696E7433 		.ascii	"int32_t\000"
 13100      325F7400 
 13101              	.LASF188:
 13102 0095 77726974 		.ascii	"writet\000"
 13102      657400
 13103              	.LASF65:
 13104 009c 76746675 		.ascii	"vtfunc_t\000"
 13104      6E635F74 
 13104      00
 13105              	.LASF74:
 13106 00a5 63685F76 		.ascii	"ch_virtual_timers_list\000"
 13106      69727475 
 13106      616C5F74 
 13106      696D6572 
 13106      735F6C69 
 13107              	.LASF176:
 13108 00bc 7373706F 		.ascii	"ssport\000"
 13108      727400
 13109              	.LASF195:
 13110 00c3 4E524632 		.ascii	"NRF24L01Driver\000"
 13110      344C3031 
 13110      44726976 
 13110      657200
 13111              	.LASF219:
 13112 00d2 696E7374 		.ascii	"instance\000"
 13112      616E6365 
 13112      00
 13113              	.LASF184:
 13114 00db 77726974 		.ascii	"write\000"
 13114      6500
 13115              	.LASF123:
 13116 00e1 656C5F66 		.ascii	"el_flags\000"
 13116      6C616773 
ARM GAS  /var/folders/m4/4md61f0s1_g0rzfghffqnxvr0000gn/T//ccHVf8ER.s 			page 232


 13116      00
 13117              	.LASF154:
 13118 00ea 636F6E66 		.ascii	"config\000"
 13118      696700
 13119              	.LASF153:
 13120 00f1 73746174 		.ascii	"state\000"
 13120      6500
 13121              	.LASF186:
 13122 00f7 70757474 		.ascii	"putt\000"
 13122      00
 13123              	.LASF263:
 13124 00fc 53504944 		.ascii	"SPID1\000"
 13124      3100
 13125              	.LASF242:
 13126 0102 6E726632 		.ascii	"nrf24l01ToggleFeatures\000"
 13126      346C3031 
 13126      546F6767 
 13126      6C654665 
 13126      61747572 
 13127              	.LASF158:
 13128 0119 45585443 		.ascii	"EXTChannelConfig\000"
 13128      68616E6E 
 13128      656C436F 
 13128      6E666967 
 13128      00
 13129              	.LASF234:
 13130 012a 64656C61 		.ascii	"delay\000"
 13130      7900
 13131              	.LASF146:
 13132 0130 696F6D6F 		.ascii	"iomode_t\000"
 13132      64655F74 
 13132      00
 13133              	.LASF271:
 13134 0139 5F70616C 		.ascii	"_pal_lld_setgroupmode\000"
 13134      5F6C6C64 
 13134      5F736574 
 13134      67726F75 
 13134      706D6F64 
 13135              	.LASF235:
 13136 014f 636F756E 		.ascii	"count\000"
 13136      7400
 13137              	.LASF114:
 13138 0155 6D5F6F77 		.ascii	"m_owner\000"
 13138      6E657200 
 13139              	.LASF72:
 13140 015d 76745F70 		.ascii	"vt_par\000"
 13140      617200
 13141              	.LASF175:
 13142 0164 656E645F 		.ascii	"end_cb\000"
 13142      636200
 13143              	.LASF103:
 13144 016b 65786974 		.ascii	"exitcode\000"
 13144      636F6465 
 13144      00
 13145              	.LASF93:
 13146 0174 49325343 		.ascii	"I2SCFGR\000"
 13146      46475200 
ARM GAS  /var/folders/m4/4md61f0s1_g0rzfghffqnxvr0000gn/T//ccHVf8ER.s 			page 233


 13147              	.LASF3:
 13148 017c 5F5F7569 		.ascii	"__uint8_t\000"
 13148      6E74385F 
 13148      7400
 13149              	.LASF224:
 13150 0186 65787470 		.ascii	"extp\000"
 13150      00
 13151              	.LASF108:
 13152 018b 65776D61 		.ascii	"ewmask\000"
 13152      736B00
 13153              	.LASF207:
 13154 0192 6E726632 		.ascii	"nrf24l01SetPayloadSize\000"
 13154      346C3031 
 13154      53657450 
 13154      61796C6F 
 13154      61645369 
 13155              	.LASF139:
 13156 01a9 50555044 		.ascii	"PUPDR\000"
 13156      5200
 13157              	.LASF189:
 13158 01af 72656164 		.ascii	"readt\000"
 13158      7400
 13159              	.LASF36:
 13160 01b5 705F6E65 		.ascii	"p_newer\000"
 13160      77657200 
 13161              	.LASF162:
 13162 01bd 5350495F 		.ascii	"SPI_STOP\000"
 13162      53544F50 
 13162      00
 13163              	.LASF9:
 13164 01c6 6C6F6E67 		.ascii	"long int\000"
 13164      20696E74 
 13164      00
 13165              	.LASF161:
 13166 01cf 5350495F 		.ascii	"SPI_UNINIT\000"
 13166      554E494E 
 13166      495400
 13167              	.LASF32:
 13168 01da 705F6E65 		.ascii	"p_next\000"
 13168      787400
 13169              	.LASF198:
 13170 01e1 706F7274 		.ascii	"port_unlock\000"
 13170      5F756E6C 
 13170      6F636B00 
 13171              	.LASF33:
 13172 01ed 705F7072 		.ascii	"p_prev\000"
 13172      657600
 13173              	.LASF221:
 13174 01f4 63685379 		.ascii	"chSysLockFromISR\000"
 13174      734C6F63 
 13174      6B46726F 
 13174      6D495352 
 13174      00
 13175              	.LASF252:
 13176 0205 7061636B 		.ascii	"packetSize\000"
 13176      65745369 
 13176      7A6500
ARM GAS  /var/folders/m4/4md61f0s1_g0rzfghffqnxvr0000gn/T//ccHVf8ER.s 			page 234


 13177              	.LASF147:
 13178 0210 696F706F 		.ascii	"ioportid_t\000"
 13178      72746964 
 13178      5F7400
 13179              	.LASF22:
 13180 021b 74737461 		.ascii	"tstate_t\000"
 13180      74655F74 
 13180      00
 13181              	.LASF55:
 13182 0224 74687265 		.ascii	"threads_queue_t\000"
 13182      6164735F 
 13182      71756575 
 13182      655F7400 
 13183              	.LASF48:
 13184 0234 705F6D74 		.ascii	"p_mtxlist\000"
 13184      786C6973 
 13184      7400
 13185              	.LASF96:
 13186 023e 72656761 		.ascii	"regarm_t\000"
 13186      726D5F74 
 13186      00
 13187              	.LASF213:
 13188 0247 6E726632 		.ascii	"nrf24l01ObjectInit\000"
 13188      346C3031 
 13188      4F626A65 
 13188      6374496E 
 13188      697400
 13189              	.LASF239:
 13190 025a 70697065 		.ascii	"pipes\000"
 13190      7300
 13191              	.LASF151:
 13192 0260 65787473 		.ascii	"extstate_t\000"
 13192      74617465 
 13192      5F7400
 13193              	.LASF1:
 13194 026b 7369676E 		.ascii	"signed char\000"
 13194      65642063 
 13194      68617200 
 13195              	.LASF42:
 13196 0277 705F7072 		.ascii	"p_preempt\000"
 13196      65656D70 
 13196      7400
 13197              	.LASF15:
 13198 0281 75696E74 		.ascii	"uint8_t\000"
 13198      385F7400 
 13199              	.LASF273:
 13200 0289 65787453 		.ascii	"extStart\000"
 13200      74617274 
 13200      00
 13201              	.LASF27:
 13202 0292 6576656E 		.ascii	"eventmask_t\000"
 13202      746D6173 
 13202      6B5F7400 
 13203              	.LASF98:
 13204 029e 636F6E74 		.ascii	"context\000"
 13204      65787400 
 13205              	.LASF105:
ARM GAS  /var/folders/m4/4md61f0s1_g0rzfghffqnxvr0000gn/T//ccHVf8ER.s 			page 235


 13206 02a6 77747472 		.ascii	"wttrp\000"
 13206      7000
 13207              	.LASF222:
 13208 02ac 63685379 		.ascii	"chSysUnlockFromISR\000"
 13208      73556E6C 
 13208      6F636B46 
 13208      726F6D49 
 13208      535200
 13209              	.LASF4:
 13210 02bf 756E7369 		.ascii	"unsigned char\000"
 13210      676E6564 
 13210      20636861 
 13210      7200
 13211              	.LASF144:
 13212 02cd 73746D33 		.ascii	"stm32_gpio_t\000"
 13212      325F6770 
 13212      696F5F74 
 13212      00
 13213              	.LASF174:
 13214 02da 73706963 		.ascii	"spicallback_t\000"
 13214      616C6C62 
 13214      61636B5F 
 13214      7400
 13215              	.LASF78:
 13216 02e8 70616E69 		.ascii	"panic_msg\000"
 13216      635F6D73 
 13216      6700
 13217              	.LASF223:
 13218 02f2 6E726632 		.ascii	"nrf24l01ExtIRQ\000"
 13218      346C3031 
 13218      45787449 
 13218      525100
 13219              	.LASF62:
 13220 0301 725F6E65 		.ascii	"r_newer\000"
 13220      77657200 
 13221              	.LASF76:
 13222 0309 73797374 		.ascii	"system_debug_t\000"
 13222      656D5F64 
 13222      65627567 
 13222      5F7400
 13223              	.LASF134:
 13224 0318 5F426F6F 		.ascii	"_Bool\000"
 13224      6C00
 13225              	.LASF203:
 13226 031e 76616C75 		.ascii	"value\000"
 13226      6500
 13227              	.LASF274:
 13228 0324 65787443 		.ascii	"extChannelEnable\000"
 13228      68616E6E 
 13228      656C456E 
 13228      61626C65 
 13228      00
 13229              	.LASF116:
 13230 0335 63686172 		.ascii	"char\000"
 13230      00
 13231              	.LASF202:
 13232 033a 63684576 		.ascii	"chEvtObjectInit\000"
ARM GAS  /var/folders/m4/4md61f0s1_g0rzfghffqnxvr0000gn/T//ccHVf8ER.s 			page 236


 13232      744F626A 
 13232      65637449 
 13232      6E697400 
 13233              	.LASF130:
 13234 034a 69736869 		.ascii	"ishift\000"
 13234      667400
 13235              	.LASF34:
 13236 0351 705F7072 		.ascii	"p_prio\000"
 13236      696F00
 13237              	.LASF167:
 13238 0358 53504944 		.ascii	"SPIDriver\000"
 13238      72697665 
 13238      7200
 13239              	.LASF6:
 13240 0362 5F5F7569 		.ascii	"__uint16_t\000"
 13240      6E743136 
 13240      5F7400
 13241              	.LASF104:
 13242 036d 77746F62 		.ascii	"wtobjp\000"
 13242      6A7000
 13243              	.LASF244:
 13244 0374 6E726632 		.ascii	"nrf24l01FlushRX\000"
 13244      346C3031 
 13244      466C7573 
 13244      68525800 
 13245              	.LASF183:
 13246 0384 4E524632 		.ascii	"NRF24L01ChannelVMT\000"
 13246      344C3031 
 13246      4368616E 
 13246      6E656C56 
 13246      4D5400
 13247              	.LASF187:
 13248 0397 67657474 		.ascii	"gett\000"
 13248      00
 13249              	.LASF97:
 13250 039c 73746B61 		.ascii	"stkalign_t\000"
 13250      6C69676E 
 13250      5F7400
 13251              	.LASF237:
 13252 03a7 6E726632 		.ascii	"nrf24l01SetTXAddress\000"
 13252      346C3031 
 13252      53657454 
 13252      58416464 
 13252      72657373 
 13253              	.LASF214:
 13254 03bc 6E726632 		.ascii	"nrf24l01Start\000"
 13254      346C3031 
 13254      53746172 
 13254      7400
 13255              	.LASF182:
 13256 03ca 4E524632 		.ascii	"NRF24L01Config\000"
 13256      344C3031 
 13256      436F6E66 
 13256      696700
 13257              	.LASF243:
 13258 03d9 6E726632 		.ascii	"nrf24l01EnableDynamicSize\000"
 13258      346C3031 
ARM GAS  /var/folders/m4/4md61f0s1_g0rzfghffqnxvr0000gn/T//ccHVf8ER.s 			page 237


 13258      456E6162 
 13258      6C654479 
 13258      6E616D69 
 13259              	.LASF128:
 13260 03f3 73747265 		.ascii	"stream\000"
 13260      616D00
 13261              	.LASF118:
 13262 03fa 6576656E 		.ascii	"event_listener_t\000"
 13262      745F6C69 
 13262      7374656E 
 13262      65725F74 
 13262      00
 13263              	.LASF145:
 13264 040b 696F706F 		.ascii	"ioportmask_t\000"
 13264      72746D61 
 13264      736B5F74 
 13264      00
 13265              	.LASF276:
 13266 0418 63684576 		.ascii	"chEvtBroadcastFlags\000"
 13266      7442726F 
 13266      61646361 
 13266      7374466C 
 13266      61677300 
 13267              	.LASF218:
 13268 042c 6E726632 		.ascii	"nrf24l01EnterStandby\000"
 13268      346C3031 
 13268      456E7465 
 13268      72537461 
 13268      6E646279 
 13269              	.LASF29:
 13270 0441 636E745F 		.ascii	"cnt_t\000"
 13270      7400
 13271              	.LASF71:
 13272 0447 76745F66 		.ascii	"vt_func\000"
 13272      756E6300 
 13273              	.LASF47:
 13274 044f 705F6570 		.ascii	"p_epending\000"
 13274      656E6469 
 13274      6E6700
 13275              	.LASF107:
 13276 045a 77746D74 		.ascii	"wtmtxp\000"
 13276      787000
 13277              	.LASF58:
 13278 0461 63685F72 		.ascii	"ch_ready_list\000"
 13278      65616479 
 13278      5F6C6973 
 13278      7400
 13279              	.LASF245:
 13280 046f 6E726632 		.ascii	"nrf24l01FlushTX\000"
 13280      346C3031 
 13280      466C7573 
 13280      68545800 
 13281              	.LASF236:
 13282 047f 6E726632 		.ascii	"nrf24l01SetChannel\000"
 13282      346C3031 
 13282      53657443 
 13282      68616E6E 
ARM GAS  /var/folders/m4/4md61f0s1_g0rzfghffqnxvr0000gn/T//ccHVf8ER.s 			page 238


 13282      656C00
 13283              	.LASF149:
 13284 0492 4558545F 		.ascii	"EXT_STOP\000"
 13284      53544F50 
 13284      00
 13285              	.LASF135:
 13286 049b 636C6561 		.ascii	"clear\000"
 13286      7200
 13287              	.LASF228:
 13288 04a1 6E726632 		.ascii	"nrf24l01ReadAddressRegister\000"
 13288      346C3031 
 13288      52656164 
 13288      41646472 
 13288      65737352 
 13289              	.LASF126:
 13290 04bd 65735F6E 		.ascii	"es_next\000"
 13290      65787400 
 13291              	.LASF275:
 13292 04c5 63684576 		.ascii	"chEvtRegisterMaskWithFlags\000"
 13292      74526567 
 13292      69737465 
 13292      724D6173 
 13292      6B576974 
 13293              	.LASF13:
 13294 04e0 5F5F7569 		.ascii	"__uint64_t\000"
 13294      6E743634 
 13294      5F7400
 13295              	.LASF148:
 13296 04eb 4558545F 		.ascii	"EXT_UNINIT\000"
 13296      554E494E 
 13296      495400
 13297              	.LASF11:
 13298 04f6 6C6F6E67 		.ascii	"long unsigned int\000"
 13298      20756E73 
 13298      69676E65 
 13298      6420696E 
 13298      7400
 13299              	.LASF211:
 13300 0508 73746174 		.ascii	"status\000"
 13300      757300
 13301              	.LASF109:
 13302 050f 63685F73 		.ascii	"ch_semaphore\000"
 13302      656D6170 
 13302      686F7265 
 13302      00
 13303              	.LASF160:
 13304 051c 45585443 		.ascii	"EXTConfig\000"
 13304      6F6E6669 
 13304      6700
 13305              	.LASF53:
 13306 0526 63685F74 		.ascii	"ch_thread\000"
 13306      68726561 
 13306      6400
 13307              	.LASF73:
 13308 0530 76697274 		.ascii	"virtual_timers_list_t\000"
 13308      75616C5F 
 13308      74696D65 
ARM GAS  /var/folders/m4/4md61f0s1_g0rzfghffqnxvr0000gn/T//ccHVf8ER.s 			page 239


 13308      72735F6C 
 13308      6973745F 
 13309              	.LASF120:
 13310 0546 656C5F6E 		.ascii	"el_next\000"
 13310      65787400 
 13311              	.LASF269:
 13312 054e 73706955 		.ascii	"spiUnselect\000"
 13312      6E73656C 
 13312      65637400 
 13313              	.LASF66:
 13314 055a 76697274 		.ascii	"virtual_timer_t\000"
 13314      75616C5F 
 13314      74696D65 
 13314      725F7400 
 13315              	.LASF57:
 13316 056a 72656164 		.ascii	"ready_list_t\000"
 13316      795F6C69 
 13316      73745F74 
 13316      00
 13317              	.LASF141:
 13318 0577 4C434B52 		.ascii	"LCKR\000"
 13318      00
 13319              	.LASF225:
 13320 057c 6368616E 		.ascii	"channel\000"
 13320      6E656C00 
 13321              	.LASF253:
 13322 0584 72786370 		.ascii	"rxcp\000"
 13322      00
 13323              	.LASF54:
 13324 0589 63685F74 		.ascii	"ch_threads_list\000"
 13324      68726561 
 13324      64735F6C 
 13324      69737400 
 13325              	.LASF138:
 13326 0599 4F535045 		.ascii	"OSPEEDR\000"
 13326      45445200 
 13327              	.LASF152:
 13328 05a1 45585444 		.ascii	"EXTDriver\000"
 13328      72697665 
 13328      7200
 13329              	.LASF193:
 13330 05ab 72784275 		.ascii	"rxBufCount\000"
 13330      66436F75 
 13330      6E7400
 13331              	.LASF170:
 13332 05b6 646D6172 		.ascii	"dmarx\000"
 13332      7800
 13333              	.LASF10:
 13334 05bc 5F5F7569 		.ascii	"__uint32_t\000"
 13334      6E743332 
 13334      5F7400
 13335              	.LASF163:
 13336 05c7 5350495F 		.ascii	"SPI_READY\000"
 13336      52454144 
 13336      5900
 13337              	.LASF12:
 13338 05d1 6C6F6E67 		.ascii	"long long int\000"
ARM GAS  /var/folders/m4/4md61f0s1_g0rzfghffqnxvr0000gn/T//ccHVf8ER.s 			page 240


 13338      206C6F6E 
 13338      6720696E 
 13338      7400
 13339              	.LASF113:
 13340 05df 6D5F7175 		.ascii	"m_queue\000"
 13340      65756500 
 13341              	.LASF199:
 13342 05e7 706F7274 		.ascii	"port_lock_from_isr\000"
 13342      5F6C6F63 
 13342      6B5F6672 
 13342      6F6D5F69 
 13342      737200
 13343              	.LASF150:
 13344 05fa 4558545F 		.ascii	"EXT_ACTIVE\000"
 13344      41435449 
 13344      564500
 13345              	.LASF68:
 13346 0605 76745F6E 		.ascii	"vt_next\000"
 13346      65787400 
 13347              	.LASF227:
 13348 060d 6E726632 		.ascii	"nrf24l01WriteAddressRegister\000"
 13348      346C3031 
 13348      57726974 
 13348      65416464 
 13348      72657373 
 13349              	.LASF262:
 13350 062a 45585444 		.ascii	"EXTD1\000"
 13350      3100
 13351              	.LASF69:
 13352 0630 76745F70 		.ascii	"vt_prev\000"
 13352      72657600 
 13353              	.LASF256:
 13354 0638 7073697A 		.ascii	"psize\000"
 13354      6500
 13355              	.LASF204:
 13356 063e 70697065 		.ascii	"pipe\000"
 13356      00
 13357              	.LASF127:
 13358 0643 6576656E 		.ascii	"event_source_t\000"
 13358      745F736F 
 13358      75726365 
 13358      5F7400
 13359              	.LASF264:
 13360 0652 6E726632 		.ascii	"nrf24l01\000"
 13360      346C3031 
 13360      00
 13361              	.LASF169:
 13362 065b 6D757465 		.ascii	"mutex\000"
 13362      7800
 13363              	.LASF215:
 13364 0661 6E726632 		.ascii	"nrf24l01ClearIRQ\000"
 13364      346C3031 
 13364      436C6561 
 13364      72495251 
 13364      00
 13365              	.LASF206:
 13366 0672 6E726632 		.ascii	"nrf24l01SetRXAddress\000"
ARM GAS  /var/folders/m4/4md61f0s1_g0rzfghffqnxvr0000gn/T//ccHVf8ER.s 			page 241


 13366      346C3031 
 13366      53657452 
 13366      58416464 
 13366      72657373 
 13367              	.LASF261:
 13368 0687 49544D5F 		.ascii	"ITM_RxBuffer\000"
 13368      52784275 
 13368      66666572 
 13368      00
 13369              	.LASF91:
 13370 0694 52584352 		.ascii	"RXCRCR\000"
 13370      435200
 13371              	.LASF282:
 13372 069b 6E726645 		.ascii	"nrfExtCallback\000"
 13372      78744361 
 13372      6C6C6261 
 13372      636B00
 13373              	.LASF172:
 13374 06aa 7278646D 		.ascii	"rxdmamode\000"
 13374      616D6F64 
 13374      6500
 13375              	.LASF179:
 13376 06b4 73706970 		.ascii	"spip\000"
 13376      00
 13377              	.LASF44:
 13378 06b9 705F7761 		.ascii	"p_waiting\000"
 13378      6974696E 
 13378      6700
 13379              	.LASF194:
 13380 06c3 6576656E 		.ascii	"event\000"
 13380      7400
 13381              	.LASF205:
 13382 06c9 61646472 		.ascii	"addr\000"
 13382      00
 13383              	.LASF171:
 13384 06ce 646D6174 		.ascii	"dmatx\000"
 13384      7800
 13385              	.LASF136:
 13386 06d4 4D4F4445 		.ascii	"MODER\000"
 13386      5200
 13387              	.LASF40:
 13388 06da 705F666C 		.ascii	"p_flags\000"
 13388      61677300 
 13389              	.LASF185:
 13390 06e2 72656164 		.ascii	"read\000"
 13390      00
 13391              	.LASF255:
 13392 06e7 73656E64 		.ascii	"sended\000"
 13392      656400
 13393              	.LASF84:
 13394 06ee 69646C65 		.ascii	"idle_thread_wa\000"
 13394      5F746872 
 13394      6561645F 
 13394      776100
 13395              	.LASF0:
 13396 06fd 756E7369 		.ascii	"unsigned int\000"
 13396      676E6564 
ARM GAS  /var/folders/m4/4md61f0s1_g0rzfghffqnxvr0000gn/T//ccHVf8ER.s 			page 242


 13396      20696E74 
 13396      00
 13397              	.LASF260:
 13398 070a 65787463 		.ascii	"extcfg\000"
 13398      666700
 13399              	.LASF178:
 13400 0711 53504943 		.ascii	"SPIConfig\000"
 13400      6F6E6669 
 13400      6700
 13401              	.LASF267:
 13402 071b 73706945 		.ascii	"spiExchange\000"
 13402      78636861 
 13402      6E676500 
 13403              	.LASF164:
 13404 0727 5350495F 		.ascii	"SPI_ACTIVE\000"
 13404      41435449 
 13404      564500
 13405              	.LASF20:
 13406 0732 7274636E 		.ascii	"rtcnt_t\000"
 13406      745F7400 
 13407              	.LASF50:
 13408 073a 705F6D70 		.ascii	"p_mpool\000"
 13408      6F6F6C00 
 13409              	.LASF159:
 13410 0742 6368616E 		.ascii	"channels\000"
 13410      6E656C73 
 13410      00
 13411              	.LASF41:
 13412 074b 705F7265 		.ascii	"p_refs\000"
 13412      667300
 13413              	.LASF233:
 13414 0752 6E726632 		.ascii	"nrf24l01SetupRetransmit\000"
 13414      346C3031 
 13414      53657475 
 13414      70526574 
 13414      72616E73 
 13415              	.LASF180:
 13416 076a 6365506F 		.ascii	"cePort\000"
 13416      727400
 13417              	.LASF124:
 13418 0771 656C5F77 		.ascii	"el_wflags\000"
 13418      666C6167 
 13418      7300
 13419              	.LASF248:
 13420 077b 6E726632 		.ascii	"nrf24l01EnterRX\000"
 13420      346C3031 
 13420      456E7465 
 13420      72525800 
 13421              	.LASF254:
 13422 078b 6E726632 		.ascii	"nrf24l01EnterTX\000"
 13422      346C3031 
 13422      456E7465 
 13422      72545800 
 13423              	.LASF246:
 13424 079b 696E6974 		.ascii	"initNRF24L01\000"
 13424      4E524632 
 13424      344C3031 
ARM GAS  /var/folders/m4/4md61f0s1_g0rzfghffqnxvr0000gn/T//ccHVf8ER.s 			page 243


 13424      00
 13425              	.LASF122:
 13426 07a8 656C5F65 		.ascii	"el_events\000"
 13426      76656E74 
 13426      7300
 13427              	.LASF232:
 13428 07b2 6E726632 		.ascii	"nrf24l01PowerDown\000"
 13428      346C3031 
 13428      506F7765 
 13428      72446F77 
 13428      6E00
 13429              	.LASF181:
 13430 07c4 63655061 		.ascii	"cePad\000"
 13430      6400
 13431              	.LASF100:
 13432 07ca 6F666673 		.ascii	"offset\000"
 13432      657400
 13433              	.LASF89:
 13434 07d1 444D415F 		.ascii	"DMA_Stream_TypeDef\000"
 13434      53747265 
 13434      616D5F54 
 13434      79706544 
 13434      656600
 13435              	.LASF43:
 13436 07e4 705F7469 		.ascii	"p_time\000"
 13436      6D6500
 13437              	.LASF265:
 13438 07eb 63684576 		.ascii	"chEvtBroadcastFlagsI\000"
 13438      7442726F 
 13438      61646361 
 13438      7374466C 
 13438      61677349 
 13439              	.LASF156:
 13440 0800 65787463 		.ascii	"extcallback_t\000"
 13440      616C6C62 
 13440      61636B5F 
 13440      7400
 13441              	.LASF31:
 13442 080e 74687265 		.ascii	"thread_t\000"
 13442      61645F74 
 13442      00
 13443              	.LASF51:
 13444 0817 74687265 		.ascii	"thread_reference_t\000"
 13444      61645F72 
 13444      65666572 
 13444      656E6365 
 13444      5F7400
 13445              	.LASF49:
 13446 082a 705F7265 		.ascii	"p_realprio\000"
 13446      616C7072 
 13446      696F00
 13447              	.LASF99:
 13448 0835 706F7274 		.ascii	"port_intctx\000"
 13448      5F696E74 
 13448      63747800 
 13449              	.LASF259:
 13450 0841 6E726632 		.ascii	"nrf24l01Config\000"
ARM GAS  /var/folders/m4/4md61f0s1_g0rzfghffqnxvr0000gn/T//ccHVf8ER.s 			page 244


 13450      346C3031 
 13450      436F6E66 
 13450      696700
 13451              	.LASF200:
 13452 0850 706F7274 		.ascii	"port_unlock_from_isr\000"
 13452      5F756E6C 
 13452      6F636B5F 
 13452      66726F6D 
 13452      5F697372 
 13453              	.LASF70:
 13454 0865 76745F64 		.ascii	"vt_delta\000"
 13454      656C7461 
 13454      00
 13455              	.LASF278:
 13456 086e 63684576 		.ascii	"chEvtWaitOneTimeout\000"
 13456      74576169 
 13456      744F6E65 
 13456      54696D65 
 13456      6F757400 
 13457              	.LASF67:
 13458 0882 63685F76 		.ascii	"ch_virtual_timer\000"
 13458      69727475 
 13458      616C5F74 
 13458      696D6572 
 13458      00
 13459              	.LASF111:
 13460 0893 735F636E 		.ascii	"s_cnt\000"
 13460      7400
 13461              	.LASF131:
 13462 0899 73656C66 		.ascii	"selfindex\000"
 13462      696E6465 
 13462      7800
 13463              	.LASF208:
 13464 08a3 73697A65 		.ascii	"size\000"
 13464      00
 13465              	.LASF14:
 13466 08a8 6C6F6E67 		.ascii	"long long unsigned int\000"
 13466      206C6F6E 
 13466      6720756E 
 13466      7369676E 
 13466      65642069 
 13467              	.LASF37:
 13468 08bf 705F6F6C 		.ascii	"p_older\000"
 13468      64657200 
 13469              	.LASF16:
 13470 08c7 75696E74 		.ascii	"uint16_t\000"
 13470      31365F74 
 13470      00
 13471              	.LASF26:
 13472 08d0 6D73675F 		.ascii	"msg_t\000"
 13472      7400
 13473              	.LASF56:
 13474 08d6 63685F74 		.ascii	"ch_threads_queue\000"
 13474      68726561 
 13474      64735F71 
 13474      75657565 
 13474      00
ARM GAS  /var/folders/m4/4md61f0s1_g0rzfghffqnxvr0000gn/T//ccHVf8ER.s 			page 245


 13475              	.LASF28:
 13476 08e7 6576656E 		.ascii	"eventflags_t\000"
 13476      74666C61 
 13476      67735F74 
 13476      00
 13477              	.LASF241:
 13478 08f4 6E726632 		.ascii	"nrf24l01DisableDynamicPipeSize\000"
 13478      346C3031 
 13478      44697361 
 13478      626C6544 
 13478      796E616D 
 13479              	.LASF24:
 13480 0913 74736C69 		.ascii	"tslices_t\000"
 13480      6365735F 
 13480      7400
 13481              	.LASF238:
 13482 091d 6E726632 		.ascii	"nrf24l01EnableDynamicPipeSize\000"
 13482      346C3031 
 13482      456E6162 
 13482      6C654479 
 13482      6E616D69 
 13483              	.LASF283:
 13484 093b 63684576 		.ascii	"chEvtUnregister\000"
 13484      74556E72 
 13484      65676973 
 13484      74657200 
 13485              	.LASF64:
 13486 094b 725F6375 		.ascii	"r_current\000"
 13486      7272656E 
 13486      7400
 13487              	.LASF191:
 13488 0955 6E726670 		.ascii	"nrfp\000"
 13488      00
 13489              	.LASF231:
 13490 095a 6E726632 		.ascii	"nrf24l01PowerUp\000"
 13490      346C3031 
 13490      506F7765 
 13490      72557000 
 13491              	.LASF270:
 13492 096a 73706953 		.ascii	"spiSend\000"
 13492      656E6400 
 13493              	.LASF143:
 13494 0972 41465248 		.ascii	"AFRH\000"
 13494      00
 13495              	.LASF142:
 13496 0977 4146524C 		.ascii	"AFRL\000"
 13496      00
 13497              	.LASF132:
 13498 097c 76656374 		.ascii	"vector\000"
 13498      6F7200
 13499              	.LASF249:
 13500 0983 6E72664C 		.ascii	"nrfListener\000"
 13500      69737465 
 13500      6E657200 
 13501              	.LASF83:
 13502 098f 6D61696E 		.ascii	"mainthread\000"
 13502      74687265 
ARM GAS  /var/folders/m4/4md61f0s1_g0rzfghffqnxvr0000gn/T//ccHVf8ER.s 			page 246


 13502      616400
 13503              	.LASF201:
 13504 099a 5F5F7365 		.ascii	"__set_BASEPRI\000"
 13504      745F4241 
 13504      53455052 
 13504      4900
 13505              	.LASF59:
 13506 09a8 725F7175 		.ascii	"r_queue\000"
 13506      65756500 
 13507              	.LASF137:
 13508 09b0 4F545950 		.ascii	"OTYPER\000"
 13508      455200
 13509              	.LASF220:
 13510 09b7 74696D65 		.ascii	"time\000"
 13510      00
 13511              	.LASF190:
 13512 09bc 4E524632 		.ascii	"NRF24L01Channel\000"
 13512      344C3031 
 13512      4368616E 
 13512      6E656C00 
 13513              	.LASF92:
 13514 09cc 54584352 		.ascii	"TXCRCR\000"
 13514      435200
 13515              	.LASF95:
 13516 09d3 5350495F 		.ascii	"SPI_TypeDef\000"
 13516      54797065 
 13516      44656600 
 13517              	.LASF81:
 13518 09df 726C6973 		.ascii	"rlist\000"
 13518      7400
 13519              	.LASF21:
 13520 09e5 746D6F64 		.ascii	"tmode_t\000"
 13520      655F7400 
 13521              	.LASF90:
 13522 09ed 43524350 		.ascii	"CRCPR\000"
 13522      5200
 13523              	.LASF155:
 13524 09f3 65787063 		.ascii	"expchannel_t\000"
 13524      68616E6E 
 13524      656C5F74 
 13524      00
 13525              	.LASF268:
 13526 0a00 73706952 		.ascii	"spiReceive\000"
 13526      65636569 
 13526      766500
 13527              	.LASF75:
 13528 0a0b 76745F73 		.ascii	"vt_systime\000"
 13528      79737469 
 13528      6D6500
 13529              	.LASF63:
 13530 0a16 725F6F6C 		.ascii	"r_older\000"
 13530      64657200 
 13531              	.LASF101:
 13532 0a1e 746D5F63 		.ascii	"tm_calibration_t\000"
 13532      616C6962 
 13532      72617469 
 13532      6F6E5F74 
ARM GAS  /var/folders/m4/4md61f0s1_g0rzfghffqnxvr0000gn/T//ccHVf8ER.s 			page 247


 13532      00
 13533              	.LASF168:
 13534 0a2f 74687265 		.ascii	"thread\000"
 13534      616400
 13535              	.LASF87:
 13536 0a36 4D304152 		.ascii	"M0AR\000"
 13536      00
 13537              	.LASF197:
 13538 0a3b 706F7274 		.ascii	"port_lock\000"
 13538      5F6C6F63 
 13538      6B00
 13539              	.LASF110:
 13540 0a45 735F7175 		.ascii	"s_queue\000"
 13540      65756500 
 13541              	.LASF280:
 13542 0a4d 6E726632 		.ascii	"nrf24l01.c\000"
 13542      346C3031 
 13542      2E6300
 13543              	.LASF251:
 13544 0a58 73746174 		.ascii	"status_reg\000"
 13544      75735F72 
 13544      656700
 13545              	.LASF5:
 13546 0a63 73686F72 		.ascii	"short int\000"
 13546      7420696E 
 13546      7400
 13547              	.LASF125:
 13548 0a6d 6576656E 		.ascii	"event_source\000"
 13548      745F736F 
 13548      75726365 
 13548      00
 13549              	.LASF19:
 13550 0a7a 75696E74 		.ascii	"uint64_t\000"
 13550      36345F74 
 13550      00
 13551              	.LASF157:
 13552 0a83 6D6F6465 		.ascii	"mode\000"
 13552      00
 13553              	.LASF112:
 13554 0a88 63685F6D 		.ascii	"ch_mutex\000"
 13554      75746578 
 13554      00
 13555              	.LASF266:
 13556 0a91 73706953 		.ascii	"spiSelect\000"
 13556      656C6563 
 13556      7400
 13557              	.LASF217:
 13558 0a9b 6576656E 		.ascii	"events\000"
 13558      747300
 13559              	.LASF60:
 13560 0aa2 725F7072 		.ascii	"r_prio\000"
 13560      696F00
 13561              	.LASF77:
 13562 0aa9 63685F73 		.ascii	"ch_system_debug\000"
 13562      79737465 
 13562      6D5F6465 
 13562      62756700 
ARM GAS  /var/folders/m4/4md61f0s1_g0rzfghffqnxvr0000gn/T//ccHVf8ER.s 			page 248


 13563              	.LASF140:
 13564 0ab9 42535252 		.ascii	"BSRR\000"
 13564      00
 13565              	.LASF277:
 13566 0abe 6E726632 		.ascii	"nrf24l01GetFIFOStatus\000"
 13566      346C3031 
 13566      47657446 
 13566      49464F53 
 13566      74617475 
 13567              	.LASF82:
 13568 0ad4 76746C69 		.ascii	"vtlist\000"
 13568      737400
 13569              	.LASF117:
 13570 0adb 6D757465 		.ascii	"mutex_t\000"
 13570      785F7400 
 13571              	.LASF23:
 13572 0ae3 74726566 		.ascii	"trefs_t\000"
 13572      735F7400 
 13573              	.LASF52:
 13574 0aeb 74687265 		.ascii	"threads_list_t\000"
 13574      6164735F 
 13574      6C697374 
 13574      5F7400
 13575              	.LASF80:
 13576 0afa 63685F73 		.ascii	"ch_system\000"
 13576      79737465 
 13576      6D00
 13577              	.LASF18:
 13578 0b04 75696E74 		.ascii	"uint32_t\000"
 13578      33325F74 
 13578      00
 13579              	.LASF250:
 13580 0b0d 72656365 		.ascii	"received\000"
 13580      69766564 
 13580      00
 13581              	.LASF226:
 13582 0b16 6E726632 		.ascii	"nrf24l01WriteRegister\000"
 13582      346C3031 
 13582      57726974 
 13582      65526567 
 13582      69737465 
 13583              	.LASF94:
 13584 0b2c 49325350 		.ascii	"I2SPR\000"
 13584      5200
 13585              	.LASF247:
 13586 0b32 6E726632 		.ascii	"nrf24l01GetSize\000"
 13586      346C3031 
 13586      47657453 
 13586      697A6500 
 13587              	.LASF165:
 13588 0b42 5350495F 		.ascii	"SPI_COMPLETE\000"
 13588      434F4D50 
 13588      4C455445 
 13588      00
 13589              	.LASF257:
 13590 0b4f 6E726632 		.ascii	"nrf24l01EnablePipes\000"
 13590      346C3031 
ARM GAS  /var/folders/m4/4md61f0s1_g0rzfghffqnxvr0000gn/T//ccHVf8ER.s 			page 249


 13590      456E6162 
 13590      6C655069 
 13590      70657300 
 13591              	.LASF212:
 13592 0b63 6E726632 		.ascii	"nrf24l01WritePayload\000"
 13592      346C3031 
 13592      57726974 
 13592      65506179 
 13592      6C6F6164 
 13593              	.LASF279:
 13594 0b78 474E5520 		.ascii	"GNU C 4.9.3 20150529 (release) [ARM/embedded-4_9-br"
 13594      4320342E 
 13594      392E3320 
 13594      32303135 
 13594      30353239 
 13595 0bab 616E6368 		.ascii	"anch revision 224288] -mcpu=cortex-m4 -mfloat-abi=h"
 13595      20726576 
 13595      6973696F 
 13595      6E203232 
 13595      34323838 
 13596 0bde 61726420 		.ascii	"ard -mfpu=fpv4-sp-d16 -mno-thumb-interwork -mthumb "
 13596      2D6D6670 
 13596      753D6670 
 13596      76342D73 
 13596      702D6431 
 13597 0c11 2D676764 		.ascii	"-ggdb -O2 -std=gnu99 -fomit-frame-pointer -falign-f"
 13597      62202D4F 
 13597      32202D73 
 13597      74643D67 
 13597      6E753939 
 13598 0c44 756E6374 		.ascii	"unctions=16 -ffunction-sections -fdata-sections -fn"
 13598      696F6E73 
 13598      3D313620 
 13598      2D666675 
 13598      6E637469 
 13599 0c77 6F2D636F 		.ascii	"o-common -fsingle-precision-constant\000"
 13599      6D6D6F6E 
 13599      202D6673 
 13599      696E676C 
 13599      652D7072 
 13600              	.LASF229:
 13601 0c9c 6E726632 		.ascii	"nrf24l01ReadRegister\000"
 13601      346C3031 
 13601      52656164 
 13601      52656769 
 13601      73746572 
 13602              	.LASF119:
 13603 0cb1 6576656E 		.ascii	"event_listener\000"
 13603      745F6C69 
 13603      7374656E 
 13603      657200
 13604              	.LASF102:
 13605 0cc0 7264796D 		.ascii	"rdymsg\000"
 13605      736700
 13606              	.LASF216:
 13607 0cc7 63684576 		.ascii	"chEvtRegisterMask\000"
 13607      74526567 
ARM GAS  /var/folders/m4/4md61f0s1_g0rzfghffqnxvr0000gn/T//ccHVf8ER.s 			page 250


 13607      69737465 
 13607      724D6173 
 13607      6B00
 13608              	.LASF7:
 13609 0cd9 73686F72 		.ascii	"short unsigned int\000"
 13609      7420756E 
 13609      7369676E 
 13609      65642069 
 13609      6E7400
 13610              	.LASF79:
 13611 0cec 63685F73 		.ascii	"ch_system_t\000"
 13611      79737465 
 13611      6D5F7400 
 13612              	.LASF166:
 13613 0cf8 73706973 		.ascii	"spistate_t\000"
 13613      74617465 
 13613      5F7400
 13614              	.LASF240:
 13615 0d03 6E726632 		.ascii	"nrf24l01DisableDynamicSize\000"
 13615      346C3031 
 13615      44697361 
 13615      626C6544 
 13615      796E616D 
 13616              	.LASF8:
 13617 0d1e 5F5F696E 		.ascii	"__int32_t\000"
 13617      7433325F 
 13617      7400
 13618              	.LASF86:
 13619 0d28 4E445452 		.ascii	"NDTR\000"
 13619      00
 13620              	.LASF129:
 13621 0d2d 69666372 		.ascii	"ifcr\000"
 13621      00
 13622              	.LASF177:
 13623 0d32 73737061 		.ascii	"sspad\000"
 13623      6400
 13624              	.LASF38:
 13625 0d38 705F6E61 		.ascii	"p_name\000"
 13625      6D6500
 13626              	.LASF281:
 13627 0d3f 2F557365 		.ascii	"/Users/raphael/Documents/pcb-quadrotor/code\000"
 13627      72732F72 
 13627      61706861 
 13627      656C2F44 
 13627      6F63756D 
 13628              	.LASF210:
 13629 0d6b 64617461 		.ascii	"data\000"
 13629      00
 13630              	.LASF115:
 13631 0d70 6D5F6E65 		.ascii	"m_next\000"
 13631      787400
 13632              	.LASF258:
 13633 0d77 6E726632 		.ascii	"nrf24l01SPI\000"
 13633      346C3031 
 13633      53504900 
 13634              	.LASF173:
 13635 0d83 7478646D 		.ascii	"txdmamode\000"
ARM GAS  /var/folders/m4/4md61f0s1_g0rzfghffqnxvr0000gn/T//ccHVf8ER.s 			page 251


 13635      616D6F64 
 13635      6500
 13636              	.LASF196:
 13637 0d8d 6576656E 		.ascii	"eventSource\000"
 13637      74536F75 
 13637      72636500 
 13638              	.LASF46:
 13639 0d99 705F6D73 		.ascii	"p_msg\000"
 13639      6700
 13640              	.LASF121:
 13641 0d9f 656C5F6C 		.ascii	"el_listener\000"
 13641      69737465 
 13641      6E657200 
 13642              	.LASF39:
 13643 0dab 705F7374 		.ascii	"p_state\000"
 13643      61746500 
 13644              		.ident	"GCC: (GNU Tools for ARM Embedded Processors) 4.9.3 20150529 (release) [ARM/embedded-4_9-br
ARM GAS  /var/folders/m4/4md61f0s1_g0rzfghffqnxvr0000gn/T//ccHVf8ER.s 			page 252


DEFINED SYMBOLS
                            *ABS*:0000000000000000 nrf24l01.c
/var/folders/m4/4md61f0s1_g0rzfghffqnxvr0000gn/T//ccHVf8ER.s:21     .text.nrfExtCallback:0000000000000000 $t
/var/folders/m4/4md61f0s1_g0rzfghffqnxvr0000gn/T//ccHVf8ER.s:26     .text.nrfExtCallback:0000000000000000 nrfExtCallback
/var/folders/m4/4md61f0s1_g0rzfghffqnxvr0000gn/T//ccHVf8ER.s:79     .text.nrfExtCallback:0000000000000018 $d
/var/folders/m4/4md61f0s1_g0rzfghffqnxvr0000gn/T//ccHVf8ER.s:91     .text.nrf24l01ReadPayload.part.2:0000000000000000 $t
/var/folders/m4/4md61f0s1_g0rzfghffqnxvr0000gn/T//ccHVf8ER.s:96     .text.nrf24l01ReadPayload.part.2:0000000000000000 nrf24l01ReadPayload.part.2
/var/folders/m4/4md61f0s1_g0rzfghffqnxvr0000gn/T//ccHVf8ER.s:164    .text.nrf24l01WritePayload.part.3:0000000000000000 $t
/var/folders/m4/4md61f0s1_g0rzfghffqnxvr0000gn/T//ccHVf8ER.s:169    .text.nrf24l01WritePayload.part.3:0000000000000000 nrf24l01WritePayload.part.3
/var/folders/m4/4md61f0s1_g0rzfghffqnxvr0000gn/T//ccHVf8ER.s:231    .text.nrf24l01ObjectInit:0000000000000000 $t
/var/folders/m4/4md61f0s1_g0rzfghffqnxvr0000gn/T//ccHVf8ER.s:237    .text.nrf24l01ObjectInit:0000000000000000 nrf24l01ObjectInit
/var/folders/m4/4md61f0s1_g0rzfghffqnxvr0000gn/T//ccHVf8ER.s:294    .text.nrf24l01ObjectInit:0000000000000030 $d
/var/folders/m4/4md61f0s1_g0rzfghffqnxvr0000gn/T//ccHVf8ER.s:299    .text.nrf24l01Start:0000000000000000 $t
/var/folders/m4/4md61f0s1_g0rzfghffqnxvr0000gn/T//ccHVf8ER.s:305    .text.nrf24l01Start:0000000000000000 nrf24l01Start
/var/folders/m4/4md61f0s1_g0rzfghffqnxvr0000gn/T//ccHVf8ER.s:320    .text.nrf24l01WriteRegister:0000000000000000 $t
/var/folders/m4/4md61f0s1_g0rzfghffqnxvr0000gn/T//ccHVf8ER.s:326    .text.nrf24l01WriteRegister:0000000000000000 nrf24l01WriteRegister
/var/folders/m4/4md61f0s1_g0rzfghffqnxvr0000gn/T//ccHVf8ER.s:379    .text.nrf24l01ReadRegister:0000000000000000 $t
/var/folders/m4/4md61f0s1_g0rzfghffqnxvr0000gn/T//ccHVf8ER.s:385    .text.nrf24l01ReadRegister:0000000000000000 nrf24l01ReadRegister
/var/folders/m4/4md61f0s1_g0rzfghffqnxvr0000gn/T//ccHVf8ER.s:441    .text.nrf24l01WriteAddressRegister:0000000000000000 $t
/var/folders/m4/4md61f0s1_g0rzfghffqnxvr0000gn/T//ccHVf8ER.s:447    .text.nrf24l01WriteAddressRegister:0000000000000000 nrf24l01WriteAddressRegister
/var/folders/m4/4md61f0s1_g0rzfghffqnxvr0000gn/T//ccHVf8ER.s:508    .text.nrf24l01ReadAddressRegister:0000000000000000 $t
/var/folders/m4/4md61f0s1_g0rzfghffqnxvr0000gn/T//ccHVf8ER.s:514    .text.nrf24l01ReadAddressRegister:0000000000000000 nrf24l01ReadAddressRegister
/var/folders/m4/4md61f0s1_g0rzfghffqnxvr0000gn/T//ccHVf8ER.s:574    .text.nrf24l01GetStatus:0000000000000000 $t
/var/folders/m4/4md61f0s1_g0rzfghffqnxvr0000gn/T//ccHVf8ER.s:580    .text.nrf24l01GetStatus:0000000000000000 nrf24l01GetStatus
/var/folders/m4/4md61f0s1_g0rzfghffqnxvr0000gn/T//ccHVf8ER.s:630    .text.nrf24l01PowerUp:0000000000000000 $t
/var/folders/m4/4md61f0s1_g0rzfghffqnxvr0000gn/T//ccHVf8ER.s:636    .text.nrf24l01PowerUp:0000000000000000 nrf24l01PowerUp
/var/folders/m4/4md61f0s1_g0rzfghffqnxvr0000gn/T//ccHVf8ER.s:674    .text.nrf24l01PowerDown:0000000000000000 $t
/var/folders/m4/4md61f0s1_g0rzfghffqnxvr0000gn/T//ccHVf8ER.s:680    .text.nrf24l01PowerDown:0000000000000000 nrf24l01PowerDown
/var/folders/m4/4md61f0s1_g0rzfghffqnxvr0000gn/T//ccHVf8ER.s:716    .text.nrf24l01SetupRetransmit:0000000000000000 $t
/var/folders/m4/4md61f0s1_g0rzfghffqnxvr0000gn/T//ccHVf8ER.s:722    .text.nrf24l01SetupRetransmit:0000000000000000 nrf24l01SetupRetransmit
/var/folders/m4/4md61f0s1_g0rzfghffqnxvr0000gn/T//ccHVf8ER.s:744    .text.nrf24l01SetChannel:0000000000000000 $t
/var/folders/m4/4md61f0s1_g0rzfghffqnxvr0000gn/T//ccHVf8ER.s:750    .text.nrf24l01SetChannel:0000000000000000 nrf24l01SetChannel
/var/folders/m4/4md61f0s1_g0rzfghffqnxvr0000gn/T//ccHVf8ER.s:768    .text.nrf24l01ClearIRQ:0000000000000000 $t
/var/folders/m4/4md61f0s1_g0rzfghffqnxvr0000gn/T//ccHVf8ER.s:774    .text.nrf24l01ClearIRQ:0000000000000000 nrf24l01ClearIRQ
/var/folders/m4/4md61f0s1_g0rzfghffqnxvr0000gn/T//ccHVf8ER.s:792    .text.nrf24l01SetRXAddress:0000000000000000 $t
/var/folders/m4/4md61f0s1_g0rzfghffqnxvr0000gn/T//ccHVf8ER.s:798    .text.nrf24l01SetRXAddress:0000000000000000 nrf24l01SetRXAddress
/var/folders/m4/4md61f0s1_g0rzfghffqnxvr0000gn/T//ccHVf8ER.s:881    .text.nrf24l01SetTXAddress:0000000000000000 $t
/var/folders/m4/4md61f0s1_g0rzfghffqnxvr0000gn/T//ccHVf8ER.s:887    .text.nrf24l01SetTXAddress:0000000000000000 nrf24l01SetTXAddress
/var/folders/m4/4md61f0s1_g0rzfghffqnxvr0000gn/T//ccHVf8ER.s:929    .text.nrf24l01SetPayloadSize:0000000000000000 $t
/var/folders/m4/4md61f0s1_g0rzfghffqnxvr0000gn/T//ccHVf8ER.s:935    .text.nrf24l01SetPayloadSize:0000000000000000 nrf24l01SetPayloadSize
/var/folders/m4/4md61f0s1_g0rzfghffqnxvr0000gn/T//ccHVf8ER.s:968    .text.nrf24l01GetFIFOStatus:0000000000000000 $t
/var/folders/m4/4md61f0s1_g0rzfghffqnxvr0000gn/T//ccHVf8ER.s:974    .text.nrf24l01GetFIFOStatus:0000000000000000 nrf24l01GetFIFOStatus
/var/folders/m4/4md61f0s1_g0rzfghffqnxvr0000gn/T//ccHVf8ER.s:990    .text.nrf24l01EnableDynamicPipeSize:0000000000000000 $t
/var/folders/m4/4md61f0s1_g0rzfghffqnxvr0000gn/T//ccHVf8ER.s:996    .text.nrf24l01EnableDynamicPipeSize:0000000000000000 nrf24l01EnableDynamicPipeSize
/var/folders/m4/4md61f0s1_g0rzfghffqnxvr0000gn/T//ccHVf8ER.s:1042   .text.nrf24l01DisableDynamicSize:0000000000000000 $t
/var/folders/m4/4md61f0s1_g0rzfghffqnxvr0000gn/T//ccHVf8ER.s:1048   .text.nrf24l01DisableDynamicSize:0000000000000000 nrf24l01DisableDynamicSize
/var/folders/m4/4md61f0s1_g0rzfghffqnxvr0000gn/T//ccHVf8ER.s:1084   .text.nrf24l01DisableDynamicPipeSize:0000000000000000 $t
/var/folders/m4/4md61f0s1_g0rzfghffqnxvr0000gn/T//ccHVf8ER.s:1090   .text.nrf24l01DisableDynamicPipeSize:0000000000000000 nrf24l01DisableDynamicPipeSize
/var/folders/m4/4md61f0s1_g0rzfghffqnxvr0000gn/T//ccHVf8ER.s:1136   .text.nrf24l01ReadPayload:0000000000000000 $t
/var/folders/m4/4md61f0s1_g0rzfghffqnxvr0000gn/T//ccHVf8ER.s:1142   .text.nrf24l01ReadPayload:0000000000000000 nrf24l01ReadPayload
/var/folders/m4/4md61f0s1_g0rzfghffqnxvr0000gn/T//ccHVf8ER.s:1161   .text.nrf24l01WritePayload:0000000000000000 $t
/var/folders/m4/4md61f0s1_g0rzfghffqnxvr0000gn/T//ccHVf8ER.s:1167   .text.nrf24l01WritePayload:0000000000000000 nrf24l01WritePayload
/var/folders/m4/4md61f0s1_g0rzfghffqnxvr0000gn/T//ccHVf8ER.s:1186   .text.nrf24l01ToggleFeatures:0000000000000000 $t
/var/folders/m4/4md61f0s1_g0rzfghffqnxvr0000gn/T//ccHVf8ER.s:1192   .text.nrf24l01ToggleFeatures:0000000000000000 nrf24l01ToggleFeatures
/var/folders/m4/4md61f0s1_g0rzfghffqnxvr0000gn/T//ccHVf8ER.s:1242   .text.nrf24l01ToggleFeatures:0000000000000034 $d
/var/folders/m4/4md61f0s1_g0rzfghffqnxvr0000gn/T//ccHVf8ER.s:1247   .text.nrf24l01EnableDynamicSize:0000000000000000 $t
/var/folders/m4/4md61f0s1_g0rzfghffqnxvr0000gn/T//ccHVf8ER.s:1253   .text.nrf24l01EnableDynamicSize:0000000000000000 nrf24l01EnableDynamicSize
ARM GAS  /var/folders/m4/4md61f0s1_g0rzfghffqnxvr0000gn/T//ccHVf8ER.s 			page 253


/var/folders/m4/4md61f0s1_g0rzfghffqnxvr0000gn/T//ccHVf8ER.s:1325   .text.nrf24l01FlushRX:0000000000000000 $t
/var/folders/m4/4md61f0s1_g0rzfghffqnxvr0000gn/T//ccHVf8ER.s:1331   .text.nrf24l01FlushRX:0000000000000000 nrf24l01FlushRX
/var/folders/m4/4md61f0s1_g0rzfghffqnxvr0000gn/T//ccHVf8ER.s:1379   .text.nrf24l01FlushTX:0000000000000000 $t
/var/folders/m4/4md61f0s1_g0rzfghffqnxvr0000gn/T//ccHVf8ER.s:1385   .text.nrf24l01FlushTX:0000000000000000 nrf24l01FlushTX
/var/folders/m4/4md61f0s1_g0rzfghffqnxvr0000gn/T//ccHVf8ER.s:1433   .text.initNRF24L01:0000000000000000 $t
/var/folders/m4/4md61f0s1_g0rzfghffqnxvr0000gn/T//ccHVf8ER.s:1439   .text.initNRF24L01:0000000000000000 initNRF24L01
/var/folders/m4/4md61f0s1_g0rzfghffqnxvr0000gn/T//ccHVf8ER.s:1628   .text.initNRF24L01:00000000000000c0 $d
/var/folders/m4/4md61f0s1_g0rzfghffqnxvr0000gn/T//ccHVf8ER.s:1644   .text.nrf24l01GetSize:0000000000000000 $t
/var/folders/m4/4md61f0s1_g0rzfghffqnxvr0000gn/T//ccHVf8ER.s:1650   .text.nrf24l01GetSize:0000000000000000 nrf24l01GetSize
/var/folders/m4/4md61f0s1_g0rzfghffqnxvr0000gn/T//ccHVf8ER.s:1705   .text.nrf24l01EnterRX:0000000000000000 $t
/var/folders/m4/4md61f0s1_g0rzfghffqnxvr0000gn/T//ccHVf8ER.s:1711   .text.nrf24l01EnterRX:0000000000000000 nrf24l01EnterRX
/var/folders/m4/4md61f0s1_g0rzfghffqnxvr0000gn/T//ccHVf8ER.s:1760   .text.readt:0000000000000000 $t
/var/folders/m4/4md61f0s1_g0rzfghffqnxvr0000gn/T//ccHVf8ER.s:1765   .text.readt:0000000000000000 readt
/var/folders/m4/4md61f0s1_g0rzfghffqnxvr0000gn/T//ccHVf8ER.s:2268   .text.gett:0000000000000000 $t
/var/folders/m4/4md61f0s1_g0rzfghffqnxvr0000gn/T//ccHVf8ER.s:2273   .text.gett:0000000000000000 gett
/var/folders/m4/4md61f0s1_g0rzfghffqnxvr0000gn/T//ccHVf8ER.s:2382   .text.get:0000000000000000 $t
/var/folders/m4/4md61f0s1_g0rzfghffqnxvr0000gn/T//ccHVf8ER.s:2387   .text.get:0000000000000000 get
/var/folders/m4/4md61f0s1_g0rzfghffqnxvr0000gn/T//ccHVf8ER.s:2403   .text.read:0000000000000000 $t
/var/folders/m4/4md61f0s1_g0rzfghffqnxvr0000gn/T//ccHVf8ER.s:2408   .text.read:0000000000000000 read
/var/folders/m4/4md61f0s1_g0rzfghffqnxvr0000gn/T//ccHVf8ER.s:2424   .text.nrf24l01EnterTX:0000000000000000 $t
/var/folders/m4/4md61f0s1_g0rzfghffqnxvr0000gn/T//ccHVf8ER.s:2430   .text.nrf24l01EnterTX:0000000000000000 nrf24l01EnterTX
/var/folders/m4/4md61f0s1_g0rzfghffqnxvr0000gn/T//ccHVf8ER.s:2477   .text.writet:0000000000000000 $t
/var/folders/m4/4md61f0s1_g0rzfghffqnxvr0000gn/T//ccHVf8ER.s:2482   .text.writet:0000000000000000 writet
/var/folders/m4/4md61f0s1_g0rzfghffqnxvr0000gn/T//ccHVf8ER.s:2726   .text.putt:0000000000000000 $t
/var/folders/m4/4md61f0s1_g0rzfghffqnxvr0000gn/T//ccHVf8ER.s:2731   .text.putt:0000000000000000 putt
/var/folders/m4/4md61f0s1_g0rzfghffqnxvr0000gn/T//ccHVf8ER.s:2767   .text.put:0000000000000000 $t
/var/folders/m4/4md61f0s1_g0rzfghffqnxvr0000gn/T//ccHVf8ER.s:2772   .text.put:0000000000000000 put
/var/folders/m4/4md61f0s1_g0rzfghffqnxvr0000gn/T//ccHVf8ER.s:2811   .text.write:0000000000000000 $t
/var/folders/m4/4md61f0s1_g0rzfghffqnxvr0000gn/T//ccHVf8ER.s:2816   .text.write:0000000000000000 write
/var/folders/m4/4md61f0s1_g0rzfghffqnxvr0000gn/T//ccHVf8ER.s:2832   .text.nrf24l01EnterStandby:0000000000000000 $t
/var/folders/m4/4md61f0s1_g0rzfghffqnxvr0000gn/T//ccHVf8ER.s:2838   .text.nrf24l01EnterStandby:0000000000000000 nrf24l01EnterStandby
/var/folders/m4/4md61f0s1_g0rzfghffqnxvr0000gn/T//ccHVf8ER.s:2859   .text.nrf24l01EnablePipes:0000000000000000 $t
/var/folders/m4/4md61f0s1_g0rzfghffqnxvr0000gn/T//ccHVf8ER.s:2865   .text.nrf24l01EnablePipes:0000000000000000 nrf24l01EnablePipes
/var/folders/m4/4md61f0s1_g0rzfghffqnxvr0000gn/T//ccHVf8ER.s:2911   .text.nrf24l01ExtIRQ:0000000000000000 $t
/var/folders/m4/4md61f0s1_g0rzfghffqnxvr0000gn/T//ccHVf8ER.s:2917   .text.nrf24l01ExtIRQ:0000000000000000 nrf24l01ExtIRQ
/var/folders/m4/4md61f0s1_g0rzfghffqnxvr0000gn/T//ccHVf8ER.s:3002   .bss.nrf24l01:0000000000000000 nrf24l01
/var/folders/m4/4md61f0s1_g0rzfghffqnxvr0000gn/T//ccHVf8ER.s:2972   .rodata:0000000000000000 $d
/var/folders/m4/4md61f0s1_g0rzfghffqnxvr0000gn/T//ccHVf8ER.s:2978   .rodata.nrf24l01SPI:0000000000000000 $d
/var/folders/m4/4md61f0s1_g0rzfghffqnxvr0000gn/T//ccHVf8ER.s:2982   .rodata.nrf24l01SPI:0000000000000000 nrf24l01SPI
/var/folders/m4/4md61f0s1_g0rzfghffqnxvr0000gn/T//ccHVf8ER.s:2988   .rodata.nrf24l01Config:0000000000000000 $d
/var/folders/m4/4md61f0s1_g0rzfghffqnxvr0000gn/T//ccHVf8ER.s:2992   .rodata.nrf24l01Config:0000000000000000 nrf24l01Config
/var/folders/m4/4md61f0s1_g0rzfghffqnxvr0000gn/T//ccHVf8ER.s:2998   .bss.nrf24l01:0000000000000000 $d
/var/folders/m4/4md61f0s1_g0rzfghffqnxvr0000gn/T//ccHVf8ER.s:3005   .rodata.extcfg:0000000000000000 $d
/var/folders/m4/4md61f0s1_g0rzfghffqnxvr0000gn/T//ccHVf8ER.s:3009   .rodata.extcfg:0000000000000000 extcfg
/var/folders/m4/4md61f0s1_g0rzfghffqnxvr0000gn/T//ccHVf8ER.s:3057   .rodata.addr:0000000000000000 $d
/var/folders/m4/4md61f0s1_g0rzfghffqnxvr0000gn/T//ccHVf8ER.s:3061   .rodata.addr:0000000000000000 addr
/var/folders/m4/4md61f0s1_g0rzfghffqnxvr0000gn/T//ccHVf8ER.s:3064   .rodata.vmt:0000000000000000 $d
/var/folders/m4/4md61f0s1_g0rzfghffqnxvr0000gn/T//ccHVf8ER.s:3068   .rodata.vmt:0000000000000000 vmt
                     .debug_frame:0000000000000010 $d

UNDEFINED SYMBOLS
chEvtBroadcastFlagsI
spiSelect
spiExchange
spiReceive
spiUnselect
spiSend
ARM GAS  /var/folders/m4/4md61f0s1_g0rzfghffqnxvr0000gn/T//ccHVf8ER.s 			page 254


_pal_lld_setgroupmode
spiStart
extStart
extChannelEnable
SPID1
EXTD1
chEvtRegisterMaskWithFlags
chEvtUnregister
chEvtBroadcastFlags
chEvtWaitOneTimeout
