ARM GAS  /var/folders/m4/4md61f0s1_g0rzfghffqnxvr0000gn/T//cck7CVA7.s 			page 1


   1              		.syntax unified
   2              		.cpu cortex-m4
   3              		.eabi_attribute 27, 1
   4              		.eabi_attribute 28, 1
   5              		.fpu fpv4-sp-d16
   6              		.eabi_attribute 20, 1
   7              		.eabi_attribute 21, 1
   8              		.eabi_attribute 23, 3
   9              		.eabi_attribute 24, 1
  10              		.eabi_attribute 25, 1
  11              		.eabi_attribute 26, 1
  12              		.eabi_attribute 30, 2
  13              		.eabi_attribute 34, 1
  14              		.eabi_attribute 18, 4
  15              		.thumb
  16              		.file	"pal_lld.c"
  17              		.text
  18              	.Ltext0:
  19              		.cfi_sections	.debug_frame
  20              		.section	.text._pal_lld_init,"ax",%progbits
  21              		.align	2
  22              		.p2align 4,,15
  23              		.global	_pal_lld_init
  24              		.thumb
  25              		.thumb_func
  26              		.type	_pal_lld_init, %function
  27              	_pal_lld_init:
  28              	.LFB269:
  29              		.file 1 "ChibiOS_16.1.4/os/hal/ports/STM32/LLD/GPIOv2/pal_lld.c"
  30              		.loc 1 88 0
  31              		.cfi_startproc
  32              		@ args = 0, pretend = 0, frame = 0
  33              		@ frame_needed = 0, uses_anonymous_args = 0
  34              	.LVL0:
  35              		.loc 1 104 0
  36 0000 DFF878C1 		ldr	ip, .L3+24
  37              	.LBB18:
  38              	.LBB19:
  39              		.loc 1 63 0
  40 0004 5749     		ldr	r1, .L3
  41              	.LBE19:
  42              	.LBE18:
  43              	.LBB21:
  44              	.LBB22:
  45 0006 584A     		ldr	r2, .L3+4
  46              	.LBE22:
  47              	.LBE21:
  48              		.loc 1 88 0
  49 0008 2DE9F043 		push	{r4, r5, r6, r7, r8, r9, lr}
  50              		.cfi_def_cfa_offset 28
  51              		.cfi_offset 4, -28
  52              		.cfi_offset 5, -24
  53              		.cfi_offset 6, -20
  54              		.cfi_offset 7, -16
  55              		.cfi_offset 8, -12
  56              		.cfi_offset 9, -8
  57              		.cfi_offset 14, -4
ARM GAS  /var/folders/m4/4md61f0s1_g0rzfghffqnxvr0000gn/T//cck7CVA7.s 			page 2


  58              		.loc 1 104 0
  59 000c DCF83080 		ldr	r8, [ip, #48]
  60              	.LBB24:
  61              	.LBB25:
  62              		.loc 1 63 0
  63 0010 DFF86CE1 		ldr	lr, .L3+28
  64              	.LBE25:
  65              	.LBE24:
  66              	.LBB27:
  67              	.LBB28:
  68 0014 554F     		ldr	r7, .L3+8
  69              	.LBE28:
  70              	.LBE27:
  71              	.LBB30:
  72              	.LBB31:
  73 0016 564E     		ldr	r6, .L3+12
  74              	.LBE31:
  75              	.LBE30:
  76              	.LBB33:
  77              	.LBB34:
  78 0018 564D     		ldr	r5, .L3+16
  79              	.LBE34:
  80              	.LBE33:
  81              	.LBB36:
  82              	.LBB37:
  83 001a 574C     		ldr	r4, .L3+20
  84              	.LBE37:
  85              	.LBE36:
  86              	.LBB39:
  87              	.LBB40:
  88 001c DFF86491 		ldr	r9, .L3+32
  89              	.LBE40:
  90              	.LBE39:
  91              		.loc 1 104 0
  92 0020 48F0FF08 		orr	r8, r8, #255
  93 0024 CCF83080 		str	r8, [ip, #48]
  94              		.loc 1 105 0
  95 0028 DCF85080 		ldr	r8, [ip, #80]
  96 002c 48F0FF08 		orr	r8, r8, #255
  97 0030 CCF85080 		str	r8, [ip, #80]
  98              	.LVL1:
  99              	.LBB42:
 100              	.LBB26:
 101              		.loc 1 63 0
 102 0034 4368     		ldr	r3, [r0, #4]
 103 0036 CEF80430 		str	r3, [lr, #4]
 104              		.loc 1 64 0
 105 003a 8368     		ldr	r3, [r0, #8]
 106 003c CEF80830 		str	r3, [lr, #8]
 107              		.loc 1 65 0
 108 0040 C368     		ldr	r3, [r0, #12]
 109 0042 CEF80C30 		str	r3, [lr, #12]
 110              		.loc 1 66 0
 111 0046 0369     		ldr	r3, [r0, #16]
 112 0048 CEF81430 		str	r3, [lr, #20]
 113              		.loc 1 67 0
 114 004c 4369     		ldr	r3, [r0, #20]
ARM GAS  /var/folders/m4/4md61f0s1_g0rzfghffqnxvr0000gn/T//cck7CVA7.s 			page 3


 115 004e CEF82030 		str	r3, [lr, #32]
 116              		.loc 1 68 0
 117 0052 8369     		ldr	r3, [r0, #24]
 118 0054 CEF82430 		str	r3, [lr, #36]
 119              		.loc 1 69 0
 120 0058 0368     		ldr	r3, [r0]
 121 005a CEF80030 		str	r3, [lr]
 122              	.LVL2:
 123              	.LBE26:
 124              	.LBE42:
 125              	.LBB43:
 126              	.LBB29:
 127              		.loc 1 63 0
 128 005e 036A     		ldr	r3, [r0, #32]
 129 0060 7B60     		str	r3, [r7, #4]
 130              		.loc 1 64 0
 131 0062 436A     		ldr	r3, [r0, #36]
 132 0064 BB60     		str	r3, [r7, #8]
 133              		.loc 1 65 0
 134 0066 836A     		ldr	r3, [r0, #40]
 135 0068 FB60     		str	r3, [r7, #12]
 136              		.loc 1 66 0
 137 006a C36A     		ldr	r3, [r0, #44]
 138 006c 7B61     		str	r3, [r7, #20]
 139              		.loc 1 67 0
 140 006e 036B     		ldr	r3, [r0, #48]
 141 0070 3B62     		str	r3, [r7, #32]
 142              		.loc 1 68 0
 143 0072 436B     		ldr	r3, [r0, #52]
 144 0074 7B62     		str	r3, [r7, #36]
 145              		.loc 1 69 0
 146 0076 C369     		ldr	r3, [r0, #28]
 147 0078 3B60     		str	r3, [r7]
 148              	.LVL3:
 149              	.LBE29:
 150              	.LBE43:
 151              	.LBB44:
 152              	.LBB32:
 153              		.loc 1 63 0
 154 007a C76B     		ldr	r7, [r0, #60]
 155 007c 7760     		str	r7, [r6, #4]
 156              		.loc 1 64 0
 157 007e 076C     		ldr	r7, [r0, #64]
 158 0080 B760     		str	r7, [r6, #8]
 159              		.loc 1 65 0
 160 0082 476C     		ldr	r7, [r0, #68]
 161 0084 F760     		str	r7, [r6, #12]
 162              		.loc 1 66 0
 163 0086 876C     		ldr	r7, [r0, #72]
 164 0088 7761     		str	r7, [r6, #20]
 165              		.loc 1 67 0
 166 008a C76C     		ldr	r7, [r0, #76]
 167 008c 3762     		str	r7, [r6, #32]
 168              		.loc 1 68 0
 169 008e 076D     		ldr	r7, [r0, #80]
 170 0090 7762     		str	r7, [r6, #36]
 171              		.loc 1 69 0
ARM GAS  /var/folders/m4/4md61f0s1_g0rzfghffqnxvr0000gn/T//cck7CVA7.s 			page 4


 172 0092 876B     		ldr	r7, [r0, #56]
 173 0094 3760     		str	r7, [r6]
 174              	.LVL4:
 175              	.LBE32:
 176              	.LBE44:
 177              	.LBB45:
 178              	.LBB35:
 179              		.loc 1 63 0
 180 0096 866D     		ldr	r6, [r0, #88]
 181 0098 6E60     		str	r6, [r5, #4]
 182              		.loc 1 64 0
 183 009a C66D     		ldr	r6, [r0, #92]
 184 009c AE60     		str	r6, [r5, #8]
 185              		.loc 1 65 0
 186 009e 066E     		ldr	r6, [r0, #96]
 187 00a0 EE60     		str	r6, [r5, #12]
 188              		.loc 1 66 0
 189 00a2 466E     		ldr	r6, [r0, #100]
 190 00a4 6E61     		str	r6, [r5, #20]
 191              		.loc 1 67 0
 192 00a6 866E     		ldr	r6, [r0, #104]
 193 00a8 2E62     		str	r6, [r5, #32]
 194              		.loc 1 68 0
 195 00aa C66E     		ldr	r6, [r0, #108]
 196 00ac 6E62     		str	r6, [r5, #36]
 197              		.loc 1 69 0
 198 00ae 466D     		ldr	r6, [r0, #84]
 199 00b0 2E60     		str	r6, [r5]
 200              	.LVL5:
 201              	.LBE35:
 202              	.LBE45:
 203              	.LBB46:
 204              	.LBB38:
 205              		.loc 1 63 0
 206 00b2 456F     		ldr	r5, [r0, #116]
 207 00b4 6560     		str	r5, [r4, #4]
 208              		.loc 1 64 0
 209 00b6 856F     		ldr	r5, [r0, #120]
 210 00b8 A560     		str	r5, [r4, #8]
 211              		.loc 1 65 0
 212 00ba C56F     		ldr	r5, [r0, #124]
 213 00bc E560     		str	r5, [r4, #12]
 214              		.loc 1 66 0
 215 00be D0F88050 		ldr	r5, [r0, #128]
 216 00c2 6561     		str	r5, [r4, #20]
 217              		.loc 1 67 0
 218 00c4 D0F88450 		ldr	r5, [r0, #132]
 219 00c8 2562     		str	r5, [r4, #32]
 220              		.loc 1 68 0
 221 00ca D0F88850 		ldr	r5, [r0, #136]
 222 00ce 6562     		str	r5, [r4, #36]
 223              		.loc 1 69 0
 224 00d0 056F     		ldr	r5, [r0, #112]
 225 00d2 2560     		str	r5, [r4]
 226              	.LVL6:
 227              	.LBE38:
 228              	.LBE46:
ARM GAS  /var/folders/m4/4md61f0s1_g0rzfghffqnxvr0000gn/T//cck7CVA7.s 			page 5


 229              	.LBB47:
 230              	.LBB20:
 231              		.loc 1 63 0
 232 00d4 D0F89040 		ldr	r4, [r0, #144]
 233 00d8 4C60     		str	r4, [r1, #4]
 234              		.loc 1 64 0
 235 00da D0F89440 		ldr	r4, [r0, #148]
 236 00de 8C60     		str	r4, [r1, #8]
 237              		.loc 1 65 0
 238 00e0 D0F89840 		ldr	r4, [r0, #152]
 239 00e4 CC60     		str	r4, [r1, #12]
 240              		.loc 1 66 0
 241 00e6 D0F89C40 		ldr	r4, [r0, #156]
 242 00ea 4C61     		str	r4, [r1, #20]
 243              		.loc 1 67 0
 244 00ec D0F8A040 		ldr	r4, [r0, #160]
 245 00f0 0C62     		str	r4, [r1, #32]
 246              		.loc 1 68 0
 247 00f2 D0F8A440 		ldr	r4, [r0, #164]
 248 00f6 4C62     		str	r4, [r1, #36]
 249              		.loc 1 69 0
 250 00f8 D0F88C40 		ldr	r4, [r0, #140]
 251 00fc 0C60     		str	r4, [r1]
 252              	.LVL7:
 253              	.LBE20:
 254              	.LBE47:
 255              	.LBB48:
 256              	.LBB23:
 257              		.loc 1 63 0
 258 00fe D0F8AC10 		ldr	r1, [r0, #172]
 259 0102 5160     		str	r1, [r2, #4]
 260              		.loc 1 64 0
 261 0104 D0F8B010 		ldr	r1, [r0, #176]
 262 0108 9160     		str	r1, [r2, #8]
 263              		.loc 1 65 0
 264 010a D0F8B410 		ldr	r1, [r0, #180]
 265 010e D160     		str	r1, [r2, #12]
 266              		.loc 1 66 0
 267 0110 D0F8B810 		ldr	r1, [r0, #184]
 268 0114 5161     		str	r1, [r2, #20]
 269              		.loc 1 67 0
 270 0116 D0F8BC10 		ldr	r1, [r0, #188]
 271 011a 1162     		str	r1, [r2, #32]
 272              		.loc 1 68 0
 273 011c D0F8C010 		ldr	r1, [r0, #192]
 274 0120 5162     		str	r1, [r2, #36]
 275              		.loc 1 69 0
 276 0122 D0F8A810 		ldr	r1, [r0, #168]
 277 0126 1160     		str	r1, [r2]
 278              	.LVL8:
 279              	.LBE23:
 280              	.LBE48:
 281              	.LBB49:
 282              	.LBB41:
 283              		.loc 1 63 0
 284 0128 D0F8C820 		ldr	r2, [r0, #200]
 285 012c C9F80420 		str	r2, [r9, #4]
ARM GAS  /var/folders/m4/4md61f0s1_g0rzfghffqnxvr0000gn/T//cck7CVA7.s 			page 6


 286              		.loc 1 64 0
 287 0130 D0F8CC20 		ldr	r2, [r0, #204]
 288 0134 C9F80820 		str	r2, [r9, #8]
 289              		.loc 1 65 0
 290 0138 D0F8D020 		ldr	r2, [r0, #208]
 291 013c C9F80C20 		str	r2, [r9, #12]
 292              		.loc 1 66 0
 293 0140 D0F8D420 		ldr	r2, [r0, #212]
 294 0144 C9F81420 		str	r2, [r9, #20]
 295              		.loc 1 67 0
 296 0148 D0F8D820 		ldr	r2, [r0, #216]
 297 014c C9F82020 		str	r2, [r9, #32]
 298              		.loc 1 68 0
 299 0150 D0F8DC20 		ldr	r2, [r0, #220]
 300 0154 C9F82420 		str	r2, [r9, #36]
 301              		.loc 1 69 0
 302 0158 D0F8C420 		ldr	r2, [r0, #196]
 303 015c C9F80020 		str	r2, [r9]
 304 0160 BDE8F083 		pop	{r4, r5, r6, r7, r8, r9, pc}
 305              	.L4:
 306              		.align	2
 307              	.L3:
 308 0164 00140240 		.word	1073878016
 309 0168 00180240 		.word	1073879040
 310 016c 00040240 		.word	1073873920
 311 0170 00080240 		.word	1073874944
 312 0174 000C0240 		.word	1073875968
 313 0178 00100240 		.word	1073876992
 314 017c 00380240 		.word	1073887232
 315 0180 00000240 		.word	1073872896
 316 0184 001C0240 		.word	1073880064
 317              	.LBE41:
 318              	.LBE49:
 319              		.cfi_endproc
 320              	.LFE269:
 321              		.size	_pal_lld_init, .-_pal_lld_init
 322              		.section	.text._pal_lld_setgroupmode,"ax",%progbits
 323              		.align	2
 324              		.p2align 4,,15
 325              		.global	_pal_lld_setgroupmode
 326              		.thumb
 327              		.thumb_func
 328              		.type	_pal_lld_setgroupmode, %function
 329              	_pal_lld_setgroupmode:
 330              	.LFB270:
 331              		.loc 1 161 0
 332              		.cfi_startproc
 333              		@ args = 0, pretend = 0, frame = 0
 334              		@ frame_needed = 0, uses_anonymous_args = 0
 335              	.LVL9:
 336 0000 2DE9F04F 		push	{r4, r5, r6, r7, r8, r9, r10, fp, lr}
 337              		.cfi_def_cfa_offset 36
 338              		.cfi_offset 4, -36
 339              		.cfi_offset 5, -32
 340              		.cfi_offset 6, -28
 341              		.cfi_offset 7, -24
 342              		.cfi_offset 8, -20
ARM GAS  /var/folders/m4/4md61f0s1_g0rzfghffqnxvr0000gn/T//cck7CVA7.s 			page 7


 343              		.cfi_offset 9, -16
 344              		.cfi_offset 10, -12
 345              		.cfi_offset 11, -8
 346              		.cfi_offset 14, -4
 347              		.loc 1 166 0
 348 0004 C2F3411C 		ubfx	ip, r2, #5, #2
 349              		.loc 1 163 0
 350 0008 02F0030E 		and	lr, r2, #3
 351              	.LVL10:
 352              		.loc 1 164 0
 353 000c C2F38009 		ubfx	r9, r2, #2, #1
 354              	.LVL11:
 355              		.loc 1 165 0
 356 0010 C2F3C108 		ubfx	r8, r2, #3, #2
 357              	.LVL12:
 358              		.loc 1 168 0
 359 0014 0027     		movs	r7, #0
 360              		.loc 1 167 0
 361 0016 C2F3C312 		ubfx	r2, r2, #7, #4
 362              	.LVL13:
 363              	.LBB50:
 364              		.loc 1 176 0
 365 001a 4FF00F0B 		mov	fp, #15
 366              		.loc 1 174 0
 367 001e 4FF0010A 		mov	r10, #1
 368 0022 0FE0     		b	.L12
 369              	.LVL14:
 370              	.L19:
 371              		.loc 1 194 0
 372 0024 046A     		ldr	r4, [r0, #32]
 373 0026 24EA0303 		bic	r3, r4, r3
 374              	.LVL15:
 375 002a 1D43     		orrs	r5, r5, r3
 376              	.LVL16:
 377 002c 0562     		str	r5, [r0, #32]
 378              	.LVL17:
 379              	.L6:
 380              	.LBE50:
 381              		.loc 1 200 0
 382 002e 4908     		lsrs	r1, r1, #1
 383              	.LVL18:
 384 0030 39D0     		beq	.L5
 385              	.LVL19:
 386              	.L20:
 387              		.loc 1 202 0
 388 0032 4FEA4909 		lsl	r9, r9, #1
 389              	.LVL20:
 390              		.loc 1 203 0
 391 0036 4FEA8808 		lsl	r8, r8, #2
 392              	.LVL21:
 393              		.loc 1 204 0
 394 003a 4FEA8C0C 		lsl	ip, ip, #2
 395              	.LVL22:
 396              		.loc 1 205 0
 397 003e 4FEA8E0E 		lsl	lr, lr, #2
 398              	.LVL23:
 399              		.loc 1 206 0
ARM GAS  /var/folders/m4/4md61f0s1_g0rzfghffqnxvr0000gn/T//cck7CVA7.s 			page 8


 400 0042 0137     		adds	r7, r7, #1
 401              	.LVL24:
 402              	.L12:
 403              		.loc 1 170 0
 404 0044 CB07     		lsls	r3, r1, #31
 405 0046 F2D5     		bpl	.L6
 406              	.LBB51:
 407              		.loc 1 177 0
 408 0048 4368     		ldr	r3, [r0, #4]
 409              		.loc 1 174 0
 410 004a 0AFA07F4 		lsl	r4, r10, r7
 411              		.loc 1 177 0
 412 004e 23EA0403 		bic	r3, r3, r4
 413 0052 43EA0903 		orr	r3, r3, r9
 414 0056 4360     		str	r3, [r0, #4]
 415              		.loc 1 175 0
 416 0058 0325     		movs	r5, #3
 417 005a 7C00     		lsls	r4, r7, #1
 418              		.loc 1 178 0
 419 005c 8368     		ldr	r3, [r0, #8]
 420              		.loc 1 175 0
 421 005e 05FA04F4 		lsl	r4, r5, r4
 422              		.loc 1 178 0
 423 0062 E443     		mvns	r4, r4
 424 0064 2340     		ands	r3, r3, r4
 425 0066 43EA0803 		orr	r3, r3, r8
 426 006a 8360     		str	r3, [r0, #8]
 427              		.loc 1 179 0
 428 006c C568     		ldr	r5, [r0, #12]
 429              		.loc 1 173 0
 430 006e 07F00703 		and	r3, r7, #7
 431              		.loc 1 179 0
 432 0072 2540     		ands	r5, r5, r4
 433 0074 45EA0C05 		orr	r5, r5, ip
 434              		.loc 1 173 0
 435 0078 9B00     		lsls	r3, r3, #2
 436              		.loc 1 180 0
 437 007a BEF1020F 		cmp	lr, #2
 438              		.loc 1 179 0
 439 007e C560     		str	r5, [r0, #12]
 440              		.loc 1 173 0
 441 0080 02FA03F5 		lsl	r5, r2, r3
 442              	.LVL25:
 443              		.loc 1 176 0
 444 0084 0BFA03F3 		lsl	r3, fp, r3
 445              	.LVL26:
 446              		.loc 1 180 0
 447 0088 0FD0     		beq	.L18
 448              		.loc 1 192 0
 449 008a 0668     		ldr	r6, [r0]
 450 008c 3440     		ands	r4, r4, r6
 451              	.LVL27:
 452 008e 44EA0E04 		orr	r4, r4, lr
 453              		.loc 1 193 0
 454 0092 072F     		cmp	r7, #7
 455              		.loc 1 192 0
 456 0094 0460     		str	r4, [r0]
ARM GAS  /var/folders/m4/4md61f0s1_g0rzfghffqnxvr0000gn/T//cck7CVA7.s 			page 9


 457              		.loc 1 193 0
 458 0096 C5D9     		bls	.L19
 459              		.loc 1 196 0
 460 0098 446A     		ldr	r4, [r0, #36]
 461 009a 24EA0303 		bic	r3, r4, r3
 462              	.LVL28:
 463 009e 1D43     		orrs	r5, r5, r3
 464              	.LVL29:
 465              	.LBE51:
 466              		.loc 1 200 0
 467 00a0 4908     		lsrs	r1, r1, #1
 468              	.LVL30:
 469              	.LBB52:
 470              		.loc 1 196 0
 471 00a2 4562     		str	r5, [r0, #36]
 472              	.LBE52:
 473              		.loc 1 200 0
 474 00a4 C5D1     		bne	.L20
 475              	.LVL31:
 476              	.L5:
 477 00a6 BDE8F08F 		pop	{r4, r5, r6, r7, r8, r9, r10, fp, pc}
 478              	.LVL32:
 479              	.L18:
 480              	.LBB53:
 481              		.loc 1 183 0
 482 00aa 072F     		cmp	r7, #7
 483 00ac 0AD8     		bhi	.L8
 484              		.loc 1 184 0
 485 00ae 066A     		ldr	r6, [r0, #32]
 486 00b0 26EA0303 		bic	r3, r6, r3
 487              	.LVL33:
 488 00b4 1D43     		orrs	r5, r5, r3
 489              	.LVL34:
 490 00b6 0562     		str	r5, [r0, #32]
 491              	.L9:
 492              		.loc 1 187 0
 493 00b8 0368     		ldr	r3, [r0]
 494 00ba 1C40     		ands	r4, r4, r3
 495              	.LVL35:
 496 00bc 44F00204 		orr	r4, r4, #2
 497 00c0 0460     		str	r4, [r0]
 498 00c2 B4E7     		b	.L6
 499              	.LVL36:
 500              	.L8:
 501              		.loc 1 186 0
 502 00c4 466A     		ldr	r6, [r0, #36]
 503 00c6 26EA0303 		bic	r3, r6, r3
 504              	.LVL37:
 505 00ca 1D43     		orrs	r5, r5, r3
 506              	.LVL38:
 507 00cc 4562     		str	r5, [r0, #36]
 508 00ce F3E7     		b	.L9
 509              	.LBE53:
 510              		.cfi_endproc
 511              	.LFE270:
 512              		.size	_pal_lld_setgroupmode, .-_pal_lld_setgroupmode
 513              		.text
ARM GAS  /var/folders/m4/4md61f0s1_g0rzfghffqnxvr0000gn/T//cck7CVA7.s 			page 10


 514              	.Letext0:
 515              		.file 2 "/usr/local/Cellar/gcc-arm-none-eabi-49/20150609/arm-none-eabi/include/machine/_default_ty
 516              		.file 3 "/usr/local/Cellar/gcc-arm-none-eabi-49/20150609/arm-none-eabi/include/sys/_stdint.h"
 517              		.file 4 "ChibiOS_16.1.4/os/rt/ports/ARMCMx/compilers/GCC/chtypes.h"
 518              		.file 5 "ChibiOS_16.1.4/os/rt/include/chsystypes.h"
 519              		.file 6 "ChibiOS_16.1.4/os/rt/include/chschd.h"
 520              		.file 7 "ChibiOS_16.1.4/os/ext/CMSIS/ST/STM32F4xx/stm32f446xx.h"
 521              		.file 8 "ChibiOS_16.1.4/os/rt/ports/ARMCMx/chcore.h"
 522              		.file 9 "ChibiOS_16.1.4/os/rt/ports/ARMCMx/chcore_v7m.h"
 523              		.file 10 "ChibiOS_16.1.4/os/rt/include/chtm.h"
 524              		.file 11 "ChibiOS_16.1.4/os/rt/include/chsem.h"
 525              		.file 12 "ChibiOS_16.1.4/os/rt/include/chmtx.h"
 526              		.file 13 "ChibiOS_16.1.4/os/hal/ports/STM32/LLD/GPIOv2/pal_lld.h"
 527              		.file 14 "ChibiOS_16.1.4/os/ext/CMSIS/include/core_cm4.h"