ARM GAS  /var/folders/m4/4md61f0s1_g0rzfghffqnxvr0000gn/T//cck7CVA7.s 			page 1


   1              		.syntax unified
   2              		.cpu cortex-m4
   3              		.eabi_attribute 27, 1
   4              		.eabi_attribute 28, 1
   5              		.fpu fpv4-sp-d16
   6              		.eabi_attribute 20, 1
   7              		.eabi_attribute 21, 1
   8              		.eabi_attribute 23, 3
   9              		.eabi_attribute 24, 1
  10              		.eabi_attribute 25, 1
  11              		.eabi_attribute 26, 1
  12              		.eabi_attribute 30, 2
  13              		.eabi_attribute 34, 1
  14              		.eabi_attribute 18, 4
  15              		.thumb
  16              		.file	"pal_lld.c"
  17              		.text
  18              	.Ltext0:
  19              		.cfi_sections	.debug_frame
  20              		.section	.text._pal_lld_init,"ax",%progbits
  21              		.align	2
  22              		.p2align 4,,15
  23              		.global	_pal_lld_init
  24              		.thumb
  25              		.thumb_func
  26              		.type	_pal_lld_init, %function
  27              	_pal_lld_init:
  28              	.LFB269:
  29              		.file 1 "ChibiOS_16.1.4/os/hal/ports/STM32/LLD/GPIOv2/pal_lld.c"
  30              		.loc 1 88 0
  31              		.cfi_startproc
  32              		@ args = 0, pretend = 0, frame = 0
  33              		@ frame_needed = 0, uses_anonymous_args = 0
  34              	.LVL0:
  35              		.loc 1 104 0
  36 0000 DFF878C1 		ldr	ip, .L3+24
  37              	.LBB18:
  38              	.LBB19:
  39              		.loc 1 63 0
  40 0004 5749     		ldr	r1, .L3
  41              	.LBE19:
  42              	.LBE18:
  43              	.LBB21:
  44              	.LBB22:
  45 0006 584A     		ldr	r2, .L3+4
  46              	.LBE22:
  47              	.LBE21:
  48              		.loc 1 88 0
  49 0008 2DE9F043 		push	{r4, r5, r6, r7, r8, r9, lr}
  50              		.cfi_def_cfa_offset 28
  51              		.cfi_offset 4, -28
  52              		.cfi_offset 5, -24
  53              		.cfi_offset 6, -20
  54              		.cfi_offset 7, -16
  55              		.cfi_offset 8, -12
  56              		.cfi_offset 9, -8
  57              		.cfi_offset 14, -4
ARM GAS  /var/folders/m4/4md61f0s1_g0rzfghffqnxvr0000gn/T//cck7CVA7.s 			page 2


  58              		.loc 1 104 0
  59 000c DCF83080 		ldr	r8, [ip, #48]
  60              	.LBB24:
  61              	.LBB25:
  62              		.loc 1 63 0
  63 0010 DFF86CE1 		ldr	lr, .L3+28
  64              	.LBE25:
  65              	.LBE24:
  66              	.LBB27:
  67              	.LBB28:
  68 0014 554F     		ldr	r7, .L3+8
  69              	.LBE28:
  70              	.LBE27:
  71              	.LBB30:
  72              	.LBB31:
  73 0016 564E     		ldr	r6, .L3+12
  74              	.LBE31:
  75              	.LBE30:
  76              	.LBB33:
  77              	.LBB34:
  78 0018 564D     		ldr	r5, .L3+16
  79              	.LBE34:
  80              	.LBE33:
  81              	.LBB36:
  82              	.LBB37:
  83 001a 574C     		ldr	r4, .L3+20
  84              	.LBE37:
  85              	.LBE36:
  86              	.LBB39:
  87              	.LBB40:
  88 001c DFF86491 		ldr	r9, .L3+32
  89              	.LBE40:
  90              	.LBE39:
  91              		.loc 1 104 0
  92 0020 48F0FF08 		orr	r8, r8, #255
  93 0024 CCF83080 		str	r8, [ip, #48]
  94              		.loc 1 105 0
  95 0028 DCF85080 		ldr	r8, [ip, #80]
  96 002c 48F0FF08 		orr	r8, r8, #255
  97 0030 CCF85080 		str	r8, [ip, #80]
  98              	.LVL1:
  99              	.LBB42:
 100              	.LBB26:
 101              		.loc 1 63 0
 102 0034 4368     		ldr	r3, [r0, #4]
 103 0036 CEF80430 		str	r3, [lr, #4]
 104              		.loc 1 64 0
 105 003a 8368     		ldr	r3, [r0, #8]
 106 003c CEF80830 		str	r3, [lr, #8]
 107              		.loc 1 65 0
 108 0040 C368     		ldr	r3, [r0, #12]
 109 0042 CEF80C30 		str	r3, [lr, #12]
 110              		.loc 1 66 0
 111 0046 0369     		ldr	r3, [r0, #16]
 112 0048 CEF81430 		str	r3, [lr, #20]
 113              		.loc 1 67 0
 114 004c 4369     		ldr	r3, [r0, #20]
ARM GAS  /var/folders/m4/4md61f0s1_g0rzfghffqnxvr0000gn/T//cck7CVA7.s 			page 3


 115 004e CEF82030 		str	r3, [lr, #32]
 116              		.loc 1 68 0
 117 0052 8369     		ldr	r3, [r0, #24]
 118 0054 CEF82430 		str	r3, [lr, #36]
 119              		.loc 1 69 0
 120 0058 0368     		ldr	r3, [r0]
 121 005a CEF80030 		str	r3, [lr]
 122              	.LVL2:
 123              	.LBE26:
 124              	.LBE42:
 125              	.LBB43:
 126              	.LBB29:
 127              		.loc 1 63 0
 128 005e 036A     		ldr	r3, [r0, #32]
 129 0060 7B60     		str	r3, [r7, #4]
 130              		.loc 1 64 0
 131 0062 436A     		ldr	r3, [r0, #36]
 132 0064 BB60     		str	r3, [r7, #8]
 133              		.loc 1 65 0
 134 0066 836A     		ldr	r3, [r0, #40]
 135 0068 FB60     		str	r3, [r7, #12]
 136              		.loc 1 66 0
 137 006a C36A     		ldr	r3, [r0, #44]
 138 006c 7B61     		str	r3, [r7, #20]
 139              		.loc 1 67 0
 140 006e 036B     		ldr	r3, [r0, #48]
 141 0070 3B62     		str	r3, [r7, #32]
 142              		.loc 1 68 0
 143 0072 436B     		ldr	r3, [r0, #52]
 144 0074 7B62     		str	r3, [r7, #36]
 145              		.loc 1 69 0
 146 0076 C369     		ldr	r3, [r0, #28]
 147 0078 3B60     		str	r3, [r7]
 148              	.LVL3:
 149              	.LBE29:
 150              	.LBE43:
 151              	.LBB44:
 152              	.LBB32:
 153              		.loc 1 63 0
 154 007a C76B     		ldr	r7, [r0, #60]
 155 007c 7760     		str	r7, [r6, #4]
 156              		.loc 1 64 0
 157 007e 076C     		ldr	r7, [r0, #64]
 158 0080 B760     		str	r7, [r6, #8]
 159              		.loc 1 65 0
 160 0082 476C     		ldr	r7, [r0, #68]
 161 0084 F760     		str	r7, [r6, #12]
 162              		.loc 1 66 0
 163 0086 876C     		ldr	r7, [r0, #72]
 164 0088 7761     		str	r7, [r6, #20]
 165              		.loc 1 67 0
 166 008a C76C     		ldr	r7, [r0, #76]
 167 008c 3762     		str	r7, [r6, #32]
 168              		.loc 1 68 0
 169 008e 076D     		ldr	r7, [r0, #80]
 170 0090 7762     		str	r7, [r6, #36]
 171              		.loc 1 69 0
ARM GAS  /var/folders/m4/4md61f0s1_g0rzfghffqnxvr0000gn/T//cck7CVA7.s 			page 4


 172 0092 876B     		ldr	r7, [r0, #56]
 173 0094 3760     		str	r7, [r6]
 174              	.LVL4:
 175              	.LBE32:
 176              	.LBE44:
 177              	.LBB45:
 178              	.LBB35:
 179              		.loc 1 63 0
 180 0096 866D     		ldr	r6, [r0, #88]
 181 0098 6E60     		str	r6, [r5, #4]
 182              		.loc 1 64 0
 183 009a C66D     		ldr	r6, [r0, #92]
 184 009c AE60     		str	r6, [r5, #8]
 185              		.loc 1 65 0
 186 009e 066E     		ldr	r6, [r0, #96]
 187 00a0 EE60     		str	r6, [r5, #12]
 188              		.loc 1 66 0
 189 00a2 466E     		ldr	r6, [r0, #100]
 190 00a4 6E61     		str	r6, [r5, #20]
 191              		.loc 1 67 0
 192 00a6 866E     		ldr	r6, [r0, #104]
 193 00a8 2E62     		str	r6, [r5, #32]
 194              		.loc 1 68 0
 195 00aa C66E     		ldr	r6, [r0, #108]
 196 00ac 6E62     		str	r6, [r5, #36]
 197              		.loc 1 69 0
 198 00ae 466D     		ldr	r6, [r0, #84]
 199 00b0 2E60     		str	r6, [r5]
 200              	.LVL5:
 201              	.LBE35:
 202              	.LBE45:
 203              	.LBB46:
 204              	.LBB38:
 205              		.loc 1 63 0
 206 00b2 456F     		ldr	r5, [r0, #116]
 207 00b4 6560     		str	r5, [r4, #4]
 208              		.loc 1 64 0
 209 00b6 856F     		ldr	r5, [r0, #120]
 210 00b8 A560     		str	r5, [r4, #8]
 211              		.loc 1 65 0
 212 00ba C56F     		ldr	r5, [r0, #124]
 213 00bc E560     		str	r5, [r4, #12]
 214              		.loc 1 66 0
 215 00be D0F88050 		ldr	r5, [r0, #128]
 216 00c2 6561     		str	r5, [r4, #20]
 217              		.loc 1 67 0
 218 00c4 D0F88450 		ldr	r5, [r0, #132]
 219 00c8 2562     		str	r5, [r4, #32]
 220              		.loc 1 68 0
 221 00ca D0F88850 		ldr	r5, [r0, #136]
 222 00ce 6562     		str	r5, [r4, #36]
 223              		.loc 1 69 0
 224 00d0 056F     		ldr	r5, [r0, #112]
 225 00d2 2560     		str	r5, [r4]
 226              	.LVL6:
 227              	.LBE38:
 228              	.LBE46:
ARM GAS  /var/folders/m4/4md61f0s1_g0rzfghffqnxvr0000gn/T//cck7CVA7.s 			page 5


 229              	.LBB47:
 230              	.LBB20:
 231              		.loc 1 63 0
 232 00d4 D0F89040 		ldr	r4, [r0, #144]
 233 00d8 4C60     		str	r4, [r1, #4]
 234              		.loc 1 64 0
 235 00da D0F89440 		ldr	r4, [r0, #148]
 236 00de 8C60     		str	r4, [r1, #8]
 237              		.loc 1 65 0
 238 00e0 D0F89840 		ldr	r4, [r0, #152]
 239 00e4 CC60     		str	r4, [r1, #12]
 240              		.loc 1 66 0
 241 00e6 D0F89C40 		ldr	r4, [r0, #156]
 242 00ea 4C61     		str	r4, [r1, #20]
 243              		.loc 1 67 0
 244 00ec D0F8A040 		ldr	r4, [r0, #160]
 245 00f0 0C62     		str	r4, [r1, #32]
 246              		.loc 1 68 0
 247 00f2 D0F8A440 		ldr	r4, [r0, #164]
 248 00f6 4C62     		str	r4, [r1, #36]
 249              		.loc 1 69 0
 250 00f8 D0F88C40 		ldr	r4, [r0, #140]
 251 00fc 0C60     		str	r4, [r1]
 252              	.LVL7:
 253              	.LBE20:
 254              	.LBE47:
 255              	.LBB48:
 256              	.LBB23:
 257              		.loc 1 63 0
 258 00fe D0F8AC10 		ldr	r1, [r0, #172]
 259 0102 5160     		str	r1, [r2, #4]
 260              		.loc 1 64 0
 261 0104 D0F8B010 		ldr	r1, [r0, #176]
 262 0108 9160     		str	r1, [r2, #8]
 263              		.loc 1 65 0
 264 010a D0F8B410 		ldr	r1, [r0, #180]
 265 010e D160     		str	r1, [r2, #12]
 266              		.loc 1 66 0
 267 0110 D0F8B810 		ldr	r1, [r0, #184]
 268 0114 5161     		str	r1, [r2, #20]
 269              		.loc 1 67 0
 270 0116 D0F8BC10 		ldr	r1, [r0, #188]
 271 011a 1162     		str	r1, [r2, #32]
 272              		.loc 1 68 0
 273 011c D0F8C010 		ldr	r1, [r0, #192]
 274 0120 5162     		str	r1, [r2, #36]
 275              		.loc 1 69 0
 276 0122 D0F8A810 		ldr	r1, [r0, #168]
 277 0126 1160     		str	r1, [r2]
 278              	.LVL8:
 279              	.LBE23:
 280              	.LBE48:
 281              	.LBB49:
 282              	.LBB41:
 283              		.loc 1 63 0
 284 0128 D0F8C820 		ldr	r2, [r0, #200]
 285 012c C9F80420 		str	r2, [r9, #4]
ARM GAS  /var/folders/m4/4md61f0s1_g0rzfghffqnxvr0000gn/T//cck7CVA7.s 			page 6


 286              		.loc 1 64 0
 287 0130 D0F8CC20 		ldr	r2, [r0, #204]
 288 0134 C9F80820 		str	r2, [r9, #8]
 289              		.loc 1 65 0
 290 0138 D0F8D020 		ldr	r2, [r0, #208]
 291 013c C9F80C20 		str	r2, [r9, #12]
 292              		.loc 1 66 0
 293 0140 D0F8D420 		ldr	r2, [r0, #212]
 294 0144 C9F81420 		str	r2, [r9, #20]
 295              		.loc 1 67 0
 296 0148 D0F8D820 		ldr	r2, [r0, #216]
 297 014c C9F82020 		str	r2, [r9, #32]
 298              		.loc 1 68 0
 299 0150 D0F8DC20 		ldr	r2, [r0, #220]
 300 0154 C9F82420 		str	r2, [r9, #36]
 301              		.loc 1 69 0
 302 0158 D0F8C420 		ldr	r2, [r0, #196]
 303 015c C9F80020 		str	r2, [r9]
 304 0160 BDE8F083 		pop	{r4, r5, r6, r7, r8, r9, pc}
 305              	.L4:
 306              		.align	2
 307              	.L3:
 308 0164 00140240 		.word	1073878016
 309 0168 00180240 		.word	1073879040
 310 016c 00040240 		.word	1073873920
 311 0170 00080240 		.word	1073874944
 312 0174 000C0240 		.word	1073875968
 313 0178 00100240 		.word	1073876992
 314 017c 00380240 		.word	1073887232
 315 0180 00000240 		.word	1073872896
 316 0184 001C0240 		.word	1073880064
 317              	.LBE41:
 318              	.LBE49:
 319              		.cfi_endproc
 320              	.LFE269:
 321              		.size	_pal_lld_init, .-_pal_lld_init
 322              		.section	.text._pal_lld_setgroupmode,"ax",%progbits
 323              		.align	2
 324              		.p2align 4,,15
 325              		.global	_pal_lld_setgroupmode
 326              		.thumb
 327              		.thumb_func
 328              		.type	_pal_lld_setgroupmode, %function
 329              	_pal_lld_setgroupmode:
 330              	.LFB270:
 331              		.loc 1 161 0
 332              		.cfi_startproc
 333              		@ args = 0, pretend = 0, frame = 0
 334              		@ frame_needed = 0, uses_anonymous_args = 0
 335              	.LVL9:
 336 0000 2DE9F04F 		push	{r4, r5, r6, r7, r8, r9, r10, fp, lr}
 337              		.cfi_def_cfa_offset 36
 338              		.cfi_offset 4, -36
 339              		.cfi_offset 5, -32
 340              		.cfi_offset 6, -28
 341              		.cfi_offset 7, -24
 342              		.cfi_offset 8, -20
ARM GAS  /var/folders/m4/4md61f0s1_g0rzfghffqnxvr0000gn/T//cck7CVA7.s 			page 7


 343              		.cfi_offset 9, -16
 344              		.cfi_offset 10, -12
 345              		.cfi_offset 11, -8
 346              		.cfi_offset 14, -4
 347              		.loc 1 166 0
 348 0004 C2F3411C 		ubfx	ip, r2, #5, #2
 349              		.loc 1 163 0
 350 0008 02F0030E 		and	lr, r2, #3
 351              	.LVL10:
 352              		.loc 1 164 0
 353 000c C2F38009 		ubfx	r9, r2, #2, #1
 354              	.LVL11:
 355              		.loc 1 165 0
 356 0010 C2F3C108 		ubfx	r8, r2, #3, #2
 357              	.LVL12:
 358              		.loc 1 168 0
 359 0014 0027     		movs	r7, #0
 360              		.loc 1 167 0
 361 0016 C2F3C312 		ubfx	r2, r2, #7, #4
 362              	.LVL13:
 363              	.LBB50:
 364              		.loc 1 176 0
 365 001a 4FF00F0B 		mov	fp, #15
 366              		.loc 1 174 0
 367 001e 4FF0010A 		mov	r10, #1
 368 0022 0FE0     		b	.L12
 369              	.LVL14:
 370              	.L19:
 371              		.loc 1 194 0
 372 0024 046A     		ldr	r4, [r0, #32]
 373 0026 24EA0303 		bic	r3, r4, r3
 374              	.LVL15:
 375 002a 1D43     		orrs	r5, r5, r3
 376              	.LVL16:
 377 002c 0562     		str	r5, [r0, #32]
 378              	.LVL17:
 379              	.L6:
 380              	.LBE50:
 381              		.loc 1 200 0
 382 002e 4908     		lsrs	r1, r1, #1
 383              	.LVL18:
 384 0030 39D0     		beq	.L5
 385              	.LVL19:
 386              	.L20:
 387              		.loc 1 202 0
 388 0032 4FEA4909 		lsl	r9, r9, #1
 389              	.LVL20:
 390              		.loc 1 203 0
 391 0036 4FEA8808 		lsl	r8, r8, #2
 392              	.LVL21:
 393              		.loc 1 204 0
 394 003a 4FEA8C0C 		lsl	ip, ip, #2
 395              	.LVL22:
 396              		.loc 1 205 0
 397 003e 4FEA8E0E 		lsl	lr, lr, #2
 398              	.LVL23:
 399              		.loc 1 206 0
ARM GAS  /var/folders/m4/4md61f0s1_g0rzfghffqnxvr0000gn/T//cck7CVA7.s 			page 8


 400 0042 0137     		adds	r7, r7, #1
 401              	.LVL24:
 402              	.L12:
 403              		.loc 1 170 0
 404 0044 CB07     		lsls	r3, r1, #31
 405 0046 F2D5     		bpl	.L6
 406              	.LBB51:
 407              		.loc 1 177 0
 408 0048 4368     		ldr	r3, [r0, #4]
 409              		.loc 1 174 0
 410 004a 0AFA07F4 		lsl	r4, r10, r7
 411              		.loc 1 177 0
 412 004e 23EA0403 		bic	r3, r3, r4
 413 0052 43EA0903 		orr	r3, r3, r9
 414 0056 4360     		str	r3, [r0, #4]
 415              		.loc 1 175 0
 416 0058 0325     		movs	r5, #3
 417 005a 7C00     		lsls	r4, r7, #1
 418              		.loc 1 178 0
 419 005c 8368     		ldr	r3, [r0, #8]
 420              		.loc 1 175 0
 421 005e 05FA04F4 		lsl	r4, r5, r4
 422              		.loc 1 178 0
 423 0062 E443     		mvns	r4, r4
 424 0064 2340     		ands	r3, r3, r4
 425 0066 43EA0803 		orr	r3, r3, r8
 426 006a 8360     		str	r3, [r0, #8]
 427              		.loc 1 179 0
 428 006c C568     		ldr	r5, [r0, #12]
 429              		.loc 1 173 0
 430 006e 07F00703 		and	r3, r7, #7
 431              		.loc 1 179 0
 432 0072 2540     		ands	r5, r5, r4
 433 0074 45EA0C05 		orr	r5, r5, ip
 434              		.loc 1 173 0
 435 0078 9B00     		lsls	r3, r3, #2
 436              		.loc 1 180 0
 437 007a BEF1020F 		cmp	lr, #2
 438              		.loc 1 179 0
 439 007e C560     		str	r5, [r0, #12]
 440              		.loc 1 173 0
 441 0080 02FA03F5 		lsl	r5, r2, r3
 442              	.LVL25:
 443              		.loc 1 176 0
 444 0084 0BFA03F3 		lsl	r3, fp, r3
 445              	.LVL26:
 446              		.loc 1 180 0
 447 0088 0FD0     		beq	.L18
 448              		.loc 1 192 0
 449 008a 0668     		ldr	r6, [r0]
 450 008c 3440     		ands	r4, r4, r6
 451              	.LVL27:
 452 008e 44EA0E04 		orr	r4, r4, lr
 453              		.loc 1 193 0
 454 0092 072F     		cmp	r7, #7
 455              		.loc 1 192 0
 456 0094 0460     		str	r4, [r0]
ARM GAS  /var/folders/m4/4md61f0s1_g0rzfghffqnxvr0000gn/T//cck7CVA7.s 			page 9


 457              		.loc 1 193 0
 458 0096 C5D9     		bls	.L19
 459              		.loc 1 196 0
 460 0098 446A     		ldr	r4, [r0, #36]
 461 009a 24EA0303 		bic	r3, r4, r3
 462              	.LVL28:
 463 009e 1D43     		orrs	r5, r5, r3
 464              	.LVL29:
 465              	.LBE51:
 466              		.loc 1 200 0
 467 00a0 4908     		lsrs	r1, r1, #1
 468              	.LVL30:
 469              	.LBB52:
 470              		.loc 1 196 0
 471 00a2 4562     		str	r5, [r0, #36]
 472              	.LBE52:
 473              		.loc 1 200 0
 474 00a4 C5D1     		bne	.L20
 475              	.LVL31:
 476              	.L5:
 477 00a6 BDE8F08F 		pop	{r4, r5, r6, r7, r8, r9, r10, fp, pc}
 478              	.LVL32:
 479              	.L18:
 480              	.LBB53:
 481              		.loc 1 183 0
 482 00aa 072F     		cmp	r7, #7
 483 00ac 0AD8     		bhi	.L8
 484              		.loc 1 184 0
 485 00ae 066A     		ldr	r6, [r0, #32]
 486 00b0 26EA0303 		bic	r3, r6, r3
 487              	.LVL33:
 488 00b4 1D43     		orrs	r5, r5, r3
 489              	.LVL34:
 490 00b6 0562     		str	r5, [r0, #32]
 491              	.L9:
 492              		.loc 1 187 0
 493 00b8 0368     		ldr	r3, [r0]
 494 00ba 1C40     		ands	r4, r4, r3
 495              	.LVL35:
 496 00bc 44F00204 		orr	r4, r4, #2
 497 00c0 0460     		str	r4, [r0]
 498 00c2 B4E7     		b	.L6
 499              	.LVL36:
 500              	.L8:
 501              		.loc 1 186 0
 502 00c4 466A     		ldr	r6, [r0, #36]
 503 00c6 26EA0303 		bic	r3, r6, r3
 504              	.LVL37:
 505 00ca 1D43     		orrs	r5, r5, r3
 506              	.LVL38:
 507 00cc 4562     		str	r5, [r0, #36]
 508 00ce F3E7     		b	.L9
 509              	.LBE53:
 510              		.cfi_endproc
 511              	.LFE270:
 512              		.size	_pal_lld_setgroupmode, .-_pal_lld_setgroupmode
 513              		.text
ARM GAS  /var/folders/m4/4md61f0s1_g0rzfghffqnxvr0000gn/T//cck7CVA7.s 			page 10


 514              	.Letext0:
 515              		.file 2 "/usr/local/Cellar/gcc-arm-none-eabi-49/20150609/arm-none-eabi/include/machine/_default_ty
 516              		.file 3 "/usr/local/Cellar/gcc-arm-none-eabi-49/20150609/arm-none-eabi/include/sys/_stdint.h"
 517              		.file 4 "ChibiOS_16.1.4/os/rt/ports/ARMCMx/compilers/GCC/chtypes.h"
 518              		.file 5 "ChibiOS_16.1.4/os/rt/include/chsystypes.h"
 519              		.file 6 "ChibiOS_16.1.4/os/rt/include/chschd.h"
 520              		.file 7 "ChibiOS_16.1.4/os/ext/CMSIS/ST/STM32F4xx/stm32f446xx.h"
 521              		.file 8 "ChibiOS_16.1.4/os/rt/ports/ARMCMx/chcore.h"
 522              		.file 9 "ChibiOS_16.1.4/os/rt/ports/ARMCMx/chcore_v7m.h"
 523              		.file 10 "ChibiOS_16.1.4/os/rt/include/chtm.h"
 524              		.file 11 "ChibiOS_16.1.4/os/rt/include/chsem.h"
 525              		.file 12 "ChibiOS_16.1.4/os/rt/include/chmtx.h"
 526              		.file 13 "ChibiOS_16.1.4/os/hal/ports/STM32/LLD/GPIOv2/pal_lld.h"
 527              		.file 14 "ChibiOS_16.1.4/os/ext/CMSIS/include/core_cm4.h"
 528              		.section	.debug_info,"",%progbits
 529              	.Ldebug_info0:
 530 0000 6E0D0000 		.4byte	0xd6e
 531 0004 0400     		.2byte	0x4
 532 0006 00000000 		.4byte	.Ldebug_abbrev0
 533 000a 04       		.byte	0x4
 534 000b 01       		.uleb128 0x1
 535 000c F4050000 		.4byte	.LASF178
 536 0010 01       		.byte	0x1
 537 0011 7E040000 		.4byte	.LASF179
 538 0015 00000000 		.4byte	.LASF180
 539 0019 E8000000 		.4byte	.Ldebug_ranges0+0xe8
 540 001d 00000000 		.4byte	0
 541 0021 00000000 		.4byte	.Ldebug_line0
 542 0025 02       		.uleb128 0x2
 543 0026 04       		.byte	0x4
 544 0027 05       		.byte	0x5
 545 0028 696E7400 		.ascii	"int\000"
 546 002c 03       		.uleb128 0x3
 547 002d 04       		.byte	0x4
 548 002e 07       		.byte	0x7
 549 002f 35020000 		.4byte	.LASF0
 550 0033 03       		.uleb128 0x3
 551 0034 01       		.byte	0x1
 552 0035 06       		.byte	0x6
 553 0036 34010000 		.4byte	.LASF1
 554 003a 04       		.uleb128 0x4
 555 003b 62000000 		.4byte	.LASF4
 556 003f 02       		.byte	0x2
 557 0040 1D       		.byte	0x1d
 558 0041 45000000 		.4byte	0x45
 559 0045 03       		.uleb128 0x3
 560 0046 01       		.byte	0x1
 561 0047 08       		.byte	0x8
 562 0048 70040000 		.4byte	.LASF2
 563 004c 03       		.uleb128 0x3
 564 004d 02       		.byte	0x2
 565 004e 05       		.byte	0x5
 566 004f CA040000 		.4byte	.LASF3
 567 0053 04       		.uleb128 0x4
 568 0054 9E050000 		.4byte	.LASF5
 569 0058 02       		.byte	0x2
 570 0059 2B       		.byte	0x2b
ARM GAS  /var/folders/m4/4md61f0s1_g0rzfghffqnxvr0000gn/T//cck7CVA7.s 			page 11


 571 005a 5E000000 		.4byte	0x5e
 572 005e 03       		.uleb128 0x3
 573 005f 02       		.byte	0x2
 574 0060 07       		.byte	0x7
 575 0061 94020000 		.4byte	.LASF6
 576 0065 04       		.uleb128 0x4
 577 0066 0A030000 		.4byte	.LASF7
 578 006a 02       		.byte	0x2
 579 006b 3F       		.byte	0x3f
 580 006c 70000000 		.4byte	0x70
 581 0070 03       		.uleb128 0x3
 582 0071 04       		.byte	0x4
 583 0072 05       		.byte	0x5
 584 0073 8D010000 		.4byte	.LASF8
 585 0077 04       		.uleb128 0x4
 586 0078 E0050000 		.4byte	.LASF9
 587 007c 02       		.byte	0x2
 588 007d 41       		.byte	0x41
 589 007e 82000000 		.4byte	0x82
 590 0082 03       		.uleb128 0x3
 591 0083 04       		.byte	0x4
 592 0084 07       		.byte	0x7
 593 0085 76050000 		.4byte	.LASF10
 594 0089 03       		.uleb128 0x3
 595 008a 08       		.byte	0x8
 596 008b 05       		.byte	0x5
 597 008c 26010000 		.4byte	.LASF11
 598 0090 04       		.uleb128 0x4
 599 0091 DF030000 		.4byte	.LASF12
 600 0095 02       		.byte	0x2
 601 0096 5B       		.byte	0x5b
 602 0097 9B000000 		.4byte	0x9b
 603 009b 03       		.uleb128 0x3
 604 009c 08       		.byte	0x8
 605 009d 07       		.byte	0x7
 606 009e A8000000 		.4byte	.LASF13
 607 00a2 04       		.uleb128 0x4
 608 00a3 C1070000 		.4byte	.LASF14
 609 00a7 03       		.byte	0x3
 610 00a8 14       		.byte	0x14
 611 00a9 3A000000 		.4byte	0x3a
 612 00ad 04       		.uleb128 0x4
 613 00ae 4A020000 		.4byte	.LASF15
 614 00b2 03       		.byte	0x3
 615 00b3 1A       		.byte	0x1a
 616 00b4 53000000 		.4byte	0x53
 617 00b8 04       		.uleb128 0x4
 618 00b9 68040000 		.4byte	.LASF16
 619 00bd 03       		.byte	0x3
 620 00be 1F       		.byte	0x1f
 621 00bf 65000000 		.4byte	0x65
 622 00c3 04       		.uleb128 0x4
 623 00c4 4E050000 		.4byte	.LASF17
 624 00c8 03       		.byte	0x3
 625 00c9 20       		.byte	0x20
 626 00ca 77000000 		.4byte	0x77
 627 00ce 04       		.uleb128 0x4
ARM GAS  /var/folders/m4/4md61f0s1_g0rzfghffqnxvr0000gn/T//cck7CVA7.s 			page 12


 628 00cf 59000000 		.4byte	.LASF18
 629 00d3 03       		.byte	0x3
 630 00d4 26       		.byte	0x26
 631 00d5 90000000 		.4byte	0x90
 632 00d9 04       		.uleb128 0x4
 633 00da 6A070000 		.4byte	.LASF19
 634 00de 04       		.byte	0x4
 635 00df 39       		.byte	0x39
 636 00e0 C3000000 		.4byte	0xc3
 637 00e4 04       		.uleb128 0x4
 638 00e5 DE020000 		.4byte	.LASF20
 639 00e9 04       		.byte	0x4
 640 00ea 3C       		.byte	0x3c
 641 00eb A2000000 		.4byte	0xa2
 642 00ef 04       		.uleb128 0x4
 643 00f0 B0010000 		.4byte	.LASF21
 644 00f4 04       		.byte	0x4
 645 00f5 3D       		.byte	0x3d
 646 00f6 A2000000 		.4byte	0xa2
 647 00fa 04       		.uleb128 0x4
 648 00fb FF030000 		.4byte	.LASF22
 649 00ff 04       		.byte	0x4
 650 0100 3E       		.byte	0x3e
 651 0101 A2000000 		.4byte	0xa2
 652 0105 04       		.uleb128 0x4
 653 0106 6D010000 		.4byte	.LASF23
 654 010a 04       		.byte	0x4
 655 010b 3F       		.byte	0x3f
 656 010c A2000000 		.4byte	0xa2
 657 0110 04       		.uleb128 0x4
 658 0111 4A040000 		.4byte	.LASF24
 659 0115 04       		.byte	0x4
 660 0116 40       		.byte	0x40
 661 0117 C3000000 		.4byte	0xc3
 662 011b 04       		.uleb128 0x4
 663 011c C3020000 		.4byte	.LASF25
 664 0120 04       		.byte	0x4
 665 0121 41       		.byte	0x41
 666 0122 B8000000 		.4byte	0xb8
 667 0126 04       		.uleb128 0x4
 668 0127 FE020000 		.4byte	.LASF26
 669 012b 04       		.byte	0x4
 670 012c 43       		.byte	0x43
 671 012d C3000000 		.4byte	0xc3
 672 0131 04       		.uleb128 0x4
 673 0132 2F020000 		.4byte	.LASF27
 674 0136 04       		.byte	0x4
 675 0137 45       		.byte	0x45
 676 0138 B8000000 		.4byte	0xb8
 677 013c 04       		.uleb128 0x4
 678 013d C2050000 		.4byte	.LASF28
 679 0141 05       		.byte	0x5
 680 0142 33       		.byte	0x33
 681 0143 C3000000 		.4byte	0xc3
 682 0147 04       		.uleb128 0x4
 683 0148 B2050000 		.4byte	.LASF29
 684 014c 05       		.byte	0x5
ARM GAS  /var/folders/m4/4md61f0s1_g0rzfghffqnxvr0000gn/T//cck7CVA7.s 			page 13


 685 014d 3F       		.byte	0x3f
 686 014e 52010000 		.4byte	0x152
 687 0152 05       		.uleb128 0x5
 688 0153 AE020000 		.4byte	.LASF51
 689 0157 48       		.byte	0x48
 690 0158 06       		.byte	0x6
 691 0159 C2       		.byte	0xc2
 692 015a 57020000 		.4byte	0x257
 693 015e 06       		.uleb128 0x6
 694 015f 88030000 		.4byte	.LASF30
 695 0163 06       		.byte	0x6
 696 0164 C3       		.byte	0xc3
 697 0165 62020000 		.4byte	0x262
 698 0169 00       		.byte	0
 699 016a 06       		.uleb128 0x6
 700 016b 39040000 		.4byte	.LASF31
 701 016f 06       		.byte	0x6
 702 0170 C5       		.byte	0xc5
 703 0171 62020000 		.4byte	0x262
 704 0175 04       		.byte	0x4
 705 0176 06       		.uleb128 0x6
 706 0177 17010000 		.4byte	.LASF32
 707 017b 06       		.byte	0x6
 708 017c C7       		.byte	0xc7
 709 017d 10010000 		.4byte	0x110
 710 0181 08       		.byte	0x8
 711 0182 06       		.uleb128 0x6
 712 0183 1A080000 		.4byte	.LASF33
 713 0187 06       		.byte	0x6
 714 0188 C8       		.byte	0xc8
 715 0189 76060000 		.4byte	0x676
 716 018d 0C       		.byte	0xc
 717 018e 06       		.uleb128 0x6
 718 018f C2010000 		.4byte	.LASF34
 719 0193 06       		.byte	0x6
 720 0194 CA       		.byte	0xca
 721 0195 62020000 		.4byte	0x262
 722 0199 10       		.byte	0x10
 723 019a 06       		.uleb128 0x6
 724 019b 97030000 		.4byte	.LASF35
 725 019f 06       		.byte	0x6
 726 01a0 CB       		.byte	0xcb
 727 01a1 62020000 		.4byte	0x262
 728 01a5 14       		.byte	0x14
 729 01a6 06       		.uleb128 0x6
 730 01a7 D6070000 		.4byte	.LASF36
 731 01ab 06       		.byte	0x6
 732 01ac D2       		.byte	0xd2
 733 01ad C4080000 		.4byte	0x8c4
 734 01b1 18       		.byte	0x18
 735 01b2 06       		.uleb128 0x6
 736 01b3 D4040000 		.4byte	.LASF37
 737 01b7 06       		.byte	0x6
 738 01b8 DD       		.byte	0xdd
 739 01b9 EF000000 		.4byte	0xef
 740 01bd 1C       		.byte	0x1c
 741 01be 06       		.uleb128 0x6
ARM GAS  /var/folders/m4/4md61f0s1_g0rzfghffqnxvr0000gn/T//cck7CVA7.s 			page 14


 742 01bf 05050000 		.4byte	.LASF38
 743 01c3 06       		.byte	0x6
 744 01c4 E1       		.byte	0xe1
 745 01c5 E4000000 		.4byte	0xe4
 746 01c9 1D       		.byte	0x1d
 747 01ca 06       		.uleb128 0x6
 748 01cb 98070000 		.4byte	.LASF39
 749 01cf 06       		.byte	0x6
 750 01d0 E6       		.byte	0xe6
 751 01d1 FA000000 		.4byte	0xfa
 752 01d5 1E       		.byte	0x1e
 753 01d6 06       		.uleb128 0x6
 754 01d7 DC040000 		.4byte	.LASF40
 755 01db 06       		.byte	0x6
 756 01dc EC       		.byte	0xec
 757 01dd 05010000 		.4byte	0x105
 758 01e1 1F       		.byte	0x1f
 759 01e2 06       		.uleb128 0x6
 760 01e3 53020000 		.4byte	.LASF41
 761 01e7 06       		.byte	0x6
 762 01e8 F3       		.byte	0xf3
 763 01e9 D6080000 		.4byte	0x8d6
 764 01ed 20       		.byte	0x20
 765 01ee 07       		.uleb128 0x7
 766 01ef 705F7500 		.ascii	"p_u\000"
 767 01f3 06       		.byte	0x6
 768 01f4 3101     		.2byte	0x131
 769 01f6 FF070000 		.4byte	0x7ff
 770 01fa 24       		.byte	0x24
 771 01fb 08       		.uleb128 0x8
 772 01fc 45030000 		.4byte	.LASF42
 773 0200 06       		.byte	0x6
 774 0201 3601     		.2byte	0x136
 775 0203 68020000 		.4byte	0x268
 776 0207 28       		.byte	0x28
 777 0208 08       		.uleb128 0x8
 778 0209 75020000 		.4byte	.LASF43
 779 020d 06       		.byte	0x6
 780 020e 3C01     		.2byte	0x13c
 781 0210 8C020000 		.4byte	0x28c
 782 0214 2C       		.byte	0x2c
 783 0215 08       		.uleb128 0x8
 784 0216 F9070000 		.4byte	.LASF44
 785 021a 06       		.byte	0x6
 786 021b 4001     		.2byte	0x140
 787 021d 1B010000 		.4byte	0x11b
 788 0221 34       		.byte	0x34
 789 0222 08       		.uleb128 0x8
 790 0223 39050000 		.4byte	.LASF45
 791 0227 06       		.byte	0x6
 792 0228 4601     		.2byte	0x146
 793 022a 26010000 		.4byte	0x126
 794 022e 38       		.byte	0x38
 795 022f 08       		.uleb128 0x8
 796 0230 C0040000 		.4byte	.LASF46
 797 0234 06       		.byte	0x6
 798 0235 4D01     		.2byte	0x14d
ARM GAS  /var/folders/m4/4md61f0s1_g0rzfghffqnxvr0000gn/T//cck7CVA7.s 			page 15


 799 0237 BE080000 		.4byte	0x8be
 800 023b 3C       		.byte	0x3c
 801 023c 08       		.uleb128 0x8
 802 023d CC050000 		.4byte	.LASF47
 803 0241 06       		.byte	0x6
 804 0242 5101     		.2byte	0x151
 805 0244 10010000 		.4byte	0x110
 806 0248 40       		.byte	0x40
 807 0249 08       		.uleb128 0x8
 808 024a 57010000 		.4byte	.LASF48
 809 024e 06       		.byte	0x6
 810 024f 5801     		.2byte	0x158
 811 0251 3F030000 		.4byte	0x33f
 812 0255 44       		.byte	0x44
 813 0256 00       		.byte	0
 814 0257 04       		.uleb128 0x4
 815 0258 58030000 		.4byte	.LASF49
 816 025c 05       		.byte	0x5
 817 025d 44       		.byte	0x44
 818 025e 62020000 		.4byte	0x262
 819 0262 09       		.uleb128 0x9
 820 0263 04       		.byte	0x4
 821 0264 47010000 		.4byte	0x147
 822 0268 04       		.uleb128 0x4
 823 0269 26030000 		.4byte	.LASF50
 824 026d 05       		.byte	0x5
 825 026e 49       		.byte	0x49
 826 026f 73020000 		.4byte	0x273
 827 0273 05       		.uleb128 0x5
 828 0274 66050000 		.4byte	.LASF52
 829 0278 04       		.byte	0x4
 830 0279 06       		.byte	0x6
 831 027a B0       		.byte	0xb0
 832 027b 8C020000 		.4byte	0x28c
 833 027f 06       		.uleb128 0x6
 834 0280 88030000 		.4byte	.LASF30
 835 0284 06       		.byte	0x6
 836 0285 B1       		.byte	0xb1
 837 0286 62020000 		.4byte	0x262
 838 028a 00       		.byte	0
 839 028b 00       		.byte	0
 840 028c 04       		.uleb128 0x4
 841 028d 7F070000 		.4byte	.LASF53
 842 0291 05       		.byte	0x5
 843 0292 50       		.byte	0x50
 844 0293 97020000 		.4byte	0x297
 845 0297 05       		.uleb128 0x5
 846 0298 FC000000 		.4byte	.LASF54
 847 029c 08       		.byte	0x8
 848 029d 06       		.byte	0x6
 849 029e B7       		.byte	0xb7
 850 029f BC020000 		.4byte	0x2bc
 851 02a3 06       		.uleb128 0x6
 852 02a4 88030000 		.4byte	.LASF30
 853 02a8 06       		.byte	0x6
 854 02a9 B8       		.byte	0xb8
 855 02aa 62020000 		.4byte	0x262
ARM GAS  /var/folders/m4/4md61f0s1_g0rzfghffqnxvr0000gn/T//cck7CVA7.s 			page 16


 856 02ae 00       		.byte	0
 857 02af 06       		.uleb128 0x6
 858 02b0 39040000 		.4byte	.LASF31
 859 02b4 06       		.byte	0x6
 860 02b5 B9       		.byte	0xb9
 861 02b6 62020000 		.4byte	0x262
 862 02ba 04       		.byte	0x4
 863 02bb 00       		.byte	0
 864 02bc 04       		.uleb128 0x4
 865 02bd 3F000000 		.4byte	.LASF55
 866 02c1 05       		.byte	0x5
 867 02c2 57       		.byte	0x57
 868 02c3 C7020000 		.4byte	0x2c7
 869 02c7 0A       		.uleb128 0xa
 870 02c8 F0020000 		.4byte	.LASF56
 871 02cc 1C       		.byte	0x1c
 872 02cd 06       		.byte	0x6
 873 02ce 9001     		.2byte	0x190
 874 02d0 23030000 		.4byte	0x323
 875 02d4 08       		.uleb128 0x8
 876 02d5 5E050000 		.4byte	.LASF57
 877 02d9 06       		.byte	0x6
 878 02da 9101     		.2byte	0x191
 879 02dc 8C020000 		.4byte	0x28c
 880 02e0 00       		.byte	0
 881 02e1 08       		.uleb128 0x8
 882 02e2 F0040000 		.4byte	.LASF58
 883 02e6 06       		.byte	0x6
 884 02e7 9201     		.2byte	0x192
 885 02e9 10010000 		.4byte	0x110
 886 02ed 08       		.byte	0x8
 887 02ee 08       		.uleb128 0x8
 888 02ef 9F030000 		.4byte	.LASF59
 889 02f3 06       		.byte	0x6
 890 02f4 9401     		.2byte	0x194
 891 02f6 76060000 		.4byte	0x676
 892 02fa 0C       		.byte	0xc
 893 02fb 08       		.uleb128 0x8
 894 02fc DA010000 		.4byte	.LASF60
 895 0300 06       		.byte	0x6
 896 0301 9701     		.2byte	0x197
 897 0303 62020000 		.4byte	0x262
 898 0307 10       		.byte	0x10
 899 0308 08       		.uleb128 0x8
 900 0309 4C070000 		.4byte	.LASF61
 901 030d 06       		.byte	0x6
 902 030e 9801     		.2byte	0x198
 903 0310 62020000 		.4byte	0x262
 904 0314 14       		.byte	0x14
 905 0315 08       		.uleb128 0x8
 906 0316 CC030000 		.4byte	.LASF62
 907 031a 06       		.byte	0x6
 908 031b 9B01     		.2byte	0x19b
 909 031d 62020000 		.4byte	0x262
 910 0321 18       		.byte	0x18
 911 0322 00       		.byte	0
 912 0323 04       		.uleb128 0x4
ARM GAS  /var/folders/m4/4md61f0s1_g0rzfghffqnxvr0000gn/T//cck7CVA7.s 			page 17


 913 0324 D7050000 		.4byte	.LASF63
 914 0328 05       		.byte	0x5
 915 0329 5C       		.byte	0x5c
 916 032a 2E030000 		.4byte	0x32e
 917 032e 09       		.uleb128 0x9
 918 032f 04       		.byte	0x4
 919 0330 34030000 		.4byte	0x334
 920 0334 0B       		.uleb128 0xb
 921 0335 3F030000 		.4byte	0x33f
 922 0339 0C       		.uleb128 0xc
 923 033a 3F030000 		.4byte	0x33f
 924 033e 00       		.byte	0
 925 033f 0D       		.uleb128 0xd
 926 0340 04       		.byte	0x4
 927 0341 04       		.uleb128 0x4
 928 0342 35030000 		.4byte	.LASF64
 929 0346 05       		.byte	0x5
 930 0347 61       		.byte	0x61
 931 0348 4C030000 		.4byte	0x34c
 932 034c 0A       		.uleb128 0xa
 933 034d 1B050000 		.4byte	.LASF65
 934 0351 14       		.byte	0x14
 935 0352 06       		.byte	0x6
 936 0353 6B01     		.2byte	0x16b
 937 0355 9B030000 		.4byte	0x39b
 938 0359 08       		.uleb128 0x8
 939 035a 42020000 		.4byte	.LASF66
 940 035e 06       		.byte	0x6
 941 035f 6C01     		.2byte	0x16c
 942 0361 DB080000 		.4byte	0x8db
 943 0365 00       		.byte	0
 944 0366 08       		.uleb128 0x8
 945 0367 F0010000 		.4byte	.LASF67
 946 036b 06       		.byte	0x6
 947 036c 6D01     		.2byte	0x16d
 948 036e DB080000 		.4byte	0x8db
 949 0372 04       		.byte	0x4
 950 0373 08       		.uleb128 0x8
 951 0374 6C020000 		.4byte	.LASF68
 952 0378 06       		.byte	0x6
 953 0379 6E01     		.2byte	0x16e
 954 037b 3C010000 		.4byte	0x13c
 955 037f 08       		.byte	0x8
 956 0380 08       		.uleb128 0x8
 957 0381 20080000 		.4byte	.LASF69
 958 0385 06       		.byte	0x6
 959 0386 6F01     		.2byte	0x16f
 960 0388 23030000 		.4byte	0x323
 961 038c 0C       		.byte	0xc
 962 038d 08       		.uleb128 0x8
 963 038e 72070000 		.4byte	.LASF70
 964 0392 06       		.byte	0x6
 965 0393 7101     		.2byte	0x171
 966 0395 3F030000 		.4byte	0x33f
 967 0399 10       		.byte	0x10
 968 039a 00       		.byte	0
 969 039b 04       		.uleb128 0x4
ARM GAS  /var/folders/m4/4md61f0s1_g0rzfghffqnxvr0000gn/T//cck7CVA7.s 			page 18


 970 039c D9000000 		.4byte	.LASF71
 971 03a0 05       		.byte	0x5
 972 03a1 66       		.byte	0x66
 973 03a2 A6030000 		.4byte	0x3a6
 974 03a6 0A       		.uleb128 0xa
 975 03a7 6B030000 		.4byte	.LASF72
 976 03ab 10       		.byte	0x10
 977 03ac 06       		.byte	0x6
 978 03ad 7B01     		.2byte	0x17b
 979 03af E8030000 		.4byte	0x3e8
 980 03b3 08       		.uleb128 0x8
 981 03b4 42020000 		.4byte	.LASF66
 982 03b8 06       		.byte	0x6
 983 03b9 7C01     		.2byte	0x17c
 984 03bb DB080000 		.4byte	0x8db
 985 03bf 00       		.byte	0
 986 03c0 08       		.uleb128 0x8
 987 03c1 F0010000 		.4byte	.LASF67
 988 03c5 06       		.byte	0x6
 989 03c6 7E01     		.2byte	0x17e
 990 03c8 DB080000 		.4byte	0x8db
 991 03cc 04       		.byte	0x4
 992 03cd 08       		.uleb128 0x8
 993 03ce 6C020000 		.4byte	.LASF68
 994 03d2 06       		.byte	0x6
 995 03d3 8001     		.2byte	0x180
 996 03d5 3C010000 		.4byte	0x13c
 997 03d9 08       		.byte	0x8
 998 03da 08       		.uleb128 0x8
 999 03db 61020000 		.4byte	.LASF73
 1000 03df 06       		.byte	0x6
 1001 03e0 8201     		.2byte	0x182
 1002 03e2 D6080000 		.4byte	0x8d6
 1003 03e6 0C       		.byte	0xc
 1004 03e7 00       		.byte	0
 1005 03e8 04       		.uleb128 0x4
 1006 03e9 7F000000 		.4byte	.LASF74
 1007 03ed 05       		.byte	0x5
 1008 03ee 6B       		.byte	0x6b
 1009 03ef F3030000 		.4byte	0x3f3
 1010 03f3 0A       		.uleb128 0xa
 1011 03f4 52040000 		.4byte	.LASF75
 1012 03f8 04       		.byte	0x4
 1013 03f9 06       		.byte	0x6
 1014 03fa A201     		.2byte	0x1a2
 1015 03fc 0E040000 		.4byte	0x40e
 1016 0400 08       		.uleb128 0x8
 1017 0401 18070000 		.4byte	.LASF76
 1018 0405 06       		.byte	0x6
 1019 0406 AA01     		.2byte	0x1aa
 1020 0408 E1080000 		.4byte	0x8e1
 1021 040c 00       		.byte	0
 1022 040d 00       		.byte	0
 1023 040e 04       		.uleb128 0x4
 1024 040f D2020000 		.4byte	.LASF77
 1025 0413 05       		.byte	0x5
 1026 0414 70       		.byte	0x70
ARM GAS  /var/folders/m4/4md61f0s1_g0rzfghffqnxvr0000gn/T//cck7CVA7.s 			page 19


 1027 0415 19040000 		.4byte	0x419
 1028 0419 0E       		.uleb128 0xe
 1029 041a 83010000 		.4byte	.LASF78
 1030 041e 5802     		.2byte	0x258
 1031 0420 06       		.byte	0x6
 1032 0421 C201     		.2byte	0x1c2
 1033 0423 75040000 		.4byte	0x475
 1034 0427 08       		.uleb128 0x8
 1035 0428 BB070000 		.4byte	.LASF79
 1036 042c 06       		.byte	0x6
 1037 042d C601     		.2byte	0x1c6
 1038 042f BC020000 		.4byte	0x2bc
 1039 0433 00       		.byte	0
 1040 0434 08       		.uleb128 0x8
 1041 0435 F8010000 		.4byte	.LASF80
 1042 0439 06       		.byte	0x6
 1043 043a CA01     		.2byte	0x1ca
 1044 043c 9B030000 		.4byte	0x39b
 1045 0440 1C       		.byte	0x1c
 1046 0441 07       		.uleb128 0x7
 1047 0442 64626700 		.ascii	"dbg\000"
 1048 0446 06       		.byte	0x6
 1049 0447 CE01     		.2byte	0x1ce
 1050 0449 E8030000 		.4byte	0x3e8
 1051 044d 2C       		.byte	0x2c
 1052 044e 08       		.uleb128 0x8
 1053 044f CE000000 		.4byte	.LASF81
 1054 0453 06       		.byte	0x6
 1055 0454 D201     		.2byte	0x1d2
 1056 0456 47010000 		.4byte	0x147
 1057 045a 30       		.byte	0x30
 1058 045b 07       		.uleb128 0x7
 1059 045c 746D00   		.ascii	"tm\000"
 1060 045f 06       		.byte	0x6
 1061 0460 D701     		.2byte	0x1d7
 1062 0462 F4070000 		.4byte	0x7f4
 1063 0466 78       		.byte	0x78
 1064 0467 08       		.uleb128 0x8
 1065 0468 20020000 		.4byte	.LASF82
 1066 046c 06       		.byte	0x6
 1067 046d E301     		.2byte	0x1e3
 1068 046f E6080000 		.4byte	0x8e6
 1069 0473 80       		.byte	0x80
 1070 0474 00       		.byte	0
 1071 0475 03       		.uleb128 0x3
 1072 0476 04       		.byte	0x4
 1073 0477 07       		.byte	0x7
 1074 0478 4F030000 		.4byte	.LASF83
 1075 047c 0F       		.uleb128 0xf
 1076 047d C3000000 		.4byte	0xc3
 1077 0481 10       		.uleb128 0x10
 1078 0482 C3000000 		.4byte	0xc3
 1079 0486 91040000 		.4byte	0x491
 1080 048a 11       		.uleb128 0x11
 1081 048b 75040000 		.4byte	0x475
 1082 048f 01       		.byte	0x1
 1083 0490 00       		.byte	0
ARM GAS  /var/folders/m4/4md61f0s1_g0rzfghffqnxvr0000gn/T//cck7CVA7.s 			page 20


 1084 0491 12       		.uleb128 0x12
 1085 0492 98       		.byte	0x98
 1086 0493 07       		.byte	0x7
 1087 0494 3902     		.2byte	0x239
 1088 0496 54060000 		.4byte	0x654
 1089 049a 07       		.uleb128 0x7
 1090 049b 435200   		.ascii	"CR\000"
 1091 049e 07       		.byte	0x7
 1092 049f 3B02     		.2byte	0x23b
 1093 04a1 7C040000 		.4byte	0x47c
 1094 04a5 00       		.byte	0
 1095 04a6 08       		.uleb128 0x8
 1096 04a7 CA010000 		.4byte	.LASF84
 1097 04ab 07       		.byte	0x7
 1098 04ac 3C02     		.2byte	0x23c
 1099 04ae 7C040000 		.4byte	0x47c
 1100 04b2 04       		.byte	0x4
 1101 04b3 08       		.uleb128 0x8
 1102 04b4 EC070000 		.4byte	.LASF85
 1103 04b8 07       		.byte	0x7
 1104 04b9 3D02     		.2byte	0x23d
 1105 04bb 7C040000 		.4byte	0x47c
 1106 04bf 08       		.byte	0x8
 1107 04c0 07       		.uleb128 0x7
 1108 04c1 43495200 		.ascii	"CIR\000"
 1109 04c5 07       		.byte	0x7
 1110 04c6 3E02     		.2byte	0x23e
 1111 04c8 7C040000 		.4byte	0x47c
 1112 04cc 0C       		.byte	0xc
 1113 04cd 08       		.uleb128 0x8
 1114 04ce 45010000 		.4byte	.LASF86
 1115 04d2 07       		.byte	0x7
 1116 04d3 3F02     		.2byte	0x23f
 1117 04d5 7C040000 		.4byte	0x47c
 1118 04d9 10       		.byte	0x10
 1119 04da 08       		.uleb128 0x8
 1120 04db A9050000 		.4byte	.LASF87
 1121 04df 07       		.byte	0x7
 1122 04e0 4002     		.2byte	0x240
 1123 04e2 7C040000 		.4byte	0x47c
 1124 04e6 14       		.byte	0x14
 1125 04e7 08       		.uleb128 0x8
 1126 04e8 C9020000 		.4byte	.LASF88
 1127 04ec 07       		.byte	0x7
 1128 04ed 4102     		.2byte	0x241
 1129 04ef 7C040000 		.4byte	0x47c
 1130 04f3 18       		.byte	0x18
 1131 04f4 08       		.uleb128 0x8
 1132 04f5 07040000 		.4byte	.LASF89
 1133 04f9 07       		.byte	0x7
 1134 04fa 4202     		.2byte	0x242
 1135 04fc C3000000 		.4byte	0xc3
 1136 0500 1C       		.byte	0x1c
 1137 0501 08       		.uleb128 0x8
 1138 0502 D6030000 		.4byte	.LASF90
 1139 0506 07       		.byte	0x7
 1140 0507 4302     		.2byte	0x243
ARM GAS  /var/folders/m4/4md61f0s1_g0rzfghffqnxvr0000gn/T//cck7CVA7.s 			page 21


 1141 0509 7C040000 		.4byte	0x47c
 1142 050d 20       		.byte	0x20
 1143 050e 08       		.uleb128 0x8
 1144 050f 9D010000 		.4byte	.LASF91
 1145 0513 07       		.byte	0x7
 1146 0514 4402     		.2byte	0x244
 1147 0516 7C040000 		.4byte	0x47c
 1148 051a 24       		.byte	0x24
 1149 051b 08       		.uleb128 0x8
 1150 051c 11040000 		.4byte	.LASF92
 1151 0520 07       		.byte	0x7
 1152 0521 4502     		.2byte	0x245
 1153 0523 81040000 		.4byte	0x481
 1154 0527 28       		.byte	0x28
 1155 0528 08       		.uleb128 0x8
 1156 0529 DD070000 		.4byte	.LASF93
 1157 052d 07       		.byte	0x7
 1158 052e 4602     		.2byte	0x246
 1159 0530 7C040000 		.4byte	0x47c
 1160 0534 30       		.byte	0x30
 1161 0535 08       		.uleb128 0x8
 1162 0536 3C070000 		.4byte	.LASF94
 1163 053a 07       		.byte	0x7
 1164 053b 4702     		.2byte	0x247
 1165 053d 7C040000 		.4byte	0x47c
 1166 0541 34       		.byte	0x34
 1167 0542 08       		.uleb128 0x8
 1168 0543 8F030000 		.4byte	.LASF95
 1169 0547 07       		.byte	0x7
 1170 0548 4802     		.2byte	0x248
 1171 054a 7C040000 		.4byte	0x47c
 1172 054e 38       		.byte	0x38
 1173 054f 08       		.uleb128 0x8
 1174 0550 1B040000 		.4byte	.LASF96
 1175 0554 07       		.byte	0x7
 1176 0555 4902     		.2byte	0x249
 1177 0557 C3000000 		.4byte	0xc3
 1178 055b 3C       		.byte	0x3c
 1179 055c 08       		.uleb128 0x8
 1180 055d 29070000 		.4byte	.LASF97
 1181 0561 07       		.byte	0x7
 1182 0562 4A02     		.2byte	0x24a
 1183 0564 7C040000 		.4byte	0x47c
 1184 0568 40       		.byte	0x40
 1185 0569 08       		.uleb128 0x8
 1186 056a 13050000 		.4byte	.LASF98
 1187 056e 07       		.byte	0x7
 1188 056f 4B02     		.2byte	0x24b
 1189 0571 7C040000 		.4byte	0x47c
 1190 0575 44       		.byte	0x44
 1191 0576 08       		.uleb128 0x8
 1192 0577 25040000 		.4byte	.LASF99
 1193 057b 07       		.byte	0x7
 1194 057c 4C02     		.2byte	0x24c
 1195 057e 81040000 		.4byte	0x481
 1196 0582 48       		.byte	0x48
 1197 0583 08       		.uleb128 0x8
ARM GAS  /var/folders/m4/4md61f0s1_g0rzfghffqnxvr0000gn/T//cck7CVA7.s 			page 22


 1198 0584 0D010000 		.4byte	.LASF100
 1199 0588 07       		.byte	0x7
 1200 0589 4D02     		.2byte	0x24d
 1201 058b 7C040000 		.4byte	0x47c
 1202 058f 50       		.byte	0x50
 1203 0590 08       		.uleb128 0x8
 1204 0591 A5030000 		.4byte	.LASF101
 1205 0595 07       		.byte	0x7
 1206 0596 4E02     		.2byte	0x24e
 1207 0598 7C040000 		.4byte	0x47c
 1208 059c 54       		.byte	0x54
 1209 059d 08       		.uleb128 0x8
 1210 059e E6040000 		.4byte	.LASF102
 1211 05a2 07       		.byte	0x7
 1212 05a3 4F02     		.2byte	0x24f
 1213 05a5 7C040000 		.4byte	0x47c
 1214 05a9 58       		.byte	0x58
 1215 05aa 08       		.uleb128 0x8
 1216 05ab 2F040000 		.4byte	.LASF103
 1217 05af 07       		.byte	0x7
 1218 05b0 5002     		.2byte	0x250
 1219 05b2 C3000000 		.4byte	0xc3
 1220 05b6 5C       		.byte	0x5c
 1221 05b7 08       		.uleb128 0x8
 1222 05b8 A6010000 		.4byte	.LASF104
 1223 05bc 07       		.byte	0x7
 1224 05bd 5102     		.2byte	0x251
 1225 05bf 7C040000 		.4byte	0x47c
 1226 05c3 60       		.byte	0x60
 1227 05c4 08       		.uleb128 0x8
 1228 05c5 E6020000 		.4byte	.LASF105
 1229 05c9 07       		.byte	0x7
 1230 05ca 5202     		.2byte	0x252
 1231 05cc 7C040000 		.4byte	0x47c
 1232 05d0 64       		.byte	0x64
 1233 05d1 08       		.uleb128 0x8
 1234 05d2 44050000 		.4byte	.LASF106
 1235 05d6 07       		.byte	0x7
 1236 05d7 5302     		.2byte	0x253
 1237 05d9 81040000 		.4byte	0x481
 1238 05dd 68       		.byte	0x68
 1239 05de 08       		.uleb128 0x8
 1240 05df B6070000 		.4byte	.LASF107
 1241 05e3 07       		.byte	0x7
 1242 05e4 5402     		.2byte	0x254
 1243 05e6 7C040000 		.4byte	0x47c
 1244 05ea 70       		.byte	0x70
 1245 05eb 07       		.uleb128 0x7
 1246 05ec 43535200 		.ascii	"CSR\000"
 1247 05f0 07       		.byte	0x7
 1248 05f1 5502     		.2byte	0x255
 1249 05f3 7C040000 		.4byte	0x47c
 1250 05f7 74       		.byte	0x74
 1251 05f8 08       		.uleb128 0x8
 1252 05f9 40040000 		.4byte	.LASF108
 1253 05fd 07       		.byte	0x7
 1254 05fe 5602     		.2byte	0x256
ARM GAS  /var/folders/m4/4md61f0s1_g0rzfghffqnxvr0000gn/T//cck7CVA7.s 			page 23


 1255 0600 81040000 		.4byte	0x481
 1256 0604 78       		.byte	0x78
 1257 0605 08       		.uleb128 0x8
 1258 0606 79070000 		.4byte	.LASF109
 1259 060a 07       		.byte	0x7
 1260 060b 5702     		.2byte	0x257
 1261 060d 7C040000 		.4byte	0x47c
 1262 0611 80       		.byte	0x80
 1263 0612 08       		.uleb128 0x8
 1264 0613 B8020000 		.4byte	.LASF110
 1265 0617 07       		.byte	0x7
 1266 0618 5802     		.2byte	0x258
 1267 061a 7C040000 		.4byte	0x47c
 1268 061e 84       		.byte	0x84
 1269 061f 08       		.uleb128 0x8
 1270 0620 F4030000 		.4byte	.LASF111
 1271 0624 07       		.byte	0x7
 1272 0625 5902     		.2byte	0x259
 1273 0627 7C040000 		.4byte	0x47c
 1274 062b 88       		.byte	0x88
 1275 062c 08       		.uleb128 0x8
 1276 062d 1E010000 		.4byte	.LASF112
 1277 0631 07       		.byte	0x7
 1278 0632 5A02     		.2byte	0x25a
 1279 0634 7C040000 		.4byte	0x47c
 1280 0638 8C       		.byte	0x8c
 1281 0639 08       		.uleb128 0x8
 1282 063a AD070000 		.4byte	.LASF113
 1283 063e 07       		.byte	0x7
 1284 063f 5B02     		.2byte	0x25b
 1285 0641 7C040000 		.4byte	0x47c
 1286 0645 90       		.byte	0x90
 1287 0646 08       		.uleb128 0x8
 1288 0647 4E010000 		.4byte	.LASF114
 1289 064b 07       		.byte	0x7
 1290 064c 5C02     		.2byte	0x25c
 1291 064e 7C040000 		.4byte	0x47c
 1292 0652 94       		.byte	0x94
 1293 0653 00       		.byte	0
 1294 0654 13       		.uleb128 0x13
 1295 0655 77010000 		.4byte	.LASF115
 1296 0659 07       		.byte	0x7
 1297 065a 5D02     		.2byte	0x25d
 1298 065c 91040000 		.4byte	0x491
 1299 0660 04       		.uleb128 0x4
 1300 0661 E7010000 		.4byte	.LASF116
 1301 0665 08       		.byte	0x8
 1302 0666 65       		.byte	0x65
 1303 0667 3F030000 		.4byte	0x33f
 1304 066b 04       		.uleb128 0x4
 1305 066c 1B030000 		.4byte	.LASF117
 1306 0670 08       		.byte	0x8
 1307 0671 6D       		.byte	0x6d
 1308 0672 CE000000 		.4byte	0xce
 1309 0676 05       		.uleb128 0x5
 1310 0677 44070000 		.4byte	.LASF118
 1311 067b 04       		.byte	0x4
ARM GAS  /var/folders/m4/4md61f0s1_g0rzfghffqnxvr0000gn/T//cck7CVA7.s 			page 24


 1312 067c 08       		.byte	0x8
 1313 067d 89       		.byte	0x89
 1314 067e 8F060000 		.4byte	0x68f
 1315 0682 14       		.uleb128 0x14
 1316 0683 72313300 		.ascii	"r13\000"
 1317 0687 08       		.byte	0x8
 1318 0688 8A       		.byte	0x8a
 1319 0689 D9070000 		.4byte	0x7d9
 1320 068d 00       		.byte	0
 1321 068e 00       		.byte	0
 1322 068f 05       		.uleb128 0x5
 1323 0690 73000000 		.4byte	.LASF119
 1324 0694 64       		.byte	0x64
 1325 0695 09       		.byte	0x9
 1326 0696 FD       		.byte	0xfd
 1327 0697 D9070000 		.4byte	0x7d9
 1328 069b 14       		.uleb128 0x14
 1329 069c 73313600 		.ascii	"s16\000"
 1330 06a0 09       		.byte	0x9
 1331 06a1 FF       		.byte	0xff
 1332 06a2 60060000 		.4byte	0x660
 1333 06a6 00       		.byte	0
 1334 06a7 07       		.uleb128 0x7
 1335 06a8 73313700 		.ascii	"s17\000"
 1336 06ac 09       		.byte	0x9
 1337 06ad 0001     		.2byte	0x100
 1338 06af 60060000 		.4byte	0x660
 1339 06b3 04       		.byte	0x4
 1340 06b4 07       		.uleb128 0x7
 1341 06b5 73313800 		.ascii	"s18\000"
 1342 06b9 09       		.byte	0x9
 1343 06ba 0101     		.2byte	0x101
 1344 06bc 60060000 		.4byte	0x660
 1345 06c0 08       		.byte	0x8
 1346 06c1 07       		.uleb128 0x7
 1347 06c2 73313900 		.ascii	"s19\000"
 1348 06c6 09       		.byte	0x9
 1349 06c7 0201     		.2byte	0x102
 1350 06c9 60060000 		.4byte	0x660
 1351 06cd 0C       		.byte	0xc
 1352 06ce 07       		.uleb128 0x7
 1353 06cf 73323000 		.ascii	"s20\000"
 1354 06d3 09       		.byte	0x9
 1355 06d4 0301     		.2byte	0x103
 1356 06d6 60060000 		.4byte	0x660
 1357 06da 10       		.byte	0x10
 1358 06db 07       		.uleb128 0x7
 1359 06dc 73323100 		.ascii	"s21\000"
 1360 06e0 09       		.byte	0x9
 1361 06e1 0401     		.2byte	0x104
 1362 06e3 60060000 		.4byte	0x660
 1363 06e7 14       		.byte	0x14
 1364 06e8 07       		.uleb128 0x7
 1365 06e9 73323200 		.ascii	"s22\000"
 1366 06ed 09       		.byte	0x9
 1367 06ee 0501     		.2byte	0x105
 1368 06f0 60060000 		.4byte	0x660
ARM GAS  /var/folders/m4/4md61f0s1_g0rzfghffqnxvr0000gn/T//cck7CVA7.s 			page 25


 1369 06f4 18       		.byte	0x18
 1370 06f5 07       		.uleb128 0x7
 1371 06f6 73323300 		.ascii	"s23\000"
 1372 06fa 09       		.byte	0x9
 1373 06fb 0601     		.2byte	0x106
 1374 06fd 60060000 		.4byte	0x660
 1375 0701 1C       		.byte	0x1c
 1376 0702 07       		.uleb128 0x7
 1377 0703 73323400 		.ascii	"s24\000"
 1378 0707 09       		.byte	0x9
 1379 0708 0701     		.2byte	0x107
 1380 070a 60060000 		.4byte	0x660
 1381 070e 20       		.byte	0x20
 1382 070f 07       		.uleb128 0x7
 1383 0710 73323500 		.ascii	"s25\000"
 1384 0714 09       		.byte	0x9
 1385 0715 0801     		.2byte	0x108
 1386 0717 60060000 		.4byte	0x660
 1387 071b 24       		.byte	0x24
 1388 071c 07       		.uleb128 0x7
 1389 071d 73323600 		.ascii	"s26\000"
 1390 0721 09       		.byte	0x9
 1391 0722 0901     		.2byte	0x109
 1392 0724 60060000 		.4byte	0x660
 1393 0728 28       		.byte	0x28
 1394 0729 07       		.uleb128 0x7
 1395 072a 73323700 		.ascii	"s27\000"
 1396 072e 09       		.byte	0x9
 1397 072f 0A01     		.2byte	0x10a
 1398 0731 60060000 		.4byte	0x660
 1399 0735 2C       		.byte	0x2c
 1400 0736 07       		.uleb128 0x7
 1401 0737 73323800 		.ascii	"s28\000"
 1402 073b 09       		.byte	0x9
 1403 073c 0B01     		.2byte	0x10b
 1404 073e 60060000 		.4byte	0x660
 1405 0742 30       		.byte	0x30
 1406 0743 07       		.uleb128 0x7
 1407 0744 73323900 		.ascii	"s29\000"
 1408 0748 09       		.byte	0x9
 1409 0749 0C01     		.2byte	0x10c
 1410 074b 60060000 		.4byte	0x660
 1411 074f 34       		.byte	0x34
 1412 0750 07       		.uleb128 0x7
 1413 0751 73333000 		.ascii	"s30\000"
 1414 0755 09       		.byte	0x9
 1415 0756 0D01     		.2byte	0x10d
 1416 0758 60060000 		.4byte	0x660
 1417 075c 38       		.byte	0x38
 1418 075d 07       		.uleb128 0x7
 1419 075e 73333100 		.ascii	"s31\000"
 1420 0762 09       		.byte	0x9
 1421 0763 0E01     		.2byte	0x10e
 1422 0765 60060000 		.4byte	0x660
 1423 0769 3C       		.byte	0x3c
 1424 076a 07       		.uleb128 0x7
 1425 076b 723400   		.ascii	"r4\000"
ARM GAS  /var/folders/m4/4md61f0s1_g0rzfghffqnxvr0000gn/T//cck7CVA7.s 			page 26


 1426 076e 09       		.byte	0x9
 1427 076f 1001     		.2byte	0x110
 1428 0771 60060000 		.4byte	0x660
 1429 0775 40       		.byte	0x40
 1430 0776 07       		.uleb128 0x7
 1431 0777 723500   		.ascii	"r5\000"
 1432 077a 09       		.byte	0x9
 1433 077b 1101     		.2byte	0x111
 1434 077d 60060000 		.4byte	0x660
 1435 0781 44       		.byte	0x44
 1436 0782 07       		.uleb128 0x7
 1437 0783 723600   		.ascii	"r6\000"
 1438 0786 09       		.byte	0x9
 1439 0787 1201     		.2byte	0x112
 1440 0789 60060000 		.4byte	0x660
 1441 078d 48       		.byte	0x48
 1442 078e 07       		.uleb128 0x7
 1443 078f 723700   		.ascii	"r7\000"
 1444 0792 09       		.byte	0x9
 1445 0793 1301     		.2byte	0x113
 1446 0795 60060000 		.4byte	0x660
 1447 0799 4C       		.byte	0x4c
 1448 079a 07       		.uleb128 0x7
 1449 079b 723800   		.ascii	"r8\000"
 1450 079e 09       		.byte	0x9
 1451 079f 1401     		.2byte	0x114
 1452 07a1 60060000 		.4byte	0x660
 1453 07a5 50       		.byte	0x50
 1454 07a6 07       		.uleb128 0x7
 1455 07a7 723900   		.ascii	"r9\000"
 1456 07aa 09       		.byte	0x9
 1457 07ab 1501     		.2byte	0x115
 1458 07ad 60060000 		.4byte	0x660
 1459 07b1 54       		.byte	0x54
 1460 07b2 07       		.uleb128 0x7
 1461 07b3 72313000 		.ascii	"r10\000"
 1462 07b7 09       		.byte	0x9
 1463 07b8 1601     		.2byte	0x116
 1464 07ba 60060000 		.4byte	0x660
 1465 07be 58       		.byte	0x58
 1466 07bf 07       		.uleb128 0x7
 1467 07c0 72313100 		.ascii	"r11\000"
 1468 07c4 09       		.byte	0x9
 1469 07c5 1701     		.2byte	0x117
 1470 07c7 60060000 		.4byte	0x660
 1471 07cb 5C       		.byte	0x5c
 1472 07cc 07       		.uleb128 0x7
 1473 07cd 6C7200   		.ascii	"lr\000"
 1474 07d0 09       		.byte	0x9
 1475 07d1 1801     		.2byte	0x118
 1476 07d3 60060000 		.4byte	0x660
 1477 07d7 60       		.byte	0x60
 1478 07d8 00       		.byte	0
 1479 07d9 09       		.uleb128 0x9
 1480 07da 04       		.byte	0x4
 1481 07db 8F060000 		.4byte	0x68f
 1482 07df 15       		.uleb128 0x15
ARM GAS  /var/folders/m4/4md61f0s1_g0rzfghffqnxvr0000gn/T//cck7CVA7.s 			page 27


 1483 07e0 04       		.byte	0x4
 1484 07e1 0A       		.byte	0xa
 1485 07e2 38       		.byte	0x38
 1486 07e3 F4070000 		.4byte	0x7f4
 1487 07e7 06       		.uleb128 0x6
 1488 07e8 22070000 		.4byte	.LASF120
 1489 07ec 0A       		.byte	0xa
 1490 07ed 3C       		.byte	0x3c
 1491 07ee D9000000 		.4byte	0xd9
 1492 07f2 00       		.byte	0
 1493 07f3 00       		.byte	0
 1494 07f4 04       		.uleb128 0x4
 1495 07f5 AF030000 		.4byte	.LASF121
 1496 07f9 0A       		.byte	0xa
 1497 07fa 3D       		.byte	0x3d
 1498 07fb DF070000 		.4byte	0x7df
 1499 07ff 16       		.uleb128 0x16
 1500 0800 04       		.byte	0x4
 1501 0801 06       		.byte	0x6
 1502 0802 FA       		.byte	0xfa
 1503 0803 5C080000 		.4byte	0x85c
 1504 0807 17       		.uleb128 0x17
 1505 0808 52000000 		.4byte	.LASF122
 1506 080c 06       		.byte	0x6
 1507 080d 0101     		.2byte	0x101
 1508 080f 1B010000 		.4byte	0x11b
 1509 0813 17       		.uleb128 0x17
 1510 0814 C5000000 		.4byte	.LASF123
 1511 0818 06       		.byte	0x6
 1512 0819 0801     		.2byte	0x108
 1513 081b 1B010000 		.4byte	0x11b
 1514 081f 17       		.uleb128 0x17
 1515 0820 CF070000 		.4byte	.LASF124
 1516 0824 06       		.byte	0x6
 1517 0825 0F01     		.2byte	0x10f
 1518 0827 3F030000 		.4byte	0x33f
 1519 082b 17       		.uleb128 0x17
 1520 082c 4C000000 		.4byte	.LASF125
 1521 0830 06       		.byte	0x6
 1522 0831 1601     		.2byte	0x116
 1523 0833 5C080000 		.4byte	0x85c
 1524 0837 17       		.uleb128 0x17
 1525 0838 5A020000 		.4byte	.LASF126
 1526 083c 06       		.byte	0x6
 1527 083d 1E01     		.2byte	0x11e
 1528 083f 87080000 		.4byte	0x887
 1529 0843 17       		.uleb128 0x17
 1530 0844 57050000 		.4byte	.LASF127
 1531 0848 06       		.byte	0x6
 1532 0849 2701     		.2byte	0x127
 1533 084b BE080000 		.4byte	0x8be
 1534 084f 17       		.uleb128 0x17
 1535 0850 FE040000 		.4byte	.LASF128
 1536 0854 06       		.byte	0x6
 1537 0855 2F01     		.2byte	0x12f
 1538 0857 26010000 		.4byte	0x126
 1539 085b 00       		.byte	0
ARM GAS  /var/folders/m4/4md61f0s1_g0rzfghffqnxvr0000gn/T//cck7CVA7.s 			page 28


 1540 085c 09       		.uleb128 0x9
 1541 085d 04       		.byte	0x4
 1542 085e 57020000 		.4byte	0x257
 1543 0862 05       		.uleb128 0x5
 1544 0863 2C050000 		.4byte	.LASF129
 1545 0867 0C       		.byte	0xc
 1546 0868 0B       		.byte	0xb
 1547 0869 34       		.byte	0x34
 1548 086a 87080000 		.4byte	0x887
 1549 086e 06       		.uleb128 0x6
 1550 086f F1070000 		.4byte	.LASF130
 1551 0873 0B       		.byte	0xb
 1552 0874 35       		.byte	0x35
 1553 0875 8C020000 		.4byte	0x28c
 1554 0879 00       		.byte	0
 1555 087a 06       		.uleb128 0x6
 1556 087b BA040000 		.4byte	.LASF131
 1557 087f 0B       		.byte	0xb
 1558 0880 37       		.byte	0x37
 1559 0881 31010000 		.4byte	0x131
 1560 0885 08       		.byte	0x8
 1561 0886 00       		.byte	0
 1562 0887 09       		.uleb128 0x9
 1563 0888 04       		.byte	0x4
 1564 0889 62080000 		.4byte	0x862
 1565 088d 05       		.uleb128 0x5
 1566 088e 8F070000 		.4byte	.LASF132
 1567 0892 10       		.byte	0x10
 1568 0893 0C       		.byte	0xc
 1569 0894 39       		.byte	0x39
 1570 0895 BE080000 		.4byte	0x8be
 1571 0899 06       		.uleb128 0x6
 1572 089a 5F010000 		.4byte	.LASF133
 1573 089e 0C       		.byte	0xc
 1574 089f 3A       		.byte	0x3a
 1575 08a0 8C020000 		.4byte	0x28c
 1576 08a4 00       		.byte	0
 1577 08a5 06       		.uleb128 0x6
 1578 08a6 12080000 		.4byte	.LASF134
 1579 08aa 0C       		.byte	0xc
 1580 08ab 3C       		.byte	0x3c
 1581 08ac 62020000 		.4byte	0x262
 1582 08b0 08       		.byte	0x8
 1583 08b1 06       		.uleb128 0x6
 1584 08b2 BB050000 		.4byte	.LASF135
 1585 08b6 0C       		.byte	0xc
 1586 08b7 3E       		.byte	0x3e
 1587 08b8 01090000 		.4byte	0x901
 1588 08bc 0C       		.byte	0xc
 1589 08bd 00       		.byte	0
 1590 08be 09       		.uleb128 0x9
 1591 08bf 04       		.byte	0x4
 1592 08c0 8D080000 		.4byte	0x88d
 1593 08c4 09       		.uleb128 0x9
 1594 08c5 04       		.byte	0x4
 1595 08c6 CA080000 		.4byte	0x8ca
 1596 08ca 18       		.uleb128 0x18
ARM GAS  /var/folders/m4/4md61f0s1_g0rzfghffqnxvr0000gn/T//cck7CVA7.s 			page 29


 1597 08cb CF080000 		.4byte	0x8cf
 1598 08cf 03       		.uleb128 0x3
 1599 08d0 01       		.byte	0x1
 1600 08d1 08       		.byte	0x8
 1601 08d2 8D050000 		.4byte	.LASF136
 1602 08d6 0F       		.uleb128 0xf
 1603 08d7 3C010000 		.4byte	0x13c
 1604 08db 09       		.uleb128 0x9
 1605 08dc 04       		.byte	0x4
 1606 08dd 41030000 		.4byte	0x341
 1607 08e1 0F       		.uleb128 0xf
 1608 08e2 C4080000 		.4byte	0x8c4
 1609 08e6 10       		.uleb128 0x10
 1610 08e7 6B060000 		.4byte	0x66b
 1611 08eb F6080000 		.4byte	0x8f6
 1612 08ef 11       		.uleb128 0x11
 1613 08f0 75040000 		.4byte	0x475
 1614 08f4 3A       		.byte	0x3a
 1615 08f5 00       		.byte	0
 1616 08f6 04       		.uleb128 0x4
 1617 08f7 11020000 		.4byte	.LASF137
 1618 08fb 0C       		.byte	0xc
 1619 08fc 34       		.byte	0x34
 1620 08fd 8D080000 		.4byte	0x88d
 1621 0901 09       		.uleb128 0x9
 1622 0902 04       		.byte	0x4
 1623 0903 F6080000 		.4byte	0x8f6
 1624 0907 03       		.uleb128 0x3
 1625 0908 01       		.byte	0x1
 1626 0909 02       		.byte	0x2
 1627 090a 62040000 		.4byte	.LASF138
 1628 090e 15       		.uleb128 0x15
 1629 090f 04       		.byte	0x4
 1630 0910 0D       		.byte	0xd
 1631 0911 E7       		.byte	0xe7
 1632 0912 2F090000 		.4byte	0x92f
 1633 0916 14       		.uleb128 0x14
 1634 0917 73657400 		.ascii	"set\000"
 1635 091b 0D       		.byte	0xd
 1636 091c E8       		.byte	0xe8
 1637 091d AD000000 		.4byte	0xad
 1638 0921 00       		.byte	0
 1639 0922 06       		.uleb128 0x6
 1640 0923 82030000 		.4byte	.LASF139
 1641 0927 0D       		.byte	0xd
 1642 0928 E9       		.byte	0xe9
 1643 0929 AD000000 		.4byte	0xad
 1644 092d 02       		.byte	0x2
 1645 092e 00       		.byte	0
 1646 092f 16       		.uleb128 0x16
 1647 0930 04       		.byte	0x4
 1648 0931 0D       		.byte	0xd
 1649 0932 E5       		.byte	0xe5
 1650 0933 4A090000 		.4byte	0x94a
 1651 0937 19       		.uleb128 0x19
 1652 0938 5700     		.ascii	"W\000"
 1653 093a 0D       		.byte	0xd
ARM GAS  /var/folders/m4/4md61f0s1_g0rzfghffqnxvr0000gn/T//cck7CVA7.s 			page 30


 1654 093b E6       		.byte	0xe6
 1655 093c C3000000 		.4byte	0xc3
 1656 0940 19       		.uleb128 0x19
 1657 0941 4800     		.ascii	"H\000"
 1658 0943 0D       		.byte	0xd
 1659 0944 EA       		.byte	0xea
 1660 0945 0E090000 		.4byte	0x90e
 1661 0949 00       		.byte	0
 1662 094a 15       		.uleb128 0x15
 1663 094b 2C       		.byte	0x2c
 1664 094c 0D       		.byte	0xd
 1665 094d DD       		.byte	0xdd
 1666 094e D7090000 		.4byte	0x9d7
 1667 0952 06       		.uleb128 0x6
 1668 0953 A2000000 		.4byte	.LASF140
 1669 0957 0D       		.byte	0xd
 1670 0958 DF       		.byte	0xdf
 1671 0959 7C040000 		.4byte	0x47c
 1672 095d 00       		.byte	0
 1673 095e 06       		.uleb128 0x6
 1674 095f 6C000000 		.4byte	.LASF141
 1675 0963 0D       		.byte	0xd
 1676 0964 E0       		.byte	0xe0
 1677 0965 7C040000 		.4byte	0x47c
 1678 0969 04       		.byte	0x4
 1679 096a 06       		.uleb128 0x6
 1680 096b D2010000 		.4byte	.LASF142
 1681 096f 0D       		.byte	0xd
 1682 0970 E1       		.byte	0xe1
 1683 0971 7C040000 		.4byte	0x47c
 1684 0975 08       		.byte	0x8
 1685 0976 06       		.uleb128 0x6
 1686 0977 BF000000 		.4byte	.LASF143
 1687 097b 0D       		.byte	0xd
 1688 097c E2       		.byte	0xe2
 1689 097d 7C040000 		.4byte	0x47c
 1690 0981 0C       		.byte	0xc
 1691 0982 14       		.uleb128 0x14
 1692 0983 49445200 		.ascii	"IDR\000"
 1693 0987 0D       		.byte	0xd
 1694 0988 E3       		.byte	0xe3
 1695 0989 7C040000 		.4byte	0x47c
 1696 098d 10       		.byte	0x10
 1697 098e 14       		.uleb128 0x14
 1698 098f 4F445200 		.ascii	"ODR\000"
 1699 0993 0D       		.byte	0xd
 1700 0994 E4       		.byte	0xe4
 1701 0995 7C040000 		.4byte	0x47c
 1702 0999 14       		.byte	0x14
 1703 099a 06       		.uleb128 0x6
 1704 099b 40010000 		.4byte	.LASF144
 1705 099f 0D       		.byte	0xd
 1706 09a0 EB       		.byte	0xeb
 1707 09a1 D7090000 		.4byte	0x9d7
 1708 09a5 18       		.byte	0x18
 1709 09a6 06       		.uleb128 0x6
 1710 09a7 88020000 		.4byte	.LASF145
ARM GAS  /var/folders/m4/4md61f0s1_g0rzfghffqnxvr0000gn/T//cck7CVA7.s 			page 31


 1711 09ab 0D       		.byte	0xd
 1712 09ac EC       		.byte	0xec
 1713 09ad 7C040000 		.4byte	0x47c
 1714 09b1 1C       		.byte	0x1c
 1715 09b2 06       		.uleb128 0x6
 1716 09b3 EF030000 		.4byte	.LASF146
 1717 09b7 0D       		.byte	0xd
 1718 09b8 ED       		.byte	0xed
 1719 09b9 7C040000 		.4byte	0x47c
 1720 09bd 20       		.byte	0x20
 1721 09be 06       		.uleb128 0x6
 1722 09bf EA030000 		.4byte	.LASF147
 1723 09c3 0D       		.byte	0xd
 1724 09c4 EE       		.byte	0xee
 1725 09c5 7C040000 		.4byte	0x47c
 1726 09c9 24       		.byte	0x24
 1727 09ca 14       		.uleb128 0x14
 1728 09cb 42525200 		.ascii	"BRR\000"
 1729 09cf 0D       		.byte	0xd
 1730 09d0 EF       		.byte	0xef
 1731 09d1 7C040000 		.4byte	0x47c
 1732 09d5 28       		.byte	0x28
 1733 09d6 00       		.byte	0
 1734 09d7 0F       		.uleb128 0xf
 1735 09d8 2F090000 		.4byte	0x92f
 1736 09dc 04       		.uleb128 0x4
 1737 09dd FF010000 		.4byte	.LASF148
 1738 09e1 0D       		.byte	0xd
 1739 09e2 F0       		.byte	0xf0
 1740 09e3 4A090000 		.4byte	0x94a
 1741 09e7 15       		.uleb128 0x15
 1742 09e8 1C       		.byte	0x1c
 1743 09e9 0D       		.byte	0xd
 1744 09ea F5       		.byte	0xf5
 1745 09eb 460A0000 		.4byte	0xa46
 1746 09ef 06       		.uleb128 0x6
 1747 09f0 67010000 		.4byte	.LASF149
 1748 09f4 0D       		.byte	0xd
 1749 09f5 F7       		.byte	0xf7
 1750 09f6 C3000000 		.4byte	0xc3
 1751 09fa 00       		.byte	0
 1752 09fb 06       		.uleb128 0x6
 1753 09fc 8D020000 		.4byte	.LASF150
 1754 0a00 0D       		.byte	0xd
 1755 0a01 F9       		.byte	0xf9
 1756 0a02 C3000000 		.4byte	0xc3
 1757 0a06 04       		.byte	0x4
 1758 0a07 06       		.uleb128 0x6
 1759 0a08 80020000 		.4byte	.LASF151
 1760 0a0c 0D       		.byte	0xd
 1761 0a0d FB       		.byte	0xfb
 1762 0a0e C3000000 		.4byte	0xc3
 1763 0a12 08       		.byte	0x8
 1764 0a13 06       		.uleb128 0x6
 1765 0a14 C9070000 		.4byte	.LASF152
 1766 0a18 0D       		.byte	0xd
 1767 0a19 FD       		.byte	0xfd
ARM GAS  /var/folders/m4/4md61f0s1_g0rzfghffqnxvr0000gn/T//cck7CVA7.s 			page 32


 1768 0a1a C3000000 		.4byte	0xc3
 1769 0a1e 0C       		.byte	0xc
 1770 0a1f 14       		.uleb128 0x14
 1771 0a20 6F647200 		.ascii	"odr\000"
 1772 0a24 0D       		.byte	0xd
 1773 0a25 FF       		.byte	0xff
 1774 0a26 C3000000 		.4byte	0xc3
 1775 0a2a 10       		.byte	0x10
 1776 0a2b 08       		.uleb128 0x8
 1777 0a2c B5040000 		.4byte	.LASF153
 1778 0a30 0D       		.byte	0xd
 1779 0a31 0101     		.2byte	0x101
 1780 0a33 C3000000 		.4byte	0xc3
 1781 0a37 14       		.byte	0x14
 1782 0a38 08       		.uleb128 0x8
 1783 0a39 C0030000 		.4byte	.LASF154
 1784 0a3d 0D       		.byte	0xd
 1785 0a3e 0301     		.2byte	0x103
 1786 0a40 C3000000 		.4byte	0xc3
 1787 0a44 18       		.byte	0x18
 1788 0a45 00       		.byte	0
 1789 0a46 13       		.uleb128 0x13
 1790 0a47 2C000000 		.4byte	.LASF155
 1791 0a4b 0D       		.byte	0xd
 1792 0a4c 0401     		.2byte	0x104
 1793 0a4e E7090000 		.4byte	0x9e7
 1794 0a52 12       		.uleb128 0x12
 1795 0a53 E0       		.byte	0xe0
 1796 0a54 0D       		.byte	0xd
 1797 0a55 0D01     		.2byte	0x10d
 1798 0a57 C40A0000 		.4byte	0xac4
 1799 0a5b 08       		.uleb128 0x8
 1800 0a5c F7040000 		.4byte	.LASF156
 1801 0a60 0D       		.byte	0xd
 1802 0a61 1001     		.2byte	0x110
 1803 0a63 460A0000 		.4byte	0xa46
 1804 0a67 00       		.byte	0
 1805 0a68 08       		.uleb128 0x8
 1806 0a69 19020000 		.4byte	.LASF157
 1807 0a6d 0D       		.byte	0xd
 1808 0a6e 1401     		.2byte	0x114
 1809 0a70 460A0000 		.4byte	0xa46
 1810 0a74 1C       		.byte	0x1c
 1811 0a75 08       		.uleb128 0x8
 1812 0a76 E5070000 		.4byte	.LASF158
 1813 0a7a 0D       		.byte	0xd
 1814 0a7b 1801     		.2byte	0x118
 1815 0a7d 460A0000 		.4byte	0xa46
 1816 0a81 38       		.byte	0x38
 1817 0a82 08       		.uleb128 0x8
 1818 0a83 C5030000 		.4byte	.LASF159
 1819 0a87 0D       		.byte	0xd
 1820 0a88 1C01     		.2byte	0x11c
 1821 0a8a 460A0000 		.4byte	0xa46
 1822 0a8e 54       		.byte	0x54
 1823 0a8f 08       		.uleb128 0x8
 1824 0a90 96010000 		.4byte	.LASF160
ARM GAS  /var/folders/m4/4md61f0s1_g0rzfghffqnxvr0000gn/T//cck7CVA7.s 			page 33


 1825 0a94 0D       		.byte	0xd
 1826 0a95 2001     		.2byte	0x120
 1827 0a97 460A0000 		.4byte	0xa46
 1828 0a9b 70       		.byte	0x70
 1829 0a9c 08       		.uleb128 0x8
 1830 0a9d A7020000 		.4byte	.LASF161
 1831 0aa1 0D       		.byte	0xd
 1832 0aa2 2401     		.2byte	0x124
 1833 0aa4 460A0000 		.4byte	0xa46
 1834 0aa8 8C       		.byte	0x8c
 1835 0aa9 08       		.uleb128 0x8
 1836 0aaa 14030000 		.4byte	.LASF162
 1837 0aae 0D       		.byte	0xd
 1838 0aaf 2801     		.2byte	0x128
 1839 0ab1 460A0000 		.4byte	0xa46
 1840 0ab5 A8       		.byte	0xa8
 1841 0ab6 08       		.uleb128 0x8
 1842 0ab7 9B000000 		.4byte	.LASF163
 1843 0abb 0D       		.byte	0xd
 1844 0abc 2C01     		.2byte	0x12c
 1845 0abe 460A0000 		.4byte	0xa46
 1846 0ac2 C4       		.byte	0xc4
 1847 0ac3 00       		.byte	0
 1848 0ac4 13       		.uleb128 0x13
 1849 0ac5 08080000 		.4byte	.LASF164
 1850 0ac9 0D       		.byte	0xd
 1851 0aca 3A01     		.2byte	0x13a
 1852 0acc 520A0000 		.4byte	0xa52
 1853 0ad0 13       		.uleb128 0x13
 1854 0ad1 8E000000 		.4byte	.LASF165
 1855 0ad5 0D       		.byte	0xd
 1856 0ad6 3F01     		.2byte	0x13f
 1857 0ad8 C3000000 		.4byte	0xc3
 1858 0adc 13       		.uleb128 0x13
 1859 0add FF070000 		.4byte	.LASF166
 1860 0ae1 0D       		.byte	0xd
 1861 0ae2 4401     		.2byte	0x144
 1862 0ae4 C3000000 		.4byte	0xc3
 1863 0ae8 13       		.uleb128 0x13
 1864 0ae9 31070000 		.4byte	.LASF167
 1865 0aed 0D       		.byte	0xd
 1866 0aee 5101     		.2byte	0x151
 1867 0af0 F40A0000 		.4byte	0xaf4
 1868 0af4 09       		.uleb128 0x9
 1869 0af5 04       		.byte	0x4
 1870 0af6 DC090000 		.4byte	0x9dc
 1871 0afa 1A       		.uleb128 0x1a
 1872 0afb EB050000 		.4byte	.LASF181
 1873 0aff 01       		.byte	0x1
 1874 0b00 3D       		.byte	0x3d
 1875 0b01 01       		.byte	0x1
 1876 0b02 1D0B0000 		.4byte	0xb1d
 1877 0b06 1B       		.uleb128 0x1b
 1878 0b07 0D050000 		.4byte	.LASF168
 1879 0b0b 01       		.byte	0x1
 1880 0b0c 3D       		.byte	0x3d
 1881 0b0d F40A0000 		.4byte	0xaf4
ARM GAS  /var/folders/m4/4md61f0s1_g0rzfghffqnxvr0000gn/T//cck7CVA7.s 			page 34


 1882 0b11 1B       		.uleb128 0x1b
 1883 0b12 97050000 		.4byte	.LASF169
 1884 0b16 01       		.byte	0x1
 1885 0b17 3D       		.byte	0x3d
 1886 0b18 1D0B0000 		.4byte	0xb1d
 1887 0b1c 00       		.byte	0
 1888 0b1d 09       		.uleb128 0x9
 1889 0b1e 04       		.byte	0x4
 1890 0b1f 230B0000 		.4byte	0xb23
 1891 0b23 18       		.uleb128 0x18
 1892 0b24 460A0000 		.4byte	0xa46
 1893 0b28 1C       		.uleb128 0x1c
 1894 0b29 9F070000 		.4byte	.LASF170
 1895 0b2d 01       		.byte	0x1
 1896 0b2e 58       		.byte	0x58
 1897 0b2f 00000000 		.4byte	.LFB269
 1898 0b33 88010000 		.4byte	.LFE269-.LFB269
 1899 0b37 01       		.uleb128 0x1
 1900 0b38 9C       		.byte	0x9c
 1901 0b39 7A0C0000 		.4byte	0xc7a
 1902 0b3d 1D       		.uleb128 0x1d
 1903 0b3e 97050000 		.4byte	.LASF169
 1904 0b42 01       		.byte	0x1
 1905 0b43 58       		.byte	0x58
 1906 0b44 7A0C0000 		.4byte	0xc7a
 1907 0b48 01       		.uleb128 0x1
 1908 0b49 50       		.byte	0x50
 1909 0b4a 1E       		.uleb128 0x1e
 1910 0b4b FA0A0000 		.4byte	0xafa
 1911 0b4f 04000000 		.4byte	.LBB18
 1912 0b53 00000000 		.4byte	.Ldebug_ranges0+0
 1913 0b57 01       		.byte	0x1
 1914 0b58 7F       		.byte	0x7f
 1915 0b59 710B0000 		.4byte	0xb71
 1916 0b5d 1F       		.uleb128 0x1f
 1917 0b5e 110B0000 		.4byte	0xb11
 1918 0b62 04       		.uleb128 0x4
 1919 0b63 70       		.byte	0x70
 1920 0b64 8C01     		.sleb128 140
 1921 0b66 9F       		.byte	0x9f
 1922 0b67 20       		.uleb128 0x20
 1923 0b68 060B0000 		.4byte	0xb06
 1924 0b6c 00140240 		.4byte	0x40021400
 1925 0b70 00       		.byte	0
 1926 0b71 1E       		.uleb128 0x1e
 1927 0b72 FA0A0000 		.4byte	0xafa
 1928 0b76 06000000 		.4byte	.LBB21
 1929 0b7a 18000000 		.4byte	.Ldebug_ranges0+0x18
 1930 0b7e 01       		.byte	0x1
 1931 0b7f 82       		.byte	0x82
 1932 0b80 980B0000 		.4byte	0xb98
 1933 0b84 1F       		.uleb128 0x1f
 1934 0b85 110B0000 		.4byte	0xb11
 1935 0b89 04       		.uleb128 0x4
 1936 0b8a 70       		.byte	0x70
 1937 0b8b A801     		.sleb128 168
 1938 0b8d 9F       		.byte	0x9f
ARM GAS  /var/folders/m4/4md61f0s1_g0rzfghffqnxvr0000gn/T//cck7CVA7.s 			page 35


 1939 0b8e 20       		.uleb128 0x20
 1940 0b8f 060B0000 		.4byte	0xb06
 1941 0b93 00180240 		.4byte	0x40021800
 1942 0b97 00       		.byte	0
 1943 0b98 1E       		.uleb128 0x1e
 1944 0b99 FA0A0000 		.4byte	0xafa
 1945 0b9d 10000000 		.4byte	.LBB24
 1946 0ba1 30000000 		.4byte	.Ldebug_ranges0+0x30
 1947 0ba5 01       		.byte	0x1
 1948 0ba6 70       		.byte	0x70
 1949 0ba7 BC0B0000 		.4byte	0xbbc
 1950 0bab 1F       		.uleb128 0x1f
 1951 0bac 110B0000 		.4byte	0xb11
 1952 0bb0 01       		.uleb128 0x1
 1953 0bb1 50       		.byte	0x50
 1954 0bb2 20       		.uleb128 0x20
 1955 0bb3 060B0000 		.4byte	0xb06
 1956 0bb7 00000240 		.4byte	0x40020000
 1957 0bbb 00       		.byte	0
 1958 0bbc 1E       		.uleb128 0x1e
 1959 0bbd FA0A0000 		.4byte	0xafa
 1960 0bc1 14000000 		.4byte	.LBB27
 1961 0bc5 48000000 		.4byte	.Ldebug_ranges0+0x48
 1962 0bc9 01       		.byte	0x1
 1963 0bca 73       		.byte	0x73
 1964 0bcb E20B0000 		.4byte	0xbe2
 1965 0bcf 1F       		.uleb128 0x1f
 1966 0bd0 110B0000 		.4byte	0xb11
 1967 0bd4 03       		.uleb128 0x3
 1968 0bd5 70       		.byte	0x70
 1969 0bd6 1C       		.sleb128 28
 1970 0bd7 9F       		.byte	0x9f
 1971 0bd8 20       		.uleb128 0x20
 1972 0bd9 060B0000 		.4byte	0xb06
 1973 0bdd 00040240 		.4byte	0x40020400
 1974 0be1 00       		.byte	0
 1975 0be2 1E       		.uleb128 0x1e
 1976 0be3 FA0A0000 		.4byte	0xafa
 1977 0be7 16000000 		.4byte	.LBB30
 1978 0beb 60000000 		.4byte	.Ldebug_ranges0+0x60
 1979 0bef 01       		.byte	0x1
 1980 0bf0 76       		.byte	0x76
 1981 0bf1 080C0000 		.4byte	0xc08
 1982 0bf5 1F       		.uleb128 0x1f
 1983 0bf6 110B0000 		.4byte	0xb11
 1984 0bfa 03       		.uleb128 0x3
 1985 0bfb 70       		.byte	0x70
 1986 0bfc 38       		.sleb128 56
 1987 0bfd 9F       		.byte	0x9f
 1988 0bfe 20       		.uleb128 0x20
 1989 0bff 060B0000 		.4byte	0xb06
 1990 0c03 00080240 		.4byte	0x40020800
 1991 0c07 00       		.byte	0
 1992 0c08 1E       		.uleb128 0x1e
 1993 0c09 FA0A0000 		.4byte	0xafa
 1994 0c0d 18000000 		.4byte	.LBB33
 1995 0c11 78000000 		.4byte	.Ldebug_ranges0+0x78
ARM GAS  /var/folders/m4/4md61f0s1_g0rzfghffqnxvr0000gn/T//cck7CVA7.s 			page 36


 1996 0c15 01       		.byte	0x1
 1997 0c16 79       		.byte	0x79
 1998 0c17 2F0C0000 		.4byte	0xc2f
 1999 0c1b 1F       		.uleb128 0x1f
 2000 0c1c 110B0000 		.4byte	0xb11
 2001 0c20 04       		.uleb128 0x4
 2002 0c21 70       		.byte	0x70
 2003 0c22 D400     		.sleb128 84
 2004 0c24 9F       		.byte	0x9f
 2005 0c25 20       		.uleb128 0x20
 2006 0c26 060B0000 		.4byte	0xb06
 2007 0c2a 000C0240 		.4byte	0x40020c00
 2008 0c2e 00       		.byte	0
 2009 0c2f 1E       		.uleb128 0x1e
 2010 0c30 FA0A0000 		.4byte	0xafa
 2011 0c34 1A000000 		.4byte	.LBB36
 2012 0c38 90000000 		.4byte	.Ldebug_ranges0+0x90
 2013 0c3c 01       		.byte	0x1
 2014 0c3d 7C       		.byte	0x7c
 2015 0c3e 560C0000 		.4byte	0xc56
 2016 0c42 1F       		.uleb128 0x1f
 2017 0c43 110B0000 		.4byte	0xb11
 2018 0c47 04       		.uleb128 0x4
 2019 0c48 70       		.byte	0x70
 2020 0c49 F000     		.sleb128 112
 2021 0c4b 9F       		.byte	0x9f
 2022 0c4c 20       		.uleb128 0x20
 2023 0c4d 060B0000 		.4byte	0xb06
 2024 0c51 00100240 		.4byte	0x40021000
 2025 0c55 00       		.byte	0
 2026 0c56 21       		.uleb128 0x21
 2027 0c57 FA0A0000 		.4byte	0xafa
 2028 0c5b 1C000000 		.4byte	.LBB39
 2029 0c5f A8000000 		.4byte	.Ldebug_ranges0+0xa8
 2030 0c63 01       		.byte	0x1
 2031 0c64 85       		.byte	0x85
 2032 0c65 1F       		.uleb128 0x1f
 2033 0c66 110B0000 		.4byte	0xb11
 2034 0c6a 04       		.uleb128 0x4
 2035 0c6b 70       		.byte	0x70
 2036 0c6c C401     		.sleb128 196
 2037 0c6e 9F       		.byte	0x9f
 2038 0c6f 20       		.uleb128 0x20
 2039 0c70 060B0000 		.4byte	0xb06
 2040 0c74 001C0240 		.4byte	0x40021c00
 2041 0c78 00       		.byte	0
 2042 0c79 00       		.byte	0
 2043 0c7a 09       		.uleb128 0x9
 2044 0c7b 04       		.byte	0x4
 2045 0c7c 800C0000 		.4byte	0xc80
 2046 0c80 18       		.uleb128 0x18
 2047 0c81 C40A0000 		.4byte	0xac4
 2048 0c85 1C       		.uleb128 0x1c
 2049 0c86 54070000 		.4byte	.LASF171
 2050 0c8a 01       		.byte	0x1
 2051 0c8b 9F       		.byte	0x9f
 2052 0c8c 00000000 		.4byte	.LFB270
ARM GAS  /var/folders/m4/4md61f0s1_g0rzfghffqnxvr0000gn/T//cck7CVA7.s 			page 37


 2053 0c90 D0000000 		.4byte	.LFE270-.LFB270
 2054 0c94 01       		.uleb128 0x1
 2055 0c95 9C       		.byte	0x9c
 2056 0c96 550D0000 		.4byte	0xd55
 2057 0c9a 1D       		.uleb128 0x1d
 2058 0c9b 0C020000 		.4byte	.LASF172
 2059 0c9f 01       		.byte	0x1
 2060 0ca0 9F       		.byte	0x9f
 2061 0ca1 E80A0000 		.4byte	0xae8
 2062 0ca5 01       		.uleb128 0x1
 2063 0ca6 50       		.byte	0x50
 2064 0ca7 22       		.uleb128 0x22
 2065 0ca8 E2010000 		.4byte	.LASF173
 2066 0cac 01       		.byte	0x1
 2067 0cad A0       		.byte	0xa0
 2068 0cae D00A0000 		.4byte	0xad0
 2069 0cb2 00000000 		.4byte	.LLST0
 2070 0cb6 22       		.uleb128 0x22
 2071 0cb7 92050000 		.4byte	.LASF174
 2072 0cbb 01       		.byte	0x1
 2073 0cbc A1       		.byte	0xa1
 2074 0cbd DC0A0000 		.4byte	0xadc
 2075 0cc1 43000000 		.4byte	.LLST1
 2076 0cc5 23       		.uleb128 0x23
 2077 0cc6 67010000 		.4byte	.LASF149
 2078 0cca 01       		.byte	0x1
 2079 0ccb A3       		.byte	0xa3
 2080 0ccc C3000000 		.4byte	0xc3
 2081 0cd0 01       		.uleb128 0x1
 2082 0cd1 5E       		.byte	0x5e
 2083 0cd2 23       		.uleb128 0x23
 2084 0cd3 8D020000 		.4byte	.LASF150
 2085 0cd7 01       		.byte	0x1
 2086 0cd8 A4       		.byte	0xa4
 2087 0cd9 C3000000 		.4byte	0xc3
 2088 0cdd 01       		.uleb128 0x1
 2089 0cde 59       		.byte	0x59
 2090 0cdf 23       		.uleb128 0x23
 2091 0ce0 80020000 		.4byte	.LASF151
 2092 0ce4 01       		.byte	0x1
 2093 0ce5 A5       		.byte	0xa5
 2094 0ce6 C3000000 		.4byte	0xc3
 2095 0cea 01       		.uleb128 0x1
 2096 0ceb 58       		.byte	0x58
 2097 0cec 23       		.uleb128 0x23
 2098 0ced C9070000 		.4byte	.LASF152
 2099 0cf1 01       		.byte	0x1
 2100 0cf2 A6       		.byte	0xa6
 2101 0cf3 C3000000 		.4byte	0xc3
 2102 0cf7 01       		.uleb128 0x1
 2103 0cf8 5C       		.byte	0x5c
 2104 0cf9 23       		.uleb128 0x23
 2105 0cfa 88050000 		.4byte	.LASF175
 2106 0cfe 01       		.byte	0x1
 2107 0cff A7       		.byte	0xa7
 2108 0d00 C3000000 		.4byte	0xc3
 2109 0d04 01       		.uleb128 0x1
ARM GAS  /var/folders/m4/4md61f0s1_g0rzfghffqnxvr0000gn/T//cck7CVA7.s 			page 38


 2110 0d05 52       		.byte	0x52
 2111 0d06 24       		.uleb128 0x24
 2112 0d07 62697400 		.ascii	"bit\000"
 2113 0d0b 01       		.byte	0x1
 2114 0d0c A8       		.byte	0xa8
 2115 0d0d C3000000 		.4byte	0xc3
 2116 0d11 64000000 		.4byte	.LLST2
 2117 0d15 25       		.uleb128 0x25
 2118 0d16 C0000000 		.4byte	.Ldebug_ranges0+0xc0
 2119 0d1a 26       		.uleb128 0x26
 2120 0d1b B9010000 		.4byte	.LASF176
 2121 0d1f 01       		.byte	0x1
 2122 0d20 AB       		.byte	0xab
 2123 0d21 C3000000 		.4byte	0xc3
 2124 0d25 83000000 		.4byte	.LLST3
 2125 0d29 24       		.uleb128 0x24
 2126 0d2a 6D3100   		.ascii	"m1\000"
 2127 0d2d 01       		.byte	0x1
 2128 0d2e AB       		.byte	0xab
 2129 0d2f C3000000 		.4byte	0xc3
 2130 0d33 07010000 		.4byte	.LLST4
 2131 0d37 24       		.uleb128 0x24
 2132 0d38 6D3200   		.ascii	"m2\000"
 2133 0d3b 01       		.byte	0x1
 2134 0d3c AB       		.byte	0xab
 2135 0d3d C3000000 		.4byte	0xc3
 2136 0d41 3C010000 		.4byte	.LLST5
 2137 0d45 24       		.uleb128 0x24
 2138 0d46 6D3400   		.ascii	"m4\000"
 2139 0d49 01       		.byte	0x1
 2140 0d4a AB       		.byte	0xab
 2141 0d4b C3000000 		.4byte	0xc3
 2142 0d4f 93010000 		.4byte	.LLST6
 2143 0d53 00       		.byte	0
 2144 0d54 00       		.byte	0
 2145 0d55 27       		.uleb128 0x27
 2146 0d56 EF000000 		.4byte	.LASF177
 2147 0d5a 0E       		.byte	0xe
 2148 0d5b FA06     		.2byte	0x6fa
 2149 0d5d 610D0000 		.4byte	0xd61
 2150 0d61 0F       		.uleb128 0xf
 2151 0d62 B8000000 		.4byte	0xb8
 2152 0d66 28       		.uleb128 0x28
 2153 0d67 636800   		.ascii	"ch\000"
 2154 0d6a 06       		.byte	0x6
 2155 0d6b 0902     		.2byte	0x209
 2156 0d6d 0E040000 		.4byte	0x40e
 2157 0d71 00       		.byte	0
 2158              		.section	.debug_abbrev,"",%progbits
 2159              	.Ldebug_abbrev0:
 2160 0000 01       		.uleb128 0x1
 2161 0001 11       		.uleb128 0x11
 2162 0002 01       		.byte	0x1
 2163 0003 25       		.uleb128 0x25
 2164 0004 0E       		.uleb128 0xe
 2165 0005 13       		.uleb128 0x13
 2166 0006 0B       		.uleb128 0xb
ARM GAS  /var/folders/m4/4md61f0s1_g0rzfghffqnxvr0000gn/T//cck7CVA7.s 			page 39


 2167 0007 03       		.uleb128 0x3
 2168 0008 0E       		.uleb128 0xe
 2169 0009 1B       		.uleb128 0x1b
 2170 000a 0E       		.uleb128 0xe
 2171 000b 55       		.uleb128 0x55
 2172 000c 17       		.uleb128 0x17
 2173 000d 11       		.uleb128 0x11
 2174 000e 01       		.uleb128 0x1
 2175 000f 10       		.uleb128 0x10
 2176 0010 17       		.uleb128 0x17
 2177 0011 00       		.byte	0
 2178 0012 00       		.byte	0
 2179 0013 02       		.uleb128 0x2
 2180 0014 24       		.uleb128 0x24
 2181 0015 00       		.byte	0
 2182 0016 0B       		.uleb128 0xb
 2183 0017 0B       		.uleb128 0xb
 2184 0018 3E       		.uleb128 0x3e
 2185 0019 0B       		.uleb128 0xb
 2186 001a 03       		.uleb128 0x3
 2187 001b 08       		.uleb128 0x8
 2188 001c 00       		.byte	0
 2189 001d 00       		.byte	0
 2190 001e 03       		.uleb128 0x3
 2191 001f 24       		.uleb128 0x24
 2192 0020 00       		.byte	0
 2193 0021 0B       		.uleb128 0xb
 2194 0022 0B       		.uleb128 0xb
 2195 0023 3E       		.uleb128 0x3e
 2196 0024 0B       		.uleb128 0xb
 2197 0025 03       		.uleb128 0x3
 2198 0026 0E       		.uleb128 0xe
 2199 0027 00       		.byte	0
 2200 0028 00       		.byte	0
 2201 0029 04       		.uleb128 0x4
 2202 002a 16       		.uleb128 0x16
 2203 002b 00       		.byte	0
 2204 002c 03       		.uleb128 0x3
 2205 002d 0E       		.uleb128 0xe
 2206 002e 3A       		.uleb128 0x3a
 2207 002f 0B       		.uleb128 0xb
 2208 0030 3B       		.uleb128 0x3b
 2209 0031 0B       		.uleb128 0xb
 2210 0032 49       		.uleb128 0x49
 2211 0033 13       		.uleb128 0x13
 2212 0034 00       		.byte	0
 2213 0035 00       		.byte	0
 2214 0036 05       		.uleb128 0x5
 2215 0037 13       		.uleb128 0x13
 2216 0038 01       		.byte	0x1
 2217 0039 03       		.uleb128 0x3
 2218 003a 0E       		.uleb128 0xe
 2219 003b 0B       		.uleb128 0xb
 2220 003c 0B       		.uleb128 0xb
 2221 003d 3A       		.uleb128 0x3a
 2222 003e 0B       		.uleb128 0xb
 2223 003f 3B       		.uleb128 0x3b
ARM GAS  /var/folders/m4/4md61f0s1_g0rzfghffqnxvr0000gn/T//cck7CVA7.s 			page 40


 2224 0040 0B       		.uleb128 0xb
 2225 0041 01       		.uleb128 0x1
 2226 0042 13       		.uleb128 0x13
 2227 0043 00       		.byte	0
 2228 0044 00       		.byte	0
 2229 0045 06       		.uleb128 0x6
 2230 0046 0D       		.uleb128 0xd
 2231 0047 00       		.byte	0
 2232 0048 03       		.uleb128 0x3
 2233 0049 0E       		.uleb128 0xe
 2234 004a 3A       		.uleb128 0x3a
 2235 004b 0B       		.uleb128 0xb
 2236 004c 3B       		.uleb128 0x3b
 2237 004d 0B       		.uleb128 0xb
 2238 004e 49       		.uleb128 0x49
 2239 004f 13       		.uleb128 0x13
 2240 0050 38       		.uleb128 0x38
 2241 0051 0B       		.uleb128 0xb
 2242 0052 00       		.byte	0
 2243 0053 00       		.byte	0
 2244 0054 07       		.uleb128 0x7
 2245 0055 0D       		.uleb128 0xd
 2246 0056 00       		.byte	0
 2247 0057 03       		.uleb128 0x3
 2248 0058 08       		.uleb128 0x8
 2249 0059 3A       		.uleb128 0x3a
 2250 005a 0B       		.uleb128 0xb
 2251 005b 3B       		.uleb128 0x3b
 2252 005c 05       		.uleb128 0x5
 2253 005d 49       		.uleb128 0x49
 2254 005e 13       		.uleb128 0x13
 2255 005f 38       		.uleb128 0x38
 2256 0060 0B       		.uleb128 0xb
 2257 0061 00       		.byte	0
 2258 0062 00       		.byte	0
 2259 0063 08       		.uleb128 0x8
 2260 0064 0D       		.uleb128 0xd
 2261 0065 00       		.byte	0
 2262 0066 03       		.uleb128 0x3
 2263 0067 0E       		.uleb128 0xe
 2264 0068 3A       		.uleb128 0x3a
 2265 0069 0B       		.uleb128 0xb
 2266 006a 3B       		.uleb128 0x3b
 2267 006b 05       		.uleb128 0x5
 2268 006c 49       		.uleb128 0x49
 2269 006d 13       		.uleb128 0x13
 2270 006e 38       		.uleb128 0x38
 2271 006f 0B       		.uleb128 0xb
 2272 0070 00       		.byte	0
 2273 0071 00       		.byte	0
 2274 0072 09       		.uleb128 0x9
 2275 0073 0F       		.uleb128 0xf
 2276 0074 00       		.byte	0
 2277 0075 0B       		.uleb128 0xb
 2278 0076 0B       		.uleb128 0xb
 2279 0077 49       		.uleb128 0x49
 2280 0078 13       		.uleb128 0x13
ARM GAS  /var/folders/m4/4md61f0s1_g0rzfghffqnxvr0000gn/T//cck7CVA7.s 			page 41


 2281 0079 00       		.byte	0
 2282 007a 00       		.byte	0
 2283 007b 0A       		.uleb128 0xa
 2284 007c 13       		.uleb128 0x13
 2285 007d 01       		.byte	0x1
 2286 007e 03       		.uleb128 0x3
 2287 007f 0E       		.uleb128 0xe
 2288 0080 0B       		.uleb128 0xb
 2289 0081 0B       		.uleb128 0xb
 2290 0082 3A       		.uleb128 0x3a
 2291 0083 0B       		.uleb128 0xb
 2292 0084 3B       		.uleb128 0x3b
 2293 0085 05       		.uleb128 0x5
 2294 0086 01       		.uleb128 0x1
 2295 0087 13       		.uleb128 0x13
 2296 0088 00       		.byte	0
 2297 0089 00       		.byte	0
 2298 008a 0B       		.uleb128 0xb
 2299 008b 15       		.uleb128 0x15
 2300 008c 01       		.byte	0x1
 2301 008d 27       		.uleb128 0x27
 2302 008e 19       		.uleb128 0x19
 2303 008f 01       		.uleb128 0x1
 2304 0090 13       		.uleb128 0x13
 2305 0091 00       		.byte	0
 2306 0092 00       		.byte	0
 2307 0093 0C       		.uleb128 0xc
 2308 0094 05       		.uleb128 0x5
 2309 0095 00       		.byte	0
 2310 0096 49       		.uleb128 0x49
 2311 0097 13       		.uleb128 0x13
 2312 0098 00       		.byte	0
 2313 0099 00       		.byte	0
 2314 009a 0D       		.uleb128 0xd
 2315 009b 0F       		.uleb128 0xf
 2316 009c 00       		.byte	0
 2317 009d 0B       		.uleb128 0xb
 2318 009e 0B       		.uleb128 0xb
 2319 009f 00       		.byte	0
 2320 00a0 00       		.byte	0
 2321 00a1 0E       		.uleb128 0xe
 2322 00a2 13       		.uleb128 0x13
 2323 00a3 01       		.byte	0x1
 2324 00a4 03       		.uleb128 0x3
 2325 00a5 0E       		.uleb128 0xe
 2326 00a6 0B       		.uleb128 0xb
 2327 00a7 05       		.uleb128 0x5
 2328 00a8 3A       		.uleb128 0x3a
 2329 00a9 0B       		.uleb128 0xb
 2330 00aa 3B       		.uleb128 0x3b
 2331 00ab 05       		.uleb128 0x5
 2332 00ac 01       		.uleb128 0x1
 2333 00ad 13       		.uleb128 0x13
 2334 00ae 00       		.byte	0
 2335 00af 00       		.byte	0
 2336 00b0 0F       		.uleb128 0xf
 2337 00b1 35       		.uleb128 0x35
ARM GAS  /var/folders/m4/4md61f0s1_g0rzfghffqnxvr0000gn/T//cck7CVA7.s 			page 42


 2338 00b2 00       		.byte	0
 2339 00b3 49       		.uleb128 0x49
 2340 00b4 13       		.uleb128 0x13
 2341 00b5 00       		.byte	0
 2342 00b6 00       		.byte	0
 2343 00b7 10       		.uleb128 0x10
 2344 00b8 01       		.uleb128 0x1
 2345 00b9 01       		.byte	0x1
 2346 00ba 49       		.uleb128 0x49
 2347 00bb 13       		.uleb128 0x13
 2348 00bc 01       		.uleb128 0x1
 2349 00bd 13       		.uleb128 0x13
 2350 00be 00       		.byte	0
 2351 00bf 00       		.byte	0
 2352 00c0 11       		.uleb128 0x11
 2353 00c1 21       		.uleb128 0x21
 2354 00c2 00       		.byte	0
 2355 00c3 49       		.uleb128 0x49
 2356 00c4 13       		.uleb128 0x13
 2357 00c5 2F       		.uleb128 0x2f
 2358 00c6 0B       		.uleb128 0xb
 2359 00c7 00       		.byte	0
 2360 00c8 00       		.byte	0
 2361 00c9 12       		.uleb128 0x12
 2362 00ca 13       		.uleb128 0x13
 2363 00cb 01       		.byte	0x1
 2364 00cc 0B       		.uleb128 0xb
 2365 00cd 0B       		.uleb128 0xb
 2366 00ce 3A       		.uleb128 0x3a
 2367 00cf 0B       		.uleb128 0xb
 2368 00d0 3B       		.uleb128 0x3b
 2369 00d1 05       		.uleb128 0x5
 2370 00d2 01       		.uleb128 0x1
 2371 00d3 13       		.uleb128 0x13
 2372 00d4 00       		.byte	0
 2373 00d5 00       		.byte	0
 2374 00d6 13       		.uleb128 0x13
 2375 00d7 16       		.uleb128 0x16
 2376 00d8 00       		.byte	0
 2377 00d9 03       		.uleb128 0x3
 2378 00da 0E       		.uleb128 0xe
 2379 00db 3A       		.uleb128 0x3a
 2380 00dc 0B       		.uleb128 0xb
 2381 00dd 3B       		.uleb128 0x3b
 2382 00de 05       		.uleb128 0x5
 2383 00df 49       		.uleb128 0x49
 2384 00e0 13       		.uleb128 0x13
 2385 00e1 00       		.byte	0
 2386 00e2 00       		.byte	0
 2387 00e3 14       		.uleb128 0x14
 2388 00e4 0D       		.uleb128 0xd
 2389 00e5 00       		.byte	0
 2390 00e6 03       		.uleb128 0x3
 2391 00e7 08       		.uleb128 0x8
 2392 00e8 3A       		.uleb128 0x3a
 2393 00e9 0B       		.uleb128 0xb
 2394 00ea 3B       		.uleb128 0x3b
ARM GAS  /var/folders/m4/4md61f0s1_g0rzfghffqnxvr0000gn/T//cck7CVA7.s 			page 43


 2395 00eb 0B       		.uleb128 0xb
 2396 00ec 49       		.uleb128 0x49
 2397 00ed 13       		.uleb128 0x13
 2398 00ee 38       		.uleb128 0x38
 2399 00ef 0B       		.uleb128 0xb
 2400 00f0 00       		.byte	0
 2401 00f1 00       		.byte	0
 2402 00f2 15       		.uleb128 0x15
 2403 00f3 13       		.uleb128 0x13
 2404 00f4 01       		.byte	0x1
 2405 00f5 0B       		.uleb128 0xb
 2406 00f6 0B       		.uleb128 0xb
 2407 00f7 3A       		.uleb128 0x3a
 2408 00f8 0B       		.uleb128 0xb
 2409 00f9 3B       		.uleb128 0x3b
 2410 00fa 0B       		.uleb128 0xb
 2411 00fb 01       		.uleb128 0x1
 2412 00fc 13       		.uleb128 0x13
 2413 00fd 00       		.byte	0
 2414 00fe 00       		.byte	0
 2415 00ff 16       		.uleb128 0x16
 2416 0100 17       		.uleb128 0x17
 2417 0101 01       		.byte	0x1
 2418 0102 0B       		.uleb128 0xb
 2419 0103 0B       		.uleb128 0xb
 2420 0104 3A       		.uleb128 0x3a
 2421 0105 0B       		.uleb128 0xb
 2422 0106 3B       		.uleb128 0x3b
 2423 0107 0B       		.uleb128 0xb
 2424 0108 01       		.uleb128 0x1
 2425 0109 13       		.uleb128 0x13
 2426 010a 00       		.byte	0
 2427 010b 00       		.byte	0
 2428 010c 17       		.uleb128 0x17
 2429 010d 0D       		.uleb128 0xd
 2430 010e 00       		.byte	0
 2431 010f 03       		.uleb128 0x3
 2432 0110 0E       		.uleb128 0xe
 2433 0111 3A       		.uleb128 0x3a
 2434 0112 0B       		.uleb128 0xb
 2435 0113 3B       		.uleb128 0x3b
 2436 0114 05       		.uleb128 0x5
 2437 0115 49       		.uleb128 0x49
 2438 0116 13       		.uleb128 0x13
 2439 0117 00       		.byte	0
 2440 0118 00       		.byte	0
 2441 0119 18       		.uleb128 0x18
 2442 011a 26       		.uleb128 0x26
 2443 011b 00       		.byte	0
 2444 011c 49       		.uleb128 0x49
 2445 011d 13       		.uleb128 0x13
 2446 011e 00       		.byte	0
 2447 011f 00       		.byte	0
 2448 0120 19       		.uleb128 0x19
 2449 0121 0D       		.uleb128 0xd
 2450 0122 00       		.byte	0
 2451 0123 03       		.uleb128 0x3
ARM GAS  /var/folders/m4/4md61f0s1_g0rzfghffqnxvr0000gn/T//cck7CVA7.s 			page 44


 2452 0124 08       		.uleb128 0x8
 2453 0125 3A       		.uleb128 0x3a
 2454 0126 0B       		.uleb128 0xb
 2455 0127 3B       		.uleb128 0x3b
 2456 0128 0B       		.uleb128 0xb
 2457 0129 49       		.uleb128 0x49
 2458 012a 13       		.uleb128 0x13
 2459 012b 00       		.byte	0
 2460 012c 00       		.byte	0
 2461 012d 1A       		.uleb128 0x1a
 2462 012e 2E       		.uleb128 0x2e
 2463 012f 01       		.byte	0x1
 2464 0130 03       		.uleb128 0x3
 2465 0131 0E       		.uleb128 0xe
 2466 0132 3A       		.uleb128 0x3a
 2467 0133 0B       		.uleb128 0xb
 2468 0134 3B       		.uleb128 0x3b
 2469 0135 0B       		.uleb128 0xb
 2470 0136 27       		.uleb128 0x27
 2471 0137 19       		.uleb128 0x19
 2472 0138 20       		.uleb128 0x20
 2473 0139 0B       		.uleb128 0xb
 2474 013a 01       		.uleb128 0x1
 2475 013b 13       		.uleb128 0x13
 2476 013c 00       		.byte	0
 2477 013d 00       		.byte	0
 2478 013e 1B       		.uleb128 0x1b
 2479 013f 05       		.uleb128 0x5
 2480 0140 00       		.byte	0
 2481 0141 03       		.uleb128 0x3
 2482 0142 0E       		.uleb128 0xe
 2483 0143 3A       		.uleb128 0x3a
 2484 0144 0B       		.uleb128 0xb
 2485 0145 3B       		.uleb128 0x3b
 2486 0146 0B       		.uleb128 0xb
 2487 0147 49       		.uleb128 0x49
 2488 0148 13       		.uleb128 0x13
 2489 0149 00       		.byte	0
 2490 014a 00       		.byte	0
 2491 014b 1C       		.uleb128 0x1c
 2492 014c 2E       		.uleb128 0x2e
 2493 014d 01       		.byte	0x1
 2494 014e 3F       		.uleb128 0x3f
 2495 014f 19       		.uleb128 0x19
 2496 0150 03       		.uleb128 0x3
 2497 0151 0E       		.uleb128 0xe
 2498 0152 3A       		.uleb128 0x3a
 2499 0153 0B       		.uleb128 0xb
 2500 0154 3B       		.uleb128 0x3b
 2501 0155 0B       		.uleb128 0xb
 2502 0156 27       		.uleb128 0x27
 2503 0157 19       		.uleb128 0x19
 2504 0158 11       		.uleb128 0x11
 2505 0159 01       		.uleb128 0x1
 2506 015a 12       		.uleb128 0x12
 2507 015b 06       		.uleb128 0x6
 2508 015c 40       		.uleb128 0x40
ARM GAS  /var/folders/m4/4md61f0s1_g0rzfghffqnxvr0000gn/T//cck7CVA7.s 			page 45


 2509 015d 18       		.uleb128 0x18
 2510 015e 9742     		.uleb128 0x2117
 2511 0160 19       		.uleb128 0x19
 2512 0161 01       		.uleb128 0x1
 2513 0162 13       		.uleb128 0x13
 2514 0163 00       		.byte	0
 2515 0164 00       		.byte	0
 2516 0165 1D       		.uleb128 0x1d
 2517 0166 05       		.uleb128 0x5
 2518 0167 00       		.byte	0
 2519 0168 03       		.uleb128 0x3
 2520 0169 0E       		.uleb128 0xe
 2521 016a 3A       		.uleb128 0x3a
 2522 016b 0B       		.uleb128 0xb
 2523 016c 3B       		.uleb128 0x3b
 2524 016d 0B       		.uleb128 0xb
 2525 016e 49       		.uleb128 0x49
 2526 016f 13       		.uleb128 0x13
 2527 0170 02       		.uleb128 0x2
 2528 0171 18       		.uleb128 0x18
 2529 0172 00       		.byte	0
 2530 0173 00       		.byte	0
 2531 0174 1E       		.uleb128 0x1e
 2532 0175 1D       		.uleb128 0x1d
 2533 0176 01       		.byte	0x1
 2534 0177 31       		.uleb128 0x31
 2535 0178 13       		.uleb128 0x13
 2536 0179 52       		.uleb128 0x52
 2537 017a 01       		.uleb128 0x1
 2538 017b 55       		.uleb128 0x55
 2539 017c 17       		.uleb128 0x17
 2540 017d 58       		.uleb128 0x58
 2541 017e 0B       		.uleb128 0xb
 2542 017f 59       		.uleb128 0x59
 2543 0180 0B       		.uleb128 0xb
 2544 0181 01       		.uleb128 0x1
 2545 0182 13       		.uleb128 0x13
 2546 0183 00       		.byte	0
 2547 0184 00       		.byte	0
 2548 0185 1F       		.uleb128 0x1f
 2549 0186 05       		.uleb128 0x5
 2550 0187 00       		.byte	0
 2551 0188 31       		.uleb128 0x31
 2552 0189 13       		.uleb128 0x13
 2553 018a 02       		.uleb128 0x2
 2554 018b 18       		.uleb128 0x18
 2555 018c 00       		.byte	0
 2556 018d 00       		.byte	0
 2557 018e 20       		.uleb128 0x20
 2558 018f 05       		.uleb128 0x5
 2559 0190 00       		.byte	0
 2560 0191 31       		.uleb128 0x31
 2561 0192 13       		.uleb128 0x13
 2562 0193 1C       		.uleb128 0x1c
 2563 0194 06       		.uleb128 0x6
 2564 0195 00       		.byte	0
 2565 0196 00       		.byte	0
ARM GAS  /var/folders/m4/4md61f0s1_g0rzfghffqnxvr0000gn/T//cck7CVA7.s 			page 46


 2566 0197 21       		.uleb128 0x21
 2567 0198 1D       		.uleb128 0x1d
 2568 0199 01       		.byte	0x1
 2569 019a 31       		.uleb128 0x31
 2570 019b 13       		.uleb128 0x13
 2571 019c 52       		.uleb128 0x52
 2572 019d 01       		.uleb128 0x1
 2573 019e 55       		.uleb128 0x55
 2574 019f 17       		.uleb128 0x17
 2575 01a0 58       		.uleb128 0x58
 2576 01a1 0B       		.uleb128 0xb
 2577 01a2 59       		.uleb128 0x59
 2578 01a3 0B       		.uleb128 0xb
 2579 01a4 00       		.byte	0
 2580 01a5 00       		.byte	0
 2581 01a6 22       		.uleb128 0x22
 2582 01a7 05       		.uleb128 0x5
 2583 01a8 00       		.byte	0
 2584 01a9 03       		.uleb128 0x3
 2585 01aa 0E       		.uleb128 0xe
 2586 01ab 3A       		.uleb128 0x3a
 2587 01ac 0B       		.uleb128 0xb
 2588 01ad 3B       		.uleb128 0x3b
 2589 01ae 0B       		.uleb128 0xb
 2590 01af 49       		.uleb128 0x49
 2591 01b0 13       		.uleb128 0x13
 2592 01b1 02       		.uleb128 0x2
 2593 01b2 17       		.uleb128 0x17
 2594 01b3 00       		.byte	0
 2595 01b4 00       		.byte	0
 2596 01b5 23       		.uleb128 0x23
 2597 01b6 34       		.uleb128 0x34
 2598 01b7 00       		.byte	0
 2599 01b8 03       		.uleb128 0x3
 2600 01b9 0E       		.uleb128 0xe
 2601 01ba 3A       		.uleb128 0x3a
 2602 01bb 0B       		.uleb128 0xb
 2603 01bc 3B       		.uleb128 0x3b
 2604 01bd 0B       		.uleb128 0xb
 2605 01be 49       		.uleb128 0x49
 2606 01bf 13       		.uleb128 0x13
 2607 01c0 02       		.uleb128 0x2
 2608 01c1 18       		.uleb128 0x18
 2609 01c2 00       		.byte	0
 2610 01c3 00       		.byte	0
 2611 01c4 24       		.uleb128 0x24
 2612 01c5 34       		.uleb128 0x34
 2613 01c6 00       		.byte	0
 2614 01c7 03       		.uleb128 0x3
 2615 01c8 08       		.uleb128 0x8
 2616 01c9 3A       		.uleb128 0x3a
 2617 01ca 0B       		.uleb128 0xb
 2618 01cb 3B       		.uleb128 0x3b
 2619 01cc 0B       		.uleb128 0xb
 2620 01cd 49       		.uleb128 0x49
 2621 01ce 13       		.uleb128 0x13
 2622 01cf 02       		.uleb128 0x2
ARM GAS  /var/folders/m4/4md61f0s1_g0rzfghffqnxvr0000gn/T//cck7CVA7.s 			page 47


 2623 01d0 17       		.uleb128 0x17
 2624 01d1 00       		.byte	0
 2625 01d2 00       		.byte	0
 2626 01d3 25       		.uleb128 0x25
 2627 01d4 0B       		.uleb128 0xb
 2628 01d5 01       		.byte	0x1
 2629 01d6 55       		.uleb128 0x55
 2630 01d7 17       		.uleb128 0x17
 2631 01d8 00       		.byte	0
 2632 01d9 00       		.byte	0
 2633 01da 26       		.uleb128 0x26
 2634 01db 34       		.uleb128 0x34
 2635 01dc 00       		.byte	0
 2636 01dd 03       		.uleb128 0x3
 2637 01de 0E       		.uleb128 0xe
 2638 01df 3A       		.uleb128 0x3a
 2639 01e0 0B       		.uleb128 0xb
 2640 01e1 3B       		.uleb128 0x3b
 2641 01e2 0B       		.uleb128 0xb
 2642 01e3 49       		.uleb128 0x49
 2643 01e4 13       		.uleb128 0x13
 2644 01e5 02       		.uleb128 0x2
 2645 01e6 17       		.uleb128 0x17
 2646 01e7 00       		.byte	0
 2647 01e8 00       		.byte	0
 2648 01e9 27       		.uleb128 0x27
 2649 01ea 34       		.uleb128 0x34
 2650 01eb 00       		.byte	0
 2651 01ec 03       		.uleb128 0x3
 2652 01ed 0E       		.uleb128 0xe
 2653 01ee 3A       		.uleb128 0x3a
 2654 01ef 0B       		.uleb128 0xb
 2655 01f0 3B       		.uleb128 0x3b
 2656 01f1 05       		.uleb128 0x5
 2657 01f2 49       		.uleb128 0x49
 2658 01f3 13       		.uleb128 0x13
 2659 01f4 3F       		.uleb128 0x3f
 2660 01f5 19       		.uleb128 0x19
 2661 01f6 3C       		.uleb128 0x3c
 2662 01f7 19       		.uleb128 0x19
 2663 01f8 00       		.byte	0
 2664 01f9 00       		.byte	0
 2665 01fa 28       		.uleb128 0x28
 2666 01fb 34       		.uleb128 0x34
 2667 01fc 00       		.byte	0
 2668 01fd 03       		.uleb128 0x3
 2669 01fe 08       		.uleb128 0x8
 2670 01ff 3A       		.uleb128 0x3a
 2671 0200 0B       		.uleb128 0xb
 2672 0201 3B       		.uleb128 0x3b
 2673 0202 05       		.uleb128 0x5
 2674 0203 49       		.uleb128 0x49
 2675 0204 13       		.uleb128 0x13
 2676 0205 3F       		.uleb128 0x3f
 2677 0206 19       		.uleb128 0x19
 2678 0207 3C       		.uleb128 0x3c
 2679 0208 19       		.uleb128 0x19
ARM GAS  /var/folders/m4/4md61f0s1_g0rzfghffqnxvr0000gn/T//cck7CVA7.s 			page 48


 2680 0209 00       		.byte	0
 2681 020a 00       		.byte	0
 2682 020b 00       		.byte	0
 2683              		.section	.debug_loc,"",%progbits
 2684              	.Ldebug_loc0:
 2685              	.LLST0:
 2686 0000 00000000 		.4byte	.LVL9
 2687 0004 2E000000 		.4byte	.LVL17
 2688 0008 0100     		.2byte	0x1
 2689 000a 51       		.byte	0x51
 2690 000b 2E000000 		.4byte	.LVL17
 2691 000f 30000000 		.4byte	.LVL18
 2692 0013 0500     		.2byte	0x5
 2693 0015 71       		.byte	0x71
 2694 0016 00       		.sleb128 0
 2695 0017 31       		.byte	0x31
 2696 0018 25       		.byte	0x25
 2697 0019 9F       		.byte	0x9f
 2698 001a 30000000 		.4byte	.LVL18
 2699 001e 32000000 		.4byte	.LVL19
 2700 0022 0100     		.2byte	0x1
 2701 0024 51       		.byte	0x51
 2702 0025 44000000 		.4byte	.LVL24
 2703 0029 A2000000 		.4byte	.LVL30
 2704 002d 0100     		.2byte	0x1
 2705 002f 51       		.byte	0x51
 2706 0030 AA000000 		.4byte	.LVL32
 2707 0034 D0000000 		.4byte	.LFE270
 2708 0038 0100     		.2byte	0x1
 2709 003a 51       		.byte	0x51
 2710 003b 00000000 		.4byte	0
 2711 003f 00000000 		.4byte	0
 2712              	.LLST1:
 2713 0043 00000000 		.4byte	.LVL9
 2714 0047 1A000000 		.4byte	.LVL13
 2715 004b 0100     		.2byte	0x1
 2716 004d 52       		.byte	0x52
 2717 004e 1A000000 		.4byte	.LVL13
 2718 0052 D0000000 		.4byte	.LFE270
 2719 0056 0400     		.2byte	0x4
 2720 0058 F3       		.byte	0xf3
 2721 0059 01       		.uleb128 0x1
 2722 005a 52       		.byte	0x52
 2723 005b 9F       		.byte	0x9f
 2724 005c 00000000 		.4byte	0
 2725 0060 00000000 		.4byte	0
 2726              	.LLST2:
 2727 0064 1A000000 		.4byte	.LVL13
 2728 0068 24000000 		.4byte	.LVL14
 2729 006c 0200     		.2byte	0x2
 2730 006e 30       		.byte	0x30
 2731 006f 9F       		.byte	0x9f
 2732 0070 24000000 		.4byte	.LVL14
 2733 0074 D0000000 		.4byte	.LFE270
 2734 0078 0100     		.2byte	0x1
 2735 007a 57       		.byte	0x57
 2736 007b 00000000 		.4byte	0
ARM GAS  /var/folders/m4/4md61f0s1_g0rzfghffqnxvr0000gn/T//cck7CVA7.s 			page 49


 2737 007f 00000000 		.4byte	0
 2738              	.LLST3:
 2739 0083 24000000 		.4byte	.LVL14
 2740 0087 2C000000 		.4byte	.LVL16
 2741 008b 0100     		.2byte	0x1
 2742 008d 55       		.byte	0x55
 2743 008e 2C000000 		.4byte	.LVL16
 2744 0092 2E000000 		.4byte	.LVL17
 2745 0096 0A00     		.2byte	0xa
 2746 0098 72       		.byte	0x72
 2747 0099 00       		.sleb128 0
 2748 009a 77       		.byte	0x77
 2749 009b 00       		.sleb128 0
 2750 009c 37       		.byte	0x37
 2751 009d 1A       		.byte	0x1a
 2752 009e 32       		.byte	0x32
 2753 009f 24       		.byte	0x24
 2754 00a0 24       		.byte	0x24
 2755 00a1 9F       		.byte	0x9f
 2756 00a2 84000000 		.4byte	.LVL25
 2757 00a6 A0000000 		.4byte	.LVL29
 2758 00aa 0100     		.2byte	0x1
 2759 00ac 55       		.byte	0x55
 2760 00ad A0000000 		.4byte	.LVL29
 2761 00b1 A6000000 		.4byte	.LVL31
 2762 00b5 0A00     		.2byte	0xa
 2763 00b7 72       		.byte	0x72
 2764 00b8 00       		.sleb128 0
 2765 00b9 77       		.byte	0x77
 2766 00ba 00       		.sleb128 0
 2767 00bb 37       		.byte	0x37
 2768 00bc 1A       		.byte	0x1a
 2769 00bd 32       		.byte	0x32
 2770 00be 24       		.byte	0x24
 2771 00bf 24       		.byte	0x24
 2772 00c0 9F       		.byte	0x9f
 2773 00c1 AA000000 		.4byte	.LVL32
 2774 00c5 B6000000 		.4byte	.LVL34
 2775 00c9 0100     		.2byte	0x1
 2776 00cb 55       		.byte	0x55
 2777 00cc B6000000 		.4byte	.LVL34
 2778 00d0 C4000000 		.4byte	.LVL36
 2779 00d4 0A00     		.2byte	0xa
 2780 00d6 72       		.byte	0x72
 2781 00d7 00       		.sleb128 0
 2782 00d8 77       		.byte	0x77
 2783 00d9 00       		.sleb128 0
 2784 00da 37       		.byte	0x37
 2785 00db 1A       		.byte	0x1a
 2786 00dc 32       		.byte	0x32
 2787 00dd 24       		.byte	0x24
 2788 00de 24       		.byte	0x24
 2789 00df 9F       		.byte	0x9f
 2790 00e0 C4000000 		.4byte	.LVL36
 2791 00e4 CC000000 		.4byte	.LVL38
 2792 00e8 0100     		.2byte	0x1
 2793 00ea 55       		.byte	0x55
ARM GAS  /var/folders/m4/4md61f0s1_g0rzfghffqnxvr0000gn/T//cck7CVA7.s 			page 50


 2794 00eb CC000000 		.4byte	.LVL38
 2795 00ef D0000000 		.4byte	.LFE270
 2796 00f3 0A00     		.2byte	0xa
 2797 00f5 72       		.byte	0x72
 2798 00f6 00       		.sleb128 0
 2799 00f7 77       		.byte	0x77
 2800 00f8 00       		.sleb128 0
 2801 00f9 37       		.byte	0x37
 2802 00fa 1A       		.byte	0x1a
 2803 00fb 32       		.byte	0x32
 2804 00fc 24       		.byte	0x24
 2805 00fd 24       		.byte	0x24
 2806 00fe 9F       		.byte	0x9f
 2807 00ff 00000000 		.4byte	0
 2808 0103 00000000 		.4byte	0
 2809              	.LLST4:
 2810 0107 24000000 		.4byte	.LVL14
 2811 010b 2E000000 		.4byte	.LVL17
 2812 010f 0500     		.2byte	0x5
 2813 0111 31       		.byte	0x31
 2814 0112 77       		.byte	0x77
 2815 0113 00       		.sleb128 0
 2816 0114 24       		.byte	0x24
 2817 0115 9F       		.byte	0x9f
 2818 0116 84000000 		.4byte	.LVL25
 2819 011a A6000000 		.4byte	.LVL31
 2820 011e 0500     		.2byte	0x5
 2821 0120 31       		.byte	0x31
 2822 0121 77       		.byte	0x77
 2823 0122 00       		.sleb128 0
 2824 0123 24       		.byte	0x24
 2825 0124 9F       		.byte	0x9f
 2826 0125 AA000000 		.4byte	.LVL32
 2827 0129 D0000000 		.4byte	.LFE270
 2828 012d 0500     		.2byte	0x5
 2829 012f 31       		.byte	0x31
 2830 0130 77       		.byte	0x77
 2831 0131 00       		.sleb128 0
 2832 0132 24       		.byte	0x24
 2833 0133 9F       		.byte	0x9f
 2834 0134 00000000 		.4byte	0
 2835 0138 00000000 		.4byte	0
 2836              	.LLST5:
 2837 013c 24000000 		.4byte	.LVL14
 2838 0140 2E000000 		.4byte	.LVL17
 2839 0144 0700     		.2byte	0x7
 2840 0146 33       		.byte	0x33
 2841 0147 77       		.byte	0x77
 2842 0148 00       		.sleb128 0
 2843 0149 31       		.byte	0x31
 2844 014a 24       		.byte	0x24
 2845 014b 24       		.byte	0x24
 2846 014c 9F       		.byte	0x9f
 2847 014d 84000000 		.4byte	.LVL25
 2848 0151 8E000000 		.4byte	.LVL27
 2849 0155 0400     		.2byte	0x4
 2850 0157 74       		.byte	0x74
ARM GAS  /var/folders/m4/4md61f0s1_g0rzfghffqnxvr0000gn/T//cck7CVA7.s 			page 51


 2851 0158 00       		.sleb128 0
 2852 0159 20       		.byte	0x20
 2853 015a 9F       		.byte	0x9f
 2854 015b 8E000000 		.4byte	.LVL27
 2855 015f A6000000 		.4byte	.LVL31
 2856 0163 0700     		.2byte	0x7
 2857 0165 33       		.byte	0x33
 2858 0166 77       		.byte	0x77
 2859 0167 00       		.sleb128 0
 2860 0168 31       		.byte	0x31
 2861 0169 24       		.byte	0x24
 2862 016a 24       		.byte	0x24
 2863 016b 9F       		.byte	0x9f
 2864 016c AA000000 		.4byte	.LVL32
 2865 0170 BC000000 		.4byte	.LVL35
 2866 0174 0400     		.2byte	0x4
 2867 0176 74       		.byte	0x74
 2868 0177 00       		.sleb128 0
 2869 0178 20       		.byte	0x20
 2870 0179 9F       		.byte	0x9f
 2871 017a BC000000 		.4byte	.LVL35
 2872 017e D0000000 		.4byte	.LFE270
 2873 0182 0700     		.2byte	0x7
 2874 0184 33       		.byte	0x33
 2875 0185 77       		.byte	0x77
 2876 0186 00       		.sleb128 0
 2877 0187 31       		.byte	0x31
 2878 0188 24       		.byte	0x24
 2879 0189 24       		.byte	0x24
 2880 018a 9F       		.byte	0x9f
 2881 018b 00000000 		.4byte	0
 2882 018f 00000000 		.4byte	0
 2883              	.LLST6:
 2884 0193 24000000 		.4byte	.LVL14
 2885 0197 2A000000 		.4byte	.LVL15
 2886 019b 0100     		.2byte	0x1
 2887 019d 53       		.byte	0x53
 2888 019e 2A000000 		.4byte	.LVL15
 2889 01a2 2E000000 		.4byte	.LVL17
 2890 01a6 0A00     		.2byte	0xa
 2891 01a8 7B       		.byte	0x7b
 2892 01a9 00       		.sleb128 0
 2893 01aa 77       		.byte	0x77
 2894 01ab 00       		.sleb128 0
 2895 01ac 37       		.byte	0x37
 2896 01ad 1A       		.byte	0x1a
 2897 01ae 32       		.byte	0x32
 2898 01af 24       		.byte	0x24
 2899 01b0 24       		.byte	0x24
 2900 01b1 9F       		.byte	0x9f
 2901 01b2 88000000 		.4byte	.LVL26
 2902 01b6 9E000000 		.4byte	.LVL28
 2903 01ba 0100     		.2byte	0x1
 2904 01bc 53       		.byte	0x53
 2905 01bd 9E000000 		.4byte	.LVL28
 2906 01c1 A6000000 		.4byte	.LVL31
 2907 01c5 0A00     		.2byte	0xa
ARM GAS  /var/folders/m4/4md61f0s1_g0rzfghffqnxvr0000gn/T//cck7CVA7.s 			page 52


 2908 01c7 7B       		.byte	0x7b
 2909 01c8 00       		.sleb128 0
 2910 01c9 77       		.byte	0x77
 2911 01ca 00       		.sleb128 0
 2912 01cb 37       		.byte	0x37
 2913 01cc 1A       		.byte	0x1a
 2914 01cd 32       		.byte	0x32
 2915 01ce 24       		.byte	0x24
 2916 01cf 24       		.byte	0x24
 2917 01d0 9F       		.byte	0x9f
 2918 01d1 AA000000 		.4byte	.LVL32
 2919 01d5 B4000000 		.4byte	.LVL33
 2920 01d9 0100     		.2byte	0x1
 2921 01db 53       		.byte	0x53
 2922 01dc B4000000 		.4byte	.LVL33
 2923 01e0 C4000000 		.4byte	.LVL36
 2924 01e4 0A00     		.2byte	0xa
 2925 01e6 7B       		.byte	0x7b
 2926 01e7 00       		.sleb128 0
 2927 01e8 77       		.byte	0x77
 2928 01e9 00       		.sleb128 0
 2929 01ea 37       		.byte	0x37
 2930 01eb 1A       		.byte	0x1a
 2931 01ec 32       		.byte	0x32
 2932 01ed 24       		.byte	0x24
 2933 01ee 24       		.byte	0x24
 2934 01ef 9F       		.byte	0x9f
 2935 01f0 C4000000 		.4byte	.LVL36
 2936 01f4 CA000000 		.4byte	.LVL37
 2937 01f8 0100     		.2byte	0x1
 2938 01fa 53       		.byte	0x53
 2939 01fb CA000000 		.4byte	.LVL37
 2940 01ff D0000000 		.4byte	.LFE270
 2941 0203 0A00     		.2byte	0xa
 2942 0205 7B       		.byte	0x7b
 2943 0206 00       		.sleb128 0
 2944 0207 77       		.byte	0x77
 2945 0208 00       		.sleb128 0
 2946 0209 37       		.byte	0x37
 2947 020a 1A       		.byte	0x1a
 2948 020b 32       		.byte	0x32
 2949 020c 24       		.byte	0x24
 2950 020d 24       		.byte	0x24
 2951 020e 9F       		.byte	0x9f
 2952 020f 00000000 		.4byte	0
 2953 0213 00000000 		.4byte	0
 2954              		.section	.debug_aranges,"",%progbits
 2955 0000 24000000 		.4byte	0x24
 2956 0004 0200     		.2byte	0x2
 2957 0006 00000000 		.4byte	.Ldebug_info0
 2958 000a 04       		.byte	0x4
 2959 000b 00       		.byte	0
 2960 000c 0000     		.2byte	0
 2961 000e 0000     		.2byte	0
 2962 0010 00000000 		.4byte	.LFB269
 2963 0014 88010000 		.4byte	.LFE269-.LFB269
 2964 0018 00000000 		.4byte	.LFB270
ARM GAS  /var/folders/m4/4md61f0s1_g0rzfghffqnxvr0000gn/T//cck7CVA7.s 			page 53


 2965 001c D0000000 		.4byte	.LFE270-.LFB270
 2966 0020 00000000 		.4byte	0
 2967 0024 00000000 		.4byte	0
 2968              		.section	.debug_ranges,"",%progbits
 2969              	.Ldebug_ranges0:
 2970 0000 04000000 		.4byte	.LBB18
 2971 0004 06000000 		.4byte	.LBE18
 2972 0008 D4000000 		.4byte	.LBB47
 2973 000c FE000000 		.4byte	.LBE47
 2974 0010 00000000 		.4byte	0
 2975 0014 00000000 		.4byte	0
 2976 0018 06000000 		.4byte	.LBB21
 2977 001c 08000000 		.4byte	.LBE21
 2978 0020 FE000000 		.4byte	.LBB48
 2979 0024 28010000 		.4byte	.LBE48
 2980 0028 00000000 		.4byte	0
 2981 002c 00000000 		.4byte	0
 2982 0030 10000000 		.4byte	.LBB24
 2983 0034 14000000 		.4byte	.LBE24
 2984 0038 34000000 		.4byte	.LBB42
 2985 003c 5E000000 		.4byte	.LBE42
 2986 0040 00000000 		.4byte	0
 2987 0044 00000000 		.4byte	0
 2988 0048 14000000 		.4byte	.LBB27
 2989 004c 16000000 		.4byte	.LBE27
 2990 0050 5E000000 		.4byte	.LBB43
 2991 0054 7A000000 		.4byte	.LBE43
 2992 0058 00000000 		.4byte	0
 2993 005c 00000000 		.4byte	0
 2994 0060 16000000 		.4byte	.LBB30
 2995 0064 18000000 		.4byte	.LBE30
 2996 0068 7A000000 		.4byte	.LBB44
 2997 006c 96000000 		.4byte	.LBE44
 2998 0070 00000000 		.4byte	0
 2999 0074 00000000 		.4byte	0
 3000 0078 18000000 		.4byte	.LBB33
 3001 007c 1A000000 		.4byte	.LBE33
 3002 0080 96000000 		.4byte	.LBB45
 3003 0084 B2000000 		.4byte	.LBE45
 3004 0088 00000000 		.4byte	0
 3005 008c 00000000 		.4byte	0
 3006 0090 1A000000 		.4byte	.LBB36
 3007 0094 1C000000 		.4byte	.LBE36
 3008 0098 B2000000 		.4byte	.LBB46
 3009 009c D4000000 		.4byte	.LBE46
 3010 00a0 00000000 		.4byte	0
 3011 00a4 00000000 		.4byte	0
 3012 00a8 1C000000 		.4byte	.LBB39
 3013 00ac 20000000 		.4byte	.LBE39
 3014 00b0 28010000 		.4byte	.LBB49
 3015 00b4 88010000 		.4byte	.LBE49
 3016 00b8 00000000 		.4byte	0
 3017 00bc 00000000 		.4byte	0
 3018 00c0 1A000000 		.4byte	.LBB50
 3019 00c4 2E000000 		.4byte	.LBE50
 3020 00c8 48000000 		.4byte	.LBB51
 3021 00cc A0000000 		.4byte	.LBE51
ARM GAS  /var/folders/m4/4md61f0s1_g0rzfghffqnxvr0000gn/T//cck7CVA7.s 			page 54


 3022 00d0 A2000000 		.4byte	.LBB52
 3023 00d4 A4000000 		.4byte	.LBE52
 3024 00d8 AA000000 		.4byte	.LBB53
 3025 00dc D0000000 		.4byte	.LBE53
 3026 00e0 00000000 		.4byte	0
 3027 00e4 00000000 		.4byte	0
 3028 00e8 00000000 		.4byte	.LFB269
 3029 00ec 88010000 		.4byte	.LFE269
 3030 00f0 00000000 		.4byte	.LFB270
 3031 00f4 D0000000 		.4byte	.LFE270
 3032 00f8 00000000 		.4byte	0
 3033 00fc 00000000 		.4byte	0
 3034              		.section	.debug_line,"",%progbits
 3035              	.Ldebug_line0:
 3036 0000 10030000 		.section	.debug_str,"MS",%progbits,1
 3036      02005302 
 3036      00000201 
 3036      FB0E0D00 
 3036      01010101 
 3037              	.LASF180:
 3038 0000 2F557365 		.ascii	"/Users/raphael/Documents/pcb-quadrotor/code\000"
 3038      72732F72 
 3038      61706861 
 3038      656C2F44 
 3038      6F63756D 
 3039              	.LASF155:
 3040 002c 73746D33 		.ascii	"stm32_gpio_setup_t\000"
 3040      325F6770 
 3040      696F5F73 
 3040      65747570 
 3040      5F7400
 3041              	.LASF55:
 3042 003f 72656164 		.ascii	"ready_list_t\000"
 3042      795F6C69 
 3042      73745F74 
 3042      00
 3043              	.LASF125:
 3044 004c 77747472 		.ascii	"wttrp\000"
 3044      7000
 3045              	.LASF122:
 3046 0052 7264796D 		.ascii	"rdymsg\000"
 3046      736700
 3047              	.LASF18:
 3048 0059 75696E74 		.ascii	"uint64_t\000"
 3048      36345F74 
 3048      00
 3049              	.LASF4:
 3050 0062 5F5F7569 		.ascii	"__uint8_t\000"
 3050      6E74385F 
 3050      7400
 3051              	.LASF141:
 3052 006c 4F545950 		.ascii	"OTYPER\000"
 3052      455200
 3053              	.LASF119:
 3054 0073 706F7274 		.ascii	"port_intctx\000"
 3054      5F696E74 
 3054      63747800 
ARM GAS  /var/folders/m4/4md61f0s1_g0rzfghffqnxvr0000gn/T//cck7CVA7.s 			page 55


 3055              	.LASF74:
 3056 007f 73797374 		.ascii	"system_debug_t\000"
 3056      656D5F64 
 3056      65627567 
 3056      5F7400
 3057              	.LASF165:
 3058 008e 696F706F 		.ascii	"ioportmask_t\000"
 3058      72746D61 
 3058      736B5F74 
 3058      00
 3059              	.LASF163:
 3060 009b 50484461 		.ascii	"PHData\000"
 3060      746100
 3061              	.LASF140:
 3062 00a2 4D4F4445 		.ascii	"MODER\000"
 3062      5200
 3063              	.LASF13:
 3064 00a8 6C6F6E67 		.ascii	"long long unsigned int\000"
 3064      206C6F6E 
 3064      6720756E 
 3064      7369676E 
 3064      65642069 
 3065              	.LASF143:
 3066 00bf 50555044 		.ascii	"PUPDR\000"
 3066      5200
 3067              	.LASF123:
 3068 00c5 65786974 		.ascii	"exitcode\000"
 3068      636F6465 
 3068      00
 3069              	.LASF81:
 3070 00ce 6D61696E 		.ascii	"mainthread\000"
 3070      74687265 
 3070      616400
 3071              	.LASF71:
 3072 00d9 76697274 		.ascii	"virtual_timers_list_t\000"
 3072      75616C5F 
 3072      74696D65 
 3072      72735F6C 
 3072      6973745F 
 3073              	.LASF177:
 3074 00ef 49544D5F 		.ascii	"ITM_RxBuffer\000"
 3074      52784275 
 3074      66666572 
 3074      00
 3075              	.LASF54:
 3076 00fc 63685F74 		.ascii	"ch_threads_queue\000"
 3076      68726561 
 3076      64735F71 
 3076      75657565 
 3076      00
 3077              	.LASF100:
 3078 010d 41484231 		.ascii	"AHB1LPENR\000"
 3078      4C50454E 
 3078      5200
 3079              	.LASF32:
 3080 0117 705F7072 		.ascii	"p_prio\000"
 3080      696F00
ARM GAS  /var/folders/m4/4md61f0s1_g0rzfghffqnxvr0000gn/T//cck7CVA7.s 			page 56


 3081              	.LASF112:
 3082 011e 44434B43 		.ascii	"DCKCFGR\000"
 3082      46475200 
 3083              	.LASF11:
 3084 0126 6C6F6E67 		.ascii	"long long int\000"
 3084      206C6F6E 
 3084      6720696E 
 3084      7400
 3085              	.LASF1:
 3086 0134 7369676E 		.ascii	"signed char\000"
 3086      65642063 
 3086      68617200 
 3087              	.LASF144:
 3088 0140 42535252 		.ascii	"BSRR\000"
 3088      00
 3089              	.LASF86:
 3090 0145 41484231 		.ascii	"AHB1RSTR\000"
 3090      52535452 
 3090      00
 3091              	.LASF114:
 3092 014e 44434B43 		.ascii	"DCKCFGR2\000"
 3092      46475232 
 3092      00
 3093              	.LASF48:
 3094 0157 705F6D70 		.ascii	"p_mpool\000"
 3094      6F6F6C00 
 3095              	.LASF133:
 3096 015f 6D5F7175 		.ascii	"m_queue\000"
 3096      65756500 
 3097              	.LASF149:
 3098 0167 6D6F6465 		.ascii	"moder\000"
 3098      7200
 3099              	.LASF23:
 3100 016d 74736C69 		.ascii	"tslices_t\000"
 3100      6365735F 
 3100      7400
 3101              	.LASF115:
 3102 0177 5243435F 		.ascii	"RCC_TypeDef\000"
 3102      54797065 
 3102      44656600 
 3103              	.LASF78:
 3104 0183 63685F73 		.ascii	"ch_system\000"
 3104      79737465 
 3104      6D00
 3105              	.LASF8:
 3106 018d 6C6F6E67 		.ascii	"long int\000"
 3106      20696E74 
 3106      00
 3107              	.LASF160:
 3108 0196 50454461 		.ascii	"PEData\000"
 3108      746100
 3109              	.LASF91:
 3110 019d 41504232 		.ascii	"APB2RSTR\000"
 3110      52535452 
 3110      00
 3111              	.LASF104:
 3112 01a6 41504231 		.ascii	"APB1LPENR\000"
ARM GAS  /var/folders/m4/4md61f0s1_g0rzfghffqnxvr0000gn/T//cck7CVA7.s 			page 57


 3112      4C50454E 
 3112      5200
 3113              	.LASF21:
 3114 01b0 74737461 		.ascii	"tstate_t\000"
 3114      74655F74 
 3114      00
 3115              	.LASF176:
 3116 01b9 616C7472 		.ascii	"altrmask\000"
 3116      6D61736B 
 3116      00
 3117              	.LASF34:
 3118 01c2 705F6E65 		.ascii	"p_newer\000"
 3118      77657200 
 3119              	.LASF84:
 3120 01ca 504C4C43 		.ascii	"PLLCFGR\000"
 3120      46475200 
 3121              	.LASF142:
 3122 01d2 4F535045 		.ascii	"OSPEEDR\000"
 3122      45445200 
 3123              	.LASF60:
 3124 01da 725F6E65 		.ascii	"r_newer\000"
 3124      77657200 
 3125              	.LASF173:
 3126 01e2 6D61736B 		.ascii	"mask\000"
 3126      00
 3127              	.LASF116:
 3128 01e7 72656761 		.ascii	"regarm_t\000"
 3128      726D5F74 
 3128      00
 3129              	.LASF67:
 3130 01f0 76745F70 		.ascii	"vt_prev\000"
 3130      72657600 
 3131              	.LASF80:
 3132 01f8 76746C69 		.ascii	"vtlist\000"
 3132      737400
 3133              	.LASF148:
 3134 01ff 73746D33 		.ascii	"stm32_gpio_t\000"
 3134      325F6770 
 3134      696F5F74 
 3134      00
 3135              	.LASF172:
 3136 020c 706F7274 		.ascii	"port\000"
 3136      00
 3137              	.LASF137:
 3138 0211 6D757465 		.ascii	"mutex_t\000"
 3138      785F7400 
 3139              	.LASF157:
 3140 0219 50424461 		.ascii	"PBData\000"
 3140      746100
 3141              	.LASF82:
 3142 0220 69646C65 		.ascii	"idle_thread_wa\000"
 3142      5F746872 
 3142      6561645F 
 3142      776100
 3143              	.LASF27:
 3144 022f 636E745F 		.ascii	"cnt_t\000"
 3144      7400
ARM GAS  /var/folders/m4/4md61f0s1_g0rzfghffqnxvr0000gn/T//cck7CVA7.s 			page 58


 3145              	.LASF0:
 3146 0235 756E7369 		.ascii	"unsigned int\000"
 3146      676E6564 
 3146      20696E74 
 3146      00
 3147              	.LASF66:
 3148 0242 76745F6E 		.ascii	"vt_next\000"
 3148      65787400 
 3149              	.LASF15:
 3150 024a 75696E74 		.ascii	"uint16_t\000"
 3150      31365F74 
 3150      00
 3151              	.LASF41:
 3152 0253 705F7469 		.ascii	"p_time\000"
 3152      6D6500
 3153              	.LASF126:
 3154 025a 77747365 		.ascii	"wtsemp\000"
 3154      6D7000
 3155              	.LASF73:
 3156 0261 76745F73 		.ascii	"vt_systime\000"
 3156      79737469 
 3156      6D6500
 3157              	.LASF68:
 3158 026c 76745F64 		.ascii	"vt_delta\000"
 3158      656C7461 
 3158      00
 3159              	.LASF43:
 3160 0275 705F6D73 		.ascii	"p_msgqueue\000"
 3160      67717565 
 3160      756500
 3161              	.LASF151:
 3162 0280 6F737065 		.ascii	"ospeedr\000"
 3162      65647200 
 3163              	.LASF145:
 3164 0288 4C434B52 		.ascii	"LCKR\000"
 3164      00
 3165              	.LASF150:
 3166 028d 6F747970 		.ascii	"otyper\000"
 3166      657200
 3167              	.LASF6:
 3168 0294 73686F72 		.ascii	"short unsigned int\000"
 3168      7420756E 
 3168      7369676E 
 3168      65642069 
 3168      6E7400
 3169              	.LASF161:
 3170 02a7 50464461 		.ascii	"PFData\000"
 3170      746100
 3171              	.LASF51:
 3172 02ae 63685F74 		.ascii	"ch_thread\000"
 3172      68726561 
 3172      6400
 3173              	.LASF110:
 3174 02b8 504C4C49 		.ascii	"PLLI2SCFGR\000"
 3174      32534346 
 3174      475200
 3175              	.LASF25:
ARM GAS  /var/folders/m4/4md61f0s1_g0rzfghffqnxvr0000gn/T//cck7CVA7.s 			page 59


 3176 02c3 6D73675F 		.ascii	"msg_t\000"
 3176      7400
 3177              	.LASF88:
 3178 02c9 41484233 		.ascii	"AHB3RSTR\000"
 3178      52535452 
 3178      00
 3179              	.LASF77:
 3180 02d2 63685F73 		.ascii	"ch_system_t\000"
 3180      79737465 
 3180      6D5F7400 
 3181              	.LASF20:
 3182 02de 746D6F64 		.ascii	"tmode_t\000"
 3182      655F7400 
 3183              	.LASF105:
 3184 02e6 41504232 		.ascii	"APB2LPENR\000"
 3184      4C50454E 
 3184      5200
 3185              	.LASF56:
 3186 02f0 63685F72 		.ascii	"ch_ready_list\000"
 3186      65616479 
 3186      5F6C6973 
 3186      7400
 3187              	.LASF26:
 3188 02fe 6576656E 		.ascii	"eventmask_t\000"
 3188      746D6173 
 3188      6B5F7400 
 3189              	.LASF7:
 3190 030a 5F5F696E 		.ascii	"__int32_t\000"
 3190      7433325F 
 3190      7400
 3191              	.LASF162:
 3192 0314 50474461 		.ascii	"PGData\000"
 3192      746100
 3193              	.LASF117:
 3194 031b 73746B61 		.ascii	"stkalign_t\000"
 3194      6C69676E 
 3194      5F7400
 3195              	.LASF50:
 3196 0326 74687265 		.ascii	"threads_list_t\000"
 3196      6164735F 
 3196      6C697374 
 3196      5F7400
 3197              	.LASF64:
 3198 0335 76697274 		.ascii	"virtual_timer_t\000"
 3198      75616C5F 
 3198      74696D65 
 3198      725F7400 
 3199              	.LASF42:
 3200 0345 705F7761 		.ascii	"p_waiting\000"
 3200      6974696E 
 3200      6700
 3201              	.LASF83:
 3202 034f 73697A65 		.ascii	"sizetype\000"
 3202      74797065 
 3202      00
 3203              	.LASF49:
 3204 0358 74687265 		.ascii	"thread_reference_t\000"
ARM GAS  /var/folders/m4/4md61f0s1_g0rzfghffqnxvr0000gn/T//cck7CVA7.s 			page 60


 3204      61645F72 
 3204      65666572 
 3204      656E6365 
 3204      5F7400
 3205              	.LASF72:
 3206 036b 63685F76 		.ascii	"ch_virtual_timers_list\000"
 3206      69727475 
 3206      616C5F74 
 3206      696D6572 
 3206      735F6C69 
 3207              	.LASF139:
 3208 0382 636C6561 		.ascii	"clear\000"
 3208      7200
 3209              	.LASF30:
 3210 0388 705F6E65 		.ascii	"p_next\000"
 3210      787400
 3211              	.LASF95:
 3212 038f 41484233 		.ascii	"AHB3ENR\000"
 3212      454E5200 
 3213              	.LASF35:
 3214 0397 705F6F6C 		.ascii	"p_older\000"
 3214      64657200 
 3215              	.LASF59:
 3216 039f 725F6374 		.ascii	"r_ctx\000"
 3216      7800
 3217              	.LASF101:
 3218 03a5 41484232 		.ascii	"AHB2LPENR\000"
 3218      4C50454E 
 3218      5200
 3219              	.LASF121:
 3220 03af 746D5F63 		.ascii	"tm_calibration_t\000"
 3220      616C6962 
 3220      72617469 
 3220      6F6E5F74 
 3220      00
 3221              	.LASF154:
 3222 03c0 61667268 		.ascii	"afrh\000"
 3222      00
 3223              	.LASF159:
 3224 03c5 50444461 		.ascii	"PDData\000"
 3224      746100
 3225              	.LASF62:
 3226 03cc 725F6375 		.ascii	"r_current\000"
 3226      7272656E 
 3226      7400
 3227              	.LASF90:
 3228 03d6 41504231 		.ascii	"APB1RSTR\000"
 3228      52535452 
 3228      00
 3229              	.LASF12:
 3230 03df 5F5F7569 		.ascii	"__uint64_t\000"
 3230      6E743634 
 3230      5F7400
 3231              	.LASF147:
 3232 03ea 41465248 		.ascii	"AFRH\000"
 3232      00
 3233              	.LASF146:
ARM GAS  /var/folders/m4/4md61f0s1_g0rzfghffqnxvr0000gn/T//cck7CVA7.s 			page 61


 3234 03ef 4146524C 		.ascii	"AFRL\000"
 3234      00
 3235              	.LASF111:
 3236 03f4 504C4C53 		.ascii	"PLLSAICFGR\000"
 3236      41494346 
 3236      475200
 3237              	.LASF22:
 3238 03ff 74726566 		.ascii	"trefs_t\000"
 3238      735F7400 
 3239              	.LASF89:
 3240 0407 52455345 		.ascii	"RESERVED0\000"
 3240      52564544 
 3240      3000
 3241              	.LASF92:
 3242 0411 52455345 		.ascii	"RESERVED1\000"
 3242      52564544 
 3242      3100
 3243              	.LASF96:
 3244 041b 52455345 		.ascii	"RESERVED2\000"
 3244      52564544 
 3244      3200
 3245              	.LASF99:
 3246 0425 52455345 		.ascii	"RESERVED3\000"
 3246      52564544 
 3246      3300
 3247              	.LASF103:
 3248 042f 52455345 		.ascii	"RESERVED4\000"
 3248      52564544 
 3248      3400
 3249              	.LASF31:
 3250 0439 705F7072 		.ascii	"p_prev\000"
 3250      657600
 3251              	.LASF108:
 3252 0440 52455345 		.ascii	"RESERVED6\000"
 3252      52564544 
 3252      3600
 3253              	.LASF24:
 3254 044a 74707269 		.ascii	"tprio_t\000"
 3254      6F5F7400 
 3255              	.LASF75:
 3256 0452 63685F73 		.ascii	"ch_system_debug\000"
 3256      79737465 
 3256      6D5F6465 
 3256      62756700 
 3257              	.LASF138:
 3258 0462 5F426F6F 		.ascii	"_Bool\000"
 3258      6C00
 3259              	.LASF16:
 3260 0468 696E7433 		.ascii	"int32_t\000"
 3260      325F7400 
 3261              	.LASF2:
 3262 0470 756E7369 		.ascii	"unsigned char\000"
 3262      676E6564 
 3262      20636861 
 3262      7200
 3263              	.LASF179:
 3264 047e 43686962 		.ascii	"ChibiOS_16.1.4/os/hal/ports/STM32/LLD/GPIOv2/pal_ll"
ARM GAS  /var/folders/m4/4md61f0s1_g0rzfghffqnxvr0000gn/T//cck7CVA7.s 			page 62


 3264      694F535F 
 3264      31362E31 
 3264      2E342F6F 
 3264      732F6861 
 3265 04b1 642E6300 		.ascii	"d.c\000"
 3266              	.LASF153:
 3267 04b5 6166726C 		.ascii	"afrl\000"
 3267      00
 3268              	.LASF131:
 3269 04ba 735F636E 		.ascii	"s_cnt\000"
 3269      7400
 3270              	.LASF46:
 3271 04c0 705F6D74 		.ascii	"p_mtxlist\000"
 3271      786C6973 
 3271      7400
 3272              	.LASF3:
 3273 04ca 73686F72 		.ascii	"short int\000"
 3273      7420696E 
 3273      7400
 3274              	.LASF37:
 3275 04d4 705F7374 		.ascii	"p_state\000"
 3275      61746500 
 3276              	.LASF40:
 3277 04dc 705F7072 		.ascii	"p_preempt\000"
 3277      65656D70 
 3277      7400
 3278              	.LASF102:
 3279 04e6 41484233 		.ascii	"AHB3LPENR\000"
 3279      4C50454E 
 3279      5200
 3280              	.LASF58:
 3281 04f0 725F7072 		.ascii	"r_prio\000"
 3281      696F00
 3282              	.LASF156:
 3283 04f7 50414461 		.ascii	"PAData\000"
 3283      746100
 3284              	.LASF128:
 3285 04fe 65776D61 		.ascii	"ewmask\000"
 3285      736B00
 3286              	.LASF38:
 3287 0505 705F666C 		.ascii	"p_flags\000"
 3287      61677300 
 3288              	.LASF168:
 3289 050d 6770696F 		.ascii	"gpiop\000"
 3289      7000
 3290              	.LASF98:
 3291 0513 41504232 		.ascii	"APB2ENR\000"
 3291      454E5200 
 3292              	.LASF65:
 3293 051b 63685F76 		.ascii	"ch_virtual_timer\000"
 3293      69727475 
 3293      616C5F74 
 3293      696D6572 
 3293      00
 3294              	.LASF129:
 3295 052c 63685F73 		.ascii	"ch_semaphore\000"
 3295      656D6170 
ARM GAS  /var/folders/m4/4md61f0s1_g0rzfghffqnxvr0000gn/T//cck7CVA7.s 			page 63


 3295      686F7265 
 3295      00
 3296              	.LASF45:
 3297 0539 705F6570 		.ascii	"p_epending\000"
 3297      656E6469 
 3297      6E6700
 3298              	.LASF106:
 3299 0544 52455345 		.ascii	"RESERVED5\000"
 3299      52564544 
 3299      3500
 3300              	.LASF17:
 3301 054e 75696E74 		.ascii	"uint32_t\000"
 3301      33325F74 
 3301      00
 3302              	.LASF127:
 3303 0557 77746D74 		.ascii	"wtmtxp\000"
 3303      787000
 3304              	.LASF57:
 3305 055e 725F7175 		.ascii	"r_queue\000"
 3305      65756500 
 3306              	.LASF52:
 3307 0566 63685F74 		.ascii	"ch_threads_list\000"
 3307      68726561 
 3307      64735F6C 
 3307      69737400 
 3308              	.LASF10:
 3309 0576 6C6F6E67 		.ascii	"long unsigned int\000"
 3309      20756E73 
 3309      69676E65 
 3309      6420696E 
 3309      7400
 3310              	.LASF175:
 3311 0588 616C7472 		.ascii	"altr\000"
 3311      00
 3312              	.LASF136:
 3313 058d 63686172 		.ascii	"char\000"
 3313      00
 3314              	.LASF174:
 3315 0592 6D6F6465 		.ascii	"mode\000"
 3315      00
 3316              	.LASF169:
 3317 0597 636F6E66 		.ascii	"config\000"
 3317      696700
 3318              	.LASF5:
 3319 059e 5F5F7569 		.ascii	"__uint16_t\000"
 3319      6E743136 
 3319      5F7400
 3320              	.LASF87:
 3321 05a9 41484232 		.ascii	"AHB2RSTR\000"
 3321      52535452 
 3321      00
 3322              	.LASF29:
 3323 05b2 74687265 		.ascii	"thread_t\000"
 3323      61645F74 
 3323      00
 3324              	.LASF135:
 3325 05bb 6D5F6E65 		.ascii	"m_next\000"
ARM GAS  /var/folders/m4/4md61f0s1_g0rzfghffqnxvr0000gn/T//cck7CVA7.s 			page 64


 3325      787400
 3326              	.LASF28:
 3327 05c2 73797374 		.ascii	"systime_t\000"
 3327      696D655F 
 3327      7400
 3328              	.LASF47:
 3329 05cc 705F7265 		.ascii	"p_realprio\000"
 3329      616C7072 
 3329      696F00
 3330              	.LASF63:
 3331 05d7 76746675 		.ascii	"vtfunc_t\000"
 3331      6E635F74 
 3331      00
 3332              	.LASF9:
 3333 05e0 5F5F7569 		.ascii	"__uint32_t\000"
 3333      6E743332 
 3333      5F7400
 3334              	.LASF181:
 3335 05eb 696E6974 		.ascii	"initgpio\000"
 3335      6770696F 
 3335      00
 3336              	.LASF178:
 3337 05f4 474E5520 		.ascii	"GNU C 4.9.3 20150529 (release) [ARM/embedded-4_9-br"
 3337      4320342E 
 3337      392E3320 
 3337      32303135 
 3337      30353239 
 3338 0627 616E6368 		.ascii	"anch revision 224288] -mcpu=cortex-m4 -mfloat-abi=h"
 3338      20726576 
 3338      6973696F 
 3338      6E203232 
 3338      34323838 
 3339 065a 61726420 		.ascii	"ard -mfpu=fpv4-sp-d16 -mno-thumb-interwork -mthumb "
 3339      2D6D6670 
 3339      753D6670 
 3339      76342D73 
 3339      702D6431 
 3340 068d 2D676764 		.ascii	"-ggdb -O2 -std=gnu99 -fomit-frame-pointer -falign-f"
 3340      62202D4F 
 3340      32202D73 
 3340      74643D67 
 3340      6E753939 
 3341 06c0 756E6374 		.ascii	"unctions=16 -ffunction-sections -fdata-sections -fn"
 3341      696F6E73 
 3341      3D313620 
 3341      2D666675 
 3341      6E637469 
 3342 06f3 6F2D636F 		.ascii	"o-common -fsingle-precision-constant\000"
 3342      6D6D6F6E 
 3342      202D6673 
 3342      696E676C 
 3342      652D7072 
 3343              	.LASF76:
 3344 0718 70616E69 		.ascii	"panic_msg\000"
 3344      635F6D73 
 3344      6700
 3345              	.LASF120:
ARM GAS  /var/folders/m4/4md61f0s1_g0rzfghffqnxvr0000gn/T//cck7CVA7.s 			page 65


 3346 0722 6F666673 		.ascii	"offset\000"
 3346      657400
 3347              	.LASF97:
 3348 0729 41504231 		.ascii	"APB1ENR\000"
 3348      454E5200 
 3349              	.LASF167:
 3350 0731 696F706F 		.ascii	"ioportid_t\000"
 3350      72746964 
 3350      5F7400
 3351              	.LASF94:
 3352 073c 41484232 		.ascii	"AHB2ENR\000"
 3352      454E5200 
 3353              	.LASF118:
 3354 0744 636F6E74 		.ascii	"context\000"
 3354      65787400 
 3355              	.LASF61:
 3356 074c 725F6F6C 		.ascii	"r_older\000"
 3356      64657200 
 3357              	.LASF171:
 3358 0754 5F70616C 		.ascii	"_pal_lld_setgroupmode\000"
 3358      5F6C6C64 
 3358      5F736574 
 3358      67726F75 
 3358      706D6F64 
 3359              	.LASF19:
 3360 076a 7274636E 		.ascii	"rtcnt_t\000"
 3360      745F7400 
 3361              	.LASF70:
 3362 0772 76745F70 		.ascii	"vt_par\000"
 3362      617200
 3363              	.LASF109:
 3364 0779 53534347 		.ascii	"SSCGR\000"
 3364      5200
 3365              	.LASF53:
 3366 077f 74687265 		.ascii	"threads_queue_t\000"
 3366      6164735F 
 3366      71756575 
 3366      655F7400 
 3367              	.LASF132:
 3368 078f 63685F6D 		.ascii	"ch_mutex\000"
 3368      75746578 
 3368      00
 3369              	.LASF39:
 3370 0798 705F7265 		.ascii	"p_refs\000"
 3370      667300
 3371              	.LASF170:
 3372 079f 5F70616C 		.ascii	"_pal_lld_init\000"
 3372      5F6C6C64 
 3372      5F696E69 
 3372      7400
 3373              	.LASF113:
 3374 07ad 434B4741 		.ascii	"CKGATENR\000"
 3374      54454E52 
 3374      00
 3375              	.LASF107:
 3376 07b6 42444352 		.ascii	"BDCR\000"
 3376      00
ARM GAS  /var/folders/m4/4md61f0s1_g0rzfghffqnxvr0000gn/T//cck7CVA7.s 			page 66


 3377              	.LASF79:
 3378 07bb 726C6973 		.ascii	"rlist\000"
 3378      7400
 3379              	.LASF14:
 3380 07c1 75696E74 		.ascii	"uint8_t\000"
 3380      385F7400 
 3381              	.LASF152:
 3382 07c9 70757064 		.ascii	"pupdr\000"
 3382      7200
 3383              	.LASF124:
 3384 07cf 77746F62 		.ascii	"wtobjp\000"
 3384      6A7000
 3385              	.LASF36:
 3386 07d6 705F6E61 		.ascii	"p_name\000"
 3386      6D6500
 3387              	.LASF93:
 3388 07dd 41484231 		.ascii	"AHB1ENR\000"
 3388      454E5200 
 3389              	.LASF158:
 3390 07e5 50434461 		.ascii	"PCData\000"
 3390      746100
 3391              	.LASF85:
 3392 07ec 43464752 		.ascii	"CFGR\000"
 3392      00
 3393              	.LASF130:
 3394 07f1 735F7175 		.ascii	"s_queue\000"
 3394      65756500 
 3395              	.LASF44:
 3396 07f9 705F6D73 		.ascii	"p_msg\000"
 3396      6700
 3397              	.LASF166:
 3398 07ff 696F6D6F 		.ascii	"iomode_t\000"
 3398      64655F74 
 3398      00
 3399              	.LASF164:
 3400 0808 50414C43 		.ascii	"PALConfig\000"
 3400      6F6E6669 
 3400      6700
 3401              	.LASF134:
 3402 0812 6D5F6F77 		.ascii	"m_owner\000"
 3402      6E657200 
 3403              	.LASF33:
 3404 081a 705F6374 		.ascii	"p_ctx\000"
 3404      7800
 3405              	.LASF69:
 3406 0820 76745F66 		.ascii	"vt_func\000"
 3406      756E6300 
 3407              		.ident	"GCC: (GNU Tools for ARM Embedded Processors) 4.9.3 20150529 (release) [ARM/embedded-4_9-br
ARM GAS  /var/folders/m4/4md61f0s1_g0rzfghffqnxvr0000gn/T//cck7CVA7.s 			page 67


DEFINED SYMBOLS
                            *ABS*:0000000000000000 pal_lld.c
/var/folders/m4/4md61f0s1_g0rzfghffqnxvr0000gn/T//cck7CVA7.s:21     .text._pal_lld_init:0000000000000000 $t
/var/folders/m4/4md61f0s1_g0rzfghffqnxvr0000gn/T//cck7CVA7.s:27     .text._pal_lld_init:0000000000000000 _pal_lld_init
/var/folders/m4/4md61f0s1_g0rzfghffqnxvr0000gn/T//cck7CVA7.s:308    .text._pal_lld_init:0000000000000164 $d
/var/folders/m4/4md61f0s1_g0rzfghffqnxvr0000gn/T//cck7CVA7.s:323    .text._pal_lld_setgroupmode:0000000000000000 $t
/var/folders/m4/4md61f0s1_g0rzfghffqnxvr0000gn/T//cck7CVA7.s:329    .text._pal_lld_setgroupmode:0000000000000000 _pal_lld_setgroupmode
                     .debug_frame:0000000000000010 $d

NO UNDEFINED SYMBOLS
