ARM GAS  /var/folders/m4/4md61f0s1_g0rzfghffqnxvr0000gn/T//cczNOeW9.s 			page 1


   1              		.syntax unified
   2              		.cpu cortex-m4
   3              		.eabi_attribute 27, 1
   4              		.eabi_attribute 28, 1
   5              		.fpu fpv4-sp-d16
   6              		.eabi_attribute 20, 1
   7              		.eabi_attribute 21, 1
   8              		.eabi_attribute 23, 3
   9              		.eabi_attribute 24, 1
  10              		.eabi_attribute 25, 1
  11              		.eabi_attribute 26, 1
  12              		.eabi_attribute 30, 2
  13              		.eabi_attribute 34, 1
  14              		.eabi_attribute 18, 4
  15              		.thumb
  16              		.syntax unified
  17              		.file	"pal_lld.c"
  18              		.text
  19              	.Ltext0:
  20              		.cfi_sections	.debug_frame
  21              		.section	.text._pal_lld_init,"ax",%progbits
  22              		.align	2
  23              		.p2align 4,,15
  24              		.global	_pal_lld_init
  25              		.thumb
  26              		.thumb_func
  27              		.type	_pal_lld_init, %function
  28              	_pal_lld_init:
  29              	.LFB269:
  30              		.file 1 "ChibiOS_16.1.4/os/hal/ports/STM32/LLD/GPIOv2/pal_lld.c"
  31              		.loc 1 88 0
  32              		.cfi_startproc
  33              		@ args = 0, pretend = 0, frame = 0
  34              		@ frame_needed = 0, uses_anonymous_args = 0
  35              		@ link register save eliminated.
  36              	.LVL0:
  37 0000 F0B4     		push	{r4, r5, r6, r7}
  38              		.cfi_def_cfa_offset 16
  39              		.cfi_offset 4, -16
  40              		.cfi_offset 5, -12
  41              		.cfi_offset 6, -8
  42              		.cfi_offset 7, -4
  43              		.loc 1 104 0
  44 0002 544E     		ldr	r6, .L3
  45              	.LBB18:
  46              	.LBB19:
  47              		.loc 1 63 0
  48 0004 544D     		ldr	r5, .L3+4
  49              	.LBE19:
  50              	.LBE18:
  51              		.loc 1 104 0
  52 0006 376B     		ldr	r7, [r6, #48]
  53              	.LBB21:
  54              	.LBB22:
  55              		.loc 1 63 0
  56 0008 544C     		ldr	r4, .L3+8
  57              	.LBE22:
ARM GAS  /var/folders/m4/4md61f0s1_g0rzfghffqnxvr0000gn/T//cczNOeW9.s 			page 2


  58              	.LBE21:
  59              	.LBB24:
  60              	.LBB25:
  61 000a 5549     		ldr	r1, .L3+12
  62              	.LBE25:
  63              	.LBE24:
  64              	.LBB27:
  65              	.LBB28:
  66 000c 554A     		ldr	r2, .L3+16
  67              	.LBE28:
  68              	.LBE27:
  69              	.LBB30:
  70              	.LBB31:
  71 000e 564B     		ldr	r3, .L3+20
  72              	.LBE31:
  73              	.LBE30:
  74              		.loc 1 104 0
  75 0010 47F0FF07 		orr	r7, r7, #255
  76 0014 3763     		str	r7, [r6, #48]
  77              		.loc 1 105 0
  78 0016 376D     		ldr	r7, [r6, #80]
  79 0018 47F0FF07 		orr	r7, r7, #255
  80 001c 3765     		str	r7, [r6, #80]
  81              	.LVL1:
  82              	.LBB33:
  83              	.LBB20:
  84              		.loc 1 63 0
  85 001e 4668     		ldr	r6, [r0, #4]
  86 0020 6E60     		str	r6, [r5, #4]
  87              		.loc 1 64 0
  88 0022 8668     		ldr	r6, [r0, #8]
  89 0024 AE60     		str	r6, [r5, #8]
  90              		.loc 1 65 0
  91 0026 C668     		ldr	r6, [r0, #12]
  92 0028 EE60     		str	r6, [r5, #12]
  93              		.loc 1 66 0
  94 002a 0669     		ldr	r6, [r0, #16]
  95 002c 6E61     		str	r6, [r5, #20]
  96              		.loc 1 67 0
  97 002e 4669     		ldr	r6, [r0, #20]
  98 0030 2E62     		str	r6, [r5, #32]
  99              		.loc 1 68 0
 100 0032 8669     		ldr	r6, [r0, #24]
 101 0034 6E62     		str	r6, [r5, #36]
 102              		.loc 1 69 0
 103 0036 0668     		ldr	r6, [r0]
 104 0038 2E60     		str	r6, [r5]
 105              	.LVL2:
 106              	.LBE20:
 107              	.LBE33:
 108              	.LBB34:
 109              	.LBB23:
 110              		.loc 1 63 0
 111 003a 056A     		ldr	r5, [r0, #32]
 112 003c 6560     		str	r5, [r4, #4]
 113              		.loc 1 64 0
 114 003e 456A     		ldr	r5, [r0, #36]
ARM GAS  /var/folders/m4/4md61f0s1_g0rzfghffqnxvr0000gn/T//cczNOeW9.s 			page 3


 115 0040 A560     		str	r5, [r4, #8]
 116              		.loc 1 65 0
 117 0042 856A     		ldr	r5, [r0, #40]
 118 0044 E560     		str	r5, [r4, #12]
 119              		.loc 1 66 0
 120 0046 C56A     		ldr	r5, [r0, #44]
 121 0048 6561     		str	r5, [r4, #20]
 122              		.loc 1 67 0
 123 004a 056B     		ldr	r5, [r0, #48]
 124 004c 2562     		str	r5, [r4, #32]
 125              		.loc 1 68 0
 126 004e 456B     		ldr	r5, [r0, #52]
 127 0050 6562     		str	r5, [r4, #36]
 128              		.loc 1 69 0
 129 0052 C569     		ldr	r5, [r0, #28]
 130 0054 2560     		str	r5, [r4]
 131              	.LVL3:
 132              	.LBE23:
 133              	.LBE34:
 134              	.LBB35:
 135              	.LBB26:
 136              		.loc 1 63 0
 137 0056 C46B     		ldr	r4, [r0, #60]
 138 0058 4C60     		str	r4, [r1, #4]
 139              		.loc 1 64 0
 140 005a 046C     		ldr	r4, [r0, #64]
 141 005c 8C60     		str	r4, [r1, #8]
 142              		.loc 1 65 0
 143 005e 446C     		ldr	r4, [r0, #68]
 144 0060 CC60     		str	r4, [r1, #12]
 145              		.loc 1 66 0
 146 0062 846C     		ldr	r4, [r0, #72]
 147 0064 4C61     		str	r4, [r1, #20]
 148              		.loc 1 67 0
 149 0066 C46C     		ldr	r4, [r0, #76]
 150 0068 0C62     		str	r4, [r1, #32]
 151              		.loc 1 68 0
 152 006a 046D     		ldr	r4, [r0, #80]
 153 006c 4C62     		str	r4, [r1, #36]
 154              		.loc 1 69 0
 155 006e 846B     		ldr	r4, [r0, #56]
 156 0070 0C60     		str	r4, [r1]
 157              	.LVL4:
 158              	.LBE26:
 159              	.LBE35:
 160              	.LBB36:
 161              	.LBB29:
 162              		.loc 1 63 0
 163 0072 816D     		ldr	r1, [r0, #88]
 164 0074 5160     		str	r1, [r2, #4]
 165              		.loc 1 64 0
 166 0076 C16D     		ldr	r1, [r0, #92]
 167 0078 9160     		str	r1, [r2, #8]
 168              		.loc 1 65 0
 169 007a 016E     		ldr	r1, [r0, #96]
 170 007c D160     		str	r1, [r2, #12]
 171              		.loc 1 66 0
ARM GAS  /var/folders/m4/4md61f0s1_g0rzfghffqnxvr0000gn/T//cczNOeW9.s 			page 4


 172 007e 416E     		ldr	r1, [r0, #100]
 173 0080 5161     		str	r1, [r2, #20]
 174              		.loc 1 67 0
 175 0082 816E     		ldr	r1, [r0, #104]
 176 0084 1162     		str	r1, [r2, #32]
 177              		.loc 1 68 0
 178 0086 C16E     		ldr	r1, [r0, #108]
 179 0088 5162     		str	r1, [r2, #36]
 180              		.loc 1 69 0
 181 008a 416D     		ldr	r1, [r0, #84]
 182 008c 1160     		str	r1, [r2]
 183              	.LVL5:
 184              	.LBE29:
 185              	.LBE36:
 186              	.LBB37:
 187              	.LBB32:
 188              		.loc 1 63 0
 189 008e 426F     		ldr	r2, [r0, #116]
 190 0090 5A60     		str	r2, [r3, #4]
 191              		.loc 1 64 0
 192 0092 826F     		ldr	r2, [r0, #120]
 193 0094 9A60     		str	r2, [r3, #8]
 194              		.loc 1 65 0
 195 0096 C26F     		ldr	r2, [r0, #124]
 196 0098 DA60     		str	r2, [r3, #12]
 197              		.loc 1 66 0
 198 009a D0F88020 		ldr	r2, [r0, #128]
 199 009e 5A61     		str	r2, [r3, #20]
 200              		.loc 1 67 0
 201 00a0 D0F88420 		ldr	r2, [r0, #132]
 202 00a4 1A62     		str	r2, [r3, #32]
 203              		.loc 1 68 0
 204 00a6 D0F88820 		ldr	r2, [r0, #136]
 205 00aa 5A62     		str	r2, [r3, #36]
 206              		.loc 1 69 0
 207 00ac 026F     		ldr	r2, [r0, #112]
 208 00ae 1A60     		str	r2, [r3]
 209              	.LVL6:
 210              	.LBE32:
 211              	.LBE37:
 212              	.LBB38:
 213              	.LBB39:
 214              		.loc 1 63 0
 215 00b0 03F58063 		add	r3, r3, #1024
 216 00b4 D0F89020 		ldr	r2, [r0, #144]
 217 00b8 5A60     		str	r2, [r3, #4]
 218              		.loc 1 64 0
 219 00ba D0F89420 		ldr	r2, [r0, #148]
 220 00be 9A60     		str	r2, [r3, #8]
 221              		.loc 1 65 0
 222 00c0 D0F89820 		ldr	r2, [r0, #152]
 223 00c4 DA60     		str	r2, [r3, #12]
 224              		.loc 1 66 0
 225 00c6 D0F89C20 		ldr	r2, [r0, #156]
 226 00ca 5A61     		str	r2, [r3, #20]
 227              		.loc 1 67 0
 228 00cc D0F8A020 		ldr	r2, [r0, #160]
ARM GAS  /var/folders/m4/4md61f0s1_g0rzfghffqnxvr0000gn/T//cczNOeW9.s 			page 5


 229 00d0 1A62     		str	r2, [r3, #32]
 230              		.loc 1 68 0
 231 00d2 D0F8A420 		ldr	r2, [r0, #164]
 232 00d6 5A62     		str	r2, [r3, #36]
 233              		.loc 1 69 0
 234 00d8 D0F88C20 		ldr	r2, [r0, #140]
 235 00dc 1A60     		str	r2, [r3]
 236              	.LVL7:
 237              	.LBE39:
 238              	.LBE38:
 239              	.LBB40:
 240              	.LBB41:
 241              		.loc 1 63 0
 242 00de D0F8AC20 		ldr	r2, [r0, #172]
 243 00e2 C3F80424 		str	r2, [r3, #1028]
 244              		.loc 1 64 0
 245 00e6 D0F8B020 		ldr	r2, [r0, #176]
 246 00ea C3F80824 		str	r2, [r3, #1032]
 247              		.loc 1 65 0
 248 00ee D0F8B420 		ldr	r2, [r0, #180]
 249 00f2 C3F80C24 		str	r2, [r3, #1036]
 250              		.loc 1 66 0
 251 00f6 D0F8B820 		ldr	r2, [r0, #184]
 252 00fa C3F81424 		str	r2, [r3, #1044]
 253              		.loc 1 67 0
 254 00fe D0F8BC20 		ldr	r2, [r0, #188]
 255 0102 C3F82024 		str	r2, [r3, #1056]
 256              		.loc 1 68 0
 257 0106 D0F8C020 		ldr	r2, [r0, #192]
 258 010a C3F82424 		str	r2, [r3, #1060]
 259              		.loc 1 69 0
 260 010e D0F8A820 		ldr	r2, [r0, #168]
 261 0112 C3F80024 		str	r2, [r3, #1024]
 262              	.LVL8:
 263              	.LBE41:
 264              	.LBE40:
 265              	.LBB42:
 266              	.LBB43:
 267              		.loc 1 63 0
 268 0116 D0F8C820 		ldr	r2, [r0, #200]
 269 011a C3F80428 		str	r2, [r3, #2052]
 270              		.loc 1 64 0
 271 011e D0F8CC20 		ldr	r2, [r0, #204]
 272 0122 C3F80828 		str	r2, [r3, #2056]
 273              		.loc 1 65 0
 274 0126 D0F8D020 		ldr	r2, [r0, #208]
 275 012a C3F80C28 		str	r2, [r3, #2060]
 276              		.loc 1 66 0
 277 012e D0F8D420 		ldr	r2, [r0, #212]
 278 0132 C3F81428 		str	r2, [r3, #2068]
 279              		.loc 1 67 0
 280 0136 D0F8D820 		ldr	r2, [r0, #216]
 281 013a C3F82028 		str	r2, [r3, #2080]
 282              		.loc 1 68 0
 283 013e D0F8DC20 		ldr	r2, [r0, #220]
 284 0142 C3F82428 		str	r2, [r3, #2084]
 285              		.loc 1 69 0
ARM GAS  /var/folders/m4/4md61f0s1_g0rzfghffqnxvr0000gn/T//cczNOeW9.s 			page 6


 286 0146 D0F8C420 		ldr	r2, [r0, #196]
 287 014a C3F80028 		str	r2, [r3, #2048]
 288              	.LVL9:
 289              	.LBE43:
 290              	.LBE42:
 291              		.loc 1 144 0
 292 014e F0BC     		pop	{r4, r5, r6, r7}
 293              		.cfi_restore 7
 294              		.cfi_restore 6
 295              		.cfi_restore 5
 296              		.cfi_restore 4
 297              		.cfi_def_cfa_offset 0
 298 0150 7047     		bx	lr
 299              	.L4:
 300 0152 00BF     		.align	2
 301              	.L3:
 302 0154 00380240 		.word	1073887232
 303 0158 00000240 		.word	1073872896
 304 015c 00040240 		.word	1073873920
 305 0160 00080240 		.word	1073874944
 306 0164 000C0240 		.word	1073875968
 307 0168 00100240 		.word	1073876992
 308              		.cfi_endproc
 309              	.LFE269:
 310              		.size	_pal_lld_init, .-_pal_lld_init
 311              		.section	.text._pal_lld_setgroupmode,"ax",%progbits
 312              		.align	2
 313              		.p2align 4,,15
 314              		.global	_pal_lld_setgroupmode
 315              		.thumb
 316              		.thumb_func
 317              		.type	_pal_lld_setgroupmode, %function
 318              	_pal_lld_setgroupmode:
 319              	.LFB270:
 320              		.loc 1 161 0
 321              		.cfi_startproc
 322              		@ args = 0, pretend = 0, frame = 0
 323              		@ frame_needed = 0, uses_anonymous_args = 0
 324              	.LVL10:
 325 0000 2DE9F04F 		push	{r4, r5, r6, r7, r8, r9, r10, fp, lr}
 326              		.cfi_def_cfa_offset 36
 327              		.cfi_offset 4, -36
 328              		.cfi_offset 5, -32
 329              		.cfi_offset 6, -28
 330              		.cfi_offset 7, -24
 331              		.cfi_offset 8, -20
 332              		.cfi_offset 9, -16
 333              		.cfi_offset 10, -12
 334              		.cfi_offset 11, -8
 335              		.cfi_offset 14, -4
 336              		.loc 1 166 0
 337 0004 C2F3411C 		ubfx	ip, r2, #5, #2
 338              		.loc 1 163 0
 339 0008 02F0030E 		and	lr, r2, #3
 340              	.LVL11:
 341              		.loc 1 164 0
 342 000c C2F38009 		ubfx	r9, r2, #2, #1
ARM GAS  /var/folders/m4/4md61f0s1_g0rzfghffqnxvr0000gn/T//cczNOeW9.s 			page 7


 343              	.LVL12:
 344              		.loc 1 165 0
 345 0010 C2F3C108 		ubfx	r8, r2, #3, #2
 346              	.LVL13:
 347              		.loc 1 168 0
 348 0014 0027     		movs	r7, #0
 349              		.loc 1 167 0
 350 0016 C2F3C312 		ubfx	r2, r2, #7, #4
 351              	.LVL14:
 352              	.LBB44:
 353              		.loc 1 176 0
 354 001a 4FF00F0B 		mov	fp, #15
 355              		.loc 1 177 0
 356 001e 4FF0010A 		mov	r10, #1
 357 0022 0FE0     		b	.L12
 358              	.LVL15:
 359              	.L19:
 360              		.loc 1 194 0
 361 0024 046A     		ldr	r4, [r0, #32]
 362 0026 24EA0303 		bic	r3, r4, r3
 363              	.LVL16:
 364 002a 1D43     		orrs	r5, r5, r3
 365              	.LVL17:
 366 002c 0562     		str	r5, [r0, #32]
 367              	.LVL18:
 368              	.L6:
 369              	.LBE44:
 370              		.loc 1 200 0
 371 002e 4908     		lsrs	r1, r1, #1
 372              	.LVL19:
 373 0030 39D0     		beq	.L5
 374              	.LVL20:
 375              	.L20:
 376              		.loc 1 202 0
 377 0032 4FEA4909 		lsl	r9, r9, #1
 378              	.LVL21:
 379              		.loc 1 203 0
 380 0036 4FEA8808 		lsl	r8, r8, #2
 381              	.LVL22:
 382              		.loc 1 204 0
 383 003a 4FEA8C0C 		lsl	ip, ip, #2
 384              	.LVL23:
 385              		.loc 1 205 0
 386 003e 4FEA8E0E 		lsl	lr, lr, #2
 387              	.LVL24:
 388              		.loc 1 206 0
 389 0042 0137     		adds	r7, r7, #1
 390              	.LVL25:
 391              	.L12:
 392              		.loc 1 170 0
 393 0044 CB07     		lsls	r3, r1, #31
 394 0046 F2D5     		bpl	.L6
 395              	.LBB45:
 396              		.loc 1 177 0
 397 0048 4368     		ldr	r3, [r0, #4]
 398 004a 0AFA07F4 		lsl	r4, r10, r7
 399 004e 23EA0403 		bic	r3, r3, r4
ARM GAS  /var/folders/m4/4md61f0s1_g0rzfghffqnxvr0000gn/T//cczNOeW9.s 			page 8


 400 0052 43EA0903 		orr	r3, r3, r9
 401 0056 4360     		str	r3, [r0, #4]
 402              		.loc 1 178 0
 403 0058 0325     		movs	r5, #3
 404 005a 7C00     		lsls	r4, r7, #1
 405 005c 8368     		ldr	r3, [r0, #8]
 406 005e 05FA04F4 		lsl	r4, r5, r4
 407 0062 E443     		mvns	r4, r4
 408 0064 2340     		ands	r3, r3, r4
 409 0066 43EA0803 		orr	r3, r3, r8
 410 006a 8360     		str	r3, [r0, #8]
 411              		.loc 1 179 0
 412 006c C568     		ldr	r5, [r0, #12]
 413              		.loc 1 173 0
 414 006e 07F00703 		and	r3, r7, #7
 415              		.loc 1 179 0
 416 0072 2540     		ands	r5, r5, r4
 417 0074 45EA0C05 		orr	r5, r5, ip
 418              		.loc 1 173 0
 419 0078 9B00     		lsls	r3, r3, #2
 420              		.loc 1 180 0
 421 007a BEF1020F 		cmp	lr, #2
 422              		.loc 1 179 0
 423 007e C560     		str	r5, [r0, #12]
 424              		.loc 1 173 0
 425 0080 02FA03F5 		lsl	r5, r2, r3
 426              	.LVL26:
 427              		.loc 1 176 0
 428 0084 0BFA03F3 		lsl	r3, fp, r3
 429              	.LVL27:
 430              		.loc 1 180 0
 431 0088 0FD0     		beq	.L18
 432              		.loc 1 192 0
 433 008a 0668     		ldr	r6, [r0]
 434 008c 3440     		ands	r4, r4, r6
 435              	.LVL28:
 436 008e 44EA0E04 		orr	r4, r4, lr
 437              		.loc 1 193 0
 438 0092 072F     		cmp	r7, #7
 439              		.loc 1 192 0
 440 0094 0460     		str	r4, [r0]
 441              		.loc 1 193 0
 442 0096 C5D9     		bls	.L19
 443              		.loc 1 196 0
 444 0098 446A     		ldr	r4, [r0, #36]
 445 009a 24EA0303 		bic	r3, r4, r3
 446              	.LVL29:
 447 009e 1D43     		orrs	r5, r5, r3
 448              	.LVL30:
 449              	.LBE45:
 450              		.loc 1 200 0
 451 00a0 4908     		lsrs	r1, r1, #1
 452              	.LVL31:
 453              	.LBB46:
 454              		.loc 1 196 0
 455 00a2 4562     		str	r5, [r0, #36]
 456              	.LBE46:
ARM GAS  /var/folders/m4/4md61f0s1_g0rzfghffqnxvr0000gn/T//cczNOeW9.s 			page 9


 457              		.loc 1 200 0
 458 00a4 C5D1     		bne	.L20
 459              	.LVL32:
 460              	.L5:
 461 00a6 BDE8F08F 		pop	{r4, r5, r6, r7, r8, r9, r10, fp, pc}
 462              	.LVL33:
 463              	.L18:
 464              	.LBB47:
 465              		.loc 1 183 0
 466 00aa 072F     		cmp	r7, #7
 467 00ac 0AD8     		bhi	.L8
 468              		.loc 1 184 0
 469 00ae 066A     		ldr	r6, [r0, #32]
 470 00b0 26EA0303 		bic	r3, r6, r3
 471              	.LVL34:
 472 00b4 1D43     		orrs	r5, r5, r3
 473              	.LVL35:
 474 00b6 0562     		str	r5, [r0, #32]
 475              	.L9:
 476              		.loc 1 187 0
 477 00b8 0368     		ldr	r3, [r0]
 478 00ba 1C40     		ands	r4, r4, r3
 479              	.LVL36:
 480 00bc 44F00204 		orr	r4, r4, #2
 481 00c0 0460     		str	r4, [r0]
 482 00c2 B4E7     		b	.L6
 483              	.LVL37:
 484              	.L8:
 485              		.loc 1 186 0
 486 00c4 466A     		ldr	r6, [r0, #36]
 487 00c6 26EA0303 		bic	r3, r6, r3
 488              	.LVL38:
 489 00ca 1D43     		orrs	r5, r5, r3
 490              	.LVL39:
 491 00cc 4562     		str	r5, [r0, #36]
 492 00ce F3E7     		b	.L9
 493              	.LBE47:
 494              		.cfi_endproc
 495              	.LFE270:
 496              		.size	_pal_lld_setgroupmode, .-_pal_lld_setgroupmode
 497              		.text
 498              	.Letext0:
 499              		.file 2 "/opt/homebrew-cask/Caskroom/gcc-arm-embedded/5_2-2015q4,20151219/gcc-arm-none-eabi-5_2-20
 500              		.file 3 "/opt/homebrew-cask/Caskroom/gcc-arm-embedded/5_2-2015q4,20151219/gcc-arm-none-eabi-5_2-20
 501              		.file 4 "ChibiOS_16.1.4/os/rt/ports/ARMCMx/compilers/GCC/chtypes.h"
 502              		.file 5 "ChibiOS_16.1.4/os/rt/include/chsystypes.h"
 503              		.file 6 "ChibiOS_16.1.4/os/rt/include/chschd.h"
 504              		.file 7 "ChibiOS_16.1.4/os/ext/CMSIS/ST/STM32F4xx/stm32f446xx.h"
 505              		.file 8 "ChibiOS_16.1.4/os/rt/ports/ARMCMx/chcore.h"
 506              		.file 9 "ChibiOS_16.1.4/os/rt/ports/ARMCMx/chcore_v7m.h"
 507              		.file 10 "ChibiOS_16.1.4/os/rt/include/chtm.h"
 508              		.file 11 "ChibiOS_16.1.4/os/rt/include/chsem.h"
 509              		.file 12 "ChibiOS_16.1.4/os/rt/include/chmtx.h"
 510              		.file 13 "ChibiOS_16.1.4/os/hal/ports/STM32/LLD/GPIOv2/pal_lld.h"
 511              		.file 14 "ChibiOS_16.1.4/os/ext/CMSIS/include/core_cm4.h"
 512              		.section	.debug_info,"",%progbits
 513              	.Ldebug_info0:
ARM GAS  /var/folders/m4/4md61f0s1_g0rzfghffqnxvr0000gn/T//cczNOeW9.s 			page 10


 514 0000 6B0D0000 		.4byte	0xd6b
 515 0004 0400     		.2byte	0x4
 516 0006 00000000 		.4byte	.Ldebug_abbrev0
 517 000a 04       		.byte	0x4
 518 000b 01       		.uleb128 0x1
 519 000c 9B050000 		.4byte	.LASF178
 520 0010 0C       		.byte	0xc
 521 0011 87040000 		.4byte	.LASF179
 522 0015 27020000 		.4byte	.LASF180
 523 0019 A0000000 		.4byte	.Ldebug_ranges0+0xa0
 524 001d 00000000 		.4byte	0
 525 0021 00000000 		.4byte	.Ldebug_line0
 526 0025 02       		.uleb128 0x2
 527 0026 04       		.byte	0x4
 528 0027 05       		.byte	0x5
 529 0028 696E7400 		.ascii	"int\000"
 530 002c 03       		.uleb128 0x3
 531 002d 04       		.byte	0x4
 532 002e 07       		.byte	0x7
 533 002f 09020000 		.4byte	.LASF0
 534 0033 03       		.uleb128 0x3
 535 0034 01       		.byte	0x1
 536 0035 06       		.byte	0x6
 537 0036 08010000 		.4byte	.LASF1
 538 003a 04       		.uleb128 0x4
 539 003b 36000000 		.4byte	.LASF4
 540 003f 02       		.byte	0x2
 541 0040 1D       		.byte	0x1d
 542 0041 45000000 		.4byte	0x45
 543 0045 03       		.uleb128 0x3
 544 0046 01       		.byte	0x1
 545 0047 08       		.byte	0x8
 546 0048 79040000 		.4byte	.LASF2
 547 004c 03       		.uleb128 0x3
 548 004d 02       		.byte	0x2
 549 004e 05       		.byte	0x5
 550 004f D3040000 		.4byte	.LASF3
 551 0053 04       		.uleb128 0x4
 552 0054 A8060000 		.4byte	.LASF5
 553 0058 02       		.byte	0x2
 554 0059 2B       		.byte	0x2b
 555 005a 5E000000 		.4byte	0x5e
 556 005e 03       		.uleb128 0x3
 557 005f 02       		.byte	0x2
 558 0060 07       		.byte	0x7
 559 0061 9D020000 		.4byte	.LASF6
 560 0065 04       		.uleb128 0x4
 561 0066 13030000 		.4byte	.LASF7
 562 006a 02       		.byte	0x2
 563 006b 3F       		.byte	0x3f
 564 006c 70000000 		.4byte	0x70
 565 0070 03       		.uleb128 0x3
 566 0071 04       		.byte	0x4
 567 0072 05       		.byte	0x5
 568 0073 61010000 		.4byte	.LASF8
 569 0077 04       		.uleb128 0x4
 570 0078 EA060000 		.4byte	.LASF9
ARM GAS  /var/folders/m4/4md61f0s1_g0rzfghffqnxvr0000gn/T//cczNOeW9.s 			page 11


 571 007c 02       		.byte	0x2
 572 007d 41       		.byte	0x41
 573 007e 82000000 		.4byte	0x82
 574 0082 03       		.uleb128 0x3
 575 0083 04       		.byte	0x4
 576 0084 07       		.byte	0x7
 577 0085 7F050000 		.4byte	.LASF10
 578 0089 03       		.uleb128 0x3
 579 008a 08       		.byte	0x8
 580 008b 05       		.byte	0x5
 581 008c FA000000 		.4byte	.LASF11
 582 0090 04       		.uleb128 0x4
 583 0091 E8030000 		.4byte	.LASF12
 584 0095 02       		.byte	0x2
 585 0096 5B       		.byte	0x5b
 586 0097 9B000000 		.4byte	0x9b
 587 009b 03       		.uleb128 0x3
 588 009c 08       		.byte	0x8
 589 009d 07       		.byte	0x7
 590 009e 7C000000 		.4byte	.LASF13
 591 00a2 04       		.uleb128 0x4
 592 00a3 AC070000 		.4byte	.LASF14
 593 00a7 03       		.byte	0x3
 594 00a8 14       		.byte	0x14
 595 00a9 3A000000 		.4byte	0x3a
 596 00ad 04       		.uleb128 0x4
 597 00ae 1E020000 		.4byte	.LASF15
 598 00b2 03       		.byte	0x3
 599 00b3 1A       		.byte	0x1a
 600 00b4 53000000 		.4byte	0x53
 601 00b8 04       		.uleb128 0x4
 602 00b9 71040000 		.4byte	.LASF16
 603 00bd 03       		.byte	0x3
 604 00be 1F       		.byte	0x1f
 605 00bf 65000000 		.4byte	0x65
 606 00c3 04       		.uleb128 0x4
 607 00c4 57050000 		.4byte	.LASF17
 608 00c8 03       		.byte	0x3
 609 00c9 20       		.byte	0x20
 610 00ca 77000000 		.4byte	0x77
 611 00ce 04       		.uleb128 0x4
 612 00cf 2D000000 		.4byte	.LASF18
 613 00d3 03       		.byte	0x3
 614 00d4 26       		.byte	0x26
 615 00d5 90000000 		.4byte	0x90
 616 00d9 04       		.uleb128 0x4
 617 00da 50070000 		.4byte	.LASF19
 618 00de 04       		.byte	0x4
 619 00df 39       		.byte	0x39
 620 00e0 C3000000 		.4byte	0xc3
 621 00e4 04       		.uleb128 0x4
 622 00e5 E7020000 		.4byte	.LASF20
 623 00e9 04       		.byte	0x4
 624 00ea 3C       		.byte	0x3c
 625 00eb A2000000 		.4byte	0xa2
 626 00ef 04       		.uleb128 0x4
 627 00f0 84010000 		.4byte	.LASF21
ARM GAS  /var/folders/m4/4md61f0s1_g0rzfghffqnxvr0000gn/T//cczNOeW9.s 			page 12


 628 00f4 04       		.byte	0x4
 629 00f5 3D       		.byte	0x3d
 630 00f6 A2000000 		.4byte	0xa2
 631 00fa 04       		.uleb128 0x4
 632 00fb 08040000 		.4byte	.LASF22
 633 00ff 04       		.byte	0x4
 634 0100 3E       		.byte	0x3e
 635 0101 A2000000 		.4byte	0xa2
 636 0105 04       		.uleb128 0x4
 637 0106 41010000 		.4byte	.LASF23
 638 010a 04       		.byte	0x4
 639 010b 3F       		.byte	0x3f
 640 010c A2000000 		.4byte	0xa2
 641 0110 04       		.uleb128 0x4
 642 0111 53040000 		.4byte	.LASF24
 643 0115 04       		.byte	0x4
 644 0116 40       		.byte	0x40
 645 0117 C3000000 		.4byte	0xc3
 646 011b 04       		.uleb128 0x4
 647 011c CC020000 		.4byte	.LASF25
 648 0120 04       		.byte	0x4
 649 0121 41       		.byte	0x41
 650 0122 B8000000 		.4byte	0xb8
 651 0126 04       		.uleb128 0x4
 652 0127 07030000 		.4byte	.LASF26
 653 012b 04       		.byte	0x4
 654 012c 43       		.byte	0x43
 655 012d C3000000 		.4byte	0xc3
 656 0131 04       		.uleb128 0x4
 657 0132 03020000 		.4byte	.LASF27
 658 0136 04       		.byte	0x4
 659 0137 45       		.byte	0x45
 660 0138 B8000000 		.4byte	0xb8
 661 013c 04       		.uleb128 0x4
 662 013d CC060000 		.4byte	.LASF28
 663 0141 05       		.byte	0x5
 664 0142 33       		.byte	0x33
 665 0143 C3000000 		.4byte	0xc3
 666 0147 04       		.uleb128 0x4
 667 0148 BC060000 		.4byte	.LASF29
 668 014c 05       		.byte	0x5
 669 014d 3F       		.byte	0x3f
 670 014e 52010000 		.4byte	0x152
 671 0152 05       		.uleb128 0x5
 672 0153 B7020000 		.4byte	.LASF51
 673 0157 48       		.byte	0x48
 674 0158 06       		.byte	0x6
 675 0159 C2       		.byte	0xc2
 676 015a 57020000 		.4byte	0x257
 677 015e 06       		.uleb128 0x6
 678 015f 91030000 		.4byte	.LASF30
 679 0163 06       		.byte	0x6
 680 0164 C3       		.byte	0xc3
 681 0165 62020000 		.4byte	0x262
 682 0169 00       		.byte	0
 683 016a 06       		.uleb128 0x6
 684 016b 42040000 		.4byte	.LASF31
ARM GAS  /var/folders/m4/4md61f0s1_g0rzfghffqnxvr0000gn/T//cczNOeW9.s 			page 13


 685 016f 06       		.byte	0x6
 686 0170 C5       		.byte	0xc5
 687 0171 62020000 		.4byte	0x262
 688 0175 04       		.byte	0x4
 689 0176 06       		.uleb128 0x6
 690 0177 EB000000 		.4byte	.LASF32
 691 017b 06       		.byte	0x6
 692 017c C7       		.byte	0xc7
 693 017d 10010000 		.4byte	0x110
 694 0181 08       		.byte	0x8
 695 0182 06       		.uleb128 0x6
 696 0183 05080000 		.4byte	.LASF33
 697 0187 06       		.byte	0x6
 698 0188 C8       		.byte	0xc8
 699 0189 76060000 		.4byte	0x676
 700 018d 0C       		.byte	0xc
 701 018e 06       		.uleb128 0x6
 702 018f 96010000 		.4byte	.LASF34
 703 0193 06       		.byte	0x6
 704 0194 CA       		.byte	0xca
 705 0195 62020000 		.4byte	0x262
 706 0199 10       		.byte	0x10
 707 019a 06       		.uleb128 0x6
 708 019b A0030000 		.4byte	.LASF35
 709 019f 06       		.byte	0x6
 710 01a0 CB       		.byte	0xcb
 711 01a1 62020000 		.4byte	0x262
 712 01a5 14       		.byte	0x14
 713 01a6 06       		.uleb128 0x6
 714 01a7 C1070000 		.4byte	.LASF36
 715 01ab 06       		.byte	0x6
 716 01ac D2       		.byte	0xd2
 717 01ad C4080000 		.4byte	0x8c4
 718 01b1 18       		.byte	0x18
 719 01b2 06       		.uleb128 0x6
 720 01b3 DD040000 		.4byte	.LASF37
 721 01b7 06       		.byte	0x6
 722 01b8 DD       		.byte	0xdd
 723 01b9 EF000000 		.4byte	0xef
 724 01bd 1C       		.byte	0x1c
 725 01be 06       		.uleb128 0x6
 726 01bf 0E050000 		.4byte	.LASF38
 727 01c3 06       		.byte	0x6
 728 01c4 E1       		.byte	0xe1
 729 01c5 E4000000 		.4byte	0xe4
 730 01c9 1D       		.byte	0x1d
 731 01ca 06       		.uleb128 0x6
 732 01cb 7E070000 		.4byte	.LASF39
 733 01cf 06       		.byte	0x6
 734 01d0 E6       		.byte	0xe6
 735 01d1 FA000000 		.4byte	0xfa
 736 01d5 1E       		.byte	0x1e
 737 01d6 06       		.uleb128 0x6
 738 01d7 E5040000 		.4byte	.LASF40
 739 01db 06       		.byte	0x6
 740 01dc EC       		.byte	0xec
 741 01dd 05010000 		.4byte	0x105
ARM GAS  /var/folders/m4/4md61f0s1_g0rzfghffqnxvr0000gn/T//cczNOeW9.s 			page 14


 742 01e1 1F       		.byte	0x1f
 743 01e2 06       		.uleb128 0x6
 744 01e3 5C020000 		.4byte	.LASF41
 745 01e7 06       		.byte	0x6
 746 01e8 F3       		.byte	0xf3
 747 01e9 D6080000 		.4byte	0x8d6
 748 01ed 20       		.byte	0x20
 749 01ee 07       		.uleb128 0x7
 750 01ef 705F7500 		.ascii	"p_u\000"
 751 01f3 06       		.byte	0x6
 752 01f4 3101     		.2byte	0x131
 753 01f6 FF070000 		.4byte	0x7ff
 754 01fa 24       		.byte	0x24
 755 01fb 08       		.uleb128 0x8
 756 01fc 4E030000 		.4byte	.LASF42
 757 0200 06       		.byte	0x6
 758 0201 3601     		.2byte	0x136
 759 0203 68020000 		.4byte	0x268
 760 0207 28       		.byte	0x28
 761 0208 08       		.uleb128 0x8
 762 0209 7E020000 		.4byte	.LASF43
 763 020d 06       		.byte	0x6
 764 020e 3C01     		.2byte	0x13c
 765 0210 8C020000 		.4byte	0x28c
 766 0214 2C       		.byte	0x2c
 767 0215 08       		.uleb128 0x8
 768 0216 E4070000 		.4byte	.LASF44
 769 021a 06       		.byte	0x6
 770 021b 4001     		.2byte	0x140
 771 021d 1B010000 		.4byte	0x11b
 772 0221 34       		.byte	0x34
 773 0222 08       		.uleb128 0x8
 774 0223 42050000 		.4byte	.LASF45
 775 0227 06       		.byte	0x6
 776 0228 4601     		.2byte	0x146
 777 022a 26010000 		.4byte	0x126
 778 022e 38       		.byte	0x38
 779 022f 08       		.uleb128 0x8
 780 0230 C9040000 		.4byte	.LASF46
 781 0234 06       		.byte	0x6
 782 0235 4D01     		.2byte	0x14d
 783 0237 BE080000 		.4byte	0x8be
 784 023b 3C       		.byte	0x3c
 785 023c 08       		.uleb128 0x8
 786 023d D6060000 		.4byte	.LASF47
 787 0241 06       		.byte	0x6
 788 0242 5101     		.2byte	0x151
 789 0244 10010000 		.4byte	0x110
 790 0248 40       		.byte	0x40
 791 0249 08       		.uleb128 0x8
 792 024a 2B010000 		.4byte	.LASF48
 793 024e 06       		.byte	0x6
 794 024f 5801     		.2byte	0x158
 795 0251 3F030000 		.4byte	0x33f
 796 0255 44       		.byte	0x44
 797 0256 00       		.byte	0
 798 0257 04       		.uleb128 0x4
ARM GAS  /var/folders/m4/4md61f0s1_g0rzfghffqnxvr0000gn/T//cczNOeW9.s 			page 15


 799 0258 61030000 		.4byte	.LASF49
 800 025c 05       		.byte	0x5
 801 025d 44       		.byte	0x44
 802 025e 62020000 		.4byte	0x262
 803 0262 09       		.uleb128 0x9
 804 0263 04       		.byte	0x4
 805 0264 47010000 		.4byte	0x147
 806 0268 04       		.uleb128 0x4
 807 0269 2F030000 		.4byte	.LASF50
 808 026d 05       		.byte	0x5
 809 026e 49       		.byte	0x49
 810 026f 73020000 		.4byte	0x273
 811 0273 05       		.uleb128 0x5
 812 0274 6F050000 		.4byte	.LASF52
 813 0278 04       		.byte	0x4
 814 0279 06       		.byte	0x6
 815 027a B0       		.byte	0xb0
 816 027b 8C020000 		.4byte	0x28c
 817 027f 06       		.uleb128 0x6
 818 0280 91030000 		.4byte	.LASF30
 819 0284 06       		.byte	0x6
 820 0285 B1       		.byte	0xb1
 821 0286 62020000 		.4byte	0x262
 822 028a 00       		.byte	0
 823 028b 00       		.byte	0
 824 028c 04       		.uleb128 0x4
 825 028d 65070000 		.4byte	.LASF53
 826 0291 05       		.byte	0x5
 827 0292 50       		.byte	0x50
 828 0293 97020000 		.4byte	0x297
 829 0297 05       		.uleb128 0x5
 830 0298 D0000000 		.4byte	.LASF54
 831 029c 08       		.byte	0x8
 832 029d 06       		.byte	0x6
 833 029e B7       		.byte	0xb7
 834 029f BC020000 		.4byte	0x2bc
 835 02a3 06       		.uleb128 0x6
 836 02a4 91030000 		.4byte	.LASF30
 837 02a8 06       		.byte	0x6
 838 02a9 B8       		.byte	0xb8
 839 02aa 62020000 		.4byte	0x262
 840 02ae 00       		.byte	0
 841 02af 06       		.uleb128 0x6
 842 02b0 42040000 		.4byte	.LASF31
 843 02b4 06       		.byte	0x6
 844 02b5 B9       		.byte	0xb9
 845 02b6 62020000 		.4byte	0x262
 846 02ba 04       		.byte	0x4
 847 02bb 00       		.byte	0
 848 02bc 04       		.uleb128 0x4
 849 02bd 13000000 		.4byte	.LASF55
 850 02c1 05       		.byte	0x5
 851 02c2 57       		.byte	0x57
 852 02c3 C7020000 		.4byte	0x2c7
 853 02c7 0A       		.uleb128 0xa
 854 02c8 F9020000 		.4byte	.LASF56
 855 02cc 1C       		.byte	0x1c
ARM GAS  /var/folders/m4/4md61f0s1_g0rzfghffqnxvr0000gn/T//cczNOeW9.s 			page 16


 856 02cd 06       		.byte	0x6
 857 02ce 9001     		.2byte	0x190
 858 02d0 23030000 		.4byte	0x323
 859 02d4 08       		.uleb128 0x8
 860 02d5 67050000 		.4byte	.LASF57
 861 02d9 06       		.byte	0x6
 862 02da 9101     		.2byte	0x191
 863 02dc 8C020000 		.4byte	0x28c
 864 02e0 00       		.byte	0
 865 02e1 08       		.uleb128 0x8
 866 02e2 F9040000 		.4byte	.LASF58
 867 02e6 06       		.byte	0x6
 868 02e7 9201     		.2byte	0x192
 869 02e9 10010000 		.4byte	0x110
 870 02ed 08       		.byte	0x8
 871 02ee 08       		.uleb128 0x8
 872 02ef A8030000 		.4byte	.LASF59
 873 02f3 06       		.byte	0x6
 874 02f4 9401     		.2byte	0x194
 875 02f6 76060000 		.4byte	0x676
 876 02fa 0C       		.byte	0xc
 877 02fb 08       		.uleb128 0x8
 878 02fc AE010000 		.4byte	.LASF60
 879 0300 06       		.byte	0x6
 880 0301 9701     		.2byte	0x197
 881 0303 62020000 		.4byte	0x262
 882 0307 10       		.byte	0x10
 883 0308 08       		.uleb128 0x8
 884 0309 32070000 		.4byte	.LASF61
 885 030d 06       		.byte	0x6
 886 030e 9801     		.2byte	0x198
 887 0310 62020000 		.4byte	0x262
 888 0314 14       		.byte	0x14
 889 0315 08       		.uleb128 0x8
 890 0316 D5030000 		.4byte	.LASF62
 891 031a 06       		.byte	0x6
 892 031b 9B01     		.2byte	0x19b
 893 031d 62020000 		.4byte	0x262
 894 0321 18       		.byte	0x18
 895 0322 00       		.byte	0
 896 0323 04       		.uleb128 0x4
 897 0324 E1060000 		.4byte	.LASF63
 898 0328 05       		.byte	0x5
 899 0329 5C       		.byte	0x5c
 900 032a 2E030000 		.4byte	0x32e
 901 032e 09       		.uleb128 0x9
 902 032f 04       		.byte	0x4
 903 0330 34030000 		.4byte	0x334
 904 0334 0B       		.uleb128 0xb
 905 0335 3F030000 		.4byte	0x33f
 906 0339 0C       		.uleb128 0xc
 907 033a 3F030000 		.4byte	0x33f
 908 033e 00       		.byte	0
 909 033f 0D       		.uleb128 0xd
 910 0340 04       		.byte	0x4
 911 0341 04       		.uleb128 0x4
 912 0342 3E030000 		.4byte	.LASF64
ARM GAS  /var/folders/m4/4md61f0s1_g0rzfghffqnxvr0000gn/T//cczNOeW9.s 			page 17


 913 0346 05       		.byte	0x5
 914 0347 61       		.byte	0x61
 915 0348 4C030000 		.4byte	0x34c
 916 034c 0A       		.uleb128 0xa
 917 034d 24050000 		.4byte	.LASF65
 918 0351 14       		.byte	0x14
 919 0352 06       		.byte	0x6
 920 0353 6B01     		.2byte	0x16b
 921 0355 9B030000 		.4byte	0x39b
 922 0359 08       		.uleb128 0x8
 923 035a 16020000 		.4byte	.LASF66
 924 035e 06       		.byte	0x6
 925 035f 6C01     		.2byte	0x16c
 926 0361 DB080000 		.4byte	0x8db
 927 0365 00       		.byte	0
 928 0366 08       		.uleb128 0x8
 929 0367 C4010000 		.4byte	.LASF67
 930 036b 06       		.byte	0x6
 931 036c 6D01     		.2byte	0x16d
 932 036e DB080000 		.4byte	0x8db
 933 0372 04       		.byte	0x4
 934 0373 08       		.uleb128 0x8
 935 0374 75020000 		.4byte	.LASF68
 936 0378 06       		.byte	0x6
 937 0379 6E01     		.2byte	0x16e
 938 037b 3C010000 		.4byte	0x13c
 939 037f 08       		.byte	0x8
 940 0380 08       		.uleb128 0x8
 941 0381 0B080000 		.4byte	.LASF69
 942 0385 06       		.byte	0x6
 943 0386 6F01     		.2byte	0x16f
 944 0388 23030000 		.4byte	0x323
 945 038c 0C       		.byte	0xc
 946 038d 08       		.uleb128 0x8
 947 038e 58070000 		.4byte	.LASF70
 948 0392 06       		.byte	0x6
 949 0393 7101     		.2byte	0x171
 950 0395 3F030000 		.4byte	0x33f
 951 0399 10       		.byte	0x10
 952 039a 00       		.byte	0
 953 039b 04       		.uleb128 0x4
 954 039c AD000000 		.4byte	.LASF71
 955 03a0 05       		.byte	0x5
 956 03a1 66       		.byte	0x66
 957 03a2 A6030000 		.4byte	0x3a6
 958 03a6 0A       		.uleb128 0xa
 959 03a7 74030000 		.4byte	.LASF72
 960 03ab 10       		.byte	0x10
 961 03ac 06       		.byte	0x6
 962 03ad 7B01     		.2byte	0x17b
 963 03af E8030000 		.4byte	0x3e8
 964 03b3 08       		.uleb128 0x8
 965 03b4 16020000 		.4byte	.LASF66
 966 03b8 06       		.byte	0x6
 967 03b9 7C01     		.2byte	0x17c
 968 03bb DB080000 		.4byte	0x8db
 969 03bf 00       		.byte	0
ARM GAS  /var/folders/m4/4md61f0s1_g0rzfghffqnxvr0000gn/T//cczNOeW9.s 			page 18


 970 03c0 08       		.uleb128 0x8
 971 03c1 C4010000 		.4byte	.LASF67
 972 03c5 06       		.byte	0x6
 973 03c6 7E01     		.2byte	0x17e
 974 03c8 DB080000 		.4byte	0x8db
 975 03cc 04       		.byte	0x4
 976 03cd 08       		.uleb128 0x8
 977 03ce 75020000 		.4byte	.LASF68
 978 03d2 06       		.byte	0x6
 979 03d3 8001     		.2byte	0x180
 980 03d5 3C010000 		.4byte	0x13c
 981 03d9 08       		.byte	0x8
 982 03da 08       		.uleb128 0x8
 983 03db 6A020000 		.4byte	.LASF73
 984 03df 06       		.byte	0x6
 985 03e0 8201     		.2byte	0x182
 986 03e2 D6080000 		.4byte	0x8d6
 987 03e6 0C       		.byte	0xc
 988 03e7 00       		.byte	0
 989 03e8 04       		.uleb128 0x4
 990 03e9 53000000 		.4byte	.LASF74
 991 03ed 05       		.byte	0x5
 992 03ee 6B       		.byte	0x6b
 993 03ef F3030000 		.4byte	0x3f3
 994 03f3 0A       		.uleb128 0xa
 995 03f4 5B040000 		.4byte	.LASF75
 996 03f8 04       		.byte	0x4
 997 03f9 06       		.byte	0x6
 998 03fa A201     		.2byte	0x1a2
 999 03fc 0E040000 		.4byte	0x40e
 1000 0400 08       		.uleb128 0x8
 1001 0401 FE060000 		.4byte	.LASF76
 1002 0405 06       		.byte	0x6
 1003 0406 AA01     		.2byte	0x1aa
 1004 0408 E1080000 		.4byte	0x8e1
 1005 040c 00       		.byte	0
 1006 040d 00       		.byte	0
 1007 040e 04       		.uleb128 0x4
 1008 040f DB020000 		.4byte	.LASF77
 1009 0413 05       		.byte	0x5
 1010 0414 70       		.byte	0x70
 1011 0415 19040000 		.4byte	0x419
 1012 0419 0E       		.uleb128 0xe
 1013 041a 57010000 		.4byte	.LASF78
 1014 041e 5802     		.2byte	0x258
 1015 0420 06       		.byte	0x6
 1016 0421 C201     		.2byte	0x1c2
 1017 0423 75040000 		.4byte	0x475
 1018 0427 08       		.uleb128 0x8
 1019 0428 A6070000 		.4byte	.LASF79
 1020 042c 06       		.byte	0x6
 1021 042d C601     		.2byte	0x1c6
 1022 042f BC020000 		.4byte	0x2bc
 1023 0433 00       		.byte	0
 1024 0434 08       		.uleb128 0x8
 1025 0435 CC010000 		.4byte	.LASF80
 1026 0439 06       		.byte	0x6
ARM GAS  /var/folders/m4/4md61f0s1_g0rzfghffqnxvr0000gn/T//cczNOeW9.s 			page 19


 1027 043a CA01     		.2byte	0x1ca
 1028 043c 9B030000 		.4byte	0x39b
 1029 0440 1C       		.byte	0x1c
 1030 0441 07       		.uleb128 0x7
 1031 0442 64626700 		.ascii	"dbg\000"
 1032 0446 06       		.byte	0x6
 1033 0447 CE01     		.2byte	0x1ce
 1034 0449 E8030000 		.4byte	0x3e8
 1035 044d 2C       		.byte	0x2c
 1036 044e 08       		.uleb128 0x8
 1037 044f A2000000 		.4byte	.LASF81
 1038 0453 06       		.byte	0x6
 1039 0454 D201     		.2byte	0x1d2
 1040 0456 47010000 		.4byte	0x147
 1041 045a 30       		.byte	0x30
 1042 045b 07       		.uleb128 0x7
 1043 045c 746D00   		.ascii	"tm\000"
 1044 045f 06       		.byte	0x6
 1045 0460 D701     		.2byte	0x1d7
 1046 0462 F4070000 		.4byte	0x7f4
 1047 0466 78       		.byte	0x78
 1048 0467 08       		.uleb128 0x8
 1049 0468 F4010000 		.4byte	.LASF82
 1050 046c 06       		.byte	0x6
 1051 046d E301     		.2byte	0x1e3
 1052 046f E6080000 		.4byte	0x8e6
 1053 0473 80       		.byte	0x80
 1054 0474 00       		.byte	0
 1055 0475 03       		.uleb128 0x3
 1056 0476 04       		.byte	0x4
 1057 0477 07       		.byte	0x7
 1058 0478 58030000 		.4byte	.LASF83
 1059 047c 0F       		.uleb128 0xf
 1060 047d C3000000 		.4byte	0xc3
 1061 0481 10       		.uleb128 0x10
 1062 0482 C3000000 		.4byte	0xc3
 1063 0486 91040000 		.4byte	0x491
 1064 048a 11       		.uleb128 0x11
 1065 048b 75040000 		.4byte	0x475
 1066 048f 01       		.byte	0x1
 1067 0490 00       		.byte	0
 1068 0491 12       		.uleb128 0x12
 1069 0492 98       		.byte	0x98
 1070 0493 07       		.byte	0x7
 1071 0494 3902     		.2byte	0x239
 1072 0496 54060000 		.4byte	0x654
 1073 049a 07       		.uleb128 0x7
 1074 049b 435200   		.ascii	"CR\000"
 1075 049e 07       		.byte	0x7
 1076 049f 3B02     		.2byte	0x23b
 1077 04a1 7C040000 		.4byte	0x47c
 1078 04a5 00       		.byte	0
 1079 04a6 08       		.uleb128 0x8
 1080 04a7 9E010000 		.4byte	.LASF84
 1081 04ab 07       		.byte	0x7
 1082 04ac 3C02     		.2byte	0x23c
 1083 04ae 7C040000 		.4byte	0x47c
ARM GAS  /var/folders/m4/4md61f0s1_g0rzfghffqnxvr0000gn/T//cczNOeW9.s 			page 20


 1084 04b2 04       		.byte	0x4
 1085 04b3 08       		.uleb128 0x8
 1086 04b4 D7070000 		.4byte	.LASF85
 1087 04b8 07       		.byte	0x7
 1088 04b9 3D02     		.2byte	0x23d
 1089 04bb 7C040000 		.4byte	0x47c
 1090 04bf 08       		.byte	0x8
 1091 04c0 07       		.uleb128 0x7
 1092 04c1 43495200 		.ascii	"CIR\000"
 1093 04c5 07       		.byte	0x7
 1094 04c6 3E02     		.2byte	0x23e
 1095 04c8 7C040000 		.4byte	0x47c
 1096 04cc 0C       		.byte	0xc
 1097 04cd 08       		.uleb128 0x8
 1098 04ce 19010000 		.4byte	.LASF86
 1099 04d2 07       		.byte	0x7
 1100 04d3 3F02     		.2byte	0x23f
 1101 04d5 7C040000 		.4byte	0x47c
 1102 04d9 10       		.byte	0x10
 1103 04da 08       		.uleb128 0x8
 1104 04db B3060000 		.4byte	.LASF87
 1105 04df 07       		.byte	0x7
 1106 04e0 4002     		.2byte	0x240
 1107 04e2 7C040000 		.4byte	0x47c
 1108 04e6 14       		.byte	0x14
 1109 04e7 08       		.uleb128 0x8
 1110 04e8 D2020000 		.4byte	.LASF88
 1111 04ec 07       		.byte	0x7
 1112 04ed 4102     		.2byte	0x241
 1113 04ef 7C040000 		.4byte	0x47c
 1114 04f3 18       		.byte	0x18
 1115 04f4 08       		.uleb128 0x8
 1116 04f5 10040000 		.4byte	.LASF89
 1117 04f9 07       		.byte	0x7
 1118 04fa 4202     		.2byte	0x242
 1119 04fc C3000000 		.4byte	0xc3
 1120 0500 1C       		.byte	0x1c
 1121 0501 08       		.uleb128 0x8
 1122 0502 DF030000 		.4byte	.LASF90
 1123 0506 07       		.byte	0x7
 1124 0507 4302     		.2byte	0x243
 1125 0509 7C040000 		.4byte	0x47c
 1126 050d 20       		.byte	0x20
 1127 050e 08       		.uleb128 0x8
 1128 050f 71010000 		.4byte	.LASF91
 1129 0513 07       		.byte	0x7
 1130 0514 4402     		.2byte	0x244
 1131 0516 7C040000 		.4byte	0x47c
 1132 051a 24       		.byte	0x24
 1133 051b 08       		.uleb128 0x8
 1134 051c 1A040000 		.4byte	.LASF92
 1135 0520 07       		.byte	0x7
 1136 0521 4502     		.2byte	0x245
 1137 0523 81040000 		.4byte	0x481
 1138 0527 28       		.byte	0x28
 1139 0528 08       		.uleb128 0x8
 1140 0529 C8070000 		.4byte	.LASF93
ARM GAS  /var/folders/m4/4md61f0s1_g0rzfghffqnxvr0000gn/T//cczNOeW9.s 			page 21


 1141 052d 07       		.byte	0x7
 1142 052e 4602     		.2byte	0x246
 1143 0530 7C040000 		.4byte	0x47c
 1144 0534 30       		.byte	0x30
 1145 0535 08       		.uleb128 0x8
 1146 0536 22070000 		.4byte	.LASF94
 1147 053a 07       		.byte	0x7
 1148 053b 4702     		.2byte	0x247
 1149 053d 7C040000 		.4byte	0x47c
 1150 0541 34       		.byte	0x34
 1151 0542 08       		.uleb128 0x8
 1152 0543 98030000 		.4byte	.LASF95
 1153 0547 07       		.byte	0x7
 1154 0548 4802     		.2byte	0x248
 1155 054a 7C040000 		.4byte	0x47c
 1156 054e 38       		.byte	0x38
 1157 054f 08       		.uleb128 0x8
 1158 0550 24040000 		.4byte	.LASF96
 1159 0554 07       		.byte	0x7
 1160 0555 4902     		.2byte	0x249
 1161 0557 C3000000 		.4byte	0xc3
 1162 055b 3C       		.byte	0x3c
 1163 055c 08       		.uleb128 0x8
 1164 055d 0F070000 		.4byte	.LASF97
 1165 0561 07       		.byte	0x7
 1166 0562 4A02     		.2byte	0x24a
 1167 0564 7C040000 		.4byte	0x47c
 1168 0568 40       		.byte	0x40
 1169 0569 08       		.uleb128 0x8
 1170 056a 1C050000 		.4byte	.LASF98
 1171 056e 07       		.byte	0x7
 1172 056f 4B02     		.2byte	0x24b
 1173 0571 7C040000 		.4byte	0x47c
 1174 0575 44       		.byte	0x44
 1175 0576 08       		.uleb128 0x8
 1176 0577 2E040000 		.4byte	.LASF99
 1177 057b 07       		.byte	0x7
 1178 057c 4C02     		.2byte	0x24c
 1179 057e 81040000 		.4byte	0x481
 1180 0582 48       		.byte	0x48
 1181 0583 08       		.uleb128 0x8
 1182 0584 E1000000 		.4byte	.LASF100
 1183 0588 07       		.byte	0x7
 1184 0589 4D02     		.2byte	0x24d
 1185 058b 7C040000 		.4byte	0x47c
 1186 058f 50       		.byte	0x50
 1187 0590 08       		.uleb128 0x8
 1188 0591 AE030000 		.4byte	.LASF101
 1189 0595 07       		.byte	0x7
 1190 0596 4E02     		.2byte	0x24e
 1191 0598 7C040000 		.4byte	0x47c
 1192 059c 54       		.byte	0x54
 1193 059d 08       		.uleb128 0x8
 1194 059e EF040000 		.4byte	.LASF102
 1195 05a2 07       		.byte	0x7
 1196 05a3 4F02     		.2byte	0x24f
 1197 05a5 7C040000 		.4byte	0x47c
ARM GAS  /var/folders/m4/4md61f0s1_g0rzfghffqnxvr0000gn/T//cczNOeW9.s 			page 22


 1198 05a9 58       		.byte	0x58
 1199 05aa 08       		.uleb128 0x8
 1200 05ab 38040000 		.4byte	.LASF103
 1201 05af 07       		.byte	0x7
 1202 05b0 5002     		.2byte	0x250
 1203 05b2 C3000000 		.4byte	0xc3
 1204 05b6 5C       		.byte	0x5c
 1205 05b7 08       		.uleb128 0x8
 1206 05b8 7A010000 		.4byte	.LASF104
 1207 05bc 07       		.byte	0x7
 1208 05bd 5102     		.2byte	0x251
 1209 05bf 7C040000 		.4byte	0x47c
 1210 05c3 60       		.byte	0x60
 1211 05c4 08       		.uleb128 0x8
 1212 05c5 EF020000 		.4byte	.LASF105
 1213 05c9 07       		.byte	0x7
 1214 05ca 5202     		.2byte	0x252
 1215 05cc 7C040000 		.4byte	0x47c
 1216 05d0 64       		.byte	0x64
 1217 05d1 08       		.uleb128 0x8
 1218 05d2 4D050000 		.4byte	.LASF106
 1219 05d6 07       		.byte	0x7
 1220 05d7 5302     		.2byte	0x253
 1221 05d9 81040000 		.4byte	0x481
 1222 05dd 68       		.byte	0x68
 1223 05de 08       		.uleb128 0x8
 1224 05df A1070000 		.4byte	.LASF107
 1225 05e3 07       		.byte	0x7
 1226 05e4 5402     		.2byte	0x254
 1227 05e6 7C040000 		.4byte	0x47c
 1228 05ea 70       		.byte	0x70
 1229 05eb 07       		.uleb128 0x7
 1230 05ec 43535200 		.ascii	"CSR\000"
 1231 05f0 07       		.byte	0x7
 1232 05f1 5502     		.2byte	0x255
 1233 05f3 7C040000 		.4byte	0x47c
 1234 05f7 74       		.byte	0x74
 1235 05f8 08       		.uleb128 0x8
 1236 05f9 49040000 		.4byte	.LASF108
 1237 05fd 07       		.byte	0x7
 1238 05fe 5602     		.2byte	0x256
 1239 0600 81040000 		.4byte	0x481
 1240 0604 78       		.byte	0x78
 1241 0605 08       		.uleb128 0x8
 1242 0606 5F070000 		.4byte	.LASF109
 1243 060a 07       		.byte	0x7
 1244 060b 5702     		.2byte	0x257
 1245 060d 7C040000 		.4byte	0x47c
 1246 0611 80       		.byte	0x80
 1247 0612 08       		.uleb128 0x8
 1248 0613 C1020000 		.4byte	.LASF110
 1249 0617 07       		.byte	0x7
 1250 0618 5802     		.2byte	0x258
 1251 061a 7C040000 		.4byte	0x47c
 1252 061e 84       		.byte	0x84
 1253 061f 08       		.uleb128 0x8
 1254 0620 FD030000 		.4byte	.LASF111
ARM GAS  /var/folders/m4/4md61f0s1_g0rzfghffqnxvr0000gn/T//cczNOeW9.s 			page 23


 1255 0624 07       		.byte	0x7
 1256 0625 5902     		.2byte	0x259
 1257 0627 7C040000 		.4byte	0x47c
 1258 062b 88       		.byte	0x88
 1259 062c 08       		.uleb128 0x8
 1260 062d F2000000 		.4byte	.LASF112
 1261 0631 07       		.byte	0x7
 1262 0632 5A02     		.2byte	0x25a
 1263 0634 7C040000 		.4byte	0x47c
 1264 0638 8C       		.byte	0x8c
 1265 0639 08       		.uleb128 0x8
 1266 063a 98070000 		.4byte	.LASF113
 1267 063e 07       		.byte	0x7
 1268 063f 5B02     		.2byte	0x25b
 1269 0641 7C040000 		.4byte	0x47c
 1270 0645 90       		.byte	0x90
 1271 0646 08       		.uleb128 0x8
 1272 0647 22010000 		.4byte	.LASF114
 1273 064b 07       		.byte	0x7
 1274 064c 5C02     		.2byte	0x25c
 1275 064e 7C040000 		.4byte	0x47c
 1276 0652 94       		.byte	0x94
 1277 0653 00       		.byte	0
 1278 0654 13       		.uleb128 0x13
 1279 0655 4B010000 		.4byte	.LASF115
 1280 0659 07       		.byte	0x7
 1281 065a 5D02     		.2byte	0x25d
 1282 065c 91040000 		.4byte	0x491
 1283 0660 04       		.uleb128 0x4
 1284 0661 BB010000 		.4byte	.LASF116
 1285 0665 08       		.byte	0x8
 1286 0666 65       		.byte	0x65
 1287 0667 3F030000 		.4byte	0x33f
 1288 066b 04       		.uleb128 0x4
 1289 066c 24030000 		.4byte	.LASF117
 1290 0670 08       		.byte	0x8
 1291 0671 6D       		.byte	0x6d
 1292 0672 CE000000 		.4byte	0xce
 1293 0676 05       		.uleb128 0x5
 1294 0677 2A070000 		.4byte	.LASF118
 1295 067b 04       		.byte	0x4
 1296 067c 08       		.byte	0x8
 1297 067d 89       		.byte	0x89
 1298 067e 8F060000 		.4byte	0x68f
 1299 0682 14       		.uleb128 0x14
 1300 0683 72313300 		.ascii	"r13\000"
 1301 0687 08       		.byte	0x8
 1302 0688 8A       		.byte	0x8a
 1303 0689 D9070000 		.4byte	0x7d9
 1304 068d 00       		.byte	0
 1305 068e 00       		.byte	0
 1306 068f 05       		.uleb128 0x5
 1307 0690 47000000 		.4byte	.LASF119
 1308 0694 64       		.byte	0x64
 1309 0695 09       		.byte	0x9
 1310 0696 FD       		.byte	0xfd
 1311 0697 D9070000 		.4byte	0x7d9
ARM GAS  /var/folders/m4/4md61f0s1_g0rzfghffqnxvr0000gn/T//cczNOeW9.s 			page 24


 1312 069b 14       		.uleb128 0x14
 1313 069c 73313600 		.ascii	"s16\000"
 1314 06a0 09       		.byte	0x9
 1315 06a1 FF       		.byte	0xff
 1316 06a2 60060000 		.4byte	0x660
 1317 06a6 00       		.byte	0
 1318 06a7 07       		.uleb128 0x7
 1319 06a8 73313700 		.ascii	"s17\000"
 1320 06ac 09       		.byte	0x9
 1321 06ad 0001     		.2byte	0x100
 1322 06af 60060000 		.4byte	0x660
 1323 06b3 04       		.byte	0x4
 1324 06b4 07       		.uleb128 0x7
 1325 06b5 73313800 		.ascii	"s18\000"
 1326 06b9 09       		.byte	0x9
 1327 06ba 0101     		.2byte	0x101
 1328 06bc 60060000 		.4byte	0x660
 1329 06c0 08       		.byte	0x8
 1330 06c1 07       		.uleb128 0x7
 1331 06c2 73313900 		.ascii	"s19\000"
 1332 06c6 09       		.byte	0x9
 1333 06c7 0201     		.2byte	0x102
 1334 06c9 60060000 		.4byte	0x660
 1335 06cd 0C       		.byte	0xc
 1336 06ce 07       		.uleb128 0x7
 1337 06cf 73323000 		.ascii	"s20\000"
 1338 06d3 09       		.byte	0x9
 1339 06d4 0301     		.2byte	0x103
 1340 06d6 60060000 		.4byte	0x660
 1341 06da 10       		.byte	0x10
 1342 06db 07       		.uleb128 0x7
 1343 06dc 73323100 		.ascii	"s21\000"
 1344 06e0 09       		.byte	0x9
 1345 06e1 0401     		.2byte	0x104
 1346 06e3 60060000 		.4byte	0x660
 1347 06e7 14       		.byte	0x14
 1348 06e8 07       		.uleb128 0x7
 1349 06e9 73323200 		.ascii	"s22\000"
 1350 06ed 09       		.byte	0x9
 1351 06ee 0501     		.2byte	0x105
 1352 06f0 60060000 		.4byte	0x660
 1353 06f4 18       		.byte	0x18
 1354 06f5 07       		.uleb128 0x7
 1355 06f6 73323300 		.ascii	"s23\000"
 1356 06fa 09       		.byte	0x9
 1357 06fb 0601     		.2byte	0x106
 1358 06fd 60060000 		.4byte	0x660
 1359 0701 1C       		.byte	0x1c
 1360 0702 07       		.uleb128 0x7
 1361 0703 73323400 		.ascii	"s24\000"
 1362 0707 09       		.byte	0x9
 1363 0708 0701     		.2byte	0x107
 1364 070a 60060000 		.4byte	0x660
 1365 070e 20       		.byte	0x20
 1366 070f 07       		.uleb128 0x7
 1367 0710 73323500 		.ascii	"s25\000"
 1368 0714 09       		.byte	0x9
ARM GAS  /var/folders/m4/4md61f0s1_g0rzfghffqnxvr0000gn/T//cczNOeW9.s 			page 25


 1369 0715 0801     		.2byte	0x108
 1370 0717 60060000 		.4byte	0x660
 1371 071b 24       		.byte	0x24
 1372 071c 07       		.uleb128 0x7
 1373 071d 73323600 		.ascii	"s26\000"
 1374 0721 09       		.byte	0x9
 1375 0722 0901     		.2byte	0x109
 1376 0724 60060000 		.4byte	0x660
 1377 0728 28       		.byte	0x28
 1378 0729 07       		.uleb128 0x7
 1379 072a 73323700 		.ascii	"s27\000"
 1380 072e 09       		.byte	0x9
 1381 072f 0A01     		.2byte	0x10a
 1382 0731 60060000 		.4byte	0x660
 1383 0735 2C       		.byte	0x2c
 1384 0736 07       		.uleb128 0x7
 1385 0737 73323800 		.ascii	"s28\000"
 1386 073b 09       		.byte	0x9
 1387 073c 0B01     		.2byte	0x10b
 1388 073e 60060000 		.4byte	0x660
 1389 0742 30       		.byte	0x30
 1390 0743 07       		.uleb128 0x7
 1391 0744 73323900 		.ascii	"s29\000"
 1392 0748 09       		.byte	0x9
 1393 0749 0C01     		.2byte	0x10c
 1394 074b 60060000 		.4byte	0x660
 1395 074f 34       		.byte	0x34
 1396 0750 07       		.uleb128 0x7
 1397 0751 73333000 		.ascii	"s30\000"
 1398 0755 09       		.byte	0x9
 1399 0756 0D01     		.2byte	0x10d
 1400 0758 60060000 		.4byte	0x660
 1401 075c 38       		.byte	0x38
 1402 075d 07       		.uleb128 0x7
 1403 075e 73333100 		.ascii	"s31\000"
 1404 0762 09       		.byte	0x9
 1405 0763 0E01     		.2byte	0x10e
 1406 0765 60060000 		.4byte	0x660
 1407 0769 3C       		.byte	0x3c
 1408 076a 07       		.uleb128 0x7
 1409 076b 723400   		.ascii	"r4\000"
 1410 076e 09       		.byte	0x9
 1411 076f 1001     		.2byte	0x110
 1412 0771 60060000 		.4byte	0x660
 1413 0775 40       		.byte	0x40
 1414 0776 07       		.uleb128 0x7
 1415 0777 723500   		.ascii	"r5\000"
 1416 077a 09       		.byte	0x9
 1417 077b 1101     		.2byte	0x111
 1418 077d 60060000 		.4byte	0x660
 1419 0781 44       		.byte	0x44
 1420 0782 07       		.uleb128 0x7
 1421 0783 723600   		.ascii	"r6\000"
 1422 0786 09       		.byte	0x9
 1423 0787 1201     		.2byte	0x112
 1424 0789 60060000 		.4byte	0x660
 1425 078d 48       		.byte	0x48
ARM GAS  /var/folders/m4/4md61f0s1_g0rzfghffqnxvr0000gn/T//cczNOeW9.s 			page 26


 1426 078e 07       		.uleb128 0x7
 1427 078f 723700   		.ascii	"r7\000"
 1428 0792 09       		.byte	0x9
 1429 0793 1301     		.2byte	0x113
 1430 0795 60060000 		.4byte	0x660
 1431 0799 4C       		.byte	0x4c
 1432 079a 07       		.uleb128 0x7
 1433 079b 723800   		.ascii	"r8\000"
 1434 079e 09       		.byte	0x9
 1435 079f 1401     		.2byte	0x114
 1436 07a1 60060000 		.4byte	0x660
 1437 07a5 50       		.byte	0x50
 1438 07a6 07       		.uleb128 0x7
 1439 07a7 723900   		.ascii	"r9\000"
 1440 07aa 09       		.byte	0x9
 1441 07ab 1501     		.2byte	0x115
 1442 07ad 60060000 		.4byte	0x660
 1443 07b1 54       		.byte	0x54
 1444 07b2 07       		.uleb128 0x7
 1445 07b3 72313000 		.ascii	"r10\000"
 1446 07b7 09       		.byte	0x9
 1447 07b8 1601     		.2byte	0x116
 1448 07ba 60060000 		.4byte	0x660
 1449 07be 58       		.byte	0x58
 1450 07bf 07       		.uleb128 0x7
 1451 07c0 72313100 		.ascii	"r11\000"
 1452 07c4 09       		.byte	0x9
 1453 07c5 1701     		.2byte	0x117
 1454 07c7 60060000 		.4byte	0x660
 1455 07cb 5C       		.byte	0x5c
 1456 07cc 07       		.uleb128 0x7
 1457 07cd 6C7200   		.ascii	"lr\000"
 1458 07d0 09       		.byte	0x9
 1459 07d1 1801     		.2byte	0x118
 1460 07d3 60060000 		.4byte	0x660
 1461 07d7 60       		.byte	0x60
 1462 07d8 00       		.byte	0
 1463 07d9 09       		.uleb128 0x9
 1464 07da 04       		.byte	0x4
 1465 07db 8F060000 		.4byte	0x68f
 1466 07df 15       		.uleb128 0x15
 1467 07e0 04       		.byte	0x4
 1468 07e1 0A       		.byte	0xa
 1469 07e2 38       		.byte	0x38
 1470 07e3 F4070000 		.4byte	0x7f4
 1471 07e7 06       		.uleb128 0x6
 1472 07e8 08070000 		.4byte	.LASF120
 1473 07ec 0A       		.byte	0xa
 1474 07ed 3C       		.byte	0x3c
 1475 07ee D9000000 		.4byte	0xd9
 1476 07f2 00       		.byte	0
 1477 07f3 00       		.byte	0
 1478 07f4 04       		.uleb128 0x4
 1479 07f5 B8030000 		.4byte	.LASF121
 1480 07f9 0A       		.byte	0xa
 1481 07fa 3D       		.byte	0x3d
 1482 07fb DF070000 		.4byte	0x7df
ARM GAS  /var/folders/m4/4md61f0s1_g0rzfghffqnxvr0000gn/T//cczNOeW9.s 			page 27


 1483 07ff 16       		.uleb128 0x16
 1484 0800 04       		.byte	0x4
 1485 0801 06       		.byte	0x6
 1486 0802 FA       		.byte	0xfa
 1487 0803 5C080000 		.4byte	0x85c
 1488 0807 17       		.uleb128 0x17
 1489 0808 26000000 		.4byte	.LASF122
 1490 080c 06       		.byte	0x6
 1491 080d 0101     		.2byte	0x101
 1492 080f 1B010000 		.4byte	0x11b
 1493 0813 17       		.uleb128 0x17
 1494 0814 99000000 		.4byte	.LASF123
 1495 0818 06       		.byte	0x6
 1496 0819 0801     		.2byte	0x108
 1497 081b 1B010000 		.4byte	0x11b
 1498 081f 17       		.uleb128 0x17
 1499 0820 BA070000 		.4byte	.LASF124
 1500 0824 06       		.byte	0x6
 1501 0825 0F01     		.2byte	0x10f
 1502 0827 3F030000 		.4byte	0x33f
 1503 082b 17       		.uleb128 0x17
 1504 082c 20000000 		.4byte	.LASF125
 1505 0830 06       		.byte	0x6
 1506 0831 1601     		.2byte	0x116
 1507 0833 5C080000 		.4byte	0x85c
 1508 0837 17       		.uleb128 0x17
 1509 0838 63020000 		.4byte	.LASF126
 1510 083c 06       		.byte	0x6
 1511 083d 1E01     		.2byte	0x11e
 1512 083f 87080000 		.4byte	0x887
 1513 0843 17       		.uleb128 0x17
 1514 0844 60050000 		.4byte	.LASF127
 1515 0848 06       		.byte	0x6
 1516 0849 2701     		.2byte	0x127
 1517 084b BE080000 		.4byte	0x8be
 1518 084f 17       		.uleb128 0x17
 1519 0850 07050000 		.4byte	.LASF128
 1520 0854 06       		.byte	0x6
 1521 0855 2F01     		.2byte	0x12f
 1522 0857 26010000 		.4byte	0x126
 1523 085b 00       		.byte	0
 1524 085c 09       		.uleb128 0x9
 1525 085d 04       		.byte	0x4
 1526 085e 57020000 		.4byte	0x257
 1527 0862 05       		.uleb128 0x5
 1528 0863 35050000 		.4byte	.LASF129
 1529 0867 0C       		.byte	0xc
 1530 0868 0B       		.byte	0xb
 1531 0869 34       		.byte	0x34
 1532 086a 87080000 		.4byte	0x887
 1533 086e 06       		.uleb128 0x6
 1534 086f DC070000 		.4byte	.LASF130
 1535 0873 0B       		.byte	0xb
 1536 0874 35       		.byte	0x35
 1537 0875 8C020000 		.4byte	0x28c
 1538 0879 00       		.byte	0
 1539 087a 06       		.uleb128 0x6
ARM GAS  /var/folders/m4/4md61f0s1_g0rzfghffqnxvr0000gn/T//cczNOeW9.s 			page 28


 1540 087b C3040000 		.4byte	.LASF131
 1541 087f 0B       		.byte	0xb
 1542 0880 37       		.byte	0x37
 1543 0881 31010000 		.4byte	0x131
 1544 0885 08       		.byte	0x8
 1545 0886 00       		.byte	0
 1546 0887 09       		.uleb128 0x9
 1547 0888 04       		.byte	0x4
 1548 0889 62080000 		.4byte	0x862
 1549 088d 05       		.uleb128 0x5
 1550 088e 75070000 		.4byte	.LASF132
 1551 0892 10       		.byte	0x10
 1552 0893 0C       		.byte	0xc
 1553 0894 39       		.byte	0x39
 1554 0895 BE080000 		.4byte	0x8be
 1555 0899 06       		.uleb128 0x6
 1556 089a 33010000 		.4byte	.LASF133
 1557 089e 0C       		.byte	0xc
 1558 089f 3A       		.byte	0x3a
 1559 08a0 8C020000 		.4byte	0x28c
 1560 08a4 00       		.byte	0
 1561 08a5 06       		.uleb128 0x6
 1562 08a6 FD070000 		.4byte	.LASF134
 1563 08aa 0C       		.byte	0xc
 1564 08ab 3C       		.byte	0x3c
 1565 08ac 62020000 		.4byte	0x262
 1566 08b0 08       		.byte	0x8
 1567 08b1 06       		.uleb128 0x6
 1568 08b2 C5060000 		.4byte	.LASF135
 1569 08b6 0C       		.byte	0xc
 1570 08b7 3E       		.byte	0x3e
 1571 08b8 01090000 		.4byte	0x901
 1572 08bc 0C       		.byte	0xc
 1573 08bd 00       		.byte	0
 1574 08be 09       		.uleb128 0x9
 1575 08bf 04       		.byte	0x4
 1576 08c0 8D080000 		.4byte	0x88d
 1577 08c4 09       		.uleb128 0x9
 1578 08c5 04       		.byte	0x4
 1579 08c6 D1080000 		.4byte	0x8d1
 1580 08ca 03       		.uleb128 0x3
 1581 08cb 01       		.byte	0x1
 1582 08cc 08       		.byte	0x8
 1583 08cd 96050000 		.4byte	.LASF136
 1584 08d1 18       		.uleb128 0x18
 1585 08d2 CA080000 		.4byte	0x8ca
 1586 08d6 0F       		.uleb128 0xf
 1587 08d7 3C010000 		.4byte	0x13c
 1588 08db 09       		.uleb128 0x9
 1589 08dc 04       		.byte	0x4
 1590 08dd 41030000 		.4byte	0x341
 1591 08e1 0F       		.uleb128 0xf
 1592 08e2 C4080000 		.4byte	0x8c4
 1593 08e6 10       		.uleb128 0x10
 1594 08e7 6B060000 		.4byte	0x66b
 1595 08eb F6080000 		.4byte	0x8f6
 1596 08ef 11       		.uleb128 0x11
ARM GAS  /var/folders/m4/4md61f0s1_g0rzfghffqnxvr0000gn/T//cczNOeW9.s 			page 29


 1597 08f0 75040000 		.4byte	0x475
 1598 08f4 3A       		.byte	0x3a
 1599 08f5 00       		.byte	0
 1600 08f6 04       		.uleb128 0x4
 1601 08f7 E5010000 		.4byte	.LASF137
 1602 08fb 0C       		.byte	0xc
 1603 08fc 34       		.byte	0x34
 1604 08fd 8D080000 		.4byte	0x88d
 1605 0901 09       		.uleb128 0x9
 1606 0902 04       		.byte	0x4
 1607 0903 F6080000 		.4byte	0x8f6
 1608 0907 03       		.uleb128 0x3
 1609 0908 01       		.byte	0x1
 1610 0909 02       		.byte	0x2
 1611 090a 6B040000 		.4byte	.LASF138
 1612 090e 15       		.uleb128 0x15
 1613 090f 04       		.byte	0x4
 1614 0910 0D       		.byte	0xd
 1615 0911 E7       		.byte	0xe7
 1616 0912 2F090000 		.4byte	0x92f
 1617 0916 14       		.uleb128 0x14
 1618 0917 73657400 		.ascii	"set\000"
 1619 091b 0D       		.byte	0xd
 1620 091c E8       		.byte	0xe8
 1621 091d AD000000 		.4byte	0xad
 1622 0921 00       		.byte	0
 1623 0922 06       		.uleb128 0x6
 1624 0923 8B030000 		.4byte	.LASF139
 1625 0927 0D       		.byte	0xd
 1626 0928 E9       		.byte	0xe9
 1627 0929 AD000000 		.4byte	0xad
 1628 092d 02       		.byte	0x2
 1629 092e 00       		.byte	0
 1630 092f 16       		.uleb128 0x16
 1631 0930 04       		.byte	0x4
 1632 0931 0D       		.byte	0xd
 1633 0932 E5       		.byte	0xe5
 1634 0933 4A090000 		.4byte	0x94a
 1635 0937 19       		.uleb128 0x19
 1636 0938 5700     		.ascii	"W\000"
 1637 093a 0D       		.byte	0xd
 1638 093b E6       		.byte	0xe6
 1639 093c C3000000 		.4byte	0xc3
 1640 0940 19       		.uleb128 0x19
 1641 0941 4800     		.ascii	"H\000"
 1642 0943 0D       		.byte	0xd
 1643 0944 EA       		.byte	0xea
 1644 0945 0E090000 		.4byte	0x90e
 1645 0949 00       		.byte	0
 1646 094a 15       		.uleb128 0x15
 1647 094b 2C       		.byte	0x2c
 1648 094c 0D       		.byte	0xd
 1649 094d DD       		.byte	0xdd
 1650 094e D7090000 		.4byte	0x9d7
 1651 0952 06       		.uleb128 0x6
 1652 0953 76000000 		.4byte	.LASF140
 1653 0957 0D       		.byte	0xd
ARM GAS  /var/folders/m4/4md61f0s1_g0rzfghffqnxvr0000gn/T//cczNOeW9.s 			page 30


 1654 0958 DF       		.byte	0xdf
 1655 0959 7C040000 		.4byte	0x47c
 1656 095d 00       		.byte	0
 1657 095e 06       		.uleb128 0x6
 1658 095f 40000000 		.4byte	.LASF141
 1659 0963 0D       		.byte	0xd
 1660 0964 E0       		.byte	0xe0
 1661 0965 7C040000 		.4byte	0x47c
 1662 0969 04       		.byte	0x4
 1663 096a 06       		.uleb128 0x6
 1664 096b A6010000 		.4byte	.LASF142
 1665 096f 0D       		.byte	0xd
 1666 0970 E1       		.byte	0xe1
 1667 0971 7C040000 		.4byte	0x47c
 1668 0975 08       		.byte	0x8
 1669 0976 06       		.uleb128 0x6
 1670 0977 93000000 		.4byte	.LASF143
 1671 097b 0D       		.byte	0xd
 1672 097c E2       		.byte	0xe2
 1673 097d 7C040000 		.4byte	0x47c
 1674 0981 0C       		.byte	0xc
 1675 0982 14       		.uleb128 0x14
 1676 0983 49445200 		.ascii	"IDR\000"
 1677 0987 0D       		.byte	0xd
 1678 0988 E3       		.byte	0xe3
 1679 0989 7C040000 		.4byte	0x47c
 1680 098d 10       		.byte	0x10
 1681 098e 14       		.uleb128 0x14
 1682 098f 4F445200 		.ascii	"ODR\000"
 1683 0993 0D       		.byte	0xd
 1684 0994 E4       		.byte	0xe4
 1685 0995 7C040000 		.4byte	0x47c
 1686 0999 14       		.byte	0x14
 1687 099a 06       		.uleb128 0x6
 1688 099b 14010000 		.4byte	.LASF144
 1689 099f 0D       		.byte	0xd
 1690 09a0 EB       		.byte	0xeb
 1691 09a1 D7090000 		.4byte	0x9d7
 1692 09a5 18       		.byte	0x18
 1693 09a6 06       		.uleb128 0x6
 1694 09a7 91020000 		.4byte	.LASF145
 1695 09ab 0D       		.byte	0xd
 1696 09ac EC       		.byte	0xec
 1697 09ad 7C040000 		.4byte	0x47c
 1698 09b1 1C       		.byte	0x1c
 1699 09b2 06       		.uleb128 0x6
 1700 09b3 F8030000 		.4byte	.LASF146
 1701 09b7 0D       		.byte	0xd
 1702 09b8 ED       		.byte	0xed
 1703 09b9 7C040000 		.4byte	0x47c
 1704 09bd 20       		.byte	0x20
 1705 09be 06       		.uleb128 0x6
 1706 09bf F3030000 		.4byte	.LASF147
 1707 09c3 0D       		.byte	0xd
 1708 09c4 EE       		.byte	0xee
 1709 09c5 7C040000 		.4byte	0x47c
 1710 09c9 24       		.byte	0x24
ARM GAS  /var/folders/m4/4md61f0s1_g0rzfghffqnxvr0000gn/T//cczNOeW9.s 			page 31


 1711 09ca 14       		.uleb128 0x14
 1712 09cb 42525200 		.ascii	"BRR\000"
 1713 09cf 0D       		.byte	0xd
 1714 09d0 EF       		.byte	0xef
 1715 09d1 7C040000 		.4byte	0x47c
 1716 09d5 28       		.byte	0x28
 1717 09d6 00       		.byte	0
 1718 09d7 0F       		.uleb128 0xf
 1719 09d8 2F090000 		.4byte	0x92f
 1720 09dc 04       		.uleb128 0x4
 1721 09dd D3010000 		.4byte	.LASF148
 1722 09e1 0D       		.byte	0xd
 1723 09e2 F0       		.byte	0xf0
 1724 09e3 4A090000 		.4byte	0x94a
 1725 09e7 15       		.uleb128 0x15
 1726 09e8 1C       		.byte	0x1c
 1727 09e9 0D       		.byte	0xd
 1728 09ea F5       		.byte	0xf5
 1729 09eb 460A0000 		.4byte	0xa46
 1730 09ef 06       		.uleb128 0x6
 1731 09f0 3B010000 		.4byte	.LASF149
 1732 09f4 0D       		.byte	0xd
 1733 09f5 F7       		.byte	0xf7
 1734 09f6 C3000000 		.4byte	0xc3
 1735 09fa 00       		.byte	0
 1736 09fb 06       		.uleb128 0x6
 1737 09fc 96020000 		.4byte	.LASF150
 1738 0a00 0D       		.byte	0xd
 1739 0a01 F9       		.byte	0xf9
 1740 0a02 C3000000 		.4byte	0xc3
 1741 0a06 04       		.byte	0x4
 1742 0a07 06       		.uleb128 0x6
 1743 0a08 89020000 		.4byte	.LASF151
 1744 0a0c 0D       		.byte	0xd
 1745 0a0d FB       		.byte	0xfb
 1746 0a0e C3000000 		.4byte	0xc3
 1747 0a12 08       		.byte	0x8
 1748 0a13 06       		.uleb128 0x6
 1749 0a14 B4070000 		.4byte	.LASF152
 1750 0a18 0D       		.byte	0xd
 1751 0a19 FD       		.byte	0xfd
 1752 0a1a C3000000 		.4byte	0xc3
 1753 0a1e 0C       		.byte	0xc
 1754 0a1f 14       		.uleb128 0x14
 1755 0a20 6F647200 		.ascii	"odr\000"
 1756 0a24 0D       		.byte	0xd
 1757 0a25 FF       		.byte	0xff
 1758 0a26 C3000000 		.4byte	0xc3
 1759 0a2a 10       		.byte	0x10
 1760 0a2b 08       		.uleb128 0x8
 1761 0a2c BE040000 		.4byte	.LASF153
 1762 0a30 0D       		.byte	0xd
 1763 0a31 0101     		.2byte	0x101
 1764 0a33 C3000000 		.4byte	0xc3
 1765 0a37 14       		.byte	0x14
 1766 0a38 08       		.uleb128 0x8
 1767 0a39 C9030000 		.4byte	.LASF154
ARM GAS  /var/folders/m4/4md61f0s1_g0rzfghffqnxvr0000gn/T//cczNOeW9.s 			page 32


 1768 0a3d 0D       		.byte	0xd
 1769 0a3e 0301     		.2byte	0x103
 1770 0a40 C3000000 		.4byte	0xc3
 1771 0a44 18       		.byte	0x18
 1772 0a45 00       		.byte	0
 1773 0a46 13       		.uleb128 0x13
 1774 0a47 00000000 		.4byte	.LASF155
 1775 0a4b 0D       		.byte	0xd
 1776 0a4c 0401     		.2byte	0x104
 1777 0a4e E7090000 		.4byte	0x9e7
 1778 0a52 12       		.uleb128 0x12
 1779 0a53 E0       		.byte	0xe0
 1780 0a54 0D       		.byte	0xd
 1781 0a55 0D01     		.2byte	0x10d
 1782 0a57 C40A0000 		.4byte	0xac4
 1783 0a5b 08       		.uleb128 0x8
 1784 0a5c 00050000 		.4byte	.LASF156
 1785 0a60 0D       		.byte	0xd
 1786 0a61 1001     		.2byte	0x110
 1787 0a63 460A0000 		.4byte	0xa46
 1788 0a67 00       		.byte	0
 1789 0a68 08       		.uleb128 0x8
 1790 0a69 ED010000 		.4byte	.LASF157
 1791 0a6d 0D       		.byte	0xd
 1792 0a6e 1401     		.2byte	0x114
 1793 0a70 460A0000 		.4byte	0xa46
 1794 0a74 1C       		.byte	0x1c
 1795 0a75 08       		.uleb128 0x8
 1796 0a76 D0070000 		.4byte	.LASF158
 1797 0a7a 0D       		.byte	0xd
 1798 0a7b 1801     		.2byte	0x118
 1799 0a7d 460A0000 		.4byte	0xa46
 1800 0a81 38       		.byte	0x38
 1801 0a82 08       		.uleb128 0x8
 1802 0a83 CE030000 		.4byte	.LASF159
 1803 0a87 0D       		.byte	0xd
 1804 0a88 1C01     		.2byte	0x11c
 1805 0a8a 460A0000 		.4byte	0xa46
 1806 0a8e 54       		.byte	0x54
 1807 0a8f 08       		.uleb128 0x8
 1808 0a90 6A010000 		.4byte	.LASF160
 1809 0a94 0D       		.byte	0xd
 1810 0a95 2001     		.2byte	0x120
 1811 0a97 460A0000 		.4byte	0xa46
 1812 0a9b 70       		.byte	0x70
 1813 0a9c 08       		.uleb128 0x8
 1814 0a9d B0020000 		.4byte	.LASF161
 1815 0aa1 0D       		.byte	0xd
 1816 0aa2 2401     		.2byte	0x124
 1817 0aa4 460A0000 		.4byte	0xa46
 1818 0aa8 8C       		.byte	0x8c
 1819 0aa9 08       		.uleb128 0x8
 1820 0aaa 1D030000 		.4byte	.LASF162
 1821 0aae 0D       		.byte	0xd
 1822 0aaf 2801     		.2byte	0x128
 1823 0ab1 460A0000 		.4byte	0xa46
 1824 0ab5 A8       		.byte	0xa8
ARM GAS  /var/folders/m4/4md61f0s1_g0rzfghffqnxvr0000gn/T//cczNOeW9.s 			page 33


 1825 0ab6 08       		.uleb128 0x8
 1826 0ab7 6F000000 		.4byte	.LASF163
 1827 0abb 0D       		.byte	0xd
 1828 0abc 2C01     		.2byte	0x12c
 1829 0abe 460A0000 		.4byte	0xa46
 1830 0ac2 C4       		.byte	0xc4
 1831 0ac3 00       		.byte	0
 1832 0ac4 13       		.uleb128 0x13
 1833 0ac5 F3070000 		.4byte	.LASF164
 1834 0ac9 0D       		.byte	0xd
 1835 0aca 3A01     		.2byte	0x13a
 1836 0acc 520A0000 		.4byte	0xa52
 1837 0ad0 13       		.uleb128 0x13
 1838 0ad1 62000000 		.4byte	.LASF165
 1839 0ad5 0D       		.byte	0xd
 1840 0ad6 3F01     		.2byte	0x13f
 1841 0ad8 C3000000 		.4byte	0xc3
 1842 0adc 13       		.uleb128 0x13
 1843 0add EA070000 		.4byte	.LASF166
 1844 0ae1 0D       		.byte	0xd
 1845 0ae2 4401     		.2byte	0x144
 1846 0ae4 C3000000 		.4byte	0xc3
 1847 0ae8 13       		.uleb128 0x13
 1848 0ae9 17070000 		.4byte	.LASF167
 1849 0aed 0D       		.byte	0xd
 1850 0aee 5101     		.2byte	0x151
 1851 0af0 F40A0000 		.4byte	0xaf4
 1852 0af4 09       		.uleb128 0x9
 1853 0af5 04       		.byte	0x4
 1854 0af6 DC090000 		.4byte	0x9dc
 1855 0afa 1A       		.uleb128 0x1a
 1856 0afb F5060000 		.4byte	.LASF181
 1857 0aff 01       		.byte	0x1
 1858 0b00 3D       		.byte	0x3d
 1859 0b01 01       		.byte	0x1
 1860 0b02 1D0B0000 		.4byte	0xb1d
 1861 0b06 1B       		.uleb128 0x1b
 1862 0b07 16050000 		.4byte	.LASF168
 1863 0b0b 01       		.byte	0x1
 1864 0b0c 3D       		.byte	0x3d
 1865 0b0d F40A0000 		.4byte	0xaf4
 1866 0b11 1B       		.uleb128 0x1b
 1867 0b12 A1060000 		.4byte	.LASF169
 1868 0b16 01       		.byte	0x1
 1869 0b17 3D       		.byte	0x3d
 1870 0b18 1D0B0000 		.4byte	0xb1d
 1871 0b1c 00       		.byte	0
 1872 0b1d 09       		.uleb128 0x9
 1873 0b1e 04       		.byte	0x4
 1874 0b1f 230B0000 		.4byte	0xb23
 1875 0b23 18       		.uleb128 0x18
 1876 0b24 460A0000 		.4byte	0xa46
 1877 0b28 1C       		.uleb128 0x1c
 1878 0b29 8A070000 		.4byte	.LASF170
 1879 0b2d 01       		.byte	0x1
 1880 0b2e 58       		.byte	0x58
 1881 0b2f 00000000 		.4byte	.LFB269
ARM GAS  /var/folders/m4/4md61f0s1_g0rzfghffqnxvr0000gn/T//cczNOeW9.s 			page 34


 1882 0b33 6C010000 		.4byte	.LFE269-.LFB269
 1883 0b37 01       		.uleb128 0x1
 1884 0b38 9C       		.byte	0x9c
 1885 0b39 770C0000 		.4byte	0xc77
 1886 0b3d 1D       		.uleb128 0x1d
 1887 0b3e A1060000 		.4byte	.LASF169
 1888 0b42 01       		.byte	0x1
 1889 0b43 58       		.byte	0x58
 1890 0b44 770C0000 		.4byte	0xc77
 1891 0b48 01       		.uleb128 0x1
 1892 0b49 50       		.byte	0x50
 1893 0b4a 1E       		.uleb128 0x1e
 1894 0b4b FA0A0000 		.4byte	0xafa
 1895 0b4f 04000000 		.4byte	.LBB18
 1896 0b53 00000000 		.4byte	.Ldebug_ranges0+0
 1897 0b57 01       		.byte	0x1
 1898 0b58 70       		.byte	0x70
 1899 0b59 700B0000 		.4byte	0xb70
 1900 0b5d 1F       		.uleb128 0x1f
 1901 0b5e 110B0000 		.4byte	0xb11
 1902 0b62 00000000 		.4byte	.LLST0
 1903 0b66 1F       		.uleb128 0x1f
 1904 0b67 060B0000 		.4byte	0xb06
 1905 0b6b 13000000 		.4byte	.LLST1
 1906 0b6f 00       		.byte	0
 1907 0b70 1E       		.uleb128 0x1e
 1908 0b71 FA0A0000 		.4byte	0xafa
 1909 0b75 08000000 		.4byte	.LBB21
 1910 0b79 18000000 		.4byte	.Ldebug_ranges0+0x18
 1911 0b7d 01       		.byte	0x1
 1912 0b7e 73       		.byte	0x73
 1913 0b7f 960B0000 		.4byte	0xb96
 1914 0b83 1F       		.uleb128 0x1f
 1915 0b84 110B0000 		.4byte	0xb11
 1916 0b88 2B000000 		.4byte	.LLST2
 1917 0b8c 1F       		.uleb128 0x1f
 1918 0b8d 060B0000 		.4byte	0xb06
 1919 0b91 40000000 		.4byte	.LLST3
 1920 0b95 00       		.byte	0
 1921 0b96 1E       		.uleb128 0x1e
 1922 0b97 FA0A0000 		.4byte	0xafa
 1923 0b9b 0A000000 		.4byte	.LBB24
 1924 0b9f 30000000 		.4byte	.Ldebug_ranges0+0x30
 1925 0ba3 01       		.byte	0x1
 1926 0ba4 76       		.byte	0x76
 1927 0ba5 BC0B0000 		.4byte	0xbbc
 1928 0ba9 1F       		.uleb128 0x1f
 1929 0baa 110B0000 		.4byte	0xb11
 1930 0bae 58000000 		.4byte	.LLST4
 1931 0bb2 1F       		.uleb128 0x1f
 1932 0bb3 060B0000 		.4byte	0xb06
 1933 0bb7 6D000000 		.4byte	.LLST5
 1934 0bbb 00       		.byte	0
 1935 0bbc 1E       		.uleb128 0x1e
 1936 0bbd FA0A0000 		.4byte	0xafa
 1937 0bc1 0C000000 		.4byte	.LBB27
 1938 0bc5 48000000 		.4byte	.Ldebug_ranges0+0x48
ARM GAS  /var/folders/m4/4md61f0s1_g0rzfghffqnxvr0000gn/T//cczNOeW9.s 			page 35


 1939 0bc9 01       		.byte	0x1
 1940 0bca 79       		.byte	0x79
 1941 0bcb E20B0000 		.4byte	0xbe2
 1942 0bcf 1F       		.uleb128 0x1f
 1943 0bd0 110B0000 		.4byte	0xb11
 1944 0bd4 85000000 		.4byte	.LLST6
 1945 0bd8 1F       		.uleb128 0x1f
 1946 0bd9 060B0000 		.4byte	0xb06
 1947 0bdd 9B000000 		.4byte	.LLST7
 1948 0be1 00       		.byte	0
 1949 0be2 1E       		.uleb128 0x1e
 1950 0be3 FA0A0000 		.4byte	0xafa
 1951 0be7 0E000000 		.4byte	.LBB30
 1952 0beb 60000000 		.4byte	.Ldebug_ranges0+0x60
 1953 0bef 01       		.byte	0x1
 1954 0bf0 7C       		.byte	0x7c
 1955 0bf1 080C0000 		.4byte	0xc08
 1956 0bf5 1F       		.uleb128 0x1f
 1957 0bf6 110B0000 		.4byte	0xb11
 1958 0bfa B3000000 		.4byte	.LLST8
 1959 0bfe 1F       		.uleb128 0x1f
 1960 0bff 060B0000 		.4byte	0xb06
 1961 0c03 C9000000 		.4byte	.LLST9
 1962 0c07 00       		.byte	0
 1963 0c08 20       		.uleb128 0x20
 1964 0c09 FA0A0000 		.4byte	0xafa
 1965 0c0d B0000000 		.4byte	.LBB38
 1966 0c11 2E000000 		.4byte	.LBE38-.LBB38
 1967 0c15 01       		.byte	0x1
 1968 0c16 7F       		.byte	0x7f
 1969 0c17 2E0C0000 		.4byte	0xc2e
 1970 0c1b 1F       		.uleb128 0x1f
 1971 0c1c 110B0000 		.4byte	0xb11
 1972 0c20 E1000000 		.4byte	.LLST10
 1973 0c24 1F       		.uleb128 0x1f
 1974 0c25 060B0000 		.4byte	0xb06
 1975 0c29 F7000000 		.4byte	.LLST11
 1976 0c2d 00       		.byte	0
 1977 0c2e 20       		.uleb128 0x20
 1978 0c2f FA0A0000 		.4byte	0xafa
 1979 0c33 DE000000 		.4byte	.LBB40
 1980 0c37 38000000 		.4byte	.LBE40-.LBB40
 1981 0c3b 01       		.byte	0x1
 1982 0c3c 82       		.byte	0x82
 1983 0c3d 540C0000 		.4byte	0xc54
 1984 0c41 1F       		.uleb128 0x1f
 1985 0c42 110B0000 		.4byte	0xb11
 1986 0c46 0F010000 		.4byte	.LLST12
 1987 0c4a 1F       		.uleb128 0x1f
 1988 0c4b 060B0000 		.4byte	0xb06
 1989 0c4f 25010000 		.4byte	.LLST13
 1990 0c53 00       		.byte	0
 1991 0c54 21       		.uleb128 0x21
 1992 0c55 FA0A0000 		.4byte	0xafa
 1993 0c59 16010000 		.4byte	.LBB42
 1994 0c5d 38000000 		.4byte	.LBE42-.LBB42
 1995 0c61 01       		.byte	0x1
ARM GAS  /var/folders/m4/4md61f0s1_g0rzfghffqnxvr0000gn/T//cczNOeW9.s 			page 36


 1996 0c62 85       		.byte	0x85
 1997 0c63 1F       		.uleb128 0x1f
 1998 0c64 110B0000 		.4byte	0xb11
 1999 0c68 3D010000 		.4byte	.LLST14
 2000 0c6c 1F       		.uleb128 0x1f
 2001 0c6d 060B0000 		.4byte	0xb06
 2002 0c71 53010000 		.4byte	.LLST15
 2003 0c75 00       		.byte	0
 2004 0c76 00       		.byte	0
 2005 0c77 09       		.uleb128 0x9
 2006 0c78 04       		.byte	0x4
 2007 0c79 7D0C0000 		.4byte	0xc7d
 2008 0c7d 18       		.uleb128 0x18
 2009 0c7e C40A0000 		.4byte	0xac4
 2010 0c82 1C       		.uleb128 0x1c
 2011 0c83 3A070000 		.4byte	.LASF171
 2012 0c87 01       		.byte	0x1
 2013 0c88 9F       		.byte	0x9f
 2014 0c89 00000000 		.4byte	.LFB270
 2015 0c8d D0000000 		.4byte	.LFE270-.LFB270
 2016 0c91 01       		.uleb128 0x1
 2017 0c92 9C       		.byte	0x9c
 2018 0c93 520D0000 		.4byte	0xd52
 2019 0c97 1D       		.uleb128 0x1d
 2020 0c98 E0010000 		.4byte	.LASF172
 2021 0c9c 01       		.byte	0x1
 2022 0c9d 9F       		.byte	0x9f
 2023 0c9e E80A0000 		.4byte	0xae8
 2024 0ca2 01       		.uleb128 0x1
 2025 0ca3 50       		.byte	0x50
 2026 0ca4 22       		.uleb128 0x22
 2027 0ca5 B6010000 		.4byte	.LASF173
 2028 0ca9 01       		.byte	0x1
 2029 0caa A0       		.byte	0xa0
 2030 0cab D00A0000 		.4byte	0xad0
 2031 0caf 6B010000 		.4byte	.LLST16
 2032 0cb3 22       		.uleb128 0x22
 2033 0cb4 85070000 		.4byte	.LASF174
 2034 0cb8 01       		.byte	0x1
 2035 0cb9 A1       		.byte	0xa1
 2036 0cba DC0A0000 		.4byte	0xadc
 2037 0cbe AE010000 		.4byte	.LLST17
 2038 0cc2 23       		.uleb128 0x23
 2039 0cc3 3B010000 		.4byte	.LASF149
 2040 0cc7 01       		.byte	0x1
 2041 0cc8 A3       		.byte	0xa3
 2042 0cc9 C3000000 		.4byte	0xc3
 2043 0ccd 01       		.uleb128 0x1
 2044 0cce 5E       		.byte	0x5e
 2045 0ccf 23       		.uleb128 0x23
 2046 0cd0 96020000 		.4byte	.LASF150
 2047 0cd4 01       		.byte	0x1
 2048 0cd5 A4       		.byte	0xa4
 2049 0cd6 C3000000 		.4byte	0xc3
 2050 0cda 01       		.uleb128 0x1
 2051 0cdb 59       		.byte	0x59
 2052 0cdc 23       		.uleb128 0x23
ARM GAS  /var/folders/m4/4md61f0s1_g0rzfghffqnxvr0000gn/T//cczNOeW9.s 			page 37


 2053 0cdd 89020000 		.4byte	.LASF151
 2054 0ce1 01       		.byte	0x1
 2055 0ce2 A5       		.byte	0xa5
 2056 0ce3 C3000000 		.4byte	0xc3
 2057 0ce7 01       		.uleb128 0x1
 2058 0ce8 58       		.byte	0x58
 2059 0ce9 23       		.uleb128 0x23
 2060 0cea B4070000 		.4byte	.LASF152
 2061 0cee 01       		.byte	0x1
 2062 0cef A6       		.byte	0xa6
 2063 0cf0 C3000000 		.4byte	0xc3
 2064 0cf4 01       		.uleb128 0x1
 2065 0cf5 5C       		.byte	0x5c
 2066 0cf6 23       		.uleb128 0x23
 2067 0cf7 91050000 		.4byte	.LASF175
 2068 0cfb 01       		.byte	0x1
 2069 0cfc A7       		.byte	0xa7
 2070 0cfd C3000000 		.4byte	0xc3
 2071 0d01 01       		.uleb128 0x1
 2072 0d02 52       		.byte	0x52
 2073 0d03 24       		.uleb128 0x24
 2074 0d04 62697400 		.ascii	"bit\000"
 2075 0d08 01       		.byte	0x1
 2076 0d09 A8       		.byte	0xa8
 2077 0d0a C3000000 		.4byte	0xc3
 2078 0d0e CF010000 		.4byte	.LLST18
 2079 0d12 25       		.uleb128 0x25
 2080 0d13 78000000 		.4byte	.Ldebug_ranges0+0x78
 2081 0d17 26       		.uleb128 0x26
 2082 0d18 8D010000 		.4byte	.LASF176
 2083 0d1c 01       		.byte	0x1
 2084 0d1d AB       		.byte	0xab
 2085 0d1e C3000000 		.4byte	0xc3
 2086 0d22 EE010000 		.4byte	.LLST19
 2087 0d26 24       		.uleb128 0x24
 2088 0d27 6D3100   		.ascii	"m1\000"
 2089 0d2a 01       		.byte	0x1
 2090 0d2b AB       		.byte	0xab
 2091 0d2c C3000000 		.4byte	0xc3
 2092 0d30 72020000 		.4byte	.LLST20
 2093 0d34 24       		.uleb128 0x24
 2094 0d35 6D3200   		.ascii	"m2\000"
 2095 0d38 01       		.byte	0x1
 2096 0d39 AB       		.byte	0xab
 2097 0d3a C3000000 		.4byte	0xc3
 2098 0d3e A7020000 		.4byte	.LLST21
 2099 0d42 24       		.uleb128 0x24
 2100 0d43 6D3400   		.ascii	"m4\000"
 2101 0d46 01       		.byte	0x1
 2102 0d47 AB       		.byte	0xab
 2103 0d48 C3000000 		.4byte	0xc3
 2104 0d4c FE020000 		.4byte	.LLST22
 2105 0d50 00       		.byte	0
 2106 0d51 00       		.byte	0
 2107 0d52 27       		.uleb128 0x27
 2108 0d53 C3000000 		.4byte	.LASF177
 2109 0d57 0E       		.byte	0xe
ARM GAS  /var/folders/m4/4md61f0s1_g0rzfghffqnxvr0000gn/T//cczNOeW9.s 			page 38


 2110 0d58 FA06     		.2byte	0x6fa
 2111 0d5a 5E0D0000 		.4byte	0xd5e
 2112 0d5e 0F       		.uleb128 0xf
 2113 0d5f B8000000 		.4byte	0xb8
 2114 0d63 28       		.uleb128 0x28
 2115 0d64 636800   		.ascii	"ch\000"
 2116 0d67 06       		.byte	0x6
 2117 0d68 0902     		.2byte	0x209
 2118 0d6a 0E040000 		.4byte	0x40e
 2119 0d6e 00       		.byte	0
 2120              		.section	.debug_abbrev,"",%progbits
 2121              	.Ldebug_abbrev0:
 2122 0000 01       		.uleb128 0x1
 2123 0001 11       		.uleb128 0x11
 2124 0002 01       		.byte	0x1
 2125 0003 25       		.uleb128 0x25
 2126 0004 0E       		.uleb128 0xe
 2127 0005 13       		.uleb128 0x13
 2128 0006 0B       		.uleb128 0xb
 2129 0007 03       		.uleb128 0x3
 2130 0008 0E       		.uleb128 0xe
 2131 0009 1B       		.uleb128 0x1b
 2132 000a 0E       		.uleb128 0xe
 2133 000b 55       		.uleb128 0x55
 2134 000c 17       		.uleb128 0x17
 2135 000d 11       		.uleb128 0x11
 2136 000e 01       		.uleb128 0x1
 2137 000f 10       		.uleb128 0x10
 2138 0010 17       		.uleb128 0x17
 2139 0011 00       		.byte	0
 2140 0012 00       		.byte	0
 2141 0013 02       		.uleb128 0x2
 2142 0014 24       		.uleb128 0x24
 2143 0015 00       		.byte	0
 2144 0016 0B       		.uleb128 0xb
 2145 0017 0B       		.uleb128 0xb
 2146 0018 3E       		.uleb128 0x3e
 2147 0019 0B       		.uleb128 0xb
 2148 001a 03       		.uleb128 0x3
 2149 001b 08       		.uleb128 0x8
 2150 001c 00       		.byte	0
 2151 001d 00       		.byte	0
 2152 001e 03       		.uleb128 0x3
 2153 001f 24       		.uleb128 0x24
 2154 0020 00       		.byte	0
 2155 0021 0B       		.uleb128 0xb
 2156 0022 0B       		.uleb128 0xb
 2157 0023 3E       		.uleb128 0x3e
 2158 0024 0B       		.uleb128 0xb
 2159 0025 03       		.uleb128 0x3
 2160 0026 0E       		.uleb128 0xe
 2161 0027 00       		.byte	0
 2162 0028 00       		.byte	0
 2163 0029 04       		.uleb128 0x4
 2164 002a 16       		.uleb128 0x16
 2165 002b 00       		.byte	0
 2166 002c 03       		.uleb128 0x3
ARM GAS  /var/folders/m4/4md61f0s1_g0rzfghffqnxvr0000gn/T//cczNOeW9.s 			page 39


 2167 002d 0E       		.uleb128 0xe
 2168 002e 3A       		.uleb128 0x3a
 2169 002f 0B       		.uleb128 0xb
 2170 0030 3B       		.uleb128 0x3b
 2171 0031 0B       		.uleb128 0xb
 2172 0032 49       		.uleb128 0x49
 2173 0033 13       		.uleb128 0x13
 2174 0034 00       		.byte	0
 2175 0035 00       		.byte	0
 2176 0036 05       		.uleb128 0x5
 2177 0037 13       		.uleb128 0x13
 2178 0038 01       		.byte	0x1
 2179 0039 03       		.uleb128 0x3
 2180 003a 0E       		.uleb128 0xe
 2181 003b 0B       		.uleb128 0xb
 2182 003c 0B       		.uleb128 0xb
 2183 003d 3A       		.uleb128 0x3a
 2184 003e 0B       		.uleb128 0xb
 2185 003f 3B       		.uleb128 0x3b
 2186 0040 0B       		.uleb128 0xb
 2187 0041 01       		.uleb128 0x1
 2188 0042 13       		.uleb128 0x13
 2189 0043 00       		.byte	0
 2190 0044 00       		.byte	0
 2191 0045 06       		.uleb128 0x6
 2192 0046 0D       		.uleb128 0xd
 2193 0047 00       		.byte	0
 2194 0048 03       		.uleb128 0x3
 2195 0049 0E       		.uleb128 0xe
 2196 004a 3A       		.uleb128 0x3a
 2197 004b 0B       		.uleb128 0xb
 2198 004c 3B       		.uleb128 0x3b
 2199 004d 0B       		.uleb128 0xb
 2200 004e 49       		.uleb128 0x49
 2201 004f 13       		.uleb128 0x13
 2202 0050 38       		.uleb128 0x38
 2203 0051 0B       		.uleb128 0xb
 2204 0052 00       		.byte	0
 2205 0053 00       		.byte	0
 2206 0054 07       		.uleb128 0x7
 2207 0055 0D       		.uleb128 0xd
 2208 0056 00       		.byte	0
 2209 0057 03       		.uleb128 0x3
 2210 0058 08       		.uleb128 0x8
 2211 0059 3A       		.uleb128 0x3a
 2212 005a 0B       		.uleb128 0xb
 2213 005b 3B       		.uleb128 0x3b
 2214 005c 05       		.uleb128 0x5
 2215 005d 49       		.uleb128 0x49
 2216 005e 13       		.uleb128 0x13
 2217 005f 38       		.uleb128 0x38
 2218 0060 0B       		.uleb128 0xb
 2219 0061 00       		.byte	0
 2220 0062 00       		.byte	0
 2221 0063 08       		.uleb128 0x8
 2222 0064 0D       		.uleb128 0xd
 2223 0065 00       		.byte	0
ARM GAS  /var/folders/m4/4md61f0s1_g0rzfghffqnxvr0000gn/T//cczNOeW9.s 			page 40


 2224 0066 03       		.uleb128 0x3
 2225 0067 0E       		.uleb128 0xe
 2226 0068 3A       		.uleb128 0x3a
 2227 0069 0B       		.uleb128 0xb
 2228 006a 3B       		.uleb128 0x3b
 2229 006b 05       		.uleb128 0x5
 2230 006c 49       		.uleb128 0x49
 2231 006d 13       		.uleb128 0x13
 2232 006e 38       		.uleb128 0x38
 2233 006f 0B       		.uleb128 0xb
 2234 0070 00       		.byte	0
 2235 0071 00       		.byte	0
 2236 0072 09       		.uleb128 0x9
 2237 0073 0F       		.uleb128 0xf
 2238 0074 00       		.byte	0
 2239 0075 0B       		.uleb128 0xb
 2240 0076 0B       		.uleb128 0xb
 2241 0077 49       		.uleb128 0x49
 2242 0078 13       		.uleb128 0x13
 2243 0079 00       		.byte	0
 2244 007a 00       		.byte	0
 2245 007b 0A       		.uleb128 0xa
 2246 007c 13       		.uleb128 0x13
 2247 007d 01       		.byte	0x1
 2248 007e 03       		.uleb128 0x3
 2249 007f 0E       		.uleb128 0xe
 2250 0080 0B       		.uleb128 0xb
 2251 0081 0B       		.uleb128 0xb
 2252 0082 3A       		.uleb128 0x3a
 2253 0083 0B       		.uleb128 0xb
 2254 0084 3B       		.uleb128 0x3b
 2255 0085 05       		.uleb128 0x5
 2256 0086 01       		.uleb128 0x1
 2257 0087 13       		.uleb128 0x13
 2258 0088 00       		.byte	0
 2259 0089 00       		.byte	0
 2260 008a 0B       		.uleb128 0xb
 2261 008b 15       		.uleb128 0x15
 2262 008c 01       		.byte	0x1
 2263 008d 27       		.uleb128 0x27
 2264 008e 19       		.uleb128 0x19
 2265 008f 01       		.uleb128 0x1
 2266 0090 13       		.uleb128 0x13
 2267 0091 00       		.byte	0
 2268 0092 00       		.byte	0
 2269 0093 0C       		.uleb128 0xc
 2270 0094 05       		.uleb128 0x5
 2271 0095 00       		.byte	0
 2272 0096 49       		.uleb128 0x49
 2273 0097 13       		.uleb128 0x13
 2274 0098 00       		.byte	0
 2275 0099 00       		.byte	0
 2276 009a 0D       		.uleb128 0xd
 2277 009b 0F       		.uleb128 0xf
 2278 009c 00       		.byte	0
 2279 009d 0B       		.uleb128 0xb
 2280 009e 0B       		.uleb128 0xb
ARM GAS  /var/folders/m4/4md61f0s1_g0rzfghffqnxvr0000gn/T//cczNOeW9.s 			page 41


 2281 009f 00       		.byte	0
 2282 00a0 00       		.byte	0
 2283 00a1 0E       		.uleb128 0xe
 2284 00a2 13       		.uleb128 0x13
 2285 00a3 01       		.byte	0x1
 2286 00a4 03       		.uleb128 0x3
 2287 00a5 0E       		.uleb128 0xe
 2288 00a6 0B       		.uleb128 0xb
 2289 00a7 05       		.uleb128 0x5
 2290 00a8 3A       		.uleb128 0x3a
 2291 00a9 0B       		.uleb128 0xb
 2292 00aa 3B       		.uleb128 0x3b
 2293 00ab 05       		.uleb128 0x5
 2294 00ac 01       		.uleb128 0x1
 2295 00ad 13       		.uleb128 0x13
 2296 00ae 00       		.byte	0
 2297 00af 00       		.byte	0
 2298 00b0 0F       		.uleb128 0xf
 2299 00b1 35       		.uleb128 0x35
 2300 00b2 00       		.byte	0
 2301 00b3 49       		.uleb128 0x49
 2302 00b4 13       		.uleb128 0x13
 2303 00b5 00       		.byte	0
 2304 00b6 00       		.byte	0
 2305 00b7 10       		.uleb128 0x10
 2306 00b8 01       		.uleb128 0x1
 2307 00b9 01       		.byte	0x1
 2308 00ba 49       		.uleb128 0x49
 2309 00bb 13       		.uleb128 0x13
 2310 00bc 01       		.uleb128 0x1
 2311 00bd 13       		.uleb128 0x13
 2312 00be 00       		.byte	0
 2313 00bf 00       		.byte	0
 2314 00c0 11       		.uleb128 0x11
 2315 00c1 21       		.uleb128 0x21
 2316 00c2 00       		.byte	0
 2317 00c3 49       		.uleb128 0x49
 2318 00c4 13       		.uleb128 0x13
 2319 00c5 2F       		.uleb128 0x2f
 2320 00c6 0B       		.uleb128 0xb
 2321 00c7 00       		.byte	0
 2322 00c8 00       		.byte	0
 2323 00c9 12       		.uleb128 0x12
 2324 00ca 13       		.uleb128 0x13
 2325 00cb 01       		.byte	0x1
 2326 00cc 0B       		.uleb128 0xb
 2327 00cd 0B       		.uleb128 0xb
 2328 00ce 3A       		.uleb128 0x3a
 2329 00cf 0B       		.uleb128 0xb
 2330 00d0 3B       		.uleb128 0x3b
 2331 00d1 05       		.uleb128 0x5
 2332 00d2 01       		.uleb128 0x1
 2333 00d3 13       		.uleb128 0x13
 2334 00d4 00       		.byte	0
 2335 00d5 00       		.byte	0
 2336 00d6 13       		.uleb128 0x13
 2337 00d7 16       		.uleb128 0x16
ARM GAS  /var/folders/m4/4md61f0s1_g0rzfghffqnxvr0000gn/T//cczNOeW9.s 			page 42


 2338 00d8 00       		.byte	0
 2339 00d9 03       		.uleb128 0x3
 2340 00da 0E       		.uleb128 0xe
 2341 00db 3A       		.uleb128 0x3a
 2342 00dc 0B       		.uleb128 0xb
 2343 00dd 3B       		.uleb128 0x3b
 2344 00de 05       		.uleb128 0x5
 2345 00df 49       		.uleb128 0x49
 2346 00e0 13       		.uleb128 0x13
 2347 00e1 00       		.byte	0
 2348 00e2 00       		.byte	0
 2349 00e3 14       		.uleb128 0x14
 2350 00e4 0D       		.uleb128 0xd
 2351 00e5 00       		.byte	0
 2352 00e6 03       		.uleb128 0x3
 2353 00e7 08       		.uleb128 0x8
 2354 00e8 3A       		.uleb128 0x3a
 2355 00e9 0B       		.uleb128 0xb
 2356 00ea 3B       		.uleb128 0x3b
 2357 00eb 0B       		.uleb128 0xb
 2358 00ec 49       		.uleb128 0x49
 2359 00ed 13       		.uleb128 0x13
 2360 00ee 38       		.uleb128 0x38
 2361 00ef 0B       		.uleb128 0xb
 2362 00f0 00       		.byte	0
 2363 00f1 00       		.byte	0
 2364 00f2 15       		.uleb128 0x15
 2365 00f3 13       		.uleb128 0x13
 2366 00f4 01       		.byte	0x1
 2367 00f5 0B       		.uleb128 0xb
 2368 00f6 0B       		.uleb128 0xb
 2369 00f7 3A       		.uleb128 0x3a
 2370 00f8 0B       		.uleb128 0xb
 2371 00f9 3B       		.uleb128 0x3b
 2372 00fa 0B       		.uleb128 0xb
 2373 00fb 01       		.uleb128 0x1
 2374 00fc 13       		.uleb128 0x13
 2375 00fd 00       		.byte	0
 2376 00fe 00       		.byte	0
 2377 00ff 16       		.uleb128 0x16
 2378 0100 17       		.uleb128 0x17
 2379 0101 01       		.byte	0x1
 2380 0102 0B       		.uleb128 0xb
 2381 0103 0B       		.uleb128 0xb
 2382 0104 3A       		.uleb128 0x3a
 2383 0105 0B       		.uleb128 0xb
 2384 0106 3B       		.uleb128 0x3b
 2385 0107 0B       		.uleb128 0xb
 2386 0108 01       		.uleb128 0x1
 2387 0109 13       		.uleb128 0x13
 2388 010a 00       		.byte	0
 2389 010b 00       		.byte	0
 2390 010c 17       		.uleb128 0x17
 2391 010d 0D       		.uleb128 0xd
 2392 010e 00       		.byte	0
 2393 010f 03       		.uleb128 0x3
 2394 0110 0E       		.uleb128 0xe
ARM GAS  /var/folders/m4/4md61f0s1_g0rzfghffqnxvr0000gn/T//cczNOeW9.s 			page 43


 2395 0111 3A       		.uleb128 0x3a
 2396 0112 0B       		.uleb128 0xb
 2397 0113 3B       		.uleb128 0x3b
 2398 0114 05       		.uleb128 0x5
 2399 0115 49       		.uleb128 0x49
 2400 0116 13       		.uleb128 0x13
 2401 0117 00       		.byte	0
 2402 0118 00       		.byte	0
 2403 0119 18       		.uleb128 0x18
 2404 011a 26       		.uleb128 0x26
 2405 011b 00       		.byte	0
 2406 011c 49       		.uleb128 0x49
 2407 011d 13       		.uleb128 0x13
 2408 011e 00       		.byte	0
 2409 011f 00       		.byte	0
 2410 0120 19       		.uleb128 0x19
 2411 0121 0D       		.uleb128 0xd
 2412 0122 00       		.byte	0
 2413 0123 03       		.uleb128 0x3
 2414 0124 08       		.uleb128 0x8
 2415 0125 3A       		.uleb128 0x3a
 2416 0126 0B       		.uleb128 0xb
 2417 0127 3B       		.uleb128 0x3b
 2418 0128 0B       		.uleb128 0xb
 2419 0129 49       		.uleb128 0x49
 2420 012a 13       		.uleb128 0x13
 2421 012b 00       		.byte	0
 2422 012c 00       		.byte	0
 2423 012d 1A       		.uleb128 0x1a
 2424 012e 2E       		.uleb128 0x2e
 2425 012f 01       		.byte	0x1
 2426 0130 03       		.uleb128 0x3
 2427 0131 0E       		.uleb128 0xe
 2428 0132 3A       		.uleb128 0x3a
 2429 0133 0B       		.uleb128 0xb
 2430 0134 3B       		.uleb128 0x3b
 2431 0135 0B       		.uleb128 0xb
 2432 0136 27       		.uleb128 0x27
 2433 0137 19       		.uleb128 0x19
 2434 0138 20       		.uleb128 0x20
 2435 0139 0B       		.uleb128 0xb
 2436 013a 01       		.uleb128 0x1
 2437 013b 13       		.uleb128 0x13
 2438 013c 00       		.byte	0
 2439 013d 00       		.byte	0
 2440 013e 1B       		.uleb128 0x1b
 2441 013f 05       		.uleb128 0x5
 2442 0140 00       		.byte	0
 2443 0141 03       		.uleb128 0x3
 2444 0142 0E       		.uleb128 0xe
 2445 0143 3A       		.uleb128 0x3a
 2446 0144 0B       		.uleb128 0xb
 2447 0145 3B       		.uleb128 0x3b
 2448 0146 0B       		.uleb128 0xb
 2449 0147 49       		.uleb128 0x49
 2450 0148 13       		.uleb128 0x13
 2451 0149 00       		.byte	0
ARM GAS  /var/folders/m4/4md61f0s1_g0rzfghffqnxvr0000gn/T//cczNOeW9.s 			page 44


 2452 014a 00       		.byte	0
 2453 014b 1C       		.uleb128 0x1c
 2454 014c 2E       		.uleb128 0x2e
 2455 014d 01       		.byte	0x1
 2456 014e 3F       		.uleb128 0x3f
 2457 014f 19       		.uleb128 0x19
 2458 0150 03       		.uleb128 0x3
 2459 0151 0E       		.uleb128 0xe
 2460 0152 3A       		.uleb128 0x3a
 2461 0153 0B       		.uleb128 0xb
 2462 0154 3B       		.uleb128 0x3b
 2463 0155 0B       		.uleb128 0xb
 2464 0156 27       		.uleb128 0x27
 2465 0157 19       		.uleb128 0x19
 2466 0158 11       		.uleb128 0x11
 2467 0159 01       		.uleb128 0x1
 2468 015a 12       		.uleb128 0x12
 2469 015b 06       		.uleb128 0x6
 2470 015c 40       		.uleb128 0x40
 2471 015d 18       		.uleb128 0x18
 2472 015e 9742     		.uleb128 0x2117
 2473 0160 19       		.uleb128 0x19
 2474 0161 01       		.uleb128 0x1
 2475 0162 13       		.uleb128 0x13
 2476 0163 00       		.byte	0
 2477 0164 00       		.byte	0
 2478 0165 1D       		.uleb128 0x1d
 2479 0166 05       		.uleb128 0x5
 2480 0167 00       		.byte	0
 2481 0168 03       		.uleb128 0x3
 2482 0169 0E       		.uleb128 0xe
 2483 016a 3A       		.uleb128 0x3a
 2484 016b 0B       		.uleb128 0xb
 2485 016c 3B       		.uleb128 0x3b
 2486 016d 0B       		.uleb128 0xb
 2487 016e 49       		.uleb128 0x49
 2488 016f 13       		.uleb128 0x13
 2489 0170 02       		.uleb128 0x2
 2490 0171 18       		.uleb128 0x18
 2491 0172 00       		.byte	0
 2492 0173 00       		.byte	0
 2493 0174 1E       		.uleb128 0x1e
 2494 0175 1D       		.uleb128 0x1d
 2495 0176 01       		.byte	0x1
 2496 0177 31       		.uleb128 0x31
 2497 0178 13       		.uleb128 0x13
 2498 0179 52       		.uleb128 0x52
 2499 017a 01       		.uleb128 0x1
 2500 017b 55       		.uleb128 0x55
 2501 017c 17       		.uleb128 0x17
 2502 017d 58       		.uleb128 0x58
 2503 017e 0B       		.uleb128 0xb
 2504 017f 59       		.uleb128 0x59
 2505 0180 0B       		.uleb128 0xb
 2506 0181 01       		.uleb128 0x1
 2507 0182 13       		.uleb128 0x13
 2508 0183 00       		.byte	0
ARM GAS  /var/folders/m4/4md61f0s1_g0rzfghffqnxvr0000gn/T//cczNOeW9.s 			page 45


 2509 0184 00       		.byte	0
 2510 0185 1F       		.uleb128 0x1f
 2511 0186 05       		.uleb128 0x5
 2512 0187 00       		.byte	0
 2513 0188 31       		.uleb128 0x31
 2514 0189 13       		.uleb128 0x13
 2515 018a 02       		.uleb128 0x2
 2516 018b 17       		.uleb128 0x17
 2517 018c 00       		.byte	0
 2518 018d 00       		.byte	0
 2519 018e 20       		.uleb128 0x20
 2520 018f 1D       		.uleb128 0x1d
 2521 0190 01       		.byte	0x1
 2522 0191 31       		.uleb128 0x31
 2523 0192 13       		.uleb128 0x13
 2524 0193 11       		.uleb128 0x11
 2525 0194 01       		.uleb128 0x1
 2526 0195 12       		.uleb128 0x12
 2527 0196 06       		.uleb128 0x6
 2528 0197 58       		.uleb128 0x58
 2529 0198 0B       		.uleb128 0xb
 2530 0199 59       		.uleb128 0x59
 2531 019a 0B       		.uleb128 0xb
 2532 019b 01       		.uleb128 0x1
 2533 019c 13       		.uleb128 0x13
 2534 019d 00       		.byte	0
 2535 019e 00       		.byte	0
 2536 019f 21       		.uleb128 0x21
 2537 01a0 1D       		.uleb128 0x1d
 2538 01a1 01       		.byte	0x1
 2539 01a2 31       		.uleb128 0x31
 2540 01a3 13       		.uleb128 0x13
 2541 01a4 11       		.uleb128 0x11
 2542 01a5 01       		.uleb128 0x1
 2543 01a6 12       		.uleb128 0x12
 2544 01a7 06       		.uleb128 0x6
 2545 01a8 58       		.uleb128 0x58
 2546 01a9 0B       		.uleb128 0xb
 2547 01aa 59       		.uleb128 0x59
 2548 01ab 0B       		.uleb128 0xb
 2549 01ac 00       		.byte	0
 2550 01ad 00       		.byte	0
 2551 01ae 22       		.uleb128 0x22
 2552 01af 05       		.uleb128 0x5
 2553 01b0 00       		.byte	0
 2554 01b1 03       		.uleb128 0x3
 2555 01b2 0E       		.uleb128 0xe
 2556 01b3 3A       		.uleb128 0x3a
 2557 01b4 0B       		.uleb128 0xb
 2558 01b5 3B       		.uleb128 0x3b
 2559 01b6 0B       		.uleb128 0xb
 2560 01b7 49       		.uleb128 0x49
 2561 01b8 13       		.uleb128 0x13
 2562 01b9 02       		.uleb128 0x2
 2563 01ba 17       		.uleb128 0x17
 2564 01bb 00       		.byte	0
 2565 01bc 00       		.byte	0
ARM GAS  /var/folders/m4/4md61f0s1_g0rzfghffqnxvr0000gn/T//cczNOeW9.s 			page 46


 2566 01bd 23       		.uleb128 0x23
 2567 01be 34       		.uleb128 0x34
 2568 01bf 00       		.byte	0
 2569 01c0 03       		.uleb128 0x3
 2570 01c1 0E       		.uleb128 0xe
 2571 01c2 3A       		.uleb128 0x3a
 2572 01c3 0B       		.uleb128 0xb
 2573 01c4 3B       		.uleb128 0x3b
 2574 01c5 0B       		.uleb128 0xb
 2575 01c6 49       		.uleb128 0x49
 2576 01c7 13       		.uleb128 0x13
 2577 01c8 02       		.uleb128 0x2
 2578 01c9 18       		.uleb128 0x18
 2579 01ca 00       		.byte	0
 2580 01cb 00       		.byte	0
 2581 01cc 24       		.uleb128 0x24
 2582 01cd 34       		.uleb128 0x34
 2583 01ce 00       		.byte	0
 2584 01cf 03       		.uleb128 0x3
 2585 01d0 08       		.uleb128 0x8
 2586 01d1 3A       		.uleb128 0x3a
 2587 01d2 0B       		.uleb128 0xb
 2588 01d3 3B       		.uleb128 0x3b
 2589 01d4 0B       		.uleb128 0xb
 2590 01d5 49       		.uleb128 0x49
 2591 01d6 13       		.uleb128 0x13
 2592 01d7 02       		.uleb128 0x2
 2593 01d8 17       		.uleb128 0x17
 2594 01d9 00       		.byte	0
 2595 01da 00       		.byte	0
 2596 01db 25       		.uleb128 0x25
 2597 01dc 0B       		.uleb128 0xb
 2598 01dd 01       		.byte	0x1
 2599 01de 55       		.uleb128 0x55
 2600 01df 17       		.uleb128 0x17
 2601 01e0 00       		.byte	0
 2602 01e1 00       		.byte	0
 2603 01e2 26       		.uleb128 0x26
 2604 01e3 34       		.uleb128 0x34
 2605 01e4 00       		.byte	0
 2606 01e5 03       		.uleb128 0x3
 2607 01e6 0E       		.uleb128 0xe
 2608 01e7 3A       		.uleb128 0x3a
 2609 01e8 0B       		.uleb128 0xb
 2610 01e9 3B       		.uleb128 0x3b
 2611 01ea 0B       		.uleb128 0xb
 2612 01eb 49       		.uleb128 0x49
 2613 01ec 13       		.uleb128 0x13
 2614 01ed 02       		.uleb128 0x2
 2615 01ee 17       		.uleb128 0x17
 2616 01ef 00       		.byte	0
 2617 01f0 00       		.byte	0
 2618 01f1 27       		.uleb128 0x27
 2619 01f2 34       		.uleb128 0x34
 2620 01f3 00       		.byte	0
 2621 01f4 03       		.uleb128 0x3
 2622 01f5 0E       		.uleb128 0xe
ARM GAS  /var/folders/m4/4md61f0s1_g0rzfghffqnxvr0000gn/T//cczNOeW9.s 			page 47


 2623 01f6 3A       		.uleb128 0x3a
 2624 01f7 0B       		.uleb128 0xb
 2625 01f8 3B       		.uleb128 0x3b
 2626 01f9 05       		.uleb128 0x5
 2627 01fa 49       		.uleb128 0x49
 2628 01fb 13       		.uleb128 0x13
 2629 01fc 3F       		.uleb128 0x3f
 2630 01fd 19       		.uleb128 0x19
 2631 01fe 3C       		.uleb128 0x3c
 2632 01ff 19       		.uleb128 0x19
 2633 0200 00       		.byte	0
 2634 0201 00       		.byte	0
 2635 0202 28       		.uleb128 0x28
 2636 0203 34       		.uleb128 0x34
 2637 0204 00       		.byte	0
 2638 0205 03       		.uleb128 0x3
 2639 0206 08       		.uleb128 0x8
 2640 0207 3A       		.uleb128 0x3a
 2641 0208 0B       		.uleb128 0xb
 2642 0209 3B       		.uleb128 0x3b
 2643 020a 05       		.uleb128 0x5
 2644 020b 49       		.uleb128 0x49
 2645 020c 13       		.uleb128 0x13
 2646 020d 3F       		.uleb128 0x3f
 2647 020e 19       		.uleb128 0x19
 2648 020f 3C       		.uleb128 0x3c
 2649 0210 19       		.uleb128 0x19
 2650 0211 00       		.byte	0
 2651 0212 00       		.byte	0
 2652 0213 00       		.byte	0
 2653              		.section	.debug_loc,"",%progbits
 2654              	.Ldebug_loc0:
 2655              	.LLST0:
 2656 0000 1E000000 		.4byte	.LVL1
 2657 0004 3A000000 		.4byte	.LVL2
 2658 0008 0100     		.2byte	0x1
 2659 000a 50       		.byte	0x50
 2660 000b 00000000 		.4byte	0
 2661 000f 00000000 		.4byte	0
 2662              	.LLST1:
 2663 0013 1E000000 		.4byte	.LVL1
 2664 0017 3A000000 		.4byte	.LVL2
 2665 001b 0600     		.2byte	0x6
 2666 001d 0C       		.byte	0xc
 2667 001e 00000240 		.4byte	0x40020000
 2668 0022 9F       		.byte	0x9f
 2669 0023 00000000 		.4byte	0
 2670 0027 00000000 		.4byte	0
 2671              	.LLST2:
 2672 002b 3A000000 		.4byte	.LVL2
 2673 002f 56000000 		.4byte	.LVL3
 2674 0033 0300     		.2byte	0x3
 2675 0035 70       		.byte	0x70
 2676 0036 1C       		.sleb128 28
 2677 0037 9F       		.byte	0x9f
 2678 0038 00000000 		.4byte	0
 2679 003c 00000000 		.4byte	0
ARM GAS  /var/folders/m4/4md61f0s1_g0rzfghffqnxvr0000gn/T//cczNOeW9.s 			page 48


 2680              	.LLST3:
 2681 0040 3A000000 		.4byte	.LVL2
 2682 0044 56000000 		.4byte	.LVL3
 2683 0048 0600     		.2byte	0x6
 2684 004a 0C       		.byte	0xc
 2685 004b 00040240 		.4byte	0x40020400
 2686 004f 9F       		.byte	0x9f
 2687 0050 00000000 		.4byte	0
 2688 0054 00000000 		.4byte	0
 2689              	.LLST4:
 2690 0058 56000000 		.4byte	.LVL3
 2691 005c 72000000 		.4byte	.LVL4
 2692 0060 0300     		.2byte	0x3
 2693 0062 70       		.byte	0x70
 2694 0063 38       		.sleb128 56
 2695 0064 9F       		.byte	0x9f
 2696 0065 00000000 		.4byte	0
 2697 0069 00000000 		.4byte	0
 2698              	.LLST5:
 2699 006d 56000000 		.4byte	.LVL3
 2700 0071 72000000 		.4byte	.LVL4
 2701 0075 0600     		.2byte	0x6
 2702 0077 0C       		.byte	0xc
 2703 0078 00080240 		.4byte	0x40020800
 2704 007c 9F       		.byte	0x9f
 2705 007d 00000000 		.4byte	0
 2706 0081 00000000 		.4byte	0
 2707              	.LLST6:
 2708 0085 72000000 		.4byte	.LVL4
 2709 0089 8E000000 		.4byte	.LVL5
 2710 008d 0400     		.2byte	0x4
 2711 008f 70       		.byte	0x70
 2712 0090 D400     		.sleb128 84
 2713 0092 9F       		.byte	0x9f
 2714 0093 00000000 		.4byte	0
 2715 0097 00000000 		.4byte	0
 2716              	.LLST7:
 2717 009b 72000000 		.4byte	.LVL4
 2718 009f 8E000000 		.4byte	.LVL5
 2719 00a3 0600     		.2byte	0x6
 2720 00a5 0C       		.byte	0xc
 2721 00a6 000C0240 		.4byte	0x40020c00
 2722 00aa 9F       		.byte	0x9f
 2723 00ab 00000000 		.4byte	0
 2724 00af 00000000 		.4byte	0
 2725              	.LLST8:
 2726 00b3 8E000000 		.4byte	.LVL5
 2727 00b7 B0000000 		.4byte	.LVL6
 2728 00bb 0400     		.2byte	0x4
 2729 00bd 70       		.byte	0x70
 2730 00be F000     		.sleb128 112
 2731 00c0 9F       		.byte	0x9f
 2732 00c1 00000000 		.4byte	0
 2733 00c5 00000000 		.4byte	0
 2734              	.LLST9:
 2735 00c9 8E000000 		.4byte	.LVL5
 2736 00cd B0000000 		.4byte	.LVL6
ARM GAS  /var/folders/m4/4md61f0s1_g0rzfghffqnxvr0000gn/T//cczNOeW9.s 			page 49


 2737 00d1 0600     		.2byte	0x6
 2738 00d3 0C       		.byte	0xc
 2739 00d4 00100240 		.4byte	0x40021000
 2740 00d8 9F       		.byte	0x9f
 2741 00d9 00000000 		.4byte	0
 2742 00dd 00000000 		.4byte	0
 2743              	.LLST10:
 2744 00e1 B0000000 		.4byte	.LVL6
 2745 00e5 DE000000 		.4byte	.LVL7
 2746 00e9 0400     		.2byte	0x4
 2747 00eb 70       		.byte	0x70
 2748 00ec 8C01     		.sleb128 140
 2749 00ee 9F       		.byte	0x9f
 2750 00ef 00000000 		.4byte	0
 2751 00f3 00000000 		.4byte	0
 2752              	.LLST11:
 2753 00f7 B0000000 		.4byte	.LVL6
 2754 00fb DE000000 		.4byte	.LVL7
 2755 00ff 0600     		.2byte	0x6
 2756 0101 0C       		.byte	0xc
 2757 0102 00140240 		.4byte	0x40021400
 2758 0106 9F       		.byte	0x9f
 2759 0107 00000000 		.4byte	0
 2760 010b 00000000 		.4byte	0
 2761              	.LLST12:
 2762 010f DE000000 		.4byte	.LVL7
 2763 0113 16010000 		.4byte	.LVL8
 2764 0117 0400     		.2byte	0x4
 2765 0119 70       		.byte	0x70
 2766 011a A801     		.sleb128 168
 2767 011c 9F       		.byte	0x9f
 2768 011d 00000000 		.4byte	0
 2769 0121 00000000 		.4byte	0
 2770              	.LLST13:
 2771 0125 DE000000 		.4byte	.LVL7
 2772 0129 16010000 		.4byte	.LVL8
 2773 012d 0600     		.2byte	0x6
 2774 012f 0C       		.byte	0xc
 2775 0130 00180240 		.4byte	0x40021800
 2776 0134 9F       		.byte	0x9f
 2777 0135 00000000 		.4byte	0
 2778 0139 00000000 		.4byte	0
 2779              	.LLST14:
 2780 013d 16010000 		.4byte	.LVL8
 2781 0141 4E010000 		.4byte	.LVL9
 2782 0145 0400     		.2byte	0x4
 2783 0147 70       		.byte	0x70
 2784 0148 C401     		.sleb128 196
 2785 014a 9F       		.byte	0x9f
 2786 014b 00000000 		.4byte	0
 2787 014f 00000000 		.4byte	0
 2788              	.LLST15:
 2789 0153 16010000 		.4byte	.LVL8
 2790 0157 4E010000 		.4byte	.LVL9
 2791 015b 0600     		.2byte	0x6
 2792 015d 0C       		.byte	0xc
 2793 015e 001C0240 		.4byte	0x40021c00
ARM GAS  /var/folders/m4/4md61f0s1_g0rzfghffqnxvr0000gn/T//cczNOeW9.s 			page 50


 2794 0162 9F       		.byte	0x9f
 2795 0163 00000000 		.4byte	0
 2796 0167 00000000 		.4byte	0
 2797              	.LLST16:
 2798 016b 00000000 		.4byte	.LVL10
 2799 016f 2E000000 		.4byte	.LVL18
 2800 0173 0100     		.2byte	0x1
 2801 0175 51       		.byte	0x51
 2802 0176 2E000000 		.4byte	.LVL18
 2803 017a 30000000 		.4byte	.LVL19
 2804 017e 0500     		.2byte	0x5
 2805 0180 71       		.byte	0x71
 2806 0181 00       		.sleb128 0
 2807 0182 31       		.byte	0x31
 2808 0183 25       		.byte	0x25
 2809 0184 9F       		.byte	0x9f
 2810 0185 30000000 		.4byte	.LVL19
 2811 0189 32000000 		.4byte	.LVL20
 2812 018d 0100     		.2byte	0x1
 2813 018f 51       		.byte	0x51
 2814 0190 44000000 		.4byte	.LVL25
 2815 0194 A2000000 		.4byte	.LVL31
 2816 0198 0100     		.2byte	0x1
 2817 019a 51       		.byte	0x51
 2818 019b AA000000 		.4byte	.LVL33
 2819 019f D0000000 		.4byte	.LFE270
 2820 01a3 0100     		.2byte	0x1
 2821 01a5 51       		.byte	0x51
 2822 01a6 00000000 		.4byte	0
 2823 01aa 00000000 		.4byte	0
 2824              	.LLST17:
 2825 01ae 00000000 		.4byte	.LVL10
 2826 01b2 1A000000 		.4byte	.LVL14
 2827 01b6 0100     		.2byte	0x1
 2828 01b8 52       		.byte	0x52
 2829 01b9 1A000000 		.4byte	.LVL14
 2830 01bd D0000000 		.4byte	.LFE270
 2831 01c1 0400     		.2byte	0x4
 2832 01c3 F3       		.byte	0xf3
 2833 01c4 01       		.uleb128 0x1
 2834 01c5 52       		.byte	0x52
 2835 01c6 9F       		.byte	0x9f
 2836 01c7 00000000 		.4byte	0
 2837 01cb 00000000 		.4byte	0
 2838              	.LLST18:
 2839 01cf 1A000000 		.4byte	.LVL14
 2840 01d3 24000000 		.4byte	.LVL15
 2841 01d7 0200     		.2byte	0x2
 2842 01d9 30       		.byte	0x30
 2843 01da 9F       		.byte	0x9f
 2844 01db 24000000 		.4byte	.LVL15
 2845 01df D0000000 		.4byte	.LFE270
 2846 01e3 0100     		.2byte	0x1
 2847 01e5 57       		.byte	0x57
 2848 01e6 00000000 		.4byte	0
 2849 01ea 00000000 		.4byte	0
 2850              	.LLST19:
ARM GAS  /var/folders/m4/4md61f0s1_g0rzfghffqnxvr0000gn/T//cczNOeW9.s 			page 51


 2851 01ee 24000000 		.4byte	.LVL15
 2852 01f2 2C000000 		.4byte	.LVL17
 2853 01f6 0100     		.2byte	0x1
 2854 01f8 55       		.byte	0x55
 2855 01f9 2C000000 		.4byte	.LVL17
 2856 01fd 2E000000 		.4byte	.LVL18
 2857 0201 0A00     		.2byte	0xa
 2858 0203 72       		.byte	0x72
 2859 0204 00       		.sleb128 0
 2860 0205 77       		.byte	0x77
 2861 0206 00       		.sleb128 0
 2862 0207 37       		.byte	0x37
 2863 0208 1A       		.byte	0x1a
 2864 0209 32       		.byte	0x32
 2865 020a 24       		.byte	0x24
 2866 020b 24       		.byte	0x24
 2867 020c 9F       		.byte	0x9f
 2868 020d 84000000 		.4byte	.LVL26
 2869 0211 A0000000 		.4byte	.LVL30
 2870 0215 0100     		.2byte	0x1
 2871 0217 55       		.byte	0x55
 2872 0218 A0000000 		.4byte	.LVL30
 2873 021c A6000000 		.4byte	.LVL32
 2874 0220 0A00     		.2byte	0xa
 2875 0222 72       		.byte	0x72
 2876 0223 00       		.sleb128 0
 2877 0224 77       		.byte	0x77
 2878 0225 00       		.sleb128 0
 2879 0226 37       		.byte	0x37
 2880 0227 1A       		.byte	0x1a
 2881 0228 32       		.byte	0x32
 2882 0229 24       		.byte	0x24
 2883 022a 24       		.byte	0x24
 2884 022b 9F       		.byte	0x9f
 2885 022c AA000000 		.4byte	.LVL33
 2886 0230 B6000000 		.4byte	.LVL35
 2887 0234 0100     		.2byte	0x1
 2888 0236 55       		.byte	0x55
 2889 0237 B6000000 		.4byte	.LVL35
 2890 023b C4000000 		.4byte	.LVL37
 2891 023f 0A00     		.2byte	0xa
 2892 0241 72       		.byte	0x72
 2893 0242 00       		.sleb128 0
 2894 0243 77       		.byte	0x77
 2895 0244 00       		.sleb128 0
 2896 0245 37       		.byte	0x37
 2897 0246 1A       		.byte	0x1a
 2898 0247 32       		.byte	0x32
 2899 0248 24       		.byte	0x24
 2900 0249 24       		.byte	0x24
 2901 024a 9F       		.byte	0x9f
 2902 024b C4000000 		.4byte	.LVL37
 2903 024f CC000000 		.4byte	.LVL39
 2904 0253 0100     		.2byte	0x1
 2905 0255 55       		.byte	0x55
 2906 0256 CC000000 		.4byte	.LVL39
 2907 025a D0000000 		.4byte	.LFE270
ARM GAS  /var/folders/m4/4md61f0s1_g0rzfghffqnxvr0000gn/T//cczNOeW9.s 			page 52


 2908 025e 0A00     		.2byte	0xa
 2909 0260 72       		.byte	0x72
 2910 0261 00       		.sleb128 0
 2911 0262 77       		.byte	0x77
 2912 0263 00       		.sleb128 0
 2913 0264 37       		.byte	0x37
 2914 0265 1A       		.byte	0x1a
 2915 0266 32       		.byte	0x32
 2916 0267 24       		.byte	0x24
 2917 0268 24       		.byte	0x24
 2918 0269 9F       		.byte	0x9f
 2919 026a 00000000 		.4byte	0
 2920 026e 00000000 		.4byte	0
 2921              	.LLST20:
 2922 0272 24000000 		.4byte	.LVL15
 2923 0276 2E000000 		.4byte	.LVL18
 2924 027a 0500     		.2byte	0x5
 2925 027c 31       		.byte	0x31
 2926 027d 77       		.byte	0x77
 2927 027e 00       		.sleb128 0
 2928 027f 24       		.byte	0x24
 2929 0280 9F       		.byte	0x9f
 2930 0281 84000000 		.4byte	.LVL26
 2931 0285 A6000000 		.4byte	.LVL32
 2932 0289 0500     		.2byte	0x5
 2933 028b 31       		.byte	0x31
 2934 028c 77       		.byte	0x77
 2935 028d 00       		.sleb128 0
 2936 028e 24       		.byte	0x24
 2937 028f 9F       		.byte	0x9f
 2938 0290 AA000000 		.4byte	.LVL33
 2939 0294 D0000000 		.4byte	.LFE270
 2940 0298 0500     		.2byte	0x5
 2941 029a 31       		.byte	0x31
 2942 029b 77       		.byte	0x77
 2943 029c 00       		.sleb128 0
 2944 029d 24       		.byte	0x24
 2945 029e 9F       		.byte	0x9f
 2946 029f 00000000 		.4byte	0
 2947 02a3 00000000 		.4byte	0
 2948              	.LLST21:
 2949 02a7 24000000 		.4byte	.LVL15
 2950 02ab 2E000000 		.4byte	.LVL18
 2951 02af 0700     		.2byte	0x7
 2952 02b1 33       		.byte	0x33
 2953 02b2 77       		.byte	0x77
 2954 02b3 00       		.sleb128 0
 2955 02b4 31       		.byte	0x31
 2956 02b5 24       		.byte	0x24
 2957 02b6 24       		.byte	0x24
 2958 02b7 9F       		.byte	0x9f
 2959 02b8 84000000 		.4byte	.LVL26
 2960 02bc 8E000000 		.4byte	.LVL28
 2961 02c0 0400     		.2byte	0x4
 2962 02c2 74       		.byte	0x74
 2963 02c3 00       		.sleb128 0
 2964 02c4 20       		.byte	0x20
ARM GAS  /var/folders/m4/4md61f0s1_g0rzfghffqnxvr0000gn/T//cczNOeW9.s 			page 53


 2965 02c5 9F       		.byte	0x9f
 2966 02c6 8E000000 		.4byte	.LVL28
 2967 02ca A6000000 		.4byte	.LVL32
 2968 02ce 0700     		.2byte	0x7
 2969 02d0 33       		.byte	0x33
 2970 02d1 77       		.byte	0x77
 2971 02d2 00       		.sleb128 0
 2972 02d3 31       		.byte	0x31
 2973 02d4 24       		.byte	0x24
 2974 02d5 24       		.byte	0x24
 2975 02d6 9F       		.byte	0x9f
 2976 02d7 AA000000 		.4byte	.LVL33
 2977 02db BC000000 		.4byte	.LVL36
 2978 02df 0400     		.2byte	0x4
 2979 02e1 74       		.byte	0x74
 2980 02e2 00       		.sleb128 0
 2981 02e3 20       		.byte	0x20
 2982 02e4 9F       		.byte	0x9f
 2983 02e5 BC000000 		.4byte	.LVL36
 2984 02e9 D0000000 		.4byte	.LFE270
 2985 02ed 0700     		.2byte	0x7
 2986 02ef 33       		.byte	0x33
 2987 02f0 77       		.byte	0x77
 2988 02f1 00       		.sleb128 0
 2989 02f2 31       		.byte	0x31
 2990 02f3 24       		.byte	0x24
 2991 02f4 24       		.byte	0x24
 2992 02f5 9F       		.byte	0x9f
 2993 02f6 00000000 		.4byte	0
 2994 02fa 00000000 		.4byte	0
 2995              	.LLST22:
 2996 02fe 24000000 		.4byte	.LVL15
 2997 0302 2A000000 		.4byte	.LVL16
 2998 0306 0100     		.2byte	0x1
 2999 0308 53       		.byte	0x53
 3000 0309 2A000000 		.4byte	.LVL16
 3001 030d 2E000000 		.4byte	.LVL18
 3002 0311 0A00     		.2byte	0xa
 3003 0313 7B       		.byte	0x7b
 3004 0314 00       		.sleb128 0
 3005 0315 77       		.byte	0x77
 3006 0316 00       		.sleb128 0
 3007 0317 37       		.byte	0x37
 3008 0318 1A       		.byte	0x1a
 3009 0319 32       		.byte	0x32
 3010 031a 24       		.byte	0x24
 3011 031b 24       		.byte	0x24
 3012 031c 9F       		.byte	0x9f
 3013 031d 88000000 		.4byte	.LVL27
 3014 0321 9E000000 		.4byte	.LVL29
 3015 0325 0100     		.2byte	0x1
 3016 0327 53       		.byte	0x53
 3017 0328 9E000000 		.4byte	.LVL29
 3018 032c A6000000 		.4byte	.LVL32
 3019 0330 0A00     		.2byte	0xa
 3020 0332 7B       		.byte	0x7b
 3021 0333 00       		.sleb128 0
ARM GAS  /var/folders/m4/4md61f0s1_g0rzfghffqnxvr0000gn/T//cczNOeW9.s 			page 54


 3022 0334 77       		.byte	0x77
 3023 0335 00       		.sleb128 0
 3024 0336 37       		.byte	0x37
 3025 0337 1A       		.byte	0x1a
 3026 0338 32       		.byte	0x32
 3027 0339 24       		.byte	0x24
 3028 033a 24       		.byte	0x24
 3029 033b 9F       		.byte	0x9f
 3030 033c AA000000 		.4byte	.LVL33
 3031 0340 B4000000 		.4byte	.LVL34
 3032 0344 0100     		.2byte	0x1
 3033 0346 53       		.byte	0x53
 3034 0347 B4000000 		.4byte	.LVL34
 3035 034b C4000000 		.4byte	.LVL37
 3036 034f 0A00     		.2byte	0xa
 3037 0351 7B       		.byte	0x7b
 3038 0352 00       		.sleb128 0
 3039 0353 77       		.byte	0x77
 3040 0354 00       		.sleb128 0
 3041 0355 37       		.byte	0x37
 3042 0356 1A       		.byte	0x1a
 3043 0357 32       		.byte	0x32
 3044 0358 24       		.byte	0x24
 3045 0359 24       		.byte	0x24
 3046 035a 9F       		.byte	0x9f
 3047 035b C4000000 		.4byte	.LVL37
 3048 035f CA000000 		.4byte	.LVL38
 3049 0363 0100     		.2byte	0x1
 3050 0365 53       		.byte	0x53
 3051 0366 CA000000 		.4byte	.LVL38
 3052 036a D0000000 		.4byte	.LFE270
 3053 036e 0A00     		.2byte	0xa
 3054 0370 7B       		.byte	0x7b
 3055 0371 00       		.sleb128 0
 3056 0372 77       		.byte	0x77
 3057 0373 00       		.sleb128 0
 3058 0374 37       		.byte	0x37
 3059 0375 1A       		.byte	0x1a
 3060 0376 32       		.byte	0x32
 3061 0377 24       		.byte	0x24
 3062 0378 24       		.byte	0x24
 3063 0379 9F       		.byte	0x9f
 3064 037a 00000000 		.4byte	0
 3065 037e 00000000 		.4byte	0
 3066              		.section	.debug_aranges,"",%progbits
 3067 0000 24000000 		.4byte	0x24
 3068 0004 0200     		.2byte	0x2
 3069 0006 00000000 		.4byte	.Ldebug_info0
 3070 000a 04       		.byte	0x4
 3071 000b 00       		.byte	0
 3072 000c 0000     		.2byte	0
 3073 000e 0000     		.2byte	0
 3074 0010 00000000 		.4byte	.LFB269
 3075 0014 6C010000 		.4byte	.LFE269-.LFB269
 3076 0018 00000000 		.4byte	.LFB270
 3077 001c D0000000 		.4byte	.LFE270-.LFB270
 3078 0020 00000000 		.4byte	0
ARM GAS  /var/folders/m4/4md61f0s1_g0rzfghffqnxvr0000gn/T//cczNOeW9.s 			page 55


 3079 0024 00000000 		.4byte	0
 3080              		.section	.debug_ranges,"",%progbits
 3081              	.Ldebug_ranges0:
 3082 0000 04000000 		.4byte	.LBB18
 3083 0004 06000000 		.4byte	.LBE18
 3084 0008 1E000000 		.4byte	.LBB33
 3085 000c 3A000000 		.4byte	.LBE33
 3086 0010 00000000 		.4byte	0
 3087 0014 00000000 		.4byte	0
 3088 0018 08000000 		.4byte	.LBB21
 3089 001c 0A000000 		.4byte	.LBE21
 3090 0020 3A000000 		.4byte	.LBB34
 3091 0024 56000000 		.4byte	.LBE34
 3092 0028 00000000 		.4byte	0
 3093 002c 00000000 		.4byte	0
 3094 0030 0A000000 		.4byte	.LBB24
 3095 0034 0C000000 		.4byte	.LBE24
 3096 0038 56000000 		.4byte	.LBB35
 3097 003c 72000000 		.4byte	.LBE35
 3098 0040 00000000 		.4byte	0
 3099 0044 00000000 		.4byte	0
 3100 0048 0C000000 		.4byte	.LBB27
 3101 004c 0E000000 		.4byte	.LBE27
 3102 0050 72000000 		.4byte	.LBB36
 3103 0054 8E000000 		.4byte	.LBE36
 3104 0058 00000000 		.4byte	0
 3105 005c 00000000 		.4byte	0
 3106 0060 0E000000 		.4byte	.LBB30
 3107 0064 10000000 		.4byte	.LBE30
 3108 0068 8E000000 		.4byte	.LBB37
 3109 006c B0000000 		.4byte	.LBE37
 3110 0070 00000000 		.4byte	0
 3111 0074 00000000 		.4byte	0
 3112 0078 1A000000 		.4byte	.LBB44
 3113 007c 2E000000 		.4byte	.LBE44
 3114 0080 48000000 		.4byte	.LBB45
 3115 0084 A0000000 		.4byte	.LBE45
 3116 0088 A2000000 		.4byte	.LBB46
 3117 008c A4000000 		.4byte	.LBE46
 3118 0090 AA000000 		.4byte	.LBB47
 3119 0094 D0000000 		.4byte	.LBE47
 3120 0098 00000000 		.4byte	0
 3121 009c 00000000 		.4byte	0
 3122 00a0 00000000 		.4byte	.LFB269
 3123 00a4 6C010000 		.4byte	.LFE269
 3124 00a8 00000000 		.4byte	.LFB270
 3125 00ac D0000000 		.4byte	.LFE270
 3126 00b0 00000000 		.4byte	0
 3127 00b4 00000000 		.4byte	0
 3128              		.section	.debug_line,"",%progbits
 3129              	.Ldebug_line0:
 3130 0000 68030000 		.section	.debug_str,"MS",%progbits,1
 3130      0200AF02 
 3130      00000201 
 3130      FB0E0D00 
 3130      01010101 
 3131              	.LASF155:
ARM GAS  /var/folders/m4/4md61f0s1_g0rzfghffqnxvr0000gn/T//cczNOeW9.s 			page 56


 3132 0000 73746D33 		.ascii	"stm32_gpio_setup_t\000"
 3132      325F6770 
 3132      696F5F73 
 3132      65747570 
 3132      5F7400
 3133              	.LASF55:
 3134 0013 72656164 		.ascii	"ready_list_t\000"
 3134      795F6C69 
 3134      73745F74 
 3134      00
 3135              	.LASF125:
 3136 0020 77747472 		.ascii	"wttrp\000"
 3136      7000
 3137              	.LASF122:
 3138 0026 7264796D 		.ascii	"rdymsg\000"
 3138      736700
 3139              	.LASF18:
 3140 002d 75696E74 		.ascii	"uint64_t\000"
 3140      36345F74 
 3140      00
 3141              	.LASF4:
 3142 0036 5F5F7569 		.ascii	"__uint8_t\000"
 3142      6E74385F 
 3142      7400
 3143              	.LASF141:
 3144 0040 4F545950 		.ascii	"OTYPER\000"
 3144      455200
 3145              	.LASF119:
 3146 0047 706F7274 		.ascii	"port_intctx\000"
 3146      5F696E74 
 3146      63747800 
 3147              	.LASF74:
 3148 0053 73797374 		.ascii	"system_debug_t\000"
 3148      656D5F64 
 3148      65627567 
 3148      5F7400
 3149              	.LASF165:
 3150 0062 696F706F 		.ascii	"ioportmask_t\000"
 3150      72746D61 
 3150      736B5F74 
 3150      00
 3151              	.LASF163:
 3152 006f 50484461 		.ascii	"PHData\000"
 3152      746100
 3153              	.LASF140:
 3154 0076 4D4F4445 		.ascii	"MODER\000"
 3154      5200
 3155              	.LASF13:
 3156 007c 6C6F6E67 		.ascii	"long long unsigned int\000"
 3156      206C6F6E 
 3156      6720756E 
 3156      7369676E 
 3156      65642069 
 3157              	.LASF143:
 3158 0093 50555044 		.ascii	"PUPDR\000"
 3158      5200
 3159              	.LASF123:
ARM GAS  /var/folders/m4/4md61f0s1_g0rzfghffqnxvr0000gn/T//cczNOeW9.s 			page 57


 3160 0099 65786974 		.ascii	"exitcode\000"
 3160      636F6465 
 3160      00
 3161              	.LASF81:
 3162 00a2 6D61696E 		.ascii	"mainthread\000"
 3162      74687265 
 3162      616400
 3163              	.LASF71:
 3164 00ad 76697274 		.ascii	"virtual_timers_list_t\000"
 3164      75616C5F 
 3164      74696D65 
 3164      72735F6C 
 3164      6973745F 
 3165              	.LASF177:
 3166 00c3 49544D5F 		.ascii	"ITM_RxBuffer\000"
 3166      52784275 
 3166      66666572 
 3166      00
 3167              	.LASF54:
 3168 00d0 63685F74 		.ascii	"ch_threads_queue\000"
 3168      68726561 
 3168      64735F71 
 3168      75657565 
 3168      00
 3169              	.LASF100:
 3170 00e1 41484231 		.ascii	"AHB1LPENR\000"
 3170      4C50454E 
 3170      5200
 3171              	.LASF32:
 3172 00eb 705F7072 		.ascii	"p_prio\000"
 3172      696F00
 3173              	.LASF112:
 3174 00f2 44434B43 		.ascii	"DCKCFGR\000"
 3174      46475200 
 3175              	.LASF11:
 3176 00fa 6C6F6E67 		.ascii	"long long int\000"
 3176      206C6F6E 
 3176      6720696E 
 3176      7400
 3177              	.LASF1:
 3178 0108 7369676E 		.ascii	"signed char\000"
 3178      65642063 
 3178      68617200 
 3179              	.LASF144:
 3180 0114 42535252 		.ascii	"BSRR\000"
 3180      00
 3181              	.LASF86:
 3182 0119 41484231 		.ascii	"AHB1RSTR\000"
 3182      52535452 
 3182      00
 3183              	.LASF114:
 3184 0122 44434B43 		.ascii	"DCKCFGR2\000"
 3184      46475232 
 3184      00
 3185              	.LASF48:
 3186 012b 705F6D70 		.ascii	"p_mpool\000"
 3186      6F6F6C00 
ARM GAS  /var/folders/m4/4md61f0s1_g0rzfghffqnxvr0000gn/T//cczNOeW9.s 			page 58


 3187              	.LASF133:
 3188 0133 6D5F7175 		.ascii	"m_queue\000"
 3188      65756500 
 3189              	.LASF149:
 3190 013b 6D6F6465 		.ascii	"moder\000"
 3190      7200
 3191              	.LASF23:
 3192 0141 74736C69 		.ascii	"tslices_t\000"
 3192      6365735F 
 3192      7400
 3193              	.LASF115:
 3194 014b 5243435F 		.ascii	"RCC_TypeDef\000"
 3194      54797065 
 3194      44656600 
 3195              	.LASF78:
 3196 0157 63685F73 		.ascii	"ch_system\000"
 3196      79737465 
 3196      6D00
 3197              	.LASF8:
 3198 0161 6C6F6E67 		.ascii	"long int\000"
 3198      20696E74 
 3198      00
 3199              	.LASF160:
 3200 016a 50454461 		.ascii	"PEData\000"
 3200      746100
 3201              	.LASF91:
 3202 0171 41504232 		.ascii	"APB2RSTR\000"
 3202      52535452 
 3202      00
 3203              	.LASF104:
 3204 017a 41504231 		.ascii	"APB1LPENR\000"
 3204      4C50454E 
 3204      5200
 3205              	.LASF21:
 3206 0184 74737461 		.ascii	"tstate_t\000"
 3206      74655F74 
 3206      00
 3207              	.LASF176:
 3208 018d 616C7472 		.ascii	"altrmask\000"
 3208      6D61736B 
 3208      00
 3209              	.LASF34:
 3210 0196 705F6E65 		.ascii	"p_newer\000"
 3210      77657200 
 3211              	.LASF84:
 3212 019e 504C4C43 		.ascii	"PLLCFGR\000"
 3212      46475200 
 3213              	.LASF142:
 3214 01a6 4F535045 		.ascii	"OSPEEDR\000"
 3214      45445200 
 3215              	.LASF60:
 3216 01ae 725F6E65 		.ascii	"r_newer\000"
 3216      77657200 
 3217              	.LASF173:
 3218 01b6 6D61736B 		.ascii	"mask\000"
 3218      00
 3219              	.LASF116:
ARM GAS  /var/folders/m4/4md61f0s1_g0rzfghffqnxvr0000gn/T//cczNOeW9.s 			page 59


 3220 01bb 72656761 		.ascii	"regarm_t\000"
 3220      726D5F74 
 3220      00
 3221              	.LASF67:
 3222 01c4 76745F70 		.ascii	"vt_prev\000"
 3222      72657600 
 3223              	.LASF80:
 3224 01cc 76746C69 		.ascii	"vtlist\000"
 3224      737400
 3225              	.LASF148:
 3226 01d3 73746D33 		.ascii	"stm32_gpio_t\000"
 3226      325F6770 
 3226      696F5F74 
 3226      00
 3227              	.LASF172:
 3228 01e0 706F7274 		.ascii	"port\000"
 3228      00
 3229              	.LASF137:
 3230 01e5 6D757465 		.ascii	"mutex_t\000"
 3230      785F7400 
 3231              	.LASF157:
 3232 01ed 50424461 		.ascii	"PBData\000"
 3232      746100
 3233              	.LASF82:
 3234 01f4 69646C65 		.ascii	"idle_thread_wa\000"
 3234      5F746872 
 3234      6561645F 
 3234      776100
 3235              	.LASF27:
 3236 0203 636E745F 		.ascii	"cnt_t\000"
 3236      7400
 3237              	.LASF0:
 3238 0209 756E7369 		.ascii	"unsigned int\000"
 3238      676E6564 
 3238      20696E74 
 3238      00
 3239              	.LASF66:
 3240 0216 76745F6E 		.ascii	"vt_next\000"
 3240      65787400 
 3241              	.LASF15:
 3242 021e 75696E74 		.ascii	"uint16_t\000"
 3242      31365F74 
 3242      00
 3243              	.LASF180:
 3244 0227 2F557365 		.ascii	"/Users/raphael/Documents/Projects/pcb-quadrotor/cod"
 3244      72732F72 
 3244      61706861 
 3244      656C2F44 
 3244      6F63756D 
 3245 025a 6500     		.ascii	"e\000"
 3246              	.LASF41:
 3247 025c 705F7469 		.ascii	"p_time\000"
 3247      6D6500
 3248              	.LASF126:
 3249 0263 77747365 		.ascii	"wtsemp\000"
 3249      6D7000
 3250              	.LASF73:
ARM GAS  /var/folders/m4/4md61f0s1_g0rzfghffqnxvr0000gn/T//cczNOeW9.s 			page 60


 3251 026a 76745F73 		.ascii	"vt_systime\000"
 3251      79737469 
 3251      6D6500
 3252              	.LASF68:
 3253 0275 76745F64 		.ascii	"vt_delta\000"
 3253      656C7461 
 3253      00
 3254              	.LASF43:
 3255 027e 705F6D73 		.ascii	"p_msgqueue\000"
 3255      67717565 
 3255      756500
 3256              	.LASF151:
 3257 0289 6F737065 		.ascii	"ospeedr\000"
 3257      65647200 
 3258              	.LASF145:
 3259 0291 4C434B52 		.ascii	"LCKR\000"
 3259      00
 3260              	.LASF150:
 3261 0296 6F747970 		.ascii	"otyper\000"
 3261      657200
 3262              	.LASF6:
 3263 029d 73686F72 		.ascii	"short unsigned int\000"
 3263      7420756E 
 3263      7369676E 
 3263      65642069 
 3263      6E7400
 3264              	.LASF161:
 3265 02b0 50464461 		.ascii	"PFData\000"
 3265      746100
 3266              	.LASF51:
 3267 02b7 63685F74 		.ascii	"ch_thread\000"
 3267      68726561 
 3267      6400
 3268              	.LASF110:
 3269 02c1 504C4C49 		.ascii	"PLLI2SCFGR\000"
 3269      32534346 
 3269      475200
 3270              	.LASF25:
 3271 02cc 6D73675F 		.ascii	"msg_t\000"
 3271      7400
 3272              	.LASF88:
 3273 02d2 41484233 		.ascii	"AHB3RSTR\000"
 3273      52535452 
 3273      00
 3274              	.LASF77:
 3275 02db 63685F73 		.ascii	"ch_system_t\000"
 3275      79737465 
 3275      6D5F7400 
 3276              	.LASF20:
 3277 02e7 746D6F64 		.ascii	"tmode_t\000"
 3277      655F7400 
 3278              	.LASF105:
 3279 02ef 41504232 		.ascii	"APB2LPENR\000"
 3279      4C50454E 
 3279      5200
 3280              	.LASF56:
 3281 02f9 63685F72 		.ascii	"ch_ready_list\000"
ARM GAS  /var/folders/m4/4md61f0s1_g0rzfghffqnxvr0000gn/T//cczNOeW9.s 			page 61


 3281      65616479 
 3281      5F6C6973 
 3281      7400
 3282              	.LASF26:
 3283 0307 6576656E 		.ascii	"eventmask_t\000"
 3283      746D6173 
 3283      6B5F7400 
 3284              	.LASF7:
 3285 0313 5F5F696E 		.ascii	"__int32_t\000"
 3285      7433325F 
 3285      7400
 3286              	.LASF162:
 3287 031d 50474461 		.ascii	"PGData\000"
 3287      746100
 3288              	.LASF117:
 3289 0324 73746B61 		.ascii	"stkalign_t\000"
 3289      6C69676E 
 3289      5F7400
 3290              	.LASF50:
 3291 032f 74687265 		.ascii	"threads_list_t\000"
 3291      6164735F 
 3291      6C697374 
 3291      5F7400
 3292              	.LASF64:
 3293 033e 76697274 		.ascii	"virtual_timer_t\000"
 3293      75616C5F 
 3293      74696D65 
 3293      725F7400 
 3294              	.LASF42:
 3295 034e 705F7761 		.ascii	"p_waiting\000"
 3295      6974696E 
 3295      6700
 3296              	.LASF83:
 3297 0358 73697A65 		.ascii	"sizetype\000"
 3297      74797065 
 3297      00
 3298              	.LASF49:
 3299 0361 74687265 		.ascii	"thread_reference_t\000"
 3299      61645F72 
 3299      65666572 
 3299      656E6365 
 3299      5F7400
 3300              	.LASF72:
 3301 0374 63685F76 		.ascii	"ch_virtual_timers_list\000"
 3301      69727475 
 3301      616C5F74 
 3301      696D6572 
 3301      735F6C69 
 3302              	.LASF139:
 3303 038b 636C6561 		.ascii	"clear\000"
 3303      7200
 3304              	.LASF30:
 3305 0391 705F6E65 		.ascii	"p_next\000"
 3305      787400
 3306              	.LASF95:
 3307 0398 41484233 		.ascii	"AHB3ENR\000"
 3307      454E5200 
ARM GAS  /var/folders/m4/4md61f0s1_g0rzfghffqnxvr0000gn/T//cczNOeW9.s 			page 62


 3308              	.LASF35:
 3309 03a0 705F6F6C 		.ascii	"p_older\000"
 3309      64657200 
 3310              	.LASF59:
 3311 03a8 725F6374 		.ascii	"r_ctx\000"
 3311      7800
 3312              	.LASF101:
 3313 03ae 41484232 		.ascii	"AHB2LPENR\000"
 3313      4C50454E 
 3313      5200
 3314              	.LASF121:
 3315 03b8 746D5F63 		.ascii	"tm_calibration_t\000"
 3315      616C6962 
 3315      72617469 
 3315      6F6E5F74 
 3315      00
 3316              	.LASF154:
 3317 03c9 61667268 		.ascii	"afrh\000"
 3317      00
 3318              	.LASF159:
 3319 03ce 50444461 		.ascii	"PDData\000"
 3319      746100
 3320              	.LASF62:
 3321 03d5 725F6375 		.ascii	"r_current\000"
 3321      7272656E 
 3321      7400
 3322              	.LASF90:
 3323 03df 41504231 		.ascii	"APB1RSTR\000"
 3323      52535452 
 3323      00
 3324              	.LASF12:
 3325 03e8 5F5F7569 		.ascii	"__uint64_t\000"
 3325      6E743634 
 3325      5F7400
 3326              	.LASF147:
 3327 03f3 41465248 		.ascii	"AFRH\000"
 3327      00
 3328              	.LASF146:
 3329 03f8 4146524C 		.ascii	"AFRL\000"
 3329      00
 3330              	.LASF111:
 3331 03fd 504C4C53 		.ascii	"PLLSAICFGR\000"
 3331      41494346 
 3331      475200
 3332              	.LASF22:
 3333 0408 74726566 		.ascii	"trefs_t\000"
 3333      735F7400 
 3334              	.LASF89:
 3335 0410 52455345 		.ascii	"RESERVED0\000"
 3335      52564544 
 3335      3000
 3336              	.LASF92:
 3337 041a 52455345 		.ascii	"RESERVED1\000"
 3337      52564544 
 3337      3100
 3338              	.LASF96:
 3339 0424 52455345 		.ascii	"RESERVED2\000"
ARM GAS  /var/folders/m4/4md61f0s1_g0rzfghffqnxvr0000gn/T//cczNOeW9.s 			page 63


 3339      52564544 
 3339      3200
 3340              	.LASF99:
 3341 042e 52455345 		.ascii	"RESERVED3\000"
 3341      52564544 
 3341      3300
 3342              	.LASF103:
 3343 0438 52455345 		.ascii	"RESERVED4\000"
 3343      52564544 
 3343      3400
 3344              	.LASF31:
 3345 0442 705F7072 		.ascii	"p_prev\000"
 3345      657600
 3346              	.LASF108:
 3347 0449 52455345 		.ascii	"RESERVED6\000"
 3347      52564544 
 3347      3600
 3348              	.LASF24:
 3349 0453 74707269 		.ascii	"tprio_t\000"
 3349      6F5F7400 
 3350              	.LASF75:
 3351 045b 63685F73 		.ascii	"ch_system_debug\000"
 3351      79737465 
 3351      6D5F6465 
 3351      62756700 
 3352              	.LASF138:
 3353 046b 5F426F6F 		.ascii	"_Bool\000"
 3353      6C00
 3354              	.LASF16:
 3355 0471 696E7433 		.ascii	"int32_t\000"
 3355      325F7400 
 3356              	.LASF2:
 3357 0479 756E7369 		.ascii	"unsigned char\000"
 3357      676E6564 
 3357      20636861 
 3357      7200
 3358              	.LASF179:
 3359 0487 43686962 		.ascii	"ChibiOS_16.1.4/os/hal/ports/STM32/LLD/GPIOv2/pal_ll"
 3359      694F535F 
 3359      31362E31 
 3359      2E342F6F 
 3359      732F6861 
 3360 04ba 642E6300 		.ascii	"d.c\000"
 3361              	.LASF153:
 3362 04be 6166726C 		.ascii	"afrl\000"
 3362      00
 3363              	.LASF131:
 3364 04c3 735F636E 		.ascii	"s_cnt\000"
 3364      7400
 3365              	.LASF46:
 3366 04c9 705F6D74 		.ascii	"p_mtxlist\000"
 3366      786C6973 
 3366      7400
 3367              	.LASF3:
 3368 04d3 73686F72 		.ascii	"short int\000"
 3368      7420696E 
 3368      7400
ARM GAS  /var/folders/m4/4md61f0s1_g0rzfghffqnxvr0000gn/T//cczNOeW9.s 			page 64


 3369              	.LASF37:
 3370 04dd 705F7374 		.ascii	"p_state\000"
 3370      61746500 
 3371              	.LASF40:
 3372 04e5 705F7072 		.ascii	"p_preempt\000"
 3372      65656D70 
 3372      7400
 3373              	.LASF102:
 3374 04ef 41484233 		.ascii	"AHB3LPENR\000"
 3374      4C50454E 
 3374      5200
 3375              	.LASF58:
 3376 04f9 725F7072 		.ascii	"r_prio\000"
 3376      696F00
 3377              	.LASF156:
 3378 0500 50414461 		.ascii	"PAData\000"
 3378      746100
 3379              	.LASF128:
 3380 0507 65776D61 		.ascii	"ewmask\000"
 3380      736B00
 3381              	.LASF38:
 3382 050e 705F666C 		.ascii	"p_flags\000"
 3382      61677300 
 3383              	.LASF168:
 3384 0516 6770696F 		.ascii	"gpiop\000"
 3384      7000
 3385              	.LASF98:
 3386 051c 41504232 		.ascii	"APB2ENR\000"
 3386      454E5200 
 3387              	.LASF65:
 3388 0524 63685F76 		.ascii	"ch_virtual_timer\000"
 3388      69727475 
 3388      616C5F74 
 3388      696D6572 
 3388      00
 3389              	.LASF129:
 3390 0535 63685F73 		.ascii	"ch_semaphore\000"
 3390      656D6170 
 3390      686F7265 
 3390      00
 3391              	.LASF45:
 3392 0542 705F6570 		.ascii	"p_epending\000"
 3392      656E6469 
 3392      6E6700
 3393              	.LASF106:
 3394 054d 52455345 		.ascii	"RESERVED5\000"
 3394      52564544 
 3394      3500
 3395              	.LASF17:
 3396 0557 75696E74 		.ascii	"uint32_t\000"
 3396      33325F74 
 3396      00
 3397              	.LASF127:
 3398 0560 77746D74 		.ascii	"wtmtxp\000"
 3398      787000
 3399              	.LASF57:
 3400 0567 725F7175 		.ascii	"r_queue\000"
ARM GAS  /var/folders/m4/4md61f0s1_g0rzfghffqnxvr0000gn/T//cczNOeW9.s 			page 65


 3400      65756500 
 3401              	.LASF52:
 3402 056f 63685F74 		.ascii	"ch_threads_list\000"
 3402      68726561 
 3402      64735F6C 
 3402      69737400 
 3403              	.LASF10:
 3404 057f 6C6F6E67 		.ascii	"long unsigned int\000"
 3404      20756E73 
 3404      69676E65 
 3404      6420696E 
 3404      7400
 3405              	.LASF175:
 3406 0591 616C7472 		.ascii	"altr\000"
 3406      00
 3407              	.LASF136:
 3408 0596 63686172 		.ascii	"char\000"
 3408      00
 3409              	.LASF178:
 3410 059b 474E5520 		.ascii	"GNU C99 5.2.1 20151202 (release) [ARM/embedded-5-br"
 3410      43393920 
 3410      352E322E 
 3410      31203230 
 3410      31353132 
 3411 05ce 616E6368 		.ascii	"anch revision 231848] -mcpu=cortex-m4 -mfloat-abi=h"
 3411      20726576 
 3411      6973696F 
 3411      6E203233 
 3411      31383438 
 3412 0601 61726420 		.ascii	"ard -mfpu=fpv4-sp-d16 -mno-thumb-interwork -mthumb "
 3412      2D6D6670 
 3412      753D6670 
 3412      76342D73 
 3412      702D6431 
 3413 0634 2D676764 		.ascii	"-ggdb -O2 -std=c99 -fomit-frame-pointer -falign-fun"
 3413      62202D4F 
 3413      32202D73 
 3413      74643D63 
 3413      3939202D 
 3414 0667 6374696F 		.ascii	"ctions=16 -ffunction-sections -fdata-sections -fno-"
 3414      6E733D31 
 3414      36202D66 
 3414      66756E63 
 3414      74696F6E 
 3415 069a 636F6D6D 		.ascii	"common\000"
 3415      6F6E00
 3416              	.LASF169:
 3417 06a1 636F6E66 		.ascii	"config\000"
 3417      696700
 3418              	.LASF5:
 3419 06a8 5F5F7569 		.ascii	"__uint16_t\000"
 3419      6E743136 
 3419      5F7400
 3420              	.LASF87:
 3421 06b3 41484232 		.ascii	"AHB2RSTR\000"
 3421      52535452 
 3421      00
ARM GAS  /var/folders/m4/4md61f0s1_g0rzfghffqnxvr0000gn/T//cczNOeW9.s 			page 66


 3422              	.LASF29:
 3423 06bc 74687265 		.ascii	"thread_t\000"
 3423      61645F74 
 3423      00
 3424              	.LASF135:
 3425 06c5 6D5F6E65 		.ascii	"m_next\000"
 3425      787400
 3426              	.LASF28:
 3427 06cc 73797374 		.ascii	"systime_t\000"
 3427      696D655F 
 3427      7400
 3428              	.LASF47:
 3429 06d6 705F7265 		.ascii	"p_realprio\000"
 3429      616C7072 
 3429      696F00
 3430              	.LASF63:
 3431 06e1 76746675 		.ascii	"vtfunc_t\000"
 3431      6E635F74 
 3431      00
 3432              	.LASF9:
 3433 06ea 5F5F7569 		.ascii	"__uint32_t\000"
 3433      6E743332 
 3433      5F7400
 3434              	.LASF181:
 3435 06f5 696E6974 		.ascii	"initgpio\000"
 3435      6770696F 
 3435      00
 3436              	.LASF76:
 3437 06fe 70616E69 		.ascii	"panic_msg\000"
 3437      635F6D73 
 3437      6700
 3438              	.LASF120:
 3439 0708 6F666673 		.ascii	"offset\000"
 3439      657400
 3440              	.LASF97:
 3441 070f 41504231 		.ascii	"APB1ENR\000"
 3441      454E5200 
 3442              	.LASF167:
 3443 0717 696F706F 		.ascii	"ioportid_t\000"
 3443      72746964 
 3443      5F7400
 3444              	.LASF94:
 3445 0722 41484232 		.ascii	"AHB2ENR\000"
 3445      454E5200 
 3446              	.LASF118:
 3447 072a 636F6E74 		.ascii	"context\000"
 3447      65787400 
 3448              	.LASF61:
 3449 0732 725F6F6C 		.ascii	"r_older\000"
 3449      64657200 
 3450              	.LASF171:
 3451 073a 5F70616C 		.ascii	"_pal_lld_setgroupmode\000"
 3451      5F6C6C64 
 3451      5F736574 
 3451      67726F75 
 3451      706D6F64 
 3452              	.LASF19:
ARM GAS  /var/folders/m4/4md61f0s1_g0rzfghffqnxvr0000gn/T//cczNOeW9.s 			page 67


 3453 0750 7274636E 		.ascii	"rtcnt_t\000"
 3453      745F7400 
 3454              	.LASF70:
 3455 0758 76745F70 		.ascii	"vt_par\000"
 3455      617200
 3456              	.LASF109:
 3457 075f 53534347 		.ascii	"SSCGR\000"
 3457      5200
 3458              	.LASF53:
 3459 0765 74687265 		.ascii	"threads_queue_t\000"
 3459      6164735F 
 3459      71756575 
 3459      655F7400 
 3460              	.LASF132:
 3461 0775 63685F6D 		.ascii	"ch_mutex\000"
 3461      75746578 
 3461      00
 3462              	.LASF39:
 3463 077e 705F7265 		.ascii	"p_refs\000"
 3463      667300
 3464              	.LASF174:
 3465 0785 6D6F6465 		.ascii	"mode\000"
 3465      00
 3466              	.LASF170:
 3467 078a 5F70616C 		.ascii	"_pal_lld_init\000"
 3467      5F6C6C64 
 3467      5F696E69 
 3467      7400
 3468              	.LASF113:
 3469 0798 434B4741 		.ascii	"CKGATENR\000"
 3469      54454E52 
 3469      00
 3470              	.LASF107:
 3471 07a1 42444352 		.ascii	"BDCR\000"
 3471      00
 3472              	.LASF79:
 3473 07a6 726C6973 		.ascii	"rlist\000"
 3473      7400
 3474              	.LASF14:
 3475 07ac 75696E74 		.ascii	"uint8_t\000"
 3475      385F7400 
 3476              	.LASF152:
 3477 07b4 70757064 		.ascii	"pupdr\000"
 3477      7200
 3478              	.LASF124:
 3479 07ba 77746F62 		.ascii	"wtobjp\000"
 3479      6A7000
 3480              	.LASF36:
 3481 07c1 705F6E61 		.ascii	"p_name\000"
 3481      6D6500
 3482              	.LASF93:
 3483 07c8 41484231 		.ascii	"AHB1ENR\000"
 3483      454E5200 
 3484              	.LASF158:
 3485 07d0 50434461 		.ascii	"PCData\000"
 3485      746100
 3486              	.LASF85:
ARM GAS  /var/folders/m4/4md61f0s1_g0rzfghffqnxvr0000gn/T//cczNOeW9.s 			page 68


 3487 07d7 43464752 		.ascii	"CFGR\000"
 3487      00
 3488              	.LASF130:
 3489 07dc 735F7175 		.ascii	"s_queue\000"
 3489      65756500 
 3490              	.LASF44:
 3491 07e4 705F6D73 		.ascii	"p_msg\000"
 3491      6700
 3492              	.LASF166:
 3493 07ea 696F6D6F 		.ascii	"iomode_t\000"
 3493      64655F74 
 3493      00
 3494              	.LASF164:
 3495 07f3 50414C43 		.ascii	"PALConfig\000"
 3495      6F6E6669 
 3495      6700
 3496              	.LASF134:
 3497 07fd 6D5F6F77 		.ascii	"m_owner\000"
 3497      6E657200 
 3498              	.LASF33:
 3499 0805 705F6374 		.ascii	"p_ctx\000"
 3499      7800
 3500              	.LASF69:
 3501 080b 76745F66 		.ascii	"vt_func\000"
 3501      756E6300 
 3502              		.ident	"GCC: (GNU Tools for ARM Embedded Processors) 5.2.1 20151202 (release) [ARM/embedded-5-bran
ARM GAS  /var/folders/m4/4md61f0s1_g0rzfghffqnxvr0000gn/T//cczNOeW9.s 			page 69


DEFINED SYMBOLS
                            *ABS*:0000000000000000 pal_lld.c
/var/folders/m4/4md61f0s1_g0rzfghffqnxvr0000gn/T//cczNOeW9.s:22     .text._pal_lld_init:0000000000000000 $t
/var/folders/m4/4md61f0s1_g0rzfghffqnxvr0000gn/T//cczNOeW9.s:28     .text._pal_lld_init:0000000000000000 _pal_lld_init
/var/folders/m4/4md61f0s1_g0rzfghffqnxvr0000gn/T//cczNOeW9.s:302    .text._pal_lld_init:0000000000000154 $d
/var/folders/m4/4md61f0s1_g0rzfghffqnxvr0000gn/T//cczNOeW9.s:312    .text._pal_lld_setgroupmode:0000000000000000 $t
/var/folders/m4/4md61f0s1_g0rzfghffqnxvr0000gn/T//cczNOeW9.s:318    .text._pal_lld_setgroupmode:0000000000000000 _pal_lld_setgroupmode
                     .debug_frame:0000000000000010 $d

NO UNDEFINED SYMBOLS
