ARM GAS  /var/folders/m4/4md61f0s1_g0rzfghffqnxvr0000gn/T//ccmihYiy.s 			page 1


   1              		.syntax unified
   2              		.cpu cortex-m4
   3              		.eabi_attribute 27, 1
   4              		.eabi_attribute 28, 1
   5              		.fpu fpv4-sp-d16
   6              		.eabi_attribute 20, 1
   7              		.eabi_attribute 21, 1
   8              		.eabi_attribute 23, 3
   9              		.eabi_attribute 24, 1
  10              		.eabi_attribute 25, 1
  11              		.eabi_attribute 26, 1
  12              		.eabi_attribute 30, 2
  13              		.eabi_attribute 34, 1
  14              		.eabi_attribute 18, 4
  15              		.thumb
  16              		.file	"pwm.c"
  17              		.text
  18              	.Ltext0:
  19              		.cfi_sections	.debug_frame
  20              		.section	.text.pwmInit,"ax",%progbits
  21              		.align	2
  22              		.p2align 4,,15
  23              		.global	pwmInit
  24              		.thumb
  25              		.thumb_func
  26              		.type	pwmInit, %function
  27              	pwmInit:
  28              	.LFB268:
  29              		.file 1 "ChibiOS_16.1.4/os/hal/src/pwm.c"
  30              		.loc 1 56 0
  31              		.cfi_startproc
  32              		@ args = 0, pretend = 0, frame = 0
  33              		@ frame_needed = 0, uses_anonymous_args = 0
  34              		@ link register save eliminated.
  35              		.loc 1 58 0
  36 0000 FFF7FEBF 		b	pwm_lld_init
  37              	.LVL0:
  38              		.cfi_endproc
  39              	.LFE268:
  40              		.size	pwmInit, .-pwmInit
  41              		.section	.text.pwmObjectInit,"ax",%progbits
  42              		.align	2
  43              		.p2align 4,,15
  44              		.global	pwmObjectInit
  45              		.thumb
  46              		.thumb_func
  47              		.type	pwmObjectInit, %function
  48              	pwmObjectInit:
  49              	.LFB269:
  50              		.loc 1 68 0
  51              		.cfi_startproc
  52              		@ args = 0, pretend = 0, frame = 0
  53              		@ frame_needed = 0, uses_anonymous_args = 0
  54              		@ link register save eliminated.
  55              	.LVL1:
  56              		.loc 1 71 0
  57 0000 0023     		movs	r3, #0
ARM GAS  /var/folders/m4/4md61f0s1_g0rzfghffqnxvr0000gn/T//ccmihYiy.s 			page 2


  58              		.loc 1 70 0
  59 0002 0122     		movs	r2, #1
  60 0004 0270     		strb	r2, [r0]
  61              		.loc 1 71 0
  62 0006 4360     		str	r3, [r0, #4]
  63              		.loc 1 72 0
  64 0008 C360     		str	r3, [r0, #12]
  65              		.loc 1 73 0
  66 000a 0374     		strb	r3, [r0, #16]
  67 000c 7047     		bx	lr
  68              		.cfi_endproc
  69              	.LFE269:
  70              		.size	pwmObjectInit, .-pwmObjectInit
  71 000e 00BF     		.section	.text.pwmStart,"ax",%progbits
  72              		.align	2
  73              		.p2align 4,,15
  74              		.global	pwmStart
  75              		.thumb
  76              		.thumb_func
  77              		.type	pwmStart, %function
  78              	pwmStart:
  79              	.LFB270:
  80              		.loc 1 89 0
  81              		.cfi_startproc
  82              		@ args = 0, pretend = 0, frame = 0
  83              		@ frame_needed = 0, uses_anonymous_args = 0
  84              	.LVL2:
  85 0000 10B5     		push	{r4, lr}
  86              		.cfi_def_cfa_offset 8
  87              		.cfi_offset 4, -8
  88              		.cfi_offset 14, -4
  89              	.LBB141:
  90              	.LBB142:
  91              	.LBB143:
  92              	.LBB144:
  93              	.LBB145:
  94              		.file 2 "ChibiOS_16.1.4/os/ext/CMSIS/include/core_cmFunc.h"
  95              		.loc 2 548 0
  96 0002 2023     		movs	r3, #32
  97              	.LBE145:
  98              	.LBE144:
  99              	.LBE143:
 100              	.LBE142:
 101              	.LBE141:
 102              		.loc 1 89 0
 103 0004 0446     		mov	r4, r0
 104              	.LBB150:
 105              	.LBB149:
 106              	.LBB148:
 107              	.LBB147:
 108              	.LBB146:
 109              		.loc 2 548 0
 110              	@ 548 "ChibiOS_16.1.4/os/ext/CMSIS/include/core_cmFunc.h" 1
 111 0006 83F31188 		MSR basepri, r3
 112              	@ 0 "" 2
 113              		.thumb
 114              	.LBE146:
ARM GAS  /var/folders/m4/4md61f0s1_g0rzfghffqnxvr0000gn/T//ccmihYiy.s 			page 3


 115              	.LBE147:
 116              	.LBE148:
 117              	.LBE149:
 118              	.LBE150:
 119              		.loc 1 97 0
 120 000a 4B68     		ldr	r3, [r1, #4]
 121 000c 8360     		str	r3, [r0, #8]
 122              		.loc 1 96 0
 123 000e 4160     		str	r1, [r0, #4]
 124              		.loc 1 98 0
 125 0010 FFF7FEFF 		bl	pwm_lld_start
 126              	.LVL3:
 127              		.loc 1 100 0
 128 0014 0222     		movs	r2, #2
 129              		.loc 1 99 0
 130 0016 0023     		movs	r3, #0
 131              		.loc 1 100 0
 132 0018 2270     		strb	r2, [r4]
 133              	.LVL4:
 134              		.loc 1 99 0
 135 001a E360     		str	r3, [r4, #12]
 136              	.LBB151:
 137              	.LBB152:
 138              	.LBB153:
 139              	.LBB154:
 140              	.LBB155:
 141              	.LBB156:
 142              		.loc 2 548 0
 143              	@ 548 "ChibiOS_16.1.4/os/ext/CMSIS/include/core_cmFunc.h" 1
 144 001c 83F31188 		MSR basepri, r3
 145              	@ 0 "" 2
 146              		.thumb
 147 0020 10BD     		pop	{r4, pc}
 148              	.LBE156:
 149              	.LBE155:
 150              	.LBE154:
 151              	.LBE153:
 152              	.LBE152:
 153              	.LBE151:
 154              		.cfi_endproc
 155              	.LFE270:
 156              		.size	pwmStart, .-pwmStart
 157 0022 00BF     		.section	.text.pwmStop,"ax",%progbits
 158              		.align	2
 159              		.p2align 4,,15
 160              		.global	pwmStop
 161              		.thumb
 162              		.thumb_func
 163              		.type	pwmStop, %function
 164              	pwmStop:
 165              	.LFB271:
 166              		.loc 1 111 0
 167              		.cfi_startproc
 168              		@ args = 0, pretend = 0, frame = 0
 169              		@ frame_needed = 0, uses_anonymous_args = 0
 170              	.LVL5:
 171 0000 10B5     		push	{r4, lr}
ARM GAS  /var/folders/m4/4md61f0s1_g0rzfghffqnxvr0000gn/T//ccmihYiy.s 			page 4


 172              		.cfi_def_cfa_offset 8
 173              		.cfi_offset 4, -8
 174              		.cfi_offset 14, -4
 175              	.LBB157:
 176              	.LBB158:
 177              	.LBB159:
 178              	.LBB160:
 179              	.LBB161:
 180              		.loc 2 548 0
 181 0002 2023     		movs	r3, #32
 182              	.LBE161:
 183              	.LBE160:
 184              	.LBE159:
 185              	.LBE158:
 186              	.LBE157:
 187              		.loc 1 111 0
 188 0004 0446     		mov	r4, r0
 189              	.LBB166:
 190              	.LBB165:
 191              	.LBB164:
 192              	.LBB163:
 193              	.LBB162:
 194              		.loc 2 548 0
 195              	@ 548 "ChibiOS_16.1.4/os/ext/CMSIS/include/core_cmFunc.h" 1
 196 0006 83F31188 		MSR basepri, r3
 197              	@ 0 "" 2
 198              		.thumb
 199              	.LBE162:
 200              	.LBE163:
 201              	.LBE164:
 202              	.LBE165:
 203              	.LBE166:
 204              		.loc 1 118 0
 205 000a FFF7FEFF 		bl	pwm_lld_stop
 206              	.LVL6:
 207              		.loc 1 120 0
 208 000e 0122     		movs	r2, #1
 209              		.loc 1 119 0
 210 0010 0023     		movs	r3, #0
 211              		.loc 1 120 0
 212 0012 2270     		strb	r2, [r4]
 213              	.LVL7:
 214              		.loc 1 119 0
 215 0014 E360     		str	r3, [r4, #12]
 216              	.LBB167:
 217              	.LBB168:
 218              	.LBB169:
 219              	.LBB170:
 220              	.LBB171:
 221              	.LBB172:
 222              		.loc 2 548 0
 223              	@ 548 "ChibiOS_16.1.4/os/ext/CMSIS/include/core_cmFunc.h" 1
 224 0016 83F31188 		MSR basepri, r3
 225              	@ 0 "" 2
 226              		.thumb
 227 001a 10BD     		pop	{r4, pc}
 228              	.LBE172:
ARM GAS  /var/folders/m4/4md61f0s1_g0rzfghffqnxvr0000gn/T//ccmihYiy.s 			page 5


 229              	.LBE171:
 230              	.LBE170:
 231              	.LBE169:
 232              	.LBE168:
 233              	.LBE167:
 234              		.cfi_endproc
 235              	.LFE271:
 236              		.size	pwmStop, .-pwmStop
 237              		.section	.text.pwmChangePeriod,"ax",%progbits
 238              		.align	2
 239              		.p2align 4,,15
 240              		.global	pwmChangePeriod
 241              		.thumb
 242              		.thumb_func
 243              		.type	pwmChangePeriod, %function
 244              	pwmChangePeriod:
 245              	.LFB272:
 246              		.loc 1 139 0
 247              		.cfi_startproc
 248              		@ args = 0, pretend = 0, frame = 0
 249              		@ frame_needed = 0, uses_anonymous_args = 0
 250              		@ link register save eliminated.
 251              	.LVL8:
 252              	.LBB173:
 253              	.LBB174:
 254              	.LBB175:
 255              	.LBB176:
 256              	.LBB177:
 257              		.loc 2 548 0
 258 0000 2023     		movs	r3, #32
 259              	@ 548 "ChibiOS_16.1.4/os/ext/CMSIS/include/core_cmFunc.h" 1
 260 0002 83F31188 		MSR basepri, r3
 261              	@ 0 "" 2
 262              		.thumb
 263              	.LBE177:
 264              	.LBE176:
 265              	.LBE175:
 266              	.LBE174:
 267              	.LBE173:
 268              		.loc 1 145 0
 269 0006 8369     		ldr	r3, [r0, #24]
 270 0008 8160     		str	r1, [r0, #8]
 271 000a 0139     		subs	r1, r1, #1
 272              	.LVL9:
 273 000c D962     		str	r1, [r3, #44]
 274              	.LVL10:
 275              	.LBB178:
 276              	.LBB179:
 277              	.LBB180:
 278              	.LBB181:
 279              	.LBB182:
 280              	.LBB183:
 281              		.loc 2 548 0
 282 000e 0023     		movs	r3, #0
 283              	@ 548 "ChibiOS_16.1.4/os/ext/CMSIS/include/core_cmFunc.h" 1
 284 0010 83F31188 		MSR basepri, r3
 285              	@ 0 "" 2
ARM GAS  /var/folders/m4/4md61f0s1_g0rzfghffqnxvr0000gn/T//ccmihYiy.s 			page 6


 286              		.thumb
 287 0014 7047     		bx	lr
 288              	.LBE183:
 289              	.LBE182:
 290              	.LBE181:
 291              	.LBE180:
 292              	.LBE179:
 293              	.LBE178:
 294              		.cfi_endproc
 295              	.LFE272:
 296              		.size	pwmChangePeriod, .-pwmChangePeriod
 297 0016 00BF     		.section	.text.pwmEnableChannel,"ax",%progbits
 298              		.align	2
 299              		.p2align 4,,15
 300              		.global	pwmEnableChannel
 301              		.thumb
 302              		.thumb_func
 303              		.type	pwmEnableChannel, %function
 304              	pwmEnableChannel:
 305              	.LFB273:
 306              		.loc 1 165 0
 307              		.cfi_startproc
 308              		@ args = 0, pretend = 0, frame = 0
 309              		@ frame_needed = 0, uses_anonymous_args = 0
 310              	.LVL11:
 311 0000 70B5     		push	{r4, r5, r6, lr}
 312              		.cfi_def_cfa_offset 16
 313              		.cfi_offset 4, -16
 314              		.cfi_offset 5, -12
 315              		.cfi_offset 6, -8
 316              		.cfi_offset 14, -4
 317              	.LBB184:
 318              	.LBB185:
 319              	.LBB186:
 320              	.LBB187:
 321              	.LBB188:
 322              		.loc 2 548 0
 323 0002 2023     		movs	r3, #32
 324              	@ 548 "ChibiOS_16.1.4/os/ext/CMSIS/include/core_cmFunc.h" 1
 325 0004 83F31188 		MSR basepri, r3
 326              	@ 0 "" 2
 327              		.thumb
 328              	.LBE188:
 329              	.LBE187:
 330              	.LBE186:
 331              	.LBE185:
 332              	.LBE184:
 333              		.loc 1 173 0
 334 0008 0123     		movs	r3, #1
 335 000a C568     		ldr	r5, [r0, #12]
 336 000c 8B40     		lsls	r3, r3, r1
 337 000e 2B43     		orrs	r3, r3, r5
 338 0010 C360     		str	r3, [r0, #12]
 339 0012 FFF7FEFF 		bl	pwm_lld_enable_channel
 340              	.LVL12:
 341              	.LBB189:
 342              	.LBB190:
ARM GAS  /var/folders/m4/4md61f0s1_g0rzfghffqnxvr0000gn/T//ccmihYiy.s 			page 7


 343              	.LBB191:
 344              	.LBB192:
 345              	.LBB193:
 346              	.LBB194:
 347              		.loc 2 548 0
 348 0016 0023     		movs	r3, #0
 349              	@ 548 "ChibiOS_16.1.4/os/ext/CMSIS/include/core_cmFunc.h" 1
 350 0018 83F31188 		MSR basepri, r3
 351              	@ 0 "" 2
 352              		.thumb
 353 001c 70BD     		pop	{r4, r5, r6, pc}
 354              	.LBE194:
 355              	.LBE193:
 356              	.LBE192:
 357              	.LBE191:
 358              	.LBE190:
 359              	.LBE189:
 360              		.cfi_endproc
 361              	.LFE273:
 362              		.size	pwmEnableChannel, .-pwmEnableChannel
 363 001e 00BF     		.section	.text.pwmDisableChannel,"ax",%progbits
 364              		.align	2
 365              		.p2align 4,,15
 366              		.global	pwmDisableChannel
 367              		.thumb
 368              		.thumb_func
 369              		.type	pwmDisableChannel, %function
 370              	pwmDisableChannel:
 371              	.LFB274:
 372              		.loc 1 192 0
 373              		.cfi_startproc
 374              		@ args = 0, pretend = 0, frame = 0
 375              		@ frame_needed = 0, uses_anonymous_args = 0
 376              	.LVL13:
 377 0000 38B5     		push	{r3, r4, r5, lr}
 378              		.cfi_def_cfa_offset 16
 379              		.cfi_offset 3, -16
 380              		.cfi_offset 4, -12
 381              		.cfi_offset 5, -8
 382              		.cfi_offset 14, -4
 383              	.LBB195:
 384              	.LBB196:
 385              	.LBB197:
 386              	.LBB198:
 387              	.LBB199:
 388              		.loc 2 548 0
 389 0002 2023     		movs	r3, #32
 390              	@ 548 "ChibiOS_16.1.4/os/ext/CMSIS/include/core_cmFunc.h" 1
 391 0004 83F31188 		MSR basepri, r3
 392              	@ 0 "" 2
 393              		.thumb
 394              	.LBE199:
 395              	.LBE198:
 396              	.LBE197:
 397              	.LBE196:
 398              	.LBE195:
 399              		.loc 1 200 0
ARM GAS  /var/folders/m4/4md61f0s1_g0rzfghffqnxvr0000gn/T//ccmihYiy.s 			page 8


 400 0008 0122     		movs	r2, #1
 401 000a C368     		ldr	r3, [r0, #12]
 402 000c 8A40     		lsls	r2, r2, r1
 403 000e 23EA0203 		bic	r3, r3, r2
 404 0012 C360     		str	r3, [r0, #12]
 405 0014 FFF7FEFF 		bl	pwm_lld_disable_channel
 406              	.LVL14:
 407              	.LBB200:
 408              	.LBB201:
 409              	.LBB202:
 410              	.LBB203:
 411              	.LBB204:
 412              	.LBB205:
 413              		.loc 2 548 0
 414 0018 0023     		movs	r3, #0
 415              	@ 548 "ChibiOS_16.1.4/os/ext/CMSIS/include/core_cmFunc.h" 1
 416 001a 83F31188 		MSR basepri, r3
 417              	@ 0 "" 2
 418              		.thumb
 419 001e 38BD     		pop	{r3, r4, r5, pc}
 420              	.LBE205:
 421              	.LBE204:
 422              	.LBE203:
 423              	.LBE202:
 424              	.LBE201:
 425              	.LBE200:
 426              		.cfi_endproc
 427              	.LFE274:
 428              		.size	pwmDisableChannel, .-pwmDisableChannel
 429              		.section	.text.pwmEnablePeriodicNotification,"ax",%progbits
 430              		.align	2
 431              		.p2align 4,,15
 432              		.global	pwmEnablePeriodicNotification
 433              		.thumb
 434              		.thumb_func
 435              		.type	pwmEnablePeriodicNotification, %function
 436              	pwmEnablePeriodicNotification:
 437              	.LFB275:
 438              		.loc 1 214 0
 439              		.cfi_startproc
 440              		@ args = 0, pretend = 0, frame = 0
 441              		@ frame_needed = 0, uses_anonymous_args = 0
 442              	.LVL15:
 443 0000 08B5     		push	{r3, lr}
 444              		.cfi_def_cfa_offset 8
 445              		.cfi_offset 3, -8
 446              		.cfi_offset 14, -4
 447              	.LBB206:
 448              	.LBB207:
 449              	.LBB208:
 450              	.LBB209:
 451              	.LBB210:
 452              		.loc 2 548 0
 453 0002 2023     		movs	r3, #32
 454              	@ 548 "ChibiOS_16.1.4/os/ext/CMSIS/include/core_cmFunc.h" 1
 455 0004 83F31188 		MSR basepri, r3
 456              	@ 0 "" 2
ARM GAS  /var/folders/m4/4md61f0s1_g0rzfghffqnxvr0000gn/T//ccmihYiy.s 			page 9


 457              		.thumb
 458              	.LBE210:
 459              	.LBE209:
 460              	.LBE208:
 461              	.LBE207:
 462              	.LBE206:
 463              		.loc 1 223 0
 464 0008 FFF7FEFF 		bl	pwm_lld_enable_periodic_notification
 465              	.LVL16:
 466              	.LBB211:
 467              	.LBB212:
 468              	.LBB213:
 469              	.LBB214:
 470              	.LBB215:
 471              	.LBB216:
 472              		.loc 2 548 0
 473 000c 0023     		movs	r3, #0
 474              	@ 548 "ChibiOS_16.1.4/os/ext/CMSIS/include/core_cmFunc.h" 1
 475 000e 83F31188 		MSR basepri, r3
 476              	@ 0 "" 2
 477              		.thumb
 478 0012 08BD     		pop	{r3, pc}
 479              	.LBE216:
 480              	.LBE215:
 481              	.LBE214:
 482              	.LBE213:
 483              	.LBE212:
 484              	.LBE211:
 485              		.cfi_endproc
 486              	.LFE275:
 487              		.size	pwmEnablePeriodicNotification, .-pwmEnablePeriodicNotification
 488              		.section	.text.pwmDisablePeriodicNotification,"ax",%progbits
 489              		.align	2
 490              		.p2align 4,,15
 491              		.global	pwmDisablePeriodicNotification
 492              		.thumb
 493              		.thumb_func
 494              		.type	pwmDisablePeriodicNotification, %function
 495              	pwmDisablePeriodicNotification:
 496              	.LFB276:
 497              		.loc 1 237 0
 498              		.cfi_startproc
 499              		@ args = 0, pretend = 0, frame = 0
 500              		@ frame_needed = 0, uses_anonymous_args = 0
 501              	.LVL17:
 502 0000 08B5     		push	{r3, lr}
 503              		.cfi_def_cfa_offset 8
 504              		.cfi_offset 3, -8
 505              		.cfi_offset 14, -4
 506              	.LBB217:
 507              	.LBB218:
 508              	.LBB219:
 509              	.LBB220:
 510              	.LBB221:
 511              		.loc 2 548 0
 512 0002 2023     		movs	r3, #32
 513              	@ 548 "ChibiOS_16.1.4/os/ext/CMSIS/include/core_cmFunc.h" 1
ARM GAS  /var/folders/m4/4md61f0s1_g0rzfghffqnxvr0000gn/T//ccmihYiy.s 			page 10


 514 0004 83F31188 		MSR basepri, r3
 515              	@ 0 "" 2
 516              		.thumb
 517              	.LBE221:
 518              	.LBE220:
 519              	.LBE219:
 520              	.LBE218:
 521              	.LBE217:
 522              		.loc 1 246 0
 523 0008 FFF7FEFF 		bl	pwm_lld_disable_periodic_notification
 524              	.LVL18:
 525              	.LBB222:
 526              	.LBB223:
 527              	.LBB224:
 528              	.LBB225:
 529              	.LBB226:
 530              	.LBB227:
 531              		.loc 2 548 0
 532 000c 0023     		movs	r3, #0
 533              	@ 548 "ChibiOS_16.1.4/os/ext/CMSIS/include/core_cmFunc.h" 1
 534 000e 83F31188 		MSR basepri, r3
 535              	@ 0 "" 2
 536              		.thumb
 537 0012 08BD     		pop	{r3, pc}
 538              	.LBE227:
 539              	.LBE226:
 540              	.LBE225:
 541              	.LBE224:
 542              	.LBE223:
 543              	.LBE222:
 544              		.cfi_endproc
 545              	.LFE276:
 546              		.size	pwmDisablePeriodicNotification, .-pwmDisablePeriodicNotification
 547              		.section	.text.pwmEnableChannelNotification,"ax",%progbits
 548              		.align	2
 549              		.p2align 4,,15
 550              		.global	pwmEnableChannelNotification
 551              		.thumb
 552              		.thumb_func
 553              		.type	pwmEnableChannelNotification, %function
 554              	pwmEnableChannelNotification:
 555              	.LFB277:
 556              		.loc 1 262 0
 557              		.cfi_startproc
 558              		@ args = 0, pretend = 0, frame = 0
 559              		@ frame_needed = 0, uses_anonymous_args = 0
 560              	.LVL19:
 561 0000 08B5     		push	{r3, lr}
 562              		.cfi_def_cfa_offset 8
 563              		.cfi_offset 3, -8
 564              		.cfi_offset 14, -4
 565              	.LBB228:
 566              	.LBB229:
 567              	.LBB230:
 568              	.LBB231:
 569              	.LBB232:
 570              		.loc 2 548 0
ARM GAS  /var/folders/m4/4md61f0s1_g0rzfghffqnxvr0000gn/T//ccmihYiy.s 			page 11


 571 0002 2023     		movs	r3, #32
 572              	@ 548 "ChibiOS_16.1.4/os/ext/CMSIS/include/core_cmFunc.h" 1
 573 0004 83F31188 		MSR basepri, r3
 574              	@ 0 "" 2
 575              		.thumb
 576              	.LBE232:
 577              	.LBE231:
 578              	.LBE230:
 579              	.LBE229:
 580              	.LBE228:
 581              		.loc 1 274 0
 582 0008 FFF7FEFF 		bl	pwm_lld_enable_channel_notification
 583              	.LVL20:
 584              	.LBB233:
 585              	.LBB234:
 586              	.LBB235:
 587              	.LBB236:
 588              	.LBB237:
 589              	.LBB238:
 590              		.loc 2 548 0
 591 000c 0023     		movs	r3, #0
 592              	@ 548 "ChibiOS_16.1.4/os/ext/CMSIS/include/core_cmFunc.h" 1
 593 000e 83F31188 		MSR basepri, r3
 594              	@ 0 "" 2
 595              		.thumb
 596 0012 08BD     		pop	{r3, pc}
 597              	.LBE238:
 598              	.LBE237:
 599              	.LBE236:
 600              	.LBE235:
 601              	.LBE234:
 602              	.LBE233:
 603              		.cfi_endproc
 604              	.LFE277:
 605              		.size	pwmEnableChannelNotification, .-pwmEnableChannelNotification
 606              		.section	.text.pwmDisableChannelNotification,"ax",%progbits
 607              		.align	2
 608              		.p2align 4,,15
 609              		.global	pwmDisableChannelNotification
 610              		.thumb
 611              		.thumb_func
 612              		.type	pwmDisableChannelNotification, %function
 613              	pwmDisableChannelNotification:
 614              	.LFB278:
 615              		.loc 1 290 0
 616              		.cfi_startproc
 617              		@ args = 0, pretend = 0, frame = 0
 618              		@ frame_needed = 0, uses_anonymous_args = 0
 619              	.LVL21:
 620 0000 08B5     		push	{r3, lr}
 621              		.cfi_def_cfa_offset 8
 622              		.cfi_offset 3, -8
 623              		.cfi_offset 14, -4
 624              	.LBB239:
 625              	.LBB240:
 626              	.LBB241:
 627              	.LBB242:
ARM GAS  /var/folders/m4/4md61f0s1_g0rzfghffqnxvr0000gn/T//ccmihYiy.s 			page 12


 628              	.LBB243:
 629              		.loc 2 548 0
 630 0002 2023     		movs	r3, #32
 631              	@ 548 "ChibiOS_16.1.4/os/ext/CMSIS/include/core_cmFunc.h" 1
 632 0004 83F31188 		MSR basepri, r3
 633              	@ 0 "" 2
 634              		.thumb
 635              	.LBE243:
 636              	.LBE242:
 637              	.LBE241:
 638              	.LBE240:
 639              	.LBE239:
 640              		.loc 1 302 0
 641 0008 FFF7FEFF 		bl	pwm_lld_disable_channel_notification
 642              	.LVL22:
 643              	.LBB244:
 644              	.LBB245:
 645              	.LBB246:
 646              	.LBB247:
 647              	.LBB248:
 648              	.LBB249:
 649              		.loc 2 548 0
 650 000c 0023     		movs	r3, #0
 651              	@ 548 "ChibiOS_16.1.4/os/ext/CMSIS/include/core_cmFunc.h" 1
 652 000e 83F31188 		MSR basepri, r3
 653              	@ 0 "" 2
 654              		.thumb
 655 0012 08BD     		pop	{r3, pc}
 656              	.LBE249:
 657              	.LBE248:
 658              	.LBE247:
 659              	.LBE246:
 660              	.LBE245:
 661              	.LBE244:
 662              		.cfi_endproc
 663              	.LFE278:
 664              		.size	pwmDisableChannelNotification, .-pwmDisableChannelNotification
 665              		.text
 666              	.Letext0:
 667              		.file 3 "/usr/local/Cellar/gcc-arm-none-eabi-49/20150609/arm-none-eabi/include/machine/_default_ty
 668              		.file 4 "/usr/local/Cellar/gcc-arm-none-eabi-49/20150609/arm-none-eabi/include/sys/_stdint.h"
 669              		.file 5 "ChibiOS_16.1.4/os/rt/ports/ARMCMx/compilers/GCC/chtypes.h"
 670              		.file 6 "ChibiOS_16.1.4/os/rt/include/chsystypes.h"
 671              		.file 7 "ChibiOS_16.1.4/os/rt/include/chschd.h"
 672              		.file 8 "ChibiOS_16.1.4/os/rt/ports/ARMCMx/chcore.h"
 673              		.file 9 "ChibiOS_16.1.4/os/rt/ports/ARMCMx/chcore_v7m.h"
 674              		.file 10 "ChibiOS_16.1.4/os/rt/include/chtm.h"
 675              		.file 11 "ChibiOS_16.1.4/os/rt/include/chsem.h"
 676              		.file 12 "ChibiOS_16.1.4/os/rt/include/chmtx.h"
 677              		.file 13 "ChibiOS_16.1.4/os/hal/include/pwm.h"
 678              		.file 14 "ChibiOS_16.1.4/os/hal/ports/STM32/LLD/TIMv1/pwm_lld.h"
 679              		.file 15 "ChibiOS_16.1.4/os/hal/ports/STM32/LLD/TIMv1/stm32_tim.h"
 680              		.file 16 "ChibiOS_16.1.4/os/rt/include/chsys.h"
 681              		.file 17 "ChibiOS_16.1.4/os/hal/osal/rt/osal.h"
 682              		.file 18 "ChibiOS_16.1.4/os/ext/CMSIS/include/core_cm4.h"