ARM GAS  /var/folders/m4/4md61f0s1_g0rzfghffqnxvr0000gn/T//ccmihYiy.s 			page 1


   1              		.syntax unified
   2              		.cpu cortex-m4
   3              		.eabi_attribute 27, 1
   4              		.eabi_attribute 28, 1
   5              		.fpu fpv4-sp-d16
   6              		.eabi_attribute 20, 1
   7              		.eabi_attribute 21, 1
   8              		.eabi_attribute 23, 3
   9              		.eabi_attribute 24, 1
  10              		.eabi_attribute 25, 1
  11              		.eabi_attribute 26, 1
  12              		.eabi_attribute 30, 2
  13              		.eabi_attribute 34, 1
  14              		.eabi_attribute 18, 4
  15              		.thumb
  16              		.file	"pwm.c"
  17              		.text
  18              	.Ltext0:
  19              		.cfi_sections	.debug_frame
  20              		.section	.text.pwmInit,"ax",%progbits
  21              		.align	2
  22              		.p2align 4,,15
  23              		.global	pwmInit
  24              		.thumb
  25              		.thumb_func
  26              		.type	pwmInit, %function
  27              	pwmInit:
  28              	.LFB268:
  29              		.file 1 "ChibiOS_16.1.4/os/hal/src/pwm.c"
  30              		.loc 1 56 0
  31              		.cfi_startproc
  32              		@ args = 0, pretend = 0, frame = 0
  33              		@ frame_needed = 0, uses_anonymous_args = 0
  34              		@ link register save eliminated.
  35              		.loc 1 58 0
  36 0000 FFF7FEBF 		b	pwm_lld_init
  37              	.LVL0:
  38              		.cfi_endproc
  39              	.LFE268:
  40              		.size	pwmInit, .-pwmInit
  41              		.section	.text.pwmObjectInit,"ax",%progbits
  42              		.align	2
  43              		.p2align 4,,15
  44              		.global	pwmObjectInit
  45              		.thumb
  46              		.thumb_func
  47              		.type	pwmObjectInit, %function
  48              	pwmObjectInit:
  49              	.LFB269:
  50              		.loc 1 68 0
  51              		.cfi_startproc
  52              		@ args = 0, pretend = 0, frame = 0
  53              		@ frame_needed = 0, uses_anonymous_args = 0
  54              		@ link register save eliminated.
  55              	.LVL1:
  56              		.loc 1 71 0
  57 0000 0023     		movs	r3, #0
ARM GAS  /var/folders/m4/4md61f0s1_g0rzfghffqnxvr0000gn/T//ccmihYiy.s 			page 2


  58              		.loc 1 70 0
  59 0002 0122     		movs	r2, #1
  60 0004 0270     		strb	r2, [r0]
  61              		.loc 1 71 0
  62 0006 4360     		str	r3, [r0, #4]
  63              		.loc 1 72 0
  64 0008 C360     		str	r3, [r0, #12]
  65              		.loc 1 73 0
  66 000a 0374     		strb	r3, [r0, #16]
  67 000c 7047     		bx	lr
  68              		.cfi_endproc
  69              	.LFE269:
  70              		.size	pwmObjectInit, .-pwmObjectInit
  71 000e 00BF     		.section	.text.pwmStart,"ax",%progbits
  72              		.align	2
  73              		.p2align 4,,15
  74              		.global	pwmStart
  75              		.thumb
  76              		.thumb_func
  77              		.type	pwmStart, %function
  78              	pwmStart:
  79              	.LFB270:
  80              		.loc 1 89 0
  81              		.cfi_startproc
  82              		@ args = 0, pretend = 0, frame = 0
  83              		@ frame_needed = 0, uses_anonymous_args = 0
  84              	.LVL2:
  85 0000 10B5     		push	{r4, lr}
  86              		.cfi_def_cfa_offset 8
  87              		.cfi_offset 4, -8
  88              		.cfi_offset 14, -4
  89              	.LBB141:
  90              	.LBB142:
  91              	.LBB143:
  92              	.LBB144:
  93              	.LBB145:
  94              		.file 2 "ChibiOS_16.1.4/os/ext/CMSIS/include/core_cmFunc.h"
  95              		.loc 2 548 0
  96 0002 2023     		movs	r3, #32
  97              	.LBE145:
  98              	.LBE144:
  99              	.LBE143:
 100              	.LBE142:
 101              	.LBE141:
 102              		.loc 1 89 0
 103 0004 0446     		mov	r4, r0
 104              	.LBB150:
 105              	.LBB149:
 106              	.LBB148:
 107              	.LBB147:
 108              	.LBB146:
 109              		.loc 2 548 0
 110              	@ 548 "ChibiOS_16.1.4/os/ext/CMSIS/include/core_cmFunc.h" 1
 111 0006 83F31188 		MSR basepri, r3
 112              	@ 0 "" 2
 113              		.thumb
 114              	.LBE146:
ARM GAS  /var/folders/m4/4md61f0s1_g0rzfghffqnxvr0000gn/T//ccmihYiy.s 			page 3


 115              	.LBE147:
 116              	.LBE148:
 117              	.LBE149:
 118              	.LBE150:
 119              		.loc 1 97 0
 120 000a 4B68     		ldr	r3, [r1, #4]
 121 000c 8360     		str	r3, [r0, #8]
 122              		.loc 1 96 0
 123 000e 4160     		str	r1, [r0, #4]
 124              		.loc 1 98 0
 125 0010 FFF7FEFF 		bl	pwm_lld_start
 126              	.LVL3:
 127              		.loc 1 100 0
 128 0014 0222     		movs	r2, #2
 129              		.loc 1 99 0
 130 0016 0023     		movs	r3, #0
 131              		.loc 1 100 0
 132 0018 2270     		strb	r2, [r4]
 133              	.LVL4:
 134              		.loc 1 99 0
 135 001a E360     		str	r3, [r4, #12]
 136              	.LBB151:
 137              	.LBB152:
 138              	.LBB153:
 139              	.LBB154:
 140              	.LBB155:
 141              	.LBB156:
 142              		.loc 2 548 0
 143              	@ 548 "ChibiOS_16.1.4/os/ext/CMSIS/include/core_cmFunc.h" 1
 144 001c 83F31188 		MSR basepri, r3
 145              	@ 0 "" 2
 146              		.thumb
 147 0020 10BD     		pop	{r4, pc}
 148              	.LBE156:
 149              	.LBE155:
 150              	.LBE154:
 151              	.LBE153:
 152              	.LBE152:
 153              	.LBE151:
 154              		.cfi_endproc
 155              	.LFE270:
 156              		.size	pwmStart, .-pwmStart
 157 0022 00BF     		.section	.text.pwmStop,"ax",%progbits
 158              		.align	2
 159              		.p2align 4,,15
 160              		.global	pwmStop
 161              		.thumb
 162              		.thumb_func
 163              		.type	pwmStop, %function
 164              	pwmStop:
 165              	.LFB271:
 166              		.loc 1 111 0
 167              		.cfi_startproc
 168              		@ args = 0, pretend = 0, frame = 0
 169              		@ frame_needed = 0, uses_anonymous_args = 0
 170              	.LVL5:
 171 0000 10B5     		push	{r4, lr}
ARM GAS  /var/folders/m4/4md61f0s1_g0rzfghffqnxvr0000gn/T//ccmihYiy.s 			page 4


 172              		.cfi_def_cfa_offset 8
 173              		.cfi_offset 4, -8
 174              		.cfi_offset 14, -4
 175              	.LBB157:
 176              	.LBB158:
 177              	.LBB159:
 178              	.LBB160:
 179              	.LBB161:
 180              		.loc 2 548 0
 181 0002 2023     		movs	r3, #32
 182              	.LBE161:
 183              	.LBE160:
 184              	.LBE159:
 185              	.LBE158:
 186              	.LBE157:
 187              		.loc 1 111 0
 188 0004 0446     		mov	r4, r0
 189              	.LBB166:
 190              	.LBB165:
 191              	.LBB164:
 192              	.LBB163:
 193              	.LBB162:
 194              		.loc 2 548 0
 195              	@ 548 "ChibiOS_16.1.4/os/ext/CMSIS/include/core_cmFunc.h" 1
 196 0006 83F31188 		MSR basepri, r3
 197              	@ 0 "" 2
 198              		.thumb
 199              	.LBE162:
 200              	.LBE163:
 201              	.LBE164:
 202              	.LBE165:
 203              	.LBE166:
 204              		.loc 1 118 0
 205 000a FFF7FEFF 		bl	pwm_lld_stop
 206              	.LVL6:
 207              		.loc 1 120 0
 208 000e 0122     		movs	r2, #1
 209              		.loc 1 119 0
 210 0010 0023     		movs	r3, #0
 211              		.loc 1 120 0
 212 0012 2270     		strb	r2, [r4]
 213              	.LVL7:
 214              		.loc 1 119 0
 215 0014 E360     		str	r3, [r4, #12]
 216              	.LBB167:
 217              	.LBB168:
 218              	.LBB169:
 219              	.LBB170:
 220              	.LBB171:
 221              	.LBB172:
 222              		.loc 2 548 0
 223              	@ 548 "ChibiOS_16.1.4/os/ext/CMSIS/include/core_cmFunc.h" 1
 224 0016 83F31188 		MSR basepri, r3
 225              	@ 0 "" 2
 226              		.thumb
 227 001a 10BD     		pop	{r4, pc}
 228              	.LBE172:
ARM GAS  /var/folders/m4/4md61f0s1_g0rzfghffqnxvr0000gn/T//ccmihYiy.s 			page 5


 229              	.LBE171:
 230              	.LBE170:
 231              	.LBE169:
 232              	.LBE168:
 233              	.LBE167:
 234              		.cfi_endproc
 235              	.LFE271:
 236              		.size	pwmStop, .-pwmStop
 237              		.section	.text.pwmChangePeriod,"ax",%progbits
 238              		.align	2
 239              		.p2align 4,,15
 240              		.global	pwmChangePeriod
 241              		.thumb
 242              		.thumb_func
 243              		.type	pwmChangePeriod, %function
 244              	pwmChangePeriod:
 245              	.LFB272:
 246              		.loc 1 139 0
 247              		.cfi_startproc
 248              		@ args = 0, pretend = 0, frame = 0
 249              		@ frame_needed = 0, uses_anonymous_args = 0
 250              		@ link register save eliminated.
 251              	.LVL8:
 252              	.LBB173:
 253              	.LBB174:
 254              	.LBB175:
 255              	.LBB176:
 256              	.LBB177:
 257              		.loc 2 548 0
 258 0000 2023     		movs	r3, #32
 259              	@ 548 "ChibiOS_16.1.4/os/ext/CMSIS/include/core_cmFunc.h" 1
 260 0002 83F31188 		MSR basepri, r3
 261              	@ 0 "" 2
 262              		.thumb
 263              	.LBE177:
 264              	.LBE176:
 265              	.LBE175:
 266              	.LBE174:
 267              	.LBE173:
 268              		.loc 1 145 0
 269 0006 8369     		ldr	r3, [r0, #24]
 270 0008 8160     		str	r1, [r0, #8]
 271 000a 0139     		subs	r1, r1, #1
 272              	.LVL9:
 273 000c D962     		str	r1, [r3, #44]
 274              	.LVL10:
 275              	.LBB178:
 276              	.LBB179:
 277              	.LBB180:
 278              	.LBB181:
 279              	.LBB182:
 280              	.LBB183:
 281              		.loc 2 548 0
 282 000e 0023     		movs	r3, #0
 283              	@ 548 "ChibiOS_16.1.4/os/ext/CMSIS/include/core_cmFunc.h" 1
 284 0010 83F31188 		MSR basepri, r3
 285              	@ 0 "" 2
ARM GAS  /var/folders/m4/4md61f0s1_g0rzfghffqnxvr0000gn/T//ccmihYiy.s 			page 6


 286              		.thumb
 287 0014 7047     		bx	lr
 288              	.LBE183:
 289              	.LBE182:
 290              	.LBE181:
 291              	.LBE180:
 292              	.LBE179:
 293              	.LBE178:
 294              		.cfi_endproc
 295              	.LFE272:
 296              		.size	pwmChangePeriod, .-pwmChangePeriod
 297 0016 00BF     		.section	.text.pwmEnableChannel,"ax",%progbits
 298              		.align	2
 299              		.p2align 4,,15
 300              		.global	pwmEnableChannel
 301              		.thumb
 302              		.thumb_func
 303              		.type	pwmEnableChannel, %function
 304              	pwmEnableChannel:
 305              	.LFB273:
 306              		.loc 1 165 0
 307              		.cfi_startproc
 308              		@ args = 0, pretend = 0, frame = 0
 309              		@ frame_needed = 0, uses_anonymous_args = 0
 310              	.LVL11:
 311 0000 70B5     		push	{r4, r5, r6, lr}
 312              		.cfi_def_cfa_offset 16
 313              		.cfi_offset 4, -16
 314              		.cfi_offset 5, -12
 315              		.cfi_offset 6, -8
 316              		.cfi_offset 14, -4
 317              	.LBB184:
 318              	.LBB185:
 319              	.LBB186:
 320              	.LBB187:
 321              	.LBB188:
 322              		.loc 2 548 0
 323 0002 2023     		movs	r3, #32
 324              	@ 548 "ChibiOS_16.1.4/os/ext/CMSIS/include/core_cmFunc.h" 1
 325 0004 83F31188 		MSR basepri, r3
 326              	@ 0 "" 2
 327              		.thumb
 328              	.LBE188:
 329              	.LBE187:
 330              	.LBE186:
 331              	.LBE185:
 332              	.LBE184:
 333              		.loc 1 173 0
 334 0008 0123     		movs	r3, #1
 335 000a C568     		ldr	r5, [r0, #12]
 336 000c 8B40     		lsls	r3, r3, r1
 337 000e 2B43     		orrs	r3, r3, r5
 338 0010 C360     		str	r3, [r0, #12]
 339 0012 FFF7FEFF 		bl	pwm_lld_enable_channel
 340              	.LVL12:
 341              	.LBB189:
 342              	.LBB190:
ARM GAS  /var/folders/m4/4md61f0s1_g0rzfghffqnxvr0000gn/T//ccmihYiy.s 			page 7


 343              	.LBB191:
 344              	.LBB192:
 345              	.LBB193:
 346              	.LBB194:
 347              		.loc 2 548 0
 348 0016 0023     		movs	r3, #0
 349              	@ 548 "ChibiOS_16.1.4/os/ext/CMSIS/include/core_cmFunc.h" 1
 350 0018 83F31188 		MSR basepri, r3
 351              	@ 0 "" 2
 352              		.thumb
 353 001c 70BD     		pop	{r4, r5, r6, pc}
 354              	.LBE194:
 355              	.LBE193:
 356              	.LBE192:
 357              	.LBE191:
 358              	.LBE190:
 359              	.LBE189:
 360              		.cfi_endproc
 361              	.LFE273:
 362              		.size	pwmEnableChannel, .-pwmEnableChannel
 363 001e 00BF     		.section	.text.pwmDisableChannel,"ax",%progbits
 364              		.align	2
 365              		.p2align 4,,15
 366              		.global	pwmDisableChannel
 367              		.thumb
 368              		.thumb_func
 369              		.type	pwmDisableChannel, %function
 370              	pwmDisableChannel:
 371              	.LFB274:
 372              		.loc 1 192 0
 373              		.cfi_startproc
 374              		@ args = 0, pretend = 0, frame = 0
 375              		@ frame_needed = 0, uses_anonymous_args = 0
 376              	.LVL13:
 377 0000 38B5     		push	{r3, r4, r5, lr}
 378              		.cfi_def_cfa_offset 16
 379              		.cfi_offset 3, -16
 380              		.cfi_offset 4, -12
 381              		.cfi_offset 5, -8
 382              		.cfi_offset 14, -4
 383              	.LBB195:
 384              	.LBB196:
 385              	.LBB197:
 386              	.LBB198:
 387              	.LBB199:
 388              		.loc 2 548 0
 389 0002 2023     		movs	r3, #32
 390              	@ 548 "ChibiOS_16.1.4/os/ext/CMSIS/include/core_cmFunc.h" 1
 391 0004 83F31188 		MSR basepri, r3
 392              	@ 0 "" 2
 393              		.thumb
 394              	.LBE199:
 395              	.LBE198:
 396              	.LBE197:
 397              	.LBE196:
 398              	.LBE195:
 399              		.loc 1 200 0
ARM GAS  /var/folders/m4/4md61f0s1_g0rzfghffqnxvr0000gn/T//ccmihYiy.s 			page 8


 400 0008 0122     		movs	r2, #1
 401 000a C368     		ldr	r3, [r0, #12]
 402 000c 8A40     		lsls	r2, r2, r1
 403 000e 23EA0203 		bic	r3, r3, r2
 404 0012 C360     		str	r3, [r0, #12]
 405 0014 FFF7FEFF 		bl	pwm_lld_disable_channel
 406              	.LVL14:
 407              	.LBB200:
 408              	.LBB201:
 409              	.LBB202:
 410              	.LBB203:
 411              	.LBB204:
 412              	.LBB205:
 413              		.loc 2 548 0
 414 0018 0023     		movs	r3, #0
 415              	@ 548 "ChibiOS_16.1.4/os/ext/CMSIS/include/core_cmFunc.h" 1
 416 001a 83F31188 		MSR basepri, r3
 417              	@ 0 "" 2
 418              		.thumb
 419 001e 38BD     		pop	{r3, r4, r5, pc}
 420              	.LBE205:
 421              	.LBE204:
 422              	.LBE203:
 423              	.LBE202:
 424              	.LBE201:
 425              	.LBE200:
 426              		.cfi_endproc
 427              	.LFE274:
 428              		.size	pwmDisableChannel, .-pwmDisableChannel
 429              		.section	.text.pwmEnablePeriodicNotification,"ax",%progbits
 430              		.align	2
 431              		.p2align 4,,15
 432              		.global	pwmEnablePeriodicNotification
 433              		.thumb
 434              		.thumb_func
 435              		.type	pwmEnablePeriodicNotification, %function
 436              	pwmEnablePeriodicNotification:
 437              	.LFB275:
 438              		.loc 1 214 0
 439              		.cfi_startproc
 440              		@ args = 0, pretend = 0, frame = 0
 441              		@ frame_needed = 0, uses_anonymous_args = 0
 442              	.LVL15:
 443 0000 08B5     		push	{r3, lr}
 444              		.cfi_def_cfa_offset 8
 445              		.cfi_offset 3, -8
 446              		.cfi_offset 14, -4
 447              	.LBB206:
 448              	.LBB207:
 449              	.LBB208:
 450              	.LBB209:
 451              	.LBB210:
 452              		.loc 2 548 0
 453 0002 2023     		movs	r3, #32
 454              	@ 548 "ChibiOS_16.1.4/os/ext/CMSIS/include/core_cmFunc.h" 1
 455 0004 83F31188 		MSR basepri, r3
 456              	@ 0 "" 2
ARM GAS  /var/folders/m4/4md61f0s1_g0rzfghffqnxvr0000gn/T//ccmihYiy.s 			page 9


 457              		.thumb
 458              	.LBE210:
 459              	.LBE209:
 460              	.LBE208:
 461              	.LBE207:
 462              	.LBE206:
 463              		.loc 1 223 0
 464 0008 FFF7FEFF 		bl	pwm_lld_enable_periodic_notification
 465              	.LVL16:
 466              	.LBB211:
 467              	.LBB212:
 468              	.LBB213:
 469              	.LBB214:
 470              	.LBB215:
 471              	.LBB216:
 472              		.loc 2 548 0
 473 000c 0023     		movs	r3, #0
 474              	@ 548 "ChibiOS_16.1.4/os/ext/CMSIS/include/core_cmFunc.h" 1
 475 000e 83F31188 		MSR basepri, r3
 476              	@ 0 "" 2
 477              		.thumb
 478 0012 08BD     		pop	{r3, pc}
 479              	.LBE216:
 480              	.LBE215:
 481              	.LBE214:
 482              	.LBE213:
 483              	.LBE212:
 484              	.LBE211:
 485              		.cfi_endproc
 486              	.LFE275:
 487              		.size	pwmEnablePeriodicNotification, .-pwmEnablePeriodicNotification
 488              		.section	.text.pwmDisablePeriodicNotification,"ax",%progbits
 489              		.align	2
 490              		.p2align 4,,15
 491              		.global	pwmDisablePeriodicNotification
 492              		.thumb
 493              		.thumb_func
 494              		.type	pwmDisablePeriodicNotification, %function
 495              	pwmDisablePeriodicNotification:
 496              	.LFB276:
 497              		.loc 1 237 0
 498              		.cfi_startproc
 499              		@ args = 0, pretend = 0, frame = 0
 500              		@ frame_needed = 0, uses_anonymous_args = 0
 501              	.LVL17:
 502 0000 08B5     		push	{r3, lr}
 503              		.cfi_def_cfa_offset 8
 504              		.cfi_offset 3, -8
 505              		.cfi_offset 14, -4
 506              	.LBB217:
 507              	.LBB218:
 508              	.LBB219:
 509              	.LBB220:
 510              	.LBB221:
 511              		.loc 2 548 0
 512 0002 2023     		movs	r3, #32
 513              	@ 548 "ChibiOS_16.1.4/os/ext/CMSIS/include/core_cmFunc.h" 1
ARM GAS  /var/folders/m4/4md61f0s1_g0rzfghffqnxvr0000gn/T//ccmihYiy.s 			page 10


 514 0004 83F31188 		MSR basepri, r3
 515              	@ 0 "" 2
 516              		.thumb
 517              	.LBE221:
 518              	.LBE220:
 519              	.LBE219:
 520              	.LBE218:
 521              	.LBE217:
 522              		.loc 1 246 0
 523 0008 FFF7FEFF 		bl	pwm_lld_disable_periodic_notification
 524              	.LVL18:
 525              	.LBB222:
 526              	.LBB223:
 527              	.LBB224:
 528              	.LBB225:
 529              	.LBB226:
 530              	.LBB227:
 531              		.loc 2 548 0
 532 000c 0023     		movs	r3, #0
 533              	@ 548 "ChibiOS_16.1.4/os/ext/CMSIS/include/core_cmFunc.h" 1
 534 000e 83F31188 		MSR basepri, r3
 535              	@ 0 "" 2
 536              		.thumb
 537 0012 08BD     		pop	{r3, pc}
 538              	.LBE227:
 539              	.LBE226:
 540              	.LBE225:
 541              	.LBE224:
 542              	.LBE223:
 543              	.LBE222:
 544              		.cfi_endproc
 545              	.LFE276:
 546              		.size	pwmDisablePeriodicNotification, .-pwmDisablePeriodicNotification
 547              		.section	.text.pwmEnableChannelNotification,"ax",%progbits
 548              		.align	2
 549              		.p2align 4,,15
 550              		.global	pwmEnableChannelNotification
 551              		.thumb
 552              		.thumb_func
 553              		.type	pwmEnableChannelNotification, %function
 554              	pwmEnableChannelNotification:
 555              	.LFB277:
 556              		.loc 1 262 0
 557              		.cfi_startproc
 558              		@ args = 0, pretend = 0, frame = 0
 559              		@ frame_needed = 0, uses_anonymous_args = 0
 560              	.LVL19:
 561 0000 08B5     		push	{r3, lr}
 562              		.cfi_def_cfa_offset 8
 563              		.cfi_offset 3, -8
 564              		.cfi_offset 14, -4
 565              	.LBB228:
 566              	.LBB229:
 567              	.LBB230:
 568              	.LBB231:
 569              	.LBB232:
 570              		.loc 2 548 0
ARM GAS  /var/folders/m4/4md61f0s1_g0rzfghffqnxvr0000gn/T//ccmihYiy.s 			page 11


 571 0002 2023     		movs	r3, #32
 572              	@ 548 "ChibiOS_16.1.4/os/ext/CMSIS/include/core_cmFunc.h" 1
 573 0004 83F31188 		MSR basepri, r3
 574              	@ 0 "" 2
 575              		.thumb
 576              	.LBE232:
 577              	.LBE231:
 578              	.LBE230:
 579              	.LBE229:
 580              	.LBE228:
 581              		.loc 1 274 0
 582 0008 FFF7FEFF 		bl	pwm_lld_enable_channel_notification
 583              	.LVL20:
 584              	.LBB233:
 585              	.LBB234:
 586              	.LBB235:
 587              	.LBB236:
 588              	.LBB237:
 589              	.LBB238:
 590              		.loc 2 548 0
 591 000c 0023     		movs	r3, #0
 592              	@ 548 "ChibiOS_16.1.4/os/ext/CMSIS/include/core_cmFunc.h" 1
 593 000e 83F31188 		MSR basepri, r3
 594              	@ 0 "" 2
 595              		.thumb
 596 0012 08BD     		pop	{r3, pc}
 597              	.LBE238:
 598              	.LBE237:
 599              	.LBE236:
 600              	.LBE235:
 601              	.LBE234:
 602              	.LBE233:
 603              		.cfi_endproc
 604              	.LFE277:
 605              		.size	pwmEnableChannelNotification, .-pwmEnableChannelNotification
 606              		.section	.text.pwmDisableChannelNotification,"ax",%progbits
 607              		.align	2
 608              		.p2align 4,,15
 609              		.global	pwmDisableChannelNotification
 610              		.thumb
 611              		.thumb_func
 612              		.type	pwmDisableChannelNotification, %function
 613              	pwmDisableChannelNotification:
 614              	.LFB278:
 615              		.loc 1 290 0
 616              		.cfi_startproc
 617              		@ args = 0, pretend = 0, frame = 0
 618              		@ frame_needed = 0, uses_anonymous_args = 0
 619              	.LVL21:
 620 0000 08B5     		push	{r3, lr}
 621              		.cfi_def_cfa_offset 8
 622              		.cfi_offset 3, -8
 623              		.cfi_offset 14, -4
 624              	.LBB239:
 625              	.LBB240:
 626              	.LBB241:
 627              	.LBB242:
ARM GAS  /var/folders/m4/4md61f0s1_g0rzfghffqnxvr0000gn/T//ccmihYiy.s 			page 12


 628              	.LBB243:
 629              		.loc 2 548 0
 630 0002 2023     		movs	r3, #32
 631              	@ 548 "ChibiOS_16.1.4/os/ext/CMSIS/include/core_cmFunc.h" 1
 632 0004 83F31188 		MSR basepri, r3
 633              	@ 0 "" 2
 634              		.thumb
 635              	.LBE243:
 636              	.LBE242:
 637              	.LBE241:
 638              	.LBE240:
 639              	.LBE239:
 640              		.loc 1 302 0
 641 0008 FFF7FEFF 		bl	pwm_lld_disable_channel_notification
 642              	.LVL22:
 643              	.LBB244:
 644              	.LBB245:
 645              	.LBB246:
 646              	.LBB247:
 647              	.LBB248:
 648              	.LBB249:
 649              		.loc 2 548 0
 650 000c 0023     		movs	r3, #0
 651              	@ 548 "ChibiOS_16.1.4/os/ext/CMSIS/include/core_cmFunc.h" 1
 652 000e 83F31188 		MSR basepri, r3
 653              	@ 0 "" 2
 654              		.thumb
 655 0012 08BD     		pop	{r3, pc}
 656              	.LBE249:
 657              	.LBE248:
 658              	.LBE247:
 659              	.LBE246:
 660              	.LBE245:
 661              	.LBE244:
 662              		.cfi_endproc
 663              	.LFE278:
 664              		.size	pwmDisableChannelNotification, .-pwmDisableChannelNotification
 665              		.text
 666              	.Letext0:
 667              		.file 3 "/usr/local/Cellar/gcc-arm-none-eabi-49/20150609/arm-none-eabi/include/machine/_default_ty
 668              		.file 4 "/usr/local/Cellar/gcc-arm-none-eabi-49/20150609/arm-none-eabi/include/sys/_stdint.h"
 669              		.file 5 "ChibiOS_16.1.4/os/rt/ports/ARMCMx/compilers/GCC/chtypes.h"
 670              		.file 6 "ChibiOS_16.1.4/os/rt/include/chsystypes.h"
 671              		.file 7 "ChibiOS_16.1.4/os/rt/include/chschd.h"
 672              		.file 8 "ChibiOS_16.1.4/os/rt/ports/ARMCMx/chcore.h"
 673              		.file 9 "ChibiOS_16.1.4/os/rt/ports/ARMCMx/chcore_v7m.h"
 674              		.file 10 "ChibiOS_16.1.4/os/rt/include/chtm.h"
 675              		.file 11 "ChibiOS_16.1.4/os/rt/include/chsem.h"
 676              		.file 12 "ChibiOS_16.1.4/os/rt/include/chmtx.h"
 677              		.file 13 "ChibiOS_16.1.4/os/hal/include/pwm.h"
 678              		.file 14 "ChibiOS_16.1.4/os/hal/ports/STM32/LLD/TIMv1/pwm_lld.h"
 679              		.file 15 "ChibiOS_16.1.4/os/hal/ports/STM32/LLD/TIMv1/stm32_tim.h"
 680              		.file 16 "ChibiOS_16.1.4/os/rt/include/chsys.h"
 681              		.file 17 "ChibiOS_16.1.4/os/hal/osal/rt/osal.h"
 682              		.file 18 "ChibiOS_16.1.4/os/ext/CMSIS/include/core_cm4.h"
 683              		.section	.debug_info,"",%progbits
 684              	.Ldebug_info0:
ARM GAS  /var/folders/m4/4md61f0s1_g0rzfghffqnxvr0000gn/T//ccmihYiy.s 			page 13


 685 0000 B1140000 		.4byte	0x14b1
 686 0004 0400     		.2byte	0x4
 687 0006 00000000 		.4byte	.Ldebug_abbrev0
 688 000a 04       		.byte	0x4
 689 000b 01       		.uleb128 0x1
 690 000c AC030000 		.4byte	.LASF167
 691 0010 01       		.byte	0x1
 692 0011 4E080000 		.4byte	.LASF168
 693 0015 00000000 		.4byte	.LASF169
 694 0019 30000000 		.4byte	.Ldebug_ranges0+0x30
 695 001d 00000000 		.4byte	0
 696 0021 00000000 		.4byte	.Ldebug_line0
 697 0025 02       		.uleb128 0x2
 698 0026 04       		.byte	0x4
 699 0027 05       		.byte	0x5
 700 0028 696E7400 		.ascii	"int\000"
 701 002c 03       		.uleb128 0x3
 702 002d 04       		.byte	0x4
 703 002e 07       		.byte	0x7
 704 002f 86020000 		.4byte	.LASF0
 705 0033 03       		.uleb128 0x3
 706 0034 01       		.byte	0x1
 707 0035 06       		.byte	0x6
 708 0036 61010000 		.4byte	.LASF1
 709 003a 04       		.uleb128 0x4
 710 003b 70000000 		.4byte	.LASF5
 711 003f 03       		.byte	0x3
 712 0040 1D       		.byte	0x1d
 713 0041 45000000 		.4byte	0x45
 714 0045 03       		.uleb128 0x3
 715 0046 01       		.byte	0x1
 716 0047 08       		.byte	0x8
 717 0048 01060000 		.4byte	.LASF2
 718 004c 03       		.uleb128 0x3
 719 004d 02       		.byte	0x2
 720 004e 05       		.byte	0x5
 721 004f 34060000 		.4byte	.LASF3
 722 0053 03       		.uleb128 0x3
 723 0054 02       		.byte	0x2
 724 0055 07       		.byte	0x7
 725 0056 16020000 		.4byte	.LASF4
 726 005a 04       		.uleb128 0x4
 727 005b 7F030000 		.4byte	.LASF6
 728 005f 03       		.byte	0x3
 729 0060 3F       		.byte	0x3f
 730 0061 65000000 		.4byte	0x65
 731 0065 03       		.uleb128 0x3
 732 0066 04       		.byte	0x4
 733 0067 05       		.byte	0x5
 734 0068 AC010000 		.4byte	.LASF7
 735 006c 04       		.uleb128 0x4
 736 006d 77070000 		.4byte	.LASF8
 737 0071 03       		.byte	0x3
 738 0072 41       		.byte	0x41
 739 0073 77000000 		.4byte	0x77
 740 0077 03       		.uleb128 0x3
 741 0078 04       		.byte	0x4
ARM GAS  /var/folders/m4/4md61f0s1_g0rzfghffqnxvr0000gn/T//ccmihYiy.s 			page 14


 742 0079 07       		.byte	0x7
 743 007a FC060000 		.4byte	.LASF9
 744 007e 03       		.uleb128 0x3
 745 007f 08       		.byte	0x8
 746 0080 05       		.byte	0x5
 747 0081 5D020000 		.4byte	.LASF10
 748 0085 04       		.uleb128 0x4
 749 0086 8B050000 		.4byte	.LASF11
 750 008a 03       		.byte	0x3
 751 008b 5B       		.byte	0x5b
 752 008c 90000000 		.4byte	0x90
 753 0090 03       		.uleb128 0x3
 754 0091 08       		.byte	0x8
 755 0092 07       		.byte	0x7
 756 0093 CD000000 		.4byte	.LASF12
 757 0097 04       		.uleb128 0x4
 758 0098 1E080000 		.4byte	.LASF13
 759 009c 04       		.byte	0x4
 760 009d 14       		.byte	0x14
 761 009e 3A000000 		.4byte	0x3a
 762 00a2 04       		.uleb128 0x4
 763 00a3 F9050000 		.4byte	.LASF14
 764 00a7 04       		.byte	0x4
 765 00a8 1F       		.byte	0x1f
 766 00a9 5A000000 		.4byte	0x5a
 767 00ad 04       		.uleb128 0x4
 768 00ae DC060000 		.4byte	.LASF15
 769 00b2 04       		.byte	0x4
 770 00b3 20       		.byte	0x20
 771 00b4 6C000000 		.4byte	0x6c
 772 00b8 04       		.uleb128 0x4
 773 00b9 67000000 		.4byte	.LASF16
 774 00bd 04       		.byte	0x4
 775 00be 26       		.byte	0x26
 776 00bf 85000000 		.4byte	0x85
 777 00c3 04       		.uleb128 0x4
 778 00c4 DF070000 		.4byte	.LASF17
 779 00c8 05       		.byte	0x5
 780 00c9 39       		.byte	0x39
 781 00ca AD000000 		.4byte	0xad
 782 00ce 04       		.uleb128 0x4
 783 00cf 90080000 		.4byte	.LASF18
 784 00d3 05       		.byte	0x5
 785 00d4 3C       		.byte	0x3c
 786 00d5 97000000 		.4byte	0x97
 787 00d9 04       		.uleb128 0x4
 788 00da E7010000 		.4byte	.LASF19
 789 00de 05       		.byte	0x5
 790 00df 3D       		.byte	0x3d
 791 00e0 97000000 		.4byte	0x97
 792 00e4 04       		.uleb128 0x4
 793 00e5 BC050000 		.4byte	.LASF20
 794 00e9 05       		.byte	0x5
 795 00ea 3E       		.byte	0x3e
 796 00eb 97000000 		.4byte	0x97
 797 00ef 04       		.uleb128 0x4
 798 00f0 93010000 		.4byte	.LASF21
ARM GAS  /var/folders/m4/4md61f0s1_g0rzfghffqnxvr0000gn/T//ccmihYiy.s 			page 15


 799 00f4 05       		.byte	0x5
 800 00f5 3F       		.byte	0x3f
 801 00f6 97000000 		.4byte	0x97
 802 00fa 04       		.uleb128 0x4
 803 00fb DB050000 		.4byte	.LASF22
 804 00ff 05       		.byte	0x5
 805 0100 40       		.byte	0x40
 806 0101 AD000000 		.4byte	0xad
 807 0105 04       		.uleb128 0x4
 808 0106 F7020000 		.4byte	.LASF23
 809 010a 05       		.byte	0x5
 810 010b 41       		.byte	0x41
 811 010c A2000000 		.4byte	0xa2
 812 0110 04       		.uleb128 0x4
 813 0111 4E030000 		.4byte	.LASF24
 814 0115 05       		.byte	0x5
 815 0116 43       		.byte	0x43
 816 0117 AD000000 		.4byte	0xad
 817 011b 04       		.uleb128 0x4
 818 011c 80020000 		.4byte	.LASF25
 819 0120 05       		.byte	0x5
 820 0121 45       		.byte	0x45
 821 0122 A2000000 		.4byte	0xa2
 822 0126 04       		.uleb128 0x4
 823 0127 59070000 		.4byte	.LASF26
 824 012b 06       		.byte	0x6
 825 012c 33       		.byte	0x33
 826 012d AD000000 		.4byte	0xad
 827 0131 04       		.uleb128 0x4
 828 0132 44070000 		.4byte	.LASF27
 829 0136 06       		.byte	0x6
 830 0137 3F       		.byte	0x3f
 831 0138 3C010000 		.4byte	0x13c
 832 013c 05       		.uleb128 0x5
 833 013d E2020000 		.4byte	.LASF49
 834 0141 48       		.byte	0x48
 835 0142 07       		.byte	0x7
 836 0143 C2       		.byte	0xc2
 837 0144 41020000 		.4byte	0x241
 838 0148 06       		.uleb128 0x6
 839 0149 5E060000 		.4byte	.LASF28
 840 014d 07       		.byte	0x7
 841 014e C3       		.byte	0xc3
 842 014f 4C020000 		.4byte	0x24c
 843 0153 00       		.byte	0
 844 0154 06       		.uleb128 0x6
 845 0155 D4050000 		.4byte	.LASF29
 846 0159 07       		.byte	0x7
 847 015a C5       		.byte	0xc5
 848 015b 4C020000 		.4byte	0x24c
 849 015f 04       		.byte	0x4
 850 0160 06       		.uleb128 0x6
 851 0161 35010000 		.4byte	.LASF30
 852 0165 07       		.byte	0x7
 853 0166 C7       		.byte	0xc7
 854 0167 FA000000 		.4byte	0xfa
 855 016b 08       		.byte	0x8
ARM GAS  /var/folders/m4/4md61f0s1_g0rzfghffqnxvr0000gn/T//ccmihYiy.s 			page 16


 856 016c 06       		.uleb128 0x6
 857 016d D4080000 		.4byte	.LASF31
 858 0171 07       		.byte	0x7
 859 0172 C8       		.byte	0xc8
 860 0173 A1040000 		.4byte	0x4a1
 861 0177 0C       		.byte	0xc
 862 0178 06       		.uleb128 0x6
 863 0179 06020000 		.4byte	.LASF32
 864 017d 07       		.byte	0x7
 865 017e CA       		.byte	0xca
 866 017f 4C020000 		.4byte	0x24c
 867 0183 10       		.byte	0x10
 868 0184 06       		.uleb128 0x6
 869 0185 4D050000 		.4byte	.LASF33
 870 0189 07       		.byte	0x7
 871 018a CB       		.byte	0xcb
 872 018b 4C020000 		.4byte	0x24c
 873 018f 14       		.byte	0x14
 874 0190 06       		.uleb128 0x6
 875 0191 7E080000 		.4byte	.LASF34
 876 0195 07       		.byte	0x7
 877 0196 D2       		.byte	0xd2
 878 0197 EF060000 		.4byte	0x6ef
 879 019b 18       		.byte	0x18
 880 019c 06       		.uleb128 0x6
 881 019d 3E060000 		.4byte	.LASF35
 882 01a1 07       		.byte	0x7
 883 01a2 DD       		.byte	0xdd
 884 01a3 D9000000 		.4byte	0xd9
 885 01a7 1C       		.byte	0x1c
 886 01a8 06       		.uleb128 0x6
 887 01a9 71060000 		.4byte	.LASF36
 888 01ad 07       		.byte	0x7
 889 01ae E1       		.byte	0xe1
 890 01af CE000000 		.4byte	0xce
 891 01b3 1D       		.byte	0x1d
 892 01b4 06       		.uleb128 0x6
 893 01b5 11080000 		.4byte	.LASF37
 894 01b9 07       		.byte	0x7
 895 01ba E6       		.byte	0xe6
 896 01bb E4000000 		.4byte	0xe4
 897 01bf 1E       		.byte	0x1e
 898 01c0 06       		.uleb128 0x6
 899 01c1 46060000 		.4byte	.LASF38
 900 01c5 07       		.byte	0x7
 901 01c6 EC       		.byte	0xec
 902 01c7 EF000000 		.4byte	0xef
 903 01cb 1F       		.byte	0x1f
 904 01cc 06       		.uleb128 0x6
 905 01cd 9B020000 		.4byte	.LASF39
 906 01d1 07       		.byte	0x7
 907 01d2 F3       		.byte	0xf3
 908 01d3 01070000 		.4byte	0x701
 909 01d7 20       		.byte	0x20
 910 01d8 07       		.uleb128 0x7
 911 01d9 705F7500 		.ascii	"p_u\000"
 912 01dd 07       		.byte	0x7
ARM GAS  /var/folders/m4/4md61f0s1_g0rzfghffqnxvr0000gn/T//ccmihYiy.s 			page 17


 913 01de 3101     		.2byte	0x131
 914 01e0 2A060000 		.4byte	0x62a
 915 01e4 24       		.byte	0x24
 916 01e5 08       		.uleb128 0x8
 917 01e6 D0040000 		.4byte	.LASF40
 918 01ea 07       		.byte	0x7
 919 01eb 3601     		.2byte	0x136
 920 01ed 52020000 		.4byte	0x252
 921 01f1 28       		.byte	0x28
 922 01f2 08       		.uleb128 0x8
 923 01f3 B2020000 		.4byte	.LASF41
 924 01f7 07       		.byte	0x7
 925 01f8 3C01     		.2byte	0x13c
 926 01fa 76020000 		.4byte	0x276
 927 01fe 2C       		.byte	0x2c
 928 01ff 08       		.uleb128 0x8
 929 0200 A4080000 		.4byte	.LASF42
 930 0204 07       		.byte	0x7
 931 0205 4001     		.2byte	0x140
 932 0207 05010000 		.4byte	0x105
 933 020b 34       		.byte	0x34
 934 020c 08       		.uleb128 0x8
 935 020d 42050000 		.4byte	.LASF43
 936 0211 07       		.byte	0x7
 937 0212 4601     		.2byte	0x146
 938 0214 10010000 		.4byte	0x110
 939 0218 38       		.byte	0x38
 940 0219 08       		.uleb128 0x8
 941 021a 2A060000 		.4byte	.LASF44
 942 021e 07       		.byte	0x7
 943 021f 4D01     		.2byte	0x14d
 944 0221 E9060000 		.4byte	0x6e9
 945 0225 3C       		.byte	0x3c
 946 0226 08       		.uleb128 0x8
 947 0227 63070000 		.4byte	.LASF45
 948 022b 07       		.byte	0x7
 949 022c 5101     		.2byte	0x151
 950 022e FA000000 		.4byte	0xfa
 951 0232 40       		.byte	0x40
 952 0233 08       		.uleb128 0x8
 953 0234 31020000 		.4byte	.LASF46
 954 0238 07       		.byte	0x7
 955 0239 5801     		.2byte	0x158
 956 023b 29030000 		.4byte	0x329
 957 023f 44       		.byte	0x44
 958 0240 00       		.byte	0
 959 0241 04       		.uleb128 0x4
 960 0242 EB040000 		.4byte	.LASF47
 961 0246 06       		.byte	0x6
 962 0247 44       		.byte	0x44
 963 0248 4C020000 		.4byte	0x24c
 964 024c 09       		.uleb128 0x9
 965 024d 04       		.byte	0x4
 966 024e 31010000 		.4byte	0x131
 967 0252 04       		.uleb128 0x4
 968 0253 2C000000 		.4byte	.LASF48
 969 0257 06       		.byte	0x6
ARM GAS  /var/folders/m4/4md61f0s1_g0rzfghffqnxvr0000gn/T//ccmihYiy.s 			page 18


 970 0258 49       		.byte	0x49
 971 0259 5D020000 		.4byte	0x25d
 972 025d 05       		.uleb128 0x5
 973 025e FD020000 		.4byte	.LASF50
 974 0262 04       		.byte	0x4
 975 0263 07       		.byte	0x7
 976 0264 B0       		.byte	0xb0
 977 0265 76020000 		.4byte	0x276
 978 0269 06       		.uleb128 0x6
 979 026a 5E060000 		.4byte	.LASF28
 980 026e 07       		.byte	0x7
 981 026f B1       		.byte	0xb1
 982 0270 4C020000 		.4byte	0x24c
 983 0274 00       		.byte	0
 984 0275 00       		.byte	0
 985 0276 04       		.uleb128 0x4
 986 0277 F8070000 		.4byte	.LASF51
 987 027b 06       		.byte	0x6
 988 027c 50       		.byte	0x50
 989 027d 81020000 		.4byte	0x281
 990 0281 05       		.uleb128 0x5
 991 0282 86000000 		.4byte	.LASF52
 992 0286 08       		.byte	0x8
 993 0287 07       		.byte	0x7
 994 0288 B7       		.byte	0xb7
 995 0289 A6020000 		.4byte	0x2a6
 996 028d 06       		.uleb128 0x6
 997 028e 5E060000 		.4byte	.LASF28
 998 0292 07       		.byte	0x7
 999 0293 B8       		.byte	0xb8
 1000 0294 4C020000 		.4byte	0x24c
 1001 0298 00       		.byte	0
 1002 0299 06       		.uleb128 0x6
 1003 029a D4050000 		.4byte	.LASF29
 1004 029e 07       		.byte	0x7
 1005 029f B9       		.byte	0xb9
 1006 02a0 4C020000 		.4byte	0x24c
 1007 02a4 04       		.byte	0x4
 1008 02a5 00       		.byte	0
 1009 02a6 04       		.uleb128 0x4
 1010 02a7 48000000 		.4byte	.LASF53
 1011 02ab 06       		.byte	0x6
 1012 02ac 57       		.byte	0x57
 1013 02ad B1020000 		.4byte	0x2b1
 1014 02b1 0A       		.uleb128 0xa
 1015 02b2 40030000 		.4byte	.LASF54
 1016 02b6 1C       		.byte	0x1c
 1017 02b7 07       		.byte	0x7
 1018 02b8 9001     		.2byte	0x190
 1019 02ba 0D030000 		.4byte	0x30d
 1020 02be 08       		.uleb128 0x8
 1021 02bf EC060000 		.4byte	.LASF55
 1022 02c3 07       		.byte	0x7
 1023 02c4 9101     		.2byte	0x191
 1024 02c6 76020000 		.4byte	0x276
 1025 02ca 00       		.byte	0
 1026 02cb 08       		.uleb128 0x8
ARM GAS  /var/folders/m4/4md61f0s1_g0rzfghffqnxvr0000gn/T//ccmihYiy.s 			page 19


 1027 02cc 50060000 		.4byte	.LASF56
 1028 02d0 07       		.byte	0x7
 1029 02d1 9201     		.2byte	0x192
 1030 02d3 FA000000 		.4byte	0xfa
 1031 02d7 08       		.byte	0x8
 1032 02d8 08       		.uleb128 0x8
 1033 02d9 62050000 		.4byte	.LASF57
 1034 02dd 07       		.byte	0x7
 1035 02de 9401     		.2byte	0x194
 1036 02e0 A1040000 		.4byte	0x4a1
 1037 02e4 0C       		.byte	0xc
 1038 02e5 08       		.uleb128 0x8
 1039 02e6 29020000 		.4byte	.LASF58
 1040 02ea 07       		.byte	0x7
 1041 02eb 9701     		.2byte	0x197
 1042 02ed 4C020000 		.4byte	0x24c
 1043 02f1 10       		.byte	0x10
 1044 02f2 08       		.uleb128 0x8
 1045 02f3 83050000 		.4byte	.LASF59
 1046 02f7 07       		.byte	0x7
 1047 02f8 9801     		.2byte	0x198
 1048 02fa 4C020000 		.4byte	0x24c
 1049 02fe 14       		.byte	0x14
 1050 02ff 08       		.uleb128 0x8
 1051 0300 79050000 		.4byte	.LASF60
 1052 0304 07       		.byte	0x7
 1053 0305 9B01     		.2byte	0x19b
 1054 0307 4C020000 		.4byte	0x24c
 1055 030b 18       		.byte	0x18
 1056 030c 00       		.byte	0
 1057 030d 04       		.uleb128 0x4
 1058 030e 6E070000 		.4byte	.LASF61
 1059 0312 06       		.byte	0x6
 1060 0313 5C       		.byte	0x5c
 1061 0314 18030000 		.4byte	0x318
 1062 0318 09       		.uleb128 0x9
 1063 0319 04       		.byte	0x4
 1064 031a 1E030000 		.4byte	0x31e
 1065 031e 0B       		.uleb128 0xb
 1066 031f 29030000 		.4byte	0x329
 1067 0323 0C       		.uleb128 0xc
 1068 0324 29030000 		.4byte	0x329
 1069 0328 00       		.byte	0
 1070 0329 0D       		.uleb128 0xd
 1071 032a 04       		.byte	0x4
 1072 032b 04       		.uleb128 0x4
 1073 032c C4050000 		.4byte	.LASF62
 1074 0330 06       		.byte	0x6
 1075 0331 61       		.byte	0x61
 1076 0332 36030000 		.4byte	0x336
 1077 0336 0A       		.uleb128 0xa
 1078 0337 AC060000 		.4byte	.LASF63
 1079 033b 14       		.byte	0x14
 1080 033c 07       		.byte	0x7
 1081 033d 6B01     		.2byte	0x16b
 1082 033f 85030000 		.4byte	0x385
 1083 0343 08       		.uleb128 0x8
ARM GAS  /var/folders/m4/4md61f0s1_g0rzfghffqnxvr0000gn/T//ccmihYiy.s 			page 20


 1084 0344 93020000 		.4byte	.LASF64
 1085 0348 07       		.byte	0x7
 1086 0349 6C01     		.2byte	0x16c
 1087 034b 06070000 		.4byte	0x706
 1088 034f 00       		.byte	0
 1089 0350 08       		.uleb128 0x8
 1090 0351 42020000 		.4byte	.LASF65
 1091 0355 07       		.byte	0x7
 1092 0356 6D01     		.2byte	0x16d
 1093 0358 06070000 		.4byte	0x706
 1094 035c 04       		.byte	0x4
 1095 035d 08       		.uleb128 0x8
 1096 035e A9020000 		.4byte	.LASF66
 1097 0362 07       		.byte	0x7
 1098 0363 6E01     		.2byte	0x16e
 1099 0365 26010000 		.4byte	0x126
 1100 0369 08       		.byte	0x8
 1101 036a 08       		.uleb128 0x8
 1102 036b DA080000 		.4byte	.LASF67
 1103 036f 07       		.byte	0x7
 1104 0370 6F01     		.2byte	0x16f
 1105 0372 0D030000 		.4byte	0x30d
 1106 0376 0C       		.byte	0xc
 1107 0377 08       		.uleb128 0x8
 1108 0378 E7070000 		.4byte	.LASF68
 1109 037c 07       		.byte	0x7
 1110 037d 7101     		.2byte	0x171
 1111 037f 29030000 		.4byte	0x329
 1112 0383 10       		.byte	0x10
 1113 0384 00       		.byte	0
 1114 0385 04       		.uleb128 0x4
 1115 0386 F8000000 		.4byte	.LASF69
 1116 038a 06       		.byte	0x6
 1117 038b 66       		.byte	0x66
 1118 038c 90030000 		.4byte	0x390
 1119 0390 0A       		.uleb128 0xa
 1120 0391 FE040000 		.4byte	.LASF70
 1121 0395 10       		.byte	0x10
 1122 0396 07       		.byte	0x7
 1123 0397 7B01     		.2byte	0x17b
 1124 0399 D2030000 		.4byte	0x3d2
 1125 039d 08       		.uleb128 0x8
 1126 039e 93020000 		.4byte	.LASF64
 1127 03a2 07       		.byte	0x7
 1128 03a3 7C01     		.2byte	0x17c
 1129 03a5 06070000 		.4byte	0x706
 1130 03a9 00       		.byte	0
 1131 03aa 08       		.uleb128 0x8
 1132 03ab 42020000 		.4byte	.LASF65
 1133 03af 07       		.byte	0x7
 1134 03b0 7E01     		.2byte	0x17e
 1135 03b2 06070000 		.4byte	0x706
 1136 03b6 04       		.byte	0x4
 1137 03b7 08       		.uleb128 0x8
 1138 03b8 A9020000 		.4byte	.LASF66
 1139 03bc 07       		.byte	0x7
 1140 03bd 8001     		.2byte	0x180
ARM GAS  /var/folders/m4/4md61f0s1_g0rzfghffqnxvr0000gn/T//ccmihYiy.s 			page 21


 1141 03bf 26010000 		.4byte	0x126
 1142 03c3 08       		.byte	0x8
 1143 03c4 08       		.uleb128 0x8
 1144 03c5 85080000 		.4byte	.LASF71
 1145 03c9 07       		.byte	0x7
 1146 03ca 8201     		.2byte	0x182
 1147 03cc 01070000 		.4byte	0x701
 1148 03d0 0C       		.byte	0xc
 1149 03d1 00       		.byte	0
 1150 03d2 04       		.uleb128 0x4
 1151 03d3 97000000 		.4byte	.LASF72
 1152 03d7 06       		.byte	0x6
 1153 03d8 6B       		.byte	0x6b
 1154 03d9 DD030000 		.4byte	0x3dd
 1155 03dd 0A       		.uleb128 0xa
 1156 03de E3050000 		.4byte	.LASF73
 1157 03e2 04       		.byte	0x4
 1158 03e3 07       		.byte	0x7
 1159 03e4 A201     		.2byte	0x1a2
 1160 03e6 F8030000 		.4byte	0x3f8
 1161 03ea 08       		.uleb128 0x8
 1162 03eb B5070000 		.4byte	.LASF74
 1163 03ef 07       		.byte	0x7
 1164 03f0 AA01     		.2byte	0x1aa
 1165 03f2 0C070000 		.4byte	0x70c
 1166 03f6 00       		.byte	0
 1167 03f7 00       		.byte	0
 1168 03f8 04       		.uleb128 0x4
 1169 03f9 1F030000 		.4byte	.LASF75
 1170 03fd 06       		.byte	0x6
 1171 03fe 70       		.byte	0x70
 1172 03ff 03040000 		.4byte	0x403
 1173 0403 0E       		.uleb128 0xe
 1174 0404 8C060000 		.4byte	.LASF76
 1175 0408 5802     		.2byte	0x258
 1176 040a 07       		.byte	0x7
 1177 040b C201     		.2byte	0x1c2
 1178 040d 5F040000 		.4byte	0x45f
 1179 0411 08       		.uleb128 0x8
 1180 0412 18080000 		.4byte	.LASF77
 1181 0416 07       		.byte	0x7
 1182 0417 C601     		.2byte	0x1c6
 1183 0419 A6020000 		.4byte	0x2a6
 1184 041d 00       		.byte	0
 1185 041e 08       		.uleb128 0x8
 1186 041f 4A020000 		.4byte	.LASF78
 1187 0423 07       		.byte	0x7
 1188 0424 CA01     		.2byte	0x1ca
 1189 0426 85030000 		.4byte	0x385
 1190 042a 1C       		.byte	0x1c
 1191 042b 07       		.uleb128 0x7
 1192 042c 64626700 		.ascii	"dbg\000"
 1193 0430 07       		.byte	0x7
 1194 0431 CE01     		.2byte	0x1ce
 1195 0433 D2030000 		.4byte	0x3d2
 1196 0437 2C       		.byte	0x2c
 1197 0438 08       		.uleb128 0x8
ARM GAS  /var/folders/m4/4md61f0s1_g0rzfghffqnxvr0000gn/T//ccmihYiy.s 			page 22


 1198 0439 ED000000 		.4byte	.LASF79
 1199 043d 07       		.byte	0x7
 1200 043e D201     		.2byte	0x1d2
 1201 0440 31010000 		.4byte	0x131
 1202 0444 30       		.byte	0x30
 1203 0445 07       		.uleb128 0x7
 1204 0446 746D00   		.ascii	"tm\000"
 1205 0449 07       		.byte	0x7
 1206 044a D701     		.2byte	0x1d7
 1207 044c 1F060000 		.4byte	0x61f
 1208 0450 78       		.byte	0x78
 1209 0451 08       		.uleb128 0x8
 1210 0452 71020000 		.4byte	.LASF80
 1211 0456 07       		.byte	0x7
 1212 0457 E301     		.2byte	0x1e3
 1213 0459 11070000 		.4byte	0x711
 1214 045d 80       		.byte	0x80
 1215 045e 00       		.byte	0
 1216 045f 03       		.uleb128 0x3
 1217 0460 04       		.byte	0x4
 1218 0461 07       		.byte	0x7
 1219 0462 E2040000 		.4byte	.LASF81
 1220 0466 0F       		.uleb128 0xf
 1221 0467 AD000000 		.4byte	0xad
 1222 046b 10       		.uleb128 0x10
 1223 046c AD000000 		.4byte	0xad
 1224 0470 7B040000 		.4byte	0x47b
 1225 0474 11       		.uleb128 0x11
 1226 0475 5F040000 		.4byte	0x45f
 1227 0479 01       		.byte	0x1
 1228 047a 00       		.byte	0
 1229 047b 10       		.uleb128 0x10
 1230 047c AD000000 		.4byte	0xad
 1231 0480 8B040000 		.4byte	0x48b
 1232 0484 11       		.uleb128 0x11
 1233 0485 5F040000 		.4byte	0x45f
 1234 0489 03       		.byte	0x3
 1235 048a 00       		.byte	0
 1236 048b 04       		.uleb128 0x4
 1237 048c 39020000 		.4byte	.LASF82
 1238 0490 08       		.byte	0x8
 1239 0491 65       		.byte	0x65
 1240 0492 29030000 		.4byte	0x329
 1241 0496 04       		.uleb128 0x4
 1242 0497 8E030000 		.4byte	.LASF83
 1243 049b 08       		.byte	0x8
 1244 049c 6D       		.byte	0x6d
 1245 049d B8000000 		.4byte	0xb8
 1246 04a1 05       		.uleb128 0x5
 1247 04a2 C6070000 		.4byte	.LASF84
 1248 04a6 04       		.byte	0x4
 1249 04a7 08       		.byte	0x8
 1250 04a8 89       		.byte	0x89
 1251 04a9 BA040000 		.4byte	0x4ba
 1252 04ad 12       		.uleb128 0x12
 1253 04ae 72313300 		.ascii	"r13\000"
 1254 04b2 08       		.byte	0x8
ARM GAS  /var/folders/m4/4md61f0s1_g0rzfghffqnxvr0000gn/T//ccmihYiy.s 			page 23


 1255 04b3 8A       		.byte	0x8a
 1256 04b4 04060000 		.4byte	0x604
 1257 04b8 00       		.byte	0
 1258 04b9 00       		.byte	0
 1259 04ba 05       		.uleb128 0x5
 1260 04bb 7A000000 		.4byte	.LASF85
 1261 04bf 64       		.byte	0x64
 1262 04c0 09       		.byte	0x9
 1263 04c1 FD       		.byte	0xfd
 1264 04c2 04060000 		.4byte	0x604
 1265 04c6 12       		.uleb128 0x12
 1266 04c7 73313600 		.ascii	"s16\000"
 1267 04cb 09       		.byte	0x9
 1268 04cc FF       		.byte	0xff
 1269 04cd 8B040000 		.4byte	0x48b
 1270 04d1 00       		.byte	0
 1271 04d2 07       		.uleb128 0x7
 1272 04d3 73313700 		.ascii	"s17\000"
 1273 04d7 09       		.byte	0x9
 1274 04d8 0001     		.2byte	0x100
 1275 04da 8B040000 		.4byte	0x48b
 1276 04de 04       		.byte	0x4
 1277 04df 07       		.uleb128 0x7
 1278 04e0 73313800 		.ascii	"s18\000"
 1279 04e4 09       		.byte	0x9
 1280 04e5 0101     		.2byte	0x101
 1281 04e7 8B040000 		.4byte	0x48b
 1282 04eb 08       		.byte	0x8
 1283 04ec 07       		.uleb128 0x7
 1284 04ed 73313900 		.ascii	"s19\000"
 1285 04f1 09       		.byte	0x9
 1286 04f2 0201     		.2byte	0x102
 1287 04f4 8B040000 		.4byte	0x48b
 1288 04f8 0C       		.byte	0xc
 1289 04f9 07       		.uleb128 0x7
 1290 04fa 73323000 		.ascii	"s20\000"
 1291 04fe 09       		.byte	0x9
 1292 04ff 0301     		.2byte	0x103
 1293 0501 8B040000 		.4byte	0x48b
 1294 0505 10       		.byte	0x10
 1295 0506 07       		.uleb128 0x7
 1296 0507 73323100 		.ascii	"s21\000"
 1297 050b 09       		.byte	0x9
 1298 050c 0401     		.2byte	0x104
 1299 050e 8B040000 		.4byte	0x48b
 1300 0512 14       		.byte	0x14
 1301 0513 07       		.uleb128 0x7
 1302 0514 73323200 		.ascii	"s22\000"
 1303 0518 09       		.byte	0x9
 1304 0519 0501     		.2byte	0x105
 1305 051b 8B040000 		.4byte	0x48b
 1306 051f 18       		.byte	0x18
 1307 0520 07       		.uleb128 0x7
 1308 0521 73323300 		.ascii	"s23\000"
 1309 0525 09       		.byte	0x9
 1310 0526 0601     		.2byte	0x106
 1311 0528 8B040000 		.4byte	0x48b
ARM GAS  /var/folders/m4/4md61f0s1_g0rzfghffqnxvr0000gn/T//ccmihYiy.s 			page 24


 1312 052c 1C       		.byte	0x1c
 1313 052d 07       		.uleb128 0x7
 1314 052e 73323400 		.ascii	"s24\000"
 1315 0532 09       		.byte	0x9
 1316 0533 0701     		.2byte	0x107
 1317 0535 8B040000 		.4byte	0x48b
 1318 0539 20       		.byte	0x20
 1319 053a 07       		.uleb128 0x7
 1320 053b 73323500 		.ascii	"s25\000"
 1321 053f 09       		.byte	0x9
 1322 0540 0801     		.2byte	0x108
 1323 0542 8B040000 		.4byte	0x48b
 1324 0546 24       		.byte	0x24
 1325 0547 07       		.uleb128 0x7
 1326 0548 73323600 		.ascii	"s26\000"
 1327 054c 09       		.byte	0x9
 1328 054d 0901     		.2byte	0x109
 1329 054f 8B040000 		.4byte	0x48b
 1330 0553 28       		.byte	0x28
 1331 0554 07       		.uleb128 0x7
 1332 0555 73323700 		.ascii	"s27\000"
 1333 0559 09       		.byte	0x9
 1334 055a 0A01     		.2byte	0x10a
 1335 055c 8B040000 		.4byte	0x48b
 1336 0560 2C       		.byte	0x2c
 1337 0561 07       		.uleb128 0x7
 1338 0562 73323800 		.ascii	"s28\000"
 1339 0566 09       		.byte	0x9
 1340 0567 0B01     		.2byte	0x10b
 1341 0569 8B040000 		.4byte	0x48b
 1342 056d 30       		.byte	0x30
 1343 056e 07       		.uleb128 0x7
 1344 056f 73323900 		.ascii	"s29\000"
 1345 0573 09       		.byte	0x9
 1346 0574 0C01     		.2byte	0x10c
 1347 0576 8B040000 		.4byte	0x48b
 1348 057a 34       		.byte	0x34
 1349 057b 07       		.uleb128 0x7
 1350 057c 73333000 		.ascii	"s30\000"
 1351 0580 09       		.byte	0x9
 1352 0581 0D01     		.2byte	0x10d
 1353 0583 8B040000 		.4byte	0x48b
 1354 0587 38       		.byte	0x38
 1355 0588 07       		.uleb128 0x7
 1356 0589 73333100 		.ascii	"s31\000"
 1357 058d 09       		.byte	0x9
 1358 058e 0E01     		.2byte	0x10e
 1359 0590 8B040000 		.4byte	0x48b
 1360 0594 3C       		.byte	0x3c
 1361 0595 07       		.uleb128 0x7
 1362 0596 723400   		.ascii	"r4\000"
 1363 0599 09       		.byte	0x9
 1364 059a 1001     		.2byte	0x110
 1365 059c 8B040000 		.4byte	0x48b
 1366 05a0 40       		.byte	0x40
 1367 05a1 07       		.uleb128 0x7
 1368 05a2 723500   		.ascii	"r5\000"
ARM GAS  /var/folders/m4/4md61f0s1_g0rzfghffqnxvr0000gn/T//ccmihYiy.s 			page 25


 1369 05a5 09       		.byte	0x9
 1370 05a6 1101     		.2byte	0x111
 1371 05a8 8B040000 		.4byte	0x48b
 1372 05ac 44       		.byte	0x44
 1373 05ad 07       		.uleb128 0x7
 1374 05ae 723600   		.ascii	"r6\000"
 1375 05b1 09       		.byte	0x9
 1376 05b2 1201     		.2byte	0x112
 1377 05b4 8B040000 		.4byte	0x48b
 1378 05b8 48       		.byte	0x48
 1379 05b9 07       		.uleb128 0x7
 1380 05ba 723700   		.ascii	"r7\000"
 1381 05bd 09       		.byte	0x9
 1382 05be 1301     		.2byte	0x113
 1383 05c0 8B040000 		.4byte	0x48b
 1384 05c4 4C       		.byte	0x4c
 1385 05c5 07       		.uleb128 0x7
 1386 05c6 723800   		.ascii	"r8\000"
 1387 05c9 09       		.byte	0x9
 1388 05ca 1401     		.2byte	0x114
 1389 05cc 8B040000 		.4byte	0x48b
 1390 05d0 50       		.byte	0x50
 1391 05d1 07       		.uleb128 0x7
 1392 05d2 723900   		.ascii	"r9\000"
 1393 05d5 09       		.byte	0x9
 1394 05d6 1501     		.2byte	0x115
 1395 05d8 8B040000 		.4byte	0x48b
 1396 05dc 54       		.byte	0x54
 1397 05dd 07       		.uleb128 0x7
 1398 05de 72313000 		.ascii	"r10\000"
 1399 05e2 09       		.byte	0x9
 1400 05e3 1601     		.2byte	0x116
 1401 05e5 8B040000 		.4byte	0x48b
 1402 05e9 58       		.byte	0x58
 1403 05ea 07       		.uleb128 0x7
 1404 05eb 72313100 		.ascii	"r11\000"
 1405 05ef 09       		.byte	0x9
 1406 05f0 1701     		.2byte	0x117
 1407 05f2 8B040000 		.4byte	0x48b
 1408 05f6 5C       		.byte	0x5c
 1409 05f7 07       		.uleb128 0x7
 1410 05f8 6C7200   		.ascii	"lr\000"
 1411 05fb 09       		.byte	0x9
 1412 05fc 1801     		.2byte	0x118
 1413 05fe 8B040000 		.4byte	0x48b
 1414 0602 60       		.byte	0x60
 1415 0603 00       		.byte	0
 1416 0604 09       		.uleb128 0x9
 1417 0605 04       		.byte	0x4
 1418 0606 BA040000 		.4byte	0x4ba
 1419 060a 13       		.uleb128 0x13
 1420 060b 04       		.byte	0x4
 1421 060c 0A       		.byte	0xa
 1422 060d 38       		.byte	0x38
 1423 060e 1F060000 		.4byte	0x61f
 1424 0612 06       		.uleb128 0x6
 1425 0613 BF070000 		.4byte	.LASF86
ARM GAS  /var/folders/m4/4md61f0s1_g0rzfghffqnxvr0000gn/T//ccmihYiy.s 			page 26


 1426 0617 0A       		.byte	0xa
 1427 0618 3C       		.byte	0x3c
 1428 0619 C3000000 		.4byte	0xc3
 1429 061d 00       		.byte	0
 1430 061e 00       		.byte	0
 1431 061f 04       		.uleb128 0x4
 1432 0620 68050000 		.4byte	.LASF87
 1433 0624 0A       		.byte	0xa
 1434 0625 3D       		.byte	0x3d
 1435 0626 0A060000 		.4byte	0x60a
 1436 062a 14       		.uleb128 0x14
 1437 062b 04       		.byte	0x4
 1438 062c 07       		.byte	0x7
 1439 062d FA       		.byte	0xfa
 1440 062e 87060000 		.4byte	0x687
 1441 0632 15       		.uleb128 0x15
 1442 0633 60000000 		.4byte	.LASF88
 1443 0637 07       		.byte	0x7
 1444 0638 0101     		.2byte	0x101
 1445 063a 05010000 		.4byte	0x105
 1446 063e 15       		.uleb128 0x15
 1447 063f E4000000 		.4byte	.LASF89
 1448 0643 07       		.byte	0x7
 1449 0644 0801     		.2byte	0x108
 1450 0646 05010000 		.4byte	0x105
 1451 064a 15       		.uleb128 0x15
 1452 064b 77080000 		.4byte	.LASF90
 1453 064f 07       		.byte	0x7
 1454 0650 0F01     		.2byte	0x10f
 1455 0652 29030000 		.4byte	0x329
 1456 0656 15       		.uleb128 0x15
 1457 0657 5A000000 		.4byte	.LASF91
 1458 065b 07       		.byte	0x7
 1459 065c 1601     		.2byte	0x116
 1460 065e 87060000 		.4byte	0x687
 1461 0662 15       		.uleb128 0x15
 1462 0663 A2020000 		.4byte	.LASF92
 1463 0667 07       		.byte	0x7
 1464 0668 1E01     		.2byte	0x11e
 1465 066a B2060000 		.4byte	0x6b2
 1466 066e 15       		.uleb128 0x15
 1467 066f E5060000 		.4byte	.LASF93
 1468 0673 07       		.byte	0x7
 1469 0674 2701     		.2byte	0x127
 1470 0676 E9060000 		.4byte	0x6e9
 1471 067a 15       		.uleb128 0x15
 1472 067b 57060000 		.4byte	.LASF94
 1473 067f 07       		.byte	0x7
 1474 0680 2F01     		.2byte	0x12f
 1475 0682 10010000 		.4byte	0x110
 1476 0686 00       		.byte	0
 1477 0687 09       		.uleb128 0x9
 1478 0688 04       		.byte	0x4
 1479 0689 41020000 		.4byte	0x241
 1480 068d 05       		.uleb128 0x5
 1481 068e BD060000 		.4byte	.LASF95
 1482 0692 0C       		.byte	0xc
ARM GAS  /var/folders/m4/4md61f0s1_g0rzfghffqnxvr0000gn/T//ccmihYiy.s 			page 27


 1483 0693 0B       		.byte	0xb
 1484 0694 34       		.byte	0x34
 1485 0695 B2060000 		.4byte	0x6b2
 1486 0699 06       		.uleb128 0x6
 1487 069a 0E020000 		.4byte	.LASF96
 1488 069e 0B       		.byte	0xb
 1489 069f 35       		.byte	0x35
 1490 06a0 76020000 		.4byte	0x276
 1491 06a4 00       		.byte	0
 1492 06a5 06       		.uleb128 0x6
 1493 06a6 24060000 		.4byte	.LASF97
 1494 06aa 0B       		.byte	0xb
 1495 06ab 37       		.byte	0x37
 1496 06ac 1B010000 		.4byte	0x11b
 1497 06b0 08       		.byte	0x8
 1498 06b1 00       		.byte	0
 1499 06b2 09       		.uleb128 0x9
 1500 06b3 04       		.byte	0x4
 1501 06b4 8D060000 		.4byte	0x68d
 1502 06b8 05       		.uleb128 0x5
 1503 06b9 08080000 		.4byte	.LASF98
 1504 06bd 10       		.byte	0x10
 1505 06be 0C       		.byte	0xc
 1506 06bf 39       		.byte	0x39
 1507 06c0 E9060000 		.4byte	0x6e9
 1508 06c4 06       		.uleb128 0x6
 1509 06c5 0F060000 		.4byte	.LASF99
 1510 06c9 0C       		.byte	0xc
 1511 06ca 3A       		.byte	0x3a
 1512 06cb 76020000 		.4byte	0x276
 1513 06cf 00       		.byte	0
 1514 06d0 06       		.uleb128 0x6
 1515 06d1 BB080000 		.4byte	.LASF100
 1516 06d5 0C       		.byte	0xc
 1517 06d6 3C       		.byte	0x3c
 1518 06d7 4C020000 		.4byte	0x24c
 1519 06db 08       		.byte	0x8
 1520 06dc 06       		.uleb128 0x6
 1521 06dd 52070000 		.4byte	.LASF101
 1522 06e1 0C       		.byte	0xc
 1523 06e2 3E       		.byte	0x3e
 1524 06e3 2C070000 		.4byte	0x72c
 1525 06e7 0C       		.byte	0xc
 1526 06e8 00       		.byte	0
 1527 06e9 09       		.uleb128 0x9
 1528 06ea 04       		.byte	0x4
 1529 06eb B8060000 		.4byte	0x6b8
 1530 06ef 09       		.uleb128 0x9
 1531 06f0 04       		.byte	0x4
 1532 06f1 F5060000 		.4byte	0x6f5
 1533 06f5 16       		.uleb128 0x16
 1534 06f6 FA060000 		.4byte	0x6fa
 1535 06fa 03       		.uleb128 0x3
 1536 06fb 01       		.byte	0x1
 1537 06fc 08       		.byte	0x8
 1538 06fd 2E070000 		.4byte	.LASF102
 1539 0701 0F       		.uleb128 0xf
ARM GAS  /var/folders/m4/4md61f0s1_g0rzfghffqnxvr0000gn/T//ccmihYiy.s 			page 28


 1540 0702 26010000 		.4byte	0x126
 1541 0706 09       		.uleb128 0x9
 1542 0707 04       		.byte	0x4
 1543 0708 2B030000 		.4byte	0x32b
 1544 070c 0F       		.uleb128 0xf
 1545 070d EF060000 		.4byte	0x6ef
 1546 0711 10       		.uleb128 0x10
 1547 0712 96040000 		.4byte	0x496
 1548 0716 21070000 		.4byte	0x721
 1549 071a 11       		.uleb128 0x11
 1550 071b 5F040000 		.4byte	0x45f
 1551 071f 3A       		.byte	0x3a
 1552 0720 00       		.byte	0
 1553 0721 04       		.uleb128 0x4
 1554 0722 99030000 		.4byte	.LASF103
 1555 0726 0C       		.byte	0xc
 1556 0727 34       		.byte	0x34
 1557 0728 B8060000 		.4byte	0x6b8
 1558 072c 09       		.uleb128 0x9
 1559 072d 04       		.byte	0x4
 1560 072e 21070000 		.4byte	0x721
 1561 0732 03       		.uleb128 0x3
 1562 0733 01       		.byte	0x1
 1563 0734 02       		.byte	0x2
 1564 0735 F3050000 		.4byte	.LASF104
 1565 0739 17       		.uleb128 0x17
 1566 073a 01       		.byte	0x1
 1567 073b 0D       		.byte	0xd
 1568 073c 4A       		.byte	0x4a
 1569 073d 54070000 		.4byte	0x754
 1570 0741 18       		.uleb128 0x18
 1571 0742 B0080000 		.4byte	.LASF105
 1572 0746 00       		.sleb128 0
 1573 0747 18       		.uleb128 0x18
 1574 0748 25070000 		.4byte	.LASF106
 1575 074c 01       		.sleb128 1
 1576 074d 18       		.uleb128 0x18
 1577 074e 3C010000 		.4byte	.LASF107
 1578 0752 02       		.sleb128 2
 1579 0753 00       		.byte	0
 1580 0754 04       		.uleb128 0x4
 1581 0755 A1030000 		.4byte	.LASF108
 1582 0759 0D       		.byte	0xd
 1583 075a 4E       		.byte	0x4e
 1584 075b 39070000 		.4byte	0x739
 1585 075f 04       		.uleb128 0x4
 1586 0760 44080000 		.4byte	.LASF109
 1587 0764 0D       		.byte	0xd
 1588 0765 53       		.byte	0x53
 1589 0766 6A070000 		.4byte	0x76a
 1590 076a 0A       		.uleb128 0xa
 1591 076b 44080000 		.4byte	.LASF109
 1592 076f 1C       		.byte	0x1c
 1593 0770 0E       		.byte	0xe
 1594 0771 B301     		.2byte	0x1b3
 1595 0773 D3070000 		.4byte	0x7d3
 1596 0777 08       		.uleb128 0x8
ARM GAS  /var/folders/m4/4md61f0s1_g0rzfghffqnxvr0000gn/T//ccmihYiy.s 			page 29


 1597 0778 9D010000 		.4byte	.LASF110
 1598 077c 0E       		.byte	0xe
 1599 077d B701     		.2byte	0x1b7
 1600 077f 54070000 		.4byte	0x754
 1601 0783 00       		.byte	0
 1602 0784 08       		.uleb128 0x8
 1603 0785 38070000 		.4byte	.LASF111
 1604 0789 0E       		.byte	0xe
 1605 078a BB01     		.2byte	0x1bb
 1606 078c EB090000 		.4byte	0x9eb
 1607 0790 04       		.byte	0x4
 1608 0791 08       		.uleb128 0x8
 1609 0792 AE070000 		.4byte	.LASF112
 1610 0796 0E       		.byte	0xe
 1611 0797 BF01     		.2byte	0x1bf
 1612 0799 3B090000 		.4byte	0x93b
 1613 079d 08       		.byte	0x8
 1614 079e 08       		.uleb128 0x8
 1615 079f F4060000 		.4byte	.LASF113
 1616 07a3 0E       		.byte	0xe
 1617 07a4 C301     		.2byte	0x1c3
 1618 07a6 2F090000 		.4byte	0x92f
 1619 07aa 0C       		.byte	0xc
 1620 07ab 08       		.uleb128 0x8
 1621 07ac A3010000 		.4byte	.LASF114
 1622 07b0 0E       		.byte	0xe
 1623 07b1 C701     		.2byte	0x1c7
 1624 07b3 23090000 		.4byte	0x923
 1625 07b7 10       		.byte	0x10
 1626 07b8 08       		.uleb128 0x8
 1627 07b9 AA080000 		.4byte	.LASF115
 1628 07bd 0E       		.byte	0xe
 1629 07be CF01     		.2byte	0x1cf
 1630 07c0 AD000000 		.4byte	0xad
 1631 07c4 14       		.byte	0x14
 1632 07c5 07       		.uleb128 0x7
 1633 07c6 74696D00 		.ascii	"tim\000"
 1634 07ca 0E       		.byte	0xe
 1635 07cb D301     		.2byte	0x1d3
 1636 07cd F6090000 		.4byte	0x9f6
 1637 07d1 18       		.byte	0x18
 1638 07d2 00       		.byte	0
 1639 07d3 04       		.uleb128 0x4
 1640 07d4 F8010000 		.4byte	.LASF116
 1641 07d8 0D       		.byte	0xd
 1642 07d9 5A       		.byte	0x5a
 1643 07da DE070000 		.4byte	0x7de
 1644 07de 09       		.uleb128 0x9
 1645 07df 04       		.byte	0x4
 1646 07e0 E4070000 		.4byte	0x7e4
 1647 07e4 0B       		.uleb128 0xb
 1648 07e5 EF070000 		.4byte	0x7ef
 1649 07e9 0C       		.uleb128 0xc
 1650 07ea EF070000 		.4byte	0x7ef
 1651 07ee 00       		.byte	0
 1652 07ef 09       		.uleb128 0x9
 1653 07f0 04       		.byte	0x4
ARM GAS  /var/folders/m4/4md61f0s1_g0rzfghffqnxvr0000gn/T//ccmihYiy.s 			page 30


 1654 07f1 5F070000 		.4byte	0x75f
 1655 07f5 19       		.uleb128 0x19
 1656 07f6 60       		.byte	0x60
 1657 07f7 0F       		.byte	0xf
 1658 07f8 A101     		.2byte	0x1a1
 1659 07fa 01090000 		.4byte	0x901
 1660 07fe 07       		.uleb128 0x7
 1661 07ff 43523100 		.ascii	"CR1\000"
 1662 0803 0F       		.byte	0xf
 1663 0804 A201     		.2byte	0x1a2
 1664 0806 66040000 		.4byte	0x466
 1665 080a 00       		.byte	0
 1666 080b 07       		.uleb128 0x7
 1667 080c 43523200 		.ascii	"CR2\000"
 1668 0810 0F       		.byte	0xf
 1669 0811 A301     		.2byte	0x1a3
 1670 0813 66040000 		.4byte	0x466
 1671 0817 04       		.byte	0x4
 1672 0818 08       		.uleb128 0x8
 1673 0819 F2020000 		.4byte	.LASF117
 1674 081d 0F       		.byte	0xf
 1675 081e A401     		.2byte	0x1a4
 1676 0820 66040000 		.4byte	0x466
 1677 0824 08       		.byte	0x8
 1678 0825 08       		.uleb128 0x8
 1679 0826 55000000 		.4byte	.LASF118
 1680 082a 0F       		.byte	0xf
 1681 082b A501     		.2byte	0x1a5
 1682 082d 66040000 		.4byte	0x466
 1683 0831 0C       		.byte	0xc
 1684 0832 07       		.uleb128 0x7
 1685 0833 535200   		.ascii	"SR\000"
 1686 0836 0F       		.byte	0xf
 1687 0837 A601     		.2byte	0x1a6
 1688 0839 66040000 		.4byte	0x466
 1689 083d 10       		.byte	0x10
 1690 083e 07       		.uleb128 0x7
 1691 083f 45475200 		.ascii	"EGR\000"
 1692 0843 0F       		.byte	0xf
 1693 0844 A701     		.2byte	0x1a7
 1694 0846 66040000 		.4byte	0x466
 1695 084a 14       		.byte	0x14
 1696 084b 08       		.uleb128 0x8
 1697 084c 4F010000 		.4byte	.LASF119
 1698 0850 0F       		.byte	0xf
 1699 0851 A801     		.2byte	0x1a8
 1700 0853 66040000 		.4byte	0x466
 1701 0857 18       		.byte	0x18
 1702 0858 08       		.uleb128 0x8
 1703 0859 55010000 		.4byte	.LASF120
 1704 085d 0F       		.byte	0xf
 1705 085e A901     		.2byte	0x1a9
 1706 0860 66040000 		.4byte	0x466
 1707 0864 1C       		.byte	0x1c
 1708 0865 08       		.uleb128 0x8
 1709 0866 4D070000 		.4byte	.LASF121
 1710 086a 0F       		.byte	0xf
ARM GAS  /var/folders/m4/4md61f0s1_g0rzfghffqnxvr0000gn/T//ccmihYiy.s 			page 31


 1711 086b AA01     		.2byte	0x1aa
 1712 086d 66040000 		.4byte	0x466
 1713 0871 20       		.byte	0x20
 1714 0872 07       		.uleb128 0x7
 1715 0873 434E5400 		.ascii	"CNT\000"
 1716 0877 0F       		.byte	0xf
 1717 0878 AB01     		.2byte	0x1ab
 1718 087a 66040000 		.4byte	0x466
 1719 087e 24       		.byte	0x24
 1720 087f 07       		.uleb128 0x7
 1721 0880 50534300 		.ascii	"PSC\000"
 1722 0884 0F       		.byte	0xf
 1723 0885 AC01     		.2byte	0x1ac
 1724 0887 66040000 		.4byte	0x466
 1725 088b 28       		.byte	0x28
 1726 088c 07       		.uleb128 0x7
 1727 088d 41525200 		.ascii	"ARR\000"
 1728 0891 0F       		.byte	0xf
 1729 0892 AD01     		.2byte	0x1ad
 1730 0894 66040000 		.4byte	0x466
 1731 0898 2C       		.byte	0x2c
 1732 0899 07       		.uleb128 0x7
 1733 089a 52435200 		.ascii	"RCR\000"
 1734 089e 0F       		.byte	0xf
 1735 089f AE01     		.2byte	0x1ae
 1736 08a1 66040000 		.4byte	0x466
 1737 08a5 30       		.byte	0x30
 1738 08a6 07       		.uleb128 0x7
 1739 08a7 43435200 		.ascii	"CCR\000"
 1740 08ab 0F       		.byte	0xf
 1741 08ac AF01     		.2byte	0x1af
 1742 08ae 01090000 		.4byte	0x901
 1743 08b2 34       		.byte	0x34
 1744 08b3 08       		.uleb128 0x8
 1745 08b4 26010000 		.4byte	.LASF122
 1746 08b8 0F       		.byte	0xf
 1747 08b9 B001     		.2byte	0x1b0
 1748 08bb 66040000 		.4byte	0x466
 1749 08bf 44       		.byte	0x44
 1750 08c0 07       		.uleb128 0x7
 1751 08c1 44435200 		.ascii	"DCR\000"
 1752 08c5 0F       		.byte	0xf
 1753 08c6 B101     		.2byte	0x1b1
 1754 08c8 66040000 		.4byte	0x466
 1755 08cc 48       		.byte	0x48
 1756 08cd 08       		.uleb128 0x8
 1757 08ce 3F070000 		.4byte	.LASF123
 1758 08d2 0F       		.byte	0xf
 1759 08d3 B201     		.2byte	0x1b2
 1760 08d5 66040000 		.4byte	0x466
 1761 08d9 4C       		.byte	0x4c
 1762 08da 07       		.uleb128 0x7
 1763 08db 4F5200   		.ascii	"OR\000"
 1764 08de 0F       		.byte	0xf
 1765 08df B301     		.2byte	0x1b3
 1766 08e1 66040000 		.4byte	0x466
 1767 08e5 50       		.byte	0x50
ARM GAS  /var/folders/m4/4md61f0s1_g0rzfghffqnxvr0000gn/T//ccmihYiy.s 			page 32


 1768 08e6 08       		.uleb128 0x8
 1769 08e7 5B010000 		.4byte	.LASF124
 1770 08eb 0F       		.byte	0xf
 1771 08ec B401     		.2byte	0x1b4
 1772 08ee 66040000 		.4byte	0x466
 1773 08f2 54       		.byte	0x54
 1774 08f3 08       		.uleb128 0x8
 1775 08f4 CA060000 		.4byte	.LASF125
 1776 08f8 0F       		.byte	0xf
 1777 08f9 B501     		.2byte	0x1b5
 1778 08fb 06090000 		.4byte	0x906
 1779 08ff 58       		.byte	0x58
 1780 0900 00       		.byte	0
 1781 0901 0F       		.uleb128 0xf
 1782 0902 7B040000 		.4byte	0x47b
 1783 0906 0F       		.uleb128 0xf
 1784 0907 6B040000 		.4byte	0x46b
 1785 090b 1A       		.uleb128 0x1a
 1786 090c 34030000 		.4byte	.LASF126
 1787 0910 0F       		.byte	0xf
 1788 0911 B601     		.2byte	0x1b6
 1789 0913 F5070000 		.4byte	0x7f5
 1790 0917 1A       		.uleb128 0x1a
 1791 0918 7D010000 		.4byte	.LASF127
 1792 091c 0E       		.byte	0xe
 1793 091d 5F01     		.2byte	0x15f
 1794 091f AD000000 		.4byte	0xad
 1795 0923 1A       		.uleb128 0x1a
 1796 0924 3B000000 		.4byte	.LASF128
 1797 0928 0E       		.byte	0xe
 1798 0929 6401     		.2byte	0x164
 1799 092b 97000000 		.4byte	0x97
 1800 092f 1A       		.uleb128 0x1a
 1801 0930 65060000 		.4byte	.LASF129
 1802 0934 0E       		.byte	0xe
 1803 0935 6901     		.2byte	0x169
 1804 0937 AD000000 		.4byte	0xad
 1805 093b 1A       		.uleb128 0x1a
 1806 093c 6E080000 		.4byte	.LASF130
 1807 0940 0E       		.byte	0xe
 1808 0941 6E01     		.2byte	0x16e
 1809 0943 AD000000 		.4byte	0xad
 1810 0947 19       		.uleb128 0x19
 1811 0948 08       		.byte	0x8
 1812 0949 0E       		.byte	0xe
 1813 094a 7301     		.2byte	0x173
 1814 094c 6B090000 		.4byte	0x96b
 1815 0950 08       		.uleb128 0x8
 1816 0951 33070000 		.4byte	.LASF131
 1817 0955 0E       		.byte	0xe
 1818 0956 7701     		.2byte	0x177
 1819 0958 17090000 		.4byte	0x917
 1820 095c 00       		.byte	0
 1821 095d 08       		.uleb128 0x8
 1822 095e 2B030000 		.4byte	.LASF132
 1823 0962 0E       		.byte	0xe
 1824 0963 7D01     		.2byte	0x17d
ARM GAS  /var/folders/m4/4md61f0s1_g0rzfghffqnxvr0000gn/T//ccmihYiy.s 			page 33


 1825 0965 D3070000 		.4byte	0x7d3
 1826 0969 04       		.byte	0x4
 1827 096a 00       		.byte	0
 1828 096b 1A       		.uleb128 0x1a
 1829 096c CE070000 		.4byte	.LASF133
 1830 0970 0E       		.byte	0xe
 1831 0971 7F01     		.2byte	0x17f
 1832 0973 47090000 		.4byte	0x947
 1833 0977 19       		.uleb128 0x19
 1834 0978 34       		.byte	0x34
 1835 0979 0E       		.byte	0xe
 1836 097a 8401     		.2byte	0x184
 1837 097c CF090000 		.4byte	0x9cf
 1838 0980 08       		.uleb128 0x8
 1839 0981 2B010000 		.4byte	.LASF134
 1840 0985 0E       		.byte	0xe
 1841 0986 8A01     		.2byte	0x18a
 1842 0988 AD000000 		.4byte	0xad
 1843 098c 00       		.byte	0
 1844 098d 08       		.uleb128 0x8
 1845 098e AE070000 		.4byte	.LASF112
 1846 0992 0E       		.byte	0xe
 1847 0993 9001     		.2byte	0x190
 1848 0995 3B090000 		.4byte	0x93b
 1849 0999 04       		.byte	0x4
 1850 099a 08       		.uleb128 0x8
 1851 099b 2B030000 		.4byte	.LASF132
 1852 099f 0E       		.byte	0xe
 1853 09a0 9601     		.2byte	0x196
 1854 09a2 D3070000 		.4byte	0x7d3
 1855 09a6 08       		.byte	0x8
 1856 09a7 08       		.uleb128 0x8
 1857 09a8 A3010000 		.4byte	.LASF114
 1858 09ac 0E       		.byte	0xe
 1859 09ad 9A01     		.2byte	0x19a
 1860 09af CF090000 		.4byte	0x9cf
 1861 09b3 0C       		.byte	0xc
 1862 09b4 07       		.uleb128 0x7
 1863 09b5 63723200 		.ascii	"cr2\000"
 1864 09b9 0E       		.byte	0xe
 1865 09ba A001     		.2byte	0x1a0
 1866 09bc AD000000 		.4byte	0xad
 1867 09c0 2C       		.byte	0x2c
 1868 09c1 08       		.uleb128 0x8
 1869 09c2 E2080000 		.4byte	.LASF135
 1870 09c6 0E       		.byte	0xe
 1871 09c7 AD01     		.2byte	0x1ad
 1872 09c9 AD000000 		.4byte	0xad
 1873 09cd 30       		.byte	0x30
 1874 09ce 00       		.byte	0
 1875 09cf 10       		.uleb128 0x10
 1876 09d0 6B090000 		.4byte	0x96b
 1877 09d4 DF090000 		.4byte	0x9df
 1878 09d8 11       		.uleb128 0x11
 1879 09d9 5F040000 		.4byte	0x45f
 1880 09dd 03       		.byte	0x3
 1881 09de 00       		.byte	0
ARM GAS  /var/folders/m4/4md61f0s1_g0rzfghffqnxvr0000gn/T//ccmihYiy.s 			page 34


 1882 09df 1A       		.uleb128 0x1a
 1883 09e0 EE070000 		.4byte	.LASF136
 1884 09e4 0E       		.byte	0xe
 1885 09e5 AE01     		.2byte	0x1ae
 1886 09e7 77090000 		.4byte	0x977
 1887 09eb 09       		.uleb128 0x9
 1888 09ec 04       		.byte	0x4
 1889 09ed F1090000 		.4byte	0x9f1
 1890 09f1 16       		.uleb128 0x16
 1891 09f2 DF090000 		.4byte	0x9df
 1892 09f6 09       		.uleb128 0x9
 1893 09f7 04       		.byte	0x4
 1894 09f8 0B090000 		.4byte	0x90b
 1895 09fc 1B       		.uleb128 0x1b
 1896 09fd 82070000 		.4byte	.LASF140
 1897 0a01 02       		.byte	0x2
 1898 0a02 2202     		.2byte	0x222
 1899 0a04 03       		.byte	0x3
 1900 0a05 160A0000 		.4byte	0xa16
 1901 0a09 1C       		.uleb128 0x1c
 1902 0a0a 6B020000 		.4byte	.LASF170
 1903 0a0e 02       		.byte	0x2
 1904 0a0f 2202     		.2byte	0x222
 1905 0a11 AD000000 		.4byte	0xad
 1906 0a15 00       		.byte	0
 1907 0a16 1D       		.uleb128 0x1d
 1908 0a17 A6000000 		.4byte	.LASF137
 1909 0a1b 09       		.byte	0x9
 1910 0a1c C801     		.2byte	0x1c8
 1911 0a1e 03       		.byte	0x3
 1912 0a1f 1D       		.uleb128 0x1d
 1913 0a20 87010000 		.4byte	.LASF138
 1914 0a24 09       		.byte	0x9
 1915 0a25 E001     		.2byte	0x1e0
 1916 0a27 03       		.byte	0x3
 1917 0a28 1D       		.uleb128 0x1d
 1918 0a29 82060000 		.4byte	.LASF139
 1919 0a2d 10       		.byte	0x10
 1920 0a2e 5A01     		.2byte	0x15a
 1921 0a30 03       		.byte	0x3
 1922 0a31 1B       		.uleb128 0x1b
 1923 0a32 98080000 		.4byte	.LASF141
 1924 0a36 10       		.byte	0x10
 1925 0a37 6601     		.2byte	0x166
 1926 0a39 03       		.byte	0x3
 1927 0a3a 4C0A0000 		.4byte	0xa4c
 1928 0a3e 1E       		.uleb128 0x1e
 1929 0a3f 79060000 		.4byte	.LASF149
 1930 0a43 5C0A0000 		.4byte	0xa5c
 1931 0a47 98080000 		.4byte	.LASF141
 1932 0a4b 00       		.byte	0
 1933 0a4c 10       		.uleb128 0x10
 1934 0a4d FA060000 		.4byte	0x6fa
 1935 0a51 5C0A0000 		.4byte	0xa5c
 1936 0a55 11       		.uleb128 0x11
 1937 0a56 5F040000 		.4byte	0x45f
 1938 0a5a 0B       		.byte	0xb
ARM GAS  /var/folders/m4/4md61f0s1_g0rzfghffqnxvr0000gn/T//ccmihYiy.s 			page 35


 1939 0a5b 00       		.byte	0
 1940 0a5c 16       		.uleb128 0x16
 1941 0a5d 4C0A0000 		.4byte	0xa4c
 1942 0a61 1D       		.uleb128 0x1d
 1943 0a62 51020000 		.4byte	.LASF142
 1944 0a66 11       		.byte	0x11
 1945 0a67 EB01     		.2byte	0x1eb
 1946 0a69 03       		.byte	0x3
 1947 0a6a 1D       		.uleb128 0x1d
 1948 0a6b 96060000 		.4byte	.LASF143
 1949 0a6f 11       		.byte	0x11
 1950 0a70 F601     		.2byte	0x1f6
 1951 0a72 03       		.byte	0x3
 1952 0a73 1F       		.uleb128 0x1f
 1953 0a74 F0010000 		.4byte	.LASF144
 1954 0a78 01       		.byte	0x1
 1955 0a79 38       		.byte	0x38
 1956 0a7a 00000000 		.4byte	.LFB268
 1957 0a7e 04000000 		.4byte	.LFE268-.LFB268
 1958 0a82 01       		.uleb128 0x1
 1959 0a83 9C       		.byte	0x9c
 1960 0a84 920A0000 		.4byte	0xa92
 1961 0a88 20       		.uleb128 0x20
 1962 0a89 04000000 		.4byte	.LVL0
 1963 0a8d 07140000 		.4byte	0x1407
 1964 0a91 00       		.byte	0
 1965 0a92 1F       		.uleb128 0x1f
 1966 0a93 34050000 		.4byte	.LASF145
 1967 0a97 01       		.byte	0x1
 1968 0a98 44       		.byte	0x44
 1969 0a99 00000000 		.4byte	.LFB269
 1970 0a9d 0E000000 		.4byte	.LFE269-.LFB269
 1971 0aa1 01       		.uleb128 0x1
 1972 0aa2 9C       		.byte	0x9c
 1973 0aa3 B50A0000 		.4byte	0xab5
 1974 0aa7 21       		.uleb128 0x21
 1975 0aa8 89030000 		.4byte	.LASF147
 1976 0aac 01       		.byte	0x1
 1977 0aad 44       		.byte	0x44
 1978 0aae EF070000 		.4byte	0x7ef
 1979 0ab2 01       		.uleb128 0x1
 1980 0ab3 50       		.byte	0x50
 1981 0ab4 00       		.byte	0
 1982 0ab5 1F       		.uleb128 0x1f
 1983 0ab6 46010000 		.4byte	.LASF146
 1984 0aba 01       		.byte	0x1
 1985 0abb 59       		.byte	0x59
 1986 0abc 00000000 		.4byte	.LFB270
 1987 0ac0 22000000 		.4byte	.LFE270-.LFB270
 1988 0ac4 01       		.uleb128 0x1
 1989 0ac5 9C       		.byte	0x9c
 1990 0ac6 AB0B0000 		.4byte	0xbab
 1991 0aca 22       		.uleb128 0x22
 1992 0acb 89030000 		.4byte	.LASF147
 1993 0acf 01       		.byte	0x1
 1994 0ad0 59       		.byte	0x59
 1995 0ad1 EF070000 		.4byte	0x7ef
ARM GAS  /var/folders/m4/4md61f0s1_g0rzfghffqnxvr0000gn/T//ccmihYiy.s 			page 36


 1996 0ad5 00000000 		.4byte	.LLST0
 1997 0ad9 22       		.uleb128 0x22
 1998 0ada 38070000 		.4byte	.LASF111
 1999 0ade 01       		.byte	0x1
 2000 0adf 59       		.byte	0x59
 2001 0ae0 EB090000 		.4byte	0x9eb
 2002 0ae4 1E000000 		.4byte	.LLST1
 2003 0ae8 23       		.uleb128 0x23
 2004 0ae9 79060000 		.4byte	.LASF149
 2005 0aed BB0B0000 		.4byte	0xbbb
 2006 0af1 24       		.uleb128 0x24
 2007 0af2 610A0000 		.4byte	0xa61
 2008 0af6 02000000 		.4byte	.LBB141
 2009 0afa 00000000 		.4byte	.Ldebug_ranges0+0
 2010 0afe 01       		.byte	0x1
 2011 0aff 5D       		.byte	0x5d
 2012 0b00 3E0B0000 		.4byte	0xb3e
 2013 0b04 25       		.uleb128 0x25
 2014 0b05 280A0000 		.4byte	0xa28
 2015 0b09 02000000 		.4byte	.LBB142
 2016 0b0d 00000000 		.4byte	.Ldebug_ranges0+0
 2017 0b11 11       		.byte	0x11
 2018 0b12 ED01     		.2byte	0x1ed
 2019 0b14 25       		.uleb128 0x25
 2020 0b15 160A0000 		.4byte	0xa16
 2021 0b19 02000000 		.4byte	.LBB143
 2022 0b1d 00000000 		.4byte	.Ldebug_ranges0+0
 2023 0b21 10       		.byte	0x10
 2024 0b22 5C01     		.2byte	0x15c
 2025 0b24 25       		.uleb128 0x25
 2026 0b25 FC090000 		.4byte	0x9fc
 2027 0b29 02000000 		.4byte	.LBB144
 2028 0b2d 00000000 		.4byte	.Ldebug_ranges0+0
 2029 0b31 09       		.byte	0x9
 2030 0b32 D001     		.2byte	0x1d0
 2031 0b34 26       		.uleb128 0x26
 2032 0b35 090A0000 		.4byte	0xa09
 2033 0b39 20       		.byte	0x20
 2034 0b3a 00       		.byte	0
 2035 0b3b 00       		.byte	0
 2036 0b3c 00       		.byte	0
 2037 0b3d 00       		.byte	0
 2038 0b3e 27       		.uleb128 0x27
 2039 0b3f 6A0A0000 		.4byte	0xa6a
 2040 0b43 1C000000 		.4byte	.LBB151
 2041 0b47 06000000 		.4byte	.LBE151-.LBB151
 2042 0b4b 01       		.byte	0x1
 2043 0b4c 65       		.byte	0x65
 2044 0b4d 9A0B0000 		.4byte	0xb9a
 2045 0b51 28       		.uleb128 0x28
 2046 0b52 310A0000 		.4byte	0xa31
 2047 0b56 1C000000 		.4byte	.LBB152
 2048 0b5a 06000000 		.4byte	.LBE152-.LBB152
 2049 0b5e 11       		.byte	0x11
 2050 0b5f F801     		.2byte	0x1f8
 2051 0b61 29       		.uleb128 0x29
 2052 0b62 1C000000 		.4byte	.LBB153
ARM GAS  /var/folders/m4/4md61f0s1_g0rzfghffqnxvr0000gn/T//ccmihYiy.s 			page 37


 2053 0b66 06000000 		.4byte	.LBE153-.LBB153
 2054 0b6a 2A       		.uleb128 0x2a
 2055 0b6b 3E0A0000 		.4byte	0xa3e
 2056 0b6f 28       		.uleb128 0x28
 2057 0b70 1F0A0000 		.4byte	0xa1f
 2058 0b74 1C000000 		.4byte	.LBB154
 2059 0b78 06000000 		.4byte	.LBE154-.LBB154
 2060 0b7c 10       		.byte	0x10
 2061 0b7d 7301     		.2byte	0x173
 2062 0b7f 28       		.uleb128 0x28
 2063 0b80 FC090000 		.4byte	0x9fc
 2064 0b84 1C000000 		.4byte	.LBB155
 2065 0b88 06000000 		.4byte	.LBE155-.LBB155
 2066 0b8c 09       		.byte	0x9
 2067 0b8d E301     		.2byte	0x1e3
 2068 0b8f 26       		.uleb128 0x26
 2069 0b90 090A0000 		.4byte	0xa09
 2070 0b94 00       		.byte	0
 2071 0b95 00       		.byte	0
 2072 0b96 00       		.byte	0
 2073 0b97 00       		.byte	0
 2074 0b98 00       		.byte	0
 2075 0b99 00       		.byte	0
 2076 0b9a 2B       		.uleb128 0x2b
 2077 0b9b 14000000 		.4byte	.LVL3
 2078 0b9f 0F140000 		.4byte	0x140f
 2079 0ba3 2C       		.uleb128 0x2c
 2080 0ba4 01       		.uleb128 0x1
 2081 0ba5 50       		.byte	0x50
 2082 0ba6 02       		.uleb128 0x2
 2083 0ba7 74       		.byte	0x74
 2084 0ba8 00       		.sleb128 0
 2085 0ba9 00       		.byte	0
 2086 0baa 00       		.byte	0
 2087 0bab 10       		.uleb128 0x10
 2088 0bac FA060000 		.4byte	0x6fa
 2089 0bb0 BB0B0000 		.4byte	0xbbb
 2090 0bb4 11       		.uleb128 0x11
 2091 0bb5 5F040000 		.4byte	0x45f
 2092 0bb9 08       		.byte	0x8
 2093 0bba 00       		.byte	0
 2094 0bbb 16       		.uleb128 0x16
 2095 0bbc AB0B0000 		.4byte	0xbab
 2096 0bc0 1F       		.uleb128 0x1f
 2097 0bc1 DA040000 		.4byte	.LASF148
 2098 0bc5 01       		.byte	0x1
 2099 0bc6 6F       		.byte	0x6f
 2100 0bc7 00000000 		.4byte	.LFB271
 2101 0bcb 1C000000 		.4byte	.LFE271-.LFB271
 2102 0bcf 01       		.uleb128 0x1
 2103 0bd0 9C       		.byte	0x9c
 2104 0bd1 A70C0000 		.4byte	0xca7
 2105 0bd5 22       		.uleb128 0x22
 2106 0bd6 89030000 		.4byte	.LASF147
 2107 0bda 01       		.byte	0x1
 2108 0bdb 6F       		.byte	0x6f
 2109 0bdc EF070000 		.4byte	0x7ef
ARM GAS  /var/folders/m4/4md61f0s1_g0rzfghffqnxvr0000gn/T//ccmihYiy.s 			page 38


 2110 0be0 3F000000 		.4byte	.LLST2
 2111 0be4 23       		.uleb128 0x23
 2112 0be5 79060000 		.4byte	.LASF149
 2113 0be9 B70C0000 		.4byte	0xcb7
 2114 0bed 24       		.uleb128 0x24
 2115 0bee 610A0000 		.4byte	0xa61
 2116 0bf2 02000000 		.4byte	.LBB157
 2117 0bf6 18000000 		.4byte	.Ldebug_ranges0+0x18
 2118 0bfa 01       		.byte	0x1
 2119 0bfb 73       		.byte	0x73
 2120 0bfc 3A0C0000 		.4byte	0xc3a
 2121 0c00 25       		.uleb128 0x25
 2122 0c01 280A0000 		.4byte	0xa28
 2123 0c05 02000000 		.4byte	.LBB158
 2124 0c09 18000000 		.4byte	.Ldebug_ranges0+0x18
 2125 0c0d 11       		.byte	0x11
 2126 0c0e ED01     		.2byte	0x1ed
 2127 0c10 25       		.uleb128 0x25
 2128 0c11 160A0000 		.4byte	0xa16
 2129 0c15 02000000 		.4byte	.LBB159
 2130 0c19 18000000 		.4byte	.Ldebug_ranges0+0x18
 2131 0c1d 10       		.byte	0x10
 2132 0c1e 5C01     		.2byte	0x15c
 2133 0c20 25       		.uleb128 0x25
 2134 0c21 FC090000 		.4byte	0x9fc
 2135 0c25 02000000 		.4byte	.LBB160
 2136 0c29 18000000 		.4byte	.Ldebug_ranges0+0x18
 2137 0c2d 09       		.byte	0x9
 2138 0c2e D001     		.2byte	0x1d0
 2139 0c30 26       		.uleb128 0x26
 2140 0c31 090A0000 		.4byte	0xa09
 2141 0c35 20       		.byte	0x20
 2142 0c36 00       		.byte	0
 2143 0c37 00       		.byte	0
 2144 0c38 00       		.byte	0
 2145 0c39 00       		.byte	0
 2146 0c3a 27       		.uleb128 0x27
 2147 0c3b 6A0A0000 		.4byte	0xa6a
 2148 0c3f 16000000 		.4byte	.LBB167
 2149 0c43 06000000 		.4byte	.LBE167-.LBB167
 2150 0c47 01       		.byte	0x1
 2151 0c48 79       		.byte	0x79
 2152 0c49 960C0000 		.4byte	0xc96
 2153 0c4d 28       		.uleb128 0x28
 2154 0c4e 310A0000 		.4byte	0xa31
 2155 0c52 16000000 		.4byte	.LBB168
 2156 0c56 06000000 		.4byte	.LBE168-.LBB168
 2157 0c5a 11       		.byte	0x11
 2158 0c5b F801     		.2byte	0x1f8
 2159 0c5d 29       		.uleb128 0x29
 2160 0c5e 16000000 		.4byte	.LBB169
 2161 0c62 06000000 		.4byte	.LBE169-.LBB169
 2162 0c66 2A       		.uleb128 0x2a
 2163 0c67 3E0A0000 		.4byte	0xa3e
 2164 0c6b 28       		.uleb128 0x28
 2165 0c6c 1F0A0000 		.4byte	0xa1f
 2166 0c70 16000000 		.4byte	.LBB170
ARM GAS  /var/folders/m4/4md61f0s1_g0rzfghffqnxvr0000gn/T//ccmihYiy.s 			page 39


 2167 0c74 06000000 		.4byte	.LBE170-.LBB170
 2168 0c78 10       		.byte	0x10
 2169 0c79 7301     		.2byte	0x173
 2170 0c7b 28       		.uleb128 0x28
 2171 0c7c FC090000 		.4byte	0x9fc
 2172 0c80 16000000 		.4byte	.LBB171
 2173 0c84 06000000 		.4byte	.LBE171-.LBB171
 2174 0c88 09       		.byte	0x9
 2175 0c89 E301     		.2byte	0x1e3
 2176 0c8b 26       		.uleb128 0x26
 2177 0c8c 090A0000 		.4byte	0xa09
 2178 0c90 00       		.byte	0
 2179 0c91 00       		.byte	0
 2180 0c92 00       		.byte	0
 2181 0c93 00       		.byte	0
 2182 0c94 00       		.byte	0
 2183 0c95 00       		.byte	0
 2184 0c96 2B       		.uleb128 0x2b
 2185 0c97 0E000000 		.4byte	.LVL6
 2186 0c9b 21140000 		.4byte	0x1421
 2187 0c9f 2C       		.uleb128 0x2c
 2188 0ca0 01       		.uleb128 0x1
 2189 0ca1 50       		.byte	0x50
 2190 0ca2 02       		.uleb128 0x2
 2191 0ca3 74       		.byte	0x74
 2192 0ca4 00       		.sleb128 0
 2193 0ca5 00       		.byte	0
 2194 0ca6 00       		.byte	0
 2195 0ca7 10       		.uleb128 0x10
 2196 0ca8 FA060000 		.4byte	0x6fa
 2197 0cac B70C0000 		.4byte	0xcb7
 2198 0cb0 11       		.uleb128 0x11
 2199 0cb1 5F040000 		.4byte	0x45f
 2200 0cb5 07       		.byte	0x7
 2201 0cb6 00       		.byte	0
 2202 0cb7 16       		.uleb128 0x16
 2203 0cb8 A70C0000 		.4byte	0xca7
 2204 0cbc 1F       		.uleb128 0x1f
 2205 0cbd 6D010000 		.4byte	.LASF150
 2206 0cc1 01       		.byte	0x1
 2207 0cc2 8B       		.byte	0x8b
 2208 0cc3 00000000 		.4byte	.LFB272
 2209 0cc7 16000000 		.4byte	.LFE272-.LFB272
 2210 0ccb 01       		.uleb128 0x1
 2211 0ccc 9C       		.byte	0x9c
 2212 0ccd 9C0D0000 		.4byte	0xd9c
 2213 0cd1 21       		.uleb128 0x21
 2214 0cd2 89030000 		.4byte	.LASF147
 2215 0cd6 01       		.byte	0x1
 2216 0cd7 8B       		.byte	0x8b
 2217 0cd8 EF070000 		.4byte	0x7ef
 2218 0cdc 01       		.uleb128 0x1
 2219 0cdd 50       		.byte	0x50
 2220 0cde 22       		.uleb128 0x22
 2221 0cdf AE070000 		.4byte	.LASF112
 2222 0ce3 01       		.byte	0x1
 2223 0ce4 8B       		.byte	0x8b
ARM GAS  /var/folders/m4/4md61f0s1_g0rzfghffqnxvr0000gn/T//ccmihYiy.s 			page 40


 2224 0ce5 3B090000 		.4byte	0x93b
 2225 0ce9 5D000000 		.4byte	.LLST3
 2226 0ced 23       		.uleb128 0x23
 2227 0cee 79060000 		.4byte	.LASF149
 2228 0cf2 AC0D0000 		.4byte	0xdac
 2229 0cf6 27       		.uleb128 0x27
 2230 0cf7 610A0000 		.4byte	0xa61
 2231 0cfb 00000000 		.4byte	.LBB173
 2232 0cff 06000000 		.4byte	.LBE173-.LBB173
 2233 0d03 01       		.byte	0x1
 2234 0d04 8F       		.byte	0x8f
 2235 0d05 430D0000 		.4byte	0xd43
 2236 0d09 28       		.uleb128 0x28
 2237 0d0a 280A0000 		.4byte	0xa28
 2238 0d0e 00000000 		.4byte	.LBB174
 2239 0d12 06000000 		.4byte	.LBE174-.LBB174
 2240 0d16 11       		.byte	0x11
 2241 0d17 ED01     		.2byte	0x1ed
 2242 0d19 28       		.uleb128 0x28
 2243 0d1a 160A0000 		.4byte	0xa16
 2244 0d1e 00000000 		.4byte	.LBB175
 2245 0d22 06000000 		.4byte	.LBE175-.LBB175
 2246 0d26 10       		.byte	0x10
 2247 0d27 5C01     		.2byte	0x15c
 2248 0d29 28       		.uleb128 0x28
 2249 0d2a FC090000 		.4byte	0x9fc
 2250 0d2e 00000000 		.4byte	.LBB176
 2251 0d32 06000000 		.4byte	.LBE176-.LBB176
 2252 0d36 09       		.byte	0x9
 2253 0d37 D001     		.2byte	0x1d0
 2254 0d39 26       		.uleb128 0x26
 2255 0d3a 090A0000 		.4byte	0xa09
 2256 0d3e 20       		.byte	0x20
 2257 0d3f 00       		.byte	0
 2258 0d40 00       		.byte	0
 2259 0d41 00       		.byte	0
 2260 0d42 00       		.byte	0
 2261 0d43 2D       		.uleb128 0x2d
 2262 0d44 6A0A0000 		.4byte	0xa6a
 2263 0d48 0E000000 		.4byte	.LBB178
 2264 0d4c 08000000 		.4byte	.LBE178-.LBB178
 2265 0d50 01       		.byte	0x1
 2266 0d51 92       		.byte	0x92
 2267 0d52 28       		.uleb128 0x28
 2268 0d53 310A0000 		.4byte	0xa31
 2269 0d57 0E000000 		.4byte	.LBB179
 2270 0d5b 08000000 		.4byte	.LBE179-.LBB179
 2271 0d5f 11       		.byte	0x11
 2272 0d60 F801     		.2byte	0x1f8
 2273 0d62 29       		.uleb128 0x29
 2274 0d63 0E000000 		.4byte	.LBB180
 2275 0d67 08000000 		.4byte	.LBE180-.LBB180
 2276 0d6b 2A       		.uleb128 0x2a
 2277 0d6c 3E0A0000 		.4byte	0xa3e
 2278 0d70 28       		.uleb128 0x28
 2279 0d71 1F0A0000 		.4byte	0xa1f
 2280 0d75 0E000000 		.4byte	.LBB181
ARM GAS  /var/folders/m4/4md61f0s1_g0rzfghffqnxvr0000gn/T//ccmihYiy.s 			page 41


 2281 0d79 08000000 		.4byte	.LBE181-.LBB181
 2282 0d7d 10       		.byte	0x10
 2283 0d7e 7301     		.2byte	0x173
 2284 0d80 28       		.uleb128 0x28
 2285 0d81 FC090000 		.4byte	0x9fc
 2286 0d85 0E000000 		.4byte	.LBB182
 2287 0d89 08000000 		.4byte	.LBE182-.LBB182
 2288 0d8d 09       		.byte	0x9
 2289 0d8e E301     		.2byte	0x1e3
 2290 0d90 26       		.uleb128 0x26
 2291 0d91 090A0000 		.4byte	0xa09
 2292 0d95 00       		.byte	0
 2293 0d96 00       		.byte	0
 2294 0d97 00       		.byte	0
 2295 0d98 00       		.byte	0
 2296 0d99 00       		.byte	0
 2297 0d9a 00       		.byte	0
 2298 0d9b 00       		.byte	0
 2299 0d9c 10       		.uleb128 0x10
 2300 0d9d FA060000 		.4byte	0x6fa
 2301 0da1 AC0D0000 		.4byte	0xdac
 2302 0da5 11       		.uleb128 0x11
 2303 0da6 5F040000 		.4byte	0x45f
 2304 0daa 0F       		.byte	0xf
 2305 0dab 00       		.byte	0
 2306 0dac 16       		.uleb128 0x16
 2307 0dad 9C0D0000 		.4byte	0xd9c
 2308 0db1 1F       		.uleb128 0x1f
 2309 0db2 C3080000 		.4byte	.LASF151
 2310 0db6 01       		.byte	0x1
 2311 0db7 A3       		.byte	0xa3
 2312 0db8 00000000 		.4byte	.LFB273
 2313 0dbc 1E000000 		.4byte	.LFE273-.LFB273
 2314 0dc0 01       		.uleb128 0x1
 2315 0dc1 9C       		.byte	0x9c
 2316 0dc2 BE0E0000 		.4byte	0xebe
 2317 0dc6 22       		.uleb128 0x22
 2318 0dc7 89030000 		.4byte	.LASF147
 2319 0dcb 01       		.byte	0x1
 2320 0dcc A3       		.byte	0xa3
 2321 0dcd EF070000 		.4byte	0x7ef
 2322 0dd1 7C000000 		.4byte	.LLST4
 2323 0dd5 22       		.uleb128 0x22
 2324 0dd6 A4060000 		.4byte	.LASF152
 2325 0dda 01       		.byte	0x1
 2326 0ddb A4       		.byte	0xa4
 2327 0ddc 23090000 		.4byte	0x923
 2328 0de0 9D000000 		.4byte	.LLST5
 2329 0de4 22       		.uleb128 0x22
 2330 0de5 EC020000 		.4byte	.LASF153
 2331 0de9 01       		.byte	0x1
 2332 0dea A5       		.byte	0xa5
 2333 0deb 3B090000 		.4byte	0x93b
 2334 0def BE000000 		.4byte	.LLST6
 2335 0df3 23       		.uleb128 0x23
 2336 0df4 79060000 		.4byte	.LASF149
 2337 0df8 CE0E0000 		.4byte	0xece
ARM GAS  /var/folders/m4/4md61f0s1_g0rzfghffqnxvr0000gn/T//ccmihYiy.s 			page 42


 2338 0dfc 27       		.uleb128 0x27
 2339 0dfd 610A0000 		.4byte	0xa61
 2340 0e01 02000000 		.4byte	.LBB184
 2341 0e05 06000000 		.4byte	.LBE184-.LBB184
 2342 0e09 01       		.byte	0x1
 2343 0e0a A9       		.byte	0xa9
 2344 0e0b 490E0000 		.4byte	0xe49
 2345 0e0f 28       		.uleb128 0x28
 2346 0e10 280A0000 		.4byte	0xa28
 2347 0e14 02000000 		.4byte	.LBB185
 2348 0e18 06000000 		.4byte	.LBE185-.LBB185
 2349 0e1c 11       		.byte	0x11
 2350 0e1d ED01     		.2byte	0x1ed
 2351 0e1f 28       		.uleb128 0x28
 2352 0e20 160A0000 		.4byte	0xa16
 2353 0e24 02000000 		.4byte	.LBB186
 2354 0e28 06000000 		.4byte	.LBE186-.LBB186
 2355 0e2c 10       		.byte	0x10
 2356 0e2d 5C01     		.2byte	0x15c
 2357 0e2f 28       		.uleb128 0x28
 2358 0e30 FC090000 		.4byte	0x9fc
 2359 0e34 02000000 		.4byte	.LBB187
 2360 0e38 06000000 		.4byte	.LBE187-.LBB187
 2361 0e3c 09       		.byte	0x9
 2362 0e3d D001     		.2byte	0x1d0
 2363 0e3f 26       		.uleb128 0x26
 2364 0e40 090A0000 		.4byte	0xa09
 2365 0e44 20       		.byte	0x20
 2366 0e45 00       		.byte	0
 2367 0e46 00       		.byte	0
 2368 0e47 00       		.byte	0
 2369 0e48 00       		.byte	0
 2370 0e49 27       		.uleb128 0x27
 2371 0e4a 6A0A0000 		.4byte	0xa6a
 2372 0e4e 16000000 		.4byte	.LBB189
 2373 0e52 08000000 		.4byte	.LBE189-.LBB189
 2374 0e56 01       		.byte	0x1
 2375 0e57 AF       		.byte	0xaf
 2376 0e58 A50E0000 		.4byte	0xea5
 2377 0e5c 28       		.uleb128 0x28
 2378 0e5d 310A0000 		.4byte	0xa31
 2379 0e61 16000000 		.4byte	.LBB190
 2380 0e65 08000000 		.4byte	.LBE190-.LBB190
 2381 0e69 11       		.byte	0x11
 2382 0e6a F801     		.2byte	0x1f8
 2383 0e6c 29       		.uleb128 0x29
 2384 0e6d 16000000 		.4byte	.LBB191
 2385 0e71 08000000 		.4byte	.LBE191-.LBB191
 2386 0e75 2A       		.uleb128 0x2a
 2387 0e76 3E0A0000 		.4byte	0xa3e
 2388 0e7a 28       		.uleb128 0x28
 2389 0e7b 1F0A0000 		.4byte	0xa1f
 2390 0e7f 16000000 		.4byte	.LBB192
 2391 0e83 08000000 		.4byte	.LBE192-.LBB192
 2392 0e87 10       		.byte	0x10
 2393 0e88 7301     		.2byte	0x173
 2394 0e8a 28       		.uleb128 0x28
ARM GAS  /var/folders/m4/4md61f0s1_g0rzfghffqnxvr0000gn/T//ccmihYiy.s 			page 43


 2395 0e8b FC090000 		.4byte	0x9fc
 2396 0e8f 16000000 		.4byte	.LBB193
 2397 0e93 08000000 		.4byte	.LBE193-.LBB193
 2398 0e97 09       		.byte	0x9
 2399 0e98 E301     		.2byte	0x1e3
 2400 0e9a 26       		.uleb128 0x26
 2401 0e9b 090A0000 		.4byte	0xa09
 2402 0e9f 00       		.byte	0
 2403 0ea0 00       		.byte	0
 2404 0ea1 00       		.byte	0
 2405 0ea2 00       		.byte	0
 2406 0ea3 00       		.byte	0
 2407 0ea4 00       		.byte	0
 2408 0ea5 2B       		.uleb128 0x2b
 2409 0ea6 16000000 		.4byte	.LVL12
 2410 0eaa 33140000 		.4byte	0x1433
 2411 0eae 2C       		.uleb128 0x2c
 2412 0eaf 01       		.uleb128 0x1
 2413 0eb0 52       		.byte	0x52
 2414 0eb1 03       		.uleb128 0x3
 2415 0eb2 F3       		.byte	0xf3
 2416 0eb3 01       		.uleb128 0x1
 2417 0eb4 52       		.byte	0x52
 2418 0eb5 2C       		.uleb128 0x2c
 2419 0eb6 01       		.uleb128 0x1
 2420 0eb7 50       		.byte	0x50
 2421 0eb8 03       		.uleb128 0x3
 2422 0eb9 F3       		.byte	0xf3
 2423 0eba 01       		.uleb128 0x1
 2424 0ebb 50       		.byte	0x50
 2425 0ebc 00       		.byte	0
 2426 0ebd 00       		.byte	0
 2427 0ebe 10       		.uleb128 0x10
 2428 0ebf FA060000 		.4byte	0x6fa
 2429 0ec3 CE0E0000 		.4byte	0xece
 2430 0ec7 11       		.uleb128 0x11
 2431 0ec8 5F040000 		.4byte	0x45f
 2432 0ecc 10       		.byte	0x10
 2433 0ecd 00       		.byte	0
 2434 0ece 16       		.uleb128 0x16
 2435 0ecf BE0E0000 		.4byte	0xebe
 2436 0ed3 1F       		.uleb128 0x1f
 2437 0ed4 0D030000 		.4byte	.LASF154
 2438 0ed8 01       		.byte	0x1
 2439 0ed9 C0       		.byte	0xc0
 2440 0eda 00000000 		.4byte	.LFB274
 2441 0ede 20000000 		.4byte	.LFE274-.LFB274
 2442 0ee2 01       		.uleb128 0x1
 2443 0ee3 9C       		.byte	0x9c
 2444 0ee4 CA0F0000 		.4byte	0xfca
 2445 0ee8 22       		.uleb128 0x22
 2446 0ee9 89030000 		.4byte	.LASF147
 2447 0eed 01       		.byte	0x1
 2448 0eee C0       		.byte	0xc0
 2449 0eef EF070000 		.4byte	0x7ef
 2450 0ef3 DF000000 		.4byte	.LLST7
 2451 0ef7 22       		.uleb128 0x22
ARM GAS  /var/folders/m4/4md61f0s1_g0rzfghffqnxvr0000gn/T//ccmihYiy.s 			page 44


 2452 0ef8 A4060000 		.4byte	.LASF152
 2453 0efc 01       		.byte	0x1
 2454 0efd C0       		.byte	0xc0
 2455 0efe 23090000 		.4byte	0x923
 2456 0f02 00010000 		.4byte	.LLST8
 2457 0f06 23       		.uleb128 0x23
 2458 0f07 79060000 		.4byte	.LASF149
 2459 0f0b DA0F0000 		.4byte	0xfda
 2460 0f0f 27       		.uleb128 0x27
 2461 0f10 610A0000 		.4byte	0xa61
 2462 0f14 02000000 		.4byte	.LBB195
 2463 0f18 06000000 		.4byte	.LBE195-.LBB195
 2464 0f1c 01       		.byte	0x1
 2465 0f1d C4       		.byte	0xc4
 2466 0f1e 5C0F0000 		.4byte	0xf5c
 2467 0f22 28       		.uleb128 0x28
 2468 0f23 280A0000 		.4byte	0xa28
 2469 0f27 02000000 		.4byte	.LBB196
 2470 0f2b 06000000 		.4byte	.LBE196-.LBB196
 2471 0f2f 11       		.byte	0x11
 2472 0f30 ED01     		.2byte	0x1ed
 2473 0f32 28       		.uleb128 0x28
 2474 0f33 160A0000 		.4byte	0xa16
 2475 0f37 02000000 		.4byte	.LBB197
 2476 0f3b 06000000 		.4byte	.LBE197-.LBB197
 2477 0f3f 10       		.byte	0x10
 2478 0f40 5C01     		.2byte	0x15c
 2479 0f42 28       		.uleb128 0x28
 2480 0f43 FC090000 		.4byte	0x9fc
 2481 0f47 02000000 		.4byte	.LBB198
 2482 0f4b 06000000 		.4byte	.LBE198-.LBB198
 2483 0f4f 09       		.byte	0x9
 2484 0f50 D001     		.2byte	0x1d0
 2485 0f52 26       		.uleb128 0x26
 2486 0f53 090A0000 		.4byte	0xa09
 2487 0f57 20       		.byte	0x20
 2488 0f58 00       		.byte	0
 2489 0f59 00       		.byte	0
 2490 0f5a 00       		.byte	0
 2491 0f5b 00       		.byte	0
 2492 0f5c 27       		.uleb128 0x27
 2493 0f5d 6A0A0000 		.4byte	0xa6a
 2494 0f61 18000000 		.4byte	.LBB200
 2495 0f65 08000000 		.4byte	.LBE200-.LBB200
 2496 0f69 01       		.byte	0x1
 2497 0f6a CA       		.byte	0xca
 2498 0f6b B80F0000 		.4byte	0xfb8
 2499 0f6f 28       		.uleb128 0x28
 2500 0f70 310A0000 		.4byte	0xa31
 2501 0f74 18000000 		.4byte	.LBB201
 2502 0f78 08000000 		.4byte	.LBE201-.LBB201
 2503 0f7c 11       		.byte	0x11
 2504 0f7d F801     		.2byte	0x1f8
 2505 0f7f 29       		.uleb128 0x29
 2506 0f80 18000000 		.4byte	.LBB202
 2507 0f84 08000000 		.4byte	.LBE202-.LBB202
 2508 0f88 2A       		.uleb128 0x2a
ARM GAS  /var/folders/m4/4md61f0s1_g0rzfghffqnxvr0000gn/T//ccmihYiy.s 			page 45


 2509 0f89 3E0A0000 		.4byte	0xa3e
 2510 0f8d 28       		.uleb128 0x28
 2511 0f8e 1F0A0000 		.4byte	0xa1f
 2512 0f92 18000000 		.4byte	.LBB203
 2513 0f96 08000000 		.4byte	.LBE203-.LBB203
 2514 0f9a 10       		.byte	0x10
 2515 0f9b 7301     		.2byte	0x173
 2516 0f9d 28       		.uleb128 0x28
 2517 0f9e FC090000 		.4byte	0x9fc
 2518 0fa2 18000000 		.4byte	.LBB204
 2519 0fa6 08000000 		.4byte	.LBE204-.LBB204
 2520 0faa 09       		.byte	0x9
 2521 0fab E301     		.2byte	0x1e3
 2522 0fad 26       		.uleb128 0x26
 2523 0fae 090A0000 		.4byte	0xa09
 2524 0fb2 00       		.byte	0
 2525 0fb3 00       		.byte	0
 2526 0fb4 00       		.byte	0
 2527 0fb5 00       		.byte	0
 2528 0fb6 00       		.byte	0
 2529 0fb7 00       		.byte	0
 2530 0fb8 2B       		.uleb128 0x2b
 2531 0fb9 18000000 		.4byte	.LVL14
 2532 0fbd 4F140000 		.4byte	0x144f
 2533 0fc1 2C       		.uleb128 0x2c
 2534 0fc2 01       		.uleb128 0x1
 2535 0fc3 50       		.byte	0x50
 2536 0fc4 03       		.uleb128 0x3
 2537 0fc5 F3       		.byte	0xf3
 2538 0fc6 01       		.uleb128 0x1
 2539 0fc7 50       		.byte	0x50
 2540 0fc8 00       		.byte	0
 2541 0fc9 00       		.byte	0
 2542 0fca 10       		.uleb128 0x10
 2543 0fcb FA060000 		.4byte	0x6fa
 2544 0fcf DA0F0000 		.4byte	0xfda
 2545 0fd3 11       		.uleb128 0x11
 2546 0fd4 5F040000 		.4byte	0x45f
 2547 0fd8 11       		.byte	0x11
 2548 0fd9 00       		.byte	0
 2549 0fda 16       		.uleb128 0x16
 2550 0fdb CA0F0000 		.4byte	0xfca
 2551 0fdf 1F       		.uleb128 0x1f
 2552 0fe0 90070000 		.4byte	.LASF155
 2553 0fe4 01       		.byte	0x1
 2554 0fe5 D6       		.byte	0xd6
 2555 0fe6 00000000 		.4byte	.LFB275
 2556 0fea 14000000 		.4byte	.LFE275-.LFB275
 2557 0fee 01       		.uleb128 0x1
 2558 0fef 9C       		.byte	0x9c
 2559 0ff0 C7100000 		.4byte	0x10c7
 2560 0ff4 22       		.uleb128 0x22
 2561 0ff5 89030000 		.4byte	.LASF147
 2562 0ff9 01       		.byte	0x1
 2563 0ffa D6       		.byte	0xd6
 2564 0ffb EF070000 		.4byte	0x7ef
 2565 0fff 21010000 		.4byte	.LLST9
ARM GAS  /var/folders/m4/4md61f0s1_g0rzfghffqnxvr0000gn/T//ccmihYiy.s 			page 46


 2566 1003 23       		.uleb128 0x23
 2567 1004 79060000 		.4byte	.LASF149
 2568 1008 D7100000 		.4byte	0x10d7
 2569 100c 27       		.uleb128 0x27
 2570 100d 610A0000 		.4byte	0xa61
 2571 1011 02000000 		.4byte	.LBB206
 2572 1015 06000000 		.4byte	.LBE206-.LBB206
 2573 1019 01       		.byte	0x1
 2574 101a DA       		.byte	0xda
 2575 101b 59100000 		.4byte	0x1059
 2576 101f 28       		.uleb128 0x28
 2577 1020 280A0000 		.4byte	0xa28
 2578 1024 02000000 		.4byte	.LBB207
 2579 1028 06000000 		.4byte	.LBE207-.LBB207
 2580 102c 11       		.byte	0x11
 2581 102d ED01     		.2byte	0x1ed
 2582 102f 28       		.uleb128 0x28
 2583 1030 160A0000 		.4byte	0xa16
 2584 1034 02000000 		.4byte	.LBB208
 2585 1038 06000000 		.4byte	.LBE208-.LBB208
 2586 103c 10       		.byte	0x10
 2587 103d 5C01     		.2byte	0x15c
 2588 103f 28       		.uleb128 0x28
 2589 1040 FC090000 		.4byte	0x9fc
 2590 1044 02000000 		.4byte	.LBB209
 2591 1048 06000000 		.4byte	.LBE209-.LBB209
 2592 104c 09       		.byte	0x9
 2593 104d D001     		.2byte	0x1d0
 2594 104f 26       		.uleb128 0x26
 2595 1050 090A0000 		.4byte	0xa09
 2596 1054 20       		.byte	0x20
 2597 1055 00       		.byte	0
 2598 1056 00       		.byte	0
 2599 1057 00       		.byte	0
 2600 1058 00       		.byte	0
 2601 1059 27       		.uleb128 0x27
 2602 105a 6A0A0000 		.4byte	0xa6a
 2603 105e 0C000000 		.4byte	.LBB211
 2604 1062 08000000 		.4byte	.LBE211-.LBB211
 2605 1066 01       		.byte	0x1
 2606 1067 E1       		.byte	0xe1
 2607 1068 B5100000 		.4byte	0x10b5
 2608 106c 28       		.uleb128 0x28
 2609 106d 310A0000 		.4byte	0xa31
 2610 1071 0C000000 		.4byte	.LBB212
 2611 1075 08000000 		.4byte	.LBE212-.LBB212
 2612 1079 11       		.byte	0x11
 2613 107a F801     		.2byte	0x1f8
 2614 107c 29       		.uleb128 0x29
 2615 107d 0C000000 		.4byte	.LBB213
 2616 1081 08000000 		.4byte	.LBE213-.LBB213
 2617 1085 2A       		.uleb128 0x2a
 2618 1086 3E0A0000 		.4byte	0xa3e
 2619 108a 28       		.uleb128 0x28
 2620 108b 1F0A0000 		.4byte	0xa1f
 2621 108f 0C000000 		.4byte	.LBB214
 2622 1093 08000000 		.4byte	.LBE214-.LBB214
ARM GAS  /var/folders/m4/4md61f0s1_g0rzfghffqnxvr0000gn/T//ccmihYiy.s 			page 47


 2623 1097 10       		.byte	0x10
 2624 1098 7301     		.2byte	0x173
 2625 109a 28       		.uleb128 0x28
 2626 109b FC090000 		.4byte	0x9fc
 2627 109f 0C000000 		.4byte	.LBB215
 2628 10a3 08000000 		.4byte	.LBE215-.LBB215
 2629 10a7 09       		.byte	0x9
 2630 10a8 E301     		.2byte	0x1e3
 2631 10aa 26       		.uleb128 0x26
 2632 10ab 090A0000 		.4byte	0xa09
 2633 10af 00       		.byte	0
 2634 10b0 00       		.byte	0
 2635 10b1 00       		.byte	0
 2636 10b2 00       		.byte	0
 2637 10b3 00       		.byte	0
 2638 10b4 00       		.byte	0
 2639 10b5 2B       		.uleb128 0x2b
 2640 10b6 0C000000 		.4byte	.LVL16
 2641 10ba 66140000 		.4byte	0x1466
 2642 10be 2C       		.uleb128 0x2c
 2643 10bf 01       		.uleb128 0x1
 2644 10c0 50       		.byte	0x50
 2645 10c1 03       		.uleb128 0x3
 2646 10c2 F3       		.byte	0xf3
 2647 10c3 01       		.uleb128 0x1
 2648 10c4 50       		.byte	0x50
 2649 10c5 00       		.byte	0
 2650 10c6 00       		.byte	0
 2651 10c7 10       		.uleb128 0x10
 2652 10c8 FA060000 		.4byte	0x6fa
 2653 10cc D7100000 		.4byte	0x10d7
 2654 10d0 11       		.uleb128 0x11
 2655 10d1 5F040000 		.4byte	0x45f
 2656 10d5 1D       		.byte	0x1d
 2657 10d6 00       		.byte	0
 2658 10d7 16       		.uleb128 0x16
 2659 10d8 C7100000 		.4byte	0x10c7
 2660 10dc 1F       		.uleb128 0x1f
 2661 10dd 15050000 		.4byte	.LASF156
 2662 10e1 01       		.byte	0x1
 2663 10e2 ED       		.byte	0xed
 2664 10e3 00000000 		.4byte	.LFB276
 2665 10e7 14000000 		.4byte	.LFE276-.LFB276
 2666 10eb 01       		.uleb128 0x1
 2667 10ec 9C       		.byte	0x9c
 2668 10ed C4110000 		.4byte	0x11c4
 2669 10f1 22       		.uleb128 0x22
 2670 10f2 89030000 		.4byte	.LASF147
 2671 10f6 01       		.byte	0x1
 2672 10f7 ED       		.byte	0xed
 2673 10f8 EF070000 		.4byte	0x7ef
 2674 10fc 42010000 		.4byte	.LLST10
 2675 1100 23       		.uleb128 0x23
 2676 1101 79060000 		.4byte	.LASF149
 2677 1105 D4110000 		.4byte	0x11d4
 2678 1109 27       		.uleb128 0x27
 2679 110a 610A0000 		.4byte	0xa61
ARM GAS  /var/folders/m4/4md61f0s1_g0rzfghffqnxvr0000gn/T//ccmihYiy.s 			page 48


 2680 110e 02000000 		.4byte	.LBB217
 2681 1112 06000000 		.4byte	.LBE217-.LBB217
 2682 1116 01       		.byte	0x1
 2683 1117 F1       		.byte	0xf1
 2684 1118 56110000 		.4byte	0x1156
 2685 111c 28       		.uleb128 0x28
 2686 111d 280A0000 		.4byte	0xa28
 2687 1121 02000000 		.4byte	.LBB218
 2688 1125 06000000 		.4byte	.LBE218-.LBB218
 2689 1129 11       		.byte	0x11
 2690 112a ED01     		.2byte	0x1ed
 2691 112c 28       		.uleb128 0x28
 2692 112d 160A0000 		.4byte	0xa16
 2693 1131 02000000 		.4byte	.LBB219
 2694 1135 06000000 		.4byte	.LBE219-.LBB219
 2695 1139 10       		.byte	0x10
 2696 113a 5C01     		.2byte	0x15c
 2697 113c 28       		.uleb128 0x28
 2698 113d FC090000 		.4byte	0x9fc
 2699 1141 02000000 		.4byte	.LBB220
 2700 1145 06000000 		.4byte	.LBE220-.LBB220
 2701 1149 09       		.byte	0x9
 2702 114a D001     		.2byte	0x1d0
 2703 114c 26       		.uleb128 0x26
 2704 114d 090A0000 		.4byte	0xa09
 2705 1151 20       		.byte	0x20
 2706 1152 00       		.byte	0
 2707 1153 00       		.byte	0
 2708 1154 00       		.byte	0
 2709 1155 00       		.byte	0
 2710 1156 27       		.uleb128 0x27
 2711 1157 6A0A0000 		.4byte	0xa6a
 2712 115b 0C000000 		.4byte	.LBB222
 2713 115f 08000000 		.4byte	.LBE222-.LBB222
 2714 1163 01       		.byte	0x1
 2715 1164 F8       		.byte	0xf8
 2716 1165 B2110000 		.4byte	0x11b2
 2717 1169 28       		.uleb128 0x28
 2718 116a 310A0000 		.4byte	0xa31
 2719 116e 0C000000 		.4byte	.LBB223
 2720 1172 08000000 		.4byte	.LBE223-.LBB223
 2721 1176 11       		.byte	0x11
 2722 1177 F801     		.2byte	0x1f8
 2723 1179 29       		.uleb128 0x29
 2724 117a 0C000000 		.4byte	.LBB224
 2725 117e 08000000 		.4byte	.LBE224-.LBB224
 2726 1182 2A       		.uleb128 0x2a
 2727 1183 3E0A0000 		.4byte	0xa3e
 2728 1187 28       		.uleb128 0x28
 2729 1188 1F0A0000 		.4byte	0xa1f
 2730 118c 0C000000 		.4byte	.LBB225
 2731 1190 08000000 		.4byte	.LBE225-.LBB225
 2732 1194 10       		.byte	0x10
 2733 1195 7301     		.2byte	0x173
 2734 1197 28       		.uleb128 0x28
 2735 1198 FC090000 		.4byte	0x9fc
 2736 119c 0C000000 		.4byte	.LBB226
ARM GAS  /var/folders/m4/4md61f0s1_g0rzfghffqnxvr0000gn/T//ccmihYiy.s 			page 49


 2737 11a0 08000000 		.4byte	.LBE226-.LBB226
 2738 11a4 09       		.byte	0x9
 2739 11a5 E301     		.2byte	0x1e3
 2740 11a7 26       		.uleb128 0x26
 2741 11a8 090A0000 		.4byte	0xa09
 2742 11ac 00       		.byte	0
 2743 11ad 00       		.byte	0
 2744 11ae 00       		.byte	0
 2745 11af 00       		.byte	0
 2746 11b0 00       		.byte	0
 2747 11b1 00       		.byte	0
 2748 11b2 2B       		.uleb128 0x2b
 2749 11b3 0C000000 		.4byte	.LVL18
 2750 11b7 78140000 		.4byte	0x1478
 2751 11bb 2C       		.uleb128 0x2c
 2752 11bc 01       		.uleb128 0x1
 2753 11bd 50       		.byte	0x50
 2754 11be 03       		.uleb128 0x3
 2755 11bf F3       		.byte	0xf3
 2756 11c0 01       		.uleb128 0x1
 2757 11c1 50       		.byte	0x50
 2758 11c2 00       		.byte	0
 2759 11c3 00       		.byte	0
 2760 11c4 10       		.uleb128 0x10
 2761 11c5 FA060000 		.4byte	0x6fa
 2762 11c9 D4110000 		.4byte	0x11d4
 2763 11cd 11       		.uleb128 0x11
 2764 11ce 5F040000 		.4byte	0x45f
 2765 11d2 1E       		.byte	0x1e
 2766 11d3 00       		.byte	0
 2767 11d4 16       		.uleb128 0x16
 2768 11d5 C4110000 		.4byte	0x11c4
 2769 11d9 2E       		.uleb128 0x2e
 2770 11da B0000000 		.4byte	.LASF157
 2771 11de 01       		.byte	0x1
 2772 11df 0601     		.2byte	0x106
 2773 11e1 00000000 		.4byte	.LFB277
 2774 11e5 14000000 		.4byte	.LFE277-.LFB277
 2775 11e9 01       		.uleb128 0x1
 2776 11ea 9C       		.byte	0x9c
 2777 11eb D5120000 		.4byte	0x12d5
 2778 11ef 2F       		.uleb128 0x2f
 2779 11f0 89030000 		.4byte	.LASF147
 2780 11f4 01       		.byte	0x1
 2781 11f5 0601     		.2byte	0x106
 2782 11f7 EF070000 		.4byte	0x7ef
 2783 11fb 63010000 		.4byte	.LLST11
 2784 11ff 2F       		.uleb128 0x2f
 2785 1200 A4060000 		.4byte	.LASF152
 2786 1204 01       		.byte	0x1
 2787 1205 0601     		.2byte	0x106
 2788 1207 23090000 		.4byte	0x923
 2789 120b 84010000 		.4byte	.LLST12
 2790 120f 23       		.uleb128 0x23
 2791 1210 79060000 		.4byte	.LASF149
 2792 1214 E5120000 		.4byte	0x12e5
 2793 1218 30       		.uleb128 0x30
ARM GAS  /var/folders/m4/4md61f0s1_g0rzfghffqnxvr0000gn/T//ccmihYiy.s 			page 50


 2794 1219 610A0000 		.4byte	0xa61
 2795 121d 02000000 		.4byte	.LBB228
 2796 1221 06000000 		.4byte	.LBE228-.LBB228
 2797 1225 01       		.byte	0x1
 2798 1226 0A01     		.2byte	0x10a
 2799 1228 66120000 		.4byte	0x1266
 2800 122c 28       		.uleb128 0x28
 2801 122d 280A0000 		.4byte	0xa28
 2802 1231 02000000 		.4byte	.LBB229
 2803 1235 06000000 		.4byte	.LBE229-.LBB229
 2804 1239 11       		.byte	0x11
 2805 123a ED01     		.2byte	0x1ed
 2806 123c 28       		.uleb128 0x28
 2807 123d 160A0000 		.4byte	0xa16
 2808 1241 02000000 		.4byte	.LBB230
 2809 1245 06000000 		.4byte	.LBE230-.LBB230
 2810 1249 10       		.byte	0x10
 2811 124a 5C01     		.2byte	0x15c
 2812 124c 28       		.uleb128 0x28
 2813 124d FC090000 		.4byte	0x9fc
 2814 1251 02000000 		.4byte	.LBB231
 2815 1255 06000000 		.4byte	.LBE231-.LBB231
 2816 1259 09       		.byte	0x9
 2817 125a D001     		.2byte	0x1d0
 2818 125c 26       		.uleb128 0x26
 2819 125d 090A0000 		.4byte	0xa09
 2820 1261 20       		.byte	0x20
 2821 1262 00       		.byte	0
 2822 1263 00       		.byte	0
 2823 1264 00       		.byte	0
 2824 1265 00       		.byte	0
 2825 1266 30       		.uleb128 0x30
 2826 1267 6A0A0000 		.4byte	0xa6a
 2827 126b 0C000000 		.4byte	.LBB233
 2828 126f 08000000 		.4byte	.LBE233-.LBB233
 2829 1273 01       		.byte	0x1
 2830 1274 1401     		.2byte	0x114
 2831 1276 C3120000 		.4byte	0x12c3
 2832 127a 28       		.uleb128 0x28
 2833 127b 310A0000 		.4byte	0xa31
 2834 127f 0C000000 		.4byte	.LBB234
 2835 1283 08000000 		.4byte	.LBE234-.LBB234
 2836 1287 11       		.byte	0x11
 2837 1288 F801     		.2byte	0x1f8
 2838 128a 29       		.uleb128 0x29
 2839 128b 0C000000 		.4byte	.LBB235
 2840 128f 08000000 		.4byte	.LBE235-.LBB235
 2841 1293 2A       		.uleb128 0x2a
 2842 1294 3E0A0000 		.4byte	0xa3e
 2843 1298 28       		.uleb128 0x28
 2844 1299 1F0A0000 		.4byte	0xa1f
 2845 129d 0C000000 		.4byte	.LBB236
 2846 12a1 08000000 		.4byte	.LBE236-.LBB236
 2847 12a5 10       		.byte	0x10
 2848 12a6 7301     		.2byte	0x173
 2849 12a8 28       		.uleb128 0x28
 2850 12a9 FC090000 		.4byte	0x9fc
ARM GAS  /var/folders/m4/4md61f0s1_g0rzfghffqnxvr0000gn/T//ccmihYiy.s 			page 51


 2851 12ad 0C000000 		.4byte	.LBB237
 2852 12b1 08000000 		.4byte	.LBE237-.LBB237
 2853 12b5 09       		.byte	0x9
 2854 12b6 E301     		.2byte	0x1e3
 2855 12b8 26       		.uleb128 0x26
 2856 12b9 090A0000 		.4byte	0xa09
 2857 12bd 00       		.byte	0
 2858 12be 00       		.byte	0
 2859 12bf 00       		.byte	0
 2860 12c0 00       		.byte	0
 2861 12c1 00       		.byte	0
 2862 12c2 00       		.byte	0
 2863 12c3 2B       		.uleb128 0x2b
 2864 12c4 0C000000 		.4byte	.LVL20
 2865 12c8 8A140000 		.4byte	0x148a
 2866 12cc 2C       		.uleb128 0x2c
 2867 12cd 01       		.uleb128 0x1
 2868 12ce 50       		.byte	0x50
 2869 12cf 03       		.uleb128 0x3
 2870 12d0 F3       		.byte	0xf3
 2871 12d1 01       		.uleb128 0x1
 2872 12d2 50       		.byte	0x50
 2873 12d3 00       		.byte	0
 2874 12d4 00       		.byte	0
 2875 12d5 10       		.uleb128 0x10
 2876 12d6 FA060000 		.4byte	0x6fa
 2877 12da E5120000 		.4byte	0x12e5
 2878 12de 11       		.uleb128 0x11
 2879 12df 5F040000 		.4byte	0x45f
 2880 12e3 1C       		.byte	0x1c
 2881 12e4 00       		.byte	0
 2882 12e5 16       		.uleb128 0x16
 2883 12e6 D5120000 		.4byte	0x12d5
 2884 12ea 2E       		.uleb128 0x2e
 2885 12eb 26080000 		.4byte	.LASF158
 2886 12ef 01       		.byte	0x1
 2887 12f0 2201     		.2byte	0x122
 2888 12f2 00000000 		.4byte	.LFB278
 2889 12f6 14000000 		.4byte	.LFE278-.LFB278
 2890 12fa 01       		.uleb128 0x1
 2891 12fb 9C       		.byte	0x9c
 2892 12fc E6130000 		.4byte	0x13e6
 2893 1300 2F       		.uleb128 0x2f
 2894 1301 89030000 		.4byte	.LASF147
 2895 1305 01       		.byte	0x1
 2896 1306 2201     		.2byte	0x122
 2897 1308 EF070000 		.4byte	0x7ef
 2898 130c A5010000 		.4byte	.LLST13
 2899 1310 2F       		.uleb128 0x2f
 2900 1311 A4060000 		.4byte	.LASF152
 2901 1315 01       		.byte	0x1
 2902 1316 2201     		.2byte	0x122
 2903 1318 23090000 		.4byte	0x923
 2904 131c C6010000 		.4byte	.LLST14
 2905 1320 23       		.uleb128 0x23
 2906 1321 79060000 		.4byte	.LASF149
 2907 1325 E6130000 		.4byte	0x13e6
ARM GAS  /var/folders/m4/4md61f0s1_g0rzfghffqnxvr0000gn/T//ccmihYiy.s 			page 52


 2908 1329 30       		.uleb128 0x30
 2909 132a 610A0000 		.4byte	0xa61
 2910 132e 02000000 		.4byte	.LBB239
 2911 1332 06000000 		.4byte	.LBE239-.LBB239
 2912 1336 01       		.byte	0x1
 2913 1337 2601     		.2byte	0x126
 2914 1339 77130000 		.4byte	0x1377
 2915 133d 28       		.uleb128 0x28
 2916 133e 280A0000 		.4byte	0xa28
 2917 1342 02000000 		.4byte	.LBB240
 2918 1346 06000000 		.4byte	.LBE240-.LBB240
 2919 134a 11       		.byte	0x11
 2920 134b ED01     		.2byte	0x1ed
 2921 134d 28       		.uleb128 0x28
 2922 134e 160A0000 		.4byte	0xa16
 2923 1352 02000000 		.4byte	.LBB241
 2924 1356 06000000 		.4byte	.LBE241-.LBB241
 2925 135a 10       		.byte	0x10
 2926 135b 5C01     		.2byte	0x15c
 2927 135d 28       		.uleb128 0x28
 2928 135e FC090000 		.4byte	0x9fc
 2929 1362 02000000 		.4byte	.LBB242
 2930 1366 06000000 		.4byte	.LBE242-.LBB242
 2931 136a 09       		.byte	0x9
 2932 136b D001     		.2byte	0x1d0
 2933 136d 26       		.uleb128 0x26
 2934 136e 090A0000 		.4byte	0xa09
 2935 1372 20       		.byte	0x20
 2936 1373 00       		.byte	0
 2937 1374 00       		.byte	0
 2938 1375 00       		.byte	0
 2939 1376 00       		.byte	0
 2940 1377 30       		.uleb128 0x30
 2941 1378 6A0A0000 		.4byte	0xa6a
 2942 137c 0C000000 		.4byte	.LBB244
 2943 1380 08000000 		.4byte	.LBE244-.LBB244
 2944 1384 01       		.byte	0x1
 2945 1385 3001     		.2byte	0x130
 2946 1387 D4130000 		.4byte	0x13d4
 2947 138b 28       		.uleb128 0x28
 2948 138c 310A0000 		.4byte	0xa31
 2949 1390 0C000000 		.4byte	.LBB245
 2950 1394 08000000 		.4byte	.LBE245-.LBB245
 2951 1398 11       		.byte	0x11
 2952 1399 F801     		.2byte	0x1f8
 2953 139b 29       		.uleb128 0x29
 2954 139c 0C000000 		.4byte	.LBB246
 2955 13a0 08000000 		.4byte	.LBE246-.LBB246
 2956 13a4 2A       		.uleb128 0x2a
 2957 13a5 3E0A0000 		.4byte	0xa3e
 2958 13a9 28       		.uleb128 0x28
 2959 13aa 1F0A0000 		.4byte	0xa1f
 2960 13ae 0C000000 		.4byte	.LBB247
 2961 13b2 08000000 		.4byte	.LBE247-.LBB247
 2962 13b6 10       		.byte	0x10
 2963 13b7 7301     		.2byte	0x173
 2964 13b9 28       		.uleb128 0x28
ARM GAS  /var/folders/m4/4md61f0s1_g0rzfghffqnxvr0000gn/T//ccmihYiy.s 			page 53


 2965 13ba FC090000 		.4byte	0x9fc
 2966 13be 0C000000 		.4byte	.LBB248
 2967 13c2 08000000 		.4byte	.LBE248-.LBB248
 2968 13c6 09       		.byte	0x9
 2969 13c7 E301     		.2byte	0x1e3
 2970 13c9 26       		.uleb128 0x26
 2971 13ca 090A0000 		.4byte	0xa09
 2972 13ce 00       		.byte	0
 2973 13cf 00       		.byte	0
 2974 13d0 00       		.byte	0
 2975 13d1 00       		.byte	0
 2976 13d2 00       		.byte	0
 2977 13d3 00       		.byte	0
 2978 13d4 2B       		.uleb128 0x2b
 2979 13d5 0C000000 		.4byte	.LVL22
 2980 13d9 A1140000 		.4byte	0x14a1
 2981 13dd 2C       		.uleb128 0x2c
 2982 13de 01       		.uleb128 0x1
 2983 13df 50       		.byte	0x50
 2984 13e0 03       		.uleb128 0x3
 2985 13e1 F3       		.byte	0xf3
 2986 13e2 01       		.uleb128 0x1
 2987 13e3 50       		.byte	0x50
 2988 13e4 00       		.byte	0
 2989 13e5 00       		.byte	0
 2990 13e6 16       		.uleb128 0x16
 2991 13e7 C7100000 		.4byte	0x10c7
 2992 13eb 31       		.uleb128 0x31
 2993 13ec 17060000 		.4byte	.LASF159
 2994 13f0 12       		.byte	0x12
 2995 13f1 FA06     		.2byte	0x6fa
 2996 13f3 F7130000 		.4byte	0x13f7
 2997 13f7 0F       		.uleb128 0xf
 2998 13f8 A2000000 		.4byte	0xa2
 2999 13fc 32       		.uleb128 0x32
 3000 13fd 636800   		.ascii	"ch\000"
 3001 1400 07       		.byte	0x7
 3002 1401 0902     		.2byte	0x209
 3003 1403 F8030000 		.4byte	0x3f8
 3004 1407 33       		.uleb128 0x33
 3005 1408 55050000 		.4byte	.LASF171
 3006 140c 0E       		.byte	0xe
 3007 140d 1002     		.2byte	0x210
 3008 140f 34       		.uleb128 0x34
 3009 1410 B5010000 		.4byte	.LASF160
 3010 1414 0E       		.byte	0xe
 3011 1415 1102     		.2byte	0x211
 3012 1417 21140000 		.4byte	0x1421
 3013 141b 0C       		.uleb128 0xc
 3014 141c EF070000 		.4byte	0x7ef
 3015 1420 00       		.byte	0
 3016 1421 34       		.uleb128 0x34
 3017 1422 CF060000 		.4byte	.LASF161
 3018 1426 0E       		.byte	0xe
 3019 1427 1202     		.2byte	0x212
 3020 1429 33140000 		.4byte	0x1433
 3021 142d 0C       		.uleb128 0xc
ARM GAS  /var/folders/m4/4md61f0s1_g0rzfghffqnxvr0000gn/T//ccmihYiy.s 			page 54


 3022 142e EF070000 		.4byte	0x7ef
 3023 1432 00       		.byte	0
 3024 1433 34       		.uleb128 0x34
 3025 1434 0E070000 		.4byte	.LASF162
 3026 1438 0E       		.byte	0xe
 3027 1439 1302     		.2byte	0x213
 3028 143b 4F140000 		.4byte	0x144f
 3029 143f 0C       		.uleb128 0xc
 3030 1440 EF070000 		.4byte	0x7ef
 3031 1444 0C       		.uleb128 0xc
 3032 1445 23090000 		.4byte	0x923
 3033 1449 0C       		.uleb128 0xc
 3034 144a 3B090000 		.4byte	0x93b
 3035 144e 00       		.byte	0
 3036 144f 34       		.uleb128 0x34
 3037 1450 0E010000 		.4byte	.LASF163
 3038 1454 0E       		.byte	0xe
 3039 1455 1602     		.2byte	0x216
 3040 1457 66140000 		.4byte	0x1466
 3041 145b 0C       		.uleb128 0xc
 3042 145c EF070000 		.4byte	0x7ef
 3043 1460 0C       		.uleb128 0xc
 3044 1461 23090000 		.4byte	0x923
 3045 1465 00       		.byte	0
 3046 1466 34       		.uleb128 0x34
 3047 1467 BD020000 		.4byte	.LASF164
 3048 146b 0E       		.byte	0xe
 3049 146c 1702     		.2byte	0x217
 3050 146e 78140000 		.4byte	0x1478
 3051 1472 0C       		.uleb128 0xc
 3052 1473 EF070000 		.4byte	0x7ef
 3053 1477 00       		.byte	0
 3054 1478 34       		.uleb128 0x34
 3055 1479 96050000 		.4byte	.LASF165
 3056 147d 0E       		.byte	0xe
 3057 147e 1802     		.2byte	0x218
 3058 1480 8A140000 		.4byte	0x148a
 3059 1484 0C       		.uleb128 0xc
 3060 1485 EF070000 		.4byte	0x7ef
 3061 1489 00       		.byte	0
 3062 148a 34       		.uleb128 0x34
 3063 148b C3010000 		.4byte	.LASF166
 3064 148f 0E       		.byte	0xe
 3065 1490 1902     		.2byte	0x219
 3066 1492 A1140000 		.4byte	0x14a1
 3067 1496 0C       		.uleb128 0xc
 3068 1497 EF070000 		.4byte	0x7ef
 3069 149b 0C       		.uleb128 0xc
 3070 149c 23090000 		.4byte	0x923
 3071 14a0 00       		.byte	0
 3072 14a1 35       		.uleb128 0x35
 3073 14a2 5A030000 		.4byte	.LASF172
 3074 14a6 0E       		.byte	0xe
 3075 14a7 1B02     		.2byte	0x21b
 3076 14a9 0C       		.uleb128 0xc
 3077 14aa EF070000 		.4byte	0x7ef
 3078 14ae 0C       		.uleb128 0xc
ARM GAS  /var/folders/m4/4md61f0s1_g0rzfghffqnxvr0000gn/T//ccmihYiy.s 			page 55


 3079 14af 23090000 		.4byte	0x923
 3080 14b3 00       		.byte	0
 3081 14b4 00       		.byte	0
 3082              		.section	.debug_abbrev,"",%progbits
 3083              	.Ldebug_abbrev0:
 3084 0000 01       		.uleb128 0x1
 3085 0001 11       		.uleb128 0x11
 3086 0002 01       		.byte	0x1
 3087 0003 25       		.uleb128 0x25
 3088 0004 0E       		.uleb128 0xe
 3089 0005 13       		.uleb128 0x13
 3090 0006 0B       		.uleb128 0xb
 3091 0007 03       		.uleb128 0x3
 3092 0008 0E       		.uleb128 0xe
 3093 0009 1B       		.uleb128 0x1b
 3094 000a 0E       		.uleb128 0xe
 3095 000b 55       		.uleb128 0x55
 3096 000c 17       		.uleb128 0x17
 3097 000d 11       		.uleb128 0x11
 3098 000e 01       		.uleb128 0x1
 3099 000f 10       		.uleb128 0x10
 3100 0010 17       		.uleb128 0x17
 3101 0011 00       		.byte	0
 3102 0012 00       		.byte	0
 3103 0013 02       		.uleb128 0x2
 3104 0014 24       		.uleb128 0x24
 3105 0015 00       		.byte	0
 3106 0016 0B       		.uleb128 0xb
 3107 0017 0B       		.uleb128 0xb
 3108 0018 3E       		.uleb128 0x3e
 3109 0019 0B       		.uleb128 0xb
 3110 001a 03       		.uleb128 0x3
 3111 001b 08       		.uleb128 0x8
 3112 001c 00       		.byte	0
 3113 001d 00       		.byte	0
 3114 001e 03       		.uleb128 0x3
 3115 001f 24       		.uleb128 0x24
 3116 0020 00       		.byte	0
 3117 0021 0B       		.uleb128 0xb
 3118 0022 0B       		.uleb128 0xb
 3119 0023 3E       		.uleb128 0x3e
 3120 0024 0B       		.uleb128 0xb
 3121 0025 03       		.uleb128 0x3
 3122 0026 0E       		.uleb128 0xe
 3123 0027 00       		.byte	0
 3124 0028 00       		.byte	0
 3125 0029 04       		.uleb128 0x4
 3126 002a 16       		.uleb128 0x16
 3127 002b 00       		.byte	0
 3128 002c 03       		.uleb128 0x3
 3129 002d 0E       		.uleb128 0xe
 3130 002e 3A       		.uleb128 0x3a
 3131 002f 0B       		.uleb128 0xb
 3132 0030 3B       		.uleb128 0x3b
 3133 0031 0B       		.uleb128 0xb
 3134 0032 49       		.uleb128 0x49
 3135 0033 13       		.uleb128 0x13
ARM GAS  /var/folders/m4/4md61f0s1_g0rzfghffqnxvr0000gn/T//ccmihYiy.s 			page 56


 3136 0034 00       		.byte	0
 3137 0035 00       		.byte	0
 3138 0036 05       		.uleb128 0x5
 3139 0037 13       		.uleb128 0x13
 3140 0038 01       		.byte	0x1
 3141 0039 03       		.uleb128 0x3
 3142 003a 0E       		.uleb128 0xe
 3143 003b 0B       		.uleb128 0xb
 3144 003c 0B       		.uleb128 0xb
 3145 003d 3A       		.uleb128 0x3a
 3146 003e 0B       		.uleb128 0xb
 3147 003f 3B       		.uleb128 0x3b
 3148 0040 0B       		.uleb128 0xb
 3149 0041 01       		.uleb128 0x1
 3150 0042 13       		.uleb128 0x13
 3151 0043 00       		.byte	0
 3152 0044 00       		.byte	0
 3153 0045 06       		.uleb128 0x6
 3154 0046 0D       		.uleb128 0xd
 3155 0047 00       		.byte	0
 3156 0048 03       		.uleb128 0x3
 3157 0049 0E       		.uleb128 0xe
 3158 004a 3A       		.uleb128 0x3a
 3159 004b 0B       		.uleb128 0xb
 3160 004c 3B       		.uleb128 0x3b
 3161 004d 0B       		.uleb128 0xb
 3162 004e 49       		.uleb128 0x49
 3163 004f 13       		.uleb128 0x13
 3164 0050 38       		.uleb128 0x38
 3165 0051 0B       		.uleb128 0xb
 3166 0052 00       		.byte	0
 3167 0053 00       		.byte	0
 3168 0054 07       		.uleb128 0x7
 3169 0055 0D       		.uleb128 0xd
 3170 0056 00       		.byte	0
 3171 0057 03       		.uleb128 0x3
 3172 0058 08       		.uleb128 0x8
 3173 0059 3A       		.uleb128 0x3a
 3174 005a 0B       		.uleb128 0xb
 3175 005b 3B       		.uleb128 0x3b
 3176 005c 05       		.uleb128 0x5
 3177 005d 49       		.uleb128 0x49
 3178 005e 13       		.uleb128 0x13
 3179 005f 38       		.uleb128 0x38
 3180 0060 0B       		.uleb128 0xb
 3181 0061 00       		.byte	0
 3182 0062 00       		.byte	0
 3183 0063 08       		.uleb128 0x8
 3184 0064 0D       		.uleb128 0xd
 3185 0065 00       		.byte	0
 3186 0066 03       		.uleb128 0x3
 3187 0067 0E       		.uleb128 0xe
 3188 0068 3A       		.uleb128 0x3a
 3189 0069 0B       		.uleb128 0xb
 3190 006a 3B       		.uleb128 0x3b
 3191 006b 05       		.uleb128 0x5
 3192 006c 49       		.uleb128 0x49
ARM GAS  /var/folders/m4/4md61f0s1_g0rzfghffqnxvr0000gn/T//ccmihYiy.s 			page 57


 3193 006d 13       		.uleb128 0x13
 3194 006e 38       		.uleb128 0x38
 3195 006f 0B       		.uleb128 0xb
 3196 0070 00       		.byte	0
 3197 0071 00       		.byte	0
 3198 0072 09       		.uleb128 0x9
 3199 0073 0F       		.uleb128 0xf
 3200 0074 00       		.byte	0
 3201 0075 0B       		.uleb128 0xb
 3202 0076 0B       		.uleb128 0xb
 3203 0077 49       		.uleb128 0x49
 3204 0078 13       		.uleb128 0x13
 3205 0079 00       		.byte	0
 3206 007a 00       		.byte	0
 3207 007b 0A       		.uleb128 0xa
 3208 007c 13       		.uleb128 0x13
 3209 007d 01       		.byte	0x1
 3210 007e 03       		.uleb128 0x3
 3211 007f 0E       		.uleb128 0xe
 3212 0080 0B       		.uleb128 0xb
 3213 0081 0B       		.uleb128 0xb
 3214 0082 3A       		.uleb128 0x3a
 3215 0083 0B       		.uleb128 0xb
 3216 0084 3B       		.uleb128 0x3b
 3217 0085 05       		.uleb128 0x5
 3218 0086 01       		.uleb128 0x1
 3219 0087 13       		.uleb128 0x13
 3220 0088 00       		.byte	0
 3221 0089 00       		.byte	0
 3222 008a 0B       		.uleb128 0xb
 3223 008b 15       		.uleb128 0x15
 3224 008c 01       		.byte	0x1
 3225 008d 27       		.uleb128 0x27
 3226 008e 19       		.uleb128 0x19
 3227 008f 01       		.uleb128 0x1
 3228 0090 13       		.uleb128 0x13
 3229 0091 00       		.byte	0
 3230 0092 00       		.byte	0
 3231 0093 0C       		.uleb128 0xc
 3232 0094 05       		.uleb128 0x5
 3233 0095 00       		.byte	0
 3234 0096 49       		.uleb128 0x49
 3235 0097 13       		.uleb128 0x13
 3236 0098 00       		.byte	0
 3237 0099 00       		.byte	0
 3238 009a 0D       		.uleb128 0xd
 3239 009b 0F       		.uleb128 0xf
 3240 009c 00       		.byte	0
 3241 009d 0B       		.uleb128 0xb
 3242 009e 0B       		.uleb128 0xb
 3243 009f 00       		.byte	0
 3244 00a0 00       		.byte	0
 3245 00a1 0E       		.uleb128 0xe
 3246 00a2 13       		.uleb128 0x13
 3247 00a3 01       		.byte	0x1
 3248 00a4 03       		.uleb128 0x3
 3249 00a5 0E       		.uleb128 0xe
ARM GAS  /var/folders/m4/4md61f0s1_g0rzfghffqnxvr0000gn/T//ccmihYiy.s 			page 58


 3250 00a6 0B       		.uleb128 0xb
 3251 00a7 05       		.uleb128 0x5
 3252 00a8 3A       		.uleb128 0x3a
 3253 00a9 0B       		.uleb128 0xb
 3254 00aa 3B       		.uleb128 0x3b
 3255 00ab 05       		.uleb128 0x5
 3256 00ac 01       		.uleb128 0x1
 3257 00ad 13       		.uleb128 0x13
 3258 00ae 00       		.byte	0
 3259 00af 00       		.byte	0
 3260 00b0 0F       		.uleb128 0xf
 3261 00b1 35       		.uleb128 0x35
 3262 00b2 00       		.byte	0
 3263 00b3 49       		.uleb128 0x49
 3264 00b4 13       		.uleb128 0x13
 3265 00b5 00       		.byte	0
 3266 00b6 00       		.byte	0
 3267 00b7 10       		.uleb128 0x10
 3268 00b8 01       		.uleb128 0x1
 3269 00b9 01       		.byte	0x1
 3270 00ba 49       		.uleb128 0x49
 3271 00bb 13       		.uleb128 0x13
 3272 00bc 01       		.uleb128 0x1
 3273 00bd 13       		.uleb128 0x13
 3274 00be 00       		.byte	0
 3275 00bf 00       		.byte	0
 3276 00c0 11       		.uleb128 0x11
 3277 00c1 21       		.uleb128 0x21
 3278 00c2 00       		.byte	0
 3279 00c3 49       		.uleb128 0x49
 3280 00c4 13       		.uleb128 0x13
 3281 00c5 2F       		.uleb128 0x2f
 3282 00c6 0B       		.uleb128 0xb
 3283 00c7 00       		.byte	0
 3284 00c8 00       		.byte	0
 3285 00c9 12       		.uleb128 0x12
 3286 00ca 0D       		.uleb128 0xd
 3287 00cb 00       		.byte	0
 3288 00cc 03       		.uleb128 0x3
 3289 00cd 08       		.uleb128 0x8
 3290 00ce 3A       		.uleb128 0x3a
 3291 00cf 0B       		.uleb128 0xb
 3292 00d0 3B       		.uleb128 0x3b
 3293 00d1 0B       		.uleb128 0xb
 3294 00d2 49       		.uleb128 0x49
 3295 00d3 13       		.uleb128 0x13
 3296 00d4 38       		.uleb128 0x38
 3297 00d5 0B       		.uleb128 0xb
 3298 00d6 00       		.byte	0
 3299 00d7 00       		.byte	0
 3300 00d8 13       		.uleb128 0x13
 3301 00d9 13       		.uleb128 0x13
 3302 00da 01       		.byte	0x1
 3303 00db 0B       		.uleb128 0xb
 3304 00dc 0B       		.uleb128 0xb
 3305 00dd 3A       		.uleb128 0x3a
 3306 00de 0B       		.uleb128 0xb
ARM GAS  /var/folders/m4/4md61f0s1_g0rzfghffqnxvr0000gn/T//ccmihYiy.s 			page 59


 3307 00df 3B       		.uleb128 0x3b
 3308 00e0 0B       		.uleb128 0xb
 3309 00e1 01       		.uleb128 0x1
 3310 00e2 13       		.uleb128 0x13
 3311 00e3 00       		.byte	0
 3312 00e4 00       		.byte	0
 3313 00e5 14       		.uleb128 0x14
 3314 00e6 17       		.uleb128 0x17
 3315 00e7 01       		.byte	0x1
 3316 00e8 0B       		.uleb128 0xb
 3317 00e9 0B       		.uleb128 0xb
 3318 00ea 3A       		.uleb128 0x3a
 3319 00eb 0B       		.uleb128 0xb
 3320 00ec 3B       		.uleb128 0x3b
 3321 00ed 0B       		.uleb128 0xb
 3322 00ee 01       		.uleb128 0x1
 3323 00ef 13       		.uleb128 0x13
 3324 00f0 00       		.byte	0
 3325 00f1 00       		.byte	0
 3326 00f2 15       		.uleb128 0x15
 3327 00f3 0D       		.uleb128 0xd
 3328 00f4 00       		.byte	0
 3329 00f5 03       		.uleb128 0x3
 3330 00f6 0E       		.uleb128 0xe
 3331 00f7 3A       		.uleb128 0x3a
 3332 00f8 0B       		.uleb128 0xb
 3333 00f9 3B       		.uleb128 0x3b
 3334 00fa 05       		.uleb128 0x5
 3335 00fb 49       		.uleb128 0x49
 3336 00fc 13       		.uleb128 0x13
 3337 00fd 00       		.byte	0
 3338 00fe 00       		.byte	0
 3339 00ff 16       		.uleb128 0x16
 3340 0100 26       		.uleb128 0x26
 3341 0101 00       		.byte	0
 3342 0102 49       		.uleb128 0x49
 3343 0103 13       		.uleb128 0x13
 3344 0104 00       		.byte	0
 3345 0105 00       		.byte	0
 3346 0106 17       		.uleb128 0x17
 3347 0107 04       		.uleb128 0x4
 3348 0108 01       		.byte	0x1
 3349 0109 0B       		.uleb128 0xb
 3350 010a 0B       		.uleb128 0xb
 3351 010b 3A       		.uleb128 0x3a
 3352 010c 0B       		.uleb128 0xb
 3353 010d 3B       		.uleb128 0x3b
 3354 010e 0B       		.uleb128 0xb
 3355 010f 01       		.uleb128 0x1
 3356 0110 13       		.uleb128 0x13
 3357 0111 00       		.byte	0
 3358 0112 00       		.byte	0
 3359 0113 18       		.uleb128 0x18
 3360 0114 28       		.uleb128 0x28
 3361 0115 00       		.byte	0
 3362 0116 03       		.uleb128 0x3
 3363 0117 0E       		.uleb128 0xe
ARM GAS  /var/folders/m4/4md61f0s1_g0rzfghffqnxvr0000gn/T//ccmihYiy.s 			page 60


 3364 0118 1C       		.uleb128 0x1c
 3365 0119 0D       		.uleb128 0xd
 3366 011a 00       		.byte	0
 3367 011b 00       		.byte	0
 3368 011c 19       		.uleb128 0x19
 3369 011d 13       		.uleb128 0x13
 3370 011e 01       		.byte	0x1
 3371 011f 0B       		.uleb128 0xb
 3372 0120 0B       		.uleb128 0xb
 3373 0121 3A       		.uleb128 0x3a
 3374 0122 0B       		.uleb128 0xb
 3375 0123 3B       		.uleb128 0x3b
 3376 0124 05       		.uleb128 0x5
 3377 0125 01       		.uleb128 0x1
 3378 0126 13       		.uleb128 0x13
 3379 0127 00       		.byte	0
 3380 0128 00       		.byte	0
 3381 0129 1A       		.uleb128 0x1a
 3382 012a 16       		.uleb128 0x16
 3383 012b 00       		.byte	0
 3384 012c 03       		.uleb128 0x3
 3385 012d 0E       		.uleb128 0xe
 3386 012e 3A       		.uleb128 0x3a
 3387 012f 0B       		.uleb128 0xb
 3388 0130 3B       		.uleb128 0x3b
 3389 0131 05       		.uleb128 0x5
 3390 0132 49       		.uleb128 0x49
 3391 0133 13       		.uleb128 0x13
 3392 0134 00       		.byte	0
 3393 0135 00       		.byte	0
 3394 0136 1B       		.uleb128 0x1b
 3395 0137 2E       		.uleb128 0x2e
 3396 0138 01       		.byte	0x1
 3397 0139 03       		.uleb128 0x3
 3398 013a 0E       		.uleb128 0xe
 3399 013b 3A       		.uleb128 0x3a
 3400 013c 0B       		.uleb128 0xb
 3401 013d 3B       		.uleb128 0x3b
 3402 013e 05       		.uleb128 0x5
 3403 013f 27       		.uleb128 0x27
 3404 0140 19       		.uleb128 0x19
 3405 0141 20       		.uleb128 0x20
 3406 0142 0B       		.uleb128 0xb
 3407 0143 01       		.uleb128 0x1
 3408 0144 13       		.uleb128 0x13
 3409 0145 00       		.byte	0
 3410 0146 00       		.byte	0
 3411 0147 1C       		.uleb128 0x1c
 3412 0148 05       		.uleb128 0x5
 3413 0149 00       		.byte	0
 3414 014a 03       		.uleb128 0x3
 3415 014b 0E       		.uleb128 0xe
 3416 014c 3A       		.uleb128 0x3a
 3417 014d 0B       		.uleb128 0xb
 3418 014e 3B       		.uleb128 0x3b
 3419 014f 05       		.uleb128 0x5
 3420 0150 49       		.uleb128 0x49
ARM GAS  /var/folders/m4/4md61f0s1_g0rzfghffqnxvr0000gn/T//ccmihYiy.s 			page 61


 3421 0151 13       		.uleb128 0x13
 3422 0152 00       		.byte	0
 3423 0153 00       		.byte	0
 3424 0154 1D       		.uleb128 0x1d
 3425 0155 2E       		.uleb128 0x2e
 3426 0156 00       		.byte	0
 3427 0157 03       		.uleb128 0x3
 3428 0158 0E       		.uleb128 0xe
 3429 0159 3A       		.uleb128 0x3a
 3430 015a 0B       		.uleb128 0xb
 3431 015b 3B       		.uleb128 0x3b
 3432 015c 05       		.uleb128 0x5
 3433 015d 27       		.uleb128 0x27
 3434 015e 19       		.uleb128 0x19
 3435 015f 20       		.uleb128 0x20
 3436 0160 0B       		.uleb128 0xb
 3437 0161 00       		.byte	0
 3438 0162 00       		.byte	0
 3439 0163 1E       		.uleb128 0x1e
 3440 0164 34       		.uleb128 0x34
 3441 0165 00       		.byte	0
 3442 0166 03       		.uleb128 0x3
 3443 0167 0E       		.uleb128 0xe
 3444 0168 49       		.uleb128 0x49
 3445 0169 13       		.uleb128 0x13
 3446 016a 34       		.uleb128 0x34
 3447 016b 19       		.uleb128 0x19
 3448 016c 1C       		.uleb128 0x1c
 3449 016d 0E       		.uleb128 0xe
 3450 016e 00       		.byte	0
 3451 016f 00       		.byte	0
 3452 0170 1F       		.uleb128 0x1f
 3453 0171 2E       		.uleb128 0x2e
 3454 0172 01       		.byte	0x1
 3455 0173 3F       		.uleb128 0x3f
 3456 0174 19       		.uleb128 0x19
 3457 0175 03       		.uleb128 0x3
 3458 0176 0E       		.uleb128 0xe
 3459 0177 3A       		.uleb128 0x3a
 3460 0178 0B       		.uleb128 0xb
 3461 0179 3B       		.uleb128 0x3b
 3462 017a 0B       		.uleb128 0xb
 3463 017b 27       		.uleb128 0x27
 3464 017c 19       		.uleb128 0x19
 3465 017d 11       		.uleb128 0x11
 3466 017e 01       		.uleb128 0x1
 3467 017f 12       		.uleb128 0x12
 3468 0180 06       		.uleb128 0x6
 3469 0181 40       		.uleb128 0x40
 3470 0182 18       		.uleb128 0x18
 3471 0183 9742     		.uleb128 0x2117
 3472 0185 19       		.uleb128 0x19
 3473 0186 01       		.uleb128 0x1
 3474 0187 13       		.uleb128 0x13
 3475 0188 00       		.byte	0
 3476 0189 00       		.byte	0
 3477 018a 20       		.uleb128 0x20
ARM GAS  /var/folders/m4/4md61f0s1_g0rzfghffqnxvr0000gn/T//ccmihYiy.s 			page 62


 3478 018b 898201   		.uleb128 0x4109
 3479 018e 00       		.byte	0
 3480 018f 11       		.uleb128 0x11
 3481 0190 01       		.uleb128 0x1
 3482 0191 9542     		.uleb128 0x2115
 3483 0193 19       		.uleb128 0x19
 3484 0194 31       		.uleb128 0x31
 3485 0195 13       		.uleb128 0x13
 3486 0196 00       		.byte	0
 3487 0197 00       		.byte	0
 3488 0198 21       		.uleb128 0x21
 3489 0199 05       		.uleb128 0x5
 3490 019a 00       		.byte	0
 3491 019b 03       		.uleb128 0x3
 3492 019c 0E       		.uleb128 0xe
 3493 019d 3A       		.uleb128 0x3a
 3494 019e 0B       		.uleb128 0xb
 3495 019f 3B       		.uleb128 0x3b
 3496 01a0 0B       		.uleb128 0xb
 3497 01a1 49       		.uleb128 0x49
 3498 01a2 13       		.uleb128 0x13
 3499 01a3 02       		.uleb128 0x2
 3500 01a4 18       		.uleb128 0x18
 3501 01a5 00       		.byte	0
 3502 01a6 00       		.byte	0
 3503 01a7 22       		.uleb128 0x22
 3504 01a8 05       		.uleb128 0x5
 3505 01a9 00       		.byte	0
 3506 01aa 03       		.uleb128 0x3
 3507 01ab 0E       		.uleb128 0xe
 3508 01ac 3A       		.uleb128 0x3a
 3509 01ad 0B       		.uleb128 0xb
 3510 01ae 3B       		.uleb128 0x3b
 3511 01af 0B       		.uleb128 0xb
 3512 01b0 49       		.uleb128 0x49
 3513 01b1 13       		.uleb128 0x13
 3514 01b2 02       		.uleb128 0x2
 3515 01b3 17       		.uleb128 0x17
 3516 01b4 00       		.byte	0
 3517 01b5 00       		.byte	0
 3518 01b6 23       		.uleb128 0x23
 3519 01b7 34       		.uleb128 0x34
 3520 01b8 00       		.byte	0
 3521 01b9 03       		.uleb128 0x3
 3522 01ba 0E       		.uleb128 0xe
 3523 01bb 49       		.uleb128 0x49
 3524 01bc 13       		.uleb128 0x13
 3525 01bd 34       		.uleb128 0x34
 3526 01be 19       		.uleb128 0x19
 3527 01bf 00       		.byte	0
 3528 01c0 00       		.byte	0
 3529 01c1 24       		.uleb128 0x24
 3530 01c2 1D       		.uleb128 0x1d
 3531 01c3 01       		.byte	0x1
 3532 01c4 31       		.uleb128 0x31
 3533 01c5 13       		.uleb128 0x13
 3534 01c6 52       		.uleb128 0x52
ARM GAS  /var/folders/m4/4md61f0s1_g0rzfghffqnxvr0000gn/T//ccmihYiy.s 			page 63


 3535 01c7 01       		.uleb128 0x1
 3536 01c8 55       		.uleb128 0x55
 3537 01c9 17       		.uleb128 0x17
 3538 01ca 58       		.uleb128 0x58
 3539 01cb 0B       		.uleb128 0xb
 3540 01cc 59       		.uleb128 0x59
 3541 01cd 0B       		.uleb128 0xb
 3542 01ce 01       		.uleb128 0x1
 3543 01cf 13       		.uleb128 0x13
 3544 01d0 00       		.byte	0
 3545 01d1 00       		.byte	0
 3546 01d2 25       		.uleb128 0x25
 3547 01d3 1D       		.uleb128 0x1d
 3548 01d4 01       		.byte	0x1
 3549 01d5 31       		.uleb128 0x31
 3550 01d6 13       		.uleb128 0x13
 3551 01d7 52       		.uleb128 0x52
 3552 01d8 01       		.uleb128 0x1
 3553 01d9 55       		.uleb128 0x55
 3554 01da 17       		.uleb128 0x17
 3555 01db 58       		.uleb128 0x58
 3556 01dc 0B       		.uleb128 0xb
 3557 01dd 59       		.uleb128 0x59
 3558 01de 05       		.uleb128 0x5
 3559 01df 00       		.byte	0
 3560 01e0 00       		.byte	0
 3561 01e1 26       		.uleb128 0x26
 3562 01e2 05       		.uleb128 0x5
 3563 01e3 00       		.byte	0
 3564 01e4 31       		.uleb128 0x31
 3565 01e5 13       		.uleb128 0x13
 3566 01e6 1C       		.uleb128 0x1c
 3567 01e7 0B       		.uleb128 0xb
 3568 01e8 00       		.byte	0
 3569 01e9 00       		.byte	0
 3570 01ea 27       		.uleb128 0x27
 3571 01eb 1D       		.uleb128 0x1d
 3572 01ec 01       		.byte	0x1
 3573 01ed 31       		.uleb128 0x31
 3574 01ee 13       		.uleb128 0x13
 3575 01ef 11       		.uleb128 0x11
 3576 01f0 01       		.uleb128 0x1
 3577 01f1 12       		.uleb128 0x12
 3578 01f2 06       		.uleb128 0x6
 3579 01f3 58       		.uleb128 0x58
 3580 01f4 0B       		.uleb128 0xb
 3581 01f5 59       		.uleb128 0x59
 3582 01f6 0B       		.uleb128 0xb
 3583 01f7 01       		.uleb128 0x1
 3584 01f8 13       		.uleb128 0x13
 3585 01f9 00       		.byte	0
 3586 01fa 00       		.byte	0
 3587 01fb 28       		.uleb128 0x28
 3588 01fc 1D       		.uleb128 0x1d
 3589 01fd 01       		.byte	0x1
 3590 01fe 31       		.uleb128 0x31
 3591 01ff 13       		.uleb128 0x13
ARM GAS  /var/folders/m4/4md61f0s1_g0rzfghffqnxvr0000gn/T//ccmihYiy.s 			page 64


 3592 0200 11       		.uleb128 0x11
 3593 0201 01       		.uleb128 0x1
 3594 0202 12       		.uleb128 0x12
 3595 0203 06       		.uleb128 0x6
 3596 0204 58       		.uleb128 0x58
 3597 0205 0B       		.uleb128 0xb
 3598 0206 59       		.uleb128 0x59
 3599 0207 05       		.uleb128 0x5
 3600 0208 00       		.byte	0
 3601 0209 00       		.byte	0
 3602 020a 29       		.uleb128 0x29
 3603 020b 0B       		.uleb128 0xb
 3604 020c 01       		.byte	0x1
 3605 020d 11       		.uleb128 0x11
 3606 020e 01       		.uleb128 0x1
 3607 020f 12       		.uleb128 0x12
 3608 0210 06       		.uleb128 0x6
 3609 0211 00       		.byte	0
 3610 0212 00       		.byte	0
 3611 0213 2A       		.uleb128 0x2a
 3612 0214 34       		.uleb128 0x34
 3613 0215 00       		.byte	0
 3614 0216 31       		.uleb128 0x31
 3615 0217 13       		.uleb128 0x13
 3616 0218 00       		.byte	0
 3617 0219 00       		.byte	0
 3618 021a 2B       		.uleb128 0x2b
 3619 021b 898201   		.uleb128 0x4109
 3620 021e 01       		.byte	0x1
 3621 021f 11       		.uleb128 0x11
 3622 0220 01       		.uleb128 0x1
 3623 0221 31       		.uleb128 0x31
 3624 0222 13       		.uleb128 0x13
 3625 0223 00       		.byte	0
 3626 0224 00       		.byte	0
 3627 0225 2C       		.uleb128 0x2c
 3628 0226 8A8201   		.uleb128 0x410a
 3629 0229 00       		.byte	0
 3630 022a 02       		.uleb128 0x2
 3631 022b 18       		.uleb128 0x18
 3632 022c 9142     		.uleb128 0x2111
 3633 022e 18       		.uleb128 0x18
 3634 022f 00       		.byte	0
 3635 0230 00       		.byte	0
 3636 0231 2D       		.uleb128 0x2d
 3637 0232 1D       		.uleb128 0x1d
 3638 0233 01       		.byte	0x1
 3639 0234 31       		.uleb128 0x31
 3640 0235 13       		.uleb128 0x13
 3641 0236 11       		.uleb128 0x11
 3642 0237 01       		.uleb128 0x1
 3643 0238 12       		.uleb128 0x12
 3644 0239 06       		.uleb128 0x6
 3645 023a 58       		.uleb128 0x58
 3646 023b 0B       		.uleb128 0xb
 3647 023c 59       		.uleb128 0x59
 3648 023d 0B       		.uleb128 0xb
ARM GAS  /var/folders/m4/4md61f0s1_g0rzfghffqnxvr0000gn/T//ccmihYiy.s 			page 65


 3649 023e 00       		.byte	0
 3650 023f 00       		.byte	0
 3651 0240 2E       		.uleb128 0x2e
 3652 0241 2E       		.uleb128 0x2e
 3653 0242 01       		.byte	0x1
 3654 0243 3F       		.uleb128 0x3f
 3655 0244 19       		.uleb128 0x19
 3656 0245 03       		.uleb128 0x3
 3657 0246 0E       		.uleb128 0xe
 3658 0247 3A       		.uleb128 0x3a
 3659 0248 0B       		.uleb128 0xb
 3660 0249 3B       		.uleb128 0x3b
 3661 024a 05       		.uleb128 0x5
 3662 024b 27       		.uleb128 0x27
 3663 024c 19       		.uleb128 0x19
 3664 024d 11       		.uleb128 0x11
 3665 024e 01       		.uleb128 0x1
 3666 024f 12       		.uleb128 0x12
 3667 0250 06       		.uleb128 0x6
 3668 0251 40       		.uleb128 0x40
 3669 0252 18       		.uleb128 0x18
 3670 0253 9742     		.uleb128 0x2117
 3671 0255 19       		.uleb128 0x19
 3672 0256 01       		.uleb128 0x1
 3673 0257 13       		.uleb128 0x13
 3674 0258 00       		.byte	0
 3675 0259 00       		.byte	0
 3676 025a 2F       		.uleb128 0x2f
 3677 025b 05       		.uleb128 0x5
 3678 025c 00       		.byte	0
 3679 025d 03       		.uleb128 0x3
 3680 025e 0E       		.uleb128 0xe
 3681 025f 3A       		.uleb128 0x3a
 3682 0260 0B       		.uleb128 0xb
 3683 0261 3B       		.uleb128 0x3b
 3684 0262 05       		.uleb128 0x5
 3685 0263 49       		.uleb128 0x49
 3686 0264 13       		.uleb128 0x13
 3687 0265 02       		.uleb128 0x2
 3688 0266 17       		.uleb128 0x17
 3689 0267 00       		.byte	0
 3690 0268 00       		.byte	0
 3691 0269 30       		.uleb128 0x30
 3692 026a 1D       		.uleb128 0x1d
 3693 026b 01       		.byte	0x1
 3694 026c 31       		.uleb128 0x31
 3695 026d 13       		.uleb128 0x13
 3696 026e 11       		.uleb128 0x11
 3697 026f 01       		.uleb128 0x1
 3698 0270 12       		.uleb128 0x12
 3699 0271 06       		.uleb128 0x6
 3700 0272 58       		.uleb128 0x58
 3701 0273 0B       		.uleb128 0xb
 3702 0274 59       		.uleb128 0x59
 3703 0275 05       		.uleb128 0x5
 3704 0276 01       		.uleb128 0x1
 3705 0277 13       		.uleb128 0x13
ARM GAS  /var/folders/m4/4md61f0s1_g0rzfghffqnxvr0000gn/T//ccmihYiy.s 			page 66


 3706 0278 00       		.byte	0
 3707 0279 00       		.byte	0
 3708 027a 31       		.uleb128 0x31
 3709 027b 34       		.uleb128 0x34
 3710 027c 00       		.byte	0
 3711 027d 03       		.uleb128 0x3
 3712 027e 0E       		.uleb128 0xe
 3713 027f 3A       		.uleb128 0x3a
 3714 0280 0B       		.uleb128 0xb
 3715 0281 3B       		.uleb128 0x3b
 3716 0282 05       		.uleb128 0x5
 3717 0283 49       		.uleb128 0x49
 3718 0284 13       		.uleb128 0x13
 3719 0285 3F       		.uleb128 0x3f
 3720 0286 19       		.uleb128 0x19
 3721 0287 3C       		.uleb128 0x3c
 3722 0288 19       		.uleb128 0x19
 3723 0289 00       		.byte	0
 3724 028a 00       		.byte	0
 3725 028b 32       		.uleb128 0x32
 3726 028c 34       		.uleb128 0x34
 3727 028d 00       		.byte	0
 3728 028e 03       		.uleb128 0x3
 3729 028f 08       		.uleb128 0x8
 3730 0290 3A       		.uleb128 0x3a
 3731 0291 0B       		.uleb128 0xb
 3732 0292 3B       		.uleb128 0x3b
 3733 0293 05       		.uleb128 0x5
 3734 0294 49       		.uleb128 0x49
 3735 0295 13       		.uleb128 0x13
 3736 0296 3F       		.uleb128 0x3f
 3737 0297 19       		.uleb128 0x19
 3738 0298 3C       		.uleb128 0x3c
 3739 0299 19       		.uleb128 0x19
 3740 029a 00       		.byte	0
 3741 029b 00       		.byte	0
 3742 029c 33       		.uleb128 0x33
 3743 029d 2E       		.uleb128 0x2e
 3744 029e 00       		.byte	0
 3745 029f 3F       		.uleb128 0x3f
 3746 02a0 19       		.uleb128 0x19
 3747 02a1 03       		.uleb128 0x3
 3748 02a2 0E       		.uleb128 0xe
 3749 02a3 3A       		.uleb128 0x3a
 3750 02a4 0B       		.uleb128 0xb
 3751 02a5 3B       		.uleb128 0x3b
 3752 02a6 05       		.uleb128 0x5
 3753 02a7 27       		.uleb128 0x27
 3754 02a8 19       		.uleb128 0x19
 3755 02a9 3C       		.uleb128 0x3c
 3756 02aa 19       		.uleb128 0x19
 3757 02ab 00       		.byte	0
 3758 02ac 00       		.byte	0
 3759 02ad 34       		.uleb128 0x34
 3760 02ae 2E       		.uleb128 0x2e
 3761 02af 01       		.byte	0x1
 3762 02b0 3F       		.uleb128 0x3f
ARM GAS  /var/folders/m4/4md61f0s1_g0rzfghffqnxvr0000gn/T//ccmihYiy.s 			page 67


 3763 02b1 19       		.uleb128 0x19
 3764 02b2 03       		.uleb128 0x3
 3765 02b3 0E       		.uleb128 0xe
 3766 02b4 3A       		.uleb128 0x3a
 3767 02b5 0B       		.uleb128 0xb
 3768 02b6 3B       		.uleb128 0x3b
 3769 02b7 05       		.uleb128 0x5
 3770 02b8 27       		.uleb128 0x27
 3771 02b9 19       		.uleb128 0x19
 3772 02ba 3C       		.uleb128 0x3c
 3773 02bb 19       		.uleb128 0x19
 3774 02bc 01       		.uleb128 0x1
 3775 02bd 13       		.uleb128 0x13
 3776 02be 00       		.byte	0
 3777 02bf 00       		.byte	0
 3778 02c0 35       		.uleb128 0x35
 3779 02c1 2E       		.uleb128 0x2e
 3780 02c2 01       		.byte	0x1
 3781 02c3 3F       		.uleb128 0x3f
 3782 02c4 19       		.uleb128 0x19
 3783 02c5 03       		.uleb128 0x3
 3784 02c6 0E       		.uleb128 0xe
 3785 02c7 3A       		.uleb128 0x3a
 3786 02c8 0B       		.uleb128 0xb
 3787 02c9 3B       		.uleb128 0x3b
 3788 02ca 05       		.uleb128 0x5
 3789 02cb 27       		.uleb128 0x27
 3790 02cc 19       		.uleb128 0x19
 3791 02cd 3C       		.uleb128 0x3c
 3792 02ce 19       		.uleb128 0x19
 3793 02cf 00       		.byte	0
 3794 02d0 00       		.byte	0
 3795 02d1 00       		.byte	0
 3796              		.section	.debug_loc,"",%progbits
 3797              	.Ldebug_loc0:
 3798              	.LLST0:
 3799 0000 00000000 		.4byte	.LVL2
 3800 0004 13000000 		.4byte	.LVL3-1
 3801 0008 0100     		.2byte	0x1
 3802 000a 50       		.byte	0x50
 3803 000b 13000000 		.4byte	.LVL3-1
 3804 000f 22000000 		.4byte	.LFE270
 3805 0013 0100     		.2byte	0x1
 3806 0015 54       		.byte	0x54
 3807 0016 00000000 		.4byte	0
 3808 001a 00000000 		.4byte	0
 3809              	.LLST1:
 3810 001e 00000000 		.4byte	.LVL2
 3811 0022 13000000 		.4byte	.LVL3-1
 3812 0026 0100     		.2byte	0x1
 3813 0028 51       		.byte	0x51
 3814 0029 13000000 		.4byte	.LVL3-1
 3815 002d 22000000 		.4byte	.LFE270
 3816 0031 0400     		.2byte	0x4
 3817 0033 F3       		.byte	0xf3
 3818 0034 01       		.uleb128 0x1
 3819 0035 51       		.byte	0x51
ARM GAS  /var/folders/m4/4md61f0s1_g0rzfghffqnxvr0000gn/T//ccmihYiy.s 			page 68


 3820 0036 9F       		.byte	0x9f
 3821 0037 00000000 		.4byte	0
 3822 003b 00000000 		.4byte	0
 3823              	.LLST2:
 3824 003f 00000000 		.4byte	.LVL5
 3825 0043 0D000000 		.4byte	.LVL6-1
 3826 0047 0100     		.2byte	0x1
 3827 0049 50       		.byte	0x50
 3828 004a 0D000000 		.4byte	.LVL6-1
 3829 004e 1C000000 		.4byte	.LFE271
 3830 0052 0100     		.2byte	0x1
 3831 0054 54       		.byte	0x54
 3832 0055 00000000 		.4byte	0
 3833 0059 00000000 		.4byte	0
 3834              	.LLST3:
 3835 005d 00000000 		.4byte	.LVL8
 3836 0061 0C000000 		.4byte	.LVL9
 3837 0065 0100     		.2byte	0x1
 3838 0067 51       		.byte	0x51
 3839 0068 0C000000 		.4byte	.LVL9
 3840 006c 16000000 		.4byte	.LFE272
 3841 0070 0200     		.2byte	0x2
 3842 0072 70       		.byte	0x70
 3843 0073 08       		.sleb128 8
 3844 0074 00000000 		.4byte	0
 3845 0078 00000000 		.4byte	0
 3846              	.LLST4:
 3847 007c 00000000 		.4byte	.LVL11
 3848 0080 15000000 		.4byte	.LVL12-1
 3849 0084 0100     		.2byte	0x1
 3850 0086 50       		.byte	0x50
 3851 0087 15000000 		.4byte	.LVL12-1
 3852 008b 1E000000 		.4byte	.LFE273
 3853 008f 0400     		.2byte	0x4
 3854 0091 F3       		.byte	0xf3
 3855 0092 01       		.uleb128 0x1
 3856 0093 50       		.byte	0x50
 3857 0094 9F       		.byte	0x9f
 3858 0095 00000000 		.4byte	0
 3859 0099 00000000 		.4byte	0
 3860              	.LLST5:
 3861 009d 00000000 		.4byte	.LVL11
 3862 00a1 15000000 		.4byte	.LVL12-1
 3863 00a5 0100     		.2byte	0x1
 3864 00a7 51       		.byte	0x51
 3865 00a8 15000000 		.4byte	.LVL12-1
 3866 00ac 1E000000 		.4byte	.LFE273
 3867 00b0 0400     		.2byte	0x4
 3868 00b2 F3       		.byte	0xf3
 3869 00b3 01       		.uleb128 0x1
 3870 00b4 51       		.byte	0x51
 3871 00b5 9F       		.byte	0x9f
 3872 00b6 00000000 		.4byte	0
 3873 00ba 00000000 		.4byte	0
 3874              	.LLST6:
 3875 00be 00000000 		.4byte	.LVL11
 3876 00c2 15000000 		.4byte	.LVL12-1
ARM GAS  /var/folders/m4/4md61f0s1_g0rzfghffqnxvr0000gn/T//ccmihYiy.s 			page 69


 3877 00c6 0100     		.2byte	0x1
 3878 00c8 52       		.byte	0x52
 3879 00c9 15000000 		.4byte	.LVL12-1
 3880 00cd 1E000000 		.4byte	.LFE273
 3881 00d1 0400     		.2byte	0x4
 3882 00d3 F3       		.byte	0xf3
 3883 00d4 01       		.uleb128 0x1
 3884 00d5 52       		.byte	0x52
 3885 00d6 9F       		.byte	0x9f
 3886 00d7 00000000 		.4byte	0
 3887 00db 00000000 		.4byte	0
 3888              	.LLST7:
 3889 00df 00000000 		.4byte	.LVL13
 3890 00e3 17000000 		.4byte	.LVL14-1
 3891 00e7 0100     		.2byte	0x1
 3892 00e9 50       		.byte	0x50
 3893 00ea 17000000 		.4byte	.LVL14-1
 3894 00ee 20000000 		.4byte	.LFE274
 3895 00f2 0400     		.2byte	0x4
 3896 00f4 F3       		.byte	0xf3
 3897 00f5 01       		.uleb128 0x1
 3898 00f6 50       		.byte	0x50
 3899 00f7 9F       		.byte	0x9f
 3900 00f8 00000000 		.4byte	0
 3901 00fc 00000000 		.4byte	0
 3902              	.LLST8:
 3903 0100 00000000 		.4byte	.LVL13
 3904 0104 17000000 		.4byte	.LVL14-1
 3905 0108 0100     		.2byte	0x1
 3906 010a 51       		.byte	0x51
 3907 010b 17000000 		.4byte	.LVL14-1
 3908 010f 20000000 		.4byte	.LFE274
 3909 0113 0400     		.2byte	0x4
 3910 0115 F3       		.byte	0xf3
 3911 0116 01       		.uleb128 0x1
 3912 0117 51       		.byte	0x51
 3913 0118 9F       		.byte	0x9f
 3914 0119 00000000 		.4byte	0
 3915 011d 00000000 		.4byte	0
 3916              	.LLST9:
 3917 0121 00000000 		.4byte	.LVL15
 3918 0125 0B000000 		.4byte	.LVL16-1
 3919 0129 0100     		.2byte	0x1
 3920 012b 50       		.byte	0x50
 3921 012c 0B000000 		.4byte	.LVL16-1
 3922 0130 14000000 		.4byte	.LFE275
 3923 0134 0400     		.2byte	0x4
 3924 0136 F3       		.byte	0xf3
 3925 0137 01       		.uleb128 0x1
 3926 0138 50       		.byte	0x50
 3927 0139 9F       		.byte	0x9f
 3928 013a 00000000 		.4byte	0
 3929 013e 00000000 		.4byte	0
 3930              	.LLST10:
 3931 0142 00000000 		.4byte	.LVL17
 3932 0146 0B000000 		.4byte	.LVL18-1
 3933 014a 0100     		.2byte	0x1
ARM GAS  /var/folders/m4/4md61f0s1_g0rzfghffqnxvr0000gn/T//ccmihYiy.s 			page 70


 3934 014c 50       		.byte	0x50
 3935 014d 0B000000 		.4byte	.LVL18-1
 3936 0151 14000000 		.4byte	.LFE276
 3937 0155 0400     		.2byte	0x4
 3938 0157 F3       		.byte	0xf3
 3939 0158 01       		.uleb128 0x1
 3940 0159 50       		.byte	0x50
 3941 015a 9F       		.byte	0x9f
 3942 015b 00000000 		.4byte	0
 3943 015f 00000000 		.4byte	0
 3944              	.LLST11:
 3945 0163 00000000 		.4byte	.LVL19
 3946 0167 0B000000 		.4byte	.LVL20-1
 3947 016b 0100     		.2byte	0x1
 3948 016d 50       		.byte	0x50
 3949 016e 0B000000 		.4byte	.LVL20-1
 3950 0172 14000000 		.4byte	.LFE277
 3951 0176 0400     		.2byte	0x4
 3952 0178 F3       		.byte	0xf3
 3953 0179 01       		.uleb128 0x1
 3954 017a 50       		.byte	0x50
 3955 017b 9F       		.byte	0x9f
 3956 017c 00000000 		.4byte	0
 3957 0180 00000000 		.4byte	0
 3958              	.LLST12:
 3959 0184 00000000 		.4byte	.LVL19
 3960 0188 0B000000 		.4byte	.LVL20-1
 3961 018c 0100     		.2byte	0x1
 3962 018e 51       		.byte	0x51
 3963 018f 0B000000 		.4byte	.LVL20-1
 3964 0193 14000000 		.4byte	.LFE277
 3965 0197 0400     		.2byte	0x4
 3966 0199 F3       		.byte	0xf3
 3967 019a 01       		.uleb128 0x1
 3968 019b 51       		.byte	0x51
 3969 019c 9F       		.byte	0x9f
 3970 019d 00000000 		.4byte	0
 3971 01a1 00000000 		.4byte	0
 3972              	.LLST13:
 3973 01a5 00000000 		.4byte	.LVL21
 3974 01a9 0B000000 		.4byte	.LVL22-1
 3975 01ad 0100     		.2byte	0x1
 3976 01af 50       		.byte	0x50
 3977 01b0 0B000000 		.4byte	.LVL22-1
 3978 01b4 14000000 		.4byte	.LFE278
 3979 01b8 0400     		.2byte	0x4
 3980 01ba F3       		.byte	0xf3
 3981 01bb 01       		.uleb128 0x1
 3982 01bc 50       		.byte	0x50
 3983 01bd 9F       		.byte	0x9f
 3984 01be 00000000 		.4byte	0
 3985 01c2 00000000 		.4byte	0
 3986              	.LLST14:
 3987 01c6 00000000 		.4byte	.LVL21
 3988 01ca 0B000000 		.4byte	.LVL22-1
 3989 01ce 0100     		.2byte	0x1
 3990 01d0 51       		.byte	0x51
ARM GAS  /var/folders/m4/4md61f0s1_g0rzfghffqnxvr0000gn/T//ccmihYiy.s 			page 71


 3991 01d1 0B000000 		.4byte	.LVL22-1
 3992 01d5 14000000 		.4byte	.LFE278
 3993 01d9 0400     		.2byte	0x4
 3994 01db F3       		.byte	0xf3
 3995 01dc 01       		.uleb128 0x1
 3996 01dd 51       		.byte	0x51
 3997 01de 9F       		.byte	0x9f
 3998 01df 00000000 		.4byte	0
 3999 01e3 00000000 		.4byte	0
 4000              		.section	.debug_aranges,"",%progbits
 4001 0000 6C000000 		.4byte	0x6c
 4002 0004 0200     		.2byte	0x2
 4003 0006 00000000 		.4byte	.Ldebug_info0
 4004 000a 04       		.byte	0x4
 4005 000b 00       		.byte	0
 4006 000c 0000     		.2byte	0
 4007 000e 0000     		.2byte	0
 4008 0010 00000000 		.4byte	.LFB268
 4009 0014 04000000 		.4byte	.LFE268-.LFB268
 4010 0018 00000000 		.4byte	.LFB269
 4011 001c 0E000000 		.4byte	.LFE269-.LFB269
 4012 0020 00000000 		.4byte	.LFB270
 4013 0024 22000000 		.4byte	.LFE270-.LFB270
 4014 0028 00000000 		.4byte	.LFB271
 4015 002c 1C000000 		.4byte	.LFE271-.LFB271
 4016 0030 00000000 		.4byte	.LFB272
 4017 0034 16000000 		.4byte	.LFE272-.LFB272
 4018 0038 00000000 		.4byte	.LFB273
 4019 003c 1E000000 		.4byte	.LFE273-.LFB273
 4020 0040 00000000 		.4byte	.LFB274
 4021 0044 20000000 		.4byte	.LFE274-.LFB274
 4022 0048 00000000 		.4byte	.LFB275
 4023 004c 14000000 		.4byte	.LFE275-.LFB275
 4024 0050 00000000 		.4byte	.LFB276
 4025 0054 14000000 		.4byte	.LFE276-.LFB276
 4026 0058 00000000 		.4byte	.LFB277
 4027 005c 14000000 		.4byte	.LFE277-.LFB277
 4028 0060 00000000 		.4byte	.LFB278
 4029 0064 14000000 		.4byte	.LFE278-.LFB278
 4030 0068 00000000 		.4byte	0
 4031 006c 00000000 		.4byte	0
 4032              		.section	.debug_ranges,"",%progbits
 4033              	.Ldebug_ranges0:
 4034 0000 02000000 		.4byte	.LBB141
 4035 0004 04000000 		.4byte	.LBE141
 4036 0008 06000000 		.4byte	.LBB150
 4037 000c 0A000000 		.4byte	.LBE150
 4038 0010 00000000 		.4byte	0
 4039 0014 00000000 		.4byte	0
 4040 0018 02000000 		.4byte	.LBB157
 4041 001c 04000000 		.4byte	.LBE157
 4042 0020 06000000 		.4byte	.LBB166
 4043 0024 0A000000 		.4byte	.LBE166
 4044 0028 00000000 		.4byte	0
 4045 002c 00000000 		.4byte	0
 4046 0030 00000000 		.4byte	.LFB268
 4047 0034 04000000 		.4byte	.LFE268
ARM GAS  /var/folders/m4/4md61f0s1_g0rzfghffqnxvr0000gn/T//ccmihYiy.s 			page 72


 4048 0038 00000000 		.4byte	.LFB269
 4049 003c 0E000000 		.4byte	.LFE269
 4050 0040 00000000 		.4byte	.LFB270
 4051 0044 22000000 		.4byte	.LFE270
 4052 0048 00000000 		.4byte	.LFB271
 4053 004c 1C000000 		.4byte	.LFE271
 4054 0050 00000000 		.4byte	.LFB272
 4055 0054 16000000 		.4byte	.LFE272
 4056 0058 00000000 		.4byte	.LFB273
 4057 005c 1E000000 		.4byte	.LFE273
 4058 0060 00000000 		.4byte	.LFB274
 4059 0064 20000000 		.4byte	.LFE274
 4060 0068 00000000 		.4byte	.LFB275
 4061 006c 14000000 		.4byte	.LFE275
 4062 0070 00000000 		.4byte	.LFB276
 4063 0074 14000000 		.4byte	.LFE276
 4064 0078 00000000 		.4byte	.LFB277
 4065 007c 14000000 		.4byte	.LFE277
 4066 0080 00000000 		.4byte	.LFB278
 4067 0084 14000000 		.4byte	.LFE278
 4068 0088 00000000 		.4byte	0
 4069 008c 00000000 		.4byte	0
 4070              		.section	.debug_line,"",%progbits
 4071              	.Ldebug_line0:
 4072 0000 27040000 		.section	.debug_str,"MS",%progbits,1
 4072      0200A802 
 4072      00000201 
 4072      FB0E0D00 
 4072      01010101 
 4073              	.LASF169:
 4074 0000 2F557365 		.ascii	"/Users/raphael/Documents/pcb-quadrotor/code\000"
 4074      72732F72 
 4074      61706861 
 4074      656C2F44 
 4074      6F63756D 
 4075              	.LASF48:
 4076 002c 74687265 		.ascii	"threads_list_t\000"
 4076      6164735F 
 4076      6C697374 
 4076      5F7400
 4077              	.LASF128:
 4078 003b 70776D63 		.ascii	"pwmchannel_t\000"
 4078      68616E6E 
 4078      656C5F74 
 4078      00
 4079              	.LASF53:
 4080 0048 72656164 		.ascii	"ready_list_t\000"
 4080      795F6C69 
 4080      73745F74 
 4080      00
 4081              	.LASF118:
 4082 0055 44494552 		.ascii	"DIER\000"
 4082      00
 4083              	.LASF91:
 4084 005a 77747472 		.ascii	"wttrp\000"
 4084      7000
 4085              	.LASF88:
ARM GAS  /var/folders/m4/4md61f0s1_g0rzfghffqnxvr0000gn/T//ccmihYiy.s 			page 73


 4086 0060 7264796D 		.ascii	"rdymsg\000"
 4086      736700
 4087              	.LASF16:
 4088 0067 75696E74 		.ascii	"uint64_t\000"
 4088      36345F74 
 4088      00
 4089              	.LASF5:
 4090 0070 5F5F7569 		.ascii	"__uint8_t\000"
 4090      6E74385F 
 4090      7400
 4091              	.LASF85:
 4092 007a 706F7274 		.ascii	"port_intctx\000"
 4092      5F696E74 
 4092      63747800 
 4093              	.LASF52:
 4094 0086 63685F74 		.ascii	"ch_threads_queue\000"
 4094      68726561 
 4094      64735F71 
 4094      75657565 
 4094      00
 4095              	.LASF72:
 4096 0097 73797374 		.ascii	"system_debug_t\000"
 4096      656D5F64 
 4096      65627567 
 4096      5F7400
 4097              	.LASF137:
 4098 00a6 706F7274 		.ascii	"port_lock\000"
 4098      5F6C6F63 
 4098      6B00
 4099              	.LASF157:
 4100 00b0 70776D45 		.ascii	"pwmEnableChannelNotification\000"
 4100      6E61626C 
 4100      65436861 
 4100      6E6E656C 
 4100      4E6F7469 
 4101              	.LASF12:
 4102 00cd 6C6F6E67 		.ascii	"long long unsigned int\000"
 4102      206C6F6E 
 4102      6720756E 
 4102      7369676E 
 4102      65642069 
 4103              	.LASF89:
 4104 00e4 65786974 		.ascii	"exitcode\000"
 4104      636F6465 
 4104      00
 4105              	.LASF79:
 4106 00ed 6D61696E 		.ascii	"mainthread\000"
 4106      74687265 
 4106      616400
 4107              	.LASF69:
 4108 00f8 76697274 		.ascii	"virtual_timers_list_t\000"
 4108      75616C5F 
 4108      74696D65 
 4108      72735F6C 
 4108      6973745F 
 4109              	.LASF163:
 4110 010e 70776D5F 		.ascii	"pwm_lld_disable_channel\000"
ARM GAS  /var/folders/m4/4md61f0s1_g0rzfghffqnxvr0000gn/T//ccmihYiy.s 			page 74


 4110      6C6C645F 
 4110      64697361 
 4110      626C655F 
 4110      6368616E 
 4111              	.LASF122:
 4112 0126 42445452 		.ascii	"BDTR\000"
 4112      00
 4113              	.LASF134:
 4114 012b 66726571 		.ascii	"frequency\000"
 4114      75656E63 
 4114      7900
 4115              	.LASF30:
 4116 0135 705F7072 		.ascii	"p_prio\000"
 4116      696F00
 4117              	.LASF107:
 4118 013c 50574D5F 		.ascii	"PWM_READY\000"
 4118      52454144 
 4118      5900
 4119              	.LASF146:
 4120 0146 70776D53 		.ascii	"pwmStart\000"
 4120      74617274 
 4120      00
 4121              	.LASF119:
 4122 014f 43434D52 		.ascii	"CCMR1\000"
 4122      3100
 4123              	.LASF120:
 4124 0155 43434D52 		.ascii	"CCMR2\000"
 4124      3200
 4125              	.LASF124:
 4126 015b 43434D52 		.ascii	"CCMR3\000"
 4126      3300
 4127              	.LASF1:
 4128 0161 7369676E 		.ascii	"signed char\000"
 4128      65642063 
 4128      68617200 
 4129              	.LASF150:
 4130 016d 70776D43 		.ascii	"pwmChangePeriod\000"
 4130      68616E67 
 4130      65506572 
 4130      696F6400 
 4131              	.LASF127:
 4132 017d 70776D6D 		.ascii	"pwmmode_t\000"
 4132      6F64655F 
 4132      7400
 4133              	.LASF138:
 4134 0187 706F7274 		.ascii	"port_unlock\000"
 4134      5F756E6C 
 4134      6F636B00 
 4135              	.LASF21:
 4136 0193 74736C69 		.ascii	"tslices_t\000"
 4136      6365735F 
 4136      7400
 4137              	.LASF110:
 4138 019d 73746174 		.ascii	"state\000"
 4138      6500
 4139              	.LASF114:
 4140 01a3 6368616E 		.ascii	"channels\000"
ARM GAS  /var/folders/m4/4md61f0s1_g0rzfghffqnxvr0000gn/T//ccmihYiy.s 			page 75


 4140      6E656C73 
 4140      00
 4141              	.LASF7:
 4142 01ac 6C6F6E67 		.ascii	"long int\000"
 4142      20696E74 
 4142      00
 4143              	.LASF160:
 4144 01b5 70776D5F 		.ascii	"pwm_lld_start\000"
 4144      6C6C645F 
 4144      73746172 
 4144      7400
 4145              	.LASF166:
 4146 01c3 70776D5F 		.ascii	"pwm_lld_enable_channel_notification\000"
 4146      6C6C645F 
 4146      656E6162 
 4146      6C655F63 
 4146      68616E6E 
 4147              	.LASF19:
 4148 01e7 74737461 		.ascii	"tstate_t\000"
 4148      74655F74 
 4148      00
 4149              	.LASF144:
 4150 01f0 70776D49 		.ascii	"pwmInit\000"
 4150      6E697400 
 4151              	.LASF116:
 4152 01f8 70776D63 		.ascii	"pwmcallback_t\000"
 4152      616C6C62 
 4152      61636B5F 
 4152      7400
 4153              	.LASF32:
 4154 0206 705F6E65 		.ascii	"p_newer\000"
 4154      77657200 
 4155              	.LASF96:
 4156 020e 735F7175 		.ascii	"s_queue\000"
 4156      65756500 
 4157              	.LASF4:
 4158 0216 73686F72 		.ascii	"short unsigned int\000"
 4158      7420756E 
 4158      7369676E 
 4158      65642069 
 4158      6E7400
 4159              	.LASF58:
 4160 0229 725F6E65 		.ascii	"r_newer\000"
 4160      77657200 
 4161              	.LASF46:
 4162 0231 705F6D70 		.ascii	"p_mpool\000"
 4162      6F6F6C00 
 4163              	.LASF82:
 4164 0239 72656761 		.ascii	"regarm_t\000"
 4164      726D5F74 
 4164      00
 4165              	.LASF65:
 4166 0242 76745F70 		.ascii	"vt_prev\000"
 4166      72657600 
 4167              	.LASF78:
 4168 024a 76746C69 		.ascii	"vtlist\000"
 4168      737400
ARM GAS  /var/folders/m4/4md61f0s1_g0rzfghffqnxvr0000gn/T//ccmihYiy.s 			page 76


 4169              	.LASF142:
 4170 0251 6F73616C 		.ascii	"osalSysLock\000"
 4170      5379734C 
 4170      6F636B00 
 4171              	.LASF10:
 4172 025d 6C6F6E67 		.ascii	"long long int\000"
 4172      206C6F6E 
 4172      6720696E 
 4172      7400
 4173              	.LASF170:
 4174 026b 76616C75 		.ascii	"value\000"
 4174      6500
 4175              	.LASF80:
 4176 0271 69646C65 		.ascii	"idle_thread_wa\000"
 4176      5F746872 
 4176      6561645F 
 4176      776100
 4177              	.LASF25:
 4178 0280 636E745F 		.ascii	"cnt_t\000"
 4178      7400
 4179              	.LASF0:
 4180 0286 756E7369 		.ascii	"unsigned int\000"
 4180      676E6564 
 4180      20696E74 
 4180      00
 4181              	.LASF64:
 4182 0293 76745F6E 		.ascii	"vt_next\000"
 4182      65787400 
 4183              	.LASF39:
 4184 029b 705F7469 		.ascii	"p_time\000"
 4184      6D6500
 4185              	.LASF92:
 4186 02a2 77747365 		.ascii	"wtsemp\000"
 4186      6D7000
 4187              	.LASF66:
 4188 02a9 76745F64 		.ascii	"vt_delta\000"
 4188      656C7461 
 4188      00
 4189              	.LASF41:
 4190 02b2 705F6D73 		.ascii	"p_msgqueue\000"
 4190      67717565 
 4190      756500
 4191              	.LASF164:
 4192 02bd 70776D5F 		.ascii	"pwm_lld_enable_periodic_notification\000"
 4192      6C6C645F 
 4192      656E6162 
 4192      6C655F70 
 4192      6572696F 
 4193              	.LASF49:
 4194 02e2 63685F74 		.ascii	"ch_thread\000"
 4194      68726561 
 4194      6400
 4195              	.LASF153:
 4196 02ec 77696474 		.ascii	"width\000"
 4196      6800
 4197              	.LASF117:
 4198 02f2 534D4352 		.ascii	"SMCR\000"
ARM GAS  /var/folders/m4/4md61f0s1_g0rzfghffqnxvr0000gn/T//ccmihYiy.s 			page 77


 4198      00
 4199              	.LASF23:
 4200 02f7 6D73675F 		.ascii	"msg_t\000"
 4200      7400
 4201              	.LASF50:
 4202 02fd 63685F74 		.ascii	"ch_threads_list\000"
 4202      68726561 
 4202      64735F6C 
 4202      69737400 
 4203              	.LASF154:
 4204 030d 70776D44 		.ascii	"pwmDisableChannel\000"
 4204      69736162 
 4204      6C654368 
 4204      616E6E65 
 4204      6C00
 4205              	.LASF75:
 4206 031f 63685F73 		.ascii	"ch_system_t\000"
 4206      79737465 
 4206      6D5F7400 
 4207              	.LASF132:
 4208 032b 63616C6C 		.ascii	"callback\000"
 4208      6261636B 
 4208      00
 4209              	.LASF126:
 4210 0334 73746D33 		.ascii	"stm32_tim_t\000"
 4210      325F7469 
 4210      6D5F7400 
 4211              	.LASF54:
 4212 0340 63685F72 		.ascii	"ch_ready_list\000"
 4212      65616479 
 4212      5F6C6973 
 4212      7400
 4213              	.LASF24:
 4214 034e 6576656E 		.ascii	"eventmask_t\000"
 4214      746D6173 
 4214      6B5F7400 
 4215              	.LASF172:
 4216 035a 70776D5F 		.ascii	"pwm_lld_disable_channel_notification\000"
 4216      6C6C645F 
 4216      64697361 
 4216      626C655F 
 4216      6368616E 
 4217              	.LASF6:
 4218 037f 5F5F696E 		.ascii	"__int32_t\000"
 4218      7433325F 
 4218      7400
 4219              	.LASF147:
 4220 0389 70776D70 		.ascii	"pwmp\000"
 4220      00
 4221              	.LASF83:
 4222 038e 73746B61 		.ascii	"stkalign_t\000"
 4222      6C69676E 
 4222      5F7400
 4223              	.LASF103:
 4224 0399 6D757465 		.ascii	"mutex_t\000"
 4224      785F7400 
 4225              	.LASF108:
ARM GAS  /var/folders/m4/4md61f0s1_g0rzfghffqnxvr0000gn/T//ccmihYiy.s 			page 78


 4226 03a1 70776D73 		.ascii	"pwmstate_t\000"
 4226      74617465 
 4226      5F7400
 4227              	.LASF167:
 4228 03ac 474E5520 		.ascii	"GNU C 4.9.3 20150529 (release) [ARM/embedded-4_9-br"
 4228      4320342E 
 4228      392E3320 
 4228      32303135 
 4228      30353239 
 4229 03df 616E6368 		.ascii	"anch revision 224288] -mcpu=cortex-m4 -mfloat-abi=h"
 4229      20726576 
 4229      6973696F 
 4229      6E203232 
 4229      34323838 
 4230 0412 61726420 		.ascii	"ard -mfpu=fpv4-sp-d16 -mno-thumb-interwork -mthumb "
 4230      2D6D6670 
 4230      753D6670 
 4230      76342D73 
 4230      702D6431 
 4231 0445 2D676764 		.ascii	"-ggdb -O2 -std=gnu99 -fomit-frame-pointer -falign-f"
 4231      62202D4F 
 4231      32202D73 
 4231      74643D67 
 4231      6E753939 
 4232 0478 756E6374 		.ascii	"unctions=16 -ffunction-sections -fdata-sections -fn"
 4232      696F6E73 
 4232      3D313620 
 4232      2D666675 
 4232      6E637469 
 4233 04ab 6F2D636F 		.ascii	"o-common -fsingle-precision-constant\000"
 4233      6D6D6F6E 
 4233      202D6673 
 4233      696E676C 
 4233      652D7072 
 4234              	.LASF40:
 4235 04d0 705F7761 		.ascii	"p_waiting\000"
 4235      6974696E 
 4235      6700
 4236              	.LASF148:
 4237 04da 70776D53 		.ascii	"pwmStop\000"
 4237      746F7000 
 4238              	.LASF81:
 4239 04e2 73697A65 		.ascii	"sizetype\000"
 4239      74797065 
 4239      00
 4240              	.LASF47:
 4241 04eb 74687265 		.ascii	"thread_reference_t\000"
 4241      61645F72 
 4241      65666572 
 4241      656E6365 
 4241      5F7400
 4242              	.LASF70:
 4243 04fe 63685F76 		.ascii	"ch_virtual_timers_list\000"
 4243      69727475 
 4243      616C5F74 
 4243      696D6572 
 4243      735F6C69 
ARM GAS  /var/folders/m4/4md61f0s1_g0rzfghffqnxvr0000gn/T//ccmihYiy.s 			page 79


 4244              	.LASF156:
 4245 0515 70776D44 		.ascii	"pwmDisablePeriodicNotification\000"
 4245      69736162 
 4245      6C655065 
 4245      72696F64 
 4245      69634E6F 
 4246              	.LASF145:
 4247 0534 70776D4F 		.ascii	"pwmObjectInit\000"
 4247      626A6563 
 4247      74496E69 
 4247      7400
 4248              	.LASF43:
 4249 0542 705F6570 		.ascii	"p_epending\000"
 4249      656E6469 
 4249      6E6700
 4250              	.LASF33:
 4251 054d 705F6F6C 		.ascii	"p_older\000"
 4251      64657200 
 4252              	.LASF171:
 4253 0555 70776D5F 		.ascii	"pwm_lld_init\000"
 4253      6C6C645F 
 4253      696E6974 
 4253      00
 4254              	.LASF57:
 4255 0562 725F6374 		.ascii	"r_ctx\000"
 4255      7800
 4256              	.LASF87:
 4257 0568 746D5F63 		.ascii	"tm_calibration_t\000"
 4257      616C6962 
 4257      72617469 
 4257      6F6E5F74 
 4257      00
 4258              	.LASF60:
 4259 0579 725F6375 		.ascii	"r_current\000"
 4259      7272656E 
 4259      7400
 4260              	.LASF59:
 4261 0583 725F6F6C 		.ascii	"r_older\000"
 4261      64657200 
 4262              	.LASF11:
 4263 058b 5F5F7569 		.ascii	"__uint64_t\000"
 4263      6E743634 
 4263      5F7400
 4264              	.LASF165:
 4265 0596 70776D5F 		.ascii	"pwm_lld_disable_periodic_notification\000"
 4265      6C6C645F 
 4265      64697361 
 4265      626C655F 
 4265      70657269 
 4266              	.LASF20:
 4267 05bc 74726566 		.ascii	"trefs_t\000"
 4267      735F7400 
 4268              	.LASF62:
 4269 05c4 76697274 		.ascii	"virtual_timer_t\000"
 4269      75616C5F 
 4269      74696D65 
 4269      725F7400 
ARM GAS  /var/folders/m4/4md61f0s1_g0rzfghffqnxvr0000gn/T//ccmihYiy.s 			page 80


 4270              	.LASF29:
 4271 05d4 705F7072 		.ascii	"p_prev\000"
 4271      657600
 4272              	.LASF22:
 4273 05db 74707269 		.ascii	"tprio_t\000"
 4273      6F5F7400 
 4274              	.LASF73:
 4275 05e3 63685F73 		.ascii	"ch_system_debug\000"
 4275      79737465 
 4275      6D5F6465 
 4275      62756700 
 4276              	.LASF104:
 4277 05f3 5F426F6F 		.ascii	"_Bool\000"
 4277      6C00
 4278              	.LASF14:
 4279 05f9 696E7433 		.ascii	"int32_t\000"
 4279      325F7400 
 4280              	.LASF2:
 4281 0601 756E7369 		.ascii	"unsigned char\000"
 4281      676E6564 
 4281      20636861 
 4281      7200
 4282              	.LASF99:
 4283 060f 6D5F7175 		.ascii	"m_queue\000"
 4283      65756500 
 4284              	.LASF159:
 4285 0617 49544D5F 		.ascii	"ITM_RxBuffer\000"
 4285      52784275 
 4285      66666572 
 4285      00
 4286              	.LASF97:
 4287 0624 735F636E 		.ascii	"s_cnt\000"
 4287      7400
 4288              	.LASF44:
 4289 062a 705F6D74 		.ascii	"p_mtxlist\000"
 4289      786C6973 
 4289      7400
 4290              	.LASF3:
 4291 0634 73686F72 		.ascii	"short int\000"
 4291      7420696E 
 4291      7400
 4292              	.LASF35:
 4293 063e 705F7374 		.ascii	"p_state\000"
 4293      61746500 
 4294              	.LASF38:
 4295 0646 705F7072 		.ascii	"p_preempt\000"
 4295      65656D70 
 4295      7400
 4296              	.LASF56:
 4297 0650 725F7072 		.ascii	"r_prio\000"
 4297      696F00
 4298              	.LASF94:
 4299 0657 65776D61 		.ascii	"ewmask\000"
 4299      736B00
 4300              	.LASF28:
 4301 065e 705F6E65 		.ascii	"p_next\000"
 4301      787400
ARM GAS  /var/folders/m4/4md61f0s1_g0rzfghffqnxvr0000gn/T//ccmihYiy.s 			page 81


 4302              	.LASF129:
 4303 0665 70776D63 		.ascii	"pwmchnmsk_t\000"
 4303      686E6D73 
 4303      6B5F7400 
 4304              	.LASF36:
 4305 0671 705F666C 		.ascii	"p_flags\000"
 4305      61677300 
 4306              	.LASF149:
 4307 0679 5F5F6675 		.ascii	"__func__\000"
 4307      6E635F5F 
 4307      00
 4308              	.LASF139:
 4309 0682 63685379 		.ascii	"chSysLock\000"
 4309      734C6F63 
 4309      6B00
 4310              	.LASF76:
 4311 068c 63685F73 		.ascii	"ch_system\000"
 4311      79737465 
 4311      6D00
 4312              	.LASF143:
 4313 0696 6F73616C 		.ascii	"osalSysUnlock\000"
 4313      53797355 
 4313      6E6C6F63 
 4313      6B00
 4314              	.LASF152:
 4315 06a4 6368616E 		.ascii	"channel\000"
 4315      6E656C00 
 4316              	.LASF63:
 4317 06ac 63685F76 		.ascii	"ch_virtual_timer\000"
 4317      69727475 
 4317      616C5F74 
 4317      696D6572 
 4317      00
 4318              	.LASF95:
 4319 06bd 63685F73 		.ascii	"ch_semaphore\000"
 4319      656D6170 
 4319      686F7265 
 4319      00
 4320              	.LASF125:
 4321 06ca 43435852 		.ascii	"CCXR\000"
 4321      00
 4322              	.LASF161:
 4323 06cf 70776D5F 		.ascii	"pwm_lld_stop\000"
 4323      6C6C645F 
 4323      73746F70 
 4323      00
 4324              	.LASF15:
 4325 06dc 75696E74 		.ascii	"uint32_t\000"
 4325      33325F74 
 4325      00
 4326              	.LASF93:
 4327 06e5 77746D74 		.ascii	"wtmtxp\000"
 4327      787000
 4328              	.LASF55:
 4329 06ec 725F7175 		.ascii	"r_queue\000"
 4329      65756500 
 4330              	.LASF113:
ARM GAS  /var/folders/m4/4md61f0s1_g0rzfghffqnxvr0000gn/T//ccmihYiy.s 			page 82


 4331 06f4 656E6162 		.ascii	"enabled\000"
 4331      6C656400 
 4332              	.LASF9:
 4333 06fc 6C6F6E67 		.ascii	"long unsigned int\000"
 4333      20756E73 
 4333      69676E65 
 4333      6420696E 
 4333      7400
 4334              	.LASF162:
 4335 070e 70776D5F 		.ascii	"pwm_lld_enable_channel\000"
 4335      6C6C645F 
 4335      656E6162 
 4335      6C655F63 
 4335      68616E6E 
 4336              	.LASF106:
 4337 0725 50574D5F 		.ascii	"PWM_STOP\000"
 4337      53544F50 
 4337      00
 4338              	.LASF102:
 4339 072e 63686172 		.ascii	"char\000"
 4339      00
 4340              	.LASF131:
 4341 0733 6D6F6465 		.ascii	"mode\000"
 4341      00
 4342              	.LASF111:
 4343 0738 636F6E66 		.ascii	"config\000"
 4343      696700
 4344              	.LASF123:
 4345 073f 444D4152 		.ascii	"DMAR\000"
 4345      00
 4346              	.LASF27:
 4347 0744 74687265 		.ascii	"thread_t\000"
 4347      61645F74 
 4347      00
 4348              	.LASF121:
 4349 074d 43434552 		.ascii	"CCER\000"
 4349      00
 4350              	.LASF101:
 4351 0752 6D5F6E65 		.ascii	"m_next\000"
 4351      787400
 4352              	.LASF26:
 4353 0759 73797374 		.ascii	"systime_t\000"
 4353      696D655F 
 4353      7400
 4354              	.LASF45:
 4355 0763 705F7265 		.ascii	"p_realprio\000"
 4355      616C7072 
 4355      696F00
 4356              	.LASF61:
 4357 076e 76746675 		.ascii	"vtfunc_t\000"
 4357      6E635F74 
 4357      00
 4358              	.LASF8:
 4359 0777 5F5F7569 		.ascii	"__uint32_t\000"
 4359      6E743332 
 4359      5F7400
 4360              	.LASF140:
ARM GAS  /var/folders/m4/4md61f0s1_g0rzfghffqnxvr0000gn/T//ccmihYiy.s 			page 83


 4361 0782 5F5F7365 		.ascii	"__set_BASEPRI\000"
 4361      745F4241 
 4361      53455052 
 4361      4900
 4362              	.LASF155:
 4363 0790 70776D45 		.ascii	"pwmEnablePeriodicNotification\000"
 4363      6E61626C 
 4363      65506572 
 4363      696F6469 
 4363      634E6F74 
 4364              	.LASF112:
 4365 07ae 70657269 		.ascii	"period\000"
 4365      6F6400
 4366              	.LASF74:
 4367 07b5 70616E69 		.ascii	"panic_msg\000"
 4367      635F6D73 
 4367      6700
 4368              	.LASF86:
 4369 07bf 6F666673 		.ascii	"offset\000"
 4369      657400
 4370              	.LASF84:
 4371 07c6 636F6E74 		.ascii	"context\000"
 4371      65787400 
 4372              	.LASF133:
 4373 07ce 50574D43 		.ascii	"PWMChannelConfig\000"
 4373      68616E6E 
 4373      656C436F 
 4373      6E666967 
 4373      00
 4374              	.LASF17:
 4375 07df 7274636E 		.ascii	"rtcnt_t\000"
 4375      745F7400 
 4376              	.LASF68:
 4377 07e7 76745F70 		.ascii	"vt_par\000"
 4377      617200
 4378              	.LASF136:
 4379 07ee 50574D43 		.ascii	"PWMConfig\000"
 4379      6F6E6669 
 4379      6700
 4380              	.LASF51:
 4381 07f8 74687265 		.ascii	"threads_queue_t\000"
 4381      6164735F 
 4381      71756575 
 4381      655F7400 
 4382              	.LASF98:
 4383 0808 63685F6D 		.ascii	"ch_mutex\000"
 4383      75746578 
 4383      00
 4384              	.LASF37:
 4385 0811 705F7265 		.ascii	"p_refs\000"
 4385      667300
 4386              	.LASF77:
 4387 0818 726C6973 		.ascii	"rlist\000"
 4387      7400
 4388              	.LASF13:
 4389 081e 75696E74 		.ascii	"uint8_t\000"
 4389      385F7400 
ARM GAS  /var/folders/m4/4md61f0s1_g0rzfghffqnxvr0000gn/T//ccmihYiy.s 			page 84


 4390              	.LASF158:
 4391 0826 70776D44 		.ascii	"pwmDisableChannelNotification\000"
 4391      69736162 
 4391      6C654368 
 4391      616E6E65 
 4391      6C4E6F74 
 4392              	.LASF109:
 4393 0844 50574D44 		.ascii	"PWMDriver\000"
 4393      72697665 
 4393      7200
 4394              	.LASF168:
 4395 084e 43686962 		.ascii	"ChibiOS_16.1.4/os/hal/src/pwm.c\000"
 4395      694F535F 
 4395      31362E31 
 4395      2E342F6F 
 4395      732F6861 
 4396              	.LASF130:
 4397 086e 70776D63 		.ascii	"pwmcnt_t\000"
 4397      6E745F74 
 4397      00
 4398              	.LASF90:
 4399 0877 77746F62 		.ascii	"wtobjp\000"
 4399      6A7000
 4400              	.LASF34:
 4401 087e 705F6E61 		.ascii	"p_name\000"
 4401      6D6500
 4402              	.LASF71:
 4403 0885 76745F73 		.ascii	"vt_systime\000"
 4403      79737469 
 4403      6D6500
 4404              	.LASF18:
 4405 0890 746D6F64 		.ascii	"tmode_t\000"
 4405      655F7400 
 4406              	.LASF141:
 4407 0898 63685379 		.ascii	"chSysUnlock\000"
 4407      73556E6C 
 4407      6F636B00 
 4408              	.LASF42:
 4409 08a4 705F6D73 		.ascii	"p_msg\000"
 4409      6700
 4410              	.LASF115:
 4411 08aa 636C6F63 		.ascii	"clock\000"
 4411      6B00
 4412              	.LASF105:
 4413 08b0 50574D5F 		.ascii	"PWM_UNINIT\000"
 4413      554E494E 
 4413      495400
 4414              	.LASF100:
 4415 08bb 6D5F6F77 		.ascii	"m_owner\000"
 4415      6E657200 
 4416              	.LASF151:
 4417 08c3 70776D45 		.ascii	"pwmEnableChannel\000"
 4417      6E61626C 
 4417      65436861 
 4417      6E6E656C 
 4417      00
 4418              	.LASF31:
ARM GAS  /var/folders/m4/4md61f0s1_g0rzfghffqnxvr0000gn/T//ccmihYiy.s 			page 85


 4419 08d4 705F6374 		.ascii	"p_ctx\000"
 4419      7800
 4420              	.LASF67:
 4421 08da 76745F66 		.ascii	"vt_func\000"
 4421      756E6300 
 4422              	.LASF135:
 4423 08e2 64696572 		.ascii	"dier\000"
 4423      00
 4424              		.ident	"GCC: (GNU Tools for ARM Embedded Processors) 4.9.3 20150529 (release) [ARM/embedded-4_9-br
ARM GAS  /var/folders/m4/4md61f0s1_g0rzfghffqnxvr0000gn/T//ccmihYiy.s 			page 86


DEFINED SYMBOLS
                            *ABS*:0000000000000000 pwm.c
/var/folders/m4/4md61f0s1_g0rzfghffqnxvr0000gn/T//ccmihYiy.s:21     .text.pwmInit:0000000000000000 $t
/var/folders/m4/4md61f0s1_g0rzfghffqnxvr0000gn/T//ccmihYiy.s:27     .text.pwmInit:0000000000000000 pwmInit
/var/folders/m4/4md61f0s1_g0rzfghffqnxvr0000gn/T//ccmihYiy.s:42     .text.pwmObjectInit:0000000000000000 $t
/var/folders/m4/4md61f0s1_g0rzfghffqnxvr0000gn/T//ccmihYiy.s:48     .text.pwmObjectInit:0000000000000000 pwmObjectInit
/var/folders/m4/4md61f0s1_g0rzfghffqnxvr0000gn/T//ccmihYiy.s:72     .text.pwmStart:0000000000000000 $t
/var/folders/m4/4md61f0s1_g0rzfghffqnxvr0000gn/T//ccmihYiy.s:78     .text.pwmStart:0000000000000000 pwmStart
/var/folders/m4/4md61f0s1_g0rzfghffqnxvr0000gn/T//ccmihYiy.s:158    .text.pwmStop:0000000000000000 $t
/var/folders/m4/4md61f0s1_g0rzfghffqnxvr0000gn/T//ccmihYiy.s:164    .text.pwmStop:0000000000000000 pwmStop
/var/folders/m4/4md61f0s1_g0rzfghffqnxvr0000gn/T//ccmihYiy.s:238    .text.pwmChangePeriod:0000000000000000 $t
/var/folders/m4/4md61f0s1_g0rzfghffqnxvr0000gn/T//ccmihYiy.s:244    .text.pwmChangePeriod:0000000000000000 pwmChangePeriod
/var/folders/m4/4md61f0s1_g0rzfghffqnxvr0000gn/T//ccmihYiy.s:298    .text.pwmEnableChannel:0000000000000000 $t
/var/folders/m4/4md61f0s1_g0rzfghffqnxvr0000gn/T//ccmihYiy.s:304    .text.pwmEnableChannel:0000000000000000 pwmEnableChannel
/var/folders/m4/4md61f0s1_g0rzfghffqnxvr0000gn/T//ccmihYiy.s:364    .text.pwmDisableChannel:0000000000000000 $t
/var/folders/m4/4md61f0s1_g0rzfghffqnxvr0000gn/T//ccmihYiy.s:370    .text.pwmDisableChannel:0000000000000000 pwmDisableChannel
/var/folders/m4/4md61f0s1_g0rzfghffqnxvr0000gn/T//ccmihYiy.s:430    .text.pwmEnablePeriodicNotification:0000000000000000 $t
/var/folders/m4/4md61f0s1_g0rzfghffqnxvr0000gn/T//ccmihYiy.s:436    .text.pwmEnablePeriodicNotification:0000000000000000 pwmEnablePeriodicNotification
/var/folders/m4/4md61f0s1_g0rzfghffqnxvr0000gn/T//ccmihYiy.s:489    .text.pwmDisablePeriodicNotification:0000000000000000 $t
/var/folders/m4/4md61f0s1_g0rzfghffqnxvr0000gn/T//ccmihYiy.s:495    .text.pwmDisablePeriodicNotification:0000000000000000 pwmDisablePeriodicNotification
/var/folders/m4/4md61f0s1_g0rzfghffqnxvr0000gn/T//ccmihYiy.s:548    .text.pwmEnableChannelNotification:0000000000000000 $t
/var/folders/m4/4md61f0s1_g0rzfghffqnxvr0000gn/T//ccmihYiy.s:554    .text.pwmEnableChannelNotification:0000000000000000 pwmEnableChannelNotification
/var/folders/m4/4md61f0s1_g0rzfghffqnxvr0000gn/T//ccmihYiy.s:607    .text.pwmDisableChannelNotification:0000000000000000 $t
/var/folders/m4/4md61f0s1_g0rzfghffqnxvr0000gn/T//ccmihYiy.s:613    .text.pwmDisableChannelNotification:0000000000000000 pwmDisableChannelNotification
                     .debug_frame:0000000000000010 $d

UNDEFINED SYMBOLS
pwm_lld_init
pwm_lld_start
pwm_lld_stop
pwm_lld_enable_channel
pwm_lld_disable_channel
pwm_lld_enable_periodic_notification
pwm_lld_disable_periodic_notification
pwm_lld_enable_channel_notification
pwm_lld_disable_channel_notification
