ARM GAS  /var/folders/m4/4md61f0s1_g0rzfghffqnxvr0000gn/T//ccD1WRxm.s 			page 1


   1              		.syntax unified
   2              		.cpu cortex-m4
   3              		.eabi_attribute 27, 1
   4              		.eabi_attribute 28, 1
   5              		.fpu fpv4-sp-d16
   6              		.eabi_attribute 20, 1
   7              		.eabi_attribute 21, 1
   8              		.eabi_attribute 23, 3
   9              		.eabi_attribute 24, 1
  10              		.eabi_attribute 25, 1
  11              		.eabi_attribute 26, 1
  12              		.eabi_attribute 30, 2
  13              		.eabi_attribute 34, 1
  14              		.eabi_attribute 18, 4
  15              		.thumb
  16              		.file	"pwm_lld.c"
  17              		.text
  18              	.Ltext0:
  19              		.cfi_sections	.debug_frame
  20              		.section	.text.pwm_lld_init,"ax",%progbits
  21              		.align	2
  22              		.p2align 4,,15
  23              		.global	pwm_lld_init
  24              		.thumb
  25              		.thumb_func
  26              		.type	pwm_lld_init, %function
  27              	pwm_lld_init:
  28              	.LFB269:
  29              		.file 1 "ChibiOS_16.1.4/os/hal/ports/STM32/LLD/TIMv1/pwm_lld.c"
  30              		.loc 1 307 0
  31              		.cfi_startproc
  32              		@ args = 0, pretend = 0, frame = 0
  33              		@ frame_needed = 0, uses_anonymous_args = 0
  34 0000 10B5     		push	{r4, lr}
  35              		.cfi_def_cfa_offset 8
  36              		.cfi_offset 4, -8
  37              		.cfi_offset 14, -4
  38              		.loc 1 339 0
  39 0002 044C     		ldr	r4, .L3
  40 0004 2046     		mov	r0, r4
  41 0006 FFF7FEFF 		bl	pwmObjectInit
  42              	.LVL0:
  43              		.loc 1 340 0
  44 000a 0422     		movs	r2, #4
  45              		.loc 1 341 0
  46 000c 024B     		ldr	r3, .L3+4
  47              		.loc 1 340 0
  48 000e 2274     		strb	r2, [r4, #16]
  49              		.loc 1 341 0
  50 0010 A361     		str	r3, [r4, #24]
  51 0012 10BD     		pop	{r4, pc}
  52              	.L4:
  53              		.align	2
  54              	.L3:
  55 0014 00000000 		.word	.LANCHOR0
  56 0018 000C0040 		.word	1073744896
  57              		.cfi_endproc
ARM GAS  /var/folders/m4/4md61f0s1_g0rzfghffqnxvr0000gn/T//ccD1WRxm.s 			page 2


  58              	.LFE269:
  59              		.size	pwm_lld_init, .-pwm_lld_init
  60              		.section	.text.pwm_lld_start,"ax",%progbits
  61              		.align	2
  62              		.p2align 4,,15
  63              		.global	pwm_lld_start
  64              		.thumb
  65              		.thumb_func
  66              		.type	pwm_lld_start, %function
  67              	pwm_lld_start:
  68              	.LFB270:
  69              		.loc 1 368 0
  70              		.cfi_startproc
  71              		@ args = 0, pretend = 0, frame = 0
  72              		@ frame_needed = 0, uses_anonymous_args = 0
  73              	.LVL1:
  74 0000 F8B5     		push	{r3, r4, r5, r6, r7, lr}
  75              		.cfi_def_cfa_offset 24
  76              		.cfi_offset 3, -24
  77              		.cfi_offset 4, -20
  78              		.cfi_offset 5, -16
  79              		.cfi_offset 6, -12
  80              		.cfi_offset 7, -8
  81              		.cfi_offset 14, -4
  82              		.loc 1 372 0
  83 0002 0378     		ldrb	r3, [r0]	@ zero_extendqisi2
  84 0004 012B     		cmp	r3, #1
  85              		.loc 1 368 0
  86 0006 0446     		mov	r4, r0
  87              		.loc 1 372 0
  88 0008 4BD0     		beq	.L34
  89              		.loc 1 494 0
  90 000a 8369     		ldr	r3, [r0, #24]
  91 000c 0022     		movs	r2, #0
  92 000e 1A60     		str	r2, [r3]
  93              		.loc 1 495 0
  94 0010 5A63     		str	r2, [r3, #52]
  95              		.loc 1 496 0
  96 0012 9A63     		str	r2, [r3, #56]
  97              		.loc 1 497 0
  98 0014 DA63     		str	r2, [r3, #60]
  99              		.loc 1 498 0
 100 0016 1A64     		str	r2, [r3, #64]
 101              		.loc 1 505 0
 102 0018 5A62     		str	r2, [r3, #36]
 103              	.LVL2:
 104              	.L8:
 105              		.loc 1 509 0
 106 001a 6168     		ldr	r1, [r4, #4]
 107              		.loc 1 514 0
 108 001c A568     		ldr	r5, [r4, #8]
 109              		.loc 1 519 0
 110 001e CA68     		ldr	r2, [r1, #12]
 111              		.loc 1 509 0
 112 0020 6069     		ldr	r0, [r4, #20]
 113 0022 0F68     		ldr	r7, [r1]
 114              		.loc 1 515 0
ARM GAS  /var/folders/m4/4md61f0s1_g0rzfghffqnxvr0000gn/T//ccD1WRxm.s 			page 3


 115 0024 CE6A     		ldr	r6, [r1, #44]
 116              		.loc 1 509 0
 117 0026 B0FBF7F0 		udiv	r0, r0, r7
 118              		.loc 1 519 0
 119 002a 02F00F02 		and	r2, r2, #15
 120              		.loc 1 514 0
 121 002e 6C1E     		subs	r4, r5, #1
 122              	.LVL3:
 123              		.loc 1 509 0
 124 0030 0138     		subs	r0, r0, #1
 125              	.LVL4:
 126              		.loc 1 519 0
 127 0032 012A     		cmp	r2, #1
 128              		.loc 1 513 0
 129 0034 9862     		str	r0, [r3, #40]
 130              		.loc 1 514 0
 131 0036 DC62     		str	r4, [r3, #44]
 132              		.loc 1 515 0
 133 0038 5E60     		str	r6, [r3, #4]
 134              	.LVL5:
 135              		.loc 1 519 0
 136 003a 03D0     		beq	.L9
 137              		.loc 1 518 0
 138 003c 022A     		cmp	r2, #2
 139 003e 0CBF     		ite	eq
 140 0040 0322     		moveq	r2, #3
 141 0042 0022     		movne	r2, #0
 142              	.L9:
 143              	.LVL6:
 144              		.loc 1 527 0
 145 0044 4869     		ldr	r0, [r1, #20]
 146              	.LVL7:
 147 0046 00F00F00 		and	r0, r0, #15
 148 004a 0128     		cmp	r0, #1
 149 004c 26D0     		beq	.L13
 150 004e 0228     		cmp	r0, #2
 151 0050 22D0     		beq	.L35
 152              	.L12:
 153              		.loc 1 535 0
 154 0052 C869     		ldr	r0, [r1, #28]
 155 0054 00F00F00 		and	r0, r0, #15
 156 0058 0128     		cmp	r0, #1
 157 005a 1AD0     		beq	.L16
 158 005c 0228     		cmp	r0, #2
 159 005e 16D0     		beq	.L36
 160              	.L15:
 161              		.loc 1 543 0
 162 0060 486A     		ldr	r0, [r1, #36]
 163 0062 00F00F00 		and	r0, r0, #15
 164 0066 0128     		cmp	r0, #1
 165 0068 03D0     		beq	.L19
 166 006a 0228     		cmp	r0, #2
 167 006c 03D1     		bne	.L18
 168              		.loc 1 545 0
 169 006e 42F40052 		orr	r2, r2, #8192
 170              	.LVL8:
 171              	.L19:
ARM GAS  /var/folders/m4/4md61f0s1_g0rzfghffqnxvr0000gn/T//ccD1WRxm.s 			page 4


 172              		.loc 1 547 0
 173 0072 42F48052 		orr	r2, r2, #4096
 174              	.LVL9:
 175              	.L18:
 176              		.loc 1 591 0
 177 0076 096B     		ldr	r1, [r1, #48]
 178              		.loc 1 588 0
 179 0078 1A62     		str	r2, [r3, #32]
 180              		.loc 1 589 0
 181 007a 0124     		movs	r4, #1
 182              		.loc 1 591 0
 183 007c 21F0FF02 		bic	r2, r1, #255
 184              	.LVL10:
 185              		.loc 1 590 0
 186 0080 0020     		movs	r0, #0
 187              		.loc 1 601 0
 188 0082 8521     		movs	r1, #133
 189              		.loc 1 589 0
 190 0084 5C61     		str	r4, [r3, #20]
 191              	.LVL11:
 192              		.loc 1 590 0
 193 0086 1861     		str	r0, [r3, #16]
 194              		.loc 1 591 0
 195 0088 DA60     		str	r2, [r3, #12]
 196              		.loc 1 601 0
 197 008a 1960     		str	r1, [r3]
 198 008c F8BD     		pop	{r3, r4, r5, r6, r7, pc}
 199              	.LVL12:
 200              	.L36:
 201              		.loc 1 537 0
 202 008e 42F40072 		orr	r2, r2, #512
 203              	.LVL13:
 204              	.L16:
 205              		.loc 1 539 0
 206 0092 42F48072 		orr	r2, r2, #256
 207              	.LVL14:
 208 0096 E3E7     		b	.L15
 209              	.L35:
 210              		.loc 1 529 0
 211 0098 42F02002 		orr	r2, r2, #32
 212              	.LVL15:
 213              	.L13:
 214              		.loc 1 531 0
 215 009c 42F01002 		orr	r2, r2, #16
 216              	.LVL16:
 217 00a0 D7E7     		b	.L12
 218              	.LVL17:
 219              	.L34:
 220              		.loc 1 436 0
 221 00a2 0D4B     		ldr	r3, .L38
 222 00a4 9842     		cmp	r0, r3
 223 00a6 05D0     		beq	.L37
 224              	.LVL18:
 225              	.L7:
 226              		.loc 1 483 0
 227 00a8 A369     		ldr	r3, [r4, #24]
 228 00aa 46F66802 		movw	r2, #26728
ARM GAS  /var/folders/m4/4md61f0s1_g0rzfghffqnxvr0000gn/T//ccD1WRxm.s 			page 5


 229 00ae 9A61     		str	r2, [r3, #24]
 230              		.loc 1 485 0
 231 00b0 DA61     		str	r2, [r3, #28]
 232 00b2 B2E7     		b	.L8
 233              	.LVL19:
 234              	.L37:
 235              		.loc 1 437 0
 236 00b4 094B     		ldr	r3, .L38+4
 237 00b6 1A6C     		ldr	r2, [r3, #64]
 238 00b8 42F00802 		orr	r2, r2, #8
 239 00bc 1A64     		str	r2, [r3, #64]
 240              		.loc 1 438 0
 241 00be 1A6A     		ldr	r2, [r3, #32]
 242 00c0 0021     		movs	r1, #0
 243 00c2 42F00802 		orr	r2, r2, #8
 244 00c6 1A62     		str	r2, [r3, #32]
 245              		.loc 1 440 0
 246 00c8 3220     		movs	r0, #50
 247              	.LVL20:
 248              		.loc 1 438 0
 249 00ca 1962     		str	r1, [r3, #32]
 250              		.loc 1 440 0
 251 00cc 0721     		movs	r1, #7
 252 00ce FFF7FEFF 		bl	nvicEnableVector
 253              	.LVL21:
 254              		.loc 1 445 0
 255 00d2 034B     		ldr	r3, .L38+8
 256 00d4 6361     		str	r3, [r4, #20]
 257 00d6 E7E7     		b	.L7
 258              	.L39:
 259              		.align	2
 260              	.L38:
 261 00d8 00000000 		.word	.LANCHOR0
 262 00dc 00380240 		.word	1073887232
 263 00e0 00BD0105 		.word	84000000
 264              		.cfi_endproc
 265              	.LFE270:
 266              		.size	pwm_lld_start, .-pwm_lld_start
 267              		.section	.text.pwm_lld_stop,"ax",%progbits
 268              		.align	2
 269              		.p2align 4,,15
 270              		.global	pwm_lld_stop
 271              		.thumb
 272              		.thumb_func
 273              		.type	pwm_lld_stop, %function
 274              	pwm_lld_stop:
 275              	.LFB271:
 276              		.loc 1 612 0
 277              		.cfi_startproc
 278              		@ args = 0, pretend = 0, frame = 0
 279              		@ frame_needed = 0, uses_anonymous_args = 0
 280              	.LVL22:
 281 0000 08B5     		push	{r3, lr}
 282              		.cfi_def_cfa_offset 8
 283              		.cfi_offset 3, -8
 284              		.cfi_offset 14, -4
 285              		.loc 1 615 0
ARM GAS  /var/folders/m4/4md61f0s1_g0rzfghffqnxvr0000gn/T//ccD1WRxm.s 			page 6


 286 0002 0378     		ldrb	r3, [r0]	@ zero_extendqisi2
 287 0004 022B     		cmp	r3, #2
 288 0006 00D0     		beq	.L45
 289              	.LVL23:
 290              	.L40:
 291 0008 08BD     		pop	{r3, pc}
 292              	.LVL24:
 293              	.L45:
 294              		.loc 1 661 0
 295 000a 0849     		ldr	r1, .L46
 296              		.loc 1 616 0
 297 000c 8369     		ldr	r3, [r0, #24]
 298 000e 0022     		movs	r2, #0
 299              		.loc 1 661 0
 300 0010 8842     		cmp	r0, r1
 301              		.loc 1 616 0
 302 0012 1A60     		str	r2, [r3]
 303              		.loc 1 617 0
 304 0014 DA60     		str	r2, [r3, #12]
 305              		.loc 1 618 0
 306 0016 1A61     		str	r2, [r3, #16]
 307              		.loc 1 661 0
 308 0018 F6D1     		bne	.L40
 309              		.loc 1 663 0
 310 001a 3220     		movs	r0, #50
 311              	.LVL25:
 312 001c FFF7FEFF 		bl	nvicDisableVector
 313              	.LVL26:
 314              		.loc 1 665 0
 315 0020 034A     		ldr	r2, .L46+4
 316 0022 136C     		ldr	r3, [r2, #64]
 317 0024 23F00803 		bic	r3, r3, #8
 318 0028 1364     		str	r3, [r2, #64]
 319 002a EDE7     		b	.L40
 320              	.L47:
 321              		.align	2
 322              	.L46:
 323 002c 00000000 		.word	.LANCHOR0
 324 0030 00380240 		.word	1073887232
 325              		.cfi_endproc
 326              	.LFE271:
 327              		.size	pwm_lld_stop, .-pwm_lld_stop
 328              		.section	.text.pwm_lld_enable_channel,"ax",%progbits
 329              		.align	2
 330              		.p2align 4,,15
 331              		.global	pwm_lld_enable_channel
 332              		.thumb
 333              		.thumb_func
 334              		.type	pwm_lld_enable_channel, %function
 335              	pwm_lld_enable_channel:
 336              	.LFB272:
 337              		.loc 1 705 0
 338              		.cfi_startproc
 339              		@ args = 0, pretend = 0, frame = 0
 340              		@ frame_needed = 0, uses_anonymous_args = 0
 341              		@ link register save eliminated.
 342              	.LVL27:
ARM GAS  /var/folders/m4/4md61f0s1_g0rzfghffqnxvr0000gn/T//ccD1WRxm.s 			page 7


 343              		.loc 1 709 0
 344 0000 8369     		ldr	r3, [r0, #24]
 345 0002 0C31     		adds	r1, r1, #12
 346              	.LVL28:
 347 0004 03EB8103 		add	r3, r3, r1, lsl #2
 348 0008 5A60     		str	r2, [r3, #4]
 349 000a 7047     		bx	lr
 350              		.cfi_endproc
 351              	.LFE272:
 352              		.size	pwm_lld_enable_channel, .-pwm_lld_enable_channel
 353              		.section	.text.pwm_lld_disable_channel,"ax",%progbits
 354              		.align	2
 355              		.p2align 4,,15
 356              		.global	pwm_lld_disable_channel
 357              		.thumb
 358              		.thumb_func
 359              		.type	pwm_lld_disable_channel, %function
 360              	pwm_lld_disable_channel:
 361              	.LFB273:
 362              		.loc 1 730 0
 363              		.cfi_startproc
 364              		@ args = 0, pretend = 0, frame = 0
 365              		@ frame_needed = 0, uses_anonymous_args = 0
 366              		@ link register save eliminated.
 367              	.LVL29:
 368              		.loc 1 733 0
 369 0000 8369     		ldr	r3, [r0, #24]
 370 0002 01F10C02 		add	r2, r1, #12
 371 0006 03EB8202 		add	r2, r3, r2, lsl #2
 372 000a 0020     		movs	r0, #0
 373              	.LVL30:
 374 000c 5060     		str	r0, [r2, #4]
 375              		.loc 1 734 0
 376 000e D868     		ldr	r0, [r3, #12]
 377 0010 0222     		movs	r2, #2
 378 0012 8A40     		lsls	r2, r2, r1
 379 0014 20EA0202 		bic	r2, r0, r2
 380 0018 DA60     		str	r2, [r3, #12]
 381 001a 7047     		bx	lr
 382              		.cfi_endproc
 383              	.LFE273:
 384              		.size	pwm_lld_disable_channel, .-pwm_lld_disable_channel
 385              		.section	.text.pwm_lld_enable_periodic_notification,"ax",%progbits
 386              		.align	2
 387              		.p2align 4,,15
 388              		.global	pwm_lld_enable_periodic_notification
 389              		.thumb
 390              		.thumb_func
 391              		.type	pwm_lld_enable_periodic_notification, %function
 392              	pwm_lld_enable_periodic_notification:
 393              	.LFB274:
 394              		.loc 1 754 0
 395              		.cfi_startproc
 396              		@ args = 0, pretend = 0, frame = 0
 397              		@ frame_needed = 0, uses_anonymous_args = 0
 398              		@ link register save eliminated.
 399              	.LVL31:
ARM GAS  /var/folders/m4/4md61f0s1_g0rzfghffqnxvr0000gn/T//ccD1WRxm.s 			page 8


 400              		.loc 1 755 0
 401 0000 8369     		ldr	r3, [r0, #24]
 402 0002 DA68     		ldr	r2, [r3, #12]
 403              	.LVL32:
 404              		.loc 1 759 0
 405 0004 D107     		lsls	r1, r2, #31
 406 0006 06D4     		bmi	.L50
 407              		.loc 1 760 0
 408 0008 42F00102 		orr	r2, r2, #1
 409              	.LVL33:
 410 000c DA60     		str	r2, [r3, #12]
 411              		.loc 1 761 0
 412 000e 1A69     		ldr	r2, [r3, #16]
 413 0010 02F00102 		and	r2, r2, #1
 414 0014 1A61     		str	r2, [r3, #16]
 415              	.L50:
 416 0016 7047     		bx	lr
 417              		.cfi_endproc
 418              	.LFE274:
 419              		.size	pwm_lld_enable_periodic_notification, .-pwm_lld_enable_periodic_notification
 420              		.section	.text.pwm_lld_disable_periodic_notification,"ax",%progbits
 421              		.align	2
 422              		.p2align 4,,15
 423              		.global	pwm_lld_disable_periodic_notification
 424              		.thumb
 425              		.thumb_func
 426              		.type	pwm_lld_disable_periodic_notification, %function
 427              	pwm_lld_disable_periodic_notification:
 428              	.LFB275:
 429              		.loc 1 774 0
 430              		.cfi_startproc
 431              		@ args = 0, pretend = 0, frame = 0
 432              		@ frame_needed = 0, uses_anonymous_args = 0
 433              		@ link register save eliminated.
 434              	.LVL34:
 435              		.loc 1 776 0
 436 0000 8269     		ldr	r2, [r0, #24]
 437 0002 D368     		ldr	r3, [r2, #12]
 438 0004 23F00103 		bic	r3, r3, #1
 439 0008 D360     		str	r3, [r2, #12]
 440 000a 7047     		bx	lr
 441              		.cfi_endproc
 442              	.LFE275:
 443              		.size	pwm_lld_disable_periodic_notification, .-pwm_lld_disable_periodic_notification
 444              		.section	.text.pwm_lld_enable_channel_notification,"ax",%progbits
 445              		.align	2
 446              		.p2align 4,,15
 447              		.global	pwm_lld_enable_channel_notification
 448              		.thumb
 449              		.thumb_func
 450              		.type	pwm_lld_enable_channel_notification, %function
 451              	pwm_lld_enable_channel_notification:
 452              	.LFB276:
 453              		.loc 1 791 0
 454              		.cfi_startproc
 455              		@ args = 0, pretend = 0, frame = 0
 456              		@ frame_needed = 0, uses_anonymous_args = 0
ARM GAS  /var/folders/m4/4md61f0s1_g0rzfghffqnxvr0000gn/T//ccD1WRxm.s 			page 9


 457              		@ link register save eliminated.
 458              	.LVL35:
 459              		.loc 1 792 0
 460 0000 8069     		ldr	r0, [r0, #24]
 461              	.LVL36:
 462              		.loc 1 801 0
 463 0002 0223     		movs	r3, #2
 464              		.loc 1 792 0
 465 0004 C268     		ldr	r2, [r0, #12]
 466              	.LVL37:
 467              		.loc 1 801 0
 468 0006 8B40     		lsls	r3, r3, r1
 469 0008 1342     		tst	r3, r2
 470 000a 03D1     		bne	.L53
 471              		.loc 1 802 0
 472 000c 1A43     		orrs	r2, r2, r3
 473              	.LVL38:
 474              		.loc 1 803 0
 475 000e DB43     		mvns	r3, r3
 476              		.loc 1 802 0
 477 0010 C260     		str	r2, [r0, #12]
 478              		.loc 1 803 0
 479 0012 0361     		str	r3, [r0, #16]
 480              	.L53:
 481 0014 7047     		bx	lr
 482              		.cfi_endproc
 483              	.LFE276:
 484              		.size	pwm_lld_enable_channel_notification, .-pwm_lld_enable_channel_notification
 485 0016 00BF     		.section	.text.pwm_lld_disable_channel_notification,"ax",%progbits
 486              		.align	2
 487              		.p2align 4,,15
 488              		.global	pwm_lld_disable_channel_notification
 489              		.thumb
 490              		.thumb_func
 491              		.type	pwm_lld_disable_channel_notification, %function
 492              	pwm_lld_disable_channel_notification:
 493              	.LFB277:
 494              		.loc 1 819 0
 495              		.cfi_startproc
 496              		@ args = 0, pretend = 0, frame = 0
 497              		@ frame_needed = 0, uses_anonymous_args = 0
 498              		@ link register save eliminated.
 499              	.LVL39:
 500              		.loc 1 821 0
 501 0000 8069     		ldr	r0, [r0, #24]
 502              	.LVL40:
 503 0002 0222     		movs	r2, #2
 504 0004 C368     		ldr	r3, [r0, #12]
 505 0006 8A40     		lsls	r2, r2, r1
 506 0008 23EA0203 		bic	r3, r3, r2
 507 000c C360     		str	r3, [r0, #12]
 508 000e 7047     		bx	lr
 509              		.cfi_endproc
 510              	.LFE277:
 511              		.size	pwm_lld_disable_channel_notification, .-pwm_lld_disable_channel_notification
 512              		.section	.text.pwm_lld_serve_interrupt,"ax",%progbits
 513              		.align	2
ARM GAS  /var/folders/m4/4md61f0s1_g0rzfghffqnxvr0000gn/T//ccD1WRxm.s 			page 10


 514              		.p2align 4,,15
 515              		.global	pwm_lld_serve_interrupt
 516              		.thumb
 517              		.thumb_func
 518              		.type	pwm_lld_serve_interrupt, %function
 519              	pwm_lld_serve_interrupt:
 520              	.LFB278:
 521              		.loc 1 834 0
 522              		.cfi_startproc
 523              		@ args = 0, pretend = 0, frame = 0
 524              		@ frame_needed = 0, uses_anonymous_args = 0
 525              	.LVL41:
 526              		.loc 1 837 0
 527 0000 8369     		ldr	r3, [r0, #24]
 528              		.loc 1 834 0
 529 0002 70B5     		push	{r4, r5, r6, lr}
 530              		.cfi_def_cfa_offset 16
 531              		.cfi_offset 4, -16
 532              		.cfi_offset 5, -12
 533              		.cfi_offset 6, -8
 534              		.cfi_offset 14, -4
 535              		.loc 1 837 0
 536 0004 1A69     		ldr	r2, [r3, #16]
 537              	.LVL42:
 538              		.loc 1 838 0
 539 0006 DC68     		ldr	r4, [r3, #12]
 540 0008 1440     		ands	r4, r4, r2
 541              	.LVL43:
 542 000a E2B2     		uxtb	r2, r4
 543              		.loc 1 839 0
 544 000c D243     		mvns	r2, r2
 545              		.loc 1 840 0
 546 000e A607     		lsls	r6, r4, #30
 547              		.loc 1 834 0
 548 0010 0546     		mov	r5, r0
 549              		.loc 1 839 0
 550 0012 1A61     		str	r2, [r3, #16]
 551              		.loc 1 840 0
 552 0014 03D5     		bpl	.L57
 553              		.loc 1 841 0 discriminator 1
 554 0016 4368     		ldr	r3, [r0, #4]
 555 0018 1B69     		ldr	r3, [r3, #16]
 556              		.loc 1 840 0 discriminator 1
 557 001a 03B1     		cbz	r3, .L57
 558              		.loc 1 842 0
 559 001c 9847     		blx	r3
 560              	.LVL44:
 561              	.L57:
 562              		.loc 1 843 0
 563 001e 6007     		lsls	r0, r4, #29
 564 0020 04D5     		bpl	.L58
 565              		.loc 1 844 0 discriminator 1
 566 0022 6B68     		ldr	r3, [r5, #4]
 567 0024 9B69     		ldr	r3, [r3, #24]
 568              		.loc 1 843 0 discriminator 1
 569 0026 0BB1     		cbz	r3, .L58
 570              		.loc 1 845 0
ARM GAS  /var/folders/m4/4md61f0s1_g0rzfghffqnxvr0000gn/T//ccD1WRxm.s 			page 11


 571 0028 2846     		mov	r0, r5
 572 002a 9847     		blx	r3
 573              	.LVL45:
 574              	.L58:
 575              		.loc 1 846 0
 576 002c 2107     		lsls	r1, r4, #28
 577 002e 04D5     		bpl	.L59
 578              		.loc 1 847 0 discriminator 1
 579 0030 6B68     		ldr	r3, [r5, #4]
 580 0032 1B6A     		ldr	r3, [r3, #32]
 581              		.loc 1 846 0 discriminator 1
 582 0034 0BB1     		cbz	r3, .L59
 583              		.loc 1 848 0
 584 0036 2846     		mov	r0, r5
 585 0038 9847     		blx	r3
 586              	.LVL46:
 587              	.L59:
 588              		.loc 1 849 0
 589 003a E206     		lsls	r2, r4, #27
 590 003c 04D5     		bpl	.L60
 591              		.loc 1 850 0 discriminator 1
 592 003e 6B68     		ldr	r3, [r5, #4]
 593 0040 9B6A     		ldr	r3, [r3, #40]
 594              		.loc 1 849 0 discriminator 1
 595 0042 0BB1     		cbz	r3, .L60
 596              		.loc 1 851 0
 597 0044 2846     		mov	r0, r5
 598 0046 9847     		blx	r3
 599              	.LVL47:
 600              	.L60:
 601              		.loc 1 852 0
 602 0048 E307     		lsls	r3, r4, #31
 603 004a 06D5     		bpl	.L56
 604              		.loc 1 852 0 is_stmt 0 discriminator 1
 605 004c 6B68     		ldr	r3, [r5, #4]
 606 004e 9B68     		ldr	r3, [r3, #8]
 607 0050 1BB1     		cbz	r3, .L56
 608              		.loc 1 853 0 is_stmt 1
 609 0052 2846     		mov	r0, r5
 610              		.loc 1 854 0
 611 0054 BDE87040 		pop	{r4, r5, r6, lr}
 612              		.cfi_remember_state
 613              		.cfi_restore 14
 614              		.cfi_restore 6
 615              		.cfi_restore 5
 616              		.cfi_restore 4
 617              		.cfi_def_cfa_offset 0
 618              	.LVL48:
 619              		.loc 1 853 0
 620 0058 1847     		bx	r3	@ indirect register sibling call
 621              	.LVL49:
 622              	.L56:
 623              		.cfi_restore_state
 624 005a 70BD     		pop	{r4, r5, r6, pc}
 625              		.cfi_endproc
 626              	.LFE278:
 627              		.size	pwm_lld_serve_interrupt, .-pwm_lld_serve_interrupt
ARM GAS  /var/folders/m4/4md61f0s1_g0rzfghffqnxvr0000gn/T//ccD1WRxm.s 			page 12


 628              		.section	.text.Vector108,"ax",%progbits
 629              		.align	2
 630              		.p2align 4,,15
 631              		.global	Vector108
 632              		.thumb
 633              		.thumb_func
 634              		.type	Vector108, %function
 635              	Vector108:
 636              	.LFB268:
 637              		.loc 1 222 0
 638              		.cfi_startproc
 639              		@ args = 0, pretend = 0, frame = 0
 640              		@ frame_needed = 0, uses_anonymous_args = 0
 641 0000 08B5     		push	{r3, lr}
 642              		.cfi_def_cfa_offset 8
 643              		.cfi_offset 3, -8
 644              		.cfi_offset 14, -4
 645              		.loc 1 226 0
 646 0002 0348     		ldr	r0, .L95
 647 0004 FFF7FEFF 		bl	pwm_lld_serve_interrupt
 648              	.LVL50:
 649              		.loc 1 229 0
 650 0008 BDE80840 		pop	{r3, lr}
 651              		.cfi_restore 14
 652              		.cfi_restore 3
 653              		.cfi_def_cfa_offset 0
 654              		.loc 1 228 0
 655 000c FFF7FEBF 		b	_port_irq_epilogue
 656              	.LVL51:
 657              	.L96:
 658              		.align	2
 659              	.L95:
 660 0010 00000000 		.word	.LANCHOR0
 661              		.cfi_endproc
 662              	.LFE268:
 663              		.size	Vector108, .-Vector108
 664              		.global	PWMD5
 665              		.section	.bss.PWMD5,"aw",%nobits
 666              		.align	2
 667              		.set	.LANCHOR0,. + 0
 668              		.type	PWMD5, %object
 669              		.size	PWMD5, 28
 670              	PWMD5:
 671 0000 00000000 		.space	28
 671      00000000 
 671      00000000 
 671      00000000 
 671      00000000 
 672              		.text
 673              	.Letext0:
 674              		.file 2 "/usr/local/Cellar/gcc-arm-none-eabi-49/20150609/lib/gcc/arm-none-eabi/4.9.3/include/stdde
 675              		.file 3 "/usr/local/Cellar/gcc-arm-none-eabi-49/20150609/arm-none-eabi/include/machine/_default_ty
 676              		.file 4 "/usr/local/Cellar/gcc-arm-none-eabi-49/20150609/arm-none-eabi/include/sys/_stdint.h"
 677              		.file 5 "ChibiOS_16.1.4/os/rt/ports/ARMCMx/compilers/GCC/chtypes.h"
 678              		.file 6 "ChibiOS_16.1.4/os/rt/include/chsystypes.h"
 679              		.file 7 "ChibiOS_16.1.4/os/rt/include/chschd.h"
 680              		.file 8 "ChibiOS_16.1.4/os/ext/CMSIS/ST/STM32F4xx/stm32f446xx.h"
ARM GAS  /var/folders/m4/4md61f0s1_g0rzfghffqnxvr0000gn/T//ccD1WRxm.s 			page 13


 681              		.file 9 "ChibiOS_16.1.4/os/rt/ports/ARMCMx/chcore.h"
 682              		.file 10 "ChibiOS_16.1.4/os/rt/ports/ARMCMx/chcore_v7m.h"
 683              		.file 11 "ChibiOS_16.1.4/os/rt/include/chtm.h"
 684              		.file 12 "ChibiOS_16.1.4/os/rt/include/chsem.h"
 685              		.file 13 "ChibiOS_16.1.4/os/rt/include/chmtx.h"
 686              		.file 14 "ChibiOS_16.1.4/os/hal/include/pwm.h"
 687              		.file 15 "ChibiOS_16.1.4/os/hal/ports/STM32/LLD/TIMv1/pwm_lld.h"
 688              		.file 16 "ChibiOS_16.1.4/os/hal/ports/STM32/LLD/TIMv1/stm32_tim.h"
 689              		.file 17 "ChibiOS_16.1.4/os/ext/CMSIS/include/core_cm4.h"
 690              		.file 18 "ChibiOS_16.1.4/os/hal/ports/common/ARMCMx/nvic.h"
 691              		.section	.debug_info,"",%progbits
 692              	.Ldebug_info0:
 693 0000 1E0F0000 		.4byte	0xf1e
 694 0004 0400     		.2byte	0x4
 695 0006 00000000 		.4byte	.Ldebug_abbrev0
 696 000a 04       		.byte	0x4
 697 000b 01       		.uleb128 0x1
 698 000c 27040000 		.4byte	.LASF190
 699 0010 01       		.byte	0x1
 700 0011 C5000000 		.4byte	.LASF191
 701 0015 00000000 		.4byte	.LASF192
 702 0019 00000000 		.4byte	.Ldebug_ranges0+0
 703 001d 00000000 		.4byte	0
 704 0021 00000000 		.4byte	.Ldebug_line0
 705 0025 02       		.uleb128 0x2
 706 0026 04       		.byte	0x4
 707 0027 07       		.byte	0x7
 708 0028 BD020000 		.4byte	.LASF0
 709 002c 03       		.uleb128 0x3
 710 002d 04       		.byte	0x4
 711 002e 05       		.byte	0x5
 712 002f 696E7400 		.ascii	"int\000"
 713 0033 04       		.uleb128 0x4
 714 0034 5A000000 		.4byte	.LASF2
 715 0038 02       		.byte	0x2
 716 0039 D4       		.byte	0xd4
 717 003a 25000000 		.4byte	0x25
 718 003e 02       		.uleb128 0x2
 719 003f 01       		.byte	0x1
 720 0040 06       		.byte	0x6
 721 0041 A3010000 		.4byte	.LASF1
 722 0045 04       		.uleb128 0x4
 723 0046 89000000 		.4byte	.LASF3
 724 004a 03       		.byte	0x3
 725 004b 1D       		.byte	0x1d
 726 004c 50000000 		.4byte	0x50
 727 0050 02       		.uleb128 0x2
 728 0051 01       		.byte	0x1
 729 0052 08       		.byte	0x8
 730 0053 9E060000 		.4byte	.LASF4
 731 0057 02       		.uleb128 0x2
 732 0058 02       		.byte	0x2
 733 0059 05       		.byte	0x5
 734 005a DD060000 		.4byte	.LASF5
 735 005e 02       		.uleb128 0x2
 736 005f 02       		.byte	0x2
 737 0060 07       		.byte	0x7
ARM GAS  /var/folders/m4/4md61f0s1_g0rzfghffqnxvr0000gn/T//ccD1WRxm.s 			page 14


 738 0061 59020000 		.4byte	.LASF6
 739 0065 04       		.uleb128 0x4
 740 0066 F5030000 		.4byte	.LASF7
 741 006a 03       		.byte	0x3
 742 006b 3F       		.byte	0x3f
 743 006c 70000000 		.4byte	0x70
 744 0070 02       		.uleb128 0x2
 745 0071 04       		.byte	0x4
 746 0072 05       		.byte	0x5
 747 0073 E4010000 		.4byte	.LASF8
 748 0077 04       		.uleb128 0x4
 749 0078 26080000 		.4byte	.LASF9
 750 007c 03       		.byte	0x3
 751 007d 41       		.byte	0x41
 752 007e 82000000 		.4byte	0x82
 753 0082 02       		.uleb128 0x2
 754 0083 04       		.byte	0x4
 755 0084 07       		.byte	0x7
 756 0085 A2070000 		.4byte	.LASF10
 757 0089 02       		.uleb128 0x2
 758 008a 08       		.byte	0x8
 759 008b 05       		.byte	0x5
 760 008c 9A020000 		.4byte	.LASF11
 761 0090 04       		.uleb128 0x4
 762 0091 F1050000 		.4byte	.LASF12
 763 0095 03       		.byte	0x3
 764 0096 5B       		.byte	0x5b
 765 0097 9B000000 		.4byte	0x9b
 766 009b 02       		.uleb128 0x2
 767 009c 08       		.byte	0x8
 768 009d 07       		.byte	0x7
 769 009e FB000000 		.4byte	.LASF13
 770 00a2 04       		.uleb128 0x4
 771 00a3 D9080000 		.4byte	.LASF14
 772 00a7 04       		.byte	0x4
 773 00a8 14       		.byte	0x14
 774 00a9 45000000 		.4byte	0x45
 775 00ad 04       		.uleb128 0x4
 776 00ae 96060000 		.4byte	.LASF15
 777 00b2 04       		.byte	0x4
 778 00b3 1F       		.byte	0x1f
 779 00b4 65000000 		.4byte	0x65
 780 00b8 04       		.uleb128 0x4
 781 00b9 82070000 		.4byte	.LASF16
 782 00bd 04       		.byte	0x4
 783 00be 20       		.byte	0x20
 784 00bf 77000000 		.4byte	0x77
 785 00c3 04       		.uleb128 0x4
 786 00c4 80000000 		.4byte	.LASF17
 787 00c8 04       		.byte	0x4
 788 00c9 26       		.byte	0x26
 789 00ca 90000000 		.4byte	0x90
 790 00ce 04       		.uleb128 0x4
 791 00cf 86080000 		.4byte	.LASF18
 792 00d3 05       		.byte	0x5
 793 00d4 39       		.byte	0x39
 794 00d5 B8000000 		.4byte	0xb8
ARM GAS  /var/folders/m4/4md61f0s1_g0rzfghffqnxvr0000gn/T//ccD1WRxm.s 			page 15


 795 00d9 04       		.uleb128 0x4
 796 00da 1A090000 		.4byte	.LASF19
 797 00de 05       		.byte	0x5
 798 00df 3C       		.byte	0x3c
 799 00e0 A2000000 		.4byte	0xa2
 800 00e4 04       		.uleb128 0x4
 801 00e5 32020000 		.4byte	.LASF20
 802 00e9 05       		.byte	0x5
 803 00ea 3D       		.byte	0x3d
 804 00eb A2000000 		.4byte	0xa2
 805 00ef 04       		.uleb128 0x4
 806 00f0 2D060000 		.4byte	.LASF21
 807 00f4 05       		.byte	0x5
 808 00f5 3E       		.byte	0x3e
 809 00f6 A2000000 		.4byte	0xa2
 810 00fa 04       		.uleb128 0x4
 811 00fb CB010000 		.4byte	.LASF22
 812 00ff 05       		.byte	0x5
 813 0100 3F       		.byte	0x3f
 814 0101 A2000000 		.4byte	0xa2
 815 0105 04       		.uleb128 0x4
 816 0106 78060000 		.4byte	.LASF23
 817 010a 05       		.byte	0x5
 818 010b 40       		.byte	0x40
 819 010c B8000000 		.4byte	0xb8
 820 0110 04       		.uleb128 0x4
 821 0111 56030000 		.4byte	.LASF24
 822 0115 05       		.byte	0x5
 823 0116 41       		.byte	0x41
 824 0117 AD000000 		.4byte	0xad
 825 011b 04       		.uleb128 0x4
 826 011c BF030000 		.4byte	.LASF25
 827 0120 05       		.byte	0x5
 828 0121 43       		.byte	0x43
 829 0122 B8000000 		.4byte	0xb8
 830 0126 04       		.uleb128 0x4
 831 0127 B7020000 		.4byte	.LASF26
 832 012b 05       		.byte	0x5
 833 012c 45       		.byte	0x45
 834 012d AD000000 		.4byte	0xad
 835 0131 04       		.uleb128 0x4
 836 0132 08080000 		.4byte	.LASF27
 837 0136 06       		.byte	0x6
 838 0137 33       		.byte	0x33
 839 0138 B8000000 		.4byte	0xb8
 840 013c 04       		.uleb128 0x4
 841 013d F3070000 		.4byte	.LASF28
 842 0141 06       		.byte	0x6
 843 0142 3F       		.byte	0x3f
 844 0143 47010000 		.4byte	0x147
 845 0147 05       		.uleb128 0x5
 846 0148 36030000 		.4byte	.LASF50
 847 014c 48       		.byte	0x48
 848 014d 07       		.byte	0x7
 849 014e C2       		.byte	0xc2
 850 014f 4C020000 		.4byte	0x24c
 851 0153 06       		.uleb128 0x6
ARM GAS  /var/folders/m4/4md61f0s1_g0rzfghffqnxvr0000gn/T//ccD1WRxm.s 			page 16


 852 0154 8E050000 		.4byte	.LASF29
 853 0158 07       		.byte	0x7
 854 0159 C3       		.byte	0xc3
 855 015a 57020000 		.4byte	0x257
 856 015e 00       		.byte	0
 857 015f 06       		.uleb128 0x6
 858 0160 67060000 		.4byte	.LASF30
 859 0164 07       		.byte	0x7
 860 0165 C5       		.byte	0xc5
 861 0166 57020000 		.4byte	0x257
 862 016a 04       		.byte	0x4
 863 016b 06       		.uleb128 0x6
 864 016c 6D010000 		.4byte	.LASF31
 865 0170 07       		.byte	0x7
 866 0171 C7       		.byte	0xc7
 867 0172 05010000 		.4byte	0x105
 868 0176 08       		.byte	0x8
 869 0177 06       		.uleb128 0x6
 870 0178 57090000 		.4byte	.LASF32
 871 017c 07       		.byte	0x7
 872 017d C8       		.byte	0xc8
 873 017e 7B060000 		.4byte	0x67b
 874 0182 0C       		.byte	0xc
 875 0183 06       		.uleb128 0x6
 876 0184 49020000 		.4byte	.LASF33
 877 0188 07       		.byte	0x7
 878 0189 CA       		.byte	0xca
 879 018a 57020000 		.4byte	0x257
 880 018e 10       		.byte	0x10
 881 018f 06       		.uleb128 0x6
 882 0190 A8050000 		.4byte	.LASF34
 883 0194 07       		.byte	0x7
 884 0195 CB       		.byte	0xcb
 885 0196 57020000 		.4byte	0x257
 886 019a 14       		.byte	0x14
 887 019b 06       		.uleb128 0x6
 888 019c 06090000 		.4byte	.LASF35
 889 01a0 07       		.byte	0x7
 890 01a1 D2       		.byte	0xd2
 891 01a2 C9080000 		.4byte	0x8c9
 892 01a6 18       		.byte	0x18
 893 01a7 06       		.uleb128 0x6
 894 01a8 E7060000 		.4byte	.LASF36
 895 01ac 07       		.byte	0x7
 896 01ad DD       		.byte	0xdd
 897 01ae E4000000 		.4byte	0xe4
 898 01b2 1C       		.byte	0x1c
 899 01b3 06       		.uleb128 0x6
 900 01b4 1D070000 		.4byte	.LASF37
 901 01b8 07       		.byte	0x7
 902 01b9 E1       		.byte	0xe1
 903 01ba D9000000 		.4byte	0xd9
 904 01be 1D       		.byte	0x1d
 905 01bf 06       		.uleb128 0x6
 906 01c0 BE080000 		.4byte	.LASF38
 907 01c4 07       		.byte	0x7
 908 01c5 E6       		.byte	0xe6
ARM GAS  /var/folders/m4/4md61f0s1_g0rzfghffqnxvr0000gn/T//ccD1WRxm.s 			page 17


 909 01c6 EF000000 		.4byte	0xef
 910 01ca 1E       		.byte	0x1e
 911 01cb 06       		.uleb128 0x6
 912 01cc EF060000 		.4byte	.LASF39
 913 01d0 07       		.byte	0x7
 914 01d1 EC       		.byte	0xec
 915 01d2 FA000000 		.4byte	0xfa
 916 01d6 1F       		.byte	0x1f
 917 01d7 06       		.uleb128 0x6
 918 01d8 E4020000 		.4byte	.LASF40
 919 01dc 07       		.byte	0x7
 920 01dd F3       		.byte	0xf3
 921 01de DB080000 		.4byte	0x8db
 922 01e2 20       		.byte	0x20
 923 01e3 07       		.uleb128 0x7
 924 01e4 705F7500 		.ascii	"p_u\000"
 925 01e8 07       		.byte	0x7
 926 01e9 3101     		.2byte	0x131
 927 01eb 04080000 		.4byte	0x804
 928 01ef 24       		.byte	0x24
 929 01f0 08       		.uleb128 0x8
 930 01f1 4B050000 		.4byte	.LASF41
 931 01f5 07       		.byte	0x7
 932 01f6 3601     		.2byte	0x136
 933 01f8 5D020000 		.4byte	0x25d
 934 01fc 28       		.byte	0x28
 935 01fd 08       		.uleb128 0x8
 936 01fe 06030000 		.4byte	.LASF42
 937 0202 07       		.byte	0x7
 938 0203 3C01     		.2byte	0x13c
 939 0205 81020000 		.4byte	0x281
 940 0209 2C       		.byte	0x2c
 941 020a 08       		.uleb128 0x8
 942 020b 30090000 		.4byte	.LASF43
 943 020f 07       		.byte	0x7
 944 0210 4001     		.2byte	0x140
 945 0212 10010000 		.4byte	0x110
 946 0216 34       		.byte	0x34
 947 0217 08       		.uleb128 0x8
 948 0218 95050000 		.4byte	.LASF44
 949 021c 07       		.byte	0x7
 950 021d 4601     		.2byte	0x146
 951 021f 1B010000 		.4byte	0x11b
 952 0223 38       		.byte	0x38
 953 0224 08       		.uleb128 0x8
 954 0225 D3060000 		.4byte	.LASF45
 955 0229 07       		.byte	0x7
 956 022a 4D01     		.2byte	0x14d
 957 022c C3080000 		.4byte	0x8c3
 958 0230 3C       		.byte	0x3c
 959 0231 08       		.uleb128 0x8
 960 0232 12080000 		.4byte	.LASF46
 961 0236 07       		.byte	0x7
 962 0237 5101     		.2byte	0x151
 963 0239 05010000 		.4byte	0x105
 964 023d 40       		.byte	0x40
 965 023e 08       		.uleb128 0x8
ARM GAS  /var/folders/m4/4md61f0s1_g0rzfghffqnxvr0000gn/T//ccD1WRxm.s 			page 18


 966 023f 7A020000 		.4byte	.LASF47
 967 0243 07       		.byte	0x7
 968 0244 5801     		.2byte	0x158
 969 0246 34030000 		.4byte	0x334
 970 024a 44       		.byte	0x44
 971 024b 00       		.byte	0
 972 024c 04       		.uleb128 0x4
 973 024d 5E050000 		.4byte	.LASF48
 974 0251 06       		.byte	0x6
 975 0252 44       		.byte	0x44
 976 0253 57020000 		.4byte	0x257
 977 0257 09       		.uleb128 0x9
 978 0258 04       		.byte	0x4
 979 0259 3C010000 		.4byte	0x13c
 980 025d 04       		.uleb128 0x4
 981 025e 2C000000 		.4byte	.LASF49
 982 0262 06       		.byte	0x6
 983 0263 49       		.byte	0x49
 984 0264 68020000 		.4byte	0x268
 985 0268 05       		.uleb128 0x5
 986 0269 65030000 		.4byte	.LASF51
 987 026d 04       		.byte	0x4
 988 026e 07       		.byte	0x7
 989 026f B0       		.byte	0xb0
 990 0270 81020000 		.4byte	0x281
 991 0274 06       		.uleb128 0x6
 992 0275 8E050000 		.4byte	.LASF29
 993 0279 07       		.byte	0x7
 994 027a B1       		.byte	0xb1
 995 027b 57020000 		.4byte	0x257
 996 027f 00       		.byte	0
 997 0280 00       		.byte	0
 998 0281 04       		.uleb128 0x4
 999 0282 A5080000 		.4byte	.LASF52
 1000 0286 06       		.byte	0x6
 1001 0287 50       		.byte	0x50
 1002 0288 8C020000 		.4byte	0x28c
 1003 028c 05       		.uleb128 0x5
 1004 028d 9F000000 		.4byte	.LASF53
 1005 0291 08       		.byte	0x8
 1006 0292 07       		.byte	0x7
 1007 0293 B7       		.byte	0xb7
 1008 0294 B1020000 		.4byte	0x2b1
 1009 0298 06       		.uleb128 0x6
 1010 0299 8E050000 		.4byte	.LASF29
 1011 029d 07       		.byte	0x7
 1012 029e B8       		.byte	0xb8
 1013 029f 57020000 		.4byte	0x257
 1014 02a3 00       		.byte	0
 1015 02a4 06       		.uleb128 0x6
 1016 02a5 67060000 		.4byte	.LASF30
 1017 02a9 07       		.byte	0x7
 1018 02aa B9       		.byte	0xb9
 1019 02ab 57020000 		.4byte	0x257
 1020 02af 04       		.byte	0x4
 1021 02b0 00       		.byte	0
 1022 02b1 04       		.uleb128 0x4
ARM GAS  /var/folders/m4/4md61f0s1_g0rzfghffqnxvr0000gn/T//ccD1WRxm.s 			page 19


 1023 02b2 48000000 		.4byte	.LASF54
 1024 02b6 06       		.byte	0x6
 1025 02b7 57       		.byte	0x57
 1026 02b8 BC020000 		.4byte	0x2bc
 1027 02bc 0A       		.uleb128 0xa
 1028 02bd B1030000 		.4byte	.LASF55
 1029 02c1 1C       		.byte	0x1c
 1030 02c2 07       		.byte	0x7
 1031 02c3 9001     		.2byte	0x190
 1032 02c5 18030000 		.4byte	0x318
 1033 02c9 08       		.uleb128 0x8
 1034 02ca 92070000 		.4byte	.LASF56
 1035 02ce 07       		.byte	0x7
 1036 02cf 9101     		.2byte	0x191
 1037 02d1 81020000 		.4byte	0x281
 1038 02d5 00       		.byte	0
 1039 02d6 08       		.uleb128 0x8
 1040 02d7 03070000 		.4byte	.LASF57
 1041 02db 07       		.byte	0x7
 1042 02dc 9201     		.2byte	0x192
 1043 02de 05010000 		.4byte	0x105
 1044 02e2 08       		.byte	0x8
 1045 02e3 08       		.uleb128 0x8
 1046 02e4 BD050000 		.4byte	.LASF58
 1047 02e8 07       		.byte	0x7
 1048 02e9 9401     		.2byte	0x194
 1049 02eb 7B060000 		.4byte	0x67b
 1050 02ef 0C       		.byte	0xc
 1051 02f0 08       		.uleb128 0x8
 1052 02f1 72020000 		.4byte	.LASF59
 1053 02f5 07       		.byte	0x7
 1054 02f6 9701     		.2byte	0x197
 1055 02f8 57020000 		.4byte	0x257
 1056 02fc 10       		.byte	0x10
 1057 02fd 08       		.uleb128 0x8
 1058 02fe 61080000 		.4byte	.LASF60
 1059 0302 07       		.byte	0x7
 1060 0303 9801     		.2byte	0x198
 1061 0305 57020000 		.4byte	0x257
 1062 0309 14       		.byte	0x14
 1063 030a 08       		.uleb128 0x8
 1064 030b DE050000 		.4byte	.LASF61
 1065 030f 07       		.byte	0x7
 1066 0310 9B01     		.2byte	0x19b
 1067 0312 57020000 		.4byte	0x257
 1068 0316 18       		.byte	0x18
 1069 0317 00       		.byte	0
 1070 0318 04       		.uleb128 0x4
 1071 0319 1D080000 		.4byte	.LASF62
 1072 031d 06       		.byte	0x6
 1073 031e 5C       		.byte	0x5c
 1074 031f 23030000 		.4byte	0x323
 1075 0323 09       		.uleb128 0x9
 1076 0324 04       		.byte	0x4
 1077 0325 29030000 		.4byte	0x329
 1078 0329 0B       		.uleb128 0xb
 1079 032a 34030000 		.4byte	0x334
ARM GAS  /var/folders/m4/4md61f0s1_g0rzfghffqnxvr0000gn/T//ccD1WRxm.s 			page 20


 1080 032e 0C       		.uleb128 0xc
 1081 032f 34030000 		.4byte	0x334
 1082 0333 00       		.byte	0
 1083 0334 0D       		.uleb128 0xd
 1084 0335 04       		.byte	0x4
 1085 0336 04       		.uleb128 0x4
 1086 0337 17040000 		.4byte	.LASF63
 1087 033b 06       		.byte	0x6
 1088 033c 61       		.byte	0x61
 1089 033d 41030000 		.4byte	0x341
 1090 0341 0A       		.uleb128 0xa
 1091 0342 48070000 		.4byte	.LASF64
 1092 0346 14       		.byte	0x14
 1093 0347 07       		.byte	0x7
 1094 0348 6B01     		.2byte	0x16b
 1095 034a 90030000 		.4byte	0x390
 1096 034e 08       		.uleb128 0x8
 1097 034f CA020000 		.4byte	.LASF65
 1098 0353 07       		.byte	0x7
 1099 0354 6C01     		.2byte	0x16c
 1100 0356 E0080000 		.4byte	0x8e0
 1101 035a 00       		.byte	0
 1102 035b 08       		.uleb128 0x8
 1103 035c 8B020000 		.4byte	.LASF66
 1104 0360 07       		.byte	0x7
 1105 0361 6D01     		.2byte	0x16d
 1106 0363 E0080000 		.4byte	0x8e0
 1107 0367 04       		.byte	0x4
 1108 0368 08       		.uleb128 0x8
 1109 0369 FD020000 		.4byte	.LASF67
 1110 036d 07       		.byte	0x7
 1111 036e 6E01     		.2byte	0x16e
 1112 0370 31010000 		.4byte	0x131
 1113 0374 08       		.byte	0x8
 1114 0375 08       		.uleb128 0x8
 1115 0376 5D090000 		.4byte	.LASF68
 1116 037a 07       		.byte	0x7
 1117 037b 6F01     		.2byte	0x16f
 1118 037d 18030000 		.4byte	0x318
 1119 0381 0C       		.byte	0xc
 1120 0382 08       		.uleb128 0x8
 1121 0383 8E080000 		.4byte	.LASF69
 1122 0387 07       		.byte	0x7
 1123 0388 7101     		.2byte	0x171
 1124 038a 34030000 		.4byte	0x334
 1125 038e 10       		.byte	0x10
 1126 038f 00       		.byte	0
 1127 0390 04       		.uleb128 0x4
 1128 0391 26010000 		.4byte	.LASF70
 1129 0395 06       		.byte	0x6
 1130 0396 66       		.byte	0x66
 1131 0397 9B030000 		.4byte	0x39b
 1132 039b 0A       		.uleb128 0xa
 1133 039c 71050000 		.4byte	.LASF71
 1134 03a0 10       		.byte	0x10
 1135 03a1 07       		.byte	0x7
 1136 03a2 7B01     		.2byte	0x17b
ARM GAS  /var/folders/m4/4md61f0s1_g0rzfghffqnxvr0000gn/T//ccD1WRxm.s 			page 21


 1137 03a4 DD030000 		.4byte	0x3dd
 1138 03a8 08       		.uleb128 0x8
 1139 03a9 CA020000 		.4byte	.LASF65
 1140 03ad 07       		.byte	0x7
 1141 03ae 7C01     		.2byte	0x17c
 1142 03b0 E0080000 		.4byte	0x8e0
 1143 03b4 00       		.byte	0
 1144 03b5 08       		.uleb128 0x8
 1145 03b6 8B020000 		.4byte	.LASF66
 1146 03ba 07       		.byte	0x7
 1147 03bb 7E01     		.2byte	0x17e
 1148 03bd E0080000 		.4byte	0x8e0
 1149 03c1 04       		.byte	0x4
 1150 03c2 08       		.uleb128 0x8
 1151 03c3 FD020000 		.4byte	.LASF67
 1152 03c7 07       		.byte	0x7
 1153 03c8 8001     		.2byte	0x180
 1154 03ca 31010000 		.4byte	0x131
 1155 03ce 08       		.byte	0x8
 1156 03cf 08       		.uleb128 0x8
 1157 03d0 F2020000 		.4byte	.LASF72
 1158 03d4 07       		.byte	0x7
 1159 03d5 8201     		.2byte	0x182
 1160 03d7 DB080000 		.4byte	0x8db
 1161 03db 0C       		.byte	0xc
 1162 03dc 00       		.byte	0
 1163 03dd 04       		.uleb128 0x4
 1164 03de B0000000 		.4byte	.LASF73
 1165 03e2 06       		.byte	0x6
 1166 03e3 6B       		.byte	0x6b
 1167 03e4 E8030000 		.4byte	0x3e8
 1168 03e8 0A       		.uleb128 0xa
 1169 03e9 80060000 		.4byte	.LASF74
 1170 03ed 04       		.byte	0x4
 1171 03ee 07       		.byte	0x7
 1172 03ef A201     		.2byte	0x1a2
 1173 03f1 03040000 		.4byte	0x403
 1174 03f5 08       		.uleb128 0x8
 1175 03f6 38080000 		.4byte	.LASF75
 1176 03fa 07       		.byte	0x7
 1177 03fb AA01     		.2byte	0x1aa
 1178 03fd E6080000 		.4byte	0x8e6
 1179 0401 00       		.byte	0
 1180 0402 00       		.byte	0
 1181 0403 04       		.uleb128 0x4
 1182 0404 69080000 		.4byte	.LASF76
 1183 0408 06       		.byte	0x6
 1184 0409 70       		.byte	0x70
 1185 040a 0E040000 		.4byte	0x40e
 1186 040e 0E       		.uleb128 0xe
 1187 040f 2E070000 		.4byte	.LASF77
 1188 0413 5802     		.2byte	0x258
 1189 0415 07       		.byte	0x7
 1190 0416 C201     		.2byte	0x1c2
 1191 0418 6A040000 		.4byte	0x46a
 1192 041c 08       		.uleb128 0x8
 1193 041d D3080000 		.4byte	.LASF78
ARM GAS  /var/folders/m4/4md61f0s1_g0rzfghffqnxvr0000gn/T//ccD1WRxm.s 			page 22


 1194 0421 07       		.byte	0x7
 1195 0422 C601     		.2byte	0x1c6
 1196 0424 B1020000 		.4byte	0x2b1
 1197 0428 00       		.byte	0
 1198 0429 08       		.uleb128 0x8
 1199 042a 93020000 		.4byte	.LASF79
 1200 042e 07       		.byte	0x7
 1201 042f CA01     		.2byte	0x1ca
 1202 0431 90030000 		.4byte	0x390
 1203 0435 1C       		.byte	0x1c
 1204 0436 07       		.uleb128 0x7
 1205 0437 64626700 		.ascii	"dbg\000"
 1206 043b 07       		.byte	0x7
 1207 043c CE01     		.2byte	0x1ce
 1208 043e DD030000 		.4byte	0x3dd
 1209 0442 2C       		.byte	0x2c
 1210 0443 08       		.uleb128 0x8
 1211 0444 1B010000 		.4byte	.LASF80
 1212 0448 07       		.byte	0x7
 1213 0449 D201     		.2byte	0x1d2
 1214 044b 3C010000 		.4byte	0x13c
 1215 044f 30       		.byte	0x30
 1216 0450 07       		.uleb128 0x7
 1217 0451 746D00   		.ascii	"tm\000"
 1218 0454 07       		.byte	0x7
 1219 0455 D701     		.2byte	0x1d7
 1220 0457 F9070000 		.4byte	0x7f9
 1221 045b 78       		.byte	0x78
 1222 045c 08       		.uleb128 0x8
 1223 045d A8020000 		.4byte	.LASF81
 1224 0461 07       		.byte	0x7
 1225 0462 E301     		.2byte	0x1e3
 1226 0464 EB080000 		.4byte	0x8eb
 1227 0468 80       		.byte	0x80
 1228 0469 00       		.byte	0
 1229 046a 02       		.uleb128 0x2
 1230 046b 04       		.byte	0x4
 1231 046c 07       		.byte	0x7
 1232 046d 55050000 		.4byte	.LASF82
 1233 0471 0F       		.uleb128 0xf
 1234 0472 B8000000 		.4byte	0xb8
 1235 0476 10       		.uleb128 0x10
 1236 0477 B8000000 		.4byte	0xb8
 1237 047b 86040000 		.4byte	0x486
 1238 047f 11       		.uleb128 0x11
 1239 0480 6A040000 		.4byte	0x46a
 1240 0484 01       		.byte	0x1
 1241 0485 00       		.byte	0
 1242 0486 10       		.uleb128 0x10
 1243 0487 B8000000 		.4byte	0xb8
 1244 048b 96040000 		.4byte	0x496
 1245 048f 11       		.uleb128 0x11
 1246 0490 6A040000 		.4byte	0x46a
 1247 0494 03       		.byte	0x3
 1248 0495 00       		.byte	0
 1249 0496 12       		.uleb128 0x12
 1250 0497 98       		.byte	0x98
ARM GAS  /var/folders/m4/4md61f0s1_g0rzfghffqnxvr0000gn/T//ccD1WRxm.s 			page 23


 1251 0498 08       		.byte	0x8
 1252 0499 3902     		.2byte	0x239
 1253 049b 59060000 		.4byte	0x659
 1254 049f 07       		.uleb128 0x7
 1255 04a0 435200   		.ascii	"CR\000"
 1256 04a3 08       		.byte	0x8
 1257 04a4 3B02     		.2byte	0x23b
 1258 04a6 71040000 		.4byte	0x471
 1259 04aa 00       		.byte	0
 1260 04ab 08       		.uleb128 0x8
 1261 04ac 51020000 		.4byte	.LASF83
 1262 04b0 08       		.byte	0x8
 1263 04b1 3C02     		.2byte	0x23c
 1264 04b3 71040000 		.4byte	0x471
 1265 04b7 04       		.byte	0x4
 1266 04b8 08       		.uleb128 0x8
 1267 04b9 15090000 		.4byte	.LASF84
 1268 04bd 08       		.byte	0x8
 1269 04be 3D02     		.2byte	0x23d
 1270 04c0 71040000 		.4byte	0x471
 1271 04c4 08       		.byte	0x8
 1272 04c5 07       		.uleb128 0x7
 1273 04c6 43495200 		.ascii	"CIR\000"
 1274 04ca 08       		.byte	0x8
 1275 04cb 3E02     		.2byte	0x23e
 1276 04cd 71040000 		.4byte	0x471
 1277 04d1 0C       		.byte	0xc
 1278 04d2 08       		.uleb128 0x8
 1279 04d3 AF010000 		.4byte	.LASF85
 1280 04d7 08       		.byte	0x8
 1281 04d8 3F02     		.2byte	0x23f
 1282 04da 71040000 		.4byte	0x471
 1283 04de 10       		.byte	0x10
 1284 04df 08       		.uleb128 0x8
 1285 04e0 EA070000 		.4byte	.LASF86
 1286 04e4 08       		.byte	0x8
 1287 04e5 4002     		.2byte	0x240
 1288 04e7 71040000 		.4byte	0x471
 1289 04eb 14       		.byte	0x14
 1290 04ec 08       		.uleb128 0x8
 1291 04ed 5C030000 		.4byte	.LASF87
 1292 04f1 08       		.byte	0x8
 1293 04f2 4102     		.2byte	0x241
 1294 04f4 71040000 		.4byte	0x471
 1295 04f8 18       		.byte	0x18
 1296 04f9 08       		.uleb128 0x8
 1297 04fa 35060000 		.4byte	.LASF88
 1298 04fe 08       		.byte	0x8
 1299 04ff 4202     		.2byte	0x242
 1300 0501 B8000000 		.4byte	0xb8
 1301 0505 1C       		.byte	0x1c
 1302 0506 08       		.uleb128 0x8
 1303 0507 E8050000 		.4byte	.LASF89
 1304 050b 08       		.byte	0x8
 1305 050c 4302     		.2byte	0x243
 1306 050e 71040000 		.4byte	0x471
 1307 0512 20       		.byte	0x20
ARM GAS  /var/folders/m4/4md61f0s1_g0rzfghffqnxvr0000gn/T//ccD1WRxm.s 			page 24


 1308 0513 08       		.uleb128 0x8
 1309 0514 FB010000 		.4byte	.LASF90
 1310 0518 08       		.byte	0x8
 1311 0519 4402     		.2byte	0x244
 1312 051b 71040000 		.4byte	0x471
 1313 051f 24       		.byte	0x24
 1314 0520 08       		.uleb128 0x8
 1315 0521 3F060000 		.4byte	.LASF91
 1316 0525 08       		.byte	0x8
 1317 0526 4502     		.2byte	0x245
 1318 0528 76040000 		.4byte	0x476
 1319 052c 28       		.byte	0x28
 1320 052d 08       		.uleb128 0x8
 1321 052e 0D090000 		.4byte	.LASF92
 1322 0532 08       		.byte	0x8
 1323 0533 4602     		.2byte	0x246
 1324 0535 71040000 		.4byte	0x471
 1325 0539 30       		.byte	0x30
 1326 053a 08       		.uleb128 0x8
 1327 053b 51080000 		.4byte	.LASF93
 1328 053f 08       		.byte	0x8
 1329 0540 4702     		.2byte	0x247
 1330 0542 71040000 		.4byte	0x471
 1331 0546 34       		.byte	0x34
 1332 0547 08       		.uleb128 0x8
 1333 0548 A0050000 		.4byte	.LASF94
 1334 054c 08       		.byte	0x8
 1335 054d 4802     		.2byte	0x248
 1336 054f 71040000 		.4byte	0x471
 1337 0553 38       		.byte	0x38
 1338 0554 08       		.uleb128 0x8
 1339 0555 49060000 		.4byte	.LASF95
 1340 0559 08       		.byte	0x8
 1341 055a 4902     		.2byte	0x249
 1342 055c B8000000 		.4byte	0xb8
 1343 0560 3C       		.byte	0x3c
 1344 0561 08       		.uleb128 0x8
 1345 0562 49080000 		.4byte	.LASF96
 1346 0566 08       		.byte	0x8
 1347 0567 4A02     		.2byte	0x24a
 1348 0569 71040000 		.4byte	0x471
 1349 056d 40       		.byte	0x40
 1350 056e 08       		.uleb128 0x8
 1351 056f 38070000 		.4byte	.LASF97
 1352 0573 08       		.byte	0x8
 1353 0574 4B02     		.2byte	0x24b
 1354 0576 71040000 		.4byte	0x471
 1355 057a 44       		.byte	0x44
 1356 057b 08       		.uleb128 0x8
 1357 057c 53060000 		.4byte	.LASF98
 1358 0580 08       		.byte	0x8
 1359 0581 4C02     		.2byte	0x24c
 1360 0583 76040000 		.4byte	0x476
 1361 0587 48       		.byte	0x48
 1362 0588 08       		.uleb128 0x8
 1363 0589 63010000 		.4byte	.LASF99
 1364 058d 08       		.byte	0x8
ARM GAS  /var/folders/m4/4md61f0s1_g0rzfghffqnxvr0000gn/T//ccD1WRxm.s 			page 25


 1365 058e 4D02     		.2byte	0x24d
 1366 0590 71040000 		.4byte	0x471
 1367 0594 50       		.byte	0x50
 1368 0595 08       		.uleb128 0x8
 1369 0596 C3050000 		.4byte	.LASF100
 1370 059a 08       		.byte	0x8
 1371 059b 4E02     		.2byte	0x24e
 1372 059d 71040000 		.4byte	0x471
 1373 05a1 54       		.byte	0x54
 1374 05a2 08       		.uleb128 0x8
 1375 05a3 F9060000 		.4byte	.LASF101
 1376 05a7 08       		.byte	0x8
 1377 05a8 4F02     		.2byte	0x24f
 1378 05aa 71040000 		.4byte	0x471
 1379 05ae 58       		.byte	0x58
 1380 05af 08       		.uleb128 0x8
 1381 05b0 5D060000 		.4byte	.LASF102
 1382 05b4 08       		.byte	0x8
 1383 05b5 5002     		.2byte	0x250
 1384 05b7 B8000000 		.4byte	0xb8
 1385 05bb 5C       		.byte	0x5c
 1386 05bc 08       		.uleb128 0x8
 1387 05bd 28020000 		.4byte	.LASF103
 1388 05c1 08       		.byte	0x8
 1389 05c2 5102     		.2byte	0x251
 1390 05c4 71040000 		.4byte	0x471
 1391 05c8 60       		.byte	0x60
 1392 05c9 08       		.uleb128 0x8
 1393 05ca A7030000 		.4byte	.LASF104
 1394 05ce 08       		.byte	0x8
 1395 05cf 5202     		.2byte	0x252
 1396 05d1 71040000 		.4byte	0x471
 1397 05d5 64       		.byte	0x64
 1398 05d6 08       		.uleb128 0x8
 1399 05d7 78070000 		.4byte	.LASF105
 1400 05db 08       		.byte	0x8
 1401 05dc 5302     		.2byte	0x253
 1402 05de 76040000 		.4byte	0x476
 1403 05e2 68       		.byte	0x68
 1404 05e3 08       		.uleb128 0x8
 1405 05e4 CE080000 		.4byte	.LASF106
 1406 05e8 08       		.byte	0x8
 1407 05e9 5402     		.2byte	0x254
 1408 05eb 71040000 		.4byte	0x471
 1409 05ef 70       		.byte	0x70
 1410 05f0 07       		.uleb128 0x7
 1411 05f1 43535200 		.ascii	"CSR\000"
 1412 05f5 08       		.byte	0x8
 1413 05f6 5502     		.2byte	0x255
 1414 05f8 71040000 		.4byte	0x471
 1415 05fc 74       		.byte	0x74
 1416 05fd 08       		.uleb128 0x8
 1417 05fe 6E060000 		.4byte	.LASF107
 1418 0602 08       		.byte	0x8
 1419 0603 5602     		.2byte	0x256
 1420 0605 76040000 		.4byte	0x476
 1421 0609 78       		.byte	0x78
ARM GAS  /var/folders/m4/4md61f0s1_g0rzfghffqnxvr0000gn/T//ccD1WRxm.s 			page 26


 1422 060a 08       		.uleb128 0x8
 1423 060b 95080000 		.4byte	.LASF108
 1424 060f 08       		.byte	0x8
 1425 0610 5702     		.2byte	0x257
 1426 0612 71040000 		.4byte	0x471
 1427 0616 80       		.byte	0x80
 1428 0617 08       		.uleb128 0x8
 1429 0618 4B030000 		.4byte	.LASF109
 1430 061c 08       		.byte	0x8
 1431 061d 5802     		.2byte	0x258
 1432 061f 71040000 		.4byte	0x471
 1433 0623 84       		.byte	0x84
 1434 0624 08       		.uleb128 0x8
 1435 0625 FC050000 		.4byte	.LASF110
 1436 0629 08       		.byte	0x8
 1437 062a 5902     		.2byte	0x259
 1438 062c 71040000 		.4byte	0x471
 1439 0630 88       		.byte	0x88
 1440 0631 08       		.uleb128 0x8
 1441 0632 95010000 		.4byte	.LASF111
 1442 0636 08       		.byte	0x8
 1443 0637 5A02     		.2byte	0x25a
 1444 0639 71040000 		.4byte	0x471
 1445 063d 8C       		.byte	0x8c
 1446 063e 08       		.uleb128 0x8
 1447 063f C5080000 		.4byte	.LASF112
 1448 0643 08       		.byte	0x8
 1449 0644 5B02     		.2byte	0x25b
 1450 0646 71040000 		.4byte	0x471
 1451 064a 90       		.byte	0x90
 1452 064b 08       		.uleb128 0x8
 1453 064c B8010000 		.4byte	.LASF113
 1454 0650 08       		.byte	0x8
 1455 0651 5C02     		.2byte	0x25c
 1456 0653 71040000 		.4byte	0x471
 1457 0657 94       		.byte	0x94
 1458 0658 00       		.byte	0
 1459 0659 13       		.uleb128 0x13
 1460 065a C7060000 		.4byte	.LASF114
 1461 065e 08       		.byte	0x8
 1462 065f 5D02     		.2byte	0x25d
 1463 0661 96040000 		.4byte	0x496
 1464 0665 04       		.uleb128 0x4
 1465 0666 82020000 		.4byte	.LASF115
 1466 066a 09       		.byte	0x9
 1467 066b 65       		.byte	0x65
 1468 066c 34030000 		.4byte	0x334
 1469 0670 04       		.uleb128 0x4
 1470 0671 04040000 		.4byte	.LASF116
 1471 0675 09       		.byte	0x9
 1472 0676 6D       		.byte	0x6d
 1473 0677 C3000000 		.4byte	0xc3
 1474 067b 05       		.uleb128 0x5
 1475 067c 59080000 		.4byte	.LASF117
 1476 0680 04       		.byte	0x4
 1477 0681 09       		.byte	0x9
 1478 0682 89       		.byte	0x89
ARM GAS  /var/folders/m4/4md61f0s1_g0rzfghffqnxvr0000gn/T//ccD1WRxm.s 			page 27


 1479 0683 94060000 		.4byte	0x694
 1480 0687 14       		.uleb128 0x14
 1481 0688 72313300 		.ascii	"r13\000"
 1482 068c 09       		.byte	0x9
 1483 068d 8A       		.byte	0x8a
 1484 068e DE070000 		.4byte	0x7de
 1485 0692 00       		.byte	0
 1486 0693 00       		.byte	0
 1487 0694 05       		.uleb128 0x5
 1488 0695 93000000 		.4byte	.LASF118
 1489 0699 64       		.byte	0x64
 1490 069a 0A       		.byte	0xa
 1491 069b FD       		.byte	0xfd
 1492 069c DE070000 		.4byte	0x7de
 1493 06a0 14       		.uleb128 0x14
 1494 06a1 73313600 		.ascii	"s16\000"
 1495 06a5 0A       		.byte	0xa
 1496 06a6 FF       		.byte	0xff
 1497 06a7 65060000 		.4byte	0x665
 1498 06ab 00       		.byte	0
 1499 06ac 07       		.uleb128 0x7
 1500 06ad 73313700 		.ascii	"s17\000"
 1501 06b1 0A       		.byte	0xa
 1502 06b2 0001     		.2byte	0x100
 1503 06b4 65060000 		.4byte	0x665
 1504 06b8 04       		.byte	0x4
 1505 06b9 07       		.uleb128 0x7
 1506 06ba 73313800 		.ascii	"s18\000"
 1507 06be 0A       		.byte	0xa
 1508 06bf 0101     		.2byte	0x101
 1509 06c1 65060000 		.4byte	0x665
 1510 06c5 08       		.byte	0x8
 1511 06c6 07       		.uleb128 0x7
 1512 06c7 73313900 		.ascii	"s19\000"
 1513 06cb 0A       		.byte	0xa
 1514 06cc 0201     		.2byte	0x102
 1515 06ce 65060000 		.4byte	0x665
 1516 06d2 0C       		.byte	0xc
 1517 06d3 07       		.uleb128 0x7
 1518 06d4 73323000 		.ascii	"s20\000"
 1519 06d8 0A       		.byte	0xa
 1520 06d9 0301     		.2byte	0x103
 1521 06db 65060000 		.4byte	0x665
 1522 06df 10       		.byte	0x10
 1523 06e0 07       		.uleb128 0x7
 1524 06e1 73323100 		.ascii	"s21\000"
 1525 06e5 0A       		.byte	0xa
 1526 06e6 0401     		.2byte	0x104
 1527 06e8 65060000 		.4byte	0x665
 1528 06ec 14       		.byte	0x14
 1529 06ed 07       		.uleb128 0x7
 1530 06ee 73323200 		.ascii	"s22\000"
 1531 06f2 0A       		.byte	0xa
 1532 06f3 0501     		.2byte	0x105
 1533 06f5 65060000 		.4byte	0x665
 1534 06f9 18       		.byte	0x18
 1535 06fa 07       		.uleb128 0x7
ARM GAS  /var/folders/m4/4md61f0s1_g0rzfghffqnxvr0000gn/T//ccD1WRxm.s 			page 28


 1536 06fb 73323300 		.ascii	"s23\000"
 1537 06ff 0A       		.byte	0xa
 1538 0700 0601     		.2byte	0x106
 1539 0702 65060000 		.4byte	0x665
 1540 0706 1C       		.byte	0x1c
 1541 0707 07       		.uleb128 0x7
 1542 0708 73323400 		.ascii	"s24\000"
 1543 070c 0A       		.byte	0xa
 1544 070d 0701     		.2byte	0x107
 1545 070f 65060000 		.4byte	0x665
 1546 0713 20       		.byte	0x20
 1547 0714 07       		.uleb128 0x7
 1548 0715 73323500 		.ascii	"s25\000"
 1549 0719 0A       		.byte	0xa
 1550 071a 0801     		.2byte	0x108
 1551 071c 65060000 		.4byte	0x665
 1552 0720 24       		.byte	0x24
 1553 0721 07       		.uleb128 0x7
 1554 0722 73323600 		.ascii	"s26\000"
 1555 0726 0A       		.byte	0xa
 1556 0727 0901     		.2byte	0x109
 1557 0729 65060000 		.4byte	0x665
 1558 072d 28       		.byte	0x28
 1559 072e 07       		.uleb128 0x7
 1560 072f 73323700 		.ascii	"s27\000"
 1561 0733 0A       		.byte	0xa
 1562 0734 0A01     		.2byte	0x10a
 1563 0736 65060000 		.4byte	0x665
 1564 073a 2C       		.byte	0x2c
 1565 073b 07       		.uleb128 0x7
 1566 073c 73323800 		.ascii	"s28\000"
 1567 0740 0A       		.byte	0xa
 1568 0741 0B01     		.2byte	0x10b
 1569 0743 65060000 		.4byte	0x665
 1570 0747 30       		.byte	0x30
 1571 0748 07       		.uleb128 0x7
 1572 0749 73323900 		.ascii	"s29\000"
 1573 074d 0A       		.byte	0xa
 1574 074e 0C01     		.2byte	0x10c
 1575 0750 65060000 		.4byte	0x665
 1576 0754 34       		.byte	0x34
 1577 0755 07       		.uleb128 0x7
 1578 0756 73333000 		.ascii	"s30\000"
 1579 075a 0A       		.byte	0xa
 1580 075b 0D01     		.2byte	0x10d
 1581 075d 65060000 		.4byte	0x665
 1582 0761 38       		.byte	0x38
 1583 0762 07       		.uleb128 0x7
 1584 0763 73333100 		.ascii	"s31\000"
 1585 0767 0A       		.byte	0xa
 1586 0768 0E01     		.2byte	0x10e
 1587 076a 65060000 		.4byte	0x665
 1588 076e 3C       		.byte	0x3c
 1589 076f 07       		.uleb128 0x7
 1590 0770 723400   		.ascii	"r4\000"
 1591 0773 0A       		.byte	0xa
 1592 0774 1001     		.2byte	0x110
ARM GAS  /var/folders/m4/4md61f0s1_g0rzfghffqnxvr0000gn/T//ccD1WRxm.s 			page 29


 1593 0776 65060000 		.4byte	0x665
 1594 077a 40       		.byte	0x40
 1595 077b 07       		.uleb128 0x7
 1596 077c 723500   		.ascii	"r5\000"
 1597 077f 0A       		.byte	0xa
 1598 0780 1101     		.2byte	0x111
 1599 0782 65060000 		.4byte	0x665
 1600 0786 44       		.byte	0x44
 1601 0787 07       		.uleb128 0x7
 1602 0788 723600   		.ascii	"r6\000"
 1603 078b 0A       		.byte	0xa
 1604 078c 1201     		.2byte	0x112
 1605 078e 65060000 		.4byte	0x665
 1606 0792 48       		.byte	0x48
 1607 0793 07       		.uleb128 0x7
 1608 0794 723700   		.ascii	"r7\000"
 1609 0797 0A       		.byte	0xa
 1610 0798 1301     		.2byte	0x113
 1611 079a 65060000 		.4byte	0x665
 1612 079e 4C       		.byte	0x4c
 1613 079f 07       		.uleb128 0x7
 1614 07a0 723800   		.ascii	"r8\000"
 1615 07a3 0A       		.byte	0xa
 1616 07a4 1401     		.2byte	0x114
 1617 07a6 65060000 		.4byte	0x665
 1618 07aa 50       		.byte	0x50
 1619 07ab 07       		.uleb128 0x7
 1620 07ac 723900   		.ascii	"r9\000"
 1621 07af 0A       		.byte	0xa
 1622 07b0 1501     		.2byte	0x115
 1623 07b2 65060000 		.4byte	0x665
 1624 07b6 54       		.byte	0x54
 1625 07b7 07       		.uleb128 0x7
 1626 07b8 72313000 		.ascii	"r10\000"
 1627 07bc 0A       		.byte	0xa
 1628 07bd 1601     		.2byte	0x116
 1629 07bf 65060000 		.4byte	0x665
 1630 07c3 58       		.byte	0x58
 1631 07c4 07       		.uleb128 0x7
 1632 07c5 72313100 		.ascii	"r11\000"
 1633 07c9 0A       		.byte	0xa
 1634 07ca 1701     		.2byte	0x117
 1635 07cc 65060000 		.4byte	0x665
 1636 07d0 5C       		.byte	0x5c
 1637 07d1 07       		.uleb128 0x7
 1638 07d2 6C7200   		.ascii	"lr\000"
 1639 07d5 0A       		.byte	0xa
 1640 07d6 1801     		.2byte	0x118
 1641 07d8 65060000 		.4byte	0x665
 1642 07dc 60       		.byte	0x60
 1643 07dd 00       		.byte	0
 1644 07de 09       		.uleb128 0x9
 1645 07df 04       		.byte	0x4
 1646 07e0 94060000 		.4byte	0x694
 1647 07e4 15       		.uleb128 0x15
 1648 07e5 04       		.byte	0x4
 1649 07e6 0B       		.byte	0xb
ARM GAS  /var/folders/m4/4md61f0s1_g0rzfghffqnxvr0000gn/T//ccD1WRxm.s 			page 30


 1650 07e7 38       		.byte	0x38
 1651 07e8 F9070000 		.4byte	0x7f9
 1652 07ec 06       		.uleb128 0x6
 1653 07ed 42080000 		.4byte	.LASF119
 1654 07f1 0B       		.byte	0xb
 1655 07f2 3C       		.byte	0x3c
 1656 07f3 CE000000 		.4byte	0xce
 1657 07f7 00       		.byte	0
 1658 07f8 00       		.byte	0
 1659 07f9 04       		.uleb128 0x4
 1660 07fa CD050000 		.4byte	.LASF120
 1661 07fe 0B       		.byte	0xb
 1662 07ff 3D       		.byte	0x3d
 1663 0800 E4070000 		.4byte	0x7e4
 1664 0804 16       		.uleb128 0x16
 1665 0805 04       		.byte	0x4
 1666 0806 07       		.byte	0x7
 1667 0807 FA       		.byte	0xfa
 1668 0808 61080000 		.4byte	0x861
 1669 080c 17       		.uleb128 0x17
 1670 080d 79000000 		.4byte	.LASF121
 1671 0811 07       		.byte	0x7
 1672 0812 0101     		.2byte	0x101
 1673 0814 10010000 		.4byte	0x110
 1674 0818 17       		.uleb128 0x17
 1675 0819 12010000 		.4byte	.LASF122
 1676 081d 07       		.byte	0x7
 1677 081e 0801     		.2byte	0x108
 1678 0820 10010000 		.4byte	0x110
 1679 0824 17       		.uleb128 0x17
 1680 0825 FF080000 		.4byte	.LASF123
 1681 0829 07       		.byte	0x7
 1682 082a 0F01     		.2byte	0x10f
 1683 082c 34030000 		.4byte	0x334
 1684 0830 17       		.uleb128 0x17
 1685 0831 88050000 		.4byte	.LASF124
 1686 0835 07       		.byte	0x7
 1687 0836 1601     		.2byte	0x116
 1688 0838 61080000 		.4byte	0x861
 1689 083c 17       		.uleb128 0x17
 1690 083d EB020000 		.4byte	.LASF125
 1691 0841 07       		.byte	0x7
 1692 0842 1E01     		.2byte	0x11e
 1693 0844 8C080000 		.4byte	0x88c
 1694 0848 17       		.uleb128 0x17
 1695 0849 8B070000 		.4byte	.LASF126
 1696 084d 07       		.byte	0x7
 1697 084e 2701     		.2byte	0x127
 1698 0850 C3080000 		.4byte	0x8c3
 1699 0854 17       		.uleb128 0x17
 1700 0855 0A070000 		.4byte	.LASF127
 1701 0859 07       		.byte	0x7
 1702 085a 2F01     		.2byte	0x12f
 1703 085c 1B010000 		.4byte	0x11b
 1704 0860 00       		.byte	0
 1705 0861 09       		.uleb128 0x9
 1706 0862 04       		.byte	0x4
ARM GAS  /var/folders/m4/4md61f0s1_g0rzfghffqnxvr0000gn/T//ccD1WRxm.s 			page 31


 1707 0863 4C020000 		.4byte	0x24c
 1708 0867 05       		.uleb128 0x5
 1709 0868 59070000 		.4byte	.LASF128
 1710 086c 0C       		.byte	0xc
 1711 086d 0C       		.byte	0xc
 1712 086e 34       		.byte	0x34
 1713 086f 8C080000 		.4byte	0x88c
 1714 0873 06       		.uleb128 0x6
 1715 0874 22090000 		.4byte	.LASF129
 1716 0878 0C       		.byte	0xc
 1717 0879 35       		.byte	0x35
 1718 087a 81020000 		.4byte	0x281
 1719 087e 00       		.byte	0
 1720 087f 06       		.uleb128 0x6
 1721 0880 C1060000 		.4byte	.LASF130
 1722 0884 0C       		.byte	0xc
 1723 0885 37       		.byte	0x37
 1724 0886 26010000 		.4byte	0x126
 1725 088a 08       		.byte	0x8
 1726 088b 00       		.byte	0
 1727 088c 09       		.uleb128 0x9
 1728 088d 04       		.byte	0x4
 1729 088e 67080000 		.4byte	0x867
 1730 0892 05       		.uleb128 0x5
 1731 0893 B5080000 		.4byte	.LASF131
 1732 0897 10       		.byte	0x10
 1733 0898 0D       		.byte	0xd
 1734 0899 39       		.byte	0x39
 1735 089a C3080000 		.4byte	0x8c3
 1736 089e 06       		.uleb128 0x6
 1737 089f AC060000 		.4byte	.LASF132
 1738 08a3 0D       		.byte	0xd
 1739 08a4 3A       		.byte	0x3a
 1740 08a5 81020000 		.4byte	0x281
 1741 08a9 00       		.byte	0
 1742 08aa 06       		.uleb128 0x6
 1743 08ab 41090000 		.4byte	.LASF133
 1744 08af 0D       		.byte	0xd
 1745 08b0 3C       		.byte	0x3c
 1746 08b1 57020000 		.4byte	0x257
 1747 08b5 08       		.byte	0x8
 1748 08b6 06       		.uleb128 0x6
 1749 08b7 01080000 		.4byte	.LASF134
 1750 08bb 0D       		.byte	0xd
 1751 08bc 3E       		.byte	0x3e
 1752 08bd 06090000 		.4byte	0x906
 1753 08c1 0C       		.byte	0xc
 1754 08c2 00       		.byte	0
 1755 08c3 09       		.uleb128 0x9
 1756 08c4 04       		.byte	0x4
 1757 08c5 92080000 		.4byte	0x892
 1758 08c9 09       		.uleb128 0x9
 1759 08ca 04       		.byte	0x4
 1760 08cb CF080000 		.4byte	0x8cf
 1761 08cf 18       		.uleb128 0x18
 1762 08d0 D4080000 		.4byte	0x8d4
 1763 08d4 02       		.uleb128 0x2
ARM GAS  /var/folders/m4/4md61f0s1_g0rzfghffqnxvr0000gn/T//ccD1WRxm.s 			page 32


 1764 08d5 01       		.byte	0x1
 1765 08d6 08       		.byte	0x8
 1766 08d7 D4070000 		.4byte	.LASF135
 1767 08db 0F       		.uleb128 0xf
 1768 08dc 31010000 		.4byte	0x131
 1769 08e0 09       		.uleb128 0x9
 1770 08e1 04       		.byte	0x4
 1771 08e2 36030000 		.4byte	0x336
 1772 08e6 0F       		.uleb128 0xf
 1773 08e7 C9080000 		.4byte	0x8c9
 1774 08eb 10       		.uleb128 0x10
 1775 08ec 70060000 		.4byte	0x670
 1776 08f0 FB080000 		.4byte	0x8fb
 1777 08f4 11       		.uleb128 0x11
 1778 08f5 6A040000 		.4byte	0x46a
 1779 08f9 3A       		.byte	0x3a
 1780 08fa 00       		.byte	0
 1781 08fb 04       		.uleb128 0x4
 1782 08fc 0F040000 		.4byte	.LASF136
 1783 0900 0D       		.byte	0xd
 1784 0901 34       		.byte	0x34
 1785 0902 92080000 		.4byte	0x892
 1786 0906 09       		.uleb128 0x9
 1787 0907 04       		.byte	0x4
 1788 0908 FB080000 		.4byte	0x8fb
 1789 090c 02       		.uleb128 0x2
 1790 090d 01       		.byte	0x1
 1791 090e 02       		.byte	0x2
 1792 090f 90060000 		.4byte	.LASF137
 1793 0913 19       		.uleb128 0x19
 1794 0914 01       		.byte	0x1
 1795 0915 0E       		.byte	0xe
 1796 0916 4A       		.byte	0x4a
 1797 0917 2E090000 		.4byte	0x92e
 1798 091b 1A       		.uleb128 0x1a
 1799 091c 36090000 		.4byte	.LASF138
 1800 0920 00       		.sleb128 0
 1801 0921 1A       		.uleb128 0x1a
 1802 0922 CB070000 		.4byte	.LASF139
 1803 0926 01       		.sleb128 1
 1804 0927 1A       		.uleb128 0x1a
 1805 0928 74010000 		.4byte	.LASF140
 1806 092c 02       		.sleb128 2
 1807 092d 00       		.byte	0
 1808 092e 04       		.uleb128 0x4
 1809 092f EB080000 		.4byte	.LASF141
 1810 0933 0E       		.byte	0xe
 1811 0934 4E       		.byte	0x4e
 1812 0935 13090000 		.4byte	0x913
 1813 0939 04       		.uleb128 0x4
 1814 093a E1080000 		.4byte	.LASF142
 1815 093e 0E       		.byte	0xe
 1816 093f 53       		.byte	0x53
 1817 0940 44090000 		.4byte	0x944
 1818 0944 0A       		.uleb128 0xa
 1819 0945 E1080000 		.4byte	.LASF142
 1820 0949 1C       		.byte	0x1c
ARM GAS  /var/folders/m4/4md61f0s1_g0rzfghffqnxvr0000gn/T//ccD1WRxm.s 			page 33


 1821 094a 0F       		.byte	0xf
 1822 094b B301     		.2byte	0x1b3
 1823 094d AD090000 		.4byte	0x9ad
 1824 0951 08       		.uleb128 0x8
 1825 0952 D5010000 		.4byte	.LASF143
 1826 0956 0F       		.byte	0xf
 1827 0957 B701     		.2byte	0x1b7
 1828 0959 2E090000 		.4byte	0x92e
 1829 095d 00       		.byte	0
 1830 095e 08       		.uleb128 0x8
 1831 095f DE070000 		.4byte	.LASF144
 1832 0963 0F       		.byte	0xf
 1833 0964 BB01     		.2byte	0x1bb
 1834 0966 C50B0000 		.4byte	0xbc5
 1835 096a 04       		.byte	0x4
 1836 096b 08       		.uleb128 0x8
 1837 096c 31080000 		.4byte	.LASF145
 1838 0970 0F       		.byte	0xf
 1839 0971 BF01     		.2byte	0x1bf
 1840 0973 150B0000 		.4byte	0xb15
 1841 0977 08       		.byte	0x8
 1842 0978 08       		.uleb128 0x8
 1843 0979 9A070000 		.4byte	.LASF146
 1844 097d 0F       		.byte	0xf
 1845 097e C301     		.2byte	0x1c3
 1846 0980 090B0000 		.4byte	0xb09
 1847 0984 0C       		.byte	0xc
 1848 0985 08       		.uleb128 0x8
 1849 0986 DB010000 		.4byte	.LASF147
 1850 098a 0F       		.byte	0xf
 1851 098b C701     		.2byte	0x1c7
 1852 098d FD0A0000 		.4byte	0xafd
 1853 0991 10       		.byte	0x10
 1854 0992 08       		.uleb128 0x8
 1855 0993 2A090000 		.4byte	.LASF148
 1856 0997 0F       		.byte	0xf
 1857 0998 CF01     		.2byte	0x1cf
 1858 099a B8000000 		.4byte	0xb8
 1859 099e 14       		.byte	0x14
 1860 099f 07       		.uleb128 0x7
 1861 09a0 74696D00 		.ascii	"tim\000"
 1862 09a4 0F       		.byte	0xf
 1863 09a5 D301     		.2byte	0x1d3
 1864 09a7 D00B0000 		.4byte	0xbd0
 1865 09ab 18       		.byte	0x18
 1866 09ac 00       		.byte	0
 1867 09ad 04       		.uleb128 0x4
 1868 09ae 3B020000 		.4byte	.LASF149
 1869 09b2 0E       		.byte	0xe
 1870 09b3 5A       		.byte	0x5a
 1871 09b4 B8090000 		.4byte	0x9b8
 1872 09b8 09       		.uleb128 0x9
 1873 09b9 04       		.byte	0x4
 1874 09ba BE090000 		.4byte	0x9be
 1875 09be 0B       		.uleb128 0xb
 1876 09bf C9090000 		.4byte	0x9c9
 1877 09c3 0C       		.uleb128 0xc
ARM GAS  /var/folders/m4/4md61f0s1_g0rzfghffqnxvr0000gn/T//ccD1WRxm.s 			page 34


 1878 09c4 C9090000 		.4byte	0x9c9
 1879 09c8 00       		.byte	0
 1880 09c9 09       		.uleb128 0x9
 1881 09ca 04       		.byte	0x4
 1882 09cb 39090000 		.4byte	0x939
 1883 09cf 12       		.uleb128 0x12
 1884 09d0 60       		.byte	0x60
 1885 09d1 10       		.byte	0x10
 1886 09d2 A101     		.2byte	0x1a1
 1887 09d4 DB0A0000 		.4byte	0xadb
 1888 09d8 07       		.uleb128 0x7
 1889 09d9 43523100 		.ascii	"CR1\000"
 1890 09dd 10       		.byte	0x10
 1891 09de A201     		.2byte	0x1a2
 1892 09e0 71040000 		.4byte	0x471
 1893 09e4 00       		.byte	0
 1894 09e5 07       		.uleb128 0x7
 1895 09e6 43523200 		.ascii	"CR2\000"
 1896 09ea 10       		.byte	0x10
 1897 09eb A301     		.2byte	0x1a3
 1898 09ed 71040000 		.4byte	0x471
 1899 09f1 04       		.byte	0x4
 1900 09f2 08       		.uleb128 0x8
 1901 09f3 46030000 		.4byte	.LASF150
 1902 09f7 10       		.byte	0x10
 1903 09f8 A401     		.2byte	0x1a4
 1904 09fa 71040000 		.4byte	0x471
 1905 09fe 08       		.byte	0x8
 1906 09ff 08       		.uleb128 0x8
 1907 0a00 55000000 		.4byte	.LASF151
 1908 0a04 10       		.byte	0x10
 1909 0a05 A501     		.2byte	0x1a5
 1910 0a07 71040000 		.4byte	0x471
 1911 0a0b 0C       		.byte	0xc
 1912 0a0c 07       		.uleb128 0x7
 1913 0a0d 535200   		.ascii	"SR\000"
 1914 0a10 10       		.byte	0x10
 1915 0a11 A601     		.2byte	0x1a6
 1916 0a13 71040000 		.4byte	0x471
 1917 0a17 10       		.byte	0x10
 1918 0a18 07       		.uleb128 0x7
 1919 0a19 45475200 		.ascii	"EGR\000"
 1920 0a1d 10       		.byte	0x10
 1921 0a1e A701     		.2byte	0x1a7
 1922 0a20 71040000 		.4byte	0x471
 1923 0a24 14       		.byte	0x14
 1924 0a25 08       		.uleb128 0x8
 1925 0a26 8F010000 		.4byte	.LASF152
 1926 0a2a 10       		.byte	0x10
 1927 0a2b A801     		.2byte	0x1a8
 1928 0a2d 71040000 		.4byte	0x471
 1929 0a31 18       		.byte	0x18
 1930 0a32 08       		.uleb128 0x8
 1931 0a33 BF000000 		.4byte	.LASF153
 1932 0a37 10       		.byte	0x10
 1933 0a38 A901     		.2byte	0x1a9
 1934 0a3a 71040000 		.4byte	0x471
ARM GAS  /var/folders/m4/4md61f0s1_g0rzfghffqnxvr0000gn/T//ccD1WRxm.s 			page 35


 1935 0a3e 1C       		.byte	0x1c
 1936 0a3f 08       		.uleb128 0x8
 1937 0a40 FC070000 		.4byte	.LASF154
 1938 0a44 10       		.byte	0x10
 1939 0a45 AA01     		.2byte	0x1aa
 1940 0a47 71040000 		.4byte	0x471
 1941 0a4b 20       		.byte	0x20
 1942 0a4c 07       		.uleb128 0x7
 1943 0a4d 434E5400 		.ascii	"CNT\000"
 1944 0a51 10       		.byte	0x10
 1945 0a52 AB01     		.2byte	0x1ab
 1946 0a54 71040000 		.4byte	0x471
 1947 0a58 24       		.byte	0x24
 1948 0a59 07       		.uleb128 0x7
 1949 0a5a 50534300 		.ascii	"PSC\000"
 1950 0a5e 10       		.byte	0x10
 1951 0a5f AC01     		.2byte	0x1ac
 1952 0a61 71040000 		.4byte	0x471
 1953 0a65 28       		.byte	0x28
 1954 0a66 07       		.uleb128 0x7
 1955 0a67 41525200 		.ascii	"ARR\000"
 1956 0a6b 10       		.byte	0x10
 1957 0a6c AD01     		.2byte	0x1ad
 1958 0a6e 71040000 		.4byte	0x471
 1959 0a72 2C       		.byte	0x2c
 1960 0a73 07       		.uleb128 0x7
 1961 0a74 52435200 		.ascii	"RCR\000"
 1962 0a78 10       		.byte	0x10
 1963 0a79 AE01     		.2byte	0x1ae
 1964 0a7b 71040000 		.4byte	0x471
 1965 0a7f 30       		.byte	0x30
 1966 0a80 07       		.uleb128 0x7
 1967 0a81 43435200 		.ascii	"CCR\000"
 1968 0a85 10       		.byte	0x10
 1969 0a86 AF01     		.2byte	0x1af
 1970 0a88 DB0A0000 		.4byte	0xadb
 1971 0a8c 34       		.byte	0x34
 1972 0a8d 08       		.uleb128 0x8
 1973 0a8e 54010000 		.4byte	.LASF155
 1974 0a92 10       		.byte	0x10
 1975 0a93 B001     		.2byte	0x1b0
 1976 0a95 71040000 		.4byte	0x471
 1977 0a99 44       		.byte	0x44
 1978 0a9a 07       		.uleb128 0x7
 1979 0a9b 44435200 		.ascii	"DCR\000"
 1980 0a9f 10       		.byte	0x10
 1981 0aa0 B101     		.2byte	0x1b1
 1982 0aa2 71040000 		.4byte	0x471
 1983 0aa6 48       		.byte	0x48
 1984 0aa7 08       		.uleb128 0x8
 1985 0aa8 E5070000 		.4byte	.LASF156
 1986 0aac 10       		.byte	0x10
 1987 0aad B201     		.2byte	0x1b2
 1988 0aaf 71040000 		.4byte	0x471
 1989 0ab3 4C       		.byte	0x4c
 1990 0ab4 07       		.uleb128 0x7
 1991 0ab5 4F5200   		.ascii	"OR\000"
ARM GAS  /var/folders/m4/4md61f0s1_g0rzfghffqnxvr0000gn/T//ccD1WRxm.s 			page 36


 1992 0ab8 10       		.byte	0x10
 1993 0ab9 B301     		.2byte	0x1b3
 1994 0abb 71040000 		.4byte	0x471
 1995 0abf 50       		.byte	0x50
 1996 0ac0 08       		.uleb128 0x8
 1997 0ac1 9D010000 		.4byte	.LASF157
 1998 0ac5 10       		.byte	0x10
 1999 0ac6 B401     		.2byte	0x1b4
 2000 0ac8 71040000 		.4byte	0x471
 2001 0acc 54       		.byte	0x54
 2002 0acd 08       		.uleb128 0x8
 2003 0ace 66070000 		.4byte	.LASF158
 2004 0ad2 10       		.byte	0x10
 2005 0ad3 B501     		.2byte	0x1b5
 2006 0ad5 E00A0000 		.4byte	0xae0
 2007 0ad9 58       		.byte	0x58
 2008 0ada 00       		.byte	0
 2009 0adb 0F       		.uleb128 0xf
 2010 0adc 86040000 		.4byte	0x486
 2011 0ae0 0F       		.uleb128 0xf
 2012 0ae1 76040000 		.4byte	0x476
 2013 0ae5 13       		.uleb128 0x13
 2014 0ae6 9B030000 		.4byte	.LASF159
 2015 0aea 10       		.byte	0x10
 2016 0aeb B601     		.2byte	0x1b6
 2017 0aed CF090000 		.4byte	0x9cf
 2018 0af1 13       		.uleb128 0x13
 2019 0af2 C1010000 		.4byte	.LASF160
 2020 0af6 0F       		.byte	0xf
 2021 0af7 5F01     		.2byte	0x15f
 2022 0af9 B8000000 		.4byte	0xb8
 2023 0afd 13       		.uleb128 0x13
 2024 0afe 3B000000 		.4byte	.LASF161
 2025 0b02 0F       		.byte	0xf
 2026 0b03 6401     		.2byte	0x164
 2027 0b05 A2000000 		.4byte	0xa2
 2028 0b09 13       		.uleb128 0x13
 2029 0b0a 11070000 		.4byte	.LASF162
 2030 0b0e 0F       		.byte	0xf
 2031 0b0f 6901     		.2byte	0x169
 2032 0b11 B8000000 		.4byte	0xb8
 2033 0b15 13       		.uleb128 0x13
 2034 0b16 F6080000 		.4byte	.LASF163
 2035 0b1a 0F       		.byte	0xf
 2036 0b1b 6E01     		.2byte	0x16e
 2037 0b1d B8000000 		.4byte	0xb8
 2038 0b21 12       		.uleb128 0x12
 2039 0b22 08       		.byte	0x8
 2040 0b23 0F       		.byte	0xf
 2041 0b24 7301     		.2byte	0x173
 2042 0b26 450B0000 		.4byte	0xb45
 2043 0b2a 08       		.uleb128 0x8
 2044 0b2b D9070000 		.4byte	.LASF164
 2045 0b2f 0F       		.byte	0xf
 2046 0b30 7701     		.2byte	0x177
 2047 0b32 F10A0000 		.4byte	0xaf1
 2048 0b36 00       		.byte	0
ARM GAS  /var/folders/m4/4md61f0s1_g0rzfghffqnxvr0000gn/T//ccD1WRxm.s 			page 37


 2049 0b37 08       		.uleb128 0x8
 2050 0b38 88030000 		.4byte	.LASF165
 2051 0b3c 0F       		.byte	0xf
 2052 0b3d 7D01     		.2byte	0x17d
 2053 0b3f AD090000 		.4byte	0x9ad
 2054 0b43 04       		.byte	0x4
 2055 0b44 00       		.byte	0
 2056 0b45 13       		.uleb128 0x13
 2057 0b46 75080000 		.4byte	.LASF166
 2058 0b4a 0F       		.byte	0xf
 2059 0b4b 7F01     		.2byte	0x17f
 2060 0b4d 210B0000 		.4byte	0xb21
 2061 0b51 12       		.uleb128 0x12
 2062 0b52 34       		.byte	0x34
 2063 0b53 0F       		.byte	0xf
 2064 0b54 8401     		.2byte	0x184
 2065 0b56 A90B0000 		.4byte	0xba9
 2066 0b5a 08       		.uleb128 0x8
 2067 0b5b 59010000 		.4byte	.LASF167
 2068 0b5f 0F       		.byte	0xf
 2069 0b60 8A01     		.2byte	0x18a
 2070 0b62 B8000000 		.4byte	0xb8
 2071 0b66 00       		.byte	0
 2072 0b67 08       		.uleb128 0x8
 2073 0b68 31080000 		.4byte	.LASF145
 2074 0b6c 0F       		.byte	0xf
 2075 0b6d 9001     		.2byte	0x190
 2076 0b6f 150B0000 		.4byte	0xb15
 2077 0b73 04       		.byte	0x4
 2078 0b74 08       		.uleb128 0x8
 2079 0b75 88030000 		.4byte	.LASF165
 2080 0b79 0F       		.byte	0xf
 2081 0b7a 9601     		.2byte	0x196
 2082 0b7c AD090000 		.4byte	0x9ad
 2083 0b80 08       		.byte	0x8
 2084 0b81 08       		.uleb128 0x8
 2085 0b82 DB010000 		.4byte	.LASF147
 2086 0b86 0F       		.byte	0xf
 2087 0b87 9A01     		.2byte	0x19a
 2088 0b89 A90B0000 		.4byte	0xba9
 2089 0b8d 0C       		.byte	0xc
 2090 0b8e 07       		.uleb128 0x7
 2091 0b8f 63723200 		.ascii	"cr2\000"
 2092 0b93 0F       		.byte	0xf
 2093 0b94 A001     		.2byte	0x1a0
 2094 0b96 B8000000 		.4byte	0xb8
 2095 0b9a 2C       		.byte	0x2c
 2096 0b9b 08       		.uleb128 0x8
 2097 0b9c 65090000 		.4byte	.LASF168
 2098 0ba0 0F       		.byte	0xf
 2099 0ba1 AD01     		.2byte	0x1ad
 2100 0ba3 B8000000 		.4byte	0xb8
 2101 0ba7 30       		.byte	0x30
 2102 0ba8 00       		.byte	0
 2103 0ba9 10       		.uleb128 0x10
 2104 0baa 450B0000 		.4byte	0xb45
 2105 0bae B90B0000 		.4byte	0xbb9
ARM GAS  /var/folders/m4/4md61f0s1_g0rzfghffqnxvr0000gn/T//ccD1WRxm.s 			page 38


 2106 0bb2 11       		.uleb128 0x11
 2107 0bb3 6A040000 		.4byte	0x46a
 2108 0bb7 03       		.byte	0x3
 2109 0bb8 00       		.byte	0
 2110 0bb9 13       		.uleb128 0x13
 2111 0bba 9B080000 		.4byte	.LASF169
 2112 0bbe 0F       		.byte	0xf
 2113 0bbf AE01     		.2byte	0x1ae
 2114 0bc1 510B0000 		.4byte	0xb51
 2115 0bc5 09       		.uleb128 0x9
 2116 0bc6 04       		.byte	0x4
 2117 0bc7 CB0B0000 		.4byte	0xbcb
 2118 0bcb 18       		.uleb128 0x18
 2119 0bcc B90B0000 		.4byte	0xbb9
 2120 0bd0 09       		.uleb128 0x9
 2121 0bd1 04       		.byte	0x4
 2122 0bd2 E50A0000 		.4byte	0xae5
 2123 0bd6 1B       		.uleb128 0x1b
 2124 0bd7 B0050000 		.4byte	.LASF170
 2125 0bdb 01       		.byte	0x1
 2126 0bdc 3301     		.2byte	0x133
 2127 0bde 00000000 		.4byte	.LFB269
 2128 0be2 1C000000 		.4byte	.LFE269-.LFB269
 2129 0be6 01       		.uleb128 0x1
 2130 0be7 9C       		.byte	0x9c
 2131 0be8 FD0B0000 		.4byte	0xbfd
 2132 0bec 1C       		.uleb128 0x1c
 2133 0bed 0A000000 		.4byte	.LVL0
 2134 0bf1 E00E0000 		.4byte	0xee0
 2135 0bf5 1D       		.uleb128 0x1d
 2136 0bf6 01       		.uleb128 0x1
 2137 0bf7 50       		.byte	0x50
 2138 0bf8 02       		.uleb128 0x2
 2139 0bf9 74       		.byte	0x74
 2140 0bfa 00       		.sleb128 0
 2141 0bfb 00       		.byte	0
 2142 0bfc 00       		.byte	0
 2143 0bfd 1B       		.uleb128 0x1b
 2144 0bfe ED010000 		.4byte	.LASF171
 2145 0c02 01       		.byte	0x1
 2146 0c03 7001     		.2byte	0x170
 2147 0c05 00000000 		.4byte	.LFB270
 2148 0c09 E4000000 		.4byte	.LFE270-.LFB270
 2149 0c0d 01       		.uleb128 0x1
 2150 0c0e 9C       		.byte	0x9c
 2151 0c0f 620C0000 		.4byte	0xc62
 2152 0c13 1E       		.uleb128 0x1e
 2153 0c14 FF030000 		.4byte	.LASF174
 2154 0c18 01       		.byte	0x1
 2155 0c19 7001     		.2byte	0x170
 2156 0c1b C9090000 		.4byte	0x9c9
 2157 0c1f 00000000 		.4byte	.LLST0
 2158 0c23 1F       		.uleb128 0x1f
 2159 0c24 70736300 		.ascii	"psc\000"
 2160 0c28 01       		.byte	0x1
 2161 0c29 7101     		.2byte	0x171
 2162 0c2b B8000000 		.4byte	0xb8
ARM GAS  /var/folders/m4/4md61f0s1_g0rzfghffqnxvr0000gn/T//ccD1WRxm.s 			page 39


 2163 0c2f 58000000 		.4byte	.LLST1
 2164 0c33 20       		.uleb128 0x20
 2165 0c34 F0030000 		.4byte	.LASF172
 2166 0c38 01       		.byte	0x1
 2167 0c39 7201     		.2byte	0x172
 2168 0c3b B8000000 		.4byte	0xb8
 2169 0c3f 87000000 		.4byte	.LLST2
 2170 0c43 21       		.uleb128 0x21
 2171 0c44 25070000 		.4byte	.LASF193
 2172 0c48 720C0000 		.4byte	0xc72
 2173 0c4c 1C       		.uleb128 0x1c
 2174 0c4d D2000000 		.4byte	.LVL21
 2175 0c51 F20E0000 		.4byte	0xef2
 2176 0c55 1D       		.uleb128 0x1d
 2177 0c56 01       		.uleb128 0x1
 2178 0c57 51       		.byte	0x51
 2179 0c58 01       		.uleb128 0x1
 2180 0c59 37       		.byte	0x37
 2181 0c5a 1D       		.uleb128 0x1d
 2182 0c5b 01       		.uleb128 0x1
 2183 0c5c 50       		.byte	0x50
 2184 0c5d 02       		.uleb128 0x2
 2185 0c5e 08       		.byte	0x8
 2186 0c5f 32       		.byte	0x32
 2187 0c60 00       		.byte	0
 2188 0c61 00       		.byte	0
 2189 0c62 10       		.uleb128 0x10
 2190 0c63 D4080000 		.4byte	0x8d4
 2191 0c67 720C0000 		.4byte	0xc72
 2192 0c6b 11       		.uleb128 0x11
 2193 0c6c 6A040000 		.4byte	0x46a
 2194 0c70 0D       		.byte	0xd
 2195 0c71 00       		.byte	0
 2196 0c72 18       		.uleb128 0x18
 2197 0c73 620C0000 		.4byte	0xc62
 2198 0c77 1B       		.uleb128 0x1b
 2199 0c78 6B070000 		.4byte	.LASF173
 2200 0c7c 01       		.byte	0x1
 2201 0c7d 6402     		.2byte	0x264
 2202 0c7f 00000000 		.4byte	.LFB271
 2203 0c83 34000000 		.4byte	.LFE271-.LFB271
 2204 0c87 01       		.uleb128 0x1
 2205 0c88 9C       		.byte	0x9c
 2206 0c89 AE0C0000 		.4byte	0xcae
 2207 0c8d 1E       		.uleb128 0x1e
 2208 0c8e FF030000 		.4byte	.LASF174
 2209 0c92 01       		.byte	0x1
 2210 0c93 6402     		.2byte	0x264
 2211 0c95 C9090000 		.4byte	0x9c9
 2212 0c99 BD000000 		.4byte	.LLST3
 2213 0c9d 1C       		.uleb128 0x1c
 2214 0c9e 20000000 		.4byte	.LVL26
 2215 0ca2 080F0000 		.4byte	0xf08
 2216 0ca6 1D       		.uleb128 0x1d
 2217 0ca7 01       		.uleb128 0x1
 2218 0ca8 50       		.byte	0x50
 2219 0ca9 02       		.uleb128 0x2
ARM GAS  /var/folders/m4/4md61f0s1_g0rzfghffqnxvr0000gn/T//ccD1WRxm.s 			page 40


 2220 0caa 08       		.byte	0x8
 2221 0cab 32       		.byte	0x32
 2222 0cac 00       		.byte	0
 2223 0cad 00       		.byte	0
 2224 0cae 1B       		.uleb128 0x1b
 2225 0caf B4070000 		.4byte	.LASF175
 2226 0cb3 01       		.byte	0x1
 2227 0cb4 BF02     		.2byte	0x2bf
 2228 0cb6 00000000 		.4byte	.LFB272
 2229 0cba 0C000000 		.4byte	.LFE272-.LFB272
 2230 0cbe 01       		.uleb128 0x1
 2231 0cbf 9C       		.byte	0x9c
 2232 0cc0 F10C0000 		.4byte	0xcf1
 2233 0cc4 22       		.uleb128 0x22
 2234 0cc5 FF030000 		.4byte	.LASF174
 2235 0cc9 01       		.byte	0x1
 2236 0cca BF02     		.2byte	0x2bf
 2237 0ccc C9090000 		.4byte	0x9c9
 2238 0cd0 01       		.uleb128 0x1
 2239 0cd1 50       		.byte	0x50
 2240 0cd2 1E       		.uleb128 0x1e
 2241 0cd3 40070000 		.4byte	.LASF176
 2242 0cd7 01       		.byte	0x1
 2243 0cd8 C002     		.2byte	0x2c0
 2244 0cda FD0A0000 		.4byte	0xafd
 2245 0cde F7000000 		.4byte	.LLST4
 2246 0ce2 22       		.uleb128 0x22
 2247 0ce3 40030000 		.4byte	.LASF177
 2248 0ce7 01       		.byte	0x1
 2249 0ce8 C102     		.2byte	0x2c1
 2250 0cea 150B0000 		.4byte	0xb15
 2251 0cee 01       		.uleb128 0x1
 2252 0cef 52       		.byte	0x52
 2253 0cf0 00       		.byte	0
 2254 0cf1 1B       		.uleb128 0x1b
 2255 0cf2 3C010000 		.4byte	.LASF178
 2256 0cf6 01       		.byte	0x1
 2257 0cf7 DA02     		.2byte	0x2da
 2258 0cf9 00000000 		.4byte	.LFB273
 2259 0cfd 1C000000 		.4byte	.LFE273-.LFB273
 2260 0d01 01       		.uleb128 0x1
 2261 0d02 9C       		.byte	0x9c
 2262 0d03 260D0000 		.4byte	0xd26
 2263 0d07 1E       		.uleb128 0x1e
 2264 0d08 FF030000 		.4byte	.LASF174
 2265 0d0c 01       		.byte	0x1
 2266 0d0d DA02     		.2byte	0x2da
 2267 0d0f C9090000 		.4byte	0x9c9
 2268 0d13 18010000 		.4byte	.LLST5
 2269 0d17 22       		.uleb128 0x22
 2270 0d18 40070000 		.4byte	.LASF176
 2271 0d1c 01       		.byte	0x1
 2272 0d1d DA02     		.2byte	0x2da
 2273 0d1f FD0A0000 		.4byte	0xafd
 2274 0d23 01       		.uleb128 0x1
 2275 0d24 51       		.byte	0x51
 2276 0d25 00       		.byte	0
ARM GAS  /var/folders/m4/4md61f0s1_g0rzfghffqnxvr0000gn/T//ccD1WRxm.s 			page 41


 2277 0d26 1B       		.uleb128 0x1b
 2278 0d27 11030000 		.4byte	.LASF179
 2279 0d2b 01       		.byte	0x1
 2280 0d2c F202     		.2byte	0x2f2
 2281 0d2e 00000000 		.4byte	.LFB274
 2282 0d32 18000000 		.4byte	.LFE274-.LFB274
 2283 0d36 01       		.uleb128 0x1
 2284 0d37 9C       		.byte	0x9c
 2285 0d38 5B0D0000 		.4byte	0xd5b
 2286 0d3c 22       		.uleb128 0x22
 2287 0d3d FF030000 		.4byte	.LASF174
 2288 0d41 01       		.byte	0x1
 2289 0d42 F202     		.2byte	0x2f2
 2290 0d44 C9090000 		.4byte	0x9c9
 2291 0d48 01       		.uleb128 0x1
 2292 0d49 50       		.byte	0x50
 2293 0d4a 20       		.uleb128 0x20
 2294 0d4b 65090000 		.4byte	.LASF168
 2295 0d4f 01       		.byte	0x1
 2296 0d50 F302     		.2byte	0x2f3
 2297 0d52 B8000000 		.4byte	0xb8
 2298 0d56 39010000 		.4byte	.LLST6
 2299 0d5a 00       		.byte	0
 2300 0d5b 1B       		.uleb128 0x1b
 2301 0d5c 07060000 		.4byte	.LASF180
 2302 0d60 01       		.byte	0x1
 2303 0d61 0603     		.2byte	0x306
 2304 0d63 00000000 		.4byte	.LFB275
 2305 0d67 0C000000 		.4byte	.LFE275-.LFB275
 2306 0d6b 01       		.uleb128 0x1
 2307 0d6c 9C       		.byte	0x9c
 2308 0d6d 800D0000 		.4byte	0xd80
 2309 0d71 22       		.uleb128 0x22
 2310 0d72 FF030000 		.4byte	.LASF174
 2311 0d76 01       		.byte	0x1
 2312 0d77 0603     		.2byte	0x306
 2313 0d79 C9090000 		.4byte	0x9c9
 2314 0d7d 01       		.uleb128 0x1
 2315 0d7e 50       		.byte	0x50
 2316 0d7f 00       		.byte	0
 2317 0d80 1B       		.uleb128 0x1b
 2318 0d81 04020000 		.4byte	.LASF181
 2319 0d85 01       		.byte	0x1
 2320 0d86 1603     		.2byte	0x316
 2321 0d88 00000000 		.4byte	.LFB276
 2322 0d8c 16000000 		.4byte	.LFE276-.LFB276
 2323 0d90 01       		.uleb128 0x1
 2324 0d91 9C       		.byte	0x9c
 2325 0d92 C50D0000 		.4byte	0xdc5
 2326 0d96 1E       		.uleb128 0x1e
 2327 0d97 FF030000 		.4byte	.LASF174
 2328 0d9b 01       		.byte	0x1
 2329 0d9c 1603     		.2byte	0x316
 2330 0d9e C9090000 		.4byte	0x9c9
 2331 0da2 4C010000 		.4byte	.LLST7
 2332 0da6 22       		.uleb128 0x22
 2333 0da7 40070000 		.4byte	.LASF176
ARM GAS  /var/folders/m4/4md61f0s1_g0rzfghffqnxvr0000gn/T//ccD1WRxm.s 			page 42


 2334 0dab 01       		.byte	0x1
 2335 0dac 1703     		.2byte	0x317
 2336 0dae FD0A0000 		.4byte	0xafd
 2337 0db2 01       		.uleb128 0x1
 2338 0db3 51       		.byte	0x51
 2339 0db4 20       		.uleb128 0x20
 2340 0db5 65090000 		.4byte	.LASF168
 2341 0db9 01       		.byte	0x1
 2342 0dba 1803     		.2byte	0x318
 2343 0dbc B8000000 		.4byte	0xb8
 2344 0dc0 6D010000 		.4byte	.LLST8
 2345 0dc4 00       		.byte	0
 2346 0dc5 1B       		.uleb128 0x1b
 2347 0dc6 CB030000 		.4byte	.LASF182
 2348 0dca 01       		.byte	0x1
 2349 0dcb 3203     		.2byte	0x332
 2350 0dcd 00000000 		.4byte	.LFB277
 2351 0dd1 10000000 		.4byte	.LFE277-.LFB277
 2352 0dd5 01       		.uleb128 0x1
 2353 0dd6 9C       		.byte	0x9c
 2354 0dd7 FA0D0000 		.4byte	0xdfa
 2355 0ddb 1E       		.uleb128 0x1e
 2356 0ddc FF030000 		.4byte	.LASF174
 2357 0de0 01       		.byte	0x1
 2358 0de1 3203     		.2byte	0x332
 2359 0de3 C9090000 		.4byte	0x9c9
 2360 0de7 80010000 		.4byte	.LLST9
 2361 0deb 22       		.uleb128 0x22
 2362 0dec 40070000 		.4byte	.LASF176
 2363 0df0 01       		.byte	0x1
 2364 0df1 3303     		.2byte	0x333
 2365 0df3 FD0A0000 		.4byte	0xafd
 2366 0df7 01       		.uleb128 0x1
 2367 0df8 51       		.byte	0x51
 2368 0df9 00       		.byte	0
 2369 0dfa 1B       		.uleb128 0x1b
 2370 0dfb 61000000 		.4byte	.LASF183
 2371 0dff 01       		.byte	0x1
 2372 0e00 4203     		.2byte	0x342
 2373 0e02 00000000 		.4byte	.LFB278
 2374 0e06 5C000000 		.4byte	.LFE278-.LFB278
 2375 0e0a 01       		.uleb128 0x1
 2376 0e0b 9C       		.byte	0x9c
 2377 0e0c 7D0E0000 		.4byte	0xe7d
 2378 0e10 1E       		.uleb128 0x1e
 2379 0e11 FF030000 		.4byte	.LASF174
 2380 0e15 01       		.byte	0x1
 2381 0e16 4203     		.2byte	0x342
 2382 0e18 C9090000 		.4byte	0x9c9
 2383 0e1c A1010000 		.4byte	.LLST10
 2384 0e20 1F       		.uleb128 0x1f
 2385 0e21 737200   		.ascii	"sr\000"
 2386 0e24 01       		.byte	0x1
 2387 0e25 4303     		.2byte	0x343
 2388 0e27 B8000000 		.4byte	0xb8
 2389 0e2b E3010000 		.4byte	.LLST11
 2390 0e2f 23       		.uleb128 0x23
ARM GAS  /var/folders/m4/4md61f0s1_g0rzfghffqnxvr0000gn/T//ccD1WRxm.s 			page 43


 2391 0e30 1E000000 		.4byte	.LVL44
 2392 0e34 3F0E0000 		.4byte	0xe3f
 2393 0e38 1D       		.uleb128 0x1d
 2394 0e39 01       		.uleb128 0x1
 2395 0e3a 50       		.byte	0x50
 2396 0e3b 02       		.uleb128 0x2
 2397 0e3c 75       		.byte	0x75
 2398 0e3d 00       		.sleb128 0
 2399 0e3e 00       		.byte	0
 2400 0e3f 23       		.uleb128 0x23
 2401 0e40 2C000000 		.4byte	.LVL45
 2402 0e44 4F0E0000 		.4byte	0xe4f
 2403 0e48 1D       		.uleb128 0x1d
 2404 0e49 01       		.uleb128 0x1
 2405 0e4a 50       		.byte	0x50
 2406 0e4b 02       		.uleb128 0x2
 2407 0e4c 75       		.byte	0x75
 2408 0e4d 00       		.sleb128 0
 2409 0e4e 00       		.byte	0
 2410 0e4f 23       		.uleb128 0x23
 2411 0e50 3A000000 		.4byte	.LVL46
 2412 0e54 5F0E0000 		.4byte	0xe5f
 2413 0e58 1D       		.uleb128 0x1d
 2414 0e59 01       		.uleb128 0x1
 2415 0e5a 50       		.byte	0x50
 2416 0e5b 02       		.uleb128 0x2
 2417 0e5c 75       		.byte	0x75
 2418 0e5d 00       		.sleb128 0
 2419 0e5e 00       		.byte	0
 2420 0e5f 23       		.uleb128 0x23
 2421 0e60 48000000 		.4byte	.LVL47
 2422 0e64 6F0E0000 		.4byte	0xe6f
 2423 0e68 1D       		.uleb128 0x1d
 2424 0e69 01       		.uleb128 0x1
 2425 0e6a 50       		.byte	0x50
 2426 0e6b 02       		.uleb128 0x2
 2427 0e6c 75       		.byte	0x75
 2428 0e6d 00       		.sleb128 0
 2429 0e6e 00       		.byte	0
 2430 0e6f 24       		.uleb128 0x24
 2431 0e70 5A000000 		.4byte	.LVL49
 2432 0e74 1D       		.uleb128 0x1d
 2433 0e75 01       		.uleb128 0x1
 2434 0e76 50       		.byte	0x50
 2435 0e77 03       		.uleb128 0x3
 2436 0e78 F3       		.byte	0xf3
 2437 0e79 01       		.uleb128 0x1
 2438 0e7a 50       		.byte	0x50
 2439 0e7b 00       		.byte	0
 2440 0e7c 00       		.byte	0
 2441 0e7d 25       		.uleb128 0x25
 2442 0e7e 91030000 		.4byte	.LASF184
 2443 0e82 01       		.byte	0x1
 2444 0e83 DE       		.byte	0xde
 2445 0e84 00000000 		.4byte	.LFB268
 2446 0e88 14000000 		.4byte	.LFE268-.LFB268
 2447 0e8c 01       		.uleb128 0x1
ARM GAS  /var/folders/m4/4md61f0s1_g0rzfghffqnxvr0000gn/T//ccD1WRxm.s 			page 44


 2448 0e8d 9C       		.byte	0x9c
 2449 0e8e B30E0000 		.4byte	0xeb3
 2450 0e92 26       		.uleb128 0x26
 2451 0e93 08000000 		.4byte	.LVL50
 2452 0e97 FA0D0000 		.4byte	0xdfa
 2453 0e9b A90E0000 		.4byte	0xea9
 2454 0e9f 1D       		.uleb128 0x1d
 2455 0ea0 01       		.uleb128 0x1
 2456 0ea1 50       		.byte	0x50
 2457 0ea2 05       		.uleb128 0x5
 2458 0ea3 03       		.byte	0x3
 2459 0ea4 00000000 		.4byte	.LANCHOR0
 2460 0ea8 00       		.byte	0
 2461 0ea9 27       		.uleb128 0x27
 2462 0eaa 10000000 		.4byte	.LVL51
 2463 0eae 190F0000 		.4byte	0xf19
 2464 0eb2 00       		.byte	0
 2465 0eb3 28       		.uleb128 0x28
 2466 0eb4 B4060000 		.4byte	.LASF185
 2467 0eb8 11       		.byte	0x11
 2468 0eb9 FA06     		.2byte	0x6fa
 2469 0ebb BF0E0000 		.4byte	0xebf
 2470 0ebf 0F       		.uleb128 0xf
 2471 0ec0 AD000000 		.4byte	0xad
 2472 0ec4 29       		.uleb128 0x29
 2473 0ec5 636800   		.ascii	"ch\000"
 2474 0ec8 07       		.byte	0x7
 2475 0ec9 0902     		.2byte	0x209
 2476 0ecb 03040000 		.4byte	0x403
 2477 0ecf 2A       		.uleb128 0x2a
 2478 0ed0 6C020000 		.4byte	.LASF186
 2479 0ed4 01       		.byte	0x1
 2480 0ed5 4A       		.byte	0x4a
 2481 0ed6 39090000 		.4byte	0x939
 2482 0eda 05       		.uleb128 0x5
 2483 0edb 03       		.byte	0x3
 2484 0edc 00000000 		.4byte	PWMD5
 2485 0ee0 2B       		.uleb128 0x2b
 2486 0ee1 49090000 		.4byte	.LASF187
 2487 0ee5 0E       		.byte	0xe
 2488 0ee6 2001     		.2byte	0x120
 2489 0ee8 F20E0000 		.4byte	0xef2
 2490 0eec 0C       		.uleb128 0xc
 2491 0eed C9090000 		.4byte	0x9c9
 2492 0ef1 00       		.byte	0
 2493 0ef2 2C       		.uleb128 0x2c
 2494 0ef3 7E010000 		.4byte	.LASF188
 2495 0ef7 12       		.byte	0x12
 2496 0ef8 4E       		.byte	0x4e
 2497 0ef9 080F0000 		.4byte	0xf08
 2498 0efd 0C       		.uleb128 0xc
 2499 0efe B8000000 		.4byte	0xb8
 2500 0f02 0C       		.uleb128 0xc
 2501 0f03 B8000000 		.4byte	0xb8
 2502 0f07 00       		.byte	0
 2503 0f08 2C       		.uleb128 0x2c
 2504 0f09 D2020000 		.4byte	.LASF189
ARM GAS  /var/folders/m4/4md61f0s1_g0rzfghffqnxvr0000gn/T//ccD1WRxm.s 			page 45


 2505 0f0d 12       		.byte	0x12
 2506 0f0e 4F       		.byte	0x4f
 2507 0f0f 190F0000 		.4byte	0xf19
 2508 0f13 0C       		.uleb128 0xc
 2509 0f14 B8000000 		.4byte	0xb8
 2510 0f18 00       		.byte	0
 2511 0f19 2D       		.uleb128 0x2d
 2512 0f1a 75030000 		.4byte	.LASF194
 2513 0f1e 0A       		.byte	0xa
 2514 0f1f 6F01     		.2byte	0x16f
 2515 0f21 00       		.byte	0
 2516              		.section	.debug_abbrev,"",%progbits
 2517              	.Ldebug_abbrev0:
 2518 0000 01       		.uleb128 0x1
 2519 0001 11       		.uleb128 0x11
 2520 0002 01       		.byte	0x1
 2521 0003 25       		.uleb128 0x25
 2522 0004 0E       		.uleb128 0xe
 2523 0005 13       		.uleb128 0x13
 2524 0006 0B       		.uleb128 0xb
 2525 0007 03       		.uleb128 0x3
 2526 0008 0E       		.uleb128 0xe
 2527 0009 1B       		.uleb128 0x1b
 2528 000a 0E       		.uleb128 0xe
 2529 000b 55       		.uleb128 0x55
 2530 000c 17       		.uleb128 0x17
 2531 000d 11       		.uleb128 0x11
 2532 000e 01       		.uleb128 0x1
 2533 000f 10       		.uleb128 0x10
 2534 0010 17       		.uleb128 0x17
 2535 0011 00       		.byte	0
 2536 0012 00       		.byte	0
 2537 0013 02       		.uleb128 0x2
 2538 0014 24       		.uleb128 0x24
 2539 0015 00       		.byte	0
 2540 0016 0B       		.uleb128 0xb
 2541 0017 0B       		.uleb128 0xb
 2542 0018 3E       		.uleb128 0x3e
 2543 0019 0B       		.uleb128 0xb
 2544 001a 03       		.uleb128 0x3
 2545 001b 0E       		.uleb128 0xe
 2546 001c 00       		.byte	0
 2547 001d 00       		.byte	0
 2548 001e 03       		.uleb128 0x3
 2549 001f 24       		.uleb128 0x24
 2550 0020 00       		.byte	0
 2551 0021 0B       		.uleb128 0xb
 2552 0022 0B       		.uleb128 0xb
 2553 0023 3E       		.uleb128 0x3e
 2554 0024 0B       		.uleb128 0xb
 2555 0025 03       		.uleb128 0x3
 2556 0026 08       		.uleb128 0x8
 2557 0027 00       		.byte	0
 2558 0028 00       		.byte	0
 2559 0029 04       		.uleb128 0x4
 2560 002a 16       		.uleb128 0x16
 2561 002b 00       		.byte	0
ARM GAS  /var/folders/m4/4md61f0s1_g0rzfghffqnxvr0000gn/T//ccD1WRxm.s 			page 46


 2562 002c 03       		.uleb128 0x3
 2563 002d 0E       		.uleb128 0xe
 2564 002e 3A       		.uleb128 0x3a
 2565 002f 0B       		.uleb128 0xb
 2566 0030 3B       		.uleb128 0x3b
 2567 0031 0B       		.uleb128 0xb
 2568 0032 49       		.uleb128 0x49
 2569 0033 13       		.uleb128 0x13
 2570 0034 00       		.byte	0
 2571 0035 00       		.byte	0
 2572 0036 05       		.uleb128 0x5
 2573 0037 13       		.uleb128 0x13
 2574 0038 01       		.byte	0x1
 2575 0039 03       		.uleb128 0x3
 2576 003a 0E       		.uleb128 0xe
 2577 003b 0B       		.uleb128 0xb
 2578 003c 0B       		.uleb128 0xb
 2579 003d 3A       		.uleb128 0x3a
 2580 003e 0B       		.uleb128 0xb
 2581 003f 3B       		.uleb128 0x3b
 2582 0040 0B       		.uleb128 0xb
 2583 0041 01       		.uleb128 0x1
 2584 0042 13       		.uleb128 0x13
 2585 0043 00       		.byte	0
 2586 0044 00       		.byte	0
 2587 0045 06       		.uleb128 0x6
 2588 0046 0D       		.uleb128 0xd
 2589 0047 00       		.byte	0
 2590 0048 03       		.uleb128 0x3
 2591 0049 0E       		.uleb128 0xe
 2592 004a 3A       		.uleb128 0x3a
 2593 004b 0B       		.uleb128 0xb
 2594 004c 3B       		.uleb128 0x3b
 2595 004d 0B       		.uleb128 0xb
 2596 004e 49       		.uleb128 0x49
 2597 004f 13       		.uleb128 0x13
 2598 0050 38       		.uleb128 0x38
 2599 0051 0B       		.uleb128 0xb
 2600 0052 00       		.byte	0
 2601 0053 00       		.byte	0
 2602 0054 07       		.uleb128 0x7
 2603 0055 0D       		.uleb128 0xd
 2604 0056 00       		.byte	0
 2605 0057 03       		.uleb128 0x3
 2606 0058 08       		.uleb128 0x8
 2607 0059 3A       		.uleb128 0x3a
 2608 005a 0B       		.uleb128 0xb
 2609 005b 3B       		.uleb128 0x3b
 2610 005c 05       		.uleb128 0x5
 2611 005d 49       		.uleb128 0x49
 2612 005e 13       		.uleb128 0x13
 2613 005f 38       		.uleb128 0x38
 2614 0060 0B       		.uleb128 0xb
 2615 0061 00       		.byte	0
 2616 0062 00       		.byte	0
 2617 0063 08       		.uleb128 0x8
 2618 0064 0D       		.uleb128 0xd
ARM GAS  /var/folders/m4/4md61f0s1_g0rzfghffqnxvr0000gn/T//ccD1WRxm.s 			page 47


 2619 0065 00       		.byte	0
 2620 0066 03       		.uleb128 0x3
 2621 0067 0E       		.uleb128 0xe
 2622 0068 3A       		.uleb128 0x3a
 2623 0069 0B       		.uleb128 0xb
 2624 006a 3B       		.uleb128 0x3b
 2625 006b 05       		.uleb128 0x5
 2626 006c 49       		.uleb128 0x49
 2627 006d 13       		.uleb128 0x13
 2628 006e 38       		.uleb128 0x38
 2629 006f 0B       		.uleb128 0xb
 2630 0070 00       		.byte	0
 2631 0071 00       		.byte	0
 2632 0072 09       		.uleb128 0x9
 2633 0073 0F       		.uleb128 0xf
 2634 0074 00       		.byte	0
 2635 0075 0B       		.uleb128 0xb
 2636 0076 0B       		.uleb128 0xb
 2637 0077 49       		.uleb128 0x49
 2638 0078 13       		.uleb128 0x13
 2639 0079 00       		.byte	0
 2640 007a 00       		.byte	0
 2641 007b 0A       		.uleb128 0xa
 2642 007c 13       		.uleb128 0x13
 2643 007d 01       		.byte	0x1
 2644 007e 03       		.uleb128 0x3
 2645 007f 0E       		.uleb128 0xe
 2646 0080 0B       		.uleb128 0xb
 2647 0081 0B       		.uleb128 0xb
 2648 0082 3A       		.uleb128 0x3a
 2649 0083 0B       		.uleb128 0xb
 2650 0084 3B       		.uleb128 0x3b
 2651 0085 05       		.uleb128 0x5
 2652 0086 01       		.uleb128 0x1
 2653 0087 13       		.uleb128 0x13
 2654 0088 00       		.byte	0
 2655 0089 00       		.byte	0
 2656 008a 0B       		.uleb128 0xb
 2657 008b 15       		.uleb128 0x15
 2658 008c 01       		.byte	0x1
 2659 008d 27       		.uleb128 0x27
 2660 008e 19       		.uleb128 0x19
 2661 008f 01       		.uleb128 0x1
 2662 0090 13       		.uleb128 0x13
 2663 0091 00       		.byte	0
 2664 0092 00       		.byte	0
 2665 0093 0C       		.uleb128 0xc
 2666 0094 05       		.uleb128 0x5
 2667 0095 00       		.byte	0
 2668 0096 49       		.uleb128 0x49
 2669 0097 13       		.uleb128 0x13
 2670 0098 00       		.byte	0
 2671 0099 00       		.byte	0
 2672 009a 0D       		.uleb128 0xd
 2673 009b 0F       		.uleb128 0xf
 2674 009c 00       		.byte	0
 2675 009d 0B       		.uleb128 0xb
ARM GAS  /var/folders/m4/4md61f0s1_g0rzfghffqnxvr0000gn/T//ccD1WRxm.s 			page 48


 2676 009e 0B       		.uleb128 0xb
 2677 009f 00       		.byte	0
 2678 00a0 00       		.byte	0
 2679 00a1 0E       		.uleb128 0xe
 2680 00a2 13       		.uleb128 0x13
 2681 00a3 01       		.byte	0x1
 2682 00a4 03       		.uleb128 0x3
 2683 00a5 0E       		.uleb128 0xe
 2684 00a6 0B       		.uleb128 0xb
 2685 00a7 05       		.uleb128 0x5
 2686 00a8 3A       		.uleb128 0x3a
 2687 00a9 0B       		.uleb128 0xb
 2688 00aa 3B       		.uleb128 0x3b
 2689 00ab 05       		.uleb128 0x5
 2690 00ac 01       		.uleb128 0x1
 2691 00ad 13       		.uleb128 0x13
 2692 00ae 00       		.byte	0
 2693 00af 00       		.byte	0
 2694 00b0 0F       		.uleb128 0xf
 2695 00b1 35       		.uleb128 0x35
 2696 00b2 00       		.byte	0
 2697 00b3 49       		.uleb128 0x49
 2698 00b4 13       		.uleb128 0x13
 2699 00b5 00       		.byte	0
 2700 00b6 00       		.byte	0
 2701 00b7 10       		.uleb128 0x10
 2702 00b8 01       		.uleb128 0x1
 2703 00b9 01       		.byte	0x1
 2704 00ba 49       		.uleb128 0x49
 2705 00bb 13       		.uleb128 0x13
 2706 00bc 01       		.uleb128 0x1
 2707 00bd 13       		.uleb128 0x13
 2708 00be 00       		.byte	0
 2709 00bf 00       		.byte	0
 2710 00c0 11       		.uleb128 0x11
 2711 00c1 21       		.uleb128 0x21
 2712 00c2 00       		.byte	0
 2713 00c3 49       		.uleb128 0x49
 2714 00c4 13       		.uleb128 0x13
 2715 00c5 2F       		.uleb128 0x2f
 2716 00c6 0B       		.uleb128 0xb
 2717 00c7 00       		.byte	0
 2718 00c8 00       		.byte	0
 2719 00c9 12       		.uleb128 0x12
 2720 00ca 13       		.uleb128 0x13
 2721 00cb 01       		.byte	0x1
 2722 00cc 0B       		.uleb128 0xb
 2723 00cd 0B       		.uleb128 0xb
 2724 00ce 3A       		.uleb128 0x3a
 2725 00cf 0B       		.uleb128 0xb
 2726 00d0 3B       		.uleb128 0x3b
 2727 00d1 05       		.uleb128 0x5
 2728 00d2 01       		.uleb128 0x1
 2729 00d3 13       		.uleb128 0x13
 2730 00d4 00       		.byte	0
 2731 00d5 00       		.byte	0
 2732 00d6 13       		.uleb128 0x13
ARM GAS  /var/folders/m4/4md61f0s1_g0rzfghffqnxvr0000gn/T//ccD1WRxm.s 			page 49


 2733 00d7 16       		.uleb128 0x16
 2734 00d8 00       		.byte	0
 2735 00d9 03       		.uleb128 0x3
 2736 00da 0E       		.uleb128 0xe
 2737 00db 3A       		.uleb128 0x3a
 2738 00dc 0B       		.uleb128 0xb
 2739 00dd 3B       		.uleb128 0x3b
 2740 00de 05       		.uleb128 0x5
 2741 00df 49       		.uleb128 0x49
 2742 00e0 13       		.uleb128 0x13
 2743 00e1 00       		.byte	0
 2744 00e2 00       		.byte	0
 2745 00e3 14       		.uleb128 0x14
 2746 00e4 0D       		.uleb128 0xd
 2747 00e5 00       		.byte	0
 2748 00e6 03       		.uleb128 0x3
 2749 00e7 08       		.uleb128 0x8
 2750 00e8 3A       		.uleb128 0x3a
 2751 00e9 0B       		.uleb128 0xb
 2752 00ea 3B       		.uleb128 0x3b
 2753 00eb 0B       		.uleb128 0xb
 2754 00ec 49       		.uleb128 0x49
 2755 00ed 13       		.uleb128 0x13
 2756 00ee 38       		.uleb128 0x38
 2757 00ef 0B       		.uleb128 0xb
 2758 00f0 00       		.byte	0
 2759 00f1 00       		.byte	0
 2760 00f2 15       		.uleb128 0x15
 2761 00f3 13       		.uleb128 0x13
 2762 00f4 01       		.byte	0x1
 2763 00f5 0B       		.uleb128 0xb
 2764 00f6 0B       		.uleb128 0xb
 2765 00f7 3A       		.uleb128 0x3a
 2766 00f8 0B       		.uleb128 0xb
 2767 00f9 3B       		.uleb128 0x3b
 2768 00fa 0B       		.uleb128 0xb
 2769 00fb 01       		.uleb128 0x1
 2770 00fc 13       		.uleb128 0x13
 2771 00fd 00       		.byte	0
 2772 00fe 00       		.byte	0
 2773 00ff 16       		.uleb128 0x16
 2774 0100 17       		.uleb128 0x17
 2775 0101 01       		.byte	0x1
 2776 0102 0B       		.uleb128 0xb
 2777 0103 0B       		.uleb128 0xb
 2778 0104 3A       		.uleb128 0x3a
 2779 0105 0B       		.uleb128 0xb
 2780 0106 3B       		.uleb128 0x3b
 2781 0107 0B       		.uleb128 0xb
 2782 0108 01       		.uleb128 0x1
 2783 0109 13       		.uleb128 0x13
 2784 010a 00       		.byte	0
 2785 010b 00       		.byte	0
 2786 010c 17       		.uleb128 0x17
 2787 010d 0D       		.uleb128 0xd
 2788 010e 00       		.byte	0
 2789 010f 03       		.uleb128 0x3
ARM GAS  /var/folders/m4/4md61f0s1_g0rzfghffqnxvr0000gn/T//ccD1WRxm.s 			page 50


 2790 0110 0E       		.uleb128 0xe
 2791 0111 3A       		.uleb128 0x3a
 2792 0112 0B       		.uleb128 0xb
 2793 0113 3B       		.uleb128 0x3b
 2794 0114 05       		.uleb128 0x5
 2795 0115 49       		.uleb128 0x49
 2796 0116 13       		.uleb128 0x13
 2797 0117 00       		.byte	0
 2798 0118 00       		.byte	0
 2799 0119 18       		.uleb128 0x18
 2800 011a 26       		.uleb128 0x26
 2801 011b 00       		.byte	0
 2802 011c 49       		.uleb128 0x49
 2803 011d 13       		.uleb128 0x13
 2804 011e 00       		.byte	0
 2805 011f 00       		.byte	0
 2806 0120 19       		.uleb128 0x19
 2807 0121 04       		.uleb128 0x4
 2808 0122 01       		.byte	0x1
 2809 0123 0B       		.uleb128 0xb
 2810 0124 0B       		.uleb128 0xb
 2811 0125 3A       		.uleb128 0x3a
 2812 0126 0B       		.uleb128 0xb
 2813 0127 3B       		.uleb128 0x3b
 2814 0128 0B       		.uleb128 0xb
 2815 0129 01       		.uleb128 0x1
 2816 012a 13       		.uleb128 0x13
 2817 012b 00       		.byte	0
 2818 012c 00       		.byte	0
 2819 012d 1A       		.uleb128 0x1a
 2820 012e 28       		.uleb128 0x28
 2821 012f 00       		.byte	0
 2822 0130 03       		.uleb128 0x3
 2823 0131 0E       		.uleb128 0xe
 2824 0132 1C       		.uleb128 0x1c
 2825 0133 0D       		.uleb128 0xd
 2826 0134 00       		.byte	0
 2827 0135 00       		.byte	0
 2828 0136 1B       		.uleb128 0x1b
 2829 0137 2E       		.uleb128 0x2e
 2830 0138 01       		.byte	0x1
 2831 0139 3F       		.uleb128 0x3f
 2832 013a 19       		.uleb128 0x19
 2833 013b 03       		.uleb128 0x3
 2834 013c 0E       		.uleb128 0xe
 2835 013d 3A       		.uleb128 0x3a
 2836 013e 0B       		.uleb128 0xb
 2837 013f 3B       		.uleb128 0x3b
 2838 0140 05       		.uleb128 0x5
 2839 0141 27       		.uleb128 0x27
 2840 0142 19       		.uleb128 0x19
 2841 0143 11       		.uleb128 0x11
 2842 0144 01       		.uleb128 0x1
 2843 0145 12       		.uleb128 0x12
 2844 0146 06       		.uleb128 0x6
 2845 0147 40       		.uleb128 0x40
 2846 0148 18       		.uleb128 0x18
ARM GAS  /var/folders/m4/4md61f0s1_g0rzfghffqnxvr0000gn/T//ccD1WRxm.s 			page 51


 2847 0149 9742     		.uleb128 0x2117
 2848 014b 19       		.uleb128 0x19
 2849 014c 01       		.uleb128 0x1
 2850 014d 13       		.uleb128 0x13
 2851 014e 00       		.byte	0
 2852 014f 00       		.byte	0
 2853 0150 1C       		.uleb128 0x1c
 2854 0151 898201   		.uleb128 0x4109
 2855 0154 01       		.byte	0x1
 2856 0155 11       		.uleb128 0x11
 2857 0156 01       		.uleb128 0x1
 2858 0157 31       		.uleb128 0x31
 2859 0158 13       		.uleb128 0x13
 2860 0159 00       		.byte	0
 2861 015a 00       		.byte	0
 2862 015b 1D       		.uleb128 0x1d
 2863 015c 8A8201   		.uleb128 0x410a
 2864 015f 00       		.byte	0
 2865 0160 02       		.uleb128 0x2
 2866 0161 18       		.uleb128 0x18
 2867 0162 9142     		.uleb128 0x2111
 2868 0164 18       		.uleb128 0x18
 2869 0165 00       		.byte	0
 2870 0166 00       		.byte	0
 2871 0167 1E       		.uleb128 0x1e
 2872 0168 05       		.uleb128 0x5
 2873 0169 00       		.byte	0
 2874 016a 03       		.uleb128 0x3
 2875 016b 0E       		.uleb128 0xe
 2876 016c 3A       		.uleb128 0x3a
 2877 016d 0B       		.uleb128 0xb
 2878 016e 3B       		.uleb128 0x3b
 2879 016f 05       		.uleb128 0x5
 2880 0170 49       		.uleb128 0x49
 2881 0171 13       		.uleb128 0x13
 2882 0172 02       		.uleb128 0x2
 2883 0173 17       		.uleb128 0x17
 2884 0174 00       		.byte	0
 2885 0175 00       		.byte	0
 2886 0176 1F       		.uleb128 0x1f
 2887 0177 34       		.uleb128 0x34
 2888 0178 00       		.byte	0
 2889 0179 03       		.uleb128 0x3
 2890 017a 08       		.uleb128 0x8
 2891 017b 3A       		.uleb128 0x3a
 2892 017c 0B       		.uleb128 0xb
 2893 017d 3B       		.uleb128 0x3b
 2894 017e 05       		.uleb128 0x5
 2895 017f 49       		.uleb128 0x49
 2896 0180 13       		.uleb128 0x13
 2897 0181 02       		.uleb128 0x2
 2898 0182 17       		.uleb128 0x17
 2899 0183 00       		.byte	0
 2900 0184 00       		.byte	0
 2901 0185 20       		.uleb128 0x20
 2902 0186 34       		.uleb128 0x34
 2903 0187 00       		.byte	0
ARM GAS  /var/folders/m4/4md61f0s1_g0rzfghffqnxvr0000gn/T//ccD1WRxm.s 			page 52


 2904 0188 03       		.uleb128 0x3
 2905 0189 0E       		.uleb128 0xe
 2906 018a 3A       		.uleb128 0x3a
 2907 018b 0B       		.uleb128 0xb
 2908 018c 3B       		.uleb128 0x3b
 2909 018d 05       		.uleb128 0x5
 2910 018e 49       		.uleb128 0x49
 2911 018f 13       		.uleb128 0x13
 2912 0190 02       		.uleb128 0x2
 2913 0191 17       		.uleb128 0x17
 2914 0192 00       		.byte	0
 2915 0193 00       		.byte	0
 2916 0194 21       		.uleb128 0x21
 2917 0195 34       		.uleb128 0x34
 2918 0196 00       		.byte	0
 2919 0197 03       		.uleb128 0x3
 2920 0198 0E       		.uleb128 0xe
 2921 0199 49       		.uleb128 0x49
 2922 019a 13       		.uleb128 0x13
 2923 019b 34       		.uleb128 0x34
 2924 019c 19       		.uleb128 0x19
 2925 019d 00       		.byte	0
 2926 019e 00       		.byte	0
 2927 019f 22       		.uleb128 0x22
 2928 01a0 05       		.uleb128 0x5
 2929 01a1 00       		.byte	0
 2930 01a2 03       		.uleb128 0x3
 2931 01a3 0E       		.uleb128 0xe
 2932 01a4 3A       		.uleb128 0x3a
 2933 01a5 0B       		.uleb128 0xb
 2934 01a6 3B       		.uleb128 0x3b
 2935 01a7 05       		.uleb128 0x5
 2936 01a8 49       		.uleb128 0x49
 2937 01a9 13       		.uleb128 0x13
 2938 01aa 02       		.uleb128 0x2
 2939 01ab 18       		.uleb128 0x18
 2940 01ac 00       		.byte	0
 2941 01ad 00       		.byte	0
 2942 01ae 23       		.uleb128 0x23
 2943 01af 898201   		.uleb128 0x4109
 2944 01b2 01       		.byte	0x1
 2945 01b3 11       		.uleb128 0x11
 2946 01b4 01       		.uleb128 0x1
 2947 01b5 01       		.uleb128 0x1
 2948 01b6 13       		.uleb128 0x13
 2949 01b7 00       		.byte	0
 2950 01b8 00       		.byte	0
 2951 01b9 24       		.uleb128 0x24
 2952 01ba 898201   		.uleb128 0x4109
 2953 01bd 01       		.byte	0x1
 2954 01be 11       		.uleb128 0x11
 2955 01bf 01       		.uleb128 0x1
 2956 01c0 9542     		.uleb128 0x2115
 2957 01c2 19       		.uleb128 0x19
 2958 01c3 00       		.byte	0
 2959 01c4 00       		.byte	0
 2960 01c5 25       		.uleb128 0x25
ARM GAS  /var/folders/m4/4md61f0s1_g0rzfghffqnxvr0000gn/T//ccD1WRxm.s 			page 53


 2961 01c6 2E       		.uleb128 0x2e
 2962 01c7 01       		.byte	0x1
 2963 01c8 3F       		.uleb128 0x3f
 2964 01c9 19       		.uleb128 0x19
 2965 01ca 03       		.uleb128 0x3
 2966 01cb 0E       		.uleb128 0xe
 2967 01cc 3A       		.uleb128 0x3a
 2968 01cd 0B       		.uleb128 0xb
 2969 01ce 3B       		.uleb128 0x3b
 2970 01cf 0B       		.uleb128 0xb
 2971 01d0 27       		.uleb128 0x27
 2972 01d1 19       		.uleb128 0x19
 2973 01d2 11       		.uleb128 0x11
 2974 01d3 01       		.uleb128 0x1
 2975 01d4 12       		.uleb128 0x12
 2976 01d5 06       		.uleb128 0x6
 2977 01d6 40       		.uleb128 0x40
 2978 01d7 18       		.uleb128 0x18
 2979 01d8 9742     		.uleb128 0x2117
 2980 01da 19       		.uleb128 0x19
 2981 01db 01       		.uleb128 0x1
 2982 01dc 13       		.uleb128 0x13
 2983 01dd 00       		.byte	0
 2984 01de 00       		.byte	0
 2985 01df 26       		.uleb128 0x26
 2986 01e0 898201   		.uleb128 0x4109
 2987 01e3 01       		.byte	0x1
 2988 01e4 11       		.uleb128 0x11
 2989 01e5 01       		.uleb128 0x1
 2990 01e6 31       		.uleb128 0x31
 2991 01e7 13       		.uleb128 0x13
 2992 01e8 01       		.uleb128 0x1
 2993 01e9 13       		.uleb128 0x13
 2994 01ea 00       		.byte	0
 2995 01eb 00       		.byte	0
 2996 01ec 27       		.uleb128 0x27
 2997 01ed 898201   		.uleb128 0x4109
 2998 01f0 00       		.byte	0
 2999 01f1 11       		.uleb128 0x11
 3000 01f2 01       		.uleb128 0x1
 3001 01f3 9542     		.uleb128 0x2115
 3002 01f5 19       		.uleb128 0x19
 3003 01f6 31       		.uleb128 0x31
 3004 01f7 13       		.uleb128 0x13
 3005 01f8 00       		.byte	0
 3006 01f9 00       		.byte	0
 3007 01fa 28       		.uleb128 0x28
 3008 01fb 34       		.uleb128 0x34
 3009 01fc 00       		.byte	0
 3010 01fd 03       		.uleb128 0x3
 3011 01fe 0E       		.uleb128 0xe
 3012 01ff 3A       		.uleb128 0x3a
 3013 0200 0B       		.uleb128 0xb
 3014 0201 3B       		.uleb128 0x3b
 3015 0202 05       		.uleb128 0x5
 3016 0203 49       		.uleb128 0x49
 3017 0204 13       		.uleb128 0x13
ARM GAS  /var/folders/m4/4md61f0s1_g0rzfghffqnxvr0000gn/T//ccD1WRxm.s 			page 54


 3018 0205 3F       		.uleb128 0x3f
 3019 0206 19       		.uleb128 0x19
 3020 0207 3C       		.uleb128 0x3c
 3021 0208 19       		.uleb128 0x19
 3022 0209 00       		.byte	0
 3023 020a 00       		.byte	0
 3024 020b 29       		.uleb128 0x29
 3025 020c 34       		.uleb128 0x34
 3026 020d 00       		.byte	0
 3027 020e 03       		.uleb128 0x3
 3028 020f 08       		.uleb128 0x8
 3029 0210 3A       		.uleb128 0x3a
 3030 0211 0B       		.uleb128 0xb
 3031 0212 3B       		.uleb128 0x3b
 3032 0213 05       		.uleb128 0x5
 3033 0214 49       		.uleb128 0x49
 3034 0215 13       		.uleb128 0x13
 3035 0216 3F       		.uleb128 0x3f
 3036 0217 19       		.uleb128 0x19
 3037 0218 3C       		.uleb128 0x3c
 3038 0219 19       		.uleb128 0x19
 3039 021a 00       		.byte	0
 3040 021b 00       		.byte	0
 3041 021c 2A       		.uleb128 0x2a
 3042 021d 34       		.uleb128 0x34
 3043 021e 00       		.byte	0
 3044 021f 03       		.uleb128 0x3
 3045 0220 0E       		.uleb128 0xe
 3046 0221 3A       		.uleb128 0x3a
 3047 0222 0B       		.uleb128 0xb
 3048 0223 3B       		.uleb128 0x3b
 3049 0224 0B       		.uleb128 0xb
 3050 0225 49       		.uleb128 0x49
 3051 0226 13       		.uleb128 0x13
 3052 0227 3F       		.uleb128 0x3f
 3053 0228 19       		.uleb128 0x19
 3054 0229 02       		.uleb128 0x2
 3055 022a 18       		.uleb128 0x18
 3056 022b 00       		.byte	0
 3057 022c 00       		.byte	0
 3058 022d 2B       		.uleb128 0x2b
 3059 022e 2E       		.uleb128 0x2e
 3060 022f 01       		.byte	0x1
 3061 0230 3F       		.uleb128 0x3f
 3062 0231 19       		.uleb128 0x19
 3063 0232 03       		.uleb128 0x3
 3064 0233 0E       		.uleb128 0xe
 3065 0234 3A       		.uleb128 0x3a
 3066 0235 0B       		.uleb128 0xb
 3067 0236 3B       		.uleb128 0x3b
 3068 0237 05       		.uleb128 0x5
 3069 0238 27       		.uleb128 0x27
 3070 0239 19       		.uleb128 0x19
 3071 023a 3C       		.uleb128 0x3c
 3072 023b 19       		.uleb128 0x19
 3073 023c 01       		.uleb128 0x1
 3074 023d 13       		.uleb128 0x13
ARM GAS  /var/folders/m4/4md61f0s1_g0rzfghffqnxvr0000gn/T//ccD1WRxm.s 			page 55


 3075 023e 00       		.byte	0
 3076 023f 00       		.byte	0
 3077 0240 2C       		.uleb128 0x2c
 3078 0241 2E       		.uleb128 0x2e
 3079 0242 01       		.byte	0x1
 3080 0243 3F       		.uleb128 0x3f
 3081 0244 19       		.uleb128 0x19
 3082 0245 03       		.uleb128 0x3
 3083 0246 0E       		.uleb128 0xe
 3084 0247 3A       		.uleb128 0x3a
 3085 0248 0B       		.uleb128 0xb
 3086 0249 3B       		.uleb128 0x3b
 3087 024a 0B       		.uleb128 0xb
 3088 024b 27       		.uleb128 0x27
 3089 024c 19       		.uleb128 0x19
 3090 024d 3C       		.uleb128 0x3c
 3091 024e 19       		.uleb128 0x19
 3092 024f 01       		.uleb128 0x1
 3093 0250 13       		.uleb128 0x13
 3094 0251 00       		.byte	0
 3095 0252 00       		.byte	0
 3096 0253 2D       		.uleb128 0x2d
 3097 0254 2E       		.uleb128 0x2e
 3098 0255 00       		.byte	0
 3099 0256 3F       		.uleb128 0x3f
 3100 0257 19       		.uleb128 0x19
 3101 0258 03       		.uleb128 0x3
 3102 0259 0E       		.uleb128 0xe
 3103 025a 3A       		.uleb128 0x3a
 3104 025b 0B       		.uleb128 0xb
 3105 025c 3B       		.uleb128 0x3b
 3106 025d 05       		.uleb128 0x5
 3107 025e 27       		.uleb128 0x27
 3108 025f 19       		.uleb128 0x19
 3109 0260 3C       		.uleb128 0x3c
 3110 0261 19       		.uleb128 0x19
 3111 0262 00       		.byte	0
 3112 0263 00       		.byte	0
 3113 0264 00       		.byte	0
 3114              		.section	.debug_loc,"",%progbits
 3115              	.Ldebug_loc0:
 3116              	.LLST0:
 3117 0000 00000000 		.4byte	.LVL1
 3118 0004 1A000000 		.4byte	.LVL2
 3119 0008 0100     		.2byte	0x1
 3120 000a 50       		.byte	0x50
 3121 000b 1A000000 		.4byte	.LVL2
 3122 000f 30000000 		.4byte	.LVL3
 3123 0013 0100     		.2byte	0x1
 3124 0015 54       		.byte	0x54
 3125 0016 30000000 		.4byte	.LVL3
 3126 001a A2000000 		.4byte	.LVL17
 3127 001e 0400     		.2byte	0x4
 3128 0020 F3       		.byte	0xf3
 3129 0021 01       		.uleb128 0x1
 3130 0022 50       		.byte	0x50
 3131 0023 9F       		.byte	0x9f
ARM GAS  /var/folders/m4/4md61f0s1_g0rzfghffqnxvr0000gn/T//ccD1WRxm.s 			page 56


 3132 0024 A2000000 		.4byte	.LVL17
 3133 0028 A8000000 		.4byte	.LVL18
 3134 002c 0100     		.2byte	0x1
 3135 002e 50       		.byte	0x50
 3136 002f A8000000 		.4byte	.LVL18
 3137 0033 B4000000 		.4byte	.LVL19
 3138 0037 0100     		.2byte	0x1
 3139 0039 54       		.byte	0x54
 3140 003a B4000000 		.4byte	.LVL19
 3141 003e CA000000 		.4byte	.LVL20
 3142 0042 0100     		.2byte	0x1
 3143 0044 50       		.byte	0x50
 3144 0045 CA000000 		.4byte	.LVL20
 3145 0049 E4000000 		.4byte	.LFE270
 3146 004d 0100     		.2byte	0x1
 3147 004f 54       		.byte	0x54
 3148 0050 00000000 		.4byte	0
 3149 0054 00000000 		.4byte	0
 3150              	.LLST1:
 3151 0058 32000000 		.4byte	.LVL4
 3152 005c 46000000 		.4byte	.LVL7
 3153 0060 0100     		.2byte	0x1
 3154 0062 50       		.byte	0x50
 3155 0063 46000000 		.4byte	.LVL7
 3156 0067 A2000000 		.4byte	.LVL17
 3157 006b 1200     		.2byte	0x12
 3158 006d F3       		.byte	0xf3
 3159 006e 01       		.uleb128 0x1
 3160 006f 50       		.byte	0x50
 3161 0070 23       		.byte	0x23
 3162 0071 14       		.uleb128 0x14
 3163 0072 06       		.byte	0x6
 3164 0073 F7       		.byte	0xf7
 3165 0074 25       		.uleb128 0x25
 3166 0075 77       		.byte	0x77
 3167 0076 00       		.sleb128 0
 3168 0077 F7       		.byte	0xf7
 3169 0078 25       		.uleb128 0x25
 3170 0079 1B       		.byte	0x1b
 3171 007a F7       		.byte	0xf7
 3172 007b 00       		.uleb128 0
 3173 007c 31       		.byte	0x31
 3174 007d 1C       		.byte	0x1c
 3175 007e 9F       		.byte	0x9f
 3176 007f 00000000 		.4byte	0
 3177 0083 00000000 		.4byte	0
 3178              	.LLST2:
 3179 0087 3A000000 		.4byte	.LVL5
 3180 008b 44000000 		.4byte	.LVL6
 3181 008f 0200     		.2byte	0x2
 3182 0091 30       		.byte	0x30
 3183 0092 9F       		.byte	0x9f
 3184 0093 44000000 		.4byte	.LVL6
 3185 0097 80000000 		.4byte	.LVL10
 3186 009b 0100     		.2byte	0x1
 3187 009d 52       		.byte	0x52
 3188 009e 80000000 		.4byte	.LVL10
ARM GAS  /var/folders/m4/4md61f0s1_g0rzfghffqnxvr0000gn/T//ccD1WRxm.s 			page 57


 3189 00a2 86000000 		.4byte	.LVL11
 3190 00a6 0200     		.2byte	0x2
 3191 00a8 73       		.byte	0x73
 3192 00a9 20       		.sleb128 32
 3193 00aa 8E000000 		.4byte	.LVL12
 3194 00ae A2000000 		.4byte	.LVL17
 3195 00b2 0100     		.2byte	0x1
 3196 00b4 52       		.byte	0x52
 3197 00b5 00000000 		.4byte	0
 3198 00b9 00000000 		.4byte	0
 3199              	.LLST3:
 3200 00bd 00000000 		.4byte	.LVL22
 3201 00c1 08000000 		.4byte	.LVL23
 3202 00c5 0100     		.2byte	0x1
 3203 00c7 50       		.byte	0x50
 3204 00c8 08000000 		.4byte	.LVL23
 3205 00cc 0A000000 		.4byte	.LVL24
 3206 00d0 0400     		.2byte	0x4
 3207 00d2 F3       		.byte	0xf3
 3208 00d3 01       		.uleb128 0x1
 3209 00d4 50       		.byte	0x50
 3210 00d5 9F       		.byte	0x9f
 3211 00d6 0A000000 		.4byte	.LVL24
 3212 00da 1C000000 		.4byte	.LVL25
 3213 00de 0100     		.2byte	0x1
 3214 00e0 50       		.byte	0x50
 3215 00e1 1C000000 		.4byte	.LVL25
 3216 00e5 34000000 		.4byte	.LFE271
 3217 00e9 0400     		.2byte	0x4
 3218 00eb F3       		.byte	0xf3
 3219 00ec 01       		.uleb128 0x1
 3220 00ed 50       		.byte	0x50
 3221 00ee 9F       		.byte	0x9f
 3222 00ef 00000000 		.4byte	0
 3223 00f3 00000000 		.4byte	0
 3224              	.LLST4:
 3225 00f7 00000000 		.4byte	.LVL27
 3226 00fb 04000000 		.4byte	.LVL28
 3227 00ff 0100     		.2byte	0x1
 3228 0101 51       		.byte	0x51
 3229 0102 04000000 		.4byte	.LVL28
 3230 0106 0C000000 		.4byte	.LFE272
 3231 010a 0400     		.2byte	0x4
 3232 010c F3       		.byte	0xf3
 3233 010d 01       		.uleb128 0x1
 3234 010e 51       		.byte	0x51
 3235 010f 9F       		.byte	0x9f
 3236 0110 00000000 		.4byte	0
 3237 0114 00000000 		.4byte	0
 3238              	.LLST5:
 3239 0118 00000000 		.4byte	.LVL29
 3240 011c 0C000000 		.4byte	.LVL30
 3241 0120 0100     		.2byte	0x1
 3242 0122 50       		.byte	0x50
 3243 0123 0C000000 		.4byte	.LVL30
 3244 0127 1C000000 		.4byte	.LFE273
 3245 012b 0400     		.2byte	0x4
ARM GAS  /var/folders/m4/4md61f0s1_g0rzfghffqnxvr0000gn/T//ccD1WRxm.s 			page 58


 3246 012d F3       		.byte	0xf3
 3247 012e 01       		.uleb128 0x1
 3248 012f 50       		.byte	0x50
 3249 0130 9F       		.byte	0x9f
 3250 0131 00000000 		.4byte	0
 3251 0135 00000000 		.4byte	0
 3252              	.LLST6:
 3253 0139 04000000 		.4byte	.LVL32
 3254 013d 0C000000 		.4byte	.LVL33
 3255 0141 0100     		.2byte	0x1
 3256 0143 52       		.byte	0x52
 3257 0144 00000000 		.4byte	0
 3258 0148 00000000 		.4byte	0
 3259              	.LLST7:
 3260 014c 00000000 		.4byte	.LVL35
 3261 0150 02000000 		.4byte	.LVL36
 3262 0154 0100     		.2byte	0x1
 3263 0156 50       		.byte	0x50
 3264 0157 02000000 		.4byte	.LVL36
 3265 015b 16000000 		.4byte	.LFE276
 3266 015f 0400     		.2byte	0x4
 3267 0161 F3       		.byte	0xf3
 3268 0162 01       		.uleb128 0x1
 3269 0163 50       		.byte	0x50
 3270 0164 9F       		.byte	0x9f
 3271 0165 00000000 		.4byte	0
 3272 0169 00000000 		.4byte	0
 3273              	.LLST8:
 3274 016d 06000000 		.4byte	.LVL37
 3275 0171 0E000000 		.4byte	.LVL38
 3276 0175 0100     		.2byte	0x1
 3277 0177 52       		.byte	0x52
 3278 0178 00000000 		.4byte	0
 3279 017c 00000000 		.4byte	0
 3280              	.LLST9:
 3281 0180 00000000 		.4byte	.LVL39
 3282 0184 02000000 		.4byte	.LVL40
 3283 0188 0100     		.2byte	0x1
 3284 018a 50       		.byte	0x50
 3285 018b 02000000 		.4byte	.LVL40
 3286 018f 10000000 		.4byte	.LFE277
 3287 0193 0400     		.2byte	0x4
 3288 0195 F3       		.byte	0xf3
 3289 0196 01       		.uleb128 0x1
 3290 0197 50       		.byte	0x50
 3291 0198 9F       		.byte	0x9f
 3292 0199 00000000 		.4byte	0
 3293 019d 00000000 		.4byte	0
 3294              	.LLST10:
 3295 01a1 00000000 		.4byte	.LVL41
 3296 01a5 1D000000 		.4byte	.LVL44-1
 3297 01a9 0100     		.2byte	0x1
 3298 01ab 50       		.byte	0x50
 3299 01ac 1D000000 		.4byte	.LVL44-1
 3300 01b0 58000000 		.4byte	.LVL48
 3301 01b4 0100     		.2byte	0x1
 3302 01b6 55       		.byte	0x55
ARM GAS  /var/folders/m4/4md61f0s1_g0rzfghffqnxvr0000gn/T//ccD1WRxm.s 			page 59


 3303 01b7 58000000 		.4byte	.LVL48
 3304 01bb 59000000 		.4byte	.LVL49-1
 3305 01bf 0100     		.2byte	0x1
 3306 01c1 50       		.byte	0x50
 3307 01c2 59000000 		.4byte	.LVL49-1
 3308 01c6 5A000000 		.4byte	.LVL49
 3309 01ca 0400     		.2byte	0x4
 3310 01cc F3       		.byte	0xf3
 3311 01cd 01       		.uleb128 0x1
 3312 01ce 50       		.byte	0x50
 3313 01cf 9F       		.byte	0x9f
 3314 01d0 5A000000 		.4byte	.LVL49
 3315 01d4 5C000000 		.4byte	.LFE278
 3316 01d8 0100     		.2byte	0x1
 3317 01da 55       		.byte	0x55
 3318 01db 00000000 		.4byte	0
 3319 01df 00000000 		.4byte	0
 3320              	.LLST11:
 3321 01e3 06000000 		.4byte	.LVL42
 3322 01e7 0A000000 		.4byte	.LVL43
 3323 01eb 0100     		.2byte	0x1
 3324 01ed 52       		.byte	0x52
 3325 01ee 0A000000 		.4byte	.LVL43
 3326 01f2 58000000 		.4byte	.LVL48
 3327 01f6 0600     		.2byte	0x6
 3328 01f8 74       		.byte	0x74
 3329 01f9 00       		.sleb128 0
 3330 01fa 08       		.byte	0x8
 3331 01fb FF       		.byte	0xff
 3332 01fc 1A       		.byte	0x1a
 3333 01fd 9F       		.byte	0x9f
 3334 01fe 5A000000 		.4byte	.LVL49
 3335 0202 5C000000 		.4byte	.LFE278
 3336 0206 0600     		.2byte	0x6
 3337 0208 74       		.byte	0x74
 3338 0209 00       		.sleb128 0
 3339 020a 08       		.byte	0x8
 3340 020b FF       		.byte	0xff
 3341 020c 1A       		.byte	0x1a
 3342 020d 9F       		.byte	0x9f
 3343 020e 00000000 		.4byte	0
 3344 0212 00000000 		.4byte	0
 3345              		.section	.debug_aranges,"",%progbits
 3346 0000 6C000000 		.4byte	0x6c
 3347 0004 0200     		.2byte	0x2
 3348 0006 00000000 		.4byte	.Ldebug_info0
 3349 000a 04       		.byte	0x4
 3350 000b 00       		.byte	0
 3351 000c 0000     		.2byte	0
 3352 000e 0000     		.2byte	0
 3353 0010 00000000 		.4byte	.LFB269
 3354 0014 1C000000 		.4byte	.LFE269-.LFB269
 3355 0018 00000000 		.4byte	.LFB270
 3356 001c E4000000 		.4byte	.LFE270-.LFB270
 3357 0020 00000000 		.4byte	.LFB271
 3358 0024 34000000 		.4byte	.LFE271-.LFB271
 3359 0028 00000000 		.4byte	.LFB272
ARM GAS  /var/folders/m4/4md61f0s1_g0rzfghffqnxvr0000gn/T//ccD1WRxm.s 			page 60


 3360 002c 0C000000 		.4byte	.LFE272-.LFB272
 3361 0030 00000000 		.4byte	.LFB273
 3362 0034 1C000000 		.4byte	.LFE273-.LFB273
 3363 0038 00000000 		.4byte	.LFB274
 3364 003c 18000000 		.4byte	.LFE274-.LFB274
 3365 0040 00000000 		.4byte	.LFB275
 3366 0044 0C000000 		.4byte	.LFE275-.LFB275
 3367 0048 00000000 		.4byte	.LFB276
 3368 004c 16000000 		.4byte	.LFE276-.LFB276
 3369 0050 00000000 		.4byte	.LFB277
 3370 0054 10000000 		.4byte	.LFE277-.LFB277
 3371 0058 00000000 		.4byte	.LFB278
 3372 005c 5C000000 		.4byte	.LFE278-.LFB278
 3373 0060 00000000 		.4byte	.LFB268
 3374 0064 14000000 		.4byte	.LFE268-.LFB268
 3375 0068 00000000 		.4byte	0
 3376 006c 00000000 		.4byte	0
 3377              		.section	.debug_ranges,"",%progbits
 3378              	.Ldebug_ranges0:
 3379 0000 00000000 		.4byte	.LFB269
 3380 0004 1C000000 		.4byte	.LFE269
 3381 0008 00000000 		.4byte	.LFB270
 3382 000c E4000000 		.4byte	.LFE270
 3383 0010 00000000 		.4byte	.LFB271
 3384 0014 34000000 		.4byte	.LFE271
 3385 0018 00000000 		.4byte	.LFB272
 3386 001c 0C000000 		.4byte	.LFE272
 3387 0020 00000000 		.4byte	.LFB273
 3388 0024 1C000000 		.4byte	.LFE273
 3389 0028 00000000 		.4byte	.LFB274
 3390 002c 18000000 		.4byte	.LFE274
 3391 0030 00000000 		.4byte	.LFB275
 3392 0034 0C000000 		.4byte	.LFE275
 3393 0038 00000000 		.4byte	.LFB276
 3394 003c 16000000 		.4byte	.LFE276
 3395 0040 00000000 		.4byte	.LFB277
 3396 0044 10000000 		.4byte	.LFE277
 3397 0048 00000000 		.4byte	.LFB278
 3398 004c 5C000000 		.4byte	.LFE278
 3399 0050 00000000 		.4byte	.LFB268
 3400 0054 14000000 		.4byte	.LFE268
 3401 0058 00000000 		.4byte	0
 3402 005c 00000000 		.4byte	0
 3403              		.section	.debug_line,"",%progbits
 3404              	.Ldebug_line0:
 3405 0000 A2040000 		.section	.debug_str,"MS",%progbits,1
 3405      02001C03 
 3405      00000201 
 3405      FB0E0D00 
 3405      01010101 
 3406              	.LASF192:
 3407 0000 2F557365 		.ascii	"/Users/raphael/Documents/pcb-quadrotor/code\000"
 3407      72732F72 
 3407      61706861 
 3407      656C2F44 
 3407      6F63756D 
 3408              	.LASF49:
ARM GAS  /var/folders/m4/4md61f0s1_g0rzfghffqnxvr0000gn/T//ccD1WRxm.s 			page 61


 3409 002c 74687265 		.ascii	"threads_list_t\000"
 3409      6164735F 
 3409      6C697374 
 3409      5F7400
 3410              	.LASF161:
 3411 003b 70776D63 		.ascii	"pwmchannel_t\000"
 3411      68616E6E 
 3411      656C5F74 
 3411      00
 3412              	.LASF54:
 3413 0048 72656164 		.ascii	"ready_list_t\000"
 3413      795F6C69 
 3413      73745F74 
 3413      00
 3414              	.LASF151:
 3415 0055 44494552 		.ascii	"DIER\000"
 3415      00
 3416              	.LASF2:
 3417 005a 73697A65 		.ascii	"size_t\000"
 3417      5F7400
 3418              	.LASF183:
 3419 0061 70776D5F 		.ascii	"pwm_lld_serve_interrupt\000"
 3419      6C6C645F 
 3419      73657276 
 3419      655F696E 
 3419      74657272 
 3420              	.LASF121:
 3421 0079 7264796D 		.ascii	"rdymsg\000"
 3421      736700
 3422              	.LASF17:
 3423 0080 75696E74 		.ascii	"uint64_t\000"
 3423      36345F74 
 3423      00
 3424              	.LASF3:
 3425 0089 5F5F7569 		.ascii	"__uint8_t\000"
 3425      6E74385F 
 3425      7400
 3426              	.LASF118:
 3427 0093 706F7274 		.ascii	"port_intctx\000"
 3427      5F696E74 
 3427      63747800 
 3428              	.LASF53:
 3429 009f 63685F74 		.ascii	"ch_threads_queue\000"
 3429      68726561 
 3429      64735F71 
 3429      75657565 
 3429      00
 3430              	.LASF73:
 3431 00b0 73797374 		.ascii	"system_debug_t\000"
 3431      656D5F64 
 3431      65627567 
 3431      5F7400
 3432              	.LASF153:
 3433 00bf 43434D52 		.ascii	"CCMR2\000"
 3433      3200
 3434              	.LASF191:
 3435 00c5 43686962 		.ascii	"ChibiOS_16.1.4/os/hal/ports/STM32/LLD/TIMv1/pwm_lld"
ARM GAS  /var/folders/m4/4md61f0s1_g0rzfghffqnxvr0000gn/T//ccD1WRxm.s 			page 62


 3435      694F535F 
 3435      31362E31 
 3435      2E342F6F 
 3435      732F6861 
 3436 00f8 2E6300   		.ascii	".c\000"
 3437              	.LASF13:
 3438 00fb 6C6F6E67 		.ascii	"long long unsigned int\000"
 3438      206C6F6E 
 3438      6720756E 
 3438      7369676E 
 3438      65642069 
 3439              	.LASF122:
 3440 0112 65786974 		.ascii	"exitcode\000"
 3440      636F6465 
 3440      00
 3441              	.LASF80:
 3442 011b 6D61696E 		.ascii	"mainthread\000"
 3442      74687265 
 3442      616400
 3443              	.LASF70:
 3444 0126 76697274 		.ascii	"virtual_timers_list_t\000"
 3444      75616C5F 
 3444      74696D65 
 3444      72735F6C 
 3444      6973745F 
 3445              	.LASF178:
 3446 013c 70776D5F 		.ascii	"pwm_lld_disable_channel\000"
 3446      6C6C645F 
 3446      64697361 
 3446      626C655F 
 3446      6368616E 
 3447              	.LASF155:
 3448 0154 42445452 		.ascii	"BDTR\000"
 3448      00
 3449              	.LASF167:
 3450 0159 66726571 		.ascii	"frequency\000"
 3450      75656E63 
 3450      7900
 3451              	.LASF99:
 3452 0163 41484231 		.ascii	"AHB1LPENR\000"
 3452      4C50454E 
 3452      5200
 3453              	.LASF31:
 3454 016d 705F7072 		.ascii	"p_prio\000"
 3454      696F00
 3455              	.LASF140:
 3456 0174 50574D5F 		.ascii	"PWM_READY\000"
 3456      52454144 
 3456      5900
 3457              	.LASF188:
 3458 017e 6E766963 		.ascii	"nvicEnableVector\000"
 3458      456E6162 
 3458      6C655665 
 3458      63746F72 
 3458      00
 3459              	.LASF152:
 3460 018f 43434D52 		.ascii	"CCMR1\000"
ARM GAS  /var/folders/m4/4md61f0s1_g0rzfghffqnxvr0000gn/T//ccD1WRxm.s 			page 63


 3460      3100
 3461              	.LASF111:
 3462 0195 44434B43 		.ascii	"DCKCFGR\000"
 3462      46475200 
 3463              	.LASF157:
 3464 019d 43434D52 		.ascii	"CCMR3\000"
 3464      3300
 3465              	.LASF1:
 3466 01a3 7369676E 		.ascii	"signed char\000"
 3466      65642063 
 3466      68617200 
 3467              	.LASF85:
 3468 01af 41484231 		.ascii	"AHB1RSTR\000"
 3468      52535452 
 3468      00
 3469              	.LASF113:
 3470 01b8 44434B43 		.ascii	"DCKCFGR2\000"
 3470      46475232 
 3470      00
 3471              	.LASF160:
 3472 01c1 70776D6D 		.ascii	"pwmmode_t\000"
 3472      6F64655F 
 3472      7400
 3473              	.LASF22:
 3474 01cb 74736C69 		.ascii	"tslices_t\000"
 3474      6365735F 
 3474      7400
 3475              	.LASF143:
 3476 01d5 73746174 		.ascii	"state\000"
 3476      6500
 3477              	.LASF147:
 3478 01db 6368616E 		.ascii	"channels\000"
 3478      6E656C73 
 3478      00
 3479              	.LASF8:
 3480 01e4 6C6F6E67 		.ascii	"long int\000"
 3480      20696E74 
 3480      00
 3481              	.LASF171:
 3482 01ed 70776D5F 		.ascii	"pwm_lld_start\000"
 3482      6C6C645F 
 3482      73746172 
 3482      7400
 3483              	.LASF90:
 3484 01fb 41504232 		.ascii	"APB2RSTR\000"
 3484      52535452 
 3484      00
 3485              	.LASF181:
 3486 0204 70776D5F 		.ascii	"pwm_lld_enable_channel_notification\000"
 3486      6C6C645F 
 3486      656E6162 
 3486      6C655F63 
 3486      68616E6E 
 3487              	.LASF103:
 3488 0228 41504231 		.ascii	"APB1LPENR\000"
 3488      4C50454E 
 3488      5200
ARM GAS  /var/folders/m4/4md61f0s1_g0rzfghffqnxvr0000gn/T//ccD1WRxm.s 			page 64


 3489              	.LASF20:
 3490 0232 74737461 		.ascii	"tstate_t\000"
 3490      74655F74 
 3490      00
 3491              	.LASF149:
 3492 023b 70776D63 		.ascii	"pwmcallback_t\000"
 3492      616C6C62 
 3492      61636B5F 
 3492      7400
 3493              	.LASF33:
 3494 0249 705F6E65 		.ascii	"p_newer\000"
 3494      77657200 
 3495              	.LASF83:
 3496 0251 504C4C43 		.ascii	"PLLCFGR\000"
 3496      46475200 
 3497              	.LASF6:
 3498 0259 73686F72 		.ascii	"short unsigned int\000"
 3498      7420756E 
 3498      7369676E 
 3498      65642069 
 3498      6E7400
 3499              	.LASF186:
 3500 026c 50574D44 		.ascii	"PWMD5\000"
 3500      3500
 3501              	.LASF59:
 3502 0272 725F6E65 		.ascii	"r_newer\000"
 3502      77657200 
 3503              	.LASF47:
 3504 027a 705F6D70 		.ascii	"p_mpool\000"
 3504      6F6F6C00 
 3505              	.LASF115:
 3506 0282 72656761 		.ascii	"regarm_t\000"
 3506      726D5F74 
 3506      00
 3507              	.LASF66:
 3508 028b 76745F70 		.ascii	"vt_prev\000"
 3508      72657600 
 3509              	.LASF79:
 3510 0293 76746C69 		.ascii	"vtlist\000"
 3510      737400
 3511              	.LASF11:
 3512 029a 6C6F6E67 		.ascii	"long long int\000"
 3512      206C6F6E 
 3512      6720696E 
 3512      7400
 3513              	.LASF81:
 3514 02a8 69646C65 		.ascii	"idle_thread_wa\000"
 3514      5F746872 
 3514      6561645F 
 3514      776100
 3515              	.LASF26:
 3516 02b7 636E745F 		.ascii	"cnt_t\000"
 3516      7400
 3517              	.LASF0:
 3518 02bd 756E7369 		.ascii	"unsigned int\000"
 3518      676E6564 
 3518      20696E74 
ARM GAS  /var/folders/m4/4md61f0s1_g0rzfghffqnxvr0000gn/T//ccD1WRxm.s 			page 65


 3518      00
 3519              	.LASF65:
 3520 02ca 76745F6E 		.ascii	"vt_next\000"
 3520      65787400 
 3521              	.LASF189:
 3522 02d2 6E766963 		.ascii	"nvicDisableVector\000"
 3522      44697361 
 3522      626C6556 
 3522      6563746F 
 3522      7200
 3523              	.LASF40:
 3524 02e4 705F7469 		.ascii	"p_time\000"
 3524      6D6500
 3525              	.LASF125:
 3526 02eb 77747365 		.ascii	"wtsemp\000"
 3526      6D7000
 3527              	.LASF72:
 3528 02f2 76745F73 		.ascii	"vt_systime\000"
 3528      79737469 
 3528      6D6500
 3529              	.LASF67:
 3530 02fd 76745F64 		.ascii	"vt_delta\000"
 3530      656C7461 
 3530      00
 3531              	.LASF42:
 3532 0306 705F6D73 		.ascii	"p_msgqueue\000"
 3532      67717565 
 3532      756500
 3533              	.LASF179:
 3534 0311 70776D5F 		.ascii	"pwm_lld_enable_periodic_notification\000"
 3534      6C6C645F 
 3534      656E6162 
 3534      6C655F70 
 3534      6572696F 
 3535              	.LASF50:
 3536 0336 63685F74 		.ascii	"ch_thread\000"
 3536      68726561 
 3536      6400
 3537              	.LASF177:
 3538 0340 77696474 		.ascii	"width\000"
 3538      6800
 3539              	.LASF150:
 3540 0346 534D4352 		.ascii	"SMCR\000"
 3540      00
 3541              	.LASF109:
 3542 034b 504C4C49 		.ascii	"PLLI2SCFGR\000"
 3542      32534346 
 3542      475200
 3543              	.LASF24:
 3544 0356 6D73675F 		.ascii	"msg_t\000"
 3544      7400
 3545              	.LASF87:
 3546 035c 41484233 		.ascii	"AHB3RSTR\000"
 3546      52535452 
 3546      00
 3547              	.LASF51:
 3548 0365 63685F74 		.ascii	"ch_threads_list\000"
ARM GAS  /var/folders/m4/4md61f0s1_g0rzfghffqnxvr0000gn/T//ccD1WRxm.s 			page 66


 3548      68726561 
 3548      64735F6C 
 3548      69737400 
 3549              	.LASF194:
 3550 0375 5F706F72 		.ascii	"_port_irq_epilogue\000"
 3550      745F6972 
 3550      715F6570 
 3550      696C6F67 
 3550      756500
 3551              	.LASF165:
 3552 0388 63616C6C 		.ascii	"callback\000"
 3552      6261636B 
 3552      00
 3553              	.LASF184:
 3554 0391 56656374 		.ascii	"Vector108\000"
 3554      6F723130 
 3554      3800
 3555              	.LASF159:
 3556 039b 73746D33 		.ascii	"stm32_tim_t\000"
 3556      325F7469 
 3556      6D5F7400 
 3557              	.LASF104:
 3558 03a7 41504232 		.ascii	"APB2LPENR\000"
 3558      4C50454E 
 3558      5200
 3559              	.LASF55:
 3560 03b1 63685F72 		.ascii	"ch_ready_list\000"
 3560      65616479 
 3560      5F6C6973 
 3560      7400
 3561              	.LASF25:
 3562 03bf 6576656E 		.ascii	"eventmask_t\000"
 3562      746D6173 
 3562      6B5F7400 
 3563              	.LASF182:
 3564 03cb 70776D5F 		.ascii	"pwm_lld_disable_channel_notification\000"
 3564      6C6C645F 
 3564      64697361 
 3564      626C655F 
 3564      6368616E 
 3565              	.LASF172:
 3566 03f0 63636572 		.ascii	"ccer\000"
 3566      00
 3567              	.LASF7:
 3568 03f5 5F5F696E 		.ascii	"__int32_t\000"
 3568      7433325F 
 3568      7400
 3569              	.LASF174:
 3570 03ff 70776D70 		.ascii	"pwmp\000"
 3570      00
 3571              	.LASF116:
 3572 0404 73746B61 		.ascii	"stkalign_t\000"
 3572      6C69676E 
 3572      5F7400
 3573              	.LASF136:
 3574 040f 6D757465 		.ascii	"mutex_t\000"
 3574      785F7400 
ARM GAS  /var/folders/m4/4md61f0s1_g0rzfghffqnxvr0000gn/T//ccD1WRxm.s 			page 67


 3575              	.LASF63:
 3576 0417 76697274 		.ascii	"virtual_timer_t\000"
 3576      75616C5F 
 3576      74696D65 
 3576      725F7400 
 3577              	.LASF190:
 3578 0427 474E5520 		.ascii	"GNU C 4.9.3 20150529 (release) [ARM/embedded-4_9-br"
 3578      4320342E 
 3578      392E3320 
 3578      32303135 
 3578      30353239 
 3579 045a 616E6368 		.ascii	"anch revision 224288] -mcpu=cortex-m4 -mfloat-abi=h"
 3579      20726576 
 3579      6973696F 
 3579      6E203232 
 3579      34323838 
 3580 048d 61726420 		.ascii	"ard -mfpu=fpv4-sp-d16 -mno-thumb-interwork -mthumb "
 3580      2D6D6670 
 3580      753D6670 
 3580      76342D73 
 3580      702D6431 
 3581 04c0 2D676764 		.ascii	"-ggdb -O2 -std=gnu99 -fomit-frame-pointer -falign-f"
 3581      62202D4F 
 3581      32202D73 
 3581      74643D67 
 3581      6E753939 
 3582 04f3 756E6374 		.ascii	"unctions=16 -ffunction-sections -fdata-sections -fn"
 3582      696F6E73 
 3582      3D313620 
 3582      2D666675 
 3582      6E637469 
 3583 0526 6F2D636F 		.ascii	"o-common -fsingle-precision-constant\000"
 3583      6D6D6F6E 
 3583      202D6673 
 3583      696E676C 
 3583      652D7072 
 3584              	.LASF41:
 3585 054b 705F7761 		.ascii	"p_waiting\000"
 3585      6974696E 
 3585      6700
 3586              	.LASF82:
 3587 0555 73697A65 		.ascii	"sizetype\000"
 3587      74797065 
 3587      00
 3588              	.LASF48:
 3589 055e 74687265 		.ascii	"thread_reference_t\000"
 3589      61645F72 
 3589      65666572 
 3589      656E6365 
 3589      5F7400
 3590              	.LASF71:
 3591 0571 63685F76 		.ascii	"ch_virtual_timers_list\000"
 3591      69727475 
 3591      616C5F74 
 3591      696D6572 
 3591      735F6C69 
 3592              	.LASF124:
ARM GAS  /var/folders/m4/4md61f0s1_g0rzfghffqnxvr0000gn/T//ccD1WRxm.s 			page 68


 3593 0588 77747472 		.ascii	"wttrp\000"
 3593      7000
 3594              	.LASF29:
 3595 058e 705F6E65 		.ascii	"p_next\000"
 3595      787400
 3596              	.LASF44:
 3597 0595 705F6570 		.ascii	"p_epending\000"
 3597      656E6469 
 3597      6E6700
 3598              	.LASF94:
 3599 05a0 41484233 		.ascii	"AHB3ENR\000"
 3599      454E5200 
 3600              	.LASF34:
 3601 05a8 705F6F6C 		.ascii	"p_older\000"
 3601      64657200 
 3602              	.LASF170:
 3603 05b0 70776D5F 		.ascii	"pwm_lld_init\000"
 3603      6C6C645F 
 3603      696E6974 
 3603      00
 3604              	.LASF58:
 3605 05bd 725F6374 		.ascii	"r_ctx\000"
 3605      7800
 3606              	.LASF100:
 3607 05c3 41484232 		.ascii	"AHB2LPENR\000"
 3607      4C50454E 
 3607      5200
 3608              	.LASF120:
 3609 05cd 746D5F63 		.ascii	"tm_calibration_t\000"
 3609      616C6962 
 3609      72617469 
 3609      6F6E5F74 
 3609      00
 3610              	.LASF61:
 3611 05de 725F6375 		.ascii	"r_current\000"
 3611      7272656E 
 3611      7400
 3612              	.LASF89:
 3613 05e8 41504231 		.ascii	"APB1RSTR\000"
 3613      52535452 
 3613      00
 3614              	.LASF12:
 3615 05f1 5F5F7569 		.ascii	"__uint64_t\000"
 3615      6E743634 
 3615      5F7400
 3616              	.LASF110:
 3617 05fc 504C4C53 		.ascii	"PLLSAICFGR\000"
 3617      41494346 
 3617      475200
 3618              	.LASF180:
 3619 0607 70776D5F 		.ascii	"pwm_lld_disable_periodic_notification\000"
 3619      6C6C645F 
 3619      64697361 
 3619      626C655F 
 3619      70657269 
 3620              	.LASF21:
 3621 062d 74726566 		.ascii	"trefs_t\000"
ARM GAS  /var/folders/m4/4md61f0s1_g0rzfghffqnxvr0000gn/T//ccD1WRxm.s 			page 69


 3621      735F7400 
 3622              	.LASF88:
 3623 0635 52455345 		.ascii	"RESERVED0\000"
 3623      52564544 
 3623      3000
 3624              	.LASF91:
 3625 063f 52455345 		.ascii	"RESERVED1\000"
 3625      52564544 
 3625      3100
 3626              	.LASF95:
 3627 0649 52455345 		.ascii	"RESERVED2\000"
 3627      52564544 
 3627      3200
 3628              	.LASF98:
 3629 0653 52455345 		.ascii	"RESERVED3\000"
 3629      52564544 
 3629      3300
 3630              	.LASF102:
 3631 065d 52455345 		.ascii	"RESERVED4\000"
 3631      52564544 
 3631      3400
 3632              	.LASF30:
 3633 0667 705F7072 		.ascii	"p_prev\000"
 3633      657600
 3634              	.LASF107:
 3635 066e 52455345 		.ascii	"RESERVED6\000"
 3635      52564544 
 3635      3600
 3636              	.LASF23:
 3637 0678 74707269 		.ascii	"tprio_t\000"
 3637      6F5F7400 
 3638              	.LASF74:
 3639 0680 63685F73 		.ascii	"ch_system_debug\000"
 3639      79737465 
 3639      6D5F6465 
 3639      62756700 
 3640              	.LASF137:
 3641 0690 5F426F6F 		.ascii	"_Bool\000"
 3641      6C00
 3642              	.LASF15:
 3643 0696 696E7433 		.ascii	"int32_t\000"
 3643      325F7400 
 3644              	.LASF4:
 3645 069e 756E7369 		.ascii	"unsigned char\000"
 3645      676E6564 
 3645      20636861 
 3645      7200
 3646              	.LASF132:
 3647 06ac 6D5F7175 		.ascii	"m_queue\000"
 3647      65756500 
 3648              	.LASF185:
 3649 06b4 49544D5F 		.ascii	"ITM_RxBuffer\000"
 3649      52784275 
 3649      66666572 
 3649      00
 3650              	.LASF130:
 3651 06c1 735F636E 		.ascii	"s_cnt\000"
ARM GAS  /var/folders/m4/4md61f0s1_g0rzfghffqnxvr0000gn/T//ccD1WRxm.s 			page 70


 3651      7400
 3652              	.LASF114:
 3653 06c7 5243435F 		.ascii	"RCC_TypeDef\000"
 3653      54797065 
 3653      44656600 
 3654              	.LASF45:
 3655 06d3 705F6D74 		.ascii	"p_mtxlist\000"
 3655      786C6973 
 3655      7400
 3656              	.LASF5:
 3657 06dd 73686F72 		.ascii	"short int\000"
 3657      7420696E 
 3657      7400
 3658              	.LASF36:
 3659 06e7 705F7374 		.ascii	"p_state\000"
 3659      61746500 
 3660              	.LASF39:
 3661 06ef 705F7072 		.ascii	"p_preempt\000"
 3661      65656D70 
 3661      7400
 3662              	.LASF101:
 3663 06f9 41484233 		.ascii	"AHB3LPENR\000"
 3663      4C50454E 
 3663      5200
 3664              	.LASF57:
 3665 0703 725F7072 		.ascii	"r_prio\000"
 3665      696F00
 3666              	.LASF127:
 3667 070a 65776D61 		.ascii	"ewmask\000"
 3667      736B00
 3668              	.LASF162:
 3669 0711 70776D63 		.ascii	"pwmchnmsk_t\000"
 3669      686E6D73 
 3669      6B5F7400 
 3670              	.LASF37:
 3671 071d 705F666C 		.ascii	"p_flags\000"
 3671      61677300 
 3672              	.LASF193:
 3673 0725 5F5F6675 		.ascii	"__func__\000"
 3673      6E635F5F 
 3673      00
 3674              	.LASF77:
 3675 072e 63685F73 		.ascii	"ch_system\000"
 3675      79737465 
 3675      6D00
 3676              	.LASF97:
 3677 0738 41504232 		.ascii	"APB2ENR\000"
 3677      454E5200 
 3678              	.LASF176:
 3679 0740 6368616E 		.ascii	"channel\000"
 3679      6E656C00 
 3680              	.LASF64:
 3681 0748 63685F76 		.ascii	"ch_virtual_timer\000"
 3681      69727475 
 3681      616C5F74 
 3681      696D6572 
 3681      00
ARM GAS  /var/folders/m4/4md61f0s1_g0rzfghffqnxvr0000gn/T//ccD1WRxm.s 			page 71


 3682              	.LASF128:
 3683 0759 63685F73 		.ascii	"ch_semaphore\000"
 3683      656D6170 
 3683      686F7265 
 3683      00
 3684              	.LASF158:
 3685 0766 43435852 		.ascii	"CCXR\000"
 3685      00
 3686              	.LASF173:
 3687 076b 70776D5F 		.ascii	"pwm_lld_stop\000"
 3687      6C6C645F 
 3687      73746F70 
 3687      00
 3688              	.LASF105:
 3689 0778 52455345 		.ascii	"RESERVED5\000"
 3689      52564544 
 3689      3500
 3690              	.LASF16:
 3691 0782 75696E74 		.ascii	"uint32_t\000"
 3691      33325F74 
 3691      00
 3692              	.LASF126:
 3693 078b 77746D74 		.ascii	"wtmtxp\000"
 3693      787000
 3694              	.LASF56:
 3695 0792 725F7175 		.ascii	"r_queue\000"
 3695      65756500 
 3696              	.LASF146:
 3697 079a 656E6162 		.ascii	"enabled\000"
 3697      6C656400 
 3698              	.LASF10:
 3699 07a2 6C6F6E67 		.ascii	"long unsigned int\000"
 3699      20756E73 
 3699      69676E65 
 3699      6420696E 
 3699      7400
 3700              	.LASF175:
 3701 07b4 70776D5F 		.ascii	"pwm_lld_enable_channel\000"
 3701      6C6C645F 
 3701      656E6162 
 3701      6C655F63 
 3701      68616E6E 
 3702              	.LASF139:
 3703 07cb 50574D5F 		.ascii	"PWM_STOP\000"
 3703      53544F50 
 3703      00
 3704              	.LASF135:
 3705 07d4 63686172 		.ascii	"char\000"
 3705      00
 3706              	.LASF164:
 3707 07d9 6D6F6465 		.ascii	"mode\000"
 3707      00
 3708              	.LASF144:
 3709 07de 636F6E66 		.ascii	"config\000"
 3709      696700
 3710              	.LASF156:
 3711 07e5 444D4152 		.ascii	"DMAR\000"
ARM GAS  /var/folders/m4/4md61f0s1_g0rzfghffqnxvr0000gn/T//ccD1WRxm.s 			page 72


 3711      00
 3712              	.LASF86:
 3713 07ea 41484232 		.ascii	"AHB2RSTR\000"
 3713      52535452 
 3713      00
 3714              	.LASF28:
 3715 07f3 74687265 		.ascii	"thread_t\000"
 3715      61645F74 
 3715      00
 3716              	.LASF154:
 3717 07fc 43434552 		.ascii	"CCER\000"
 3717      00
 3718              	.LASF134:
 3719 0801 6D5F6E65 		.ascii	"m_next\000"
 3719      787400
 3720              	.LASF27:
 3721 0808 73797374 		.ascii	"systime_t\000"
 3721      696D655F 
 3721      7400
 3722              	.LASF46:
 3723 0812 705F7265 		.ascii	"p_realprio\000"
 3723      616C7072 
 3723      696F00
 3724              	.LASF62:
 3725 081d 76746675 		.ascii	"vtfunc_t\000"
 3725      6E635F74 
 3725      00
 3726              	.LASF9:
 3727 0826 5F5F7569 		.ascii	"__uint32_t\000"
 3727      6E743332 
 3727      5F7400
 3728              	.LASF145:
 3729 0831 70657269 		.ascii	"period\000"
 3729      6F6400
 3730              	.LASF75:
 3731 0838 70616E69 		.ascii	"panic_msg\000"
 3731      635F6D73 
 3731      6700
 3732              	.LASF119:
 3733 0842 6F666673 		.ascii	"offset\000"
 3733      657400
 3734              	.LASF96:
 3735 0849 41504231 		.ascii	"APB1ENR\000"
 3735      454E5200 
 3736              	.LASF93:
 3737 0851 41484232 		.ascii	"AHB2ENR\000"
 3737      454E5200 
 3738              	.LASF117:
 3739 0859 636F6E74 		.ascii	"context\000"
 3739      65787400 
 3740              	.LASF60:
 3741 0861 725F6F6C 		.ascii	"r_older\000"
 3741      64657200 
 3742              	.LASF76:
 3743 0869 63685F73 		.ascii	"ch_system_t\000"
 3743      79737465 
 3743      6D5F7400 
ARM GAS  /var/folders/m4/4md61f0s1_g0rzfghffqnxvr0000gn/T//ccD1WRxm.s 			page 73


 3744              	.LASF166:
 3745 0875 50574D43 		.ascii	"PWMChannelConfig\000"
 3745      68616E6E 
 3745      656C436F 
 3745      6E666967 
 3745      00
 3746              	.LASF18:
 3747 0886 7274636E 		.ascii	"rtcnt_t\000"
 3747      745F7400 
 3748              	.LASF69:
 3749 088e 76745F70 		.ascii	"vt_par\000"
 3749      617200
 3750              	.LASF108:
 3751 0895 53534347 		.ascii	"SSCGR\000"
 3751      5200
 3752              	.LASF169:
 3753 089b 50574D43 		.ascii	"PWMConfig\000"
 3753      6F6E6669 
 3753      6700
 3754              	.LASF52:
 3755 08a5 74687265 		.ascii	"threads_queue_t\000"
 3755      6164735F 
 3755      71756575 
 3755      655F7400 
 3756              	.LASF131:
 3757 08b5 63685F6D 		.ascii	"ch_mutex\000"
 3757      75746578 
 3757      00
 3758              	.LASF38:
 3759 08be 705F7265 		.ascii	"p_refs\000"
 3759      667300
 3760              	.LASF112:
 3761 08c5 434B4741 		.ascii	"CKGATENR\000"
 3761      54454E52 
 3761      00
 3762              	.LASF106:
 3763 08ce 42444352 		.ascii	"BDCR\000"
 3763      00
 3764              	.LASF78:
 3765 08d3 726C6973 		.ascii	"rlist\000"
 3765      7400
 3766              	.LASF14:
 3767 08d9 75696E74 		.ascii	"uint8_t\000"
 3767      385F7400 
 3768              	.LASF142:
 3769 08e1 50574D44 		.ascii	"PWMDriver\000"
 3769      72697665 
 3769      7200
 3770              	.LASF141:
 3771 08eb 70776D73 		.ascii	"pwmstate_t\000"
 3771      74617465 
 3771      5F7400
 3772              	.LASF163:
 3773 08f6 70776D63 		.ascii	"pwmcnt_t\000"
 3773      6E745F74 
 3773      00
 3774              	.LASF123:
ARM GAS  /var/folders/m4/4md61f0s1_g0rzfghffqnxvr0000gn/T//ccD1WRxm.s 			page 74


 3775 08ff 77746F62 		.ascii	"wtobjp\000"
 3775      6A7000
 3776              	.LASF35:
 3777 0906 705F6E61 		.ascii	"p_name\000"
 3777      6D6500
 3778              	.LASF92:
 3779 090d 41484231 		.ascii	"AHB1ENR\000"
 3779      454E5200 
 3780              	.LASF84:
 3781 0915 43464752 		.ascii	"CFGR\000"
 3781      00
 3782              	.LASF19:
 3783 091a 746D6F64 		.ascii	"tmode_t\000"
 3783      655F7400 
 3784              	.LASF129:
 3785 0922 735F7175 		.ascii	"s_queue\000"
 3785      65756500 
 3786              	.LASF148:
 3787 092a 636C6F63 		.ascii	"clock\000"
 3787      6B00
 3788              	.LASF43:
 3789 0930 705F6D73 		.ascii	"p_msg\000"
 3789      6700
 3790              	.LASF138:
 3791 0936 50574D5F 		.ascii	"PWM_UNINIT\000"
 3791      554E494E 
 3791      495400
 3792              	.LASF133:
 3793 0941 6D5F6F77 		.ascii	"m_owner\000"
 3793      6E657200 
 3794              	.LASF187:
 3795 0949 70776D4F 		.ascii	"pwmObjectInit\000"
 3795      626A6563 
 3795      74496E69 
 3795      7400
 3796              	.LASF32:
 3797 0957 705F6374 		.ascii	"p_ctx\000"
 3797      7800
 3798              	.LASF68:
 3799 095d 76745F66 		.ascii	"vt_func\000"
 3799      756E6300 
 3800              	.LASF168:
 3801 0965 64696572 		.ascii	"dier\000"
 3801      00
 3802              		.ident	"GCC: (GNU Tools for ARM Embedded Processors) 4.9.3 20150529 (release) [ARM/embedded-4_9-br
ARM GAS  /var/folders/m4/4md61f0s1_g0rzfghffqnxvr0000gn/T//ccD1WRxm.s 			page 75


DEFINED SYMBOLS
                            *ABS*:0000000000000000 pwm_lld.c
/var/folders/m4/4md61f0s1_g0rzfghffqnxvr0000gn/T//ccD1WRxm.s:21     .text.pwm_lld_init:0000000000000000 $t
/var/folders/m4/4md61f0s1_g0rzfghffqnxvr0000gn/T//ccD1WRxm.s:27     .text.pwm_lld_init:0000000000000000 pwm_lld_init
/var/folders/m4/4md61f0s1_g0rzfghffqnxvr0000gn/T//ccD1WRxm.s:55     .text.pwm_lld_init:0000000000000014 $d
/var/folders/m4/4md61f0s1_g0rzfghffqnxvr0000gn/T//ccD1WRxm.s:61     .text.pwm_lld_start:0000000000000000 $t
/var/folders/m4/4md61f0s1_g0rzfghffqnxvr0000gn/T//ccD1WRxm.s:67     .text.pwm_lld_start:0000000000000000 pwm_lld_start
/var/folders/m4/4md61f0s1_g0rzfghffqnxvr0000gn/T//ccD1WRxm.s:261    .text.pwm_lld_start:00000000000000d8 $d
/var/folders/m4/4md61f0s1_g0rzfghffqnxvr0000gn/T//ccD1WRxm.s:268    .text.pwm_lld_stop:0000000000000000 $t
/var/folders/m4/4md61f0s1_g0rzfghffqnxvr0000gn/T//ccD1WRxm.s:274    .text.pwm_lld_stop:0000000000000000 pwm_lld_stop
/var/folders/m4/4md61f0s1_g0rzfghffqnxvr0000gn/T//ccD1WRxm.s:323    .text.pwm_lld_stop:000000000000002c $d
/var/folders/m4/4md61f0s1_g0rzfghffqnxvr0000gn/T//ccD1WRxm.s:329    .text.pwm_lld_enable_channel:0000000000000000 $t
/var/folders/m4/4md61f0s1_g0rzfghffqnxvr0000gn/T//ccD1WRxm.s:335    .text.pwm_lld_enable_channel:0000000000000000 pwm_lld_enable_channel
/var/folders/m4/4md61f0s1_g0rzfghffqnxvr0000gn/T//ccD1WRxm.s:354    .text.pwm_lld_disable_channel:0000000000000000 $t
/var/folders/m4/4md61f0s1_g0rzfghffqnxvr0000gn/T//ccD1WRxm.s:360    .text.pwm_lld_disable_channel:0000000000000000 pwm_lld_disable_channel
/var/folders/m4/4md61f0s1_g0rzfghffqnxvr0000gn/T//ccD1WRxm.s:386    .text.pwm_lld_enable_periodic_notification:0000000000000000 $t
/var/folders/m4/4md61f0s1_g0rzfghffqnxvr0000gn/T//ccD1WRxm.s:392    .text.pwm_lld_enable_periodic_notification:0000000000000000 pwm_lld_enable_periodic_notification
/var/folders/m4/4md61f0s1_g0rzfghffqnxvr0000gn/T//ccD1WRxm.s:421    .text.pwm_lld_disable_periodic_notification:0000000000000000 $t
/var/folders/m4/4md61f0s1_g0rzfghffqnxvr0000gn/T//ccD1WRxm.s:427    .text.pwm_lld_disable_periodic_notification:0000000000000000 pwm_lld_disable_periodic_notification
/var/folders/m4/4md61f0s1_g0rzfghffqnxvr0000gn/T//ccD1WRxm.s:445    .text.pwm_lld_enable_channel_notification:0000000000000000 $t
/var/folders/m4/4md61f0s1_g0rzfghffqnxvr0000gn/T//ccD1WRxm.s:451    .text.pwm_lld_enable_channel_notification:0000000000000000 pwm_lld_enable_channel_notification
/var/folders/m4/4md61f0s1_g0rzfghffqnxvr0000gn/T//ccD1WRxm.s:486    .text.pwm_lld_disable_channel_notification:0000000000000000 $t
/var/folders/m4/4md61f0s1_g0rzfghffqnxvr0000gn/T//ccD1WRxm.s:492    .text.pwm_lld_disable_channel_notification:0000000000000000 pwm_lld_disable_channel_notification
/var/folders/m4/4md61f0s1_g0rzfghffqnxvr0000gn/T//ccD1WRxm.s:513    .text.pwm_lld_serve_interrupt:0000000000000000 $t
/var/folders/m4/4md61f0s1_g0rzfghffqnxvr0000gn/T//ccD1WRxm.s:519    .text.pwm_lld_serve_interrupt:0000000000000000 pwm_lld_serve_interrupt
/var/folders/m4/4md61f0s1_g0rzfghffqnxvr0000gn/T//ccD1WRxm.s:629    .text.Vector108:0000000000000000 $t
/var/folders/m4/4md61f0s1_g0rzfghffqnxvr0000gn/T//ccD1WRxm.s:635    .text.Vector108:0000000000000000 Vector108
/var/folders/m4/4md61f0s1_g0rzfghffqnxvr0000gn/T//ccD1WRxm.s:660    .text.Vector108:0000000000000010 $d
/var/folders/m4/4md61f0s1_g0rzfghffqnxvr0000gn/T//ccD1WRxm.s:670    .bss.PWMD5:0000000000000000 PWMD5
/var/folders/m4/4md61f0s1_g0rzfghffqnxvr0000gn/T//ccD1WRxm.s:666    .bss.PWMD5:0000000000000000 $d
                     .debug_frame:0000000000000010 $d

UNDEFINED SYMBOLS
pwmObjectInit
nvicEnableVector
nvicDisableVector
_port_irq_epilogue
