ARM GAS  /var/folders/m4/4md61f0s1_g0rzfghffqnxvr0000gn/T//ccuRQs4E.s 			page 1


   1              		.syntax unified
   2              		.cpu cortex-m4
   3              		.eabi_attribute 27, 1
   4              		.eabi_attribute 28, 1
   5              		.fpu fpv4-sp-d16
   6              		.eabi_attribute 20, 1
   7              		.eabi_attribute 21, 1
   8              		.eabi_attribute 23, 3
   9              		.eabi_attribute 24, 1
  10              		.eabi_attribute 25, 1
  11              		.eabi_attribute 26, 1
  12              		.eabi_attribute 30, 2
  13              		.eabi_attribute 34, 1
  14              		.eabi_attribute 18, 4
  15              		.thumb
  16              		.file	"pwm_lld.c"
  17              		.text
  18              	.Ltext0:
  19              		.cfi_sections	.debug_frame
  20              		.section	.text.pwm_lld_init,"ax",%progbits
  21              		.align	2
  22              		.p2align 4,,15
  23              		.global	pwm_lld_init
  24              		.thumb
  25              		.thumb_func
  26              		.type	pwm_lld_init, %function
  27              	pwm_lld_init:
  28              	.LFB270:
  29              		.file 1 "ChibiOS_16.1.4/os/hal/ports/STM32/LLD/TIMv1/pwm_lld.c"
  30              		.loc 1 307 0
  31              		.cfi_startproc
  32              		@ args = 0, pretend = 0, frame = 0
  33              		@ frame_needed = 0, uses_anonymous_args = 0
  34 0000 70B5     		push	{r4, r5, r6, lr}
  35              		.cfi_def_cfa_offset 16
  36              		.cfi_offset 4, -16
  37              		.cfi_offset 5, -12
  38              		.cfi_offset 6, -8
  39              		.cfi_offset 14, -4
  40              		.loc 1 318 0
  41 0002 084D     		ldr	r5, .L3
  42              		.loc 1 332 0
  43 0004 084C     		ldr	r4, .L3+4
  44              		.loc 1 318 0
  45 0006 2846     		mov	r0, r5
  46 0008 FFF7FEFF 		bl	pwmObjectInit
  47              	.LVL0:
  48              		.loc 1 319 0
  49 000c 0426     		movs	r6, #4
  50              		.loc 1 320 0
  51 000e 4FF08043 		mov	r3, #1073741824
  52              		.loc 1 332 0
  53 0012 2046     		mov	r0, r4
  54              		.loc 1 320 0
  55 0014 AB61     		str	r3, [r5, #24]
  56              		.loc 1 319 0
  57 0016 2E74     		strb	r6, [r5, #16]
ARM GAS  /var/folders/m4/4md61f0s1_g0rzfghffqnxvr0000gn/T//ccuRQs4E.s 			page 2


  58              		.loc 1 332 0
  59 0018 FFF7FEFF 		bl	pwmObjectInit
  60              	.LVL1:
  61              		.loc 1 334 0
  62 001c 034B     		ldr	r3, .L3+8
  63              		.loc 1 333 0
  64 001e 2674     		strb	r6, [r4, #16]
  65              		.loc 1 334 0
  66 0020 A361     		str	r3, [r4, #24]
  67 0022 70BD     		pop	{r4, r5, r6, pc}
  68              	.L4:
  69              		.align	2
  70              	.L3:
  71 0024 00000000 		.word	.LANCHOR0
  72 0028 00000000 		.word	.LANCHOR1
  73 002c 00080040 		.word	1073743872
  74              		.cfi_endproc
  75              	.LFE270:
  76              		.size	pwm_lld_init, .-pwm_lld_init
  77              		.section	.text.pwm_lld_start,"ax",%progbits
  78              		.align	2
  79              		.p2align 4,,15
  80              		.global	pwm_lld_start
  81              		.thumb
  82              		.thumb_func
  83              		.type	pwm_lld_start, %function
  84              	pwm_lld_start:
  85              	.LFB271:
  86              		.loc 1 368 0
  87              		.cfi_startproc
  88              		@ args = 0, pretend = 0, frame = 0
  89              		@ frame_needed = 0, uses_anonymous_args = 0
  90              	.LVL2:
  91 0000 F8B5     		push	{r3, r4, r5, r6, r7, lr}
  92              		.cfi_def_cfa_offset 24
  93              		.cfi_offset 3, -24
  94              		.cfi_offset 4, -20
  95              		.cfi_offset 5, -16
  96              		.cfi_offset 6, -12
  97              		.cfi_offset 7, -8
  98              		.cfi_offset 14, -4
  99              		.loc 1 372 0
 100 0002 0378     		ldrb	r3, [r0]	@ zero_extendqisi2
 101 0004 012B     		cmp	r3, #1
 102              		.loc 1 368 0
 103 0006 0446     		mov	r4, r0
 104              		.loc 1 372 0
 105 0008 4BD0     		beq	.L36
 106              		.loc 1 494 0
 107 000a 8369     		ldr	r3, [r0, #24]
 108 000c 0022     		movs	r2, #0
 109 000e 1A60     		str	r2, [r3]
 110              		.loc 1 495 0
 111 0010 5A63     		str	r2, [r3, #52]
 112              		.loc 1 496 0
 113 0012 9A63     		str	r2, [r3, #56]
 114              		.loc 1 497 0
ARM GAS  /var/folders/m4/4md61f0s1_g0rzfghffqnxvr0000gn/T//ccuRQs4E.s 			page 3


 115 0014 DA63     		str	r2, [r3, #60]
 116              		.loc 1 498 0
 117 0016 1A64     		str	r2, [r3, #64]
 118              		.loc 1 505 0
 119 0018 5A62     		str	r2, [r3, #36]
 120              	.LVL3:
 121              	.L9:
 122              		.loc 1 509 0
 123 001a 6168     		ldr	r1, [r4, #4]
 124              		.loc 1 514 0
 125 001c A568     		ldr	r5, [r4, #8]
 126              		.loc 1 519 0
 127 001e CA68     		ldr	r2, [r1, #12]
 128              		.loc 1 509 0
 129 0020 6069     		ldr	r0, [r4, #20]
 130 0022 0F68     		ldr	r7, [r1]
 131              		.loc 1 515 0
 132 0024 CE6A     		ldr	r6, [r1, #44]
 133              		.loc 1 509 0
 134 0026 B0FBF7F0 		udiv	r0, r0, r7
 135              		.loc 1 519 0
 136 002a 02F00F02 		and	r2, r2, #15
 137              		.loc 1 514 0
 138 002e 6C1E     		subs	r4, r5, #1
 139              	.LVL4:
 140              		.loc 1 509 0
 141 0030 0138     		subs	r0, r0, #1
 142              	.LVL5:
 143              		.loc 1 519 0
 144 0032 012A     		cmp	r2, #1
 145              		.loc 1 513 0
 146 0034 9862     		str	r0, [r3, #40]
 147              		.loc 1 514 0
 148 0036 DC62     		str	r4, [r3, #44]
 149              		.loc 1 515 0
 150 0038 5E60     		str	r6, [r3, #4]
 151              	.LVL6:
 152              		.loc 1 519 0
 153 003a 03D0     		beq	.L10
 154              		.loc 1 518 0
 155 003c 022A     		cmp	r2, #2
 156 003e 0CBF     		ite	eq
 157 0040 0322     		moveq	r2, #3
 158 0042 0022     		movne	r2, #0
 159              	.L10:
 160              	.LVL7:
 161              		.loc 1 527 0
 162 0044 4869     		ldr	r0, [r1, #20]
 163              	.LVL8:
 164 0046 00F00F00 		and	r0, r0, #15
 165 004a 0128     		cmp	r0, #1
 166 004c 26D0     		beq	.L14
 167 004e 0228     		cmp	r0, #2
 168 0050 22D0     		beq	.L37
 169              	.L13:
 170              		.loc 1 535 0
 171 0052 C869     		ldr	r0, [r1, #28]
ARM GAS  /var/folders/m4/4md61f0s1_g0rzfghffqnxvr0000gn/T//ccuRQs4E.s 			page 4


 172 0054 00F00F00 		and	r0, r0, #15
 173 0058 0128     		cmp	r0, #1
 174 005a 1AD0     		beq	.L17
 175 005c 0228     		cmp	r0, #2
 176 005e 16D0     		beq	.L38
 177              	.L16:
 178              		.loc 1 543 0
 179 0060 486A     		ldr	r0, [r1, #36]
 180 0062 00F00F00 		and	r0, r0, #15
 181 0066 0128     		cmp	r0, #1
 182 0068 03D0     		beq	.L20
 183 006a 0228     		cmp	r0, #2
 184 006c 03D1     		bne	.L19
 185              		.loc 1 545 0
 186 006e 42F40052 		orr	r2, r2, #8192
 187              	.LVL9:
 188              	.L20:
 189              		.loc 1 547 0
 190 0072 42F48052 		orr	r2, r2, #4096
 191              	.LVL10:
 192              	.L19:
 193              		.loc 1 591 0
 194 0076 096B     		ldr	r1, [r1, #48]
 195              		.loc 1 588 0
 196 0078 1A62     		str	r2, [r3, #32]
 197              		.loc 1 589 0
 198 007a 0124     		movs	r4, #1
 199              		.loc 1 591 0
 200 007c 21F0FF02 		bic	r2, r1, #255
 201              	.LVL11:
 202              		.loc 1 590 0
 203 0080 0020     		movs	r0, #0
 204              		.loc 1 601 0
 205 0082 8521     		movs	r1, #133
 206              		.loc 1 589 0
 207 0084 5C61     		str	r4, [r3, #20]
 208              	.LVL12:
 209              		.loc 1 590 0
 210 0086 1861     		str	r0, [r3, #16]
 211              		.loc 1 591 0
 212 0088 DA60     		str	r2, [r3, #12]
 213              		.loc 1 601 0
 214 008a 1960     		str	r1, [r3]
 215 008c F8BD     		pop	{r3, r4, r5, r6, r7, pc}
 216              	.LVL13:
 217              	.L38:
 218              		.loc 1 537 0
 219 008e 42F40072 		orr	r2, r2, #512
 220              	.LVL14:
 221              	.L17:
 222              		.loc 1 539 0
 223 0092 42F48072 		orr	r2, r2, #256
 224              	.LVL15:
 225 0096 E3E7     		b	.L16
 226              	.L37:
 227              		.loc 1 529 0
 228 0098 42F02002 		orr	r2, r2, #32
ARM GAS  /var/folders/m4/4md61f0s1_g0rzfghffqnxvr0000gn/T//ccuRQs4E.s 			page 5


 229              	.LVL16:
 230              	.L14:
 231              		.loc 1 531 0
 232 009c 42F01002 		orr	r2, r2, #16
 233              	.LVL17:
 234 00a0 D7E7     		b	.L13
 235              	.LVL18:
 236              	.L36:
 237              		.loc 1 391 0
 238 00a2 154B     		ldr	r3, .L41
 239 00a4 9842     		cmp	r0, r3
 240 00a6 08D0     		beq	.L39
 241              		.loc 1 421 0
 242 00a8 144B     		ldr	r3, .L41+4
 243 00aa 9842     		cmp	r0, r3
 244 00ac 17D0     		beq	.L40
 245              	.LVL19:
 246              	.L8:
 247              		.loc 1 483 0
 248 00ae A369     		ldr	r3, [r4, #24]
 249 00b0 46F66802 		movw	r2, #26728
 250 00b4 9A61     		str	r2, [r3, #24]
 251              		.loc 1 485 0
 252 00b6 DA61     		str	r2, [r3, #28]
 253 00b8 AFE7     		b	.L9
 254              	.LVL20:
 255              	.L39:
 256              		.loc 1 392 0
 257 00ba 114B     		ldr	r3, .L41+8
 258 00bc 1A6C     		ldr	r2, [r3, #64]
 259 00be 42F00102 		orr	r2, r2, #1
 260 00c2 1A64     		str	r2, [r3, #64]
 261              		.loc 1 393 0
 262 00c4 1A6A     		ldr	r2, [r3, #32]
 263 00c6 42F00102 		orr	r2, r2, #1
 264 00ca 0021     		movs	r1, #0
 265 00cc 1A62     		str	r2, [r3, #32]
 266              		.loc 1 395 0
 267 00ce 1C20     		movs	r0, #28
 268              	.LVL21:
 269              	.L34:
 270              		.loc 1 423 0
 271 00d0 1962     		str	r1, [r3, #32]
 272              		.loc 1 425 0
 273 00d2 0721     		movs	r1, #7
 274 00d4 FFF7FEFF 		bl	nvicEnableVector
 275              	.LVL22:
 276              		.loc 1 430 0
 277 00d8 0A4B     		ldr	r3, .L41+12
 278 00da 6361     		str	r3, [r4, #20]
 279 00dc E7E7     		b	.L8
 280              	.LVL23:
 281              	.L40:
 282              		.loc 1 422 0
 283 00de 084B     		ldr	r3, .L41+8
 284 00e0 1A6C     		ldr	r2, [r3, #64]
 285 00e2 42F00402 		orr	r2, r2, #4
ARM GAS  /var/folders/m4/4md61f0s1_g0rzfghffqnxvr0000gn/T//ccuRQs4E.s 			page 6


 286 00e6 1A64     		str	r2, [r3, #64]
 287              		.loc 1 423 0
 288 00e8 1A6A     		ldr	r2, [r3, #32]
 289 00ea 42F00402 		orr	r2, r2, #4
 290 00ee 0021     		movs	r1, #0
 291 00f0 1A62     		str	r2, [r3, #32]
 292              		.loc 1 425 0
 293 00f2 1E20     		movs	r0, #30
 294              	.LVL24:
 295 00f4 ECE7     		b	.L34
 296              	.L42:
 297 00f6 00BF     		.align	2
 298              	.L41:
 299 00f8 00000000 		.word	.LANCHOR0
 300 00fc 00000000 		.word	.LANCHOR1
 301 0100 00380240 		.word	1073887232
 302 0104 00BD0105 		.word	84000000
 303              		.cfi_endproc
 304              	.LFE271:
 305              		.size	pwm_lld_start, .-pwm_lld_start
 306              		.section	.text.pwm_lld_stop,"ax",%progbits
 307              		.align	2
 308              		.p2align 4,,15
 309              		.global	pwm_lld_stop
 310              		.thumb
 311              		.thumb_func
 312              		.type	pwm_lld_stop, %function
 313              	pwm_lld_stop:
 314              	.LFB272:
 315              		.loc 1 612 0
 316              		.cfi_startproc
 317              		@ args = 0, pretend = 0, frame = 0
 318              		@ frame_needed = 0, uses_anonymous_args = 0
 319              	.LVL25:
 320 0000 08B5     		push	{r3, lr}
 321              		.cfi_def_cfa_offset 8
 322              		.cfi_offset 3, -8
 323              		.cfi_offset 14, -4
 324              		.loc 1 615 0
 325 0002 0378     		ldrb	r3, [r0]	@ zero_extendqisi2
 326 0004 022B     		cmp	r3, #2
 327 0006 00D0     		beq	.L49
 328              	.LVL26:
 329              	.L43:
 330 0008 08BD     		pop	{r3, pc}
 331              	.LVL27:
 332              	.L49:
 333              		.loc 1 634 0
 334 000a 0E49     		ldr	r1, .L51
 335              		.loc 1 616 0
 336 000c 8369     		ldr	r3, [r0, #24]
 337 000e 0022     		movs	r2, #0
 338              		.loc 1 634 0
 339 0010 8842     		cmp	r0, r1
 340              		.loc 1 616 0
 341 0012 1A60     		str	r2, [r3]
 342              		.loc 1 617 0
ARM GAS  /var/folders/m4/4md61f0s1_g0rzfghffqnxvr0000gn/T//ccuRQs4E.s 			page 7


 343 0014 DA60     		str	r2, [r3, #12]
 344              		.loc 1 618 0
 345 0016 1A61     		str	r2, [r3, #16]
 346              		.loc 1 634 0
 347 0018 0BD0     		beq	.L50
 348              		.loc 1 652 0
 349 001a 0B4B     		ldr	r3, .L51+4
 350 001c 9842     		cmp	r0, r3
 351 001e F3D1     		bne	.L43
 352              		.loc 1 654 0
 353 0020 1E20     		movs	r0, #30
 354              	.LVL28:
 355 0022 FFF7FEFF 		bl	nvicDisableVector
 356              	.LVL29:
 357              		.loc 1 656 0
 358 0026 094A     		ldr	r2, .L51+8
 359 0028 136C     		ldr	r3, [r2, #64]
 360 002a 23F00403 		bic	r3, r3, #4
 361 002e 1364     		str	r3, [r2, #64]
 362 0030 EAE7     		b	.L43
 363              	.LVL30:
 364              	.L50:
 365              		.loc 1 636 0
 366 0032 1C20     		movs	r0, #28
 367              	.LVL31:
 368 0034 FFF7FEFF 		bl	nvicDisableVector
 369              	.LVL32:
 370              		.loc 1 638 0
 371 0038 044A     		ldr	r2, .L51+8
 372 003a 136C     		ldr	r3, [r2, #64]
 373 003c 23F00103 		bic	r3, r3, #1
 374 0040 1364     		str	r3, [r2, #64]
 375 0042 08BD     		pop	{r3, pc}
 376              	.L52:
 377              		.align	2
 378              	.L51:
 379 0044 00000000 		.word	.LANCHOR0
 380 0048 00000000 		.word	.LANCHOR1
 381 004c 00380240 		.word	1073887232
 382              		.cfi_endproc
 383              	.LFE272:
 384              		.size	pwm_lld_stop, .-pwm_lld_stop
 385              		.section	.text.pwm_lld_enable_channel,"ax",%progbits
 386              		.align	2
 387              		.p2align 4,,15
 388              		.global	pwm_lld_enable_channel
 389              		.thumb
 390              		.thumb_func
 391              		.type	pwm_lld_enable_channel, %function
 392              	pwm_lld_enable_channel:
 393              	.LFB273:
 394              		.loc 1 705 0
 395              		.cfi_startproc
 396              		@ args = 0, pretend = 0, frame = 0
 397              		@ frame_needed = 0, uses_anonymous_args = 0
 398              		@ link register save eliminated.
 399              	.LVL33:
ARM GAS  /var/folders/m4/4md61f0s1_g0rzfghffqnxvr0000gn/T//ccuRQs4E.s 			page 8


 400              		.loc 1 709 0
 401 0000 8369     		ldr	r3, [r0, #24]
 402 0002 0C31     		adds	r1, r1, #12
 403              	.LVL34:
 404 0004 03EB8103 		add	r3, r3, r1, lsl #2
 405 0008 5A60     		str	r2, [r3, #4]
 406 000a 7047     		bx	lr
 407              		.cfi_endproc
 408              	.LFE273:
 409              		.size	pwm_lld_enable_channel, .-pwm_lld_enable_channel
 410              		.section	.text.pwm_lld_disable_channel,"ax",%progbits
 411              		.align	2
 412              		.p2align 4,,15
 413              		.global	pwm_lld_disable_channel
 414              		.thumb
 415              		.thumb_func
 416              		.type	pwm_lld_disable_channel, %function
 417              	pwm_lld_disable_channel:
 418              	.LFB274:
 419              		.loc 1 730 0
 420              		.cfi_startproc
 421              		@ args = 0, pretend = 0, frame = 0
 422              		@ frame_needed = 0, uses_anonymous_args = 0
 423              		@ link register save eliminated.
 424              	.LVL35:
 425              		.loc 1 733 0
 426 0000 8369     		ldr	r3, [r0, #24]
 427 0002 01F10C02 		add	r2, r1, #12
 428 0006 03EB8202 		add	r2, r3, r2, lsl #2
 429 000a 0020     		movs	r0, #0
 430              	.LVL36:
 431 000c 5060     		str	r0, [r2, #4]
 432              		.loc 1 734 0
 433 000e D868     		ldr	r0, [r3, #12]
 434 0010 0222     		movs	r2, #2
 435 0012 8A40     		lsls	r2, r2, r1
 436 0014 20EA0202 		bic	r2, r0, r2
 437 0018 DA60     		str	r2, [r3, #12]
 438 001a 7047     		bx	lr
 439              		.cfi_endproc
 440              	.LFE274:
 441              		.size	pwm_lld_disable_channel, .-pwm_lld_disable_channel
 442              		.section	.text.pwm_lld_enable_periodic_notification,"ax",%progbits
 443              		.align	2
 444              		.p2align 4,,15
 445              		.global	pwm_lld_enable_periodic_notification
 446              		.thumb
 447              		.thumb_func
 448              		.type	pwm_lld_enable_periodic_notification, %function
 449              	pwm_lld_enable_periodic_notification:
 450              	.LFB275:
 451              		.loc 1 754 0
 452              		.cfi_startproc
 453              		@ args = 0, pretend = 0, frame = 0
 454              		@ frame_needed = 0, uses_anonymous_args = 0
 455              		@ link register save eliminated.
 456              	.LVL37:
ARM GAS  /var/folders/m4/4md61f0s1_g0rzfghffqnxvr0000gn/T//ccuRQs4E.s 			page 9


 457              		.loc 1 755 0
 458 0000 8369     		ldr	r3, [r0, #24]
 459 0002 DA68     		ldr	r2, [r3, #12]
 460              	.LVL38:
 461              		.loc 1 759 0
 462 0004 D107     		lsls	r1, r2, #31
 463 0006 06D4     		bmi	.L55
 464              		.loc 1 760 0
 465 0008 42F00102 		orr	r2, r2, #1
 466              	.LVL39:
 467 000c DA60     		str	r2, [r3, #12]
 468              		.loc 1 761 0
 469 000e 1A69     		ldr	r2, [r3, #16]
 470 0010 02F00102 		and	r2, r2, #1
 471 0014 1A61     		str	r2, [r3, #16]
 472              	.L55:
 473 0016 7047     		bx	lr
 474              		.cfi_endproc
 475              	.LFE275:
 476              		.size	pwm_lld_enable_periodic_notification, .-pwm_lld_enable_periodic_notification
 477              		.section	.text.pwm_lld_disable_periodic_notification,"ax",%progbits
 478              		.align	2
 479              		.p2align 4,,15
 480              		.global	pwm_lld_disable_periodic_notification
 481              		.thumb
 482              		.thumb_func
 483              		.type	pwm_lld_disable_periodic_notification, %function
 484              	pwm_lld_disable_periodic_notification:
 485              	.LFB276:
 486              		.loc 1 774 0
 487              		.cfi_startproc
 488              		@ args = 0, pretend = 0, frame = 0
 489              		@ frame_needed = 0, uses_anonymous_args = 0
 490              		@ link register save eliminated.
 491              	.LVL40:
 492              		.loc 1 776 0
 493 0000 8269     		ldr	r2, [r0, #24]
 494 0002 D368     		ldr	r3, [r2, #12]
 495 0004 23F00103 		bic	r3, r3, #1
 496 0008 D360     		str	r3, [r2, #12]
 497 000a 7047     		bx	lr
 498              		.cfi_endproc
 499              	.LFE276:
 500              		.size	pwm_lld_disable_periodic_notification, .-pwm_lld_disable_periodic_notification
 501              		.section	.text.pwm_lld_enable_channel_notification,"ax",%progbits
 502              		.align	2
 503              		.p2align 4,,15
 504              		.global	pwm_lld_enable_channel_notification
 505              		.thumb
 506              		.thumb_func
 507              		.type	pwm_lld_enable_channel_notification, %function
 508              	pwm_lld_enable_channel_notification:
 509              	.LFB277:
 510              		.loc 1 791 0
 511              		.cfi_startproc
 512              		@ args = 0, pretend = 0, frame = 0
 513              		@ frame_needed = 0, uses_anonymous_args = 0
ARM GAS  /var/folders/m4/4md61f0s1_g0rzfghffqnxvr0000gn/T//ccuRQs4E.s 			page 10


 514              		@ link register save eliminated.
 515              	.LVL41:
 516              		.loc 1 792 0
 517 0000 8069     		ldr	r0, [r0, #24]
 518              	.LVL42:
 519              		.loc 1 801 0
 520 0002 0223     		movs	r3, #2
 521              		.loc 1 792 0
 522 0004 C268     		ldr	r2, [r0, #12]
 523              	.LVL43:
 524              		.loc 1 801 0
 525 0006 8B40     		lsls	r3, r3, r1
 526 0008 1342     		tst	r3, r2
 527 000a 03D1     		bne	.L58
 528              		.loc 1 802 0
 529 000c 1A43     		orrs	r2, r2, r3
 530              	.LVL44:
 531              		.loc 1 803 0
 532 000e DB43     		mvns	r3, r3
 533              		.loc 1 802 0
 534 0010 C260     		str	r2, [r0, #12]
 535              		.loc 1 803 0
 536 0012 0361     		str	r3, [r0, #16]
 537              	.L58:
 538 0014 7047     		bx	lr
 539              		.cfi_endproc
 540              	.LFE277:
 541              		.size	pwm_lld_enable_channel_notification, .-pwm_lld_enable_channel_notification
 542 0016 00BF     		.section	.text.pwm_lld_disable_channel_notification,"ax",%progbits
 543              		.align	2
 544              		.p2align 4,,15
 545              		.global	pwm_lld_disable_channel_notification
 546              		.thumb
 547              		.thumb_func
 548              		.type	pwm_lld_disable_channel_notification, %function
 549              	pwm_lld_disable_channel_notification:
 550              	.LFB278:
 551              		.loc 1 819 0
 552              		.cfi_startproc
 553              		@ args = 0, pretend = 0, frame = 0
 554              		@ frame_needed = 0, uses_anonymous_args = 0
 555              		@ link register save eliminated.
 556              	.LVL45:
 557              		.loc 1 821 0
 558 0000 8069     		ldr	r0, [r0, #24]
 559              	.LVL46:
 560 0002 0222     		movs	r2, #2
 561 0004 C368     		ldr	r3, [r0, #12]
 562 0006 8A40     		lsls	r2, r2, r1
 563 0008 23EA0203 		bic	r3, r3, r2
 564 000c C360     		str	r3, [r0, #12]
 565 000e 7047     		bx	lr
 566              		.cfi_endproc
 567              	.LFE278:
 568              		.size	pwm_lld_disable_channel_notification, .-pwm_lld_disable_channel_notification
 569              		.section	.text.pwm_lld_serve_interrupt,"ax",%progbits
 570              		.align	2
ARM GAS  /var/folders/m4/4md61f0s1_g0rzfghffqnxvr0000gn/T//ccuRQs4E.s 			page 11


 571              		.p2align 4,,15
 572              		.global	pwm_lld_serve_interrupt
 573              		.thumb
 574              		.thumb_func
 575              		.type	pwm_lld_serve_interrupt, %function
 576              	pwm_lld_serve_interrupt:
 577              	.LFB279:
 578              		.loc 1 834 0
 579              		.cfi_startproc
 580              		@ args = 0, pretend = 0, frame = 0
 581              		@ frame_needed = 0, uses_anonymous_args = 0
 582              	.LVL47:
 583              		.loc 1 837 0
 584 0000 8369     		ldr	r3, [r0, #24]
 585              		.loc 1 834 0
 586 0002 70B5     		push	{r4, r5, r6, lr}
 587              		.cfi_def_cfa_offset 16
 588              		.cfi_offset 4, -16
 589              		.cfi_offset 5, -12
 590              		.cfi_offset 6, -8
 591              		.cfi_offset 14, -4
 592              		.loc 1 837 0
 593 0004 1A69     		ldr	r2, [r3, #16]
 594              	.LVL48:
 595              		.loc 1 838 0
 596 0006 DC68     		ldr	r4, [r3, #12]
 597 0008 1440     		ands	r4, r4, r2
 598              	.LVL49:
 599 000a E2B2     		uxtb	r2, r4
 600              		.loc 1 839 0
 601 000c D243     		mvns	r2, r2
 602              		.loc 1 840 0
 603 000e A607     		lsls	r6, r4, #30
 604              		.loc 1 834 0
 605 0010 0546     		mov	r5, r0
 606              		.loc 1 839 0
 607 0012 1A61     		str	r2, [r3, #16]
 608              		.loc 1 840 0
 609 0014 03D5     		bpl	.L62
 610              		.loc 1 841 0 discriminator 1
 611 0016 4368     		ldr	r3, [r0, #4]
 612 0018 1B69     		ldr	r3, [r3, #16]
 613              		.loc 1 840 0 discriminator 1
 614 001a 03B1     		cbz	r3, .L62
 615              		.loc 1 842 0
 616 001c 9847     		blx	r3
 617              	.LVL50:
 618              	.L62:
 619              		.loc 1 843 0
 620 001e 6007     		lsls	r0, r4, #29
 621 0020 04D5     		bpl	.L63
 622              		.loc 1 844 0 discriminator 1
 623 0022 6B68     		ldr	r3, [r5, #4]
 624 0024 9B69     		ldr	r3, [r3, #24]
 625              		.loc 1 843 0 discriminator 1
 626 0026 0BB1     		cbz	r3, .L63
 627              		.loc 1 845 0
ARM GAS  /var/folders/m4/4md61f0s1_g0rzfghffqnxvr0000gn/T//ccuRQs4E.s 			page 12


 628 0028 2846     		mov	r0, r5
 629 002a 9847     		blx	r3
 630              	.LVL51:
 631              	.L63:
 632              		.loc 1 846 0
 633 002c 2107     		lsls	r1, r4, #28
 634 002e 04D5     		bpl	.L64
 635              		.loc 1 847 0 discriminator 1
 636 0030 6B68     		ldr	r3, [r5, #4]
 637 0032 1B6A     		ldr	r3, [r3, #32]
 638              		.loc 1 846 0 discriminator 1
 639 0034 0BB1     		cbz	r3, .L64
 640              		.loc 1 848 0
 641 0036 2846     		mov	r0, r5
 642 0038 9847     		blx	r3
 643              	.LVL52:
 644              	.L64:
 645              		.loc 1 849 0
 646 003a E206     		lsls	r2, r4, #27
 647 003c 04D5     		bpl	.L65
 648              		.loc 1 850 0 discriminator 1
 649 003e 6B68     		ldr	r3, [r5, #4]
 650 0040 9B6A     		ldr	r3, [r3, #40]
 651              		.loc 1 849 0 discriminator 1
 652 0042 0BB1     		cbz	r3, .L65
 653              		.loc 1 851 0
 654 0044 2846     		mov	r0, r5
 655 0046 9847     		blx	r3
 656              	.LVL53:
 657              	.L65:
 658              		.loc 1 852 0
 659 0048 E307     		lsls	r3, r4, #31
 660 004a 06D5     		bpl	.L61
 661              		.loc 1 852 0 is_stmt 0 discriminator 1
 662 004c 6B68     		ldr	r3, [r5, #4]
 663 004e 9B68     		ldr	r3, [r3, #8]
 664 0050 1BB1     		cbz	r3, .L61
 665              		.loc 1 853 0 is_stmt 1
 666 0052 2846     		mov	r0, r5
 667              		.loc 1 854 0
 668 0054 BDE87040 		pop	{r4, r5, r6, lr}
 669              		.cfi_remember_state
 670              		.cfi_restore 14
 671              		.cfi_restore 6
 672              		.cfi_restore 5
 673              		.cfi_restore 4
 674              		.cfi_def_cfa_offset 0
 675              	.LVL54:
 676              		.loc 1 853 0
 677 0058 1847     		bx	r3	@ indirect register sibling call
 678              	.LVL55:
 679              	.L61:
 680              		.cfi_restore_state
 681 005a 70BD     		pop	{r4, r5, r6, pc}
 682              		.cfi_endproc
 683              	.LFE279:
 684              		.size	pwm_lld_serve_interrupt, .-pwm_lld_serve_interrupt
ARM GAS  /var/folders/m4/4md61f0s1_g0rzfghffqnxvr0000gn/T//ccuRQs4E.s 			page 13


 685              		.section	.text.VectorB0,"ax",%progbits
 686              		.align	2
 687              		.p2align 4,,15
 688              		.global	VectorB0
 689              		.thumb
 690              		.thumb_func
 691              		.type	VectorB0, %function
 692              	VectorB0:
 693              	.LFB268:
 694              		.loc 1 159 0
 695              		.cfi_startproc
 696              		@ args = 0, pretend = 0, frame = 0
 697              		@ frame_needed = 0, uses_anonymous_args = 0
 698 0000 08B5     		push	{r3, lr}
 699              		.cfi_def_cfa_offset 8
 700              		.cfi_offset 3, -8
 701              		.cfi_offset 14, -4
 702              		.loc 1 163 0
 703 0002 0348     		ldr	r0, .L100
 704 0004 FFF7FEFF 		bl	pwm_lld_serve_interrupt
 705              	.LVL56:
 706              		.loc 1 166 0
 707 0008 BDE80840 		pop	{r3, lr}
 708              		.cfi_restore 14
 709              		.cfi_restore 3
 710              		.cfi_def_cfa_offset 0
 711              		.loc 1 165 0
 712 000c FFF7FEBF 		b	_port_irq_epilogue
 713              	.LVL57:
 714              	.L101:
 715              		.align	2
 716              	.L100:
 717 0010 00000000 		.word	.LANCHOR0
 718              		.cfi_endproc
 719              	.LFE268:
 720              		.size	VectorB0, .-VectorB0
 721              		.section	.text.VectorB8,"ax",%progbits
 722              		.align	2
 723              		.p2align 4,,15
 724              		.global	VectorB8
 725              		.thumb
 726              		.thumb_func
 727              		.type	VectorB8, %function
 728              	VectorB8:
 729              	.LFB269:
 730              		.loc 1 201 0
 731              		.cfi_startproc
 732              		@ args = 0, pretend = 0, frame = 0
 733              		@ frame_needed = 0, uses_anonymous_args = 0
 734 0000 08B5     		push	{r3, lr}
 735              		.cfi_def_cfa_offset 8
 736              		.cfi_offset 3, -8
 737              		.cfi_offset 14, -4
 738              		.loc 1 205 0
 739 0002 0348     		ldr	r0, .L104
 740 0004 FFF7FEFF 		bl	pwm_lld_serve_interrupt
 741              	.LVL58:
ARM GAS  /var/folders/m4/4md61f0s1_g0rzfghffqnxvr0000gn/T//ccuRQs4E.s 			page 14


 742              		.loc 1 208 0
 743 0008 BDE80840 		pop	{r3, lr}
 744              		.cfi_restore 14
 745              		.cfi_restore 3
 746              		.cfi_def_cfa_offset 0
 747              		.loc 1 207 0
 748 000c FFF7FEBF 		b	_port_irq_epilogue
 749              	.LVL59:
 750              	.L105:
 751              		.align	2
 752              	.L104:
 753 0010 00000000 		.word	.LANCHOR1
 754              		.cfi_endproc
 755              	.LFE269:
 756              		.size	VectorB8, .-VectorB8
 757              		.global	PWMD4
 758              		.global	PWMD2
 759              		.section	.bss.PWMD2,"aw",%nobits
 760              		.align	2
 761              		.set	.LANCHOR0,. + 0
 762              		.type	PWMD2, %object
 763              		.size	PWMD2, 28
 764              	PWMD2:
 765 0000 00000000 		.space	28
 765      00000000 
 765      00000000 
 765      00000000 
 765      00000000 
 766              		.section	.bss.PWMD4,"aw",%nobits
 767              		.align	2
 768              		.set	.LANCHOR1,. + 0
 769              		.type	PWMD4, %object
 770              		.size	PWMD4, 28
 771              	PWMD4:
 772 0000 00000000 		.space	28
 772      00000000 
 772      00000000 
 772      00000000 
 772      00000000 
 773              		.text
 774              	.Letext0:
 775              		.file 2 "/usr/local/Cellar/gcc-arm-none-eabi-49/20150609/lib/gcc/arm-none-eabi/4.9.3/include/stdde
 776              		.file 3 "/usr/local/Cellar/gcc-arm-none-eabi-49/20150609/arm-none-eabi/include/machine/_default_ty
 777              		.file 4 "/usr/local/Cellar/gcc-arm-none-eabi-49/20150609/arm-none-eabi/include/sys/_stdint.h"
 778              		.file 5 "ChibiOS_16.1.4/os/rt/ports/ARMCMx/compilers/GCC/chtypes.h"
 779              		.file 6 "ChibiOS_16.1.4/os/rt/include/chsystypes.h"
 780              		.file 7 "ChibiOS_16.1.4/os/rt/include/chschd.h"
 781              		.file 8 "ChibiOS_16.1.4/os/ext/CMSIS/ST/STM32F4xx/stm32f446xx.h"
 782              		.file 9 "ChibiOS_16.1.4/os/rt/ports/ARMCMx/chcore.h"
 783              		.file 10 "ChibiOS_16.1.4/os/rt/ports/ARMCMx/chcore_v7m.h"
 784              		.file 11 "ChibiOS_16.1.4/os/rt/include/chtm.h"
 785              		.file 12 "ChibiOS_16.1.4/os/rt/include/chsem.h"
 786              		.file 13 "ChibiOS_16.1.4/os/rt/include/chmtx.h"
 787              		.file 14 "ChibiOS_16.1.4/os/hal/include/pwm.h"
 788              		.file 15 "ChibiOS_16.1.4/os/hal/ports/STM32/LLD/TIMv1/pwm_lld.h"
 789              		.file 16 "ChibiOS_16.1.4/os/hal/ports/STM32/LLD/TIMv1/stm32_tim.h"
 790              		.file 17 "ChibiOS_16.1.4/os/ext/CMSIS/include/core_cm4.h"
ARM GAS  /var/folders/m4/4md61f0s1_g0rzfghffqnxvr0000gn/T//ccuRQs4E.s 			page 15


 791              		.file 18 "ChibiOS_16.1.4/os/hal/ports/common/ARMCMx/nvic.h"