ARM GAS  /var/folders/m4/4md61f0s1_g0rzfghffqnxvr0000gn/T//ccI5syky.s 			page 1


   1              		.syntax unified
   2              		.cpu cortex-m4
   3              		.eabi_attribute 27, 1
   4              		.eabi_attribute 28, 1
   5              		.fpu fpv4-sp-d16
   6              		.eabi_attribute 20, 1
   7              		.eabi_attribute 21, 1
   8              		.eabi_attribute 23, 3
   9              		.eabi_attribute 24, 1
  10              		.eabi_attribute 25, 1
  11              		.eabi_attribute 26, 1
  12              		.eabi_attribute 30, 2
  13              		.eabi_attribute 34, 1
  14              		.eabi_attribute 18, 4
  15              		.thumb
  16              		.file	"serial_usb.c"
  17              		.text
  18              	.Ltext0:
  19              		.cfi_sections	.debug_frame
  20              		.section	.text.obnotify,"ax",%progbits
  21              		.align	2
  22              		.p2align 4,,15
  23              		.thumb
  24              		.thumb_func
  25              		.type	obnotify, %function
  26              	obnotify:
  27              	.LFB277:
  28              		.file 1 "ChibiOS_16.1.4/os/hal/src/serial_usb.c"
  29              		.loc 1 168 0
  30              		.cfi_startproc
  31              		@ args = 0, pretend = 0, frame = 8
  32              		@ frame_needed = 0, uses_anonymous_args = 0
  33              	.LVL0:
  34 0000 10B5     		push	{r4, lr}
  35              		.cfi_def_cfa_offset 8
  36              		.cfi_offset 4, -8
  37              		.cfi_offset 14, -4
  38              		.loc 1 170 0
  39 0002 046B     		ldr	r4, [r0, #48]
  40              	.LVL1:
  41              		.loc 1 174 0
  42 0004 D4F88424 		ldr	r2, [r4, #1156]
  43 0008 1368     		ldr	r3, [r2]
  44 000a 1978     		ldrb	r1, [r3]	@ zero_extendqisi2
  45 000c 0429     		cmp	r1, #4
  46              		.loc 1 168 0
  47 000e 82B0     		sub	sp, sp, #8
  48              		.cfi_def_cfa_offset 16
  49              		.loc 1 174 0
  50 0010 01D0     		beq	.L12
  51              	.LVL2:
  52              	.L1:
  53              		.loc 1 188 0
  54 0012 02B0     		add	sp, sp, #8
  55              		.cfi_remember_state
  56              		.cfi_def_cfa_offset 8
  57              		@ sp needed
ARM GAS  /var/folders/m4/4md61f0s1_g0rzfghffqnxvr0000gn/T//ccI5syky.s 			page 2


  58 0014 10BD     		pop	{r4, pc}
  59              	.LVL3:
  60              	.L12:
  61              		.cfi_restore_state
  62              		.loc 1 174 0 discriminator 1
  63 0016 217A     		ldrb	r1, [r4, #8]	@ zero_extendqisi2
  64 0018 0229     		cmp	r1, #2
  65 001a FAD1     		bne	.L1
  66              		.loc 1 180 0
  67 001c 1179     		ldrb	r1, [r2, #4]	@ zero_extendqisi2
  68 001e 1A89     		ldrh	r2, [r3, #8]
  69 0020 0123     		movs	r3, #1
  70 0022 8B40     		lsls	r3, r3, r1
  71 0024 1342     		tst	r3, r2
  72 0026 F4D1     		bne	.L1
  73              	.LBB124:
  74              		.loc 1 182 0
  75 0028 04F14000 		add	r0, r4, #64
  76              	.LVL4:
  77 002c 01A9     		add	r1, sp, #4
  78 002e FFF7FEFF 		bl	obqGetFullBufferI
  79              	.LVL5:
  80              		.loc 1 183 0
  81 0032 0246     		mov	r2, r0
  82 0034 0028     		cmp	r0, #0
  83 0036 ECD0     		beq	.L1
  84              		.loc 1 185 0
  85 0038 D4F88414 		ldr	r1, [r4, #1156]
  86 003c 019B     		ldr	r3, [sp, #4]
  87 003e 0868     		ldr	r0, [r1]
  88              	.LVL6:
  89 0040 0979     		ldrb	r1, [r1, #4]	@ zero_extendqisi2
  90 0042 FFF7FEFF 		bl	usbStartTransmitI
  91              	.LVL7:
  92 0046 E4E7     		b	.L1
  93              	.LBE124:
  94              		.cfi_endproc
  95              	.LFE277:
  96              		.size	obnotify, .-obnotify
  97              		.section	.text.ibnotify,"ax",%progbits
  98              		.align	2
  99              		.p2align 4,,15
 100              		.thumb
 101              		.thumb_func
 102              		.type	ibnotify, %function
 103              	ibnotify:
 104              	.LFB276:
 105              		.loc 1 141 0
 106              		.cfi_startproc
 107              		@ args = 0, pretend = 0, frame = 0
 108              		@ frame_needed = 0, uses_anonymous_args = 0
 109              	.LVL8:
 110 0000 10B5     		push	{r4, lr}
 111              		.cfi_def_cfa_offset 8
 112              		.cfi_offset 4, -8
 113              		.cfi_offset 14, -4
 114              		.loc 1 142 0
ARM GAS  /var/folders/m4/4md61f0s1_g0rzfghffqnxvr0000gn/T//ccI5syky.s 			page 3


 115 0002 046B     		ldr	r4, [r0, #48]
 116              	.LVL9:
 117              		.loc 1 146 0
 118 0004 D4F88424 		ldr	r2, [r4, #1156]
 119 0008 1368     		ldr	r3, [r2]
 120 000a 1978     		ldrb	r1, [r3]	@ zero_extendqisi2
 121 000c 0429     		cmp	r1, #4
 122 000e 00D0     		beq	.L21
 123              	.LVL10:
 124              	.L13:
 125 0010 10BD     		pop	{r4, pc}
 126              	.LVL11:
 127              	.L21:
 128              		.loc 1 146 0 is_stmt 0 discriminator 1
 129 0012 217A     		ldrb	r1, [r4, #8]	@ zero_extendqisi2
 130 0014 0229     		cmp	r1, #2
 131 0016 FBD1     		bne	.L13
 132              		.loc 1 152 0 is_stmt 1
 133 0018 5179     		ldrb	r1, [r2, #5]	@ zero_extendqisi2
 134 001a 5A89     		ldrh	r2, [r3, #10]
 135 001c 0123     		movs	r3, #1
 136 001e 8B40     		lsls	r3, r3, r1
 137 0020 1342     		tst	r3, r2
 138 0022 F5D1     		bne	.L13
 139              	.LBB125:
 140              		.loc 1 154 0
 141 0024 04F10C00 		add	r0, r4, #12
 142              	.LVL12:
 143 0028 FFF7FEFF 		bl	ibqGetEmptyBufferI
 144              	.LVL13:
 145              		.loc 1 155 0
 146 002c 0028     		cmp	r0, #0
 147 002e EFD0     		beq	.L13
 148              		.loc 1 157 0
 149 0030 D4F88434 		ldr	r3, [r4, #1156]
 150 0034 0246     		mov	r2, r0
 151 0036 5979     		ldrb	r1, [r3, #5]	@ zero_extendqisi2
 152 0038 1868     		ldr	r0, [r3]
 153              	.LVL14:
 154              	.LBE125:
 155              		.loc 1 161 0
 156 003a BDE81040 		pop	{r4, lr}
 157              		.cfi_restore 14
 158              		.cfi_restore 4
 159              		.cfi_def_cfa_offset 0
 160              	.LVL15:
 161              	.LBB126:
 162              		.loc 1 157 0
 163 003e 4FF48073 		mov	r3, #256
 164 0042 FFF7FEBF 		b	usbStartReceiveI
 165              	.LVL16:
 166              	.LBE126:
 167              		.cfi_endproc
 168              	.LFE276:
 169              		.size	ibnotify, .-ibnotify
 170 0046 00BF     		.section	.text.readt,"ax",%progbits
 171              		.align	2
ARM GAS  /var/folders/m4/4md61f0s1_g0rzfghffqnxvr0000gn/T//ccI5syky.s 			page 4


 172              		.p2align 4,,15
 173              		.thumb
 174              		.thumb_func
 175              		.type	readt, %function
 176              	readt:
 177              	.LFB275:
 178              		.loc 1 122 0
 179              		.cfi_startproc
 180              		@ args = 0, pretend = 0, frame = 0
 181              		@ frame_needed = 0, uses_anonymous_args = 0
 182              		@ link register save eliminated.
 183              	.LVL17:
 184 0000 10B4     		push	{r4}
 185              		.cfi_def_cfa_offset 4
 186              		.cfi_offset 4, -4
 187              		.loc 1 124 0
 188 0002 D0F88444 		ldr	r4, [r0, #1156]
 189 0006 2468     		ldr	r4, [r4]
 190 0008 2478     		ldrb	r4, [r4]	@ zero_extendqisi2
 191 000a 042C     		cmp	r4, #4
 192 000c 03D0     		beq	.L25
 193              		.loc 1 129 0
 194 000e 0020     		movs	r0, #0
 195              	.LVL18:
 196 0010 5DF8044B 		ldr	r4, [sp], #4
 197              		.cfi_remember_state
 198              		.cfi_restore 4
 199              		.cfi_def_cfa_offset 0
 200 0014 7047     		bx	lr
 201              	.LVL19:
 202              	.L25:
 203              		.cfi_restore_state
 204              		.loc 1 128 0
 205 0016 0C30     		adds	r0, r0, #12
 206              	.LVL20:
 207              		.loc 1 129 0
 208 0018 5DF8044B 		ldr	r4, [sp], #4
 209              		.cfi_restore 4
 210              		.cfi_def_cfa_offset 0
 211              		.loc 1 128 0
 212 001c FFF7FEBF 		b	ibqReadTimeout
 213              	.LVL21:
 214              		.cfi_endproc
 215              	.LFE275:
 216              		.size	readt, .-readt
 217              		.section	.text.writet,"ax",%progbits
 218              		.align	2
 219              		.p2align 4,,15
 220              		.thumb
 221              		.thumb_func
 222              		.type	writet, %function
 223              	writet:
 224              	.LFB274:
 225              		.loc 1 113 0
 226              		.cfi_startproc
 227              		@ args = 0, pretend = 0, frame = 0
 228              		@ frame_needed = 0, uses_anonymous_args = 0
ARM GAS  /var/folders/m4/4md61f0s1_g0rzfghffqnxvr0000gn/T//ccI5syky.s 			page 5


 229              		@ link register save eliminated.
 230              	.LVL22:
 231 0000 10B4     		push	{r4}
 232              		.cfi_def_cfa_offset 4
 233              		.cfi_offset 4, -4
 234              		.loc 1 115 0
 235 0002 D0F88444 		ldr	r4, [r0, #1156]
 236 0006 2468     		ldr	r4, [r4]
 237 0008 2478     		ldrb	r4, [r4]	@ zero_extendqisi2
 238 000a 042C     		cmp	r4, #4
 239 000c 03D0     		beq	.L29
 240              		.loc 1 120 0
 241 000e 0020     		movs	r0, #0
 242              	.LVL23:
 243 0010 5DF8044B 		ldr	r4, [sp], #4
 244              		.cfi_remember_state
 245              		.cfi_restore 4
 246              		.cfi_def_cfa_offset 0
 247 0014 7047     		bx	lr
 248              	.LVL24:
 249              	.L29:
 250              		.cfi_restore_state
 251              		.loc 1 119 0
 252 0016 4030     		adds	r0, r0, #64
 253              	.LVL25:
 254              		.loc 1 120 0
 255 0018 5DF8044B 		ldr	r4, [sp], #4
 256              		.cfi_restore 4
 257              		.cfi_def_cfa_offset 0
 258              		.loc 1 119 0
 259 001c FFF7FEBF 		b	obqWriteTimeout
 260              	.LVL26:
 261              		.cfi_endproc
 262              	.LFE274:
 263              		.size	writet, .-writet
 264              		.section	.text.gett,"ax",%progbits
 265              		.align	2
 266              		.p2align 4,,15
 267              		.thumb
 268              		.thumb_func
 269              		.type	gett, %function
 270              	gett:
 271              	.LFB273:
 272              		.loc 1 104 0
 273              		.cfi_startproc
 274              		@ args = 0, pretend = 0, frame = 0
 275              		@ frame_needed = 0, uses_anonymous_args = 0
 276              		@ link register save eliminated.
 277              	.LVL27:
 278              		.loc 1 106 0
 279 0000 D0F88434 		ldr	r3, [r0, #1156]
 280 0004 1B68     		ldr	r3, [r3]
 281 0006 1B78     		ldrb	r3, [r3]	@ zero_extendqisi2
 282 0008 042B     		cmp	r3, #4
 283 000a 02D1     		bne	.L31
 284              		.loc 1 110 0
 285 000c 0C30     		adds	r0, r0, #12
ARM GAS  /var/folders/m4/4md61f0s1_g0rzfghffqnxvr0000gn/T//ccI5syky.s 			page 6


 286              	.LVL28:
 287 000e FFF7FEBF 		b	ibqGetTimeout
 288              	.LVL29:
 289              	.L31:
 290              		.loc 1 111 0
 291 0012 6FF00100 		mvn	r0, #1
 292              	.LVL30:
 293 0016 7047     		bx	lr
 294              		.cfi_endproc
 295              	.LFE273:
 296              		.size	gett, .-gett
 297              		.section	.text.get,"ax",%progbits
 298              		.align	2
 299              		.p2align 4,,15
 300              		.thumb
 301              		.thumb_func
 302              		.type	get, %function
 303              	get:
 304              	.LFB271:
 305              		.loc 1 86 0
 306              		.cfi_startproc
 307              		@ args = 0, pretend = 0, frame = 0
 308              		@ frame_needed = 0, uses_anonymous_args = 0
 309              		@ link register save eliminated.
 310              	.LVL31:
 311              		.loc 1 88 0
 312 0000 D0F88434 		ldr	r3, [r0, #1156]
 313 0004 1B68     		ldr	r3, [r3]
 314 0006 1B78     		ldrb	r3, [r3]	@ zero_extendqisi2
 315 0008 042B     		cmp	r3, #4
 316 000a 04D1     		bne	.L33
 317              		.loc 1 92 0
 318 000c 0C30     		adds	r0, r0, #12
 319              	.LVL32:
 320 000e 4FF0FF31 		mov	r1, #-1
 321 0012 FFF7FEBF 		b	ibqGetTimeout
 322              	.LVL33:
 323              	.L33:
 324              		.loc 1 93 0
 325 0016 6FF00100 		mvn	r0, #1
 326              	.LVL34:
 327 001a 7047     		bx	lr
 328              		.cfi_endproc
 329              	.LFE271:
 330              		.size	get, .-get
 331              		.section	.text.putt,"ax",%progbits
 332              		.align	2
 333              		.p2align 4,,15
 334              		.thumb
 335              		.thumb_func
 336              		.type	putt, %function
 337              	putt:
 338              	.LFB272:
 339              		.loc 1 95 0
 340              		.cfi_startproc
 341              		@ args = 0, pretend = 0, frame = 0
 342              		@ frame_needed = 0, uses_anonymous_args = 0
ARM GAS  /var/folders/m4/4md61f0s1_g0rzfghffqnxvr0000gn/T//ccI5syky.s 			page 7


 343              		@ link register save eliminated.
 344              	.LVL35:
 345              		.loc 1 97 0
 346 0000 D0F88434 		ldr	r3, [r0, #1156]
 347 0004 1B68     		ldr	r3, [r3]
 348 0006 1B78     		ldrb	r3, [r3]	@ zero_extendqisi2
 349 0008 042B     		cmp	r3, #4
 350 000a 02D1     		bne	.L35
 351              		.loc 1 101 0
 352 000c 4030     		adds	r0, r0, #64
 353              	.LVL36:
 354 000e FFF7FEBF 		b	obqPutTimeout
 355              	.LVL37:
 356              	.L35:
 357              		.loc 1 102 0
 358 0012 6FF00100 		mvn	r0, #1
 359              	.LVL38:
 360 0016 7047     		bx	lr
 361              		.cfi_endproc
 362              	.LFE272:
 363              		.size	putt, .-putt
 364              		.section	.text.put,"ax",%progbits
 365              		.align	2
 366              		.p2align 4,,15
 367              		.thumb
 368              		.thumb_func
 369              		.type	put, %function
 370              	put:
 371              	.LFB270:
 372              		.loc 1 77 0
 373              		.cfi_startproc
 374              		@ args = 0, pretend = 0, frame = 0
 375              		@ frame_needed = 0, uses_anonymous_args = 0
 376              		@ link register save eliminated.
 377              	.LVL39:
 378              		.loc 1 79 0
 379 0000 D0F88434 		ldr	r3, [r0, #1156]
 380 0004 1B68     		ldr	r3, [r3]
 381 0006 1B78     		ldrb	r3, [r3]	@ zero_extendqisi2
 382 0008 042B     		cmp	r3, #4
 383 000a 04D1     		bne	.L37
 384              		.loc 1 83 0
 385 000c 4030     		adds	r0, r0, #64
 386              	.LVL40:
 387 000e 4FF0FF32 		mov	r2, #-1
 388 0012 FFF7FEBF 		b	obqPutTimeout
 389              	.LVL41:
 390              	.L37:
 391              		.loc 1 84 0
 392 0016 6FF00100 		mvn	r0, #1
 393              	.LVL42:
 394 001a 7047     		bx	lr
 395              		.cfi_endproc
 396              	.LFE270:
 397              		.size	put, .-put
 398              		.section	.text.read,"ax",%progbits
 399              		.align	2
ARM GAS  /var/folders/m4/4md61f0s1_g0rzfghffqnxvr0000gn/T//ccI5syky.s 			page 8


 400              		.p2align 4,,15
 401              		.thumb
 402              		.thumb_func
 403              		.type	read, %function
 404              	read:
 405              	.LFB269:
 406              		.loc 1 67 0
 407              		.cfi_startproc
 408              		@ args = 0, pretend = 0, frame = 0
 409              		@ frame_needed = 0, uses_anonymous_args = 0
 410              		@ link register save eliminated.
 411              	.LVL43:
 412              		.loc 1 69 0
 413 0000 D0F88434 		ldr	r3, [r0, #1156]
 414 0004 1B68     		ldr	r3, [r3]
 415 0006 1B78     		ldrb	r3, [r3]	@ zero_extendqisi2
 416 0008 042B     		cmp	r3, #4
 417 000a 01D0     		beq	.L40
 418              		.loc 1 75 0
 419 000c 0020     		movs	r0, #0
 420              	.LVL44:
 421 000e 7047     		bx	lr
 422              	.LVL45:
 423              	.L40:
 424              	.LBB129:
 425              	.LBB130:
 426              		.loc 1 73 0
 427 0010 0C30     		adds	r0, r0, #12
 428              	.LVL46:
 429 0012 4FF0FF33 		mov	r3, #-1
 430 0016 FFF7FEBF 		b	ibqReadTimeout
 431              	.LVL47:
 432              	.LBE130:
 433              	.LBE129:
 434              		.cfi_endproc
 435              	.LFE269:
 436              		.size	read, .-read
 437 001a 00BF     		.section	.text.write,"ax",%progbits
 438              		.align	2
 439              		.p2align 4,,15
 440              		.thumb
 441              		.thumb_func
 442              		.type	write, %function
 443              	write:
 444              	.LFB268:
 445              		.loc 1 57 0
 446              		.cfi_startproc
 447              		@ args = 0, pretend = 0, frame = 0
 448              		@ frame_needed = 0, uses_anonymous_args = 0
 449              		@ link register save eliminated.
 450              	.LVL48:
 451              		.loc 1 59 0
 452 0000 D0F88434 		ldr	r3, [r0, #1156]
 453 0004 1B68     		ldr	r3, [r3]
 454 0006 1B78     		ldrb	r3, [r3]	@ zero_extendqisi2
 455 0008 042B     		cmp	r3, #4
 456 000a 01D0     		beq	.L43
ARM GAS  /var/folders/m4/4md61f0s1_g0rzfghffqnxvr0000gn/T//ccI5syky.s 			page 9


 457              		.loc 1 65 0
 458 000c 0020     		movs	r0, #0
 459              	.LVL49:
 460 000e 7047     		bx	lr
 461              	.LVL50:
 462              	.L43:
 463              	.LBB133:
 464              	.LBB134:
 465              		.loc 1 63 0
 466 0010 4030     		adds	r0, r0, #64
 467              	.LVL51:
 468 0012 4FF0FF33 		mov	r3, #-1
 469 0016 FFF7FEBF 		b	obqWriteTimeout
 470              	.LVL52:
 471              	.LBE134:
 472              	.LBE133:
 473              		.cfi_endproc
 474              	.LFE268:
 475              		.size	write, .-write
 476 001a 00BF     		.section	.text.sduInit,"ax",%progbits
 477              		.align	2
 478              		.p2align 4,,15
 479              		.global	sduInit
 480              		.thumb
 481              		.thumb_func
 482              		.type	sduInit, %function
 483              	sduInit:
 484              	.LFB278:
 485              		.loc 1 201 0
 486              		.cfi_startproc
 487              		@ args = 0, pretend = 0, frame = 0
 488              		@ frame_needed = 0, uses_anonymous_args = 0
 489              		@ link register save eliminated.
 490 0000 7047     		bx	lr
 491              		.cfi_endproc
 492              	.LFE278:
 493              		.size	sduInit, .-sduInit
 494 0002 00BF     		.section	.text.sduObjectInit,"ax",%progbits
 495              		.align	2
 496              		.p2align 4,,15
 497              		.global	sduObjectInit
 498              		.thumb
 499              		.thumb_func
 500              		.type	sduObjectInit, %function
 501              	sduObjectInit:
 502              	.LFB279:
 503              		.loc 1 213 0
 504              		.cfi_startproc
 505              		@ args = 0, pretend = 0, frame = 0
 506              		@ frame_needed = 0, uses_anonymous_args = 0
 507              	.LVL53:
 508              		.loc 1 213 0
 509 0000 10B5     		push	{r4, lr}
 510              		.cfi_def_cfa_offset 8
 511              		.cfi_offset 4, -8
 512              		.cfi_offset 14, -4
 513              		.loc 1 215 0
ARM GAS  /var/folders/m4/4md61f0s1_g0rzfghffqnxvr0000gn/T//ccI5syky.s 			page 10


 514 0002 0346     		mov	r3, r0
 515 0004 104A     		ldr	r2, .L47
 516 0006 43F8042B 		str	r2, [r3], #4
 517              	.LVL54:
 518              		.loc 1 213 0
 519 000a 82B0     		sub	sp, sp, #8
 520              		.cfi_def_cfa_offset 16
 521              		.loc 1 213 0
 522 000c 0446     		mov	r4, r0
 523              		.loc 1 217 0
 524 000e 0121     		movs	r1, #1
 525              		.loc 1 218 0
 526 0010 0E4A     		ldr	r2, .L47+4
 527 0012 0190     		str	r0, [sp, #4]
 528              	.LBB135:
 529              	.LBB136:
 530              	.LBB137:
 531              		.file 2 "ChibiOS_16.1.4/os/rt/include/chevents.h"
 532              		.loc 2 172 0
 533 0014 4360     		str	r3, [r0, #4]
 534              	.LBE137:
 535              	.LBE136:
 536              	.LBE135:
 537              		.loc 1 217 0
 538 0016 0172     		strb	r1, [r0, #8]
 539              		.loc 1 218 0
 540 0018 0223     		movs	r3, #2
 541              	.LVL55:
 542 001a 04F17401 		add	r1, r4, #116
 543 001e 0092     		str	r2, [sp]
 544 0020 0C30     		adds	r0, r0, #12
 545              	.LVL56:
 546 0022 4FF48072 		mov	r2, #256
 547 0026 FFF7FEFF 		bl	ibqObjectInit
 548              	.LVL57:
 549              		.loc 1 221 0
 550 002a 094B     		ldr	r3, .L47+8
 551 002c 0093     		str	r3, [sp]
 552 002e 0194     		str	r4, [sp, #4]
 553 0030 04F14000 		add	r0, r4, #64
 554 0034 04F51F71 		add	r1, r4, #636
 555 0038 4FF48072 		mov	r2, #256
 556 003c 0223     		movs	r3, #2
 557 003e FFF7FEFF 		bl	obqObjectInit
 558              	.LVL58:
 559              		.loc 1 224 0
 560 0042 02B0     		add	sp, sp, #8
 561              		.cfi_def_cfa_offset 8
 562              		@ sp needed
 563 0044 10BD     		pop	{r4, pc}
 564              	.LVL59:
 565              	.L48:
 566 0046 00BF     		.align	2
 567              	.L47:
 568 0048 00000000 		.word	.LANCHOR0
 569 004c 00000000 		.word	ibnotify
 570 0050 00000000 		.word	obnotify
ARM GAS  /var/folders/m4/4md61f0s1_g0rzfghffqnxvr0000gn/T//ccI5syky.s 			page 11


 571              		.cfi_endproc
 572              	.LFE279:
 573              		.size	sduObjectInit, .-sduObjectInit
 574              		.section	.text.sduStart,"ax",%progbits
 575              		.align	2
 576              		.p2align 4,,15
 577              		.global	sduStart
 578              		.thumb
 579              		.thumb_func
 580              		.type	sduStart, %function
 581              	sduStart:
 582              	.LFB280:
 583              		.loc 1 234 0
 584              		.cfi_startproc
 585              		@ args = 0, pretend = 0, frame = 0
 586              		@ frame_needed = 0, uses_anonymous_args = 0
 587              		@ link register save eliminated.
 588              	.LVL60:
 589              		.loc 1 235 0
 590 0000 0B68     		ldr	r3, [r1]
 591              	.LVL61:
 592              	.LBB138:
 593              	.LBB139:
 594              	.LBB140:
 595              	.LBB141:
 596              	.LBB142:
 597              		.file 3 "ChibiOS_16.1.4/os/ext/CMSIS/include/core_cmFunc.h"
 598              		.loc 3 548 0
 599 0002 2022     		movs	r2, #32
 600              	@ 548 "ChibiOS_16.1.4/os/ext/CMSIS/include/core_cmFunc.h" 1
 601 0004 82F31188 		MSR basepri, r2
 602              	@ 0 "" 2
 603              		.thumb
 604              	.LBE142:
 605              	.LBE141:
 606              	.LBE140:
 607              	.LBE139:
 608              	.LBE138:
 609              		.loc 1 242 0
 610 0008 0A79     		ldrb	r2, [r1, #4]	@ zero_extendqisi2
 611 000a 03EB8202 		add	r2, r3, r2, lsl #2
 612 000e 9061     		str	r0, [r2, #24]
 613              		.loc 1 243 0
 614 0010 4A79     		ldrb	r2, [r1, #5]	@ zero_extendqisi2
 615 0012 0932     		adds	r2, r2, #9
 616 0014 43F82200 		str	r0, [r3, r2, lsl #2]
 617              		.loc 1 244 0
 618 0018 8A79     		ldrb	r2, [r1, #6]	@ zero_extendqisi2
 619 001a 12B1     		cbz	r2, .L50
 620              		.loc 1 245 0
 621 001c 03EB8203 		add	r3, r3, r2, lsl #2
 622              	.LVL62:
 623 0020 9861     		str	r0, [r3, #24]
 624              	.L50:
 625              		.loc 1 248 0
 626 0022 0223     		movs	r3, #2
 627 0024 0372     		strb	r3, [r0, #8]
ARM GAS  /var/folders/m4/4md61f0s1_g0rzfghffqnxvr0000gn/T//ccI5syky.s 			page 12


 628              	.LVL63:
 629              		.loc 1 247 0
 630 0026 C0F88414 		str	r1, [r0, #1156]
 631              	.LBB143:
 632              	.LBB144:
 633              	.LBB145:
 634              	.LBB146:
 635              	.LBB147:
 636              	.LBB148:
 637              		.loc 3 548 0
 638 002a 0023     		movs	r3, #0
 639              	@ 548 "ChibiOS_16.1.4/os/ext/CMSIS/include/core_cmFunc.h" 1
 640 002c 83F31188 		MSR basepri, r3
 641              	@ 0 "" 2
 642              		.thumb
 643 0030 7047     		bx	lr
 644              	.LBE148:
 645              	.LBE147:
 646              	.LBE146:
 647              	.LBE145:
 648              	.LBE144:
 649              	.LBE143:
 650              		.cfi_endproc
 651              	.LFE280:
 652              		.size	sduStart, .-sduStart
 653 0032 00BF     		.section	.text.sduDisconnectI,"ax",%progbits
 654              		.align	2
 655              		.p2align 4,,15
 656              		.global	sduDisconnectI
 657              		.thumb
 658              		.thumb_func
 659              		.type	sduDisconnectI, %function
 660              	sduDisconnectI:
 661              	.LFB282:
 662              		.loc 1 293 0
 663              		.cfi_startproc
 664              		@ args = 0, pretend = 0, frame = 0
 665              		@ frame_needed = 0, uses_anonymous_args = 0
 666              	.LVL64:
 667 0000 10B5     		push	{r4, lr}
 668              		.cfi_def_cfa_offset 8
 669              		.cfi_offset 4, -8
 670              		.cfi_offset 14, -4
 671              	.LBB149:
 672              	.LBB150:
 673              		.file 4 "ChibiOS_16.1.4/os/hal/osal/rt/osal.h"
 674              		.loc 4 844 0
 675 0002 0221     		movs	r1, #2
 676              	.LBE150:
 677              	.LBE149:
 678              		.loc 1 293 0
 679 0004 0446     		mov	r4, r0
 680              	.LVL65:
 681              	.LBB152:
 682              	.LBB151:
 683              		.loc 4 844 0
 684 0006 0430     		adds	r0, r0, #4
ARM GAS  /var/folders/m4/4md61f0s1_g0rzfghffqnxvr0000gn/T//ccI5syky.s 			page 13


 685              	.LVL66:
 686 0008 FFF7FEFF 		bl	chEvtBroadcastFlagsI
 687              	.LVL67:
 688              	.LBE151:
 689              	.LBE152:
 690              		.loc 1 297 0
 691 000c 04F10C00 		add	r0, r4, #12
 692 0010 FFF7FEFF 		bl	ibqResetI
 693              	.LVL68:
 694              		.loc 1 298 0
 695 0014 04F14000 		add	r0, r4, #64
 696              		.loc 1 299 0
 697 0018 BDE81040 		pop	{r4, lr}
 698              		.cfi_restore 14
 699              		.cfi_restore 4
 700              		.cfi_def_cfa_offset 0
 701              	.LVL69:
 702              		.loc 1 298 0
 703 001c FFF7FEBF 		b	obqResetI
 704              	.LVL70:
 705              		.cfi_endproc
 706              	.LFE282:
 707              		.size	sduDisconnectI, .-sduDisconnectI
 708              		.section	.text.sduStop,"ax",%progbits
 709              		.align	2
 710              		.p2align 4,,15
 711              		.global	sduStop
 712              		.thumb
 713              		.thumb_func
 714              		.type	sduStop, %function
 715              	sduStop:
 716              	.LFB281:
 717              		.loc 1 261 0
 718              		.cfi_startproc
 719              		@ args = 0, pretend = 0, frame = 0
 720              		@ frame_needed = 0, uses_anonymous_args = 0
 721              	.LVL71:
 722              		.loc 1 262 0
 723 0000 D0F88424 		ldr	r2, [r0, #1156]
 724              		.loc 1 261 0
 725 0004 10B5     		push	{r4, lr}
 726              		.cfi_def_cfa_offset 8
 727              		.cfi_offset 4, -8
 728              		.cfi_offset 14, -4
 729              	.LBB153:
 730              	.LBB154:
 731              	.LBB155:
 732              	.LBB156:
 733              	.LBB157:
 734              		.loc 3 548 0
 735 0006 2023     		movs	r3, #32
 736              	.LBE157:
 737              	.LBE156:
 738              	.LBE155:
 739              	.LBE154:
 740              	.LBE153:
 741              		.loc 1 262 0
ARM GAS  /var/folders/m4/4md61f0s1_g0rzfghffqnxvr0000gn/T//ccI5syky.s 			page 14


 742 0008 1268     		ldr	r2, [r2]
 743              	.LVL72:
 744              	.LBB162:
 745              	.LBB161:
 746              	.LBB160:
 747              	.LBB159:
 748              	.LBB158:
 749              		.loc 3 548 0
 750              	@ 548 "ChibiOS_16.1.4/os/ext/CMSIS/include/core_cmFunc.h" 1
 751 000a 83F31188 		MSR basepri, r3
 752              	@ 0 "" 2
 753              		.thumb
 754              	.LBE158:
 755              	.LBE159:
 756              	.LBE160:
 757              	.LBE161:
 758              	.LBE162:
 759              		.loc 1 271 0
 760 000e D0F88414 		ldr	r1, [r0, #1156]
 761 0012 0B79     		ldrb	r3, [r1, #4]	@ zero_extendqisi2
 762 0014 0533     		adds	r3, r3, #5
 763 0016 02EB8303 		add	r3, r2, r3, lsl #2
 764 001a 0024     		movs	r4, #0
 765 001c 5C60     		str	r4, [r3, #4]
 766              		.loc 1 272 0
 767 001e 4B79     		ldrb	r3, [r1, #5]	@ zero_extendqisi2
 768 0020 0933     		adds	r3, r3, #9
 769 0022 42F82340 		str	r4, [r2, r3, lsl #2]
 770              		.loc 1 273 0
 771 0026 8B79     		ldrb	r3, [r1, #6]	@ zero_extendqisi2
 772 0028 1BB1     		cbz	r3, .L57
 773              		.loc 1 274 0
 774 002a 0533     		adds	r3, r3, #5
 775 002c 02EB8302 		add	r2, r2, r3, lsl #2
 776              	.LVL73:
 777 0030 5460     		str	r4, [r2, #4]
 778              	.L57:
 779              		.loc 1 276 0
 780 0032 0123     		movs	r3, #1
 781 0034 0372     		strb	r3, [r0, #8]
 782              		.loc 1 279 0
 783 0036 FFF7FEFF 		bl	sduDisconnectI
 784              	.LVL74:
 785              	.LBB163:
 786              	.LBB164:
 787              		.loc 4 600 0
 788 003a FFF7FEFF 		bl	chSchRescheduleS
 789              	.LVL75:
 790              	.LBE164:
 791              	.LBE163:
 792              	.LBB165:
 793              	.LBB166:
 794              	.LBB167:
 795              	.LBB168:
 796              	.LBB169:
 797              	.LBB170:
 798              		.loc 3 548 0
ARM GAS  /var/folders/m4/4md61f0s1_g0rzfghffqnxvr0000gn/T//ccI5syky.s 			page 15


 799 003e 0023     		movs	r3, #0
 800              	@ 548 "ChibiOS_16.1.4/os/ext/CMSIS/include/core_cmFunc.h" 1
 801 0040 83F31188 		MSR basepri, r3
 802              	@ 0 "" 2
 803              		.thumb
 804 0044 10BD     		pop	{r4, pc}
 805              	.LBE170:
 806              	.LBE169:
 807              	.LBE168:
 808              	.LBE167:
 809              	.LBE166:
 810              	.LBE165:
 811              		.cfi_endproc
 812              	.LFE281:
 813              		.size	sduStop, .-sduStop
 814 0046 00BF     		.section	.text.sduConfigureHookI,"ax",%progbits
 815              		.align	2
 816              		.p2align 4,,15
 817              		.global	sduConfigureHookI
 818              		.thumb
 819              		.thumb_func
 820              		.type	sduConfigureHookI, %function
 821              	sduConfigureHookI:
 822              	.LFB283:
 823              		.loc 1 308 0
 824              		.cfi_startproc
 825              		@ args = 0, pretend = 0, frame = 0
 826              		@ frame_needed = 0, uses_anonymous_args = 0
 827              	.LVL76:
 828 0000 70B5     		push	{r4, r5, r6, lr}
 829              		.cfi_def_cfa_offset 16
 830              		.cfi_offset 4, -16
 831              		.cfi_offset 5, -12
 832              		.cfi_offset 6, -8
 833              		.cfi_offset 14, -4
 834              		.loc 1 311 0
 835 0002 00F10C05 		add	r5, r0, #12
 836              		.loc 1 308 0
 837 0006 0446     		mov	r4, r0
 838              		.loc 1 311 0
 839 0008 2846     		mov	r0, r5
 840              	.LVL77:
 841 000a FFF7FEFF 		bl	ibqResetI
 842              	.LVL78:
 843              		.loc 1 312 0
 844 000e 04F14000 		add	r0, r4, #64
 845 0012 FFF7FEFF 		bl	obqResetI
 846              	.LVL79:
 847              	.LBB171:
 848              	.LBB172:
 849              		.loc 4 844 0
 850 0016 201D     		adds	r0, r4, #4
 851              	.LVL80:
 852 0018 0121     		movs	r1, #1
 853 001a FFF7FEFF 		bl	chEvtBroadcastFlagsI
 854              	.LVL81:
 855              	.LBE172:
ARM GAS  /var/folders/m4/4md61f0s1_g0rzfghffqnxvr0000gn/T//ccI5syky.s 			page 16


 856              	.LBE171:
 857              		.loc 1 316 0
 858 001e 2846     		mov	r0, r5
 859 0020 FFF7FEFF 		bl	ibqGetEmptyBufferI
 860              	.LVL82:
 861              		.loc 1 320 0
 862 0024 D4F88434 		ldr	r3, [r4, #1156]
 863              		.loc 1 316 0
 864 0028 0246     		mov	r2, r0
 865              	.LVL83:
 866              		.loc 1 320 0
 867 002a 5979     		ldrb	r1, [r3, #5]	@ zero_extendqisi2
 868 002c 1868     		ldr	r0, [r3]
 869              	.LVL84:
 870              		.loc 1 322 0
 871 002e BDE87040 		pop	{r4, r5, r6, lr}
 872              		.cfi_restore 14
 873              		.cfi_restore 6
 874              		.cfi_restore 5
 875              		.cfi_restore 4
 876              		.cfi_def_cfa_offset 0
 877              	.LVL85:
 878              		.loc 1 320 0
 879 0032 4FF48073 		mov	r3, #256
 880 0036 FFF7FEBF 		b	usbStartReceiveI
 881              	.LVL86:
 882              		.cfi_endproc
 883              	.LFE283:
 884              		.size	sduConfigureHookI, .-sduConfigureHookI
 885 003a 00BF     		.section	.text.sduRequestsHook,"ax",%progbits
 886              		.align	2
 887              		.p2align 4,,15
 888              		.global	sduRequestsHook
 889              		.thumb
 890              		.thumb_func
 891              		.type	sduRequestsHook, %function
 892              	sduRequestsHook:
 893              	.LFB284:
 894              		.loc 1 339 0
 895              		.cfi_startproc
 896              		@ args = 0, pretend = 0, frame = 0
 897              		@ frame_needed = 0, uses_anonymous_args = 0
 898              		@ link register save eliminated.
 899              	.LVL87:
 900              		.loc 1 341 0
 901 0000 90F84430 		ldrb	r3, [r0, #68]	@ zero_extendqisi2
 902 0004 03F06003 		and	r3, r3, #96
 903 0008 202B     		cmp	r3, #32
 904 000a 01D0     		beq	.L72
 905              	.L71:
 906              		.loc 1 354 0
 907 000c 0020     		movs	r0, #0
 908              	.LVL88:
 909              		.loc 1 358 0
 910 000e 7047     		bx	lr
 911              	.LVL89:
 912              	.L72:
ARM GAS  /var/folders/m4/4md61f0s1_g0rzfghffqnxvr0000gn/T//ccI5syky.s 			page 17


 913              		.loc 1 342 0
 914 0010 90F84530 		ldrb	r3, [r0, #69]	@ zero_extendqisi2
 915 0014 212B     		cmp	r3, #33
 916 0016 03D0     		beq	.L68
 917 0018 222B     		cmp	r3, #34
 918 001a 09D0     		beq	.L67
 919 001c 202B     		cmp	r3, #32
 920 001e F5D1     		bne	.L71
 921              	.L68:
 922              		.loc 1 347 0
 923 0020 064B     		ldr	r3, .L73
 924 0022 8363     		str	r3, [r0, #56]
 925 0024 0722     		movs	r2, #7
 926 0026 0023     		movs	r3, #0
 927 0028 C263     		str	r2, [r0, #60]
 928 002a 0364     		str	r3, [r0, #64]
 929              		.loc 1 348 0
 930 002c 0120     		movs	r0, #1
 931              	.LVL90:
 932 002e 7047     		bx	lr
 933              	.LVL91:
 934              	.L67:
 935              		.loc 1 351 0
 936 0030 0023     		movs	r3, #0
 937 0032 8363     		str	r3, [r0, #56]
 938 0034 C363     		str	r3, [r0, #60]
 939 0036 0364     		str	r3, [r0, #64]
 940              		.loc 1 352 0
 941 0038 0120     		movs	r0, #1
 942              	.LVL92:
 943 003a 7047     		bx	lr
 944              	.L74:
 945              		.align	2
 946              	.L73:
 947 003c 00000000 		.word	.LANCHOR1
 948              		.cfi_endproc
 949              	.LFE284:
 950              		.size	sduRequestsHook, .-sduRequestsHook
 951              		.section	.text.sduSOFHookI,"ax",%progbits
 952              		.align	2
 953              		.p2align 4,,15
 954              		.global	sduSOFHookI
 955              		.thumb
 956              		.thumb_func
 957              		.type	sduSOFHookI, %function
 958              	sduSOFHookI:
 959              	.LFB285:
 960              		.loc 1 369 0
 961              		.cfi_startproc
 962              		@ args = 0, pretend = 0, frame = 8
 963              		@ frame_needed = 0, uses_anonymous_args = 0
 964              	.LVL93:
 965              		.loc 1 373 0
 966 0000 D0F88424 		ldr	r2, [r0, #1156]
 967 0004 1368     		ldr	r3, [r2]
 968 0006 1978     		ldrb	r1, [r3]	@ zero_extendqisi2
 969 0008 0429     		cmp	r1, #4
ARM GAS  /var/folders/m4/4md61f0s1_g0rzfghffqnxvr0000gn/T//ccI5syky.s 			page 18


 970 000a 00D0     		beq	.L84
 971              	.L83:
 972 000c 7047     		bx	lr
 973              	.L84:
 974              		.loc 1 373 0 is_stmt 0 discriminator 1
 975 000e 017A     		ldrb	r1, [r0, #8]	@ zero_extendqisi2
 976 0010 0229     		cmp	r1, #2
 977 0012 FBD1     		bne	.L83
 978              		.loc 1 380 0 is_stmt 1
 979 0014 1179     		ldrb	r1, [r2, #4]	@ zero_extendqisi2
 980 0016 1A89     		ldrh	r2, [r3, #8]
 981 0018 0123     		movs	r3, #1
 982 001a 8B40     		lsls	r3, r3, r1
 983 001c 1342     		tst	r3, r2
 984 001e F5D1     		bne	.L83
 985              		.loc 1 369 0
 986 0020 30B5     		push	{r4, r5, lr}
 987              		.cfi_def_cfa_offset 12
 988              		.cfi_offset 4, -12
 989              		.cfi_offset 5, -8
 990              		.cfi_offset 14, -4
 991              		.loc 1 386 0
 992 0022 00F14005 		add	r5, r0, #64
 993              		.loc 1 369 0
 994 0026 83B0     		sub	sp, sp, #12
 995              		.cfi_def_cfa_offset 24
 996 0028 0446     		mov	r4, r0
 997              		.loc 1 386 0
 998 002a 2846     		mov	r0, r5
 999              	.LVL94:
 1000 002c FFF7FEFF 		bl	obqTryFlushI
 1001              	.LVL95:
 1002 0030 08B9     		cbnz	r0, .L85
 1003              	.L75:
 1004              		.loc 1 394 0
 1005 0032 03B0     		add	sp, sp, #12
 1006              		.cfi_remember_state
 1007              		.cfi_def_cfa_offset 12
 1008              		@ sp needed
 1009 0034 30BD     		pop	{r4, r5, pc}
 1010              	.LVL96:
 1011              	.L85:
 1012              		.cfi_restore_state
 1013              	.LBB173:
 1014              		.loc 1 388 0
 1015 0036 01A9     		add	r1, sp, #4
 1016 0038 2846     		mov	r0, r5
 1017 003a FFF7FEFF 		bl	obqGetFullBufferI
 1018              	.LVL97:
 1019              		.loc 1 392 0
 1020 003e D4F88414 		ldr	r1, [r4, #1156]
 1021 0042 019B     		ldr	r3, [sp, #4]
 1022              		.loc 1 388 0
 1023 0044 0246     		mov	r2, r0
 1024              	.LVL98:
 1025              		.loc 1 392 0
 1026 0046 0868     		ldr	r0, [r1]
ARM GAS  /var/folders/m4/4md61f0s1_g0rzfghffqnxvr0000gn/T//ccI5syky.s 			page 19


 1027              	.LVL99:
 1028 0048 0979     		ldrb	r1, [r1, #4]	@ zero_extendqisi2
 1029 004a FFF7FEFF 		bl	usbStartTransmitI
 1030              	.LVL100:
 1031 004e F0E7     		b	.L75
 1032              	.LBE173:
 1033              		.cfi_endproc
 1034              	.LFE285:
 1035              		.size	sduSOFHookI, .-sduSOFHookI
 1036              		.section	.text.sduDataTransmitted,"ax",%progbits
 1037              		.align	2
 1038              		.p2align 4,,15
 1039              		.global	sduDataTransmitted
 1040              		.thumb
 1041              		.thumb_func
 1042              		.type	sduDataTransmitted, %function
 1043              	sduDataTransmitted:
 1044              	.LFB286:
 1045              		.loc 1 404 0
 1046              		.cfi_startproc
 1047              		@ args = 0, pretend = 0, frame = 8
 1048              		@ frame_needed = 0, uses_anonymous_args = 0
 1049              	.LVL101:
 1050 0000 F0B5     		push	{r4, r5, r6, r7, lr}
 1051              		.cfi_def_cfa_offset 20
 1052              		.cfi_offset 4, -20
 1053              		.cfi_offset 5, -16
 1054              		.cfi_offset 6, -12
 1055              		.cfi_offset 7, -8
 1056              		.cfi_offset 14, -4
 1057              		.loc 1 407 0
 1058 0002 00EB8103 		add	r3, r0, r1, lsl #2
 1059              		.loc 1 404 0
 1060 0006 83B0     		sub	sp, sp, #12
 1061              		.cfi_def_cfa_offset 32
 1062              		.loc 1 407 0
 1063 0008 9C69     		ldr	r4, [r3, #24]
 1064              	.LVL102:
 1065              		.loc 1 409 0
 1066 000a ECB1     		cbz	r4, .L86
 1067              	.LVL103:
 1068 000c 0E46     		mov	r6, r1
 1069 000e 0546     		mov	r5, r0
 1070              	.LBB174:
 1071              	.LBB175:
 1072              	.LBB176:
 1073              	.LBB177:
 1074              	.LBB178:
 1075              	.LBB179:
 1076              		.loc 3 548 0
 1077 0010 2023     		movs	r3, #32
 1078              	@ 548 "ChibiOS_16.1.4/os/ext/CMSIS/include/core_cmFunc.h" 1
 1079 0012 83F31188 		MSR basepri, r3
 1080              	@ 0 "" 2
 1081              	.LVL104:
 1082              		.thumb
 1083 0016 00EB8107 		add	r7, r0, r1, lsl #2
ARM GAS  /var/folders/m4/4md61f0s1_g0rzfghffqnxvr0000gn/T//ccI5syky.s 			page 20


 1084              	.LBE179:
 1085              	.LBE178:
 1086              	.LBE177:
 1087              	.LBE176:
 1088              	.LBE175:
 1089              	.LBE174:
 1090              	.LBB180:
 1091              	.LBB181:
 1092              		.loc 4 844 0
 1093 001a 201D     		adds	r0, r4, #4
 1094              	.LVL105:
 1095 001c 0821     		movs	r1, #8
 1096              	.LVL106:
 1097 001e FFF7FEFF 		bl	chEvtBroadcastFlagsI
 1098              	.LVL107:
 1099              	.LBE181:
 1100              	.LBE180:
 1101              		.loc 1 419 0
 1102 0022 FB68     		ldr	r3, [r7, #12]
 1103 0024 5B69     		ldr	r3, [r3, #20]
 1104 0026 1B68     		ldr	r3, [r3]
 1105              		.loc 1 420 0
 1106 0028 4034     		adds	r4, r4, #64
 1107              	.LVL108:
 1108              		.loc 1 419 0
 1109 002a FBB9     		cbnz	r3, .L100
 1110              		.loc 1 424 0
 1111 002c 2046     		mov	r0, r4
 1112 002e 01A9     		add	r1, sp, #4
 1113 0030 FFF7FEFF 		bl	obqGetFullBufferI
 1114              	.LVL109:
 1115              		.loc 1 426 0
 1116 0034 0246     		mov	r2, r0
 1117 0036 48B1     		cbz	r0, .L90
 1118              	.L101:
 1119              		.loc 1 429 0
 1120 0038 2846     		mov	r0, r5
 1121              	.LVL110:
 1122 003a 3146     		mov	r1, r6
 1123 003c 019B     		ldr	r3, [sp, #4]
 1124 003e FFF7FEFF 		bl	usbStartTransmitI
 1125              	.LVL111:
 1126              	.L91:
 1127              	.LBB182:
 1128              	.LBB183:
 1129              	.LBB184:
 1130              	.LBB185:
 1131              	.LBB186:
 1132              	.LBB187:
 1133              		.loc 3 548 0
 1134 0042 0023     		movs	r3, #0
 1135              	@ 548 "ChibiOS_16.1.4/os/ext/CMSIS/include/core_cmFunc.h" 1
 1136 0044 83F31188 		MSR basepri, r3
 1137              	@ 0 "" 2
 1138              	.LVL112:
 1139              		.thumb
 1140              	.L86:
ARM GAS  /var/folders/m4/4md61f0s1_g0rzfghffqnxvr0000gn/T//ccI5syky.s 			page 21


 1141              	.LBE187:
 1142              	.LBE186:
 1143              	.LBE185:
 1144              	.LBE184:
 1145              	.LBE183:
 1146              	.LBE182:
 1147              		.loc 1 446 0
 1148 0048 03B0     		add	sp, sp, #12
 1149              		.cfi_remember_state
 1150              		.cfi_def_cfa_offset 20
 1151              		@ sp needed
 1152 004a F0BD     		pop	{r4, r5, r6, r7, pc}
 1153              	.LVL113:
 1154              	.L90:
 1155              		.cfi_restore_state
 1156              		.loc 1 431 0
 1157 004c FB68     		ldr	r3, [r7, #12]
 1158 004e 5A69     		ldr	r2, [r3, #20]
 1159 0050 1268     		ldr	r2, [r2]
 1160 0052 002A     		cmp	r2, #0
 1161 0054 F5D0     		beq	.L91
 1162              		.loc 1 433 0 discriminator 1
 1163 0056 1B8A     		ldrh	r3, [r3, #16]
 1164 0058 013B     		subs	r3, r3, #1
 1165              		.loc 1 431 0 discriminator 1
 1166 005a 1340     		ands	r3, r3, r2
 1167 005c F1D1     		bne	.L91
 1168              		.loc 1 438 0
 1169 005e 3146     		mov	r1, r6
 1170 0060 2846     		mov	r0, r5
 1171              	.LVL114:
 1172 0062 05F14402 		add	r2, r5, #68
 1173 0066 FFF7FEFF 		bl	usbStartTransmitI
 1174              	.LVL115:
 1175 006a EAE7     		b	.L91
 1176              	.L100:
 1177              		.loc 1 420 0
 1178 006c 2046     		mov	r0, r4
 1179 006e FFF7FEFF 		bl	obqReleaseEmptyBufferI
 1180              	.LVL116:
 1181              		.loc 1 424 0
 1182 0072 2046     		mov	r0, r4
 1183 0074 01A9     		add	r1, sp, #4
 1184 0076 FFF7FEFF 		bl	obqGetFullBufferI
 1185              	.LVL117:
 1186              		.loc 1 426 0
 1187 007a 0246     		mov	r2, r0
 1188 007c 0028     		cmp	r0, #0
 1189 007e DBD1     		bne	.L101
 1190 0080 E4E7     		b	.L90
 1191              		.cfi_endproc
 1192              	.LFE286:
 1193              		.size	sduDataTransmitted, .-sduDataTransmitted
 1194 0082 00BF     		.section	.text.sduDataReceived,"ax",%progbits
 1195              		.align	2
 1196              		.p2align 4,,15
 1197              		.global	sduDataReceived
ARM GAS  /var/folders/m4/4md61f0s1_g0rzfghffqnxvr0000gn/T//ccI5syky.s 			page 22


 1198              		.thumb
 1199              		.thumb_func
 1200              		.type	sduDataReceived, %function
 1201              	sduDataReceived:
 1202              	.LFB287:
 1203              		.loc 1 456 0
 1204              		.cfi_startproc
 1205              		@ args = 0, pretend = 0, frame = 0
 1206              		@ frame_needed = 0, uses_anonymous_args = 0
 1207              	.LVL118:
 1208              		.loc 1 458 0
 1209 0000 0931     		adds	r1, r1, #9
 1210              	.LVL119:
 1211              		.loc 1 456 0
 1212 0002 38B5     		push	{r3, r4, r5, lr}
 1213              		.cfi_def_cfa_offset 16
 1214              		.cfi_offset 3, -16
 1215              		.cfi_offset 4, -12
 1216              		.cfi_offset 5, -8
 1217              		.cfi_offset 14, -4
 1218              		.loc 1 458 0
 1219 0004 50F82140 		ldr	r4, [r0, r1, lsl #2]
 1220              	.LVL120:
 1221              		.loc 1 460 0
 1222 0008 24B3     		cbz	r4, .L102
 1223              	.LVL121:
 1224              	.LBB188:
 1225              	.LBB189:
 1226              	.LBB190:
 1227              	.LBB191:
 1228              	.LBB192:
 1229              	.LBB193:
 1230              		.loc 3 548 0
 1231 000a 2023     		movs	r3, #32
 1232              	@ 548 "ChibiOS_16.1.4/os/ext/CMSIS/include/core_cmFunc.h" 1
 1233 000c 83F31188 		MSR basepri, r3
 1234              	@ 0 "" 2
 1235              	.LVL122:
 1236              		.thumb
 1237              	.LBE193:
 1238              	.LBE192:
 1239              	.LBE191:
 1240              	.LBE190:
 1241              	.LBE189:
 1242              	.LBE188:
 1243              	.LBB194:
 1244              	.LBB195:
 1245              		.loc 4 844 0
 1246 0010 0421     		movs	r1, #4
 1247 0012 6018     		adds	r0, r4, r1
 1248              	.LVL123:
 1249 0014 FFF7FEFF 		bl	chEvtBroadcastFlagsI
 1250              	.LVL124:
 1251              	.LBE195:
 1252              	.LBE194:
 1253              		.loc 1 471 0
 1254 0018 D4F88424 		ldr	r2, [r4, #1156]
ARM GAS  /var/folders/m4/4md61f0s1_g0rzfghffqnxvr0000gn/T//ccI5syky.s 			page 23


 1255 001c 1368     		ldr	r3, [r2]
 1256 001e 5279     		ldrb	r2, [r2, #5]	@ zero_extendqisi2
 1257 0020 03EB8203 		add	r3, r3, r2, lsl #2
 1258              		.loc 1 470 0
 1259 0024 04F10C05 		add	r5, r4, #12
 1260              		.loc 1 471 0
 1261 0028 DB68     		ldr	r3, [r3, #12]
 1262              		.loc 1 470 0
 1263 002a 9B69     		ldr	r3, [r3, #24]
 1264 002c 2846     		mov	r0, r5
 1265 002e 5968     		ldr	r1, [r3, #4]
 1266 0030 FFF7FEFF 		bl	ibqPostFullBufferI
 1267              	.LVL125:
 1268              		.loc 1 477 0
 1269 0034 2846     		mov	r0, r5
 1270 0036 FFF7FEFF 		bl	ibqGetEmptyBufferI
 1271              	.LVL126:
 1272              		.loc 1 478 0
 1273 003a 40B1     		cbz	r0, .L104
 1274              		.loc 1 480 0
 1275 003c D4F88434 		ldr	r3, [r4, #1156]
 1276 0040 0246     		mov	r2, r0
 1277 0042 5979     		ldrb	r1, [r3, #5]	@ zero_extendqisi2
 1278 0044 1868     		ldr	r0, [r3]
 1279              	.LVL127:
 1280 0046 4FF48073 		mov	r3, #256
 1281 004a FFF7FEFF 		bl	usbStartReceiveI
 1282              	.LVL128:
 1283              	.L104:
 1284              	.LBB196:
 1285              	.LBB197:
 1286              	.LBB198:
 1287              	.LBB199:
 1288              	.LBB200:
 1289              	.LBB201:
 1290              		.loc 3 548 0
 1291 004e 0023     		movs	r3, #0
 1292              	@ 548 "ChibiOS_16.1.4/os/ext/CMSIS/include/core_cmFunc.h" 1
 1293 0050 83F31188 		MSR basepri, r3
 1294              	@ 0 "" 2
 1295              	.LVL129:
 1296              		.thumb
 1297              	.L102:
 1298 0054 38BD     		pop	{r3, r4, r5, pc}
 1299              	.LBE201:
 1300              	.LBE200:
 1301              	.LBE199:
 1302              	.LBE198:
 1303              	.LBE197:
 1304              	.LBE196:
 1305              		.cfi_endproc
 1306              	.LFE287:
 1307              		.size	sduDataReceived, .-sduDataReceived
 1308 0056 00BF     		.section	.text.sduInterruptTransmitted,"ax",%progbits
 1309              		.align	2
 1310              		.p2align 4,,15
 1311              		.global	sduInterruptTransmitted
ARM GAS  /var/folders/m4/4md61f0s1_g0rzfghffqnxvr0000gn/T//ccI5syky.s 			page 24


 1312              		.thumb
 1313              		.thumb_func
 1314              		.type	sduInterruptTransmitted, %function
 1315              	sduInterruptTransmitted:
 1316              	.LFB288:
 1317              		.loc 1 494 0
 1318              		.cfi_startproc
 1319              		@ args = 0, pretend = 0, frame = 0
 1320              		@ frame_needed = 0, uses_anonymous_args = 0
 1321              		@ link register save eliminated.
 1322              	.LVL130:
 1323 0000 7047     		bx	lr
 1324              		.cfi_endproc
 1325              	.LFE288:
 1326              		.size	sduInterruptTransmitted, .-sduInterruptTransmitted
 1327 0002 00BF     		.section	.rodata.vmt,"a",%progbits
 1328              		.align	2
 1329              		.set	.LANCHOR0,. + 0
 1330              		.type	vmt, %object
 1331              		.size	vmt, 32
 1332              	vmt:
 1333 0000 00000000 		.word	write
 1334 0004 00000000 		.word	read
 1335 0008 00000000 		.word	put
 1336 000c 00000000 		.word	get
 1337 0010 00000000 		.word	putt
 1338 0014 00000000 		.word	gett
 1339 0018 00000000 		.word	writet
 1340 001c 00000000 		.word	readt
 1341              		.section	.data.linecoding,"aw",%progbits
 1342              		.align	2
 1343              		.set	.LANCHOR1,. + 0
 1344              		.type	linecoding, %object
 1345              		.size	linecoding, 7
 1346              	linecoding:
 1347 0000 00       		.byte	0
 1348 0001 96       		.byte	-106
 1349 0002 00       		.byte	0
 1350 0003 00       		.byte	0
 1351 0004 00       		.byte	0
 1352 0005 00       		.byte	0
 1353 0006 08       		.byte	8
 1354              		.text
 1355              	.Letext0:
 1356              		.file 5 "/usr/local/Cellar/gcc-arm-none-eabi-49/20150609/lib/gcc/arm-none-eabi/4.9.3/include/stdde
 1357              		.file 6 "/usr/local/Cellar/gcc-arm-none-eabi-49/20150609/arm-none-eabi/include/machine/_default_ty
 1358              		.file 7 "/usr/local/Cellar/gcc-arm-none-eabi-49/20150609/arm-none-eabi/include/sys/_stdint.h"
 1359              		.file 8 "ChibiOS_16.1.4/os/rt/ports/ARMCMx/compilers/GCC/chtypes.h"
 1360              		.file 9 "ChibiOS_16.1.4/os/rt/include/chsystypes.h"
 1361              		.file 10 "ChibiOS_16.1.4/os/rt/include/chschd.h"
 1362              		.file 11 "ChibiOS_16.1.4/os/rt/ports/ARMCMx/chcore.h"
 1363              		.file 12 "ChibiOS_16.1.4/os/rt/ports/ARMCMx/chcore_v7m.h"
 1364              		.file 13 "ChibiOS_16.1.4/os/rt/include/chtm.h"
 1365              		.file 14 "ChibiOS_16.1.4/os/rt/include/chsem.h"
 1366              		.file 15 "ChibiOS_16.1.4/os/rt/include/chmtx.h"
 1367              		.file 16 "ChibiOS_16.1.4/os/hal/include/hal_buffers.h"
 1368              		.file 17 "ChibiOS_16.1.4/os/hal/include/usb.h"
ARM GAS  /var/folders/m4/4md61f0s1_g0rzfghffqnxvr0000gn/T//ccI5syky.s 			page 25


 1369              		.file 18 "ChibiOS_16.1.4/os/hal/ports/STM32/LLD/OTGv1/usb_lld.h"
 1370              		.file 19 "ChibiOS_16.1.4/os/hal/ports/STM32/LLD/OTGv1/stm32_otg.h"
 1371              		.file 20 "ChibiOS_16.1.4/os/hal/include/usb_cdc.h"
 1372              		.file 21 "ChibiOS_16.1.4/os/hal/include/serial_usb.h"
 1373              		.file 22 "ChibiOS_16.1.4/os/rt/include/chsys.h"
 1374              		.file 23 "ChibiOS_16.1.4/os/ext/CMSIS/include/core_cm4.h"