ARM GAS  /var/folders/m4/4md61f0s1_g0rzfghffqnxvr0000gn/T//ccFoPJOX.s 			page 1


   1              		.syntax unified
   2              		.cpu cortex-m4
   3              		.eabi_attribute 27, 1
   4              		.eabi_attribute 28, 1
   5              		.fpu fpv4-sp-d16
   6              		.eabi_attribute 20, 1
   7              		.eabi_attribute 21, 1
   8              		.eabi_attribute 23, 3
   9              		.eabi_attribute 24, 1
  10              		.eabi_attribute 25, 1
  11              		.eabi_attribute 26, 1
  12              		.eabi_attribute 30, 2
  13              		.eabi_attribute 34, 1
  14              		.eabi_attribute 18, 4
  15              		.thumb
  16              		.file	"shell.c"
  17              		.text
  18              	.Ltext0:
  19              		.cfi_sections	.debug_frame
  20              		.section	.text.cmd_systime,"ax",%progbits
  21              		.align	2
  22              		.p2align 4,,15
  23              		.thumb
  24              		.thumb_func
  25              		.type	cmd_systime, %function
  26              	cmd_systime:
  27              	.LFB272:
  28              		.file 1 "ChibiOS_16.1.4/os/various/shell.c"
  29              		.loc 1 99 0
  30              		.cfi_startproc
  31              		@ args = 0, pretend = 0, frame = 0
  32              		@ frame_needed = 0, uses_anonymous_args = 0
  33              		@ link register save eliminated.
  34              	.LVL0:
  35              		.loc 1 102 0
  36 0000 0029     		cmp	r1, #0
  37 0002 03DD     		ble	.L2
  38              	.LVL1:
  39              	.LBB98:
  40              	.LBB99:
  41              		.loc 1 56 0
  42 0004 0749     		ldr	r1, .L4
  43              	.LVL2:
  44 0006 084A     		ldr	r2, .L4+4
  45              	.LVL3:
  46 0008 FFF7FEBF 		b	chprintf
  47              	.LVL4:
  48              	.L2:
  49              	.LBE99:
  50              	.LBE98:
  51              	.LBB100:
  52              	.LBB101:
  53              	.LBB102:
  54              	.LBB103:
  55              	.LBB104:
  56              	.LBB105:
  57              	.LBB106:
ARM GAS  /var/folders/m4/4md61f0s1_g0rzfghffqnxvr0000gn/T//ccFoPJOX.s 			page 2


  58              	.LBB107:
  59              		.file 2 "ChibiOS_16.1.4/os/ext/CMSIS/include/core_cmFunc.h"
  60              		.loc 2 548 0
  61 000c 2023     		movs	r3, #32
  62              	@ 548 "ChibiOS_16.1.4/os/ext/CMSIS/include/core_cmFunc.h" 1
  63 000e 83F31188 		MSR basepri, r3
  64              	@ 0 "" 2
  65              		.thumb
  66              	.LBE107:
  67              	.LBE106:
  68              	.LBE105:
  69              	.LBE104:
  70              	.LBB108:
  71              	.LBB109:
  72              		.file 3 "ChibiOS_16.1.4/os/rt/include/chvt.h"
  73              		.loc 3 231 0
  74 0012 064A     		ldr	r2, .L4+8
  75              	.LVL5:
  76              	.LBE109:
  77              	.LBE108:
  78              	.LBB111:
  79              	.LBB112:
  80              	.LBB113:
  81              	.LBB114:
  82              	.LBB115:
  83              		.loc 2 548 0
  84 0014 0023     		movs	r3, #0
  85              	.LBE115:
  86              	.LBE114:
  87              	.LBE113:
  88              	.LBE112:
  89              	.LBE111:
  90              	.LBB120:
  91              	.LBB110:
  92              		.loc 3 231 0
  93 0016 926A     		ldr	r2, [r2, #40]
  94              	.LVL6:
  95              	.LBE110:
  96              	.LBE120:
  97              	.LBB121:
  98              	.LBB119:
  99              	.LBB118:
 100              	.LBB117:
 101              	.LBB116:
 102              		.loc 2 548 0
 103              	@ 548 "ChibiOS_16.1.4/os/ext/CMSIS/include/core_cmFunc.h" 1
 104 0018 83F31188 		MSR basepri, r3
 105              	@ 0 "" 2
 106              		.thumb
 107              	.LBE116:
 108              	.LBE117:
 109              	.LBE118:
 110              	.LBE119:
 111              	.LBE121:
 112              	.LBE103:
 113              	.LBE102:
 114              		.loc 1 106 0
ARM GAS  /var/folders/m4/4md61f0s1_g0rzfghffqnxvr0000gn/T//ccFoPJOX.s 			page 3


 115 001c 0449     		ldr	r1, .L4+12
 116              	.LVL7:
 117 001e FFF7FEBF 		b	chprintf
 118              	.LVL8:
 119              	.L5:
 120 0022 00BF     		.align	2
 121              	.L4:
 122 0024 00000000 		.word	.LC0
 123 0028 0C000000 		.word	.LC1
 124 002c 00000000 		.word	ch
 125 0030 14000000 		.word	.LC2
 126              	.LBE101:
 127              	.LBE100:
 128              		.cfi_endproc
 129              	.LFE272:
 130              		.size	cmd_systime, .-cmd_systime
 131              		.section	.text.cmd_info,"ax",%progbits
 132              		.align	2
 133              		.p2align 4,,15
 134              		.thumb
 135              		.thumb_func
 136              		.type	cmd_info, %function
 137              	cmd_info:
 138              	.LFB271:
 139              		.loc 1 67 0
 140              		.cfi_startproc
 141              		@ args = 0, pretend = 0, frame = 0
 142              		@ frame_needed = 0, uses_anonymous_args = 0
 143              	.LVL9:
 144              		.loc 1 70 0
 145 0000 0029     		cmp	r1, #0
 146 0002 03DD     		ble	.L7
 147              	.LVL10:
 148              	.LBB128:
 149              	.LBB129:
 150              		.loc 1 56 0
 151 0004 1949     		ldr	r1, .L9
 152              	.LVL11:
 153 0006 1A4A     		ldr	r2, .L9+4
 154              	.LVL12:
 155 0008 FFF7FEBF 		b	chprintf
 156              	.LVL13:
 157              	.L7:
 158              	.LBE129:
 159              	.LBE128:
 160              		.loc 1 67 0
 161 000c 10B5     		push	{r4, lr}
 162              		.cfi_def_cfa_offset 8
 163              		.cfi_offset 4, -8
 164              		.cfi_offset 14, -4
 165              	.LBB130:
 166              	.LBB131:
 167              		.loc 1 75 0
 168 000e 1949     		ldr	r1, .L9+8
 169              	.LVL14:
 170 0010 194A     		ldr	r2, .L9+12
 171              	.LVL15:
ARM GAS  /var/folders/m4/4md61f0s1_g0rzfghffqnxvr0000gn/T//ccFoPJOX.s 			page 4


 172              	.LBE131:
 173              	.LBE130:
 174              		.loc 1 67 0
 175 0012 82B0     		sub	sp, sp, #8
 176              		.cfi_def_cfa_offset 16
 177 0014 0446     		mov	r4, r0
 178              	.LVL16:
 179              	.LBB133:
 180              	.LBB132:
 181              		.loc 1 75 0
 182 0016 FFF7FEFF 		bl	chprintf
 183              	.LVL17:
 184              		.loc 1 77 0
 185 001a 2046     		mov	r0, r4
 186 001c 1749     		ldr	r1, .L9+16
 187 001e 184A     		ldr	r2, .L9+20
 188 0020 FFF7FEFF 		bl	chprintf
 189              	.LVL18:
 190              		.loc 1 79 0
 191 0024 2046     		mov	r0, r4
 192 0026 1749     		ldr	r1, .L9+24
 193 0028 174A     		ldr	r2, .L9+28
 194 002a FFF7FEFF 		bl	chprintf
 195              	.LVL19:
 196              		.loc 1 81 0
 197 002e 2046     		mov	r0, r4
 198 0030 1649     		ldr	r1, .L9+32
 199 0032 174A     		ldr	r2, .L9+36
 200 0034 FFF7FEFF 		bl	chprintf
 201              	.LVL20:
 202              		.loc 1 84 0
 203 0038 2046     		mov	r0, r4
 204 003a 1649     		ldr	r1, .L9+40
 205 003c 164A     		ldr	r2, .L9+44
 206 003e FFF7FEFF 		bl	chprintf
 207              	.LVL21:
 208              		.loc 1 87 0
 209 0042 2046     		mov	r0, r4
 210 0044 1549     		ldr	r1, .L9+48
 211 0046 164A     		ldr	r2, .L9+52
 212 0048 FFF7FEFF 		bl	chprintf
 213              	.LVL22:
 214              		.loc 1 90 0
 215 004c 2046     		mov	r0, r4
 216 004e 1549     		ldr	r1, .L9+56
 217 0050 154A     		ldr	r2, .L9+60
 218 0052 FFF7FEFF 		bl	chprintf
 219              	.LVL23:
 220              		.loc 1 94 0
 221 0056 154B     		ldr	r3, .L9+64
 222 0058 0093     		str	r3, [sp]
 223 005a 2046     		mov	r0, r4
 224 005c 1449     		ldr	r1, .L9+68
 225 005e 154A     		ldr	r2, .L9+72
 226 0060 154B     		ldr	r3, .L9+76
 227 0062 FFF7FEFF 		bl	chprintf
 228              	.LVL24:
ARM GAS  /var/folders/m4/4md61f0s1_g0rzfghffqnxvr0000gn/T//ccFoPJOX.s 			page 5


 229              	.LBE132:
 230              	.LBE133:
 231              		.loc 1 97 0
 232 0066 02B0     		add	sp, sp, #8
 233              		.cfi_def_cfa_offset 8
 234              		@ sp needed
 235 0068 10BD     		pop	{r4, pc}
 236              	.LVL25:
 237              	.L10:
 238 006a 00BF     		.align	2
 239              	.L9:
 240 006c 00000000 		.word	.LC0
 241 0070 1C000000 		.word	.LC3
 242 0074 24000000 		.word	.LC4
 243 0078 38000000 		.word	.LC5
 244 007c 40000000 		.word	.LC6
 245 0080 54000000 		.word	.LC7
 246 0084 9C000000 		.word	.LC8
 247 0088 B0000000 		.word	.LC9
 248 008c BC000000 		.word	.LC10
 249 0090 D0000000 		.word	.LC11
 250 0094 DC000000 		.word	.LC12
 251 0098 F0000000 		.word	.LC13
 252 009c 08010000 		.word	.LC14
 253 00a0 1C010000 		.word	.LC15
 254 00a4 48010000 		.word	.LC16
 255 00a8 5C010000 		.word	.LC17
 256 00ac 90010000 		.word	.LC21
 257 00b0 68010000 		.word	.LC18
 258 00b4 80010000 		.word	.LC19
 259 00b8 8C010000 		.word	.LC20
 260              		.cfi_endproc
 261              	.LFE271:
 262              		.size	cmd_info, .-cmd_info
 263              		.section	.text._strtok.constprop.2,"ax",%progbits
 264              		.align	2
 265              		.p2align 4,,15
 266              		.thumb
 267              		.thumb_func
 268              		.type	_strtok.constprop.2, %function
 269              	_strtok.constprop.2:
 270              	.LFB282:
 271              		.loc 1 37 0
 272              		.cfi_startproc
 273              		@ args = 0, pretend = 0, frame = 0
 274              		@ frame_needed = 0, uses_anonymous_args = 0
 275              	.LVL26:
 276 0000 38B5     		push	{r3, r4, r5, lr}
 277              		.cfi_def_cfa_offset 16
 278              		.cfi_offset 3, -16
 279              		.cfi_offset 4, -12
 280              		.cfi_offset 5, -8
 281              		.cfi_offset 14, -4
 282              		.loc 1 37 0
 283 0002 0D46     		mov	r5, r1
 284              		.loc 1 39 0
 285 0004 0446     		mov	r4, r0
ARM GAS  /var/folders/m4/4md61f0s1_g0rzfghffqnxvr0000gn/T//ccFoPJOX.s 			page 6


 286 0006 90B1     		cbz	r0, .L12
 287              		.loc 1 40 0
 288 0008 2860     		str	r0, [r5]
 289              	.LVL27:
 290              	.L13:
 291              		.loc 1 46 0
 292 000a 2046     		mov	r0, r4
 293              	.LVL28:
 294 000c 0B49     		ldr	r1, .L23
 295              	.LVL29:
 296 000e FFF7FEFF 		bl	strspn
 297              	.LVL30:
 298 0012 0444     		add	r4, r4, r0
 299              	.LVL31:
 300              		.loc 1 47 0
 301 0014 2046     		mov	r0, r4
 302 0016 0949     		ldr	r1, .L23
 303 0018 FFF7FEFF 		bl	strpbrk
 304              	.LVL32:
 305              		.loc 1 48 0
 306 001c 60B1     		cbz	r0, .L22
 307              		.loc 1 49 0
 308 001e 421C     		adds	r2, r0, #1
 309 0020 0023     		movs	r3, #0
 310 0022 2A60     		str	r2, [r5]
 311 0024 0370     		strb	r3, [r0]
 312              	.L16:
 313              		.loc 1 51 0
 314 0026 2378     		ldrb	r3, [r4]	@ zero_extendqisi2
 315 0028 23B1     		cbz	r3, .L17
 316 002a 2046     		mov	r0, r4
 317              		.loc 1 52 0
 318 002c 38BD     		pop	{r3, r4, r5, pc}
 319              	.LVL33:
 320              	.L12:
 321              		.loc 1 41 0
 322 002e 0C68     		ldr	r4, [r1]
 323              	.LVL34:
 324              		.loc 1 43 0
 325 0030 002C     		cmp	r4, #0
 326 0032 EAD1     		bne	.L13
 327              	.LVL35:
 328              	.L17:
 329              		.loc 1 44 0
 330 0034 0020     		movs	r0, #0
 331 0036 38BD     		pop	{r3, r4, r5, pc}
 332              	.LVL36:
 333              	.L22:
 334              		.loc 1 47 0
 335 0038 2860     		str	r0, [r5]
 336 003a F4E7     		b	.L16
 337              	.L24:
 338              		.align	2
 339              	.L23:
 340 003c 9C010000 		.word	.LC22
 341              		.cfi_endproc
 342              	.LFE282:
ARM GAS  /var/folders/m4/4md61f0s1_g0rzfghffqnxvr0000gn/T//ccFoPJOX.s 			page 7


 343              		.size	_strtok.constprop.2, .-_strtok.constprop.2
 344              		.section	.text.shellInit,"ax",%progbits
 345              		.align	2
 346              		.p2align 4,,15
 347              		.global	shellInit
 348              		.thumb
 349              		.thumb_func
 350              		.type	shellInit, %function
 351              	shellInit:
 352              	.LFB275:
 353              		.loc 1 197 0
 354              		.cfi_startproc
 355              		@ args = 0, pretend = 0, frame = 0
 356              		@ frame_needed = 0, uses_anonymous_args = 0
 357              		@ link register save eliminated.
 358              	.LVL37:
 359              	.LBB134:
 360              	.LBB135:
 361              		.file 4 "ChibiOS_16.1.4/os/rt/include/chevents.h"
 362              		.loc 4 172 0
 363 0000 014B     		ldr	r3, .L26
 364 0002 1B60     		str	r3, [r3]
 365 0004 7047     		bx	lr
 366              	.L27:
 367 0006 00BF     		.align	2
 368              	.L26:
 369 0008 00000000 		.word	.LANCHOR0
 370              	.LBE135:
 371              	.LBE134:
 372              		.cfi_endproc
 373              	.LFE275:
 374              		.size	shellInit, .-shellInit
 375              		.section	.text.shellExit,"ax",%progbits
 376              		.align	2
 377              		.p2align 4,,15
 378              		.global	shellExit
 379              		.thumb
 380              		.thumb_func
 381              		.type	shellExit, %function
 382              	shellExit:
 383              	.LFB276:
 384              		.loc 1 211 0
 385              		.cfi_startproc
 386              		@ args = 0, pretend = 0, frame = 0
 387              		@ frame_needed = 0, uses_anonymous_args = 0
 388              	.LVL38:
 389 0000 10B5     		push	{r4, lr}
 390              		.cfi_def_cfa_offset 8
 391              		.cfi_offset 4, -8
 392              		.cfi_offset 14, -4
 393              	.LBB136:
 394              	.LBB137:
 395              	.LBB138:
 396              	.LBB139:
 397              		.loc 2 548 0
 398 0002 2023     		movs	r3, #32
 399              	.LBE139:
ARM GAS  /var/folders/m4/4md61f0s1_g0rzfghffqnxvr0000gn/T//ccFoPJOX.s 			page 8


 400              	.LBE138:
 401              	.LBE137:
 402              	.LBE136:
 403              		.loc 1 211 0
 404 0004 0446     		mov	r4, r0
 405              	.LBB143:
 406              	.LBB142:
 407              	.LBB141:
 408              	.LBB140:
 409              		.loc 2 548 0
 410              	@ 548 "ChibiOS_16.1.4/os/ext/CMSIS/include/core_cmFunc.h" 1
 411 0006 83F31188 		MSR basepri, r3
 412              	@ 0 "" 2
 413              	.LVL39:
 414              		.thumb
 415              	.LBE140:
 416              	.LBE141:
 417              	.LBE142:
 418              	.LBE143:
 419              	.LBB144:
 420              	.LBB145:
 421              		.loc 4 256 0
 422 000a 0448     		ldr	r0, .L30
 423              	.LVL40:
 424 000c 0021     		movs	r1, #0
 425 000e FFF7FEFF 		bl	chEvtBroadcastFlagsI
 426              	.LVL41:
 427              	.LBE145:
 428              	.LBE144:
 429              		.loc 1 217 0
 430 0012 2046     		mov	r0, r4
 431              		.loc 1 218 0
 432 0014 BDE81040 		pop	{r4, lr}
 433              		.cfi_restore 14
 434              		.cfi_restore 4
 435              		.cfi_def_cfa_offset 0
 436              	.LVL42:
 437              		.loc 1 217 0
 438 0018 FFF7FEBF 		b	chThdExitS
 439              	.LVL43:
 440              	.L31:
 441              		.align	2
 442              	.L30:
 443 001c 00000000 		.word	.LANCHOR0
 444              		.cfi_endproc
 445              	.LFE276:
 446              		.size	shellExit, .-shellExit
 447              		.section	.text.shellCreate,"ax",%progbits
 448              		.align	2
 449              		.p2align 4,,15
 450              		.global	shellCreate
 451              		.thumb
 452              		.thumb_func
 453              		.type	shellCreate, %function
 454              	shellCreate:
 455              	.LFB277:
 456              		.loc 1 233 0
ARM GAS  /var/folders/m4/4md61f0s1_g0rzfghffqnxvr0000gn/T//ccFoPJOX.s 			page 9


 457              		.cfi_startproc
 458              		@ args = 0, pretend = 0, frame = 0
 459              		@ frame_needed = 0, uses_anonymous_args = 0
 460              	.LVL44:
 461 0000 00B5     		push	{lr}
 462              		.cfi_def_cfa_offset 4
 463              		.cfi_offset 14, -4
 464 0002 83B0     		sub	sp, sp, #12
 465              		.cfi_def_cfa_offset 16
 466              		.loc 1 235 0
 467 0004 034B     		ldr	r3, .L34
 468 0006 0090     		str	r0, [sp]
 469 0008 0020     		movs	r0, #0
 470              	.LVL45:
 471 000a FFF7FEFF 		bl	chThdCreateFromHeap
 472              	.LVL46:
 473              		.loc 1 236 0
 474 000e 03B0     		add	sp, sp, #12
 475              		.cfi_def_cfa_offset 4
 476              		@ sp needed
 477 0010 5DF804FB 		ldr	pc, [sp], #4
 478              	.L35:
 479              		.align	2
 480              	.L34:
 481 0014 00000000 		.word	shell_thread
 482              		.cfi_endproc
 483              	.LFE277:
 484              		.size	shellCreate, .-shellCreate
 485              		.section	.text.shellCreateStatic,"ax",%progbits
 486              		.align	2
 487              		.p2align 4,,15
 488              		.global	shellCreateStatic
 489              		.thumb
 490              		.thumb_func
 491              		.type	shellCreateStatic, %function
 492              	shellCreateStatic:
 493              	.LFB278:
 494              		.loc 1 251 0
 495              		.cfi_startproc
 496              		@ args = 0, pretend = 0, frame = 0
 497              		@ frame_needed = 0, uses_anonymous_args = 0
 498              	.LVL47:
 499 0000 00B5     		push	{lr}
 500              		.cfi_def_cfa_offset 4
 501              		.cfi_offset 14, -4
 502 0002 83B0     		sub	sp, sp, #12
 503              		.cfi_def_cfa_offset 16
 504              		.loc 1 253 0
 505 0004 0090     		str	r0, [sp]
 506 0006 0846     		mov	r0, r1
 507              	.LVL48:
 508 0008 1146     		mov	r1, r2
 509              	.LVL49:
 510 000a 1A46     		mov	r2, r3
 511              	.LVL50:
 512 000c 024B     		ldr	r3, .L38
 513              	.LVL51:
ARM GAS  /var/folders/m4/4md61f0s1_g0rzfghffqnxvr0000gn/T//ccFoPJOX.s 			page 10


 514 000e FFF7FEFF 		bl	chThdCreateStatic
 515              	.LVL52:
 516              		.loc 1 254 0
 517 0012 03B0     		add	sp, sp, #12
 518              		.cfi_def_cfa_offset 4
 519              		@ sp needed
 520 0014 5DF804FB 		ldr	pc, [sp], #4
 521              	.L39:
 522              		.align	2
 523              	.L38:
 524 0018 00000000 		.word	shell_thread
 525              		.cfi_endproc
 526              	.LFE278:
 527              		.size	shellCreateStatic, .-shellCreateStatic
 528              		.section	.text.shellGetLine,"ax",%progbits
 529              		.align	2
 530              		.p2align 4,,15
 531              		.global	shellGetLine
 532              		.thumb
 533              		.thumb_func
 534              		.type	shellGetLine, %function
 535              	shellGetLine:
 536              	.LFB279:
 537              		.loc 1 268 0
 538              		.cfi_startproc
 539              		@ args = 0, pretend = 0, frame = 8
 540              		@ frame_needed = 0, uses_anonymous_args = 0
 541              	.LVL53:
 542 0000 F0B5     		push	{r4, r5, r6, r7, lr}
 543              		.cfi_def_cfa_offset 20
 544              		.cfi_offset 4, -20
 545              		.cfi_offset 5, -16
 546              		.cfi_offset 6, -12
 547              		.cfi_offset 7, -8
 548              		.cfi_offset 14, -4
 549              	.LBB146:
 550              		.loc 1 296 0
 551 0002 013A     		subs	r2, r2, #1
 552              	.LVL54:
 553              	.LBE146:
 554              		.loc 1 268 0
 555 0004 83B0     		sub	sp, sp, #12
 556              		.cfi_def_cfa_offset 32
 557              		.loc 1 268 0
 558 0006 0E46     		mov	r6, r1
 559              	.LVL55:
 560              	.LBB147:
 561              		.loc 1 296 0
 562 0008 8F18     		adds	r7, r1, r2
 563              	.LBE147:
 564              		.loc 1 268 0
 565 000a 0446     		mov	r4, r0
 566 000c 0D46     		mov	r5, r1
 567              	.LVL56:
 568              	.L41:
 569              	.LBB148:
 570              		.loc 1 274 0
ARM GAS  /var/folders/m4/4md61f0s1_g0rzfghffqnxvr0000gn/T//ccFoPJOX.s 			page 11


 571 000e 2368     		ldr	r3, [r4]
 572 0010 2046     		mov	r0, r4
 573 0012 5B68     		ldr	r3, [r3, #4]
 574 0014 0DF10701 		add	r1, sp, #7
 575 0018 0122     		movs	r2, #1
 576 001a 9847     		blx	r3
 577              	.LVL57:
 578 001c 48B3     		cbz	r0, .L50
 579              		.loc 1 276 0
 580 001e 9DF80710 		ldrb	r1, [sp, #7]	@ zero_extendqisi2
 581 0022 0429     		cmp	r1, #4
 582 0024 28D0     		beq	.L57
 583              		.loc 1 280 0
 584 0026 0829     		cmp	r1, #8
 585 0028 10D0     		beq	.L44
 586              		.loc 1 280 0 is_stmt 0 discriminator 1
 587 002a 7F29     		cmp	r1, #127
 588 002c 0ED0     		beq	.L44
 589              		.loc 1 289 0 is_stmt 1
 590 002e 0D29     		cmp	r1, #13
 591 0030 29D0     		beq	.L58
 592              		.loc 1 294 0
 593 0032 1F29     		cmp	r1, #31
 594 0034 EBD9     		bls	.L41
 595              		.loc 1 296 0
 596 0036 BD42     		cmp	r5, r7
 597 0038 E9D2     		bcs	.L41
 598              		.loc 1 297 0
 599 003a 2368     		ldr	r3, [r4]
 600 003c 2046     		mov	r0, r4
 601 003e 9B68     		ldr	r3, [r3, #8]
 602 0040 9847     		blx	r3
 603              	.LVL58:
 604              		.loc 1 298 0
 605 0042 9DF80730 		ldrb	r3, [sp, #7]	@ zero_extendqisi2
 606 0046 2B70     		strb	r3, [r5]
 607 0048 0135     		adds	r5, r5, #1
 608              	.LVL59:
 609 004a E0E7     		b	.L41
 610              	.L44:
 611              		.loc 1 281 0
 612 004c B542     		cmp	r5, r6
 613              		.loc 1 282 0
 614 004e 2046     		mov	r0, r4
 615              		.loc 1 281 0
 616 0050 DDD0     		beq	.L41
 617              	.LVL60:
 618              		.loc 1 282 0
 619 0052 2368     		ldr	r3, [r4]
 620 0054 9B68     		ldr	r3, [r3, #8]
 621 0056 9847     		blx	r3
 622              	.LVL61:
 623              		.loc 1 283 0
 624 0058 2368     		ldr	r3, [r4]
 625 005a 2046     		mov	r0, r4
 626 005c 9B68     		ldr	r3, [r3, #8]
 627 005e 2021     		movs	r1, #32
ARM GAS  /var/folders/m4/4md61f0s1_g0rzfghffqnxvr0000gn/T//ccFoPJOX.s 			page 12


 628 0060 9847     		blx	r3
 629              	.LVL62:
 630              		.loc 1 284 0
 631 0062 2368     		ldr	r3, [r4]
 632 0064 9DF80710 		ldrb	r1, [sp, #7]	@ zero_extendqisi2
 633 0068 9B68     		ldr	r3, [r3, #8]
 634 006a 2046     		mov	r0, r4
 635              		.loc 1 285 0
 636 006c 013D     		subs	r5, r5, #1
 637              	.LVL63:
 638              		.loc 1 284 0
 639 006e 9847     		blx	r3
 640              	.LVL64:
 641 0070 CDE7     		b	.L41
 642              	.L50:
 643              		.loc 1 275 0
 644 0072 0120     		movs	r0, #1
 645              	.LBE148:
 646              		.loc 1 301 0
 647 0074 03B0     		add	sp, sp, #12
 648              		.cfi_remember_state
 649              		.cfi_def_cfa_offset 20
 650              		@ sp needed
 651 0076 F0BD     		pop	{r4, r5, r6, r7, pc}
 652              	.LVL65:
 653              	.L57:
 654              		.cfi_restore_state
 655              	.LBB149:
 656              		.loc 1 277 0
 657 0078 2046     		mov	r0, r4
 658 007a 0749     		ldr	r1, .L59
 659 007c FFF7FEFF 		bl	chprintf
 660              	.LVL66:
 661              		.loc 1 278 0
 662 0080 0120     		movs	r0, #1
 663              	.LBE149:
 664              		.loc 1 301 0
 665 0082 03B0     		add	sp, sp, #12
 666              		.cfi_remember_state
 667              		.cfi_def_cfa_offset 20
 668              		@ sp needed
 669 0084 F0BD     		pop	{r4, r5, r6, r7, pc}
 670              	.LVL67:
 671              	.L58:
 672              		.cfi_restore_state
 673              	.LBB150:
 674              		.loc 1 290 0
 675 0086 2046     		mov	r0, r4
 676 0088 0449     		ldr	r1, .L59+4
 677 008a FFF7FEFF 		bl	chprintf
 678              	.LVL68:
 679              		.loc 1 291 0
 680 008e 0020     		movs	r0, #0
 681 0090 2870     		strb	r0, [r5]
 682              	.LBE150:
 683              		.loc 1 301 0
 684 0092 03B0     		add	sp, sp, #12
ARM GAS  /var/folders/m4/4md61f0s1_g0rzfghffqnxvr0000gn/T//ccFoPJOX.s 			page 13


 685              		.cfi_def_cfa_offset 20
 686              		@ sp needed
 687 0094 F0BD     		pop	{r4, r5, r6, r7, pc}
 688              	.LVL69:
 689              	.L60:
 690 0096 00BF     		.align	2
 691              	.L59:
 692 0098 A0010000 		.word	.LC23
 693 009c A4010000 		.word	.LC24
 694              		.cfi_endproc
 695              	.LFE279:
 696              		.size	shellGetLine, .-shellGetLine
 697              		.section	.text.shell_thread,"ax",%progbits
 698              		.align	2
 699              		.p2align 4,,15
 700              		.thumb
 701              		.thumb_func
 702              		.type	shell_thread, %function
 703              	shell_thread:
 704              	.LFB274:
 705              		.loc 1 136 0
 706              		.cfi_startproc
 707              		@ args = 0, pretend = 0, frame = 88
 708              		@ frame_needed = 0, uses_anonymous_args = 0
 709              	.LVL70:
 710 0000 2DE9F041 		push	{r4, r5, r6, r7, r8, lr}
 711              		.cfi_def_cfa_offset 24
 712              		.cfi_offset 4, -24
 713              		.cfi_offset 5, -20
 714              		.cfi_offset 6, -16
 715              		.cfi_offset 7, -12
 716              		.cfi_offset 8, -8
 717              		.cfi_offset 14, -4
 718              	.LBB165:
 719              	.LBB166:
 720              		.file 5 "ChibiOS_16.1.4/os/rt/include/chregistry.h"
 721              		.loc 5 135 0
 722 0004 564B     		ldr	r3, .L114
 723              	.LBE166:
 724              	.LBE165:
 725              		.loc 1 138 0
 726 0006 0668     		ldr	r6, [r0]
 727              	.LVL71:
 728              	.LBB169:
 729              	.LBB167:
 730              		.loc 5 135 0
 731 0008 9B69     		ldr	r3, [r3, #24]
 732 000a 564A     		ldr	r2, .L114+4
 733              	.LBE167:
 734              	.LBE169:
 735              		.loc 1 139 0
 736 000c D0F80480 		ldr	r8, [r0, #4]
 737              	.LVL72:
 738              		.loc 1 144 0
 739 0010 5549     		ldr	r1, .L114+8
 740              	.LBB170:
 741              	.LBB168:
ARM GAS  /var/folders/m4/4md61f0s1_g0rzfghffqnxvr0000gn/T//ccFoPJOX.s 			page 14


 742              		.loc 5 135 0
 743 0012 9A61     		str	r2, [r3, #24]
 744              	.LBE168:
 745              	.LBE170:
 746              		.loc 1 136 0
 747 0014 96B0     		sub	sp, sp, #88
 748              		.cfi_def_cfa_offset 112
 749              		.loc 1 144 0
 750 0016 3046     		mov	r0, r6
 751              	.LVL73:
 752 0018 FFF7FEFF 		bl	chprintf
 753              	.LVL74:
 754              	.L63:
 755              		.loc 1 146 0
 756 001c 5349     		ldr	r1, .L114+12
 757 001e 3046     		mov	r0, r6
 758 0020 FFF7FEFF 		bl	chprintf
 759              	.LVL75:
 760              		.loc 1 147 0
 761 0024 3046     		mov	r0, r6
 762 0026 06A9     		add	r1, sp, #24
 763 0028 4022     		movs	r2, #64
 764 002a FFF7FEFF 		bl	shellGetLine
 765              	.LVL76:
 766 002e 0446     		mov	r4, r0
 767 0030 78BB     		cbnz	r0, .L109
 768              		.loc 1 151 0
 769 0032 6946     		mov	r1, sp
 770 0034 06A8     		add	r0, sp, #24
 771 0036 FFF7FEFF 		bl	_strtok.constprop.2
 772              	.LVL77:
 773              		.loc 1 154 0
 774 003a 6946     		mov	r1, sp
 775              		.loc 1 151 0
 776 003c 0746     		mov	r7, r0
 777              	.LVL78:
 778              		.loc 1 154 0
 779 003e 0020     		movs	r0, #0
 780              	.LVL79:
 781 0040 01AD     		add	r5, sp, #4
 782 0042 FFF7FEFF 		bl	_strtok.constprop.2
 783              	.LVL80:
 784 0046 50B1     		cbz	r0, .L110
 785              	.L69:
 786              		.loc 1 155 0
 787 0048 042C     		cmp	r4, #4
 788 004a 1BD0     		beq	.L111
 789              		.loc 1 160 0
 790 004c 45F8040B 		str	r0, [r5], #4
 791              		.loc 1 154 0
 792 0050 6946     		mov	r1, sp
 793 0052 0020     		movs	r0, #0
 794              	.LVL81:
 795              		.loc 1 160 0
 796 0054 0134     		adds	r4, r4, #1
 797              	.LVL82:
 798              		.loc 1 154 0
ARM GAS  /var/folders/m4/4md61f0s1_g0rzfghffqnxvr0000gn/T//ccFoPJOX.s 			page 15


 799 0056 FFF7FEFF 		bl	_strtok.constprop.2
 800              	.LVL83:
 801 005a 0028     		cmp	r0, #0
 802 005c F4D1     		bne	.L69
 803              	.L110:
 804              		.loc 1 162 0
 805 005e 16AB     		add	r3, sp, #88
 806 0060 03EB8403 		add	r3, r3, r4, lsl #2
 807 0064 43F8540C 		str	r0, [r3, #-84]
 808              		.loc 1 163 0
 809 0068 002F     		cmp	r7, #0
 810 006a D7D0     		beq	.L63
 811              		.loc 1 164 0
 812 006c 3846     		mov	r0, r7
 813              	.LVL84:
 814 006e 4049     		ldr	r1, .L114+16
 815 0070 FFF7FEFF 		bl	strcmp
 816              	.LVL85:
 817 0074 B8B9     		cbnz	r0, .L70
 818              		.loc 1 165 0
 819 0076 84B1     		cbz	r4, .L65
 820              	.LVL86:
 821              	.LBB171:
 822              	.LBB172:
 823              		.loc 1 56 0
 824 0078 3046     		mov	r0, r6
 825 007a 3E49     		ldr	r1, .L114+20
 826 007c 3C4A     		ldr	r2, .L114+16
 827 007e FFF7FEFF 		bl	chprintf
 828              	.LVL87:
 829              	.LBE172:
 830              	.LBE171:
 831              		.loc 1 167 0
 832 0082 CBE7     		b	.L63
 833              	.LVL88:
 834              	.L111:
 835              		.loc 1 156 0
 836 0084 3046     		mov	r0, r6
 837              	.LVL89:
 838 0086 3C49     		ldr	r1, .L114+24
 839 0088 FFF7FEFF 		bl	chprintf
 840              	.LVL90:
 841              		.loc 1 162 0
 842 008c 0023     		movs	r3, #0
 843 008e 0593     		str	r3, [sp, #20]
 844 0090 C4E7     		b	.L63
 845              	.LVL91:
 846              	.L109:
 847              		.loc 1 148 0
 848 0092 3046     		mov	r0, r6
 849 0094 3949     		ldr	r1, .L114+28
 850 0096 FFF7FEFF 		bl	chprintf
 851              	.LVL92:
 852              	.L65:
 853              		.loc 1 189 0
 854 009a 0020     		movs	r0, #0
 855 009c FFF7FEFF 		bl	shellExit
ARM GAS  /var/folders/m4/4md61f0s1_g0rzfghffqnxvr0000gn/T//ccFoPJOX.s 			page 16


 856              	.LVL93:
 857              		.loc 1 190 0
 858 00a0 16B0     		add	sp, sp, #88
 859              		.cfi_remember_state
 860              		.cfi_def_cfa_offset 24
 861              		@ sp needed
 862 00a2 BDE8F081 		pop	{r4, r5, r6, r7, r8, pc}
 863              	.LVL94:
 864              	.L70:
 865              		.cfi_restore_state
 866              		.loc 1 171 0
 867 00a6 3846     		mov	r0, r7
 868 00a8 3549     		ldr	r1, .L114+32
 869 00aa FFF7FEFF 		bl	strcmp
 870              	.LVL95:
 871 00ae 30B9     		cbnz	r0, .L112
 872              	.LBB173:
 873              	.LBB174:
 874              		.loc 1 56 0
 875 00b0 3046     		mov	r0, r6
 876              	.LBE174:
 877              	.LBE173:
 878              		.loc 1 172 0
 879 00b2 B4B1     		cbz	r4, .L75
 880              	.LVL96:
 881              	.LBB176:
 882              	.LBB175:
 883              		.loc 1 56 0
 884 00b4 2F49     		ldr	r1, .L114+20
 885 00b6 324A     		ldr	r2, .L114+32
 886 00b8 FFF7FEFF 		bl	chprintf
 887              	.LVL97:
 888              	.LBE175:
 889              	.LBE176:
 890              		.loc 1 174 0
 891 00bc AEE7     		b	.L63
 892              	.LVL98:
 893              	.L112:
 894              	.LBB177:
 895              	.LBB178:
 896              		.loc 1 121 0
 897 00be 314D     		ldr	r5, .L114+36
 898 00c0 2868     		ldr	r0, [r5]
 899 00c2 18B9     		cbnz	r0, .L83
 900 00c4 30E0     		b	.L74
 901              	.LVL99:
 902              	.L113:
 903 00c6 55F8080F 		ldr	r0, [r5, #8]!
 904              	.LVL100:
 905 00ca 68B3     		cbz	r0, .L74
 906              	.LVL101:
 907              	.L83:
 908              		.loc 1 122 0
 909 00cc 3946     		mov	r1, r7
 910 00ce FFF7FEFF 		bl	strcmp
 911              	.LVL102:
 912 00d2 0028     		cmp	r0, #0
ARM GAS  /var/folders/m4/4md61f0s1_g0rzfghffqnxvr0000gn/T//ccFoPJOX.s 			page 17


 913 00d4 F7D1     		bne	.L113
 914              	.LVL103:
 915              	.L108:
 916              	.LBE178:
 917              	.LBE177:
 918              	.LBB179:
 919              	.LBB180:
 920              		.loc 1 123 0
 921 00d6 6B68     		ldr	r3, [r5, #4]
 922 00d8 2146     		mov	r1, r4
 923 00da 3046     		mov	r0, r6
 924 00dc 01AA     		add	r2, sp, #4
 925 00de 9847     		blx	r3
 926              	.LVL104:
 927 00e0 9CE7     		b	.L63
 928              	.LVL105:
 929              	.L75:
 930              	.LBE180:
 931              	.LBE179:
 932              	.LBB182:
 933              	.LBB183:
 934              		.loc 1 61 0
 935 00e2 284D     		ldr	r5, .L114+36
 936              	.LBE183:
 937              	.LBE182:
 938              		.loc 1 176 0
 939 00e4 2849     		ldr	r1, .L114+40
 940 00e6 FFF7FEFF 		bl	chprintf
 941              	.LVL106:
 942              	.LBB185:
 943              	.LBB184:
 944              		.loc 1 61 0
 945 00ea 2A68     		ldr	r2, [r5]
 946 00ec 2C46     		mov	r4, r5
 947              	.LVL107:
 948 00ee 3AB1     		cbz	r2, .L80
 949              	.LVL108:
 950              	.L79:
 951              		.loc 1 62 0
 952 00f0 3046     		mov	r0, r6
 953 00f2 2649     		ldr	r1, .L114+44
 954 00f4 FFF7FEFF 		bl	chprintf
 955              	.LVL109:
 956              		.loc 1 61 0
 957 00f8 54F8082F 		ldr	r2, [r4, #8]!
 958              	.LVL110:
 959 00fc 002A     		cmp	r2, #0
 960 00fe F7D1     		bne	.L79
 961              	.LVL111:
 962              	.L80:
 963              	.LBE184:
 964              	.LBE185:
 965              		.loc 1 178 0
 966 0100 B8F1000F 		cmp	r8, #0
 967 0104 0BD0     		beq	.L78
 968              	.LVL112:
 969              	.LBB186:
ARM GAS  /var/folders/m4/4md61f0s1_g0rzfghffqnxvr0000gn/T//ccFoPJOX.s 			page 18


 970              	.LBB187:
 971              		.loc 1 61 0
 972 0106 D8F80020 		ldr	r2, [r8]
 973 010a 42B1     		cbz	r2, .L78
 974 010c 4446     		mov	r4, r8
 975              	.LVL113:
 976              	.L81:
 977              		.loc 1 62 0
 978 010e 3046     		mov	r0, r6
 979 0110 1E49     		ldr	r1, .L114+44
 980 0112 FFF7FEFF 		bl	chprintf
 981              	.LVL114:
 982              		.loc 1 61 0
 983 0116 54F8082F 		ldr	r2, [r4, #8]!
 984              	.LVL115:
 985 011a 002A     		cmp	r2, #0
 986 011c F7D1     		bne	.L81
 987              	.LVL116:
 988              	.L78:
 989              	.LBE187:
 990              	.LBE186:
 991              		.loc 1 180 0
 992 011e 3046     		mov	r0, r6
 993 0120 1B49     		ldr	r1, .L114+48
 994 0122 FFF7FEFF 		bl	chprintf
 995              	.LVL117:
 996 0126 79E7     		b	.L63
 997              	.LVL118:
 998              	.L74:
 999              		.loc 1 182 0
 1000 0128 B8F1000F 		cmp	r8, #0
 1001 012c 0DD0     		beq	.L86
 1002              	.LVL119:
 1003              	.LBB188:
 1004              	.LBB181:
 1005              		.loc 1 121 0
 1006 012e D8F80000 		ldr	r0, [r8]
 1007 0132 50B1     		cbz	r0, .L86
 1008 0134 4546     		mov	r5, r8
 1009 0136 02E0     		b	.L85
 1010              	.LVL120:
 1011              	.L84:
 1012 0138 55F8080F 		ldr	r0, [r5, #8]!
 1013              	.LVL121:
 1014 013c 28B1     		cbz	r0, .L86
 1015              	.LVL122:
 1016              	.L85:
 1017              		.loc 1 122 0
 1018 013e 3946     		mov	r1, r7
 1019 0140 FFF7FEFF 		bl	strcmp
 1020              	.LVL123:
 1021 0144 0028     		cmp	r0, #0
 1022 0146 F7D1     		bne	.L84
 1023 0148 C5E7     		b	.L108
 1024              	.LVL124:
 1025              	.L86:
 1026              	.LBE181:
ARM GAS  /var/folders/m4/4md61f0s1_g0rzfghffqnxvr0000gn/T//ccFoPJOX.s 			page 19


 1027              	.LBE188:
 1028              		.loc 1 184 0
 1029 014a 3A46     		mov	r2, r7
 1030 014c 3046     		mov	r0, r6
 1031 014e 1149     		ldr	r1, .L114+52
 1032 0150 FFF7FEFF 		bl	chprintf
 1033              	.LVL125:
 1034              		.loc 1 185 0
 1035 0154 3046     		mov	r0, r6
 1036 0156 1049     		ldr	r1, .L114+56
 1037 0158 FFF7FEFF 		bl	chprintf
 1038              	.LVL126:
 1039 015c 5EE7     		b	.L63
 1040              	.L115:
 1041 015e 00BF     		.align	2
 1042              	.L114:
 1043 0160 00000000 		.word	ch
 1044 0164 A8010000 		.word	.LC25
 1045 0168 B0010000 		.word	.LC26
 1046 016c C8010000 		.word	.LC27
 1047 0170 F4010000 		.word	.LC30
 1048 0174 00000000 		.word	.LC0
 1049 0178 DC010000 		.word	.LC29
 1050 017c D0010000 		.word	.LC28
 1051 0180 FC010000 		.word	.LC31
 1052 0184 00000000 		.word	.LANCHOR1
 1053 0188 04020000 		.word	.LC32
 1054 018c 1C020000 		.word	.LC33
 1055 0190 A4010000 		.word	.LC24
 1056 0194 20020000 		.word	.LC34
 1057 0198 24020000 		.word	.LC35
 1058              		.cfi_endproc
 1059              	.LFE274:
 1060              		.size	shell_thread, .-shell_thread
 1061              		.global	shell_terminated
 1062              		.section	.data.local_commands,"aw",%progbits
 1063              		.align	2
 1064              		.set	.LANCHOR1,. + 0
 1065              		.type	local_commands, %object
 1066              		.size	local_commands, 24
 1067              	local_commands:
 1068 0000 1C000000 		.word	.LC3
 1069 0004 00000000 		.word	cmd_info
 1070 0008 0C000000 		.word	.LC1
 1071 000c 00000000 		.word	cmd_systime
 1072 0010 00000000 		.word	0
 1073 0014 00000000 		.word	0
 1074              		.section	.rodata.str1.4,"aMS",%progbits,1
 1075              		.align	2
 1076              	.LC0:
 1077 0000 55736167 		.ascii	"Usage: %s\015\012\000"
 1077      653A2025 
 1077      730D0A00 
 1078              	.LC1:
 1079 000c 73797374 		.ascii	"systime\000"
 1079      696D6500 
 1080              	.LC2:
ARM GAS  /var/folders/m4/4md61f0s1_g0rzfghffqnxvr0000gn/T//ccFoPJOX.s 			page 20


 1081 0014 256C750D 		.ascii	"%lu\015\012\000"
 1081      0A00
 1082 001a 0000     		.space	2
 1083              	.LC3:
 1084 001c 696E666F 		.ascii	"info\000"
 1084      00
 1085 0021 000000   		.space	3
 1086              	.LC4:
 1087 0024 4B65726E 		.ascii	"Kernel:       %s\015\012\000"
 1087      656C3A20 
 1087      20202020 
 1087      20202573 
 1087      0D0A00
 1088 0037 00       		.space	1
 1089              	.LC5:
 1090 0038 332E312E 		.ascii	"3.1.3\000"
 1090      3300
 1091 003e 0000     		.space	2
 1092              	.LC6:
 1093 0040 436F6D70 		.ascii	"Compiler:     %s\015\012\000"
 1093      696C6572 
 1093      3A202020 
 1093      20202573 
 1093      0D0A00
 1094 0053 00       		.space	1
 1095              	.LC7:
 1096 0054 47434320 		.ascii	"GCC 4.9.3 20150529 (release) [ARM/embedded-4_9-bran"
 1096      342E392E 
 1096      33203230 
 1096      31353035 
 1096      32392028 
 1097 0087 63682072 		.ascii	"ch revision 224288]\000"
 1097      65766973 
 1097      696F6E20 
 1097      32323432 
 1097      38385D00 
 1098 009b 00       		.space	1
 1099              	.LC8:
 1100 009c 41726368 		.ascii	"Architecture: %s\015\012\000"
 1100      69746563 
 1100      74757265 
 1100      3A202573 
 1100      0D0A00
 1101 00af 00       		.space	1
 1102              	.LC9:
 1103 00b0 41524D76 		.ascii	"ARMv7E-M\000"
 1103      37452D4D 
 1103      00
 1104 00b9 000000   		.space	3
 1105              	.LC10:
 1106 00bc 436F7265 		.ascii	"Core Variant: %s\015\012\000"
 1106      20566172 
 1106      69616E74 
 1106      3A202573 
 1106      0D0A00
 1107 00cf 00       		.space	1
 1108              	.LC11:
ARM GAS  /var/folders/m4/4md61f0s1_g0rzfghffqnxvr0000gn/T//ccFoPJOX.s 			page 21


 1109 00d0 436F7274 		.ascii	"Cortex-M4F\000"
 1109      65782D4D 
 1109      344600
 1110 00db 00       		.space	1
 1111              	.LC12:
 1112 00dc 506F7274 		.ascii	"Port Info:    %s\015\012\000"
 1112      20496E66 
 1112      6F3A2020 
 1112      20202573 
 1112      0D0A00
 1113 00ef 00       		.space	1
 1114              	.LC13:
 1115 00f0 41647661 		.ascii	"Advanced kernel mode\000"
 1115      6E636564 
 1115      206B6572 
 1115      6E656C20 
 1115      6D6F6465 
 1116 0105 000000   		.space	3
 1117              	.LC14:
 1118 0108 506C6174 		.ascii	"Platform:     %s\015\012\000"
 1118      666F726D 
 1118      3A202020 
 1118      20202573 
 1118      0D0A00
 1119 011b 00       		.space	1
 1120              	.LC15:
 1121 011c 53544D33 		.ascii	"STM32F446 High Performance with DSP and FPU\000"
 1121      32463434 
 1121      36204869 
 1121      67682050 
 1121      6572666F 
 1122              	.LC16:
 1123 0148 426F6172 		.ascii	"Board:        %s\015\012\000"
 1123      643A2020 
 1123      20202020 
 1123      20202573 
 1123      0D0A00
 1124 015b 00       		.space	1
 1125              	.LC17:
 1126 015c 51756164 		.ascii	"Quadrotor\000"
 1126      726F746F 
 1126      7200
 1127 0166 0000     		.space	2
 1128              	.LC18:
 1129 0168 4275696C 		.ascii	"Build time:   %s%s%s\015\012\000"
 1129      64207469 
 1129      6D653A20 
 1129      20202573 
 1129      25732573 
 1130 017f 00       		.space	1
 1131              	.LC19:
 1132 0180 4D617220 		.ascii	"Mar 17 2016\000"
 1132      31372032 
 1132      30313600 
 1133              	.LC20:
 1134 018c 202D2000 		.ascii	" - \000"
 1135              	.LC21:
ARM GAS  /var/folders/m4/4md61f0s1_g0rzfghffqnxvr0000gn/T//ccFoPJOX.s 			page 22


 1136 0190 32323A33 		.ascii	"22:36:38\000"
 1136      363A3338 
 1136      00
 1137 0199 000000   		.space	3
 1138              	.LC22:
 1139 019c 200900   		.ascii	" \011\000"
 1140 019f 00       		.space	1
 1141              	.LC23:
 1142 01a0 5E4400   		.ascii	"^D\000"
 1143 01a3 00       		.space	1
 1144              	.LC24:
 1145 01a4 0D0A00   		.ascii	"\015\012\000"
 1146 01a7 00       		.space	1
 1147              	.LC25:
 1148 01a8 7368656C 		.ascii	"shell\000"
 1148      6C00
 1149 01ae 0000     		.space	2
 1150              	.LC26:
 1151 01b0 0D0A4368 		.ascii	"\015\012ChibiOS/RT Shell\015\012\000"
 1151      6962694F 
 1151      532F5254 
 1151      20536865 
 1151      6C6C0D0A 
 1152 01c5 000000   		.space	3
 1153              	.LC27:
 1154 01c8 63683E20 		.ascii	"ch> \000"
 1154      00
 1155 01cd 000000   		.space	3
 1156              	.LC28:
 1157 01d0 0D0A6C6F 		.ascii	"\015\012logout\000"
 1157      676F7574 
 1157      00
 1158 01d9 000000   		.space	3
 1159              	.LC29:
 1160 01dc 746F6F20 		.ascii	"too many arguments\015\012\000"
 1160      6D616E79 
 1160      20617267 
 1160      756D656E 
 1160      74730D0A 
 1161 01f1 000000   		.space	3
 1162              	.LC30:
 1163 01f4 65786974 		.ascii	"exit\000"
 1163      00
 1164 01f9 000000   		.space	3
 1165              	.LC31:
 1166 01fc 68656C70 		.ascii	"help\000"
 1166      00
 1167 0201 000000   		.space	3
 1168              	.LC32:
 1169 0204 436F6D6D 		.ascii	"Commands: help exit \000"
 1169      616E6473 
 1169      3A206865 
 1169      6C702065 
 1169      78697420 
 1170 0219 000000   		.space	3
 1171              	.LC33:
 1172 021c 25732000 		.ascii	"%s \000"
ARM GAS  /var/folders/m4/4md61f0s1_g0rzfghffqnxvr0000gn/T//ccFoPJOX.s 			page 23


 1173              	.LC34:
 1174 0220 257300   		.ascii	"%s\000"
 1175 0223 00       		.space	1
 1176              	.LC35:
 1177 0224 203F0D0A 		.ascii	" ?\015\012\000"
 1177      00
 1178              		.section	.bss.shell_terminated,"aw",%nobits
 1179              		.align	2
 1180              		.set	.LANCHOR0,. + 0
 1181              		.type	shell_terminated, %object
 1182              		.size	shell_terminated, 4
 1183              	shell_terminated:
 1184 0000 00000000 		.space	4
 1185              		.text
 1186              	.Letext0:
 1187              		.file 6 "/usr/local/Cellar/gcc-arm-none-eabi-49/20150609/lib/gcc/arm-none-eabi/4.9.3/include/stdde
 1188              		.file 7 "/usr/local/Cellar/gcc-arm-none-eabi-49/20150609/arm-none-eabi/include/machine/_default_ty
 1189              		.file 8 "/usr/local/Cellar/gcc-arm-none-eabi-49/20150609/arm-none-eabi/include/sys/_stdint.h"
 1190              		.file 9 "ChibiOS_16.1.4/os/rt/ports/ARMCMx/compilers/GCC/chtypes.h"
 1191              		.file 10 "ChibiOS_16.1.4/os/rt/include/chsystypes.h"
 1192              		.file 11 "ChibiOS_16.1.4/os/rt/include/chschd.h"
 1193              		.file 12 "ChibiOS_16.1.4/os/rt/ports/ARMCMx/chcore.h"
 1194              		.file 13 "ChibiOS_16.1.4/os/rt/ports/ARMCMx/chcore_v7m.h"
 1195              		.file 14 "ChibiOS_16.1.4/os/rt/include/chtm.h"
 1196              		.file 15 "ChibiOS_16.1.4/os/rt/include/chsem.h"
 1197              		.file 16 "ChibiOS_16.1.4/os/rt/include/chmtx.h"
 1198              		.file 17 "ChibiOS_16.1.4/os/rt/include/chthreads.h"
 1199              		.file 18 "ChibiOS_16.1.4/os/rt/include/chmemcore.h"
 1200              		.file 19 "ChibiOS_16.1.4/os/rt/include/chheap.h"
 1201              		.file 20 "ChibiOS_16.1.4/os/rt/include/chstreams.h"
 1202              		.file 21 "ChibiOS_16.1.4/os/various/shell.h"
 1203              		.file 22 "ChibiOS_16.1.4/os/rt/include/chsys.h"
 1204              		.file 23 "ChibiOS_16.1.4/os/ext/CMSIS/include/core_cm4.h"
 1205              		.file 24 "ChibiOS_16.1.4/os/hal/lib/streams/chprintf.h"
 1206              		.file 25 "/usr/local/Cellar/gcc-arm-none-eabi-49/20150609/arm-none-eabi/include/string.h"
 1207              		.file 26 "ChibiOS_16.1.4/os/rt/include/chdynamic.h"