ARM GAS  /var/folders/m4/4md61f0s1_g0rzfghffqnxvr0000gn/T//cc4KKRZm.s 			page 1


   1              		.syntax unified
   2              		.cpu cortex-m4
   3              		.eabi_attribute 27, 1
   4              		.eabi_attribute 28, 1
   5              		.fpu fpv4-sp-d16
   6              		.eabi_attribute 20, 1
   7              		.eabi_attribute 21, 1
   8              		.eabi_attribute 23, 3
   9              		.eabi_attribute 24, 1
  10              		.eabi_attribute 25, 1
  11              		.eabi_attribute 26, 1
  12              		.eabi_attribute 30, 2
  13              		.eabi_attribute 34, 1
  14              		.eabi_attribute 18, 4
  15              		.thumb
  16              		.file	"st_lld.c"
  17              		.text
  18              	.Ltext0:
  19              		.cfi_sections	.debug_frame
  20              		.section	.text.SysTick_Handler,"ax",%progbits
  21              		.align	2
  22              		.p2align 4,,15
  23              		.global	SysTick_Handler
  24              		.thumb
  25              		.thumb_func
  26              		.type	SysTick_Handler, %function
  27              	SysTick_Handler:
  28              	.LFB268:
  29              		.file 1 "ChibiOS_16.1.4/os/hal/ports/STM32/LLD/TIMv1/st_lld.c"
  30              		.loc 1 220 0
  31              		.cfi_startproc
  32              		@ args = 0, pretend = 0, frame = 0
  33              		@ frame_needed = 0, uses_anonymous_args = 0
  34              	.LVL0:
  35 0000 08B5     		push	{r3, lr}
  36              		.cfi_def_cfa_offset 8
  37              		.cfi_offset 3, -8
  38              		.cfi_offset 14, -4
  39              	.LBB52:
  40              	.LBB53:
  41              	.LBB54:
  42              	.LBB55:
  43              	.LBB56:
  44              	.LBB57:
  45              		.file 2 "ChibiOS_16.1.4/os/ext/CMSIS/include/core_cmFunc.h"
  46              		.loc 2 548 0
  47 0002 2023     		movs	r3, #32
  48              	@ 548 "ChibiOS_16.1.4/os/ext/CMSIS/include/core_cmFunc.h" 1
  49 0004 83F31188 		MSR basepri, r3
  50              	@ 0 "" 2
  51              		.thumb
  52              	.LBE57:
  53              	.LBE56:
  54              	.LBE55:
  55              	.LBE54:
  56              	.LBE53:
  57              	.LBE52:
ARM GAS  /var/folders/m4/4md61f0s1_g0rzfghffqnxvr0000gn/T//cc4KKRZm.s 			page 2


  58              	.LBB58:
  59              	.LBB59:
  60              		.file 3 "ChibiOS_16.1.4/os/hal/osal/rt/osal.h"
  61              		.loc 3 585 0
  62 0008 FFF7FEFF 		bl	chSysTimerHandlerI
  63              	.LVL1:
  64              	.LBE59:
  65              	.LBE58:
  66              	.LBB60:
  67              	.LBB61:
  68              	.LBB62:
  69              	.LBB63:
  70              	.LBB64:
  71              	.LBB65:
  72              		.loc 2 548 0
  73 000c 0023     		movs	r3, #0
  74              	@ 548 "ChibiOS_16.1.4/os/ext/CMSIS/include/core_cmFunc.h" 1
  75 000e 83F31188 		MSR basepri, r3
  76              	@ 0 "" 2
  77              		.thumb
  78              	.LBE65:
  79              	.LBE64:
  80              	.LBE63:
  81              	.LBE62:
  82              	.LBE61:
  83              	.LBE60:
  84              		.loc 1 229 0
  85 0012 BDE80840 		pop	{r3, lr}
  86              		.cfi_restore 14
  87              		.cfi_restore 3
  88              		.cfi_def_cfa_offset 0
  89              		.loc 1 228 0
  90 0016 FFF7FEBF 		b	_port_irq_epilogue
  91              	.LVL2:
  92              		.cfi_endproc
  93              	.LFE268:
  94              		.size	SysTick_Handler, .-SysTick_Handler
  95 001a 00BF     		.section	.text.st_lld_init,"ax",%progbits
  96              		.align	2
  97              		.p2align 4,,15
  98              		.global	st_lld_init
  99              		.thumb
 100              		.thumb_func
 101              		.type	st_lld_init, %function
 102              	st_lld_init:
 103              	.LFB269:
 104              		.loc 1 267 0
 105              		.cfi_startproc
 106              		@ args = 0, pretend = 0, frame = 0
 107              		@ frame_needed = 0, uses_anonymous_args = 0
 108              		@ link register save eliminated.
 109              		.loc 1 295 0
 110 0000 054B     		ldr	r3, .L4
 111 0002 44F29F10 		movw	r0, #16799
 112              		.loc 1 296 0
 113 0006 0021     		movs	r1, #0
 114              		.loc 1 297 0
ARM GAS  /var/folders/m4/4md61f0s1_g0rzfghffqnxvr0000gn/T//cc4KKRZm.s 			page 3


 115 0008 0722     		movs	r2, #7
 116              		.loc 1 295 0
 117 000a 5860     		str	r0, [r3, #4]
 118              		.loc 1 296 0
 119 000c 9960     		str	r1, [r3, #8]
 120              		.loc 1 302 0
 121 000e 0B20     		movs	r0, #11
 122 0010 0821     		movs	r1, #8
 123              		.loc 1 297 0
 124 0012 1A60     		str	r2, [r3]
 125              		.loc 1 302 0
 126 0014 FFF7FEBF 		b	nvicSetSystemHandlerPriority
 127              	.LVL3:
 128              	.L5:
 129              		.align	2
 130              	.L4:
 131 0018 10E000E0 		.word	-536813552
 132              		.cfi_endproc
 133              	.LFE269:
 134              		.size	st_lld_init, .-st_lld_init
 135              		.text
 136              	.Letext0:
 137              		.file 4 "/usr/local/Cellar/gcc-arm-none-eabi-49/20150609/arm-none-eabi/include/machine/_default_ty
 138              		.file 5 "/usr/local/Cellar/gcc-arm-none-eabi-49/20150609/arm-none-eabi/include/sys/_stdint.h"
 139              		.file 6 "ChibiOS_16.1.4/os/rt/ports/ARMCMx/compilers/GCC/chtypes.h"
 140              		.file 7 "ChibiOS_16.1.4/os/rt/include/chsystypes.h"
 141              		.file 8 "ChibiOS_16.1.4/os/rt/include/chschd.h"
 142              		.file 9 "ChibiOS_16.1.4/os/ext/CMSIS/include/core_cm4.h"
 143              		.file 10 "ChibiOS_16.1.4/os/rt/ports/ARMCMx/chcore.h"
 144              		.file 11 "ChibiOS_16.1.4/os/rt/ports/ARMCMx/chcore_v7m.h"
 145              		.file 12 "ChibiOS_16.1.4/os/rt/include/chtm.h"
 146              		.file 13 "ChibiOS_16.1.4/os/rt/include/chsem.h"
 147              		.file 14 "ChibiOS_16.1.4/os/rt/include/chmtx.h"
 148              		.file 15 "ChibiOS_16.1.4/os/rt/include/chsys.h"
 149              		.file 16 "ChibiOS_16.1.4/os/hal/ports/common/ARMCMx/nvic.h"