ARM GAS  /var/folders/m4/4md61f0s1_g0rzfghffqnxvr0000gn/T//cc4KKRZm.s 			page 1


   1              		.syntax unified
   2              		.cpu cortex-m4
   3              		.eabi_attribute 27, 1
   4              		.eabi_attribute 28, 1
   5              		.fpu fpv4-sp-d16
   6              		.eabi_attribute 20, 1
   7              		.eabi_attribute 21, 1
   8              		.eabi_attribute 23, 3
   9              		.eabi_attribute 24, 1
  10              		.eabi_attribute 25, 1
  11              		.eabi_attribute 26, 1
  12              		.eabi_attribute 30, 2
  13              		.eabi_attribute 34, 1
  14              		.eabi_attribute 18, 4
  15              		.thumb
  16              		.file	"st_lld.c"
  17              		.text
  18              	.Ltext0:
  19              		.cfi_sections	.debug_frame
  20              		.section	.text.SysTick_Handler,"ax",%progbits
  21              		.align	2
  22              		.p2align 4,,15
  23              		.global	SysTick_Handler
  24              		.thumb
  25              		.thumb_func
  26              		.type	SysTick_Handler, %function
  27              	SysTick_Handler:
  28              	.LFB268:
  29              		.file 1 "ChibiOS_16.1.4/os/hal/ports/STM32/LLD/TIMv1/st_lld.c"
  30              		.loc 1 220 0
  31              		.cfi_startproc
  32              		@ args = 0, pretend = 0, frame = 0
  33              		@ frame_needed = 0, uses_anonymous_args = 0
  34              	.LVL0:
  35 0000 08B5     		push	{r3, lr}
  36              		.cfi_def_cfa_offset 8
  37              		.cfi_offset 3, -8
  38              		.cfi_offset 14, -4
  39              	.LBB52:
  40              	.LBB53:
  41              	.LBB54:
  42              	.LBB55:
  43              	.LBB56:
  44              	.LBB57:
  45              		.file 2 "ChibiOS_16.1.4/os/ext/CMSIS/include/core_cmFunc.h"
  46              		.loc 2 548 0
  47 0002 2023     		movs	r3, #32
  48              	@ 548 "ChibiOS_16.1.4/os/ext/CMSIS/include/core_cmFunc.h" 1
  49 0004 83F31188 		MSR basepri, r3
  50              	@ 0 "" 2
  51              		.thumb
  52              	.LBE57:
  53              	.LBE56:
  54              	.LBE55:
  55              	.LBE54:
  56              	.LBE53:
  57              	.LBE52:
ARM GAS  /var/folders/m4/4md61f0s1_g0rzfghffqnxvr0000gn/T//cc4KKRZm.s 			page 2


  58              	.LBB58:
  59              	.LBB59:
  60              		.file 3 "ChibiOS_16.1.4/os/hal/osal/rt/osal.h"
  61              		.loc 3 585 0
  62 0008 FFF7FEFF 		bl	chSysTimerHandlerI
  63              	.LVL1:
  64              	.LBE59:
  65              	.LBE58:
  66              	.LBB60:
  67              	.LBB61:
  68              	.LBB62:
  69              	.LBB63:
  70              	.LBB64:
  71              	.LBB65:
  72              		.loc 2 548 0
  73 000c 0023     		movs	r3, #0
  74              	@ 548 "ChibiOS_16.1.4/os/ext/CMSIS/include/core_cmFunc.h" 1
  75 000e 83F31188 		MSR basepri, r3
  76              	@ 0 "" 2
  77              		.thumb
  78              	.LBE65:
  79              	.LBE64:
  80              	.LBE63:
  81              	.LBE62:
  82              	.LBE61:
  83              	.LBE60:
  84              		.loc 1 229 0
  85 0012 BDE80840 		pop	{r3, lr}
  86              		.cfi_restore 14
  87              		.cfi_restore 3
  88              		.cfi_def_cfa_offset 0
  89              		.loc 1 228 0
  90 0016 FFF7FEBF 		b	_port_irq_epilogue
  91              	.LVL2:
  92              		.cfi_endproc
  93              	.LFE268:
  94              		.size	SysTick_Handler, .-SysTick_Handler
  95 001a 00BF     		.section	.text.st_lld_init,"ax",%progbits
  96              		.align	2
  97              		.p2align 4,,15
  98              		.global	st_lld_init
  99              		.thumb
 100              		.thumb_func
 101              		.type	st_lld_init, %function
 102              	st_lld_init:
 103              	.LFB269:
 104              		.loc 1 267 0
 105              		.cfi_startproc
 106              		@ args = 0, pretend = 0, frame = 0
 107              		@ frame_needed = 0, uses_anonymous_args = 0
 108              		@ link register save eliminated.
 109              		.loc 1 295 0
 110 0000 054B     		ldr	r3, .L4
 111 0002 44F29F10 		movw	r0, #16799
 112              		.loc 1 296 0
 113 0006 0021     		movs	r1, #0
 114              		.loc 1 297 0
ARM GAS  /var/folders/m4/4md61f0s1_g0rzfghffqnxvr0000gn/T//cc4KKRZm.s 			page 3


 115 0008 0722     		movs	r2, #7
 116              		.loc 1 295 0
 117 000a 5860     		str	r0, [r3, #4]
 118              		.loc 1 296 0
 119 000c 9960     		str	r1, [r3, #8]
 120              		.loc 1 302 0
 121 000e 0B20     		movs	r0, #11
 122 0010 0821     		movs	r1, #8
 123              		.loc 1 297 0
 124 0012 1A60     		str	r2, [r3]
 125              		.loc 1 302 0
 126 0014 FFF7FEBF 		b	nvicSetSystemHandlerPriority
 127              	.LVL3:
 128              	.L5:
 129              		.align	2
 130              	.L4:
 131 0018 10E000E0 		.word	-536813552
 132              		.cfi_endproc
 133              	.LFE269:
 134              		.size	st_lld_init, .-st_lld_init
 135              		.text
 136              	.Letext0:
 137              		.file 4 "/usr/local/Cellar/gcc-arm-none-eabi-49/20150609/arm-none-eabi/include/machine/_default_ty
 138              		.file 5 "/usr/local/Cellar/gcc-arm-none-eabi-49/20150609/arm-none-eabi/include/sys/_stdint.h"
 139              		.file 6 "ChibiOS_16.1.4/os/rt/ports/ARMCMx/compilers/GCC/chtypes.h"
 140              		.file 7 "ChibiOS_16.1.4/os/rt/include/chsystypes.h"
 141              		.file 8 "ChibiOS_16.1.4/os/rt/include/chschd.h"
 142              		.file 9 "ChibiOS_16.1.4/os/ext/CMSIS/include/core_cm4.h"
 143              		.file 10 "ChibiOS_16.1.4/os/rt/ports/ARMCMx/chcore.h"
 144              		.file 11 "ChibiOS_16.1.4/os/rt/ports/ARMCMx/chcore_v7m.h"
 145              		.file 12 "ChibiOS_16.1.4/os/rt/include/chtm.h"
 146              		.file 13 "ChibiOS_16.1.4/os/rt/include/chsem.h"
 147              		.file 14 "ChibiOS_16.1.4/os/rt/include/chmtx.h"
 148              		.file 15 "ChibiOS_16.1.4/os/rt/include/chsys.h"
 149              		.file 16 "ChibiOS_16.1.4/os/hal/ports/common/ARMCMx/nvic.h"
 150              		.section	.debug_info,"",%progbits
 151              	.Ldebug_info0:
 152 0000 31090000 		.4byte	0x931
 153 0004 0400     		.2byte	0x4
 154 0006 00000000 		.4byte	.Ldebug_abbrev0
 155 000a 04       		.byte	0x4
 156 000b 01       		.uleb128 0x1
 157 000c D9020000 		.4byte	.LASF123
 158 0010 01       		.byte	0x1
 159 0011 12010000 		.4byte	.LASF124
 160 0015 00000000 		.4byte	.LASF125
 161 0019 00000000 		.4byte	.Ldebug_ranges0+0
 162 001d 00000000 		.4byte	0
 163 0021 00000000 		.4byte	.Ldebug_line0
 164 0025 02       		.uleb128 0x2
 165 0026 04       		.byte	0x4
 166 0027 05       		.byte	0x5
 167 0028 696E7400 		.ascii	"int\000"
 168 002c 03       		.uleb128 0x3
 169 002d 04       		.byte	0x4
 170 002e 07       		.byte	0x7
 171 002f 0F020000 		.4byte	.LASF0
ARM GAS  /var/folders/m4/4md61f0s1_g0rzfghffqnxvr0000gn/T//cc4KKRZm.s 			page 4


 172 0033 03       		.uleb128 0x3
 173 0034 01       		.byte	0x1
 174 0035 06       		.byte	0x6
 175 0036 06010000 		.4byte	.LASF1
 176 003a 04       		.uleb128 0x4
 177 003b 4F000000 		.4byte	.LASF5
 178 003f 04       		.byte	0x4
 179 0040 1D       		.byte	0x1d
 180 0041 45000000 		.4byte	0x45
 181 0045 03       		.uleb128 0x3
 182 0046 01       		.byte	0x1
 183 0047 08       		.byte	0x8
 184 0048 D1040000 		.4byte	.LASF2
 185 004c 03       		.uleb128 0x3
 186 004d 02       		.byte	0x2
 187 004e 05       		.byte	0x5
 188 004f F6040000 		.4byte	.LASF3
 189 0053 03       		.uleb128 0x3
 190 0054 02       		.byte	0x2
 191 0055 07       		.byte	0x7
 192 0056 A0010000 		.4byte	.LASF4
 193 005a 04       		.uleb128 0x4
 194 005b A1020000 		.4byte	.LASF6
 195 005f 04       		.byte	0x4
 196 0060 3F       		.byte	0x3f
 197 0061 65000000 		.4byte	0x65
 198 0065 03       		.uleb128 0x3
 199 0066 04       		.byte	0x4
 200 0067 05       		.byte	0x5
 201 0068 7E010000 		.4byte	.LASF7
 202 006c 04       		.uleb128 0x4
 203 006d 07060000 		.4byte	.LASF8
 204 0071 04       		.byte	0x4
 205 0072 41       		.byte	0x41
 206 0073 77000000 		.4byte	0x77
 207 0077 03       		.uleb128 0x3
 208 0078 04       		.byte	0x4
 209 0079 07       		.byte	0x7
 210 007a A5050000 		.4byte	.LASF9
 211 007e 03       		.uleb128 0x3
 212 007f 08       		.byte	0x8
 213 0080 05       		.byte	0x5
 214 0081 F8000000 		.4byte	.LASF10
 215 0085 04       		.uleb128 0x4
 216 0086 6E040000 		.4byte	.LASF11
 217 008a 04       		.byte	0x4
 218 008b 5B       		.byte	0x5b
 219 008c 90000000 		.4byte	0x90
 220 0090 03       		.uleb128 0x3
 221 0091 08       		.byte	0x8
 222 0092 07       		.byte	0x7
 223 0093 7E000000 		.4byte	.LASF12
 224 0097 04       		.uleb128 0x4
 225 0098 A2060000 		.4byte	.LASF13
 226 009c 05       		.byte	0x5
 227 009d 14       		.byte	0x14
 228 009e 3A000000 		.4byte	0x3a
ARM GAS  /var/folders/m4/4md61f0s1_g0rzfghffqnxvr0000gn/T//cc4KKRZm.s 			page 5


 229 00a2 04       		.uleb128 0x4
 230 00a3 C9040000 		.4byte	.LASF14
 231 00a7 05       		.byte	0x5
 232 00a8 1F       		.byte	0x1f
 233 00a9 5A000000 		.4byte	0x5a
 234 00ad 04       		.uleb128 0x4
 235 00ae 7D050000 		.4byte	.LASF15
 236 00b2 05       		.byte	0x5
 237 00b3 20       		.byte	0x20
 238 00b4 6C000000 		.4byte	0x6c
 239 00b8 04       		.uleb128 0x4
 240 00b9 46000000 		.4byte	.LASF16
 241 00bd 05       		.byte	0x5
 242 00be 26       		.byte	0x26
 243 00bf 85000000 		.4byte	0x85
 244 00c3 04       		.uleb128 0x4
 245 00c4 55060000 		.4byte	.LASF17
 246 00c8 06       		.byte	0x6
 247 00c9 39       		.byte	0x39
 248 00ca AD000000 		.4byte	0xad
 249 00ce 04       		.uleb128 0x4
 250 00cf 44050000 		.4byte	.LASF18
 251 00d3 06       		.byte	0x6
 252 00d4 3C       		.byte	0x3c
 253 00d5 97000000 		.4byte	0x97
 254 00d9 04       		.uleb128 0x4
 255 00da 87010000 		.4byte	.LASF19
 256 00de 06       		.byte	0x6
 257 00df 3D       		.byte	0x3d
 258 00e0 97000000 		.4byte	0x97
 259 00e4 04       		.uleb128 0x4
 260 00e5 79040000 		.4byte	.LASF20
 261 00e9 06       		.byte	0x6
 262 00ea 3E       		.byte	0x3e
 263 00eb 97000000 		.4byte	0x97
 264 00ef 04       		.uleb128 0x4
 265 00f0 6A010000 		.4byte	.LASF21
 266 00f4 06       		.byte	0x6
 267 00f5 3F       		.byte	0x3f
 268 00f6 97000000 		.4byte	0x97
 269 00fa 04       		.uleb128 0x4
 270 00fb 98040000 		.4byte	.LASF22
 271 00ff 06       		.byte	0x6
 272 0100 40       		.byte	0x40
 273 0101 AD000000 		.4byte	0xad
 274 0105 04       		.uleb128 0x4
 275 0106 5C020000 		.4byte	.LASF23
 276 010a 06       		.byte	0x6
 277 010b 41       		.byte	0x41
 278 010c A2000000 		.4byte	0xa2
 279 0110 04       		.uleb128 0x4
 280 0111 95020000 		.4byte	.LASF24
 281 0115 06       		.byte	0x6
 282 0116 43       		.byte	0x43
 283 0117 AD000000 		.4byte	0xad
 284 011b 04       		.uleb128 0x4
 285 011c 09020000 		.4byte	.LASF25
ARM GAS  /var/folders/m4/4md61f0s1_g0rzfghffqnxvr0000gn/T//cc4KKRZm.s 			page 6


 286 0120 06       		.byte	0x6
 287 0121 45       		.byte	0x45
 288 0122 A2000000 		.4byte	0xa2
 289 0126 04       		.uleb128 0x4
 290 0127 E1050000 		.4byte	.LASF26
 291 012b 07       		.byte	0x7
 292 012c 33       		.byte	0x33
 293 012d AD000000 		.4byte	0xad
 294 0131 04       		.uleb128 0x4
 295 0132 D1050000 		.4byte	.LASF27
 296 0136 07       		.byte	0x7
 297 0137 3F       		.byte	0x3f
 298 0138 3C010000 		.4byte	0x13c
 299 013c 05       		.uleb128 0x5
 300 013d 52020000 		.4byte	.LASF49
 301 0141 48       		.byte	0x48
 302 0142 08       		.byte	0x8
 303 0143 C2       		.byte	0xc2
 304 0144 41020000 		.4byte	0x241
 305 0148 06       		.uleb128 0x6
 306 0149 3D050000 		.4byte	.LASF28
 307 014d 08       		.byte	0x8
 308 014e C3       		.byte	0xc3
 309 014f 4C020000 		.4byte	0x24c
 310 0153 00       		.byte	0
 311 0154 06       		.uleb128 0x6
 312 0155 91040000 		.4byte	.LASF29
 313 0159 08       		.byte	0x8
 314 015a C5       		.byte	0xc5
 315 015b 4C020000 		.4byte	0x24c
 316 015f 04       		.byte	0x4
 317 0160 06       		.uleb128 0x6
 318 0161 F1000000 		.4byte	.LASF30
 319 0165 08       		.byte	0x8
 320 0166 C7       		.byte	0xc7
 321 0167 FA000000 		.4byte	0xfa
 322 016b 08       		.byte	0x8
 323 016c 06       		.uleb128 0x6
 324 016d DB060000 		.4byte	.LASF31
 325 0171 08       		.byte	0x8
 326 0172 C8       		.byte	0xc8
 327 0173 D0040000 		.4byte	0x4d0
 328 0177 0C       		.byte	0xc
 329 0178 06       		.uleb128 0x6
 330 0179 90010000 		.4byte	.LASF32
 331 017d 08       		.byte	0x8
 332 017e CA       		.byte	0xca
 333 017f 4C020000 		.4byte	0x24c
 334 0183 10       		.byte	0x10
 335 0184 06       		.uleb128 0x6
 336 0185 3D040000 		.4byte	.LASF33
 337 0189 08       		.byte	0x8
 338 018a CB       		.byte	0xcb
 339 018b 4C020000 		.4byte	0x24c
 340 018f 14       		.byte	0x14
 341 0190 06       		.uleb128 0x6
 342 0191 BB060000 		.4byte	.LASF34
ARM GAS  /var/folders/m4/4md61f0s1_g0rzfghffqnxvr0000gn/T//cc4KKRZm.s 			page 7


 343 0195 08       		.byte	0x8
 344 0196 D2       		.byte	0xd2
 345 0197 1E070000 		.4byte	0x71e
 346 019b 18       		.byte	0x18
 347 019c 06       		.uleb128 0x6
 348 019d 00050000 		.4byte	.LASF35
 349 01a1 08       		.byte	0x8
 350 01a2 DD       		.byte	0xdd
 351 01a3 D9000000 		.4byte	0xd9
 352 01a7 1C       		.byte	0x1c
 353 01a8 06       		.uleb128 0x6
 354 01a9 4C050000 		.4byte	.LASF36
 355 01ad 08       		.byte	0x8
 356 01ae E1       		.byte	0xe1
 357 01af CE000000 		.4byte	0xce
 358 01b3 1D       		.byte	0x1d
 359 01b4 06       		.uleb128 0x6
 360 01b5 95060000 		.4byte	.LASF37
 361 01b9 08       		.byte	0x8
 362 01ba E6       		.byte	0xe6
 363 01bb E4000000 		.4byte	0xe4
 364 01bf 1E       		.byte	0x1e
 365 01c0 06       		.uleb128 0x6
 366 01c1 08050000 		.4byte	.LASF38
 367 01c5 08       		.byte	0x8
 368 01c6 EC       		.byte	0xec
 369 01c7 EF000000 		.4byte	0xef
 370 01cb 1F       		.byte	0x1f
 371 01cc 06       		.uleb128 0x6
 372 01cd 24020000 		.4byte	.LASF39
 373 01d1 08       		.byte	0x8
 374 01d2 F3       		.byte	0xf3
 375 01d3 30070000 		.4byte	0x730
 376 01d7 20       		.byte	0x20
 377 01d8 07       		.uleb128 0x7
 378 01d9 705F7500 		.ascii	"p_u\000"
 379 01dd 08       		.byte	0x8
 380 01de 3101     		.2byte	0x131
 381 01e0 59060000 		.4byte	0x659
 382 01e4 24       		.byte	0x24
 383 01e5 08       		.uleb128 0x8
 384 01e6 FB030000 		.4byte	.LASF40
 385 01ea 08       		.byte	0x8
 386 01eb 3601     		.2byte	0x136
 387 01ed 52020000 		.4byte	0x252
 388 01f1 28       		.byte	0x28
 389 01f2 08       		.uleb128 0x8
 390 01f3 3B020000 		.4byte	.LASF41
 391 01f7 08       		.byte	0x8
 392 01f8 3C01     		.2byte	0x13c
 393 01fa 76020000 		.4byte	0x276
 394 01fe 2C       		.byte	0x2c
 395 01ff 08       		.uleb128 0x8
 396 0200 CD060000 		.4byte	.LASF42
 397 0204 08       		.byte	0x8
 398 0205 4001     		.2byte	0x140
 399 0207 05010000 		.4byte	0x105
ARM GAS  /var/folders/m4/4md61f0s1_g0rzfghffqnxvr0000gn/T//cc4KKRZm.s 			page 8


 400 020b 34       		.byte	0x34
 401 020c 08       		.uleb128 0x8
 402 020d 72050000 		.4byte	.LASF43
 403 0211 08       		.byte	0x8
 404 0212 4601     		.2byte	0x146
 405 0214 10010000 		.4byte	0x110
 406 0218 38       		.byte	0x38
 407 0219 08       		.uleb128 0x8
 408 021a EC040000 		.4byte	.LASF44
 409 021e 08       		.byte	0x8
 410 021f 4D01     		.2byte	0x14d
 411 0221 18070000 		.4byte	0x718
 412 0225 3C       		.byte	0x3c
 413 0226 08       		.uleb128 0x8
 414 0227 62020000 		.4byte	.LASF45
 415 022b 08       		.byte	0x8
 416 022c 5101     		.2byte	0x151
 417 022e FA000000 		.4byte	0xfa
 418 0232 40       		.byte	0x40
 419 0233 08       		.uleb128 0x8
 420 0234 47010000 		.4byte	.LASF46
 421 0238 08       		.byte	0x8
 422 0239 5801     		.2byte	0x158
 423 023b 29030000 		.4byte	0x329
 424 023f 44       		.byte	0x44
 425 0240 00       		.byte	0
 426 0241 04       		.uleb128 0x4
 427 0242 0E040000 		.4byte	.LASF47
 428 0246 07       		.byte	0x7
 429 0247 44       		.byte	0x44
 430 0248 4C020000 		.4byte	0x24c
 431 024c 09       		.uleb128 0x9
 432 024d 04       		.byte	0x4
 433 024e 31010000 		.4byte	0x131
 434 0252 04       		.uleb128 0x4
 435 0253 CA020000 		.4byte	.LASF48
 436 0257 07       		.byte	0x7
 437 0258 49       		.byte	0x49
 438 0259 5D020000 		.4byte	0x25d
 439 025d 05       		.uleb128 0x5
 440 025e 95050000 		.4byte	.LASF50
 441 0262 04       		.byte	0x4
 442 0263 08       		.byte	0x8
 443 0264 B0       		.byte	0xb0
 444 0265 76020000 		.4byte	0x276
 445 0269 06       		.uleb128 0x6
 446 026a 3D050000 		.4byte	.LASF28
 447 026e 08       		.byte	0x8
 448 026f B1       		.byte	0xb1
 449 0270 4C020000 		.4byte	0x24c
 450 0274 00       		.byte	0
 451 0275 00       		.byte	0
 452 0276 04       		.uleb128 0x4
 453 0277 7C060000 		.4byte	.LASF51
 454 027b 07       		.byte	0x7
 455 027c 50       		.byte	0x50
 456 027d 81020000 		.4byte	0x281
ARM GAS  /var/folders/m4/4md61f0s1_g0rzfghffqnxvr0000gn/T//cc4KKRZm.s 			page 9


 457 0281 05       		.uleb128 0x5
 458 0282 E0000000 		.4byte	.LASF52
 459 0286 08       		.byte	0x8
 460 0287 08       		.byte	0x8
 461 0288 B7       		.byte	0xb7
 462 0289 A6020000 		.4byte	0x2a6
 463 028d 06       		.uleb128 0x6
 464 028e 3D050000 		.4byte	.LASF28
 465 0292 08       		.byte	0x8
 466 0293 B8       		.byte	0xb8
 467 0294 4C020000 		.4byte	0x24c
 468 0298 00       		.byte	0
 469 0299 06       		.uleb128 0x6
 470 029a 91040000 		.4byte	.LASF29
 471 029e 08       		.byte	0x8
 472 029f B9       		.byte	0xb9
 473 02a0 4C020000 		.4byte	0x24c
 474 02a4 04       		.byte	0x4
 475 02a5 00       		.byte	0
 476 02a6 04       		.uleb128 0x4
 477 02a7 2C000000 		.4byte	.LASF53
 478 02ab 07       		.byte	0x7
 479 02ac 57       		.byte	0x57
 480 02ad B1020000 		.4byte	0x2b1
 481 02b1 0A       		.uleb128 0xa
 482 02b2 87020000 		.4byte	.LASF54
 483 02b6 1C       		.byte	0x1c
 484 02b7 08       		.byte	0x8
 485 02b8 9001     		.2byte	0x190
 486 02ba 0D030000 		.4byte	0x30d
 487 02be 08       		.uleb128 0x8
 488 02bf 8D050000 		.4byte	.LASF55
 489 02c3 08       		.byte	0x8
 490 02c4 9101     		.2byte	0x191
 491 02c6 76020000 		.4byte	0x276
 492 02ca 00       		.byte	0
 493 02cb 08       		.uleb128 0x8
 494 02cc 2F050000 		.4byte	.LASF56
 495 02d0 08       		.byte	0x8
 496 02d1 9201     		.2byte	0x192
 497 02d3 FA000000 		.4byte	0xfa
 498 02d7 08       		.byte	0x8
 499 02d8 08       		.uleb128 0x8
 500 02d9 45040000 		.4byte	.LASF57
 501 02dd 08       		.byte	0x8
 502 02de 9401     		.2byte	0x194
 503 02e0 D0040000 		.4byte	0x4d0
 504 02e4 0C       		.byte	0xc
 505 02e5 08       		.uleb128 0x8
 506 02e6 C0010000 		.4byte	.LASF58
 507 02ea 08       		.byte	0x8
 508 02eb 9701     		.2byte	0x197
 509 02ed 4C020000 		.4byte	0x24c
 510 02f1 10       		.byte	0x10
 511 02f2 08       		.uleb128 0x8
 512 02f3 66040000 		.4byte	.LASF59
 513 02f7 08       		.byte	0x8
ARM GAS  /var/folders/m4/4md61f0s1_g0rzfghffqnxvr0000gn/T//cc4KKRZm.s 			page 10


 514 02f8 9801     		.2byte	0x198
 515 02fa 4C020000 		.4byte	0x24c
 516 02fe 14       		.byte	0x14
 517 02ff 08       		.uleb128 0x8
 518 0300 5C040000 		.4byte	.LASF60
 519 0304 08       		.byte	0x8
 520 0305 9B01     		.2byte	0x19b
 521 0307 4C020000 		.4byte	0x24c
 522 030b 18       		.byte	0x18
 523 030c 00       		.byte	0
 524 030d 04       		.uleb128 0x4
 525 030e FE050000 		.4byte	.LASF61
 526 0312 07       		.byte	0x7
 527 0313 5C       		.byte	0x5c
 528 0314 18030000 		.4byte	0x318
 529 0318 09       		.uleb128 0x9
 530 0319 04       		.byte	0x4
 531 031a 1E030000 		.4byte	0x31e
 532 031e 0B       		.uleb128 0xb
 533 031f 29030000 		.4byte	0x329
 534 0323 0C       		.uleb128 0xc
 535 0324 29030000 		.4byte	0x329
 536 0328 00       		.byte	0
 537 0329 0D       		.uleb128 0xd
 538 032a 04       		.byte	0x4
 539 032b 04       		.uleb128 0x4
 540 032c 81040000 		.4byte	.LASF62
 541 0330 07       		.byte	0x7
 542 0331 61       		.byte	0x61
 543 0332 36030000 		.4byte	0x336
 544 0336 0A       		.uleb128 0xa
 545 0337 54050000 		.4byte	.LASF63
 546 033b 14       		.byte	0x14
 547 033c 08       		.byte	0x8
 548 033d 6B01     		.2byte	0x16b
 549 033f 85030000 		.4byte	0x385
 550 0343 08       		.uleb128 0x8
 551 0344 1C020000 		.4byte	.LASF64
 552 0348 08       		.byte	0x8
 553 0349 6C01     		.2byte	0x16c
 554 034b 35070000 		.4byte	0x735
 555 034f 00       		.byte	0
 556 0350 08       		.uleb128 0x8
 557 0351 D1010000 		.4byte	.LASF65
 558 0355 08       		.byte	0x8
 559 0356 6D01     		.2byte	0x16d
 560 0358 35070000 		.4byte	0x735
 561 035c 04       		.byte	0x4
 562 035d 08       		.uleb128 0x8
 563 035e 32020000 		.4byte	.LASF66
 564 0362 08       		.byte	0x8
 565 0363 6E01     		.2byte	0x16e
 566 0365 26010000 		.4byte	0x126
 567 0369 08       		.byte	0x8
 568 036a 08       		.uleb128 0x8
 569 036b E1060000 		.4byte	.LASF67
 570 036f 08       		.byte	0x8
ARM GAS  /var/folders/m4/4md61f0s1_g0rzfghffqnxvr0000gn/T//cc4KKRZm.s 			page 11


 571 0370 6F01     		.2byte	0x16f
 572 0372 0D030000 		.4byte	0x30d
 573 0376 0C       		.byte	0xc
 574 0377 08       		.uleb128 0x8
 575 0378 75060000 		.4byte	.LASF68
 576 037c 08       		.byte	0x8
 577 037d 7101     		.2byte	0x171
 578 037f 29030000 		.4byte	0x329
 579 0383 10       		.byte	0x10
 580 0384 00       		.byte	0
 581 0385 04       		.uleb128 0x4
 582 0386 A9000000 		.4byte	.LASF69
 583 038a 07       		.byte	0x7
 584 038b 66       		.byte	0x66
 585 038c 90030000 		.4byte	0x390
 586 0390 0A       		.uleb128 0xa
 587 0391 26040000 		.4byte	.LASF70
 588 0395 10       		.byte	0x10
 589 0396 08       		.byte	0x8
 590 0397 7B01     		.2byte	0x17b
 591 0399 D2030000 		.4byte	0x3d2
 592 039d 08       		.uleb128 0x8
 593 039e 1C020000 		.4byte	.LASF64
 594 03a2 08       		.byte	0x8
 595 03a3 7C01     		.2byte	0x17c
 596 03a5 35070000 		.4byte	0x735
 597 03a9 00       		.byte	0
 598 03aa 08       		.uleb128 0x8
 599 03ab D1010000 		.4byte	.LASF65
 600 03af 08       		.byte	0x8
 601 03b0 7E01     		.2byte	0x17e
 602 03b2 35070000 		.4byte	0x735
 603 03b6 04       		.byte	0x4
 604 03b7 08       		.uleb128 0x8
 605 03b8 32020000 		.4byte	.LASF66
 606 03bc 08       		.byte	0x8
 607 03bd 8001     		.2byte	0x180
 608 03bf 26010000 		.4byte	0x126
 609 03c3 08       		.byte	0x8
 610 03c4 08       		.uleb128 0x8
 611 03c5 C2060000 		.4byte	.LASF71
 612 03c9 08       		.byte	0x8
 613 03ca 8201     		.2byte	0x182
 614 03cc 30070000 		.4byte	0x730
 615 03d0 0C       		.byte	0xc
 616 03d1 00       		.byte	0
 617 03d2 04       		.uleb128 0x4
 618 03d3 65000000 		.4byte	.LASF72
 619 03d7 07       		.byte	0x7
 620 03d8 6B       		.byte	0x6b
 621 03d9 DD030000 		.4byte	0x3dd
 622 03dd 0A       		.uleb128 0xa
 623 03de B3040000 		.4byte	.LASF73
 624 03e2 04       		.byte	0x4
 625 03e3 08       		.byte	0x8
 626 03e4 A201     		.2byte	0x1a2
 627 03e6 F8030000 		.4byte	0x3f8
ARM GAS  /var/folders/m4/4md61f0s1_g0rzfghffqnxvr0000gn/T//cc4KKRZm.s 			page 12


 628 03ea 08       		.uleb128 0x8
 629 03eb 20060000 		.4byte	.LASF74
 630 03ef 08       		.byte	0x8
 631 03f0 AA01     		.2byte	0x1aa
 632 03f2 3B070000 		.4byte	0x73b
 633 03f6 00       		.byte	0
 634 03f7 00       		.byte	0
 635 03f8 04       		.uleb128 0x4
 636 03f9 49060000 		.4byte	.LASF75
 637 03fd 07       		.byte	0x7
 638 03fe 70       		.byte	0x70
 639 03ff 03040000 		.4byte	0x403
 640 0403 0E       		.uleb128 0xe
 641 0404 74010000 		.4byte	.LASF76
 642 0408 5802     		.2byte	0x258
 643 040a 08       		.byte	0x8
 644 040b C201     		.2byte	0x1c2
 645 040d 5F040000 		.4byte	0x45f
 646 0411 08       		.uleb128 0x8
 647 0412 9C060000 		.4byte	.LASF77
 648 0416 08       		.byte	0x8
 649 0417 C601     		.2byte	0x1c6
 650 0419 A6020000 		.4byte	0x2a6
 651 041d 00       		.byte	0
 652 041e 08       		.uleb128 0x8
 653 041f 57010000 		.4byte	.LASF78
 654 0423 08       		.byte	0x8
 655 0424 CA01     		.2byte	0x1ca
 656 0426 85030000 		.4byte	0x385
 657 042a 1C       		.byte	0x1c
 658 042b 07       		.uleb128 0x7
 659 042c 64626700 		.ascii	"dbg\000"
 660 0430 08       		.byte	0x8
 661 0431 CE01     		.2byte	0x1ce
 662 0433 D2030000 		.4byte	0x3d2
 663 0437 2C       		.byte	0x2c
 664 0438 08       		.uleb128 0x8
 665 0439 9E000000 		.4byte	.LASF79
 666 043d 08       		.byte	0x8
 667 043e D201     		.2byte	0x1d2
 668 0440 31010000 		.4byte	0x131
 669 0444 30       		.byte	0x30
 670 0445 07       		.uleb128 0x7
 671 0446 746D00   		.ascii	"tm\000"
 672 0449 08       		.byte	0x8
 673 044a D701     		.2byte	0x1d7
 674 044c 4E060000 		.4byte	0x64e
 675 0450 78       		.byte	0x78
 676 0451 08       		.uleb128 0x8
 677 0452 FA010000 		.4byte	.LASF80
 678 0456 08       		.byte	0x8
 679 0457 E301     		.2byte	0x1e3
 680 0459 40070000 		.4byte	0x740
 681 045d 80       		.byte	0x80
 682 045e 00       		.byte	0
 683 045f 03       		.uleb128 0x3
 684 0460 04       		.byte	0x4
ARM GAS  /var/folders/m4/4md61f0s1_g0rzfghffqnxvr0000gn/T//cc4KKRZm.s 			page 13


 685 0461 07       		.byte	0x7
 686 0462 05040000 		.4byte	.LASF81
 687 0466 0F       		.uleb128 0xf
 688 0467 AD000000 		.4byte	0xad
 689 046b 10       		.uleb128 0x10
 690 046c 66040000 		.4byte	0x466
 691 0470 11       		.uleb128 0x11
 692 0471 10       		.byte	0x10
 693 0472 09       		.byte	0x9
 694 0473 BF02     		.2byte	0x2bf
 695 0475 AE040000 		.4byte	0x4ae
 696 0479 08       		.uleb128 0x8
 697 047a 70060000 		.4byte	.LASF82
 698 047e 09       		.byte	0x9
 699 047f C102     		.2byte	0x2c1
 700 0481 66040000 		.4byte	0x466
 701 0485 00       		.byte	0
 702 0486 08       		.uleb128 0x8
 703 0487 21040000 		.4byte	.LASF83
 704 048b 09       		.byte	0x9
 705 048c C202     		.2byte	0x2c2
 706 048e 66040000 		.4byte	0x466
 707 0492 04       		.byte	0x4
 708 0493 07       		.uleb128 0x7
 709 0494 56414C00 		.ascii	"VAL\000"
 710 0498 09       		.byte	0x9
 711 0499 C302     		.2byte	0x2c3
 712 049b 66040000 		.4byte	0x466
 713 049f 08       		.byte	0x8
 714 04a0 08       		.uleb128 0x8
 715 04a1 4C020000 		.4byte	.LASF84
 716 04a5 09       		.byte	0x9
 717 04a6 C402     		.2byte	0x2c4
 718 04a8 6B040000 		.4byte	0x46b
 719 04ac 0C       		.byte	0xc
 720 04ad 00       		.byte	0
 721 04ae 12       		.uleb128 0x12
 722 04af B3010000 		.4byte	.LASF85
 723 04b3 09       		.byte	0x9
 724 04b4 C502     		.2byte	0x2c5
 725 04b6 70040000 		.4byte	0x470
 726 04ba 04       		.uleb128 0x4
 727 04bb C8010000 		.4byte	.LASF86
 728 04bf 0A       		.byte	0xa
 729 04c0 65       		.byte	0x65
 730 04c1 29030000 		.4byte	0x329
 731 04c5 04       		.uleb128 0x4
 732 04c6 AB020000 		.4byte	.LASF87
 733 04ca 0A       		.byte	0xa
 734 04cb 6D       		.byte	0x6d
 735 04cc B8000000 		.4byte	0xb8
 736 04d0 05       		.uleb128 0x5
 737 04d1 31060000 		.4byte	.LASF88
 738 04d5 04       		.byte	0x4
 739 04d6 0A       		.byte	0xa
 740 04d7 89       		.byte	0x89
 741 04d8 E9040000 		.4byte	0x4e9
ARM GAS  /var/folders/m4/4md61f0s1_g0rzfghffqnxvr0000gn/T//cc4KKRZm.s 			page 14


 742 04dc 13       		.uleb128 0x13
 743 04dd 72313300 		.ascii	"r13\000"
 744 04e1 0A       		.byte	0xa
 745 04e2 8A       		.byte	0x8a
 746 04e3 33060000 		.4byte	0x633
 747 04e7 00       		.byte	0
 748 04e8 00       		.byte	0
 749 04e9 05       		.uleb128 0x5
 750 04ea 59000000 		.4byte	.LASF89
 751 04ee 64       		.byte	0x64
 752 04ef 0B       		.byte	0xb
 753 04f0 FD       		.byte	0xfd
 754 04f1 33060000 		.4byte	0x633
 755 04f5 13       		.uleb128 0x13
 756 04f6 73313600 		.ascii	"s16\000"
 757 04fa 0B       		.byte	0xb
 758 04fb FF       		.byte	0xff
 759 04fc BA040000 		.4byte	0x4ba
 760 0500 00       		.byte	0
 761 0501 07       		.uleb128 0x7
 762 0502 73313700 		.ascii	"s17\000"
 763 0506 0B       		.byte	0xb
 764 0507 0001     		.2byte	0x100
 765 0509 BA040000 		.4byte	0x4ba
 766 050d 04       		.byte	0x4
 767 050e 07       		.uleb128 0x7
 768 050f 73313800 		.ascii	"s18\000"
 769 0513 0B       		.byte	0xb
 770 0514 0101     		.2byte	0x101
 771 0516 BA040000 		.4byte	0x4ba
 772 051a 08       		.byte	0x8
 773 051b 07       		.uleb128 0x7
 774 051c 73313900 		.ascii	"s19\000"
 775 0520 0B       		.byte	0xb
 776 0521 0201     		.2byte	0x102
 777 0523 BA040000 		.4byte	0x4ba
 778 0527 0C       		.byte	0xc
 779 0528 07       		.uleb128 0x7
 780 0529 73323000 		.ascii	"s20\000"
 781 052d 0B       		.byte	0xb
 782 052e 0301     		.2byte	0x103
 783 0530 BA040000 		.4byte	0x4ba
 784 0534 10       		.byte	0x10
 785 0535 07       		.uleb128 0x7
 786 0536 73323100 		.ascii	"s21\000"
 787 053a 0B       		.byte	0xb
 788 053b 0401     		.2byte	0x104
 789 053d BA040000 		.4byte	0x4ba
 790 0541 14       		.byte	0x14
 791 0542 07       		.uleb128 0x7
 792 0543 73323200 		.ascii	"s22\000"
 793 0547 0B       		.byte	0xb
 794 0548 0501     		.2byte	0x105
 795 054a BA040000 		.4byte	0x4ba
 796 054e 18       		.byte	0x18
 797 054f 07       		.uleb128 0x7
 798 0550 73323300 		.ascii	"s23\000"
ARM GAS  /var/folders/m4/4md61f0s1_g0rzfghffqnxvr0000gn/T//cc4KKRZm.s 			page 15


 799 0554 0B       		.byte	0xb
 800 0555 0601     		.2byte	0x106
 801 0557 BA040000 		.4byte	0x4ba
 802 055b 1C       		.byte	0x1c
 803 055c 07       		.uleb128 0x7
 804 055d 73323400 		.ascii	"s24\000"
 805 0561 0B       		.byte	0xb
 806 0562 0701     		.2byte	0x107
 807 0564 BA040000 		.4byte	0x4ba
 808 0568 20       		.byte	0x20
 809 0569 07       		.uleb128 0x7
 810 056a 73323500 		.ascii	"s25\000"
 811 056e 0B       		.byte	0xb
 812 056f 0801     		.2byte	0x108
 813 0571 BA040000 		.4byte	0x4ba
 814 0575 24       		.byte	0x24
 815 0576 07       		.uleb128 0x7
 816 0577 73323600 		.ascii	"s26\000"
 817 057b 0B       		.byte	0xb
 818 057c 0901     		.2byte	0x109
 819 057e BA040000 		.4byte	0x4ba
 820 0582 28       		.byte	0x28
 821 0583 07       		.uleb128 0x7
 822 0584 73323700 		.ascii	"s27\000"
 823 0588 0B       		.byte	0xb
 824 0589 0A01     		.2byte	0x10a
 825 058b BA040000 		.4byte	0x4ba
 826 058f 2C       		.byte	0x2c
 827 0590 07       		.uleb128 0x7
 828 0591 73323800 		.ascii	"s28\000"
 829 0595 0B       		.byte	0xb
 830 0596 0B01     		.2byte	0x10b
 831 0598 BA040000 		.4byte	0x4ba
 832 059c 30       		.byte	0x30
 833 059d 07       		.uleb128 0x7
 834 059e 73323900 		.ascii	"s29\000"
 835 05a2 0B       		.byte	0xb
 836 05a3 0C01     		.2byte	0x10c
 837 05a5 BA040000 		.4byte	0x4ba
 838 05a9 34       		.byte	0x34
 839 05aa 07       		.uleb128 0x7
 840 05ab 73333000 		.ascii	"s30\000"
 841 05af 0B       		.byte	0xb
 842 05b0 0D01     		.2byte	0x10d
 843 05b2 BA040000 		.4byte	0x4ba
 844 05b6 38       		.byte	0x38
 845 05b7 07       		.uleb128 0x7
 846 05b8 73333100 		.ascii	"s31\000"
 847 05bc 0B       		.byte	0xb
 848 05bd 0E01     		.2byte	0x10e
 849 05bf BA040000 		.4byte	0x4ba
 850 05c3 3C       		.byte	0x3c
 851 05c4 07       		.uleb128 0x7
 852 05c5 723400   		.ascii	"r4\000"
 853 05c8 0B       		.byte	0xb
 854 05c9 1001     		.2byte	0x110
 855 05cb BA040000 		.4byte	0x4ba
ARM GAS  /var/folders/m4/4md61f0s1_g0rzfghffqnxvr0000gn/T//cc4KKRZm.s 			page 16


 856 05cf 40       		.byte	0x40
 857 05d0 07       		.uleb128 0x7
 858 05d1 723500   		.ascii	"r5\000"
 859 05d4 0B       		.byte	0xb
 860 05d5 1101     		.2byte	0x111
 861 05d7 BA040000 		.4byte	0x4ba
 862 05db 44       		.byte	0x44
 863 05dc 07       		.uleb128 0x7
 864 05dd 723600   		.ascii	"r6\000"
 865 05e0 0B       		.byte	0xb
 866 05e1 1201     		.2byte	0x112
 867 05e3 BA040000 		.4byte	0x4ba
 868 05e7 48       		.byte	0x48
 869 05e8 07       		.uleb128 0x7
 870 05e9 723700   		.ascii	"r7\000"
 871 05ec 0B       		.byte	0xb
 872 05ed 1301     		.2byte	0x113
 873 05ef BA040000 		.4byte	0x4ba
 874 05f3 4C       		.byte	0x4c
 875 05f4 07       		.uleb128 0x7
 876 05f5 723800   		.ascii	"r8\000"
 877 05f8 0B       		.byte	0xb
 878 05f9 1401     		.2byte	0x114
 879 05fb BA040000 		.4byte	0x4ba
 880 05ff 50       		.byte	0x50
 881 0600 07       		.uleb128 0x7
 882 0601 723900   		.ascii	"r9\000"
 883 0604 0B       		.byte	0xb
 884 0605 1501     		.2byte	0x115
 885 0607 BA040000 		.4byte	0x4ba
 886 060b 54       		.byte	0x54
 887 060c 07       		.uleb128 0x7
 888 060d 72313000 		.ascii	"r10\000"
 889 0611 0B       		.byte	0xb
 890 0612 1601     		.2byte	0x116
 891 0614 BA040000 		.4byte	0x4ba
 892 0618 58       		.byte	0x58
 893 0619 07       		.uleb128 0x7
 894 061a 72313100 		.ascii	"r11\000"
 895 061e 0B       		.byte	0xb
 896 061f 1701     		.2byte	0x117
 897 0621 BA040000 		.4byte	0x4ba
 898 0625 5C       		.byte	0x5c
 899 0626 07       		.uleb128 0x7
 900 0627 6C7200   		.ascii	"lr\000"
 901 062a 0B       		.byte	0xb
 902 062b 1801     		.2byte	0x118
 903 062d BA040000 		.4byte	0x4ba
 904 0631 60       		.byte	0x60
 905 0632 00       		.byte	0
 906 0633 09       		.uleb128 0x9
 907 0634 04       		.byte	0x4
 908 0635 E9040000 		.4byte	0x4e9
 909 0639 14       		.uleb128 0x14
 910 063a 04       		.byte	0x4
 911 063b 0C       		.byte	0xc
 912 063c 38       		.byte	0x38
ARM GAS  /var/folders/m4/4md61f0s1_g0rzfghffqnxvr0000gn/T//cc4KKRZm.s 			page 17


 913 063d 4E060000 		.4byte	0x64e
 914 0641 06       		.uleb128 0x6
 915 0642 2A060000 		.4byte	.LASF90
 916 0646 0C       		.byte	0xc
 917 0647 3C       		.byte	0x3c
 918 0648 C3000000 		.4byte	0xc3
 919 064c 00       		.byte	0
 920 064d 00       		.byte	0
 921 064e 04       		.uleb128 0x4
 922 064f 4B040000 		.4byte	.LASF91
 923 0653 0C       		.byte	0xc
 924 0654 3D       		.byte	0x3d
 925 0655 39060000 		.4byte	0x639
 926 0659 15       		.uleb128 0x15
 927 065a 04       		.byte	0x4
 928 065b 08       		.byte	0x8
 929 065c FA       		.byte	0xfa
 930 065d B6060000 		.4byte	0x6b6
 931 0661 16       		.uleb128 0x16
 932 0662 3F000000 		.4byte	.LASF92
 933 0666 08       		.byte	0x8
 934 0667 0101     		.2byte	0x101
 935 0669 05010000 		.4byte	0x105
 936 066d 16       		.uleb128 0x16
 937 066e 95000000 		.4byte	.LASF93
 938 0672 08       		.byte	0x8
 939 0673 0801     		.2byte	0x108
 940 0675 05010000 		.4byte	0x105
 941 0679 16       		.uleb128 0x16
 942 067a 80020000 		.4byte	.LASF94
 943 067e 08       		.byte	0x8
 944 067f 0F01     		.2byte	0x10f
 945 0681 29030000 		.4byte	0x329
 946 0685 16       		.uleb128 0x16
 947 0686 39000000 		.4byte	.LASF95
 948 068a 08       		.byte	0x8
 949 068b 1601     		.2byte	0x116
 950 068d B6060000 		.4byte	0x6b6
 951 0691 16       		.uleb128 0x16
 952 0692 2B020000 		.4byte	.LASF96
 953 0696 08       		.byte	0x8
 954 0697 1E01     		.2byte	0x11e
 955 0699 E1060000 		.4byte	0x6e1
 956 069d 16       		.uleb128 0x16
 957 069e 86050000 		.4byte	.LASF97
 958 06a2 08       		.byte	0x8
 959 06a3 2701     		.2byte	0x127
 960 06a5 18070000 		.4byte	0x718
 961 06a9 16       		.uleb128 0x16
 962 06aa 36050000 		.4byte	.LASF98
 963 06ae 08       		.byte	0x8
 964 06af 2F01     		.2byte	0x12f
 965 06b1 10010000 		.4byte	0x110
 966 06b5 00       		.byte	0
 967 06b6 09       		.uleb128 0x9
 968 06b7 04       		.byte	0x4
 969 06b8 41020000 		.4byte	0x241
ARM GAS  /var/folders/m4/4md61f0s1_g0rzfghffqnxvr0000gn/T//cc4KKRZm.s 			page 18


 970 06bc 05       		.uleb128 0x5
 971 06bd 65050000 		.4byte	.LASF99
 972 06c1 0C       		.byte	0xc
 973 06c2 0D       		.byte	0xd
 974 06c3 34       		.byte	0x34
 975 06c4 E1060000 		.4byte	0x6e1
 976 06c8 06       		.uleb128 0x6
 977 06c9 98010000 		.4byte	.LASF100
 978 06cd 0D       		.byte	0xd
 979 06ce 35       		.byte	0x35
 980 06cf 76020000 		.4byte	0x276
 981 06d3 00       		.byte	0
 982 06d4 06       		.uleb128 0x6
 983 06d5 46020000 		.4byte	.LASF101
 984 06d9 0D       		.byte	0xd
 985 06da 37       		.byte	0x37
 986 06db 1B010000 		.4byte	0x11b
 987 06df 08       		.byte	0x8
 988 06e0 00       		.byte	0
 989 06e1 09       		.uleb128 0x9
 990 06e2 04       		.byte	0x4
 991 06e3 BC060000 		.4byte	0x6bc
 992 06e7 05       		.uleb128 0x5
 993 06e8 8C060000 		.4byte	.LASF102
 994 06ec 10       		.byte	0x10
 995 06ed 0E       		.byte	0xe
 996 06ee 39       		.byte	0x39
 997 06ef 18070000 		.4byte	0x718
 998 06f3 06       		.uleb128 0x6
 999 06f4 4F010000 		.4byte	.LASF103
 1000 06f8 0E       		.byte	0xe
 1001 06f9 3A       		.byte	0x3a
 1002 06fa 76020000 		.4byte	0x276
 1003 06fe 00       		.byte	0
 1004 06ff 06       		.uleb128 0x6
 1005 0700 D3060000 		.4byte	.LASF104
 1006 0704 0E       		.byte	0xe
 1007 0705 3C       		.byte	0x3c
 1008 0706 4C020000 		.4byte	0x24c
 1009 070a 08       		.byte	0x8
 1010 070b 06       		.uleb128 0x6
 1011 070c DA050000 		.4byte	.LASF105
 1012 0710 0E       		.byte	0xe
 1013 0711 3E       		.byte	0x3e
 1014 0712 5B070000 		.4byte	0x75b
 1015 0716 0C       		.byte	0xc
 1016 0717 00       		.byte	0
 1017 0718 09       		.uleb128 0x9
 1018 0719 04       		.byte	0x4
 1019 071a E7060000 		.4byte	0x6e7
 1020 071e 09       		.uleb128 0x9
 1021 071f 04       		.byte	0x4
 1022 0720 24070000 		.4byte	0x724
 1023 0724 10       		.uleb128 0x10
 1024 0725 29070000 		.4byte	0x729
 1025 0729 03       		.uleb128 0x3
 1026 072a 01       		.byte	0x1
ARM GAS  /var/folders/m4/4md61f0s1_g0rzfghffqnxvr0000gn/T//cc4KKRZm.s 			page 19


 1027 072b 08       		.byte	0x8
 1028 072c B7050000 		.4byte	.LASF106
 1029 0730 0F       		.uleb128 0xf
 1030 0731 26010000 		.4byte	0x126
 1031 0735 09       		.uleb128 0x9
 1032 0736 04       		.byte	0x4
 1033 0737 2B030000 		.4byte	0x32b
 1034 073b 0F       		.uleb128 0xf
 1035 073c 1E070000 		.4byte	0x71e
 1036 0740 17       		.uleb128 0x17
 1037 0741 C5040000 		.4byte	0x4c5
 1038 0745 50070000 		.4byte	0x750
 1039 0749 18       		.uleb128 0x18
 1040 074a 5F040000 		.4byte	0x45f
 1041 074e 3A       		.byte	0x3a
 1042 074f 00       		.byte	0
 1043 0750 04       		.uleb128 0x4
 1044 0751 EC010000 		.4byte	.LASF107
 1045 0755 0E       		.byte	0xe
 1046 0756 34       		.byte	0x34
 1047 0757 E7060000 		.4byte	0x6e7
 1048 075b 09       		.uleb128 0x9
 1049 075c 04       		.byte	0x4
 1050 075d 50070000 		.4byte	0x750
 1051 0761 03       		.uleb128 0x3
 1052 0762 01       		.byte	0x1
 1053 0763 02       		.byte	0x2
 1054 0764 C3040000 		.4byte	.LASF108
 1055 0768 19       		.uleb128 0x19
 1056 0769 12060000 		.4byte	.LASF126
 1057 076d 02       		.byte	0x2
 1058 076e 2202     		.2byte	0x222
 1059 0770 03       		.byte	0x3
 1060 0771 82070000 		.4byte	0x782
 1061 0775 1A       		.uleb128 0x1a
 1062 0776 F4010000 		.4byte	.LASF127
 1063 077a 02       		.byte	0x2
 1064 077b 2202     		.2byte	0x222
 1065 077d AD000000 		.4byte	0xad
 1066 0781 00       		.byte	0
 1067 0782 1B       		.uleb128 0x1b
 1068 0783 74000000 		.4byte	.LASF109
 1069 0787 0B       		.byte	0xb
 1070 0788 C801     		.2byte	0x1c8
 1071 078a 03       		.byte	0x3
 1072 078b 1B       		.uleb128 0x1b
 1073 078c 5E010000 		.4byte	.LASF110
 1074 0790 0B       		.byte	0xb
 1075 0791 E001     		.2byte	0x1e0
 1076 0793 03       		.byte	0x3
 1077 0794 1B       		.uleb128 0x1b
 1078 0795 5D060000 		.4byte	.LASF111
 1079 0799 0B       		.byte	0xb
 1080 079a EF01     		.2byte	0x1ef
 1081 079c 03       		.byte	0x3
 1082 079d 1B       		.uleb128 0x1b
 1083 079e BC050000 		.4byte	.LASF112
ARM GAS  /var/folders/m4/4md61f0s1_g0rzfghffqnxvr0000gn/T//cc4KKRZm.s 			page 20


 1084 07a2 0B       		.byte	0xb
 1085 07a3 FA01     		.2byte	0x1fa
 1086 07a5 03       		.byte	0x3
 1087 07a6 1B       		.uleb128 0x1b
 1088 07a7 AA060000 		.4byte	.LASF113
 1089 07ab 0F       		.byte	0xf
 1090 07ac 8201     		.2byte	0x182
 1091 07ae 03       		.byte	0x3
 1092 07af 1B       		.uleb128 0x1b
 1093 07b0 A0040000 		.4byte	.LASF114
 1094 07b4 0F       		.byte	0xf
 1095 07b5 9601     		.2byte	0x196
 1096 07b7 03       		.byte	0x3
 1097 07b8 1B       		.uleb128 0x1b
 1098 07b9 D9010000 		.4byte	.LASF115
 1099 07bd 03       		.byte	0x3
 1100 07be 0102     		.2byte	0x201
 1101 07c0 03       		.byte	0x3
 1102 07c1 1B       		.uleb128 0x1b
 1103 07c2 B6020000 		.4byte	.LASF116
 1104 07c6 03       		.byte	0x3
 1105 07c7 4702     		.2byte	0x247
 1106 07c9 03       		.byte	0x3
 1107 07ca 1B       		.uleb128 0x1b
 1108 07cb BF000000 		.4byte	.LASF117
 1109 07cf 03       		.byte	0x3
 1110 07d0 0C02     		.2byte	0x20c
 1111 07d2 03       		.byte	0x3
 1112 07d3 1C       		.uleb128 0x1c
 1113 07d4 39060000 		.4byte	.LASF118
 1114 07d8 01       		.byte	0x1
 1115 07d9 DC       		.byte	0xdc
 1116 07da 00000000 		.4byte	.LFB268
 1117 07de 1A000000 		.4byte	.LFE268-.LFB268
 1118 07e2 01       		.uleb128 0x1
 1119 07e3 9C       		.byte	0x9c
 1120 07e4 CB080000 		.4byte	0x8cb
 1121 07e8 1D       		.uleb128 0x1d
 1122 07e9 B8070000 		.4byte	0x7b8
 1123 07ed 02000000 		.4byte	.LBB52
 1124 07f1 06000000 		.4byte	.LBE52-.LBB52
 1125 07f5 01       		.byte	0x1
 1126 07f6 E0       		.byte	0xe0
 1127 07f7 46080000 		.4byte	0x846
 1128 07fb 1E       		.uleb128 0x1e
 1129 07fc A6070000 		.4byte	0x7a6
 1130 0800 02000000 		.4byte	.LBB53
 1131 0804 06000000 		.4byte	.LBE53-.LBB53
 1132 0808 03       		.byte	0x3
 1133 0809 0302     		.2byte	0x203
 1134 080b 1E       		.uleb128 0x1e
 1135 080c 94070000 		.4byte	0x794
 1136 0810 02000000 		.4byte	.LBB54
 1137 0814 06000000 		.4byte	.LBE54-.LBB54
 1138 0818 0F       		.byte	0xf
 1139 0819 8401     		.2byte	0x184
 1140 081b 1E       		.uleb128 0x1e
ARM GAS  /var/folders/m4/4md61f0s1_g0rzfghffqnxvr0000gn/T//cc4KKRZm.s 			page 21


 1141 081c 82070000 		.4byte	0x782
 1142 0820 02000000 		.4byte	.LBB55
 1143 0824 06000000 		.4byte	.LBE55-.LBB55
 1144 0828 0B       		.byte	0xb
 1145 0829 F101     		.2byte	0x1f1
 1146 082b 1E       		.uleb128 0x1e
 1147 082c 68070000 		.4byte	0x768
 1148 0830 02000000 		.4byte	.LBB56
 1149 0834 06000000 		.4byte	.LBE56-.LBB56
 1150 0838 0B       		.byte	0xb
 1151 0839 D001     		.2byte	0x1d0
 1152 083b 1F       		.uleb128 0x1f
 1153 083c 75070000 		.4byte	0x775
 1154 0840 20       		.byte	0x20
 1155 0841 00       		.byte	0
 1156 0842 00       		.byte	0
 1157 0843 00       		.byte	0
 1158 0844 00       		.byte	0
 1159 0845 00       		.byte	0
 1160 0846 1D       		.uleb128 0x1d
 1161 0847 C1070000 		.4byte	0x7c1
 1162 084b 08000000 		.4byte	.LBB58
 1163 084f 04000000 		.4byte	.LBE58-.LBB58
 1164 0853 01       		.byte	0x1
 1165 0854 E1       		.byte	0xe1
 1166 0855 63080000 		.4byte	0x863
 1167 0859 20       		.uleb128 0x20
 1168 085a 0C000000 		.4byte	.LVL1
 1169 085e 12090000 		.4byte	0x912
 1170 0862 00       		.byte	0
 1171 0863 1D       		.uleb128 0x1d
 1172 0864 CA070000 		.4byte	0x7ca
 1173 0868 0C000000 		.4byte	.LBB60
 1174 086c 06000000 		.4byte	.LBE60-.LBB60
 1175 0870 01       		.byte	0x1
 1176 0871 E2       		.byte	0xe2
 1177 0872 C1080000 		.4byte	0x8c1
 1178 0876 1E       		.uleb128 0x1e
 1179 0877 AF070000 		.4byte	0x7af
 1180 087b 0C000000 		.4byte	.LBB61
 1181 087f 06000000 		.4byte	.LBE61-.LBB61
 1182 0883 03       		.byte	0x3
 1183 0884 0E02     		.2byte	0x20e
 1184 0886 1E       		.uleb128 0x1e
 1185 0887 9D070000 		.4byte	0x79d
 1186 088b 0C000000 		.4byte	.LBB62
 1187 088f 06000000 		.4byte	.LBE62-.LBB62
 1188 0893 0F       		.byte	0xf
 1189 0894 9A01     		.2byte	0x19a
 1190 0896 1E       		.uleb128 0x1e
 1191 0897 8B070000 		.4byte	0x78b
 1192 089b 0C000000 		.4byte	.LBB63
 1193 089f 06000000 		.4byte	.LBE63-.LBB63
 1194 08a3 0B       		.byte	0xb
 1195 08a4 FC01     		.2byte	0x1fc
 1196 08a6 1E       		.uleb128 0x1e
 1197 08a7 68070000 		.4byte	0x768
ARM GAS  /var/folders/m4/4md61f0s1_g0rzfghffqnxvr0000gn/T//cc4KKRZm.s 			page 22


 1198 08ab 0C000000 		.4byte	.LBB64
 1199 08af 06000000 		.4byte	.LBE64-.LBB64
 1200 08b3 0B       		.byte	0xb
 1201 08b4 E301     		.2byte	0x1e3
 1202 08b6 1F       		.uleb128 0x1f
 1203 08b7 75070000 		.4byte	0x775
 1204 08bb 00       		.byte	0
 1205 08bc 00       		.byte	0
 1206 08bd 00       		.byte	0
 1207 08be 00       		.byte	0
 1208 08bf 00       		.byte	0
 1209 08c0 00       		.byte	0
 1210 08c1 21       		.uleb128 0x21
 1211 08c2 1A000000 		.4byte	.LVL2
 1212 08c6 1A090000 		.4byte	0x91a
 1213 08ca 00       		.byte	0
 1214 08cb 22       		.uleb128 0x22
 1215 08cc D4000000 		.4byte	.LASF119
 1216 08d0 01       		.byte	0x1
 1217 08d1 0B01     		.2byte	0x10b
 1218 08d3 00000000 		.4byte	.LFB269
 1219 08d7 1C000000 		.4byte	.LFE269-.LFB269
 1220 08db 01       		.uleb128 0x1
 1221 08dc 9C       		.byte	0x9c
 1222 08dd F6080000 		.4byte	0x8f6
 1223 08e1 23       		.uleb128 0x23
 1224 08e2 18000000 		.4byte	.LVL3
 1225 08e6 22090000 		.4byte	0x922
 1226 08ea 24       		.uleb128 0x24
 1227 08eb 01       		.uleb128 0x1
 1228 08ec 51       		.byte	0x51
 1229 08ed 01       		.uleb128 0x1
 1230 08ee 38       		.byte	0x38
 1231 08ef 24       		.uleb128 0x24
 1232 08f0 01       		.uleb128 0x1
 1233 08f1 50       		.byte	0x50
 1234 08f2 01       		.uleb128 0x1
 1235 08f3 3B       		.byte	0x3b
 1236 08f4 00       		.byte	0
 1237 08f5 00       		.byte	0
 1238 08f6 25       		.uleb128 0x25
 1239 08f7 DF040000 		.4byte	.LASF120
 1240 08fb 09       		.byte	0x9
 1241 08fc FA06     		.2byte	0x6fa
 1242 08fe 02090000 		.4byte	0x902
 1243 0902 0F       		.uleb128 0xf
 1244 0903 A2000000 		.4byte	0xa2
 1245 0907 26       		.uleb128 0x26
 1246 0908 636800   		.ascii	"ch\000"
 1247 090b 08       		.byte	0x8
 1248 090c 0902     		.2byte	0x209
 1249 090e F8030000 		.4byte	0x3f8
 1250 0912 27       		.uleb128 0x27
 1251 0913 EB050000 		.4byte	.LASF121
 1252 0917 0F       		.byte	0xf
 1253 0918 1801     		.2byte	0x118
 1254 091a 27       		.uleb128 0x27
ARM GAS  /var/folders/m4/4md61f0s1_g0rzfghffqnxvr0000gn/T//cc4KKRZm.s 			page 23


 1255 091b 6D020000 		.4byte	.LASF122
 1256 091f 0B       		.byte	0xb
 1257 0920 6F01     		.2byte	0x16f
 1258 0922 28       		.uleb128 0x28
 1259 0923 12050000 		.4byte	.LASF128
 1260 0927 10       		.byte	0x10
 1261 0928 50       		.byte	0x50
 1262 0929 0C       		.uleb128 0xc
 1263 092a AD000000 		.4byte	0xad
 1264 092e 0C       		.uleb128 0xc
 1265 092f AD000000 		.4byte	0xad
 1266 0933 00       		.byte	0
 1267 0934 00       		.byte	0
 1268              		.section	.debug_abbrev,"",%progbits
 1269              	.Ldebug_abbrev0:
 1270 0000 01       		.uleb128 0x1
 1271 0001 11       		.uleb128 0x11
 1272 0002 01       		.byte	0x1
 1273 0003 25       		.uleb128 0x25
 1274 0004 0E       		.uleb128 0xe
 1275 0005 13       		.uleb128 0x13
 1276 0006 0B       		.uleb128 0xb
 1277 0007 03       		.uleb128 0x3
 1278 0008 0E       		.uleb128 0xe
 1279 0009 1B       		.uleb128 0x1b
 1280 000a 0E       		.uleb128 0xe
 1281 000b 55       		.uleb128 0x55
 1282 000c 17       		.uleb128 0x17
 1283 000d 11       		.uleb128 0x11
 1284 000e 01       		.uleb128 0x1
 1285 000f 10       		.uleb128 0x10
 1286 0010 17       		.uleb128 0x17
 1287 0011 00       		.byte	0
 1288 0012 00       		.byte	0
 1289 0013 02       		.uleb128 0x2
 1290 0014 24       		.uleb128 0x24
 1291 0015 00       		.byte	0
 1292 0016 0B       		.uleb128 0xb
 1293 0017 0B       		.uleb128 0xb
 1294 0018 3E       		.uleb128 0x3e
 1295 0019 0B       		.uleb128 0xb
 1296 001a 03       		.uleb128 0x3
 1297 001b 08       		.uleb128 0x8
 1298 001c 00       		.byte	0
 1299 001d 00       		.byte	0
 1300 001e 03       		.uleb128 0x3
 1301 001f 24       		.uleb128 0x24
 1302 0020 00       		.byte	0
 1303 0021 0B       		.uleb128 0xb
 1304 0022 0B       		.uleb128 0xb
 1305 0023 3E       		.uleb128 0x3e
 1306 0024 0B       		.uleb128 0xb
 1307 0025 03       		.uleb128 0x3
 1308 0026 0E       		.uleb128 0xe
 1309 0027 00       		.byte	0
 1310 0028 00       		.byte	0
 1311 0029 04       		.uleb128 0x4
ARM GAS  /var/folders/m4/4md61f0s1_g0rzfghffqnxvr0000gn/T//cc4KKRZm.s 			page 24


 1312 002a 16       		.uleb128 0x16
 1313 002b 00       		.byte	0
 1314 002c 03       		.uleb128 0x3
 1315 002d 0E       		.uleb128 0xe
 1316 002e 3A       		.uleb128 0x3a
 1317 002f 0B       		.uleb128 0xb
 1318 0030 3B       		.uleb128 0x3b
 1319 0031 0B       		.uleb128 0xb
 1320 0032 49       		.uleb128 0x49
 1321 0033 13       		.uleb128 0x13
 1322 0034 00       		.byte	0
 1323 0035 00       		.byte	0
 1324 0036 05       		.uleb128 0x5
 1325 0037 13       		.uleb128 0x13
 1326 0038 01       		.byte	0x1
 1327 0039 03       		.uleb128 0x3
 1328 003a 0E       		.uleb128 0xe
 1329 003b 0B       		.uleb128 0xb
 1330 003c 0B       		.uleb128 0xb
 1331 003d 3A       		.uleb128 0x3a
 1332 003e 0B       		.uleb128 0xb
 1333 003f 3B       		.uleb128 0x3b
 1334 0040 0B       		.uleb128 0xb
 1335 0041 01       		.uleb128 0x1
 1336 0042 13       		.uleb128 0x13
 1337 0043 00       		.byte	0
 1338 0044 00       		.byte	0
 1339 0045 06       		.uleb128 0x6
 1340 0046 0D       		.uleb128 0xd
 1341 0047 00       		.byte	0
 1342 0048 03       		.uleb128 0x3
 1343 0049 0E       		.uleb128 0xe
 1344 004a 3A       		.uleb128 0x3a
 1345 004b 0B       		.uleb128 0xb
 1346 004c 3B       		.uleb128 0x3b
 1347 004d 0B       		.uleb128 0xb
 1348 004e 49       		.uleb128 0x49
 1349 004f 13       		.uleb128 0x13
 1350 0050 38       		.uleb128 0x38
 1351 0051 0B       		.uleb128 0xb
 1352 0052 00       		.byte	0
 1353 0053 00       		.byte	0
 1354 0054 07       		.uleb128 0x7
 1355 0055 0D       		.uleb128 0xd
 1356 0056 00       		.byte	0
 1357 0057 03       		.uleb128 0x3
 1358 0058 08       		.uleb128 0x8
 1359 0059 3A       		.uleb128 0x3a
 1360 005a 0B       		.uleb128 0xb
 1361 005b 3B       		.uleb128 0x3b
 1362 005c 05       		.uleb128 0x5
 1363 005d 49       		.uleb128 0x49
 1364 005e 13       		.uleb128 0x13
 1365 005f 38       		.uleb128 0x38
 1366 0060 0B       		.uleb128 0xb
 1367 0061 00       		.byte	0
 1368 0062 00       		.byte	0
ARM GAS  /var/folders/m4/4md61f0s1_g0rzfghffqnxvr0000gn/T//cc4KKRZm.s 			page 25


 1369 0063 08       		.uleb128 0x8
 1370 0064 0D       		.uleb128 0xd
 1371 0065 00       		.byte	0
 1372 0066 03       		.uleb128 0x3
 1373 0067 0E       		.uleb128 0xe
 1374 0068 3A       		.uleb128 0x3a
 1375 0069 0B       		.uleb128 0xb
 1376 006a 3B       		.uleb128 0x3b
 1377 006b 05       		.uleb128 0x5
 1378 006c 49       		.uleb128 0x49
 1379 006d 13       		.uleb128 0x13
 1380 006e 38       		.uleb128 0x38
 1381 006f 0B       		.uleb128 0xb
 1382 0070 00       		.byte	0
 1383 0071 00       		.byte	0
 1384 0072 09       		.uleb128 0x9
 1385 0073 0F       		.uleb128 0xf
 1386 0074 00       		.byte	0
 1387 0075 0B       		.uleb128 0xb
 1388 0076 0B       		.uleb128 0xb
 1389 0077 49       		.uleb128 0x49
 1390 0078 13       		.uleb128 0x13
 1391 0079 00       		.byte	0
 1392 007a 00       		.byte	0
 1393 007b 0A       		.uleb128 0xa
 1394 007c 13       		.uleb128 0x13
 1395 007d 01       		.byte	0x1
 1396 007e 03       		.uleb128 0x3
 1397 007f 0E       		.uleb128 0xe
 1398 0080 0B       		.uleb128 0xb
 1399 0081 0B       		.uleb128 0xb
 1400 0082 3A       		.uleb128 0x3a
 1401 0083 0B       		.uleb128 0xb
 1402 0084 3B       		.uleb128 0x3b
 1403 0085 05       		.uleb128 0x5
 1404 0086 01       		.uleb128 0x1
 1405 0087 13       		.uleb128 0x13
 1406 0088 00       		.byte	0
 1407 0089 00       		.byte	0
 1408 008a 0B       		.uleb128 0xb
 1409 008b 15       		.uleb128 0x15
 1410 008c 01       		.byte	0x1
 1411 008d 27       		.uleb128 0x27
 1412 008e 19       		.uleb128 0x19
 1413 008f 01       		.uleb128 0x1
 1414 0090 13       		.uleb128 0x13
 1415 0091 00       		.byte	0
 1416 0092 00       		.byte	0
 1417 0093 0C       		.uleb128 0xc
 1418 0094 05       		.uleb128 0x5
 1419 0095 00       		.byte	0
 1420 0096 49       		.uleb128 0x49
 1421 0097 13       		.uleb128 0x13
 1422 0098 00       		.byte	0
 1423 0099 00       		.byte	0
 1424 009a 0D       		.uleb128 0xd
 1425 009b 0F       		.uleb128 0xf
ARM GAS  /var/folders/m4/4md61f0s1_g0rzfghffqnxvr0000gn/T//cc4KKRZm.s 			page 26


 1426 009c 00       		.byte	0
 1427 009d 0B       		.uleb128 0xb
 1428 009e 0B       		.uleb128 0xb
 1429 009f 00       		.byte	0
 1430 00a0 00       		.byte	0
 1431 00a1 0E       		.uleb128 0xe
 1432 00a2 13       		.uleb128 0x13
 1433 00a3 01       		.byte	0x1
 1434 00a4 03       		.uleb128 0x3
 1435 00a5 0E       		.uleb128 0xe
 1436 00a6 0B       		.uleb128 0xb
 1437 00a7 05       		.uleb128 0x5
 1438 00a8 3A       		.uleb128 0x3a
 1439 00a9 0B       		.uleb128 0xb
 1440 00aa 3B       		.uleb128 0x3b
 1441 00ab 05       		.uleb128 0x5
 1442 00ac 01       		.uleb128 0x1
 1443 00ad 13       		.uleb128 0x13
 1444 00ae 00       		.byte	0
 1445 00af 00       		.byte	0
 1446 00b0 0F       		.uleb128 0xf
 1447 00b1 35       		.uleb128 0x35
 1448 00b2 00       		.byte	0
 1449 00b3 49       		.uleb128 0x49
 1450 00b4 13       		.uleb128 0x13
 1451 00b5 00       		.byte	0
 1452 00b6 00       		.byte	0
 1453 00b7 10       		.uleb128 0x10
 1454 00b8 26       		.uleb128 0x26
 1455 00b9 00       		.byte	0
 1456 00ba 49       		.uleb128 0x49
 1457 00bb 13       		.uleb128 0x13
 1458 00bc 00       		.byte	0
 1459 00bd 00       		.byte	0
 1460 00be 11       		.uleb128 0x11
 1461 00bf 13       		.uleb128 0x13
 1462 00c0 01       		.byte	0x1
 1463 00c1 0B       		.uleb128 0xb
 1464 00c2 0B       		.uleb128 0xb
 1465 00c3 3A       		.uleb128 0x3a
 1466 00c4 0B       		.uleb128 0xb
 1467 00c5 3B       		.uleb128 0x3b
 1468 00c6 05       		.uleb128 0x5
 1469 00c7 01       		.uleb128 0x1
 1470 00c8 13       		.uleb128 0x13
 1471 00c9 00       		.byte	0
 1472 00ca 00       		.byte	0
 1473 00cb 12       		.uleb128 0x12
 1474 00cc 16       		.uleb128 0x16
 1475 00cd 00       		.byte	0
 1476 00ce 03       		.uleb128 0x3
 1477 00cf 0E       		.uleb128 0xe
 1478 00d0 3A       		.uleb128 0x3a
 1479 00d1 0B       		.uleb128 0xb
 1480 00d2 3B       		.uleb128 0x3b
 1481 00d3 05       		.uleb128 0x5
 1482 00d4 49       		.uleb128 0x49
ARM GAS  /var/folders/m4/4md61f0s1_g0rzfghffqnxvr0000gn/T//cc4KKRZm.s 			page 27


 1483 00d5 13       		.uleb128 0x13
 1484 00d6 00       		.byte	0
 1485 00d7 00       		.byte	0
 1486 00d8 13       		.uleb128 0x13
 1487 00d9 0D       		.uleb128 0xd
 1488 00da 00       		.byte	0
 1489 00db 03       		.uleb128 0x3
 1490 00dc 08       		.uleb128 0x8
 1491 00dd 3A       		.uleb128 0x3a
 1492 00de 0B       		.uleb128 0xb
 1493 00df 3B       		.uleb128 0x3b
 1494 00e0 0B       		.uleb128 0xb
 1495 00e1 49       		.uleb128 0x49
 1496 00e2 13       		.uleb128 0x13
 1497 00e3 38       		.uleb128 0x38
 1498 00e4 0B       		.uleb128 0xb
 1499 00e5 00       		.byte	0
 1500 00e6 00       		.byte	0
 1501 00e7 14       		.uleb128 0x14
 1502 00e8 13       		.uleb128 0x13
 1503 00e9 01       		.byte	0x1
 1504 00ea 0B       		.uleb128 0xb
 1505 00eb 0B       		.uleb128 0xb
 1506 00ec 3A       		.uleb128 0x3a
 1507 00ed 0B       		.uleb128 0xb
 1508 00ee 3B       		.uleb128 0x3b
 1509 00ef 0B       		.uleb128 0xb
 1510 00f0 01       		.uleb128 0x1
 1511 00f1 13       		.uleb128 0x13
 1512 00f2 00       		.byte	0
 1513 00f3 00       		.byte	0
 1514 00f4 15       		.uleb128 0x15
 1515 00f5 17       		.uleb128 0x17
 1516 00f6 01       		.byte	0x1
 1517 00f7 0B       		.uleb128 0xb
 1518 00f8 0B       		.uleb128 0xb
 1519 00f9 3A       		.uleb128 0x3a
 1520 00fa 0B       		.uleb128 0xb
 1521 00fb 3B       		.uleb128 0x3b
 1522 00fc 0B       		.uleb128 0xb
 1523 00fd 01       		.uleb128 0x1
 1524 00fe 13       		.uleb128 0x13
 1525 00ff 00       		.byte	0
 1526 0100 00       		.byte	0
 1527 0101 16       		.uleb128 0x16
 1528 0102 0D       		.uleb128 0xd
 1529 0103 00       		.byte	0
 1530 0104 03       		.uleb128 0x3
 1531 0105 0E       		.uleb128 0xe
 1532 0106 3A       		.uleb128 0x3a
 1533 0107 0B       		.uleb128 0xb
 1534 0108 3B       		.uleb128 0x3b
 1535 0109 05       		.uleb128 0x5
 1536 010a 49       		.uleb128 0x49
 1537 010b 13       		.uleb128 0x13
 1538 010c 00       		.byte	0
 1539 010d 00       		.byte	0
ARM GAS  /var/folders/m4/4md61f0s1_g0rzfghffqnxvr0000gn/T//cc4KKRZm.s 			page 28


 1540 010e 17       		.uleb128 0x17
 1541 010f 01       		.uleb128 0x1
 1542 0110 01       		.byte	0x1
 1543 0111 49       		.uleb128 0x49
 1544 0112 13       		.uleb128 0x13
 1545 0113 01       		.uleb128 0x1
 1546 0114 13       		.uleb128 0x13
 1547 0115 00       		.byte	0
 1548 0116 00       		.byte	0
 1549 0117 18       		.uleb128 0x18
 1550 0118 21       		.uleb128 0x21
 1551 0119 00       		.byte	0
 1552 011a 49       		.uleb128 0x49
 1553 011b 13       		.uleb128 0x13
 1554 011c 2F       		.uleb128 0x2f
 1555 011d 0B       		.uleb128 0xb
 1556 011e 00       		.byte	0
 1557 011f 00       		.byte	0
 1558 0120 19       		.uleb128 0x19
 1559 0121 2E       		.uleb128 0x2e
 1560 0122 01       		.byte	0x1
 1561 0123 03       		.uleb128 0x3
 1562 0124 0E       		.uleb128 0xe
 1563 0125 3A       		.uleb128 0x3a
 1564 0126 0B       		.uleb128 0xb
 1565 0127 3B       		.uleb128 0x3b
 1566 0128 05       		.uleb128 0x5
 1567 0129 27       		.uleb128 0x27
 1568 012a 19       		.uleb128 0x19
 1569 012b 20       		.uleb128 0x20
 1570 012c 0B       		.uleb128 0xb
 1571 012d 01       		.uleb128 0x1
 1572 012e 13       		.uleb128 0x13
 1573 012f 00       		.byte	0
 1574 0130 00       		.byte	0
 1575 0131 1A       		.uleb128 0x1a
 1576 0132 05       		.uleb128 0x5
 1577 0133 00       		.byte	0
 1578 0134 03       		.uleb128 0x3
 1579 0135 0E       		.uleb128 0xe
 1580 0136 3A       		.uleb128 0x3a
 1581 0137 0B       		.uleb128 0xb
 1582 0138 3B       		.uleb128 0x3b
 1583 0139 05       		.uleb128 0x5
 1584 013a 49       		.uleb128 0x49
 1585 013b 13       		.uleb128 0x13
 1586 013c 00       		.byte	0
 1587 013d 00       		.byte	0
 1588 013e 1B       		.uleb128 0x1b
 1589 013f 2E       		.uleb128 0x2e
 1590 0140 00       		.byte	0
 1591 0141 03       		.uleb128 0x3
 1592 0142 0E       		.uleb128 0xe
 1593 0143 3A       		.uleb128 0x3a
 1594 0144 0B       		.uleb128 0xb
 1595 0145 3B       		.uleb128 0x3b
 1596 0146 05       		.uleb128 0x5
ARM GAS  /var/folders/m4/4md61f0s1_g0rzfghffqnxvr0000gn/T//cc4KKRZm.s 			page 29


 1597 0147 27       		.uleb128 0x27
 1598 0148 19       		.uleb128 0x19
 1599 0149 20       		.uleb128 0x20
 1600 014a 0B       		.uleb128 0xb
 1601 014b 00       		.byte	0
 1602 014c 00       		.byte	0
 1603 014d 1C       		.uleb128 0x1c
 1604 014e 2E       		.uleb128 0x2e
 1605 014f 01       		.byte	0x1
 1606 0150 3F       		.uleb128 0x3f
 1607 0151 19       		.uleb128 0x19
 1608 0152 03       		.uleb128 0x3
 1609 0153 0E       		.uleb128 0xe
 1610 0154 3A       		.uleb128 0x3a
 1611 0155 0B       		.uleb128 0xb
 1612 0156 3B       		.uleb128 0x3b
 1613 0157 0B       		.uleb128 0xb
 1614 0158 27       		.uleb128 0x27
 1615 0159 19       		.uleb128 0x19
 1616 015a 11       		.uleb128 0x11
 1617 015b 01       		.uleb128 0x1
 1618 015c 12       		.uleb128 0x12
 1619 015d 06       		.uleb128 0x6
 1620 015e 40       		.uleb128 0x40
 1621 015f 18       		.uleb128 0x18
 1622 0160 9742     		.uleb128 0x2117
 1623 0162 19       		.uleb128 0x19
 1624 0163 01       		.uleb128 0x1
 1625 0164 13       		.uleb128 0x13
 1626 0165 00       		.byte	0
 1627 0166 00       		.byte	0
 1628 0167 1D       		.uleb128 0x1d
 1629 0168 1D       		.uleb128 0x1d
 1630 0169 01       		.byte	0x1
 1631 016a 31       		.uleb128 0x31
 1632 016b 13       		.uleb128 0x13
 1633 016c 11       		.uleb128 0x11
 1634 016d 01       		.uleb128 0x1
 1635 016e 12       		.uleb128 0x12
 1636 016f 06       		.uleb128 0x6
 1637 0170 58       		.uleb128 0x58
 1638 0171 0B       		.uleb128 0xb
 1639 0172 59       		.uleb128 0x59
 1640 0173 0B       		.uleb128 0xb
 1641 0174 01       		.uleb128 0x1
 1642 0175 13       		.uleb128 0x13
 1643 0176 00       		.byte	0
 1644 0177 00       		.byte	0
 1645 0178 1E       		.uleb128 0x1e
 1646 0179 1D       		.uleb128 0x1d
 1647 017a 01       		.byte	0x1
 1648 017b 31       		.uleb128 0x31
 1649 017c 13       		.uleb128 0x13
 1650 017d 11       		.uleb128 0x11
 1651 017e 01       		.uleb128 0x1
 1652 017f 12       		.uleb128 0x12
 1653 0180 06       		.uleb128 0x6
ARM GAS  /var/folders/m4/4md61f0s1_g0rzfghffqnxvr0000gn/T//cc4KKRZm.s 			page 30


 1654 0181 58       		.uleb128 0x58
 1655 0182 0B       		.uleb128 0xb
 1656 0183 59       		.uleb128 0x59
 1657 0184 05       		.uleb128 0x5
 1658 0185 00       		.byte	0
 1659 0186 00       		.byte	0
 1660 0187 1F       		.uleb128 0x1f
 1661 0188 05       		.uleb128 0x5
 1662 0189 00       		.byte	0
 1663 018a 31       		.uleb128 0x31
 1664 018b 13       		.uleb128 0x13
 1665 018c 1C       		.uleb128 0x1c
 1666 018d 0B       		.uleb128 0xb
 1667 018e 00       		.byte	0
 1668 018f 00       		.byte	0
 1669 0190 20       		.uleb128 0x20
 1670 0191 898201   		.uleb128 0x4109
 1671 0194 00       		.byte	0
 1672 0195 11       		.uleb128 0x11
 1673 0196 01       		.uleb128 0x1
 1674 0197 31       		.uleb128 0x31
 1675 0198 13       		.uleb128 0x13
 1676 0199 00       		.byte	0
 1677 019a 00       		.byte	0
 1678 019b 21       		.uleb128 0x21
 1679 019c 898201   		.uleb128 0x4109
 1680 019f 00       		.byte	0
 1681 01a0 11       		.uleb128 0x11
 1682 01a1 01       		.uleb128 0x1
 1683 01a2 9542     		.uleb128 0x2115
 1684 01a4 19       		.uleb128 0x19
 1685 01a5 31       		.uleb128 0x31
 1686 01a6 13       		.uleb128 0x13
 1687 01a7 00       		.byte	0
 1688 01a8 00       		.byte	0
 1689 01a9 22       		.uleb128 0x22
 1690 01aa 2E       		.uleb128 0x2e
 1691 01ab 01       		.byte	0x1
 1692 01ac 3F       		.uleb128 0x3f
 1693 01ad 19       		.uleb128 0x19
 1694 01ae 03       		.uleb128 0x3
 1695 01af 0E       		.uleb128 0xe
 1696 01b0 3A       		.uleb128 0x3a
 1697 01b1 0B       		.uleb128 0xb
 1698 01b2 3B       		.uleb128 0x3b
 1699 01b3 05       		.uleb128 0x5
 1700 01b4 27       		.uleb128 0x27
 1701 01b5 19       		.uleb128 0x19
 1702 01b6 11       		.uleb128 0x11
 1703 01b7 01       		.uleb128 0x1
 1704 01b8 12       		.uleb128 0x12
 1705 01b9 06       		.uleb128 0x6
 1706 01ba 40       		.uleb128 0x40
 1707 01bb 18       		.uleb128 0x18
 1708 01bc 9742     		.uleb128 0x2117
 1709 01be 19       		.uleb128 0x19
 1710 01bf 01       		.uleb128 0x1
ARM GAS  /var/folders/m4/4md61f0s1_g0rzfghffqnxvr0000gn/T//cc4KKRZm.s 			page 31


 1711 01c0 13       		.uleb128 0x13
 1712 01c1 00       		.byte	0
 1713 01c2 00       		.byte	0
 1714 01c3 23       		.uleb128 0x23
 1715 01c4 898201   		.uleb128 0x4109
 1716 01c7 01       		.byte	0x1
 1717 01c8 11       		.uleb128 0x11
 1718 01c9 01       		.uleb128 0x1
 1719 01ca 9542     		.uleb128 0x2115
 1720 01cc 19       		.uleb128 0x19
 1721 01cd 31       		.uleb128 0x31
 1722 01ce 13       		.uleb128 0x13
 1723 01cf 00       		.byte	0
 1724 01d0 00       		.byte	0
 1725 01d1 24       		.uleb128 0x24
 1726 01d2 8A8201   		.uleb128 0x410a
 1727 01d5 00       		.byte	0
 1728 01d6 02       		.uleb128 0x2
 1729 01d7 18       		.uleb128 0x18
 1730 01d8 9142     		.uleb128 0x2111
 1731 01da 18       		.uleb128 0x18
 1732 01db 00       		.byte	0
 1733 01dc 00       		.byte	0
 1734 01dd 25       		.uleb128 0x25
 1735 01de 34       		.uleb128 0x34
 1736 01df 00       		.byte	0
 1737 01e0 03       		.uleb128 0x3
 1738 01e1 0E       		.uleb128 0xe
 1739 01e2 3A       		.uleb128 0x3a
 1740 01e3 0B       		.uleb128 0xb
 1741 01e4 3B       		.uleb128 0x3b
 1742 01e5 05       		.uleb128 0x5
 1743 01e6 49       		.uleb128 0x49
 1744 01e7 13       		.uleb128 0x13
 1745 01e8 3F       		.uleb128 0x3f
 1746 01e9 19       		.uleb128 0x19
 1747 01ea 3C       		.uleb128 0x3c
 1748 01eb 19       		.uleb128 0x19
 1749 01ec 00       		.byte	0
 1750 01ed 00       		.byte	0
 1751 01ee 26       		.uleb128 0x26
 1752 01ef 34       		.uleb128 0x34
 1753 01f0 00       		.byte	0
 1754 01f1 03       		.uleb128 0x3
 1755 01f2 08       		.uleb128 0x8
 1756 01f3 3A       		.uleb128 0x3a
 1757 01f4 0B       		.uleb128 0xb
 1758 01f5 3B       		.uleb128 0x3b
 1759 01f6 05       		.uleb128 0x5
 1760 01f7 49       		.uleb128 0x49
 1761 01f8 13       		.uleb128 0x13
 1762 01f9 3F       		.uleb128 0x3f
 1763 01fa 19       		.uleb128 0x19
 1764 01fb 3C       		.uleb128 0x3c
 1765 01fc 19       		.uleb128 0x19
 1766 01fd 00       		.byte	0
 1767 01fe 00       		.byte	0
ARM GAS  /var/folders/m4/4md61f0s1_g0rzfghffqnxvr0000gn/T//cc4KKRZm.s 			page 32


 1768 01ff 27       		.uleb128 0x27
 1769 0200 2E       		.uleb128 0x2e
 1770 0201 00       		.byte	0
 1771 0202 3F       		.uleb128 0x3f
 1772 0203 19       		.uleb128 0x19
 1773 0204 03       		.uleb128 0x3
 1774 0205 0E       		.uleb128 0xe
 1775 0206 3A       		.uleb128 0x3a
 1776 0207 0B       		.uleb128 0xb
 1777 0208 3B       		.uleb128 0x3b
 1778 0209 05       		.uleb128 0x5
 1779 020a 27       		.uleb128 0x27
 1780 020b 19       		.uleb128 0x19
 1781 020c 3C       		.uleb128 0x3c
 1782 020d 19       		.uleb128 0x19
 1783 020e 00       		.byte	0
 1784 020f 00       		.byte	0
 1785 0210 28       		.uleb128 0x28
 1786 0211 2E       		.uleb128 0x2e
 1787 0212 01       		.byte	0x1
 1788 0213 3F       		.uleb128 0x3f
 1789 0214 19       		.uleb128 0x19
 1790 0215 03       		.uleb128 0x3
 1791 0216 0E       		.uleb128 0xe
 1792 0217 3A       		.uleb128 0x3a
 1793 0218 0B       		.uleb128 0xb
 1794 0219 3B       		.uleb128 0x3b
 1795 021a 0B       		.uleb128 0xb
 1796 021b 27       		.uleb128 0x27
 1797 021c 19       		.uleb128 0x19
 1798 021d 3C       		.uleb128 0x3c
 1799 021e 19       		.uleb128 0x19
 1800 021f 00       		.byte	0
 1801 0220 00       		.byte	0
 1802 0221 00       		.byte	0
 1803              		.section	.debug_aranges,"",%progbits
 1804 0000 24000000 		.4byte	0x24
 1805 0004 0200     		.2byte	0x2
 1806 0006 00000000 		.4byte	.Ldebug_info0
 1807 000a 04       		.byte	0x4
 1808 000b 00       		.byte	0
 1809 000c 0000     		.2byte	0
 1810 000e 0000     		.2byte	0
 1811 0010 00000000 		.4byte	.LFB268
 1812 0014 1A000000 		.4byte	.LFE268-.LFB268
 1813 0018 00000000 		.4byte	.LFB269
 1814 001c 1C000000 		.4byte	.LFE269-.LFB269
 1815 0020 00000000 		.4byte	0
 1816 0024 00000000 		.4byte	0
 1817              		.section	.debug_ranges,"",%progbits
 1818              	.Ldebug_ranges0:
 1819 0000 00000000 		.4byte	.LFB268
 1820 0004 1A000000 		.4byte	.LFE268
 1821 0008 00000000 		.4byte	.LFB269
 1822 000c 1C000000 		.4byte	.LFE269
 1823 0010 00000000 		.4byte	0
 1824 0014 00000000 		.4byte	0
ARM GAS  /var/folders/m4/4md61f0s1_g0rzfghffqnxvr0000gn/T//cc4KKRZm.s 			page 33


 1825              		.section	.debug_line,"",%progbits
 1826              	.Ldebug_line0:
 1827 0000 C9020000 		.section	.debug_str,"MS",%progbits,1
 1827      02008202 
 1827      00000201 
 1827      FB0E0D00 
 1827      01010101 
 1828              	.LASF125:
 1829 0000 2F557365 		.ascii	"/Users/raphael/Documents/pcb-quadrotor/code\000"
 1829      72732F72 
 1829      61706861 
 1829      656C2F44 
 1829      6F63756D 
 1830              	.LASF53:
 1831 002c 72656164 		.ascii	"ready_list_t\000"
 1831      795F6C69 
 1831      73745F74 
 1831      00
 1832              	.LASF95:
 1833 0039 77747472 		.ascii	"wttrp\000"
 1833      7000
 1834              	.LASF92:
 1835 003f 7264796D 		.ascii	"rdymsg\000"
 1835      736700
 1836              	.LASF16:
 1837 0046 75696E74 		.ascii	"uint64_t\000"
 1837      36345F74 
 1837      00
 1838              	.LASF5:
 1839 004f 5F5F7569 		.ascii	"__uint8_t\000"
 1839      6E74385F 
 1839      7400
 1840              	.LASF89:
 1841 0059 706F7274 		.ascii	"port_intctx\000"
 1841      5F696E74 
 1841      63747800 
 1842              	.LASF72:
 1843 0065 73797374 		.ascii	"system_debug_t\000"
 1843      656D5F64 
 1843      65627567 
 1843      5F7400
 1844              	.LASF109:
 1845 0074 706F7274 		.ascii	"port_lock\000"
 1845      5F6C6F63 
 1845      6B00
 1846              	.LASF12:
 1847 007e 6C6F6E67 		.ascii	"long long unsigned int\000"
 1847      206C6F6E 
 1847      6720756E 
 1847      7369676E 
 1847      65642069 
 1848              	.LASF93:
 1849 0095 65786974 		.ascii	"exitcode\000"
 1849      636F6465 
 1849      00
 1850              	.LASF79:
 1851 009e 6D61696E 		.ascii	"mainthread\000"
ARM GAS  /var/folders/m4/4md61f0s1_g0rzfghffqnxvr0000gn/T//cc4KKRZm.s 			page 34


 1851      74687265 
 1851      616400
 1852              	.LASF69:
 1853 00a9 76697274 		.ascii	"virtual_timers_list_t\000"
 1853      75616C5F 
 1853      74696D65 
 1853      72735F6C 
 1853      6973745F 
 1854              	.LASF117:
 1855 00bf 6F73616C 		.ascii	"osalSysUnlockFromISR\000"
 1855      53797355 
 1855      6E6C6F63 
 1855      6B46726F 
 1855      6D495352 
 1856              	.LASF119:
 1857 00d4 73745F6C 		.ascii	"st_lld_init\000"
 1857      6C645F69 
 1857      6E697400 
 1858              	.LASF52:
 1859 00e0 63685F74 		.ascii	"ch_threads_queue\000"
 1859      68726561 
 1859      64735F71 
 1859      75657565 
 1859      00
 1860              	.LASF30:
 1861 00f1 705F7072 		.ascii	"p_prio\000"
 1861      696F00
 1862              	.LASF10:
 1863 00f8 6C6F6E67 		.ascii	"long long int\000"
 1863      206C6F6E 
 1863      6720696E 
 1863      7400
 1864              	.LASF1:
 1865 0106 7369676E 		.ascii	"signed char\000"
 1865      65642063 
 1865      68617200 
 1866              	.LASF124:
 1867 0112 43686962 		.ascii	"ChibiOS_16.1.4/os/hal/ports/STM32/LLD/TIMv1/st_lld."
 1867      694F535F 
 1867      31362E31 
 1867      2E342F6F 
 1867      732F6861 
 1868 0145 6300     		.ascii	"c\000"
 1869              	.LASF46:
 1870 0147 705F6D70 		.ascii	"p_mpool\000"
 1870      6F6F6C00 
 1871              	.LASF103:
 1872 014f 6D5F7175 		.ascii	"m_queue\000"
 1872      65756500 
 1873              	.LASF78:
 1874 0157 76746C69 		.ascii	"vtlist\000"
 1874      737400
 1875              	.LASF110:
 1876 015e 706F7274 		.ascii	"port_unlock\000"
 1876      5F756E6C 
 1876      6F636B00 
 1877              	.LASF21:
ARM GAS  /var/folders/m4/4md61f0s1_g0rzfghffqnxvr0000gn/T//cc4KKRZm.s 			page 35


 1878 016a 74736C69 		.ascii	"tslices_t\000"
 1878      6365735F 
 1878      7400
 1879              	.LASF76:
 1880 0174 63685F73 		.ascii	"ch_system\000"
 1880      79737465 
 1880      6D00
 1881              	.LASF7:
 1882 017e 6C6F6E67 		.ascii	"long int\000"
 1882      20696E74 
 1882      00
 1883              	.LASF19:
 1884 0187 74737461 		.ascii	"tstate_t\000"
 1884      74655F74 
 1884      00
 1885              	.LASF32:
 1886 0190 705F6E65 		.ascii	"p_newer\000"
 1886      77657200 
 1887              	.LASF100:
 1888 0198 735F7175 		.ascii	"s_queue\000"
 1888      65756500 
 1889              	.LASF4:
 1890 01a0 73686F72 		.ascii	"short unsigned int\000"
 1890      7420756E 
 1890      7369676E 
 1890      65642069 
 1890      6E7400
 1891              	.LASF85:
 1892 01b3 53797354 		.ascii	"SysTick_Type\000"
 1892      69636B5F 
 1892      54797065 
 1892      00
 1893              	.LASF58:
 1894 01c0 725F6E65 		.ascii	"r_newer\000"
 1894      77657200 
 1895              	.LASF86:
 1896 01c8 72656761 		.ascii	"regarm_t\000"
 1896      726D5F74 
 1896      00
 1897              	.LASF65:
 1898 01d1 76745F70 		.ascii	"vt_prev\000"
 1898      72657600 
 1899              	.LASF115:
 1900 01d9 6F73616C 		.ascii	"osalSysLockFromISR\000"
 1900      5379734C 
 1900      6F636B46 
 1900      726F6D49 
 1900      535200
 1901              	.LASF107:
 1902 01ec 6D757465 		.ascii	"mutex_t\000"
 1902      785F7400 
 1903              	.LASF127:
 1904 01f4 76616C75 		.ascii	"value\000"
 1904      6500
 1905              	.LASF80:
 1906 01fa 69646C65 		.ascii	"idle_thread_wa\000"
 1906      5F746872 
ARM GAS  /var/folders/m4/4md61f0s1_g0rzfghffqnxvr0000gn/T//cc4KKRZm.s 			page 36


 1906      6561645F 
 1906      776100
 1907              	.LASF25:
 1908 0209 636E745F 		.ascii	"cnt_t\000"
 1908      7400
 1909              	.LASF0:
 1910 020f 756E7369 		.ascii	"unsigned int\000"
 1910      676E6564 
 1910      20696E74 
 1910      00
 1911              	.LASF64:
 1912 021c 76745F6E 		.ascii	"vt_next\000"
 1912      65787400 
 1913              	.LASF39:
 1914 0224 705F7469 		.ascii	"p_time\000"
 1914      6D6500
 1915              	.LASF96:
 1916 022b 77747365 		.ascii	"wtsemp\000"
 1916      6D7000
 1917              	.LASF66:
 1918 0232 76745F64 		.ascii	"vt_delta\000"
 1918      656C7461 
 1918      00
 1919              	.LASF41:
 1920 023b 705F6D73 		.ascii	"p_msgqueue\000"
 1920      67717565 
 1920      756500
 1921              	.LASF101:
 1922 0246 735F636E 		.ascii	"s_cnt\000"
 1922      7400
 1923              	.LASF84:
 1924 024c 43414C49 		.ascii	"CALIB\000"
 1924      4200
 1925              	.LASF49:
 1926 0252 63685F74 		.ascii	"ch_thread\000"
 1926      68726561 
 1926      6400
 1927              	.LASF23:
 1928 025c 6D73675F 		.ascii	"msg_t\000"
 1928      7400
 1929              	.LASF45:
 1930 0262 705F7265 		.ascii	"p_realprio\000"
 1930      616C7072 
 1930      696F00
 1931              	.LASF122:
 1932 026d 5F706F72 		.ascii	"_port_irq_epilogue\000"
 1932      745F6972 
 1932      715F6570 
 1932      696C6F67 
 1932      756500
 1933              	.LASF94:
 1934 0280 77746F62 		.ascii	"wtobjp\000"
 1934      6A7000
 1935              	.LASF54:
 1936 0287 63685F72 		.ascii	"ch_ready_list\000"
 1936      65616479 
 1936      5F6C6973 
ARM GAS  /var/folders/m4/4md61f0s1_g0rzfghffqnxvr0000gn/T//cc4KKRZm.s 			page 37


 1936      7400
 1937              	.LASF24:
 1938 0295 6576656E 		.ascii	"eventmask_t\000"
 1938      746D6173 
 1938      6B5F7400 
 1939              	.LASF6:
 1940 02a1 5F5F696E 		.ascii	"__int32_t\000"
 1940      7433325F 
 1940      7400
 1941              	.LASF87:
 1942 02ab 73746B61 		.ascii	"stkalign_t\000"
 1942      6C69676E 
 1942      5F7400
 1943              	.LASF116:
 1944 02b6 6F73616C 		.ascii	"osalOsTimerHandlerI\000"
 1944      4F735469 
 1944      6D657248 
 1944      616E646C 
 1944      65724900 
 1945              	.LASF48:
 1946 02ca 74687265 		.ascii	"threads_list_t\000"
 1946      6164735F 
 1946      6C697374 
 1946      5F7400
 1947              	.LASF123:
 1948 02d9 474E5520 		.ascii	"GNU C 4.9.3 20150529 (release) [ARM/embedded-4_9-br"
 1948      4320342E 
 1948      392E3320 
 1948      32303135 
 1948      30353239 
 1949 030c 616E6368 		.ascii	"anch revision 224288] -mcpu=cortex-m4 -mfloat-abi=h"
 1949      20726576 
 1949      6973696F 
 1949      6E203232 
 1949      34323838 
 1950 033f 61726420 		.ascii	"ard -mfpu=fpv4-sp-d16 -mno-thumb-interwork -mthumb "
 1950      2D6D6670 
 1950      753D6670 
 1950      76342D73 
 1950      702D6431 
 1951 0372 2D676764 		.ascii	"-ggdb -O2 -std=c99 -fomit-frame-pointer -falign-fun"
 1951      62202D4F 
 1951      32202D73 
 1951      74643D63 
 1951      3939202D 
 1952 03a5 6374696F 		.ascii	"ctions=16 -ffunction-sections -fdata-sections -fno-"
 1952      6E733D31 
 1952      36202D66 
 1952      66756E63 
 1952      74696F6E 
 1953 03d8 636F6D6D 		.ascii	"common -fsingle-precision-constant\000"
 1953      6F6E202D 
 1953      6673696E 
 1953      676C652D 
 1953      70726563 
 1954              	.LASF40:
 1955 03fb 705F7761 		.ascii	"p_waiting\000"
ARM GAS  /var/folders/m4/4md61f0s1_g0rzfghffqnxvr0000gn/T//cc4KKRZm.s 			page 38


 1955      6974696E 
 1955      6700
 1956              	.LASF81:
 1957 0405 73697A65 		.ascii	"sizetype\000"
 1957      74797065 
 1957      00
 1958              	.LASF47:
 1959 040e 74687265 		.ascii	"thread_reference_t\000"
 1959      61645F72 
 1959      65666572 
 1959      656E6365 
 1959      5F7400
 1960              	.LASF83:
 1961 0421 4C4F4144 		.ascii	"LOAD\000"
 1961      00
 1962              	.LASF70:
 1963 0426 63685F76 		.ascii	"ch_virtual_timers_list\000"
 1963      69727475 
 1963      616C5F74 
 1963      696D6572 
 1963      735F6C69 
 1964              	.LASF33:
 1965 043d 705F6F6C 		.ascii	"p_older\000"
 1965      64657200 
 1966              	.LASF57:
 1967 0445 725F6374 		.ascii	"r_ctx\000"
 1967      7800
 1968              	.LASF91:
 1969 044b 746D5F63 		.ascii	"tm_calibration_t\000"
 1969      616C6962 
 1969      72617469 
 1969      6F6E5F74 
 1969      00
 1970              	.LASF60:
 1971 045c 725F6375 		.ascii	"r_current\000"
 1971      7272656E 
 1971      7400
 1972              	.LASF59:
 1973 0466 725F6F6C 		.ascii	"r_older\000"
 1973      64657200 
 1974              	.LASF11:
 1975 046e 5F5F7569 		.ascii	"__uint64_t\000"
 1975      6E743634 
 1975      5F7400
 1976              	.LASF20:
 1977 0479 74726566 		.ascii	"trefs_t\000"
 1977      735F7400 
 1978              	.LASF62:
 1979 0481 76697274 		.ascii	"virtual_timer_t\000"
 1979      75616C5F 
 1979      74696D65 
 1979      725F7400 
 1980              	.LASF29:
 1981 0491 705F7072 		.ascii	"p_prev\000"
 1981      657600
 1982              	.LASF22:
 1983 0498 74707269 		.ascii	"tprio_t\000"
ARM GAS  /var/folders/m4/4md61f0s1_g0rzfghffqnxvr0000gn/T//cc4KKRZm.s 			page 39


 1983      6F5F7400 
 1984              	.LASF114:
 1985 04a0 63685379 		.ascii	"chSysUnlockFromISR\000"
 1985      73556E6C 
 1985      6F636B46 
 1985      726F6D49 
 1985      535200
 1986              	.LASF73:
 1987 04b3 63685F73 		.ascii	"ch_system_debug\000"
 1987      79737465 
 1987      6D5F6465 
 1987      62756700 
 1988              	.LASF108:
 1989 04c3 5F426F6F 		.ascii	"_Bool\000"
 1989      6C00
 1990              	.LASF14:
 1991 04c9 696E7433 		.ascii	"int32_t\000"
 1991      325F7400 
 1992              	.LASF2:
 1993 04d1 756E7369 		.ascii	"unsigned char\000"
 1993      676E6564 
 1993      20636861 
 1993      7200
 1994              	.LASF120:
 1995 04df 49544D5F 		.ascii	"ITM_RxBuffer\000"
 1995      52784275 
 1995      66666572 
 1995      00
 1996              	.LASF44:
 1997 04ec 705F6D74 		.ascii	"p_mtxlist\000"
 1997      786C6973 
 1997      7400
 1998              	.LASF3:
 1999 04f6 73686F72 		.ascii	"short int\000"
 1999      7420696E 
 1999      7400
 2000              	.LASF35:
 2001 0500 705F7374 		.ascii	"p_state\000"
 2001      61746500 
 2002              	.LASF38:
 2003 0508 705F7072 		.ascii	"p_preempt\000"
 2003      65656D70 
 2003      7400
 2004              	.LASF128:
 2005 0512 6E766963 		.ascii	"nvicSetSystemHandlerPriority\000"
 2005      53657453 
 2005      79737465 
 2005      6D48616E 
 2005      646C6572 
 2006              	.LASF56:
 2007 052f 725F7072 		.ascii	"r_prio\000"
 2007      696F00
 2008              	.LASF98:
 2009 0536 65776D61 		.ascii	"ewmask\000"
 2009      736B00
 2010              	.LASF28:
 2011 053d 705F6E65 		.ascii	"p_next\000"
ARM GAS  /var/folders/m4/4md61f0s1_g0rzfghffqnxvr0000gn/T//cc4KKRZm.s 			page 40


 2011      787400
 2012              	.LASF18:
 2013 0544 746D6F64 		.ascii	"tmode_t\000"
 2013      655F7400 
 2014              	.LASF36:
 2015 054c 705F666C 		.ascii	"p_flags\000"
 2015      61677300 
 2016              	.LASF63:
 2017 0554 63685F76 		.ascii	"ch_virtual_timer\000"
 2017      69727475 
 2017      616C5F74 
 2017      696D6572 
 2017      00
 2018              	.LASF99:
 2019 0565 63685F73 		.ascii	"ch_semaphore\000"
 2019      656D6170 
 2019      686F7265 
 2019      00
 2020              	.LASF43:
 2021 0572 705F6570 		.ascii	"p_epending\000"
 2021      656E6469 
 2021      6E6700
 2022              	.LASF15:
 2023 057d 75696E74 		.ascii	"uint32_t\000"
 2023      33325F74 
 2023      00
 2024              	.LASF97:
 2025 0586 77746D74 		.ascii	"wtmtxp\000"
 2025      787000
 2026              	.LASF55:
 2027 058d 725F7175 		.ascii	"r_queue\000"
 2027      65756500 
 2028              	.LASF50:
 2029 0595 63685F74 		.ascii	"ch_threads_list\000"
 2029      68726561 
 2029      64735F6C 
 2029      69737400 
 2030              	.LASF9:
 2031 05a5 6C6F6E67 		.ascii	"long unsigned int\000"
 2031      20756E73 
 2031      69676E65 
 2031      6420696E 
 2031      7400
 2032              	.LASF106:
 2033 05b7 63686172 		.ascii	"char\000"
 2033      00
 2034              	.LASF112:
 2035 05bc 706F7274 		.ascii	"port_unlock_from_isr\000"
 2035      5F756E6C 
 2035      6F636B5F 
 2035      66726F6D 
 2035      5F697372 
 2036              	.LASF27:
 2037 05d1 74687265 		.ascii	"thread_t\000"
 2037      61645F74 
 2037      00
 2038              	.LASF105:
ARM GAS  /var/folders/m4/4md61f0s1_g0rzfghffqnxvr0000gn/T//cc4KKRZm.s 			page 41


 2039 05da 6D5F6E65 		.ascii	"m_next\000"
 2039      787400
 2040              	.LASF26:
 2041 05e1 73797374 		.ascii	"systime_t\000"
 2041      696D655F 
 2041      7400
 2042              	.LASF121:
 2043 05eb 63685379 		.ascii	"chSysTimerHandlerI\000"
 2043      7354696D 
 2043      65724861 
 2043      6E646C65 
 2043      724900
 2044              	.LASF61:
 2045 05fe 76746675 		.ascii	"vtfunc_t\000"
 2045      6E635F74 
 2045      00
 2046              	.LASF8:
 2047 0607 5F5F7569 		.ascii	"__uint32_t\000"
 2047      6E743332 
 2047      5F7400
 2048              	.LASF126:
 2049 0612 5F5F7365 		.ascii	"__set_BASEPRI\000"
 2049      745F4241 
 2049      53455052 
 2049      4900
 2050              	.LASF74:
 2051 0620 70616E69 		.ascii	"panic_msg\000"
 2051      635F6D73 
 2051      6700
 2052              	.LASF90:
 2053 062a 6F666673 		.ascii	"offset\000"
 2053      657400
 2054              	.LASF88:
 2055 0631 636F6E74 		.ascii	"context\000"
 2055      65787400 
 2056              	.LASF118:
 2057 0639 53797354 		.ascii	"SysTick_Handler\000"
 2057      69636B5F 
 2057      48616E64 
 2057      6C657200 
 2058              	.LASF75:
 2059 0649 63685F73 		.ascii	"ch_system_t\000"
 2059      79737465 
 2059      6D5F7400 
 2060              	.LASF17:
 2061 0655 7274636E 		.ascii	"rtcnt_t\000"
 2061      745F7400 
 2062              	.LASF111:
 2063 065d 706F7274 		.ascii	"port_lock_from_isr\000"
 2063      5F6C6F63 
 2063      6B5F6672 
 2063      6F6D5F69 
 2063      737200
 2064              	.LASF82:
 2065 0670 4354524C 		.ascii	"CTRL\000"
 2065      00
 2066              	.LASF68:
ARM GAS  /var/folders/m4/4md61f0s1_g0rzfghffqnxvr0000gn/T//cc4KKRZm.s 			page 42


 2067 0675 76745F70 		.ascii	"vt_par\000"
 2067      617200
 2068              	.LASF51:
 2069 067c 74687265 		.ascii	"threads_queue_t\000"
 2069      6164735F 
 2069      71756575 
 2069      655F7400 
 2070              	.LASF102:
 2071 068c 63685F6D 		.ascii	"ch_mutex\000"
 2071      75746578 
 2071      00
 2072              	.LASF37:
 2073 0695 705F7265 		.ascii	"p_refs\000"
 2073      667300
 2074              	.LASF77:
 2075 069c 726C6973 		.ascii	"rlist\000"
 2075      7400
 2076              	.LASF13:
 2077 06a2 75696E74 		.ascii	"uint8_t\000"
 2077      385F7400 
 2078              	.LASF113:
 2079 06aa 63685379 		.ascii	"chSysLockFromISR\000"
 2079      734C6F63 
 2079      6B46726F 
 2079      6D495352 
 2079      00
 2080              	.LASF34:
 2081 06bb 705F6E61 		.ascii	"p_name\000"
 2081      6D6500
 2082              	.LASF71:
 2083 06c2 76745F73 		.ascii	"vt_systime\000"
 2083      79737469 
 2083      6D6500
 2084              	.LASF42:
 2085 06cd 705F6D73 		.ascii	"p_msg\000"
 2085      6700
 2086              	.LASF104:
 2087 06d3 6D5F6F77 		.ascii	"m_owner\000"
 2087      6E657200 
 2088              	.LASF31:
 2089 06db 705F6374 		.ascii	"p_ctx\000"
 2089      7800
 2090              	.LASF67:
 2091 06e1 76745F66 		.ascii	"vt_func\000"
 2091      756E6300 
 2092              		.ident	"GCC: (GNU Tools for ARM Embedded Processors) 4.9.3 20150529 (release) [ARM/embedded-4_9-br
ARM GAS  /var/folders/m4/4md61f0s1_g0rzfghffqnxvr0000gn/T//cc4KKRZm.s 			page 43


DEFINED SYMBOLS
                            *ABS*:0000000000000000 st_lld.c
/var/folders/m4/4md61f0s1_g0rzfghffqnxvr0000gn/T//cc4KKRZm.s:21     .text.SysTick_Handler:0000000000000000 $t
/var/folders/m4/4md61f0s1_g0rzfghffqnxvr0000gn/T//cc4KKRZm.s:27     .text.SysTick_Handler:0000000000000000 SysTick_Handler
/var/folders/m4/4md61f0s1_g0rzfghffqnxvr0000gn/T//cc4KKRZm.s:96     .text.st_lld_init:0000000000000000 $t
/var/folders/m4/4md61f0s1_g0rzfghffqnxvr0000gn/T//cc4KKRZm.s:102    .text.st_lld_init:0000000000000000 st_lld_init
/var/folders/m4/4md61f0s1_g0rzfghffqnxvr0000gn/T//cc4KKRZm.s:131    .text.st_lld_init:0000000000000018 $d
                     .debug_frame:0000000000000010 $d

UNDEFINED SYMBOLS
chSysTimerHandlerI
_port_irq_epilogue
nvicSetSystemHandlerPriority
