ARM GAS  /var/folders/m4/4md61f0s1_g0rzfghffqnxvr0000gn/T//ccTIFpbg.s 			page 1


   1              		.syntax unified
   2              		.cpu cortex-m4
   3              		.eabi_attribute 27, 1
   4              		.eabi_attribute 28, 1
   5              		.fpu fpv4-sp-d16
   6              		.eabi_attribute 20, 1
   7              		.eabi_attribute 21, 1
   8              		.eabi_attribute 23, 3
   9              		.eabi_attribute 24, 1
  10              		.eabi_attribute 25, 1
  11              		.eabi_attribute 26, 1
  12              		.eabi_attribute 30, 2
  13              		.eabi_attribute 34, 1
  14              		.eabi_attribute 18, 4
  15              		.thumb
  16              		.file	"stm32f4xx_adc.c"
  17              		.text
  18              	.Ltext0:
  19              		.cfi_sections	.debug_frame
  20              		.section	.text.ADC_DeInit,"ax",%progbits
  21              		.align	2
  22              		.p2align 4,,15
  23              		.global	ADC_DeInit
  24              		.thumb
  25              		.thumb_func
  26              		.type	ADC_DeInit, %function
  27              	ADC_DeInit:
  28              	.LFB123:
  29              		.file 1 "ChibiOS_16.1.4/ext/stdperiph_stm32f4/src/stm32f4xx_adc.c"
  30              		.loc 1 214 0
  31              		.cfi_startproc
  32              		@ args = 0, pretend = 0, frame = 0
  33              		@ frame_needed = 0, uses_anonymous_args = 0
  34 0000 08B5     		push	{r3, lr}
  35              		.cfi_def_cfa_offset 8
  36              		.cfi_offset 3, -8
  37              		.cfi_offset 14, -4
  38              		.loc 1 216 0
  39 0002 4FF48070 		mov	r0, #256
  40 0006 0121     		movs	r1, #1
  41 0008 FFF7FEFF 		bl	RCC_APB2PeriphResetCmd
  42              	.LVL0:
  43              		.loc 1 219 0
  44 000c 4FF48070 		mov	r0, #256
  45 0010 0021     		movs	r1, #0
  46              		.loc 1 220 0
  47 0012 BDE80840 		pop	{r3, lr}
  48              		.cfi_restore 14
  49              		.cfi_restore 3
  50              		.cfi_def_cfa_offset 0
  51              		.loc 1 219 0
  52 0016 FFF7FEBF 		b	RCC_APB2PeriphResetCmd
  53              	.LVL1:
  54              		.cfi_endproc
  55              	.LFE123:
  56              		.size	ADC_DeInit, .-ADC_DeInit
  57 001a 00BF     		.section	.text.ADC_Init,"ax",%progbits
ARM GAS  /var/folders/m4/4md61f0s1_g0rzfghffqnxvr0000gn/T//ccTIFpbg.s 			page 2


  58              		.align	2
  59              		.p2align 4,,15
  60              		.global	ADC_Init
  61              		.thumb
  62              		.thumb_func
  63              		.type	ADC_Init, %function
  64              	ADC_Init:
  65              	.LFB124:
  66              		.loc 1 236 0
  67              		.cfi_startproc
  68              		@ args = 0, pretend = 0, frame = 0
  69              		@ frame_needed = 0, uses_anonymous_args = 0
  70              	.LVL2:
  71 0000 F8B5     		push	{r3, r4, r5, r6, r7, lr}
  72              		.cfi_def_cfa_offset 24
  73              		.cfi_offset 3, -24
  74              		.cfi_offset 4, -20
  75              		.cfi_offset 5, -16
  76              		.cfi_offset 6, -12
  77              		.cfi_offset 7, -8
  78              		.cfi_offset 14, -4
  79              		.loc 1 240 0
  80 0002 434B     		ldr	r3, .L23
  81 0004 9842     		cmp	r0, r3
  82              		.loc 1 236 0
  83 0006 0546     		mov	r5, r0
  84 0008 0C46     		mov	r4, r1
  85              		.loc 1 240 0
  86 000a 6FD0     		beq	.L10
  87              		.loc 1 240 0 is_stmt 0 discriminator 2
  88 000c 03F58073 		add	r3, r3, #256
  89 0010 9842     		cmp	r0, r3
  90 0012 6BD0     		beq	.L10
  91              		.loc 1 240 0 discriminator 4
  92 0014 3F48     		ldr	r0, .L23+4
  93              	.LVL3:
  94 0016 281A     		subs	r0, r5, r0
  95 0018 B0FA80F0 		clz	r0, r0
  96 001c 4009     		lsrs	r0, r0, #5
  97              	.L4:
  98              		.loc 1 240 0 discriminator 8
  99 001e FFF7FEFF 		bl	assert_param
 100              	.LVL4:
 101              		.loc 1 241 0 is_stmt 1 discriminator 8
 102 0022 2068     		ldr	r0, [r4]
 103 0024 30F08070 		bics	r0, r0, #16777216
 104 0028 17BF     		itett	ne
 105 002a A0F10070 		subne	r0, r0, #33554432
 106 002e 0120     		moveq	r0, #1
 107 0030 B0FA80F0 		clzne	r0, r0
 108 0034 4009     		lsrne	r0, r0, #5
 109 0036 FFF7FEFF 		bl	assert_param
 110              	.LVL5:
 111              		.loc 1 242 0 discriminator 8
 112 003a 2079     		ldrb	r0, [r4, #4]	@ zero_extendqisi2
 113 003c 0128     		cmp	r0, #1
 114 003e 8CBF     		ite	hi
ARM GAS  /var/folders/m4/4md61f0s1_g0rzfghffqnxvr0000gn/T//ccTIFpbg.s 			page 3


 115 0040 0020     		movhi	r0, #0
 116 0042 0120     		movls	r0, #1
 117 0044 FFF7FEFF 		bl	assert_param
 118              	.LVL6:
 119              		.loc 1 243 0 discriminator 8
 120 0048 6079     		ldrb	r0, [r4, #5]	@ zero_extendqisi2
 121 004a 0128     		cmp	r0, #1
 122 004c 8CBF     		ite	hi
 123 004e 0020     		movhi	r0, #0
 124 0050 0120     		movls	r0, #1
 125 0052 FFF7FEFF 		bl	assert_param
 126              	.LVL7:
 127              		.loc 1 244 0 discriminator 8
 128 0056 A068     		ldr	r0, [r4, #8]
 129 0058 30F08050 		bics	r0, r0, #268435456
 130 005c 44D0     		beq	.L12
 131              		.loc 1 244 0 is_stmt 0 discriminator 4
 132 005e A0F10050 		sub	r0, r0, #536870912
 133 0062 B0FA80F0 		clz	r0, r0
 134 0066 4009     		lsrs	r0, r0, #5
 135              	.L6:
 136              		.loc 1 244 0
 137 0068 FFF7FEFF 		bl	assert_param
 138              	.LVL8:
 139              		.loc 1 245 0 is_stmt 1
 140 006c E368     		ldr	r3, [r4, #12]
 141 006e 23F08070 		bic	r0, r3, #16777216
 142 0072 33F04073 		bics	r3, r3, #50331648
 143 0076 3BD1     		bne	.L22
 144              	.L16:
 145 0078 0120     		movs	r0, #1
 146              	.L7:
 147              		.loc 1 245 0 is_stmt 0 discriminator 34
 148 007a FFF7FEFF 		bl	assert_param
 149              	.LVL9:
 150              		.loc 1 246 0 is_stmt 1 discriminator 34
 151 007e 2369     		ldr	r3, [r4, #16]
 152 0080 33F40063 		bics	r3, r3, #2048
 153 0084 0CBF     		ite	eq
 154 0086 0120     		moveq	r0, #1
 155 0088 0020     		movne	r0, #0
 156 008a FFF7FEFF 		bl	assert_param
 157              	.LVL10:
 158              		.loc 1 247 0 discriminator 34
 159 008e 207D     		ldrb	r0, [r4, #20]	@ zero_extendqisi2
 160 0090 0138     		subs	r0, r0, #1
 161 0092 0F28     		cmp	r0, #15
 162 0094 8CBF     		ite	hi
 163 0096 0020     		movhi	r0, #0
 164 0098 0120     		movls	r0, #1
 165 009a FFF7FEFF 		bl	assert_param
 166              	.LVL11:
 167              		.loc 1 251 0 discriminator 34
 168 009e 6968     		ldr	r1, [r5, #4]
 169              	.LVL12:
 170 00a0 2268     		ldr	r2, [r4]
 171              		.loc 1 259 0 discriminator 34
ARM GAS  /var/folders/m4/4md61f0s1_g0rzfghffqnxvr0000gn/T//ccTIFpbg.s 			page 4


 172 00a2 94F804C0 		ldrb	ip, [r4, #4]	@ zero_extendqisi2
 173 00a6 D4F80CE0 		ldr	lr, [r4, #12]
 174 00aa 2669     		ldr	r6, [r4, #16]
 175 00ac A068     		ldr	r0, [r4, #8]
 176              		.loc 1 279 0 discriminator 34
 177 00ae 6779     		ldrb	r7, [r4, #5]	@ zero_extendqisi2
 178              		.loc 1 268 0 discriminator 34
 179 00b0 194B     		ldr	r3, .L23+8
 180              		.loc 1 254 0 discriminator 34
 181 00b2 21F04071 		bic	r1, r1, #50331648
 182              	.LVL13:
 183 00b6 21F48071 		bic	r1, r1, #256
 184 00ba 0A43     		orrs	r2, r2, r1
 185              		.loc 1 259 0 discriminator 34
 186 00bc 42EA0C22 		orr	r2, r2, ip, lsl #8
 187              	.LVL14:
 188              		.loc 1 262 0 discriminator 34
 189 00c0 6A60     		str	r2, [r5, #4]
 190              		.loc 1 265 0 discriminator 34
 191 00c2 A968     		ldr	r1, [r5, #8]
 192              	.LVL15:
 193 00c4 4EEA0602 		orr	r2, lr, r6
 194 00c8 0243     		orrs	r2, r2, r0
 195              		.loc 1 268 0 discriminator 34
 196 00ca 0B40     		ands	r3, r3, r1
 197              	.LVL16:
 198 00cc 1343     		orrs	r3, r3, r2
 199              	.LVL17:
 200              		.loc 1 276 0 discriminator 34
 201 00ce 43EA4703 		orr	r3, r3, r7, lsl #1
 202              	.LVL18:
 203              		.loc 1 282 0 discriminator 34
 204 00d2 AB60     		str	r3, [r5, #8]
 205              		.loc 1 292 0 discriminator 34
 206 00d4 227D     		ldrb	r2, [r4, #20]	@ zero_extendqisi2
 207              		.loc 1 285 0 discriminator 34
 208 00d6 EB6A     		ldr	r3, [r5, #44]
 209              	.LVL19:
 210              		.loc 1 292 0 discriminator 34
 211 00d8 013A     		subs	r2, r2, #1
 212              		.loc 1 293 0 discriminator 34
 213 00da D2B2     		uxtb	r2, r2
 214              		.loc 1 288 0 discriminator 34
 215 00dc 23F47003 		bic	r3, r3, #15728640
 216              	.LVL20:
 217              		.loc 1 293 0 discriminator 34
 218 00e0 43EA0253 		orr	r3, r3, r2, lsl #20
 219              	.LVL21:
 220              		.loc 1 296 0 discriminator 34
 221 00e4 EB62     		str	r3, [r5, #44]
 222              	.LVL22:
 223 00e6 F8BD     		pop	{r3, r4, r5, r6, r7, pc}
 224              	.LVL23:
 225              	.L12:
 226              		.loc 1 244 0
 227 00e8 0120     		movs	r0, #1
 228 00ea BDE7     		b	.L6
ARM GAS  /var/folders/m4/4md61f0s1_g0rzfghffqnxvr0000gn/T//ccTIFpbg.s 			page 5


 229              	.LVL24:
 230              	.L10:
 231              		.loc 1 240 0
 232 00ec 0120     		movs	r0, #1
 233              	.LVL25:
 234 00ee 96E7     		b	.L4
 235              	.LVL26:
 236              	.L22:
 237              		.loc 1 245 0 discriminator 8
 238 00f0 B3F1806F 		cmp	r3, #67108864
 239 00f4 C0D0     		beq	.L16
 240              		.loc 1 245 0 is_stmt 0 discriminator 16
 241 00f6 B3F1006F 		cmp	r3, #134217728
 242 00fa BDD0     		beq	.L16
 243              		.loc 1 245 0 discriminator 24
 244 00fc B0F1406F 		cmp	r0, #201326592
 245 0100 BAD0     		beq	.L16
 246              		.loc 1 245 0 discriminator 28
 247 0102 A0F16060 		sub	r0, r0, #234881024
 248 0106 B0FA80F0 		clz	r0, r0
 249 010a 4009     		lsrs	r0, r0, #5
 250 010c B5E7     		b	.L7
 251              	.L24:
 252 010e 00BF     		.align	2
 253              	.L23:
 254 0110 00200140 		.word	1073815552
 255 0114 00220140 		.word	1073816064
 256 0118 FDF7FFC0 		.word	-1056966659
 257              		.cfi_endproc
 258              	.LFE124:
 259              		.size	ADC_Init, .-ADC_Init
 260              		.section	.text.ADC_StructInit,"ax",%progbits
 261              		.align	2
 262              		.p2align 4,,15
 263              		.global	ADC_StructInit
 264              		.thumb
 265              		.thumb_func
 266              		.type	ADC_StructInit, %function
 267              	ADC_StructInit:
 268              	.LFB125:
 269              		.loc 1 311 0 is_stmt 1
 270              		.cfi_startproc
 271              		@ args = 0, pretend = 0, frame = 0
 272              		@ frame_needed = 0, uses_anonymous_args = 0
 273              		@ link register save eliminated.
 274              	.LVL27:
 275              		.loc 1 313 0
 276 0000 0023     		movs	r3, #0
 277              		.loc 1 331 0
 278 0002 0122     		movs	r2, #1
 279 0004 0275     		strb	r2, [r0, #20]
 280              		.loc 1 313 0
 281 0006 0360     		str	r3, [r0]
 282              		.loc 1 316 0
 283 0008 0371     		strb	r3, [r0, #4]
 284              		.loc 1 319 0
 285 000a 4371     		strb	r3, [r0, #5]
ARM GAS  /var/folders/m4/4md61f0s1_g0rzfghffqnxvr0000gn/T//ccTIFpbg.s 			page 6


 286              		.loc 1 322 0
 287 000c 8360     		str	r3, [r0, #8]
 288              		.loc 1 325 0
 289 000e C360     		str	r3, [r0, #12]
 290              		.loc 1 328 0
 291 0010 0361     		str	r3, [r0, #16]
 292 0012 7047     		bx	lr
 293              		.cfi_endproc
 294              	.LFE125:
 295              		.size	ADC_StructInit, .-ADC_StructInit
 296              		.section	.text.ADC_CommonInit,"ax",%progbits
 297              		.align	2
 298              		.p2align 4,,15
 299              		.global	ADC_CommonInit
 300              		.thumb
 301              		.thumb_func
 302              		.type	ADC_CommonInit, %function
 303              	ADC_CommonInit:
 304              	.LFB126:
 305              		.loc 1 342 0
 306              		.cfi_startproc
 307              		@ args = 0, pretend = 0, frame = 0
 308              		@ frame_needed = 0, uses_anonymous_args = 0
 309              	.LVL28:
 310 0000 70B5     		push	{r4, r5, r6, lr}
 311              		.cfi_def_cfa_offset 16
 312              		.cfi_offset 4, -16
 313              		.cfi_offset 5, -12
 314              		.cfi_offset 6, -8
 315              		.cfi_offset 14, -4
 316              		.loc 1 342 0
 317 0002 0446     		mov	r4, r0
 318              		.loc 1 345 0
 319 0004 0068     		ldr	r0, [r0]
 320              	.LVL29:
 321 0006 0228     		cmp	r0, #2
 322 0008 0CD9     		bls	.L34
 323              		.loc 1 345 0 is_stmt 0 discriminator 2
 324 000a 20F01003 		bic	r3, r0, #16
 325 000e 5A1F     		subs	r2, r3, #5
 326 0010 022A     		cmp	r2, #2
 327 0012 07D9     		bls	.L34
 328              		.loc 1 345 0 discriminator 8
 329 0014 092B     		cmp	r3, #9
 330 0016 05D0     		beq	.L34
 331              		.loc 1 345 0 discriminator 10
 332 0018 1138     		subs	r0, r0, #17
 333 001a 0128     		cmp	r0, #1
 334 001c 8CBF     		ite	hi
 335 001e 0020     		movhi	r0, #0
 336 0020 0120     		movls	r0, #1
 337 0022 00E0     		b	.L27
 338              	.L34:
 339              		.loc 1 345 0
 340 0024 0120     		movs	r0, #1
 341              	.L27:
 342              		.loc 1 345 0 discriminator 24
ARM GAS  /var/folders/m4/4md61f0s1_g0rzfghffqnxvr0000gn/T//ccTIFpbg.s 			page 7


 343 0026 FFF7FEFF 		bl	assert_param
 344              	.LVL30:
 345              		.loc 1 346 0 is_stmt 1 discriminator 24
 346 002a 6068     		ldr	r0, [r4, #4]
 347 002c 30F48030 		bics	r0, r0, #65536
 348 0030 17BF     		itett	ne
 349 0032 A0F50030 		subne	r0, r0, #131072
 350 0036 0120     		moveq	r0, #1
 351 0038 B0FA80F0 		clzne	r0, r0
 352 003c 4009     		lsrne	r0, r0, #5
 353 003e FFF7FEFF 		bl	assert_param
 354              	.LVL31:
 355              		.loc 1 347 0 discriminator 24
 356 0042 A068     		ldr	r0, [r4, #8]
 357 0044 30F48040 		bics	r0, r0, #16384
 358 0048 1BD0     		beq	.L36
 359              		.loc 1 347 0 is_stmt 0 discriminator 4
 360 004a A0F50040 		sub	r0, r0, #32768
 361 004e B0FA80F0 		clz	r0, r0
 362 0052 4009     		lsrs	r0, r0, #5
 363              	.L29:
 364              		.loc 1 347 0
 365 0054 FFF7FEFF 		bl	assert_param
 366              	.LVL32:
 367              		.loc 1 348 0 is_stmt 1
 368 0058 E368     		ldr	r3, [r4, #12]
 369 005a 23F48070 		bic	r0, r3, #256
 370 005e 33F44073 		bics	r3, r3, #768
 371 0062 10D0     		beq	.L40
 372              		.loc 1 348 0 is_stmt 0 discriminator 8
 373 0064 B3F5806F 		cmp	r3, #1024
 374 0068 0DD0     		beq	.L40
 375              		.loc 1 348 0 discriminator 16
 376 006a B3F5006F 		cmp	r3, #2048
 377 006e 0AD0     		beq	.L40
 378              		.loc 1 348 0 discriminator 24
 379 0070 B0F5406F 		cmp	r0, #3072
 380 0074 07D0     		beq	.L40
 381              		.loc 1 348 0 discriminator 28
 382 0076 A0F56060 		sub	r0, r0, #3584
 383 007a B0FA80F0 		clz	r0, r0
 384 007e 4009     		lsrs	r0, r0, #5
 385 0080 02E0     		b	.L30
 386              	.L36:
 387              		.loc 1 347 0 is_stmt 1
 388 0082 0120     		movs	r0, #1
 389 0084 E6E7     		b	.L29
 390              	.L40:
 391              		.loc 1 348 0
 392 0086 0120     		movs	r0, #1
 393              	.L30:
 394              		.loc 1 348 0 is_stmt 0 discriminator 34
 395 0088 FFF7FEFF 		bl	assert_param
 396              	.LVL33:
 397              		.loc 1 362 0 is_stmt 1 discriminator 34
 398 008c 94E84400 		ldmia	r4, {r2, r6}
 399              		.loc 1 351 0 discriminator 34
ARM GAS  /var/folders/m4/4md61f0s1_g0rzfghffqnxvr0000gn/T//ccTIFpbg.s 			page 8


 400 0090 054D     		ldr	r5, .L44
 401              		.loc 1 363 0 discriminator 34
 402 0092 A068     		ldr	r0, [r4, #8]
 403              		.loc 1 362 0 discriminator 34
 404 0094 E168     		ldr	r1, [r4, #12]
 405              		.loc 1 354 0 discriminator 34
 406 0096 054B     		ldr	r3, .L44+4
 407              		.loc 1 351 0 discriminator 34
 408 0098 6C68     		ldr	r4, [r5, #4]
 409              	.LVL34:
 410              		.loc 1 362 0 discriminator 34
 411 009a 3243     		orrs	r2, r2, r6
 412              		.loc 1 363 0 discriminator 34
 413 009c 0243     		orrs	r2, r2, r0
 414              		.loc 1 362 0 discriminator 34
 415 009e 0A43     		orrs	r2, r2, r1
 416              		.loc 1 354 0 discriminator 34
 417 00a0 2340     		ands	r3, r3, r4
 418              	.LVL35:
 419              		.loc 1 362 0 discriminator 34
 420 00a2 1343     		orrs	r3, r3, r2
 421              	.LVL36:
 422              		.loc 1 368 0 discriminator 34
 423 00a4 6B60     		str	r3, [r5, #4]
 424 00a6 70BD     		pop	{r4, r5, r6, pc}
 425              	.L45:
 426              		.align	2
 427              	.L44:
 428 00a8 00230140 		.word	1073816320
 429 00ac E030FCFF 		.word	-249632
 430              		.cfi_endproc
 431              	.LFE126:
 432              		.size	ADC_CommonInit, .-ADC_CommonInit
 433              		.section	.text.ADC_CommonStructInit,"ax",%progbits
 434              		.align	2
 435              		.p2align 4,,15
 436              		.global	ADC_CommonStructInit
 437              		.thumb
 438              		.thumb_func
 439              		.type	ADC_CommonStructInit, %function
 440              	ADC_CommonStructInit:
 441              	.LFB127:
 442              		.loc 1 378 0
 443              		.cfi_startproc
 444              		@ args = 0, pretend = 0, frame = 0
 445              		@ frame_needed = 0, uses_anonymous_args = 0
 446              		@ link register save eliminated.
 447              	.LVL37:
 448              		.loc 1 380 0
 449 0000 0023     		movs	r3, #0
 450 0002 0360     		str	r3, [r0]
 451              		.loc 1 383 0
 452 0004 4360     		str	r3, [r0, #4]
 453              		.loc 1 386 0
 454 0006 8360     		str	r3, [r0, #8]
 455              		.loc 1 389 0
 456 0008 C360     		str	r3, [r0, #12]
ARM GAS  /var/folders/m4/4md61f0s1_g0rzfghffqnxvr0000gn/T//ccTIFpbg.s 			page 9


 457 000a 7047     		bx	lr
 458              		.cfi_endproc
 459              	.LFE127:
 460              		.size	ADC_CommonStructInit, .-ADC_CommonStructInit
 461              		.section	.text.ADC_Cmd,"ax",%progbits
 462              		.align	2
 463              		.p2align 4,,15
 464              		.global	ADC_Cmd
 465              		.thumb
 466              		.thumb_func
 467              		.type	ADC_Cmd, %function
 468              	ADC_Cmd:
 469              	.LFB128:
 470              		.loc 1 400 0
 471              		.cfi_startproc
 472              		@ args = 0, pretend = 0, frame = 0
 473              		@ frame_needed = 0, uses_anonymous_args = 0
 474              	.LVL38:
 475 0000 38B5     		push	{r3, r4, r5, lr}
 476              		.cfi_def_cfa_offset 16
 477              		.cfi_offset 3, -16
 478              		.cfi_offset 4, -12
 479              		.cfi_offset 5, -8
 480              		.cfi_offset 14, -4
 481              		.loc 1 402 0
 482 0002 114B     		ldr	r3, .L55
 483 0004 9842     		cmp	r0, r3
 484              		.loc 1 400 0
 485 0006 0446     		mov	r4, r0
 486 0008 0D46     		mov	r5, r1
 487              		.loc 1 402 0
 488 000a 1AD0     		beq	.L52
 489              		.loc 1 402 0 is_stmt 0 discriminator 2
 490 000c 03F58073 		add	r3, r3, #256
 491 0010 9842     		cmp	r0, r3
 492 0012 16D0     		beq	.L52
 493              		.loc 1 402 0 discriminator 4
 494 0014 0D48     		ldr	r0, .L55+4
 495              	.LVL39:
 496 0016 201A     		subs	r0, r4, r0
 497 0018 B0FA80F0 		clz	r0, r0
 498 001c 4009     		lsrs	r0, r0, #5
 499              	.L48:
 500              		.loc 1 402 0 discriminator 8
 501 001e FFF7FEFF 		bl	assert_param
 502              	.LVL40:
 503              		.loc 1 403 0 is_stmt 1 discriminator 8
 504 0022 012D     		cmp	r5, #1
 505 0024 8CBF     		ite	hi
 506 0026 0020     		movhi	r0, #0
 507 0028 0120     		movls	r0, #1
 508 002a FFF7FEFF 		bl	assert_param
 509              	.LVL41:
 510              		.loc 1 407 0 discriminator 8
 511 002e A368     		ldr	r3, [r4, #8]
 512              		.loc 1 404 0 discriminator 8
 513 0030 1DB9     		cbnz	r5, .L54
ARM GAS  /var/folders/m4/4md61f0s1_g0rzfghffqnxvr0000gn/T//ccTIFpbg.s 			page 10


 514              		.loc 1 412 0
 515 0032 23F00103 		bic	r3, r3, #1
 516 0036 A360     		str	r3, [r4, #8]
 517 0038 38BD     		pop	{r3, r4, r5, pc}
 518              	.LVL42:
 519              	.L54:
 520              		.loc 1 407 0
 521 003a 43F00103 		orr	r3, r3, #1
 522 003e A360     		str	r3, [r4, #8]
 523 0040 38BD     		pop	{r3, r4, r5, pc}
 524              	.LVL43:
 525              	.L52:
 526              		.loc 1 402 0
 527 0042 0120     		movs	r0, #1
 528              	.LVL44:
 529 0044 EBE7     		b	.L48
 530              	.L56:
 531 0046 00BF     		.align	2
 532              	.L55:
 533 0048 00200140 		.word	1073815552
 534 004c 00220140 		.word	1073816064
 535              		.cfi_endproc
 536              	.LFE128:
 537              		.size	ADC_Cmd, .-ADC_Cmd
 538              		.section	.text.ADC_AnalogWatchdogCmd,"ax",%progbits
 539              		.align	2
 540              		.p2align 4,,15
 541              		.global	ADC_AnalogWatchdogCmd
 542              		.thumb
 543              		.thumb_func
 544              		.type	ADC_AnalogWatchdogCmd, %function
 545              	ADC_AnalogWatchdogCmd:
 546              	.LFB129:
 547              		.loc 1 456 0
 548              		.cfi_startproc
 549              		@ args = 0, pretend = 0, frame = 0
 550              		@ frame_needed = 0, uses_anonymous_args = 0
 551              	.LVL45:
 552 0000 38B5     		push	{r3, r4, r5, lr}
 553              		.cfi_def_cfa_offset 16
 554              		.cfi_offset 3, -16
 555              		.cfi_offset 4, -12
 556              		.cfi_offset 5, -8
 557              		.cfi_offset 14, -4
 558              		.loc 1 459 0
 559 0002 184B     		ldr	r3, .L66
 560 0004 9842     		cmp	r0, r3
 561              		.loc 1 456 0
 562 0006 0446     		mov	r4, r0
 563 0008 0D46     		mov	r5, r1
 564              		.loc 1 459 0
 565 000a 28D0     		beq	.L61
 566              		.loc 1 459 0 is_stmt 0 discriminator 2
 567 000c 03F58073 		add	r3, r3, #256
 568 0010 9842     		cmp	r0, r3
 569 0012 24D0     		beq	.L61
 570              		.loc 1 459 0 discriminator 4
ARM GAS  /var/folders/m4/4md61f0s1_g0rzfghffqnxvr0000gn/T//ccTIFpbg.s 			page 11


 571 0014 1448     		ldr	r0, .L66+4
 572              	.LVL46:
 573 0016 201A     		subs	r0, r4, r0
 574 0018 B0FA80F0 		clz	r0, r0
 575 001c 4009     		lsrs	r0, r0, #5
 576              	.L58:
 577              		.loc 1 459 0 discriminator 8
 578 001e FFF7FEFF 		bl	assert_param
 579              	.LVL47:
 580              		.loc 1 460 0 is_stmt 1 discriminator 8
 581 0022 124B     		ldr	r3, .L66+8
 582 0024 25F40002 		bic	r2, r5, #8388608
 583 0028 9A42     		cmp	r2, r3
 584 002a 16D0     		beq	.L64
 585              		.loc 1 460 0 is_stmt 0 discriminator 6
 586 002c 25F40073 		bic	r3, r5, #512
 587 0030 B3F5000F 		cmp	r3, #8388608
 588 0034 11D0     		beq	.L64
 589              		.loc 1 460 0 discriminator 10
 590 0036 B5F5400F 		cmp	r5, #12582912
 591 003a 0ED0     		beq	.L64
 592              		.loc 1 460 0 discriminator 12
 593 003c 35F48003 		bics	r3, r5, #4194304
 594 0040 0CBF     		ite	eq
 595 0042 0120     		moveq	r0, #1
 596 0044 0020     		movne	r0, #0
 597              	.L59:
 598              		.loc 1 460 0 discriminator 16
 599 0046 FFF7FEFF 		bl	assert_param
 600              	.LVL48:
 601              		.loc 1 463 0 is_stmt 1 discriminator 16
 602 004a 6268     		ldr	r2, [r4, #4]
 603              	.LVL49:
 604              		.loc 1 466 0 discriminator 16
 605 004c 22F44003 		bic	r3, r2, #12582912
 606 0050 23F40073 		bic	r3, r3, #512
 607              	.LVL50:
 608              		.loc 1 469 0 discriminator 16
 609 0054 2B43     		orrs	r3, r3, r5
 610              	.LVL51:
 611              		.loc 1 472 0 discriminator 16
 612 0056 6360     		str	r3, [r4, #4]
 613 0058 38BD     		pop	{r3, r4, r5, pc}
 614              	.LVL52:
 615              	.L64:
 616              		.loc 1 460 0
 617 005a 0120     		movs	r0, #1
 618 005c F3E7     		b	.L59
 619              	.LVL53:
 620              	.L61:
 621              		.loc 1 459 0
 622 005e 0120     		movs	r0, #1
 623              	.LVL54:
 624 0060 DDE7     		b	.L58
 625              	.L67:
 626 0062 00BF     		.align	2
 627              	.L66:
ARM GAS  /var/folders/m4/4md61f0s1_g0rzfghffqnxvr0000gn/T//ccTIFpbg.s 			page 12


 628 0064 00200140 		.word	1073815552
 629 0068 00220140 		.word	1073816064
 630 006c 00024000 		.word	4194816
 631              		.cfi_endproc
 632              	.LFE129:
 633              		.size	ADC_AnalogWatchdogCmd, .-ADC_AnalogWatchdogCmd
 634              		.section	.text.ADC_AnalogWatchdogThresholdsConfig,"ax",%progbits
 635              		.align	2
 636              		.p2align 4,,15
 637              		.global	ADC_AnalogWatchdogThresholdsConfig
 638              		.thumb
 639              		.thumb_func
 640              		.type	ADC_AnalogWatchdogThresholdsConfig, %function
 641              	ADC_AnalogWatchdogThresholdsConfig:
 642              	.LFB130:
 643              		.loc 1 486 0
 644              		.cfi_startproc
 645              		@ args = 0, pretend = 0, frame = 0
 646              		@ frame_needed = 0, uses_anonymous_args = 0
 647              	.LVL55:
 648 0000 F8B5     		push	{r3, r4, r5, r6, r7, lr}
 649              		.cfi_def_cfa_offset 24
 650              		.cfi_offset 3, -24
 651              		.cfi_offset 4, -20
 652              		.cfi_offset 5, -16
 653              		.cfi_offset 6, -12
 654              		.cfi_offset 7, -8
 655              		.cfi_offset 14, -4
 656              		.loc 1 488 0
 657 0002 124B     		ldr	r3, .L73
 658 0004 9842     		cmp	r0, r3
 659              		.loc 1 486 0
 660 0006 0446     		mov	r4, r0
 661 0008 0E46     		mov	r6, r1
 662 000a 1546     		mov	r5, r2
 663              		.loc 1 488 0
 664 000c 1BD0     		beq	.L71
 665              		.loc 1 488 0 is_stmt 0 discriminator 2
 666 000e 03F58073 		add	r3, r3, #256
 667 0012 9842     		cmp	r0, r3
 668 0014 17D0     		beq	.L71
 669              		.loc 1 488 0 discriminator 4
 670 0016 0E48     		ldr	r0, .L73+4
 671              	.LVL56:
 672 0018 201A     		subs	r0, r4, r0
 673 001a B0FA80F0 		clz	r0, r0
 674 001e 4009     		lsrs	r0, r0, #5
 675              	.L69:
 676              		.loc 1 489 0 is_stmt 1 discriminator 8
 677 0020 40F6FF77 		movw	r7, #4095
 678              		.loc 1 488 0 discriminator 8
 679 0024 FFF7FEFF 		bl	assert_param
 680              	.LVL57:
 681              		.loc 1 489 0 discriminator 8
 682 0028 BE42     		cmp	r6, r7
 683 002a 8CBF     		ite	hi
 684 002c 0020     		movhi	r0, #0
ARM GAS  /var/folders/m4/4md61f0s1_g0rzfghffqnxvr0000gn/T//ccTIFpbg.s 			page 13


 685 002e 0120     		movls	r0, #1
 686 0030 FFF7FEFF 		bl	assert_param
 687              	.LVL58:
 688              		.loc 1 490 0 discriminator 8
 689 0034 BD42     		cmp	r5, r7
 690 0036 8CBF     		ite	hi
 691 0038 0020     		movhi	r0, #0
 692 003a 0120     		movls	r0, #1
 693 003c FFF7FEFF 		bl	assert_param
 694              	.LVL59:
 695              		.loc 1 493 0 discriminator 8
 696 0040 6662     		str	r6, [r4, #36]
 697              		.loc 1 496 0 discriminator 8
 698 0042 A562     		str	r5, [r4, #40]
 699 0044 F8BD     		pop	{r3, r4, r5, r6, r7, pc}
 700              	.LVL60:
 701              	.L71:
 702              		.loc 1 488 0
 703 0046 0120     		movs	r0, #1
 704              	.LVL61:
 705 0048 EAE7     		b	.L69
 706              	.L74:
 707 004a 00BF     		.align	2
 708              	.L73:
 709 004c 00200140 		.word	1073815552
 710 0050 00220140 		.word	1073816064
 711              		.cfi_endproc
 712              	.LFE130:
 713              		.size	ADC_AnalogWatchdogThresholdsConfig, .-ADC_AnalogWatchdogThresholdsConfig
 714              		.section	.text.ADC_AnalogWatchdogSingleChannelConfig,"ax",%progbits
 715              		.align	2
 716              		.p2align 4,,15
 717              		.global	ADC_AnalogWatchdogSingleChannelConfig
 718              		.thumb
 719              		.thumb_func
 720              		.type	ADC_AnalogWatchdogSingleChannelConfig, %function
 721              	ADC_AnalogWatchdogSingleChannelConfig:
 722              	.LFB131:
 723              		.loc 1 526 0
 724              		.cfi_startproc
 725              		@ args = 0, pretend = 0, frame = 0
 726              		@ frame_needed = 0, uses_anonymous_args = 0
 727              	.LVL62:
 728 0000 38B5     		push	{r3, r4, r5, lr}
 729              		.cfi_def_cfa_offset 16
 730              		.cfi_offset 3, -16
 731              		.cfi_offset 4, -12
 732              		.cfi_offset 5, -8
 733              		.cfi_offset 14, -4
 734              		.loc 1 529 0
 735 0002 0F4B     		ldr	r3, .L80
 736 0004 9842     		cmp	r0, r3
 737              		.loc 1 526 0
 738 0006 0446     		mov	r4, r0
 739 0008 0D46     		mov	r5, r1
 740              		.loc 1 529 0
 741 000a 16D0     		beq	.L78
ARM GAS  /var/folders/m4/4md61f0s1_g0rzfghffqnxvr0000gn/T//ccTIFpbg.s 			page 14


 742              		.loc 1 529 0 is_stmt 0 discriminator 2
 743 000c 03F58073 		add	r3, r3, #256
 744 0010 9842     		cmp	r0, r3
 745 0012 12D0     		beq	.L78
 746              		.loc 1 529 0 discriminator 4
 747 0014 0B48     		ldr	r0, .L80+4
 748              	.LVL63:
 749 0016 201A     		subs	r0, r4, r0
 750 0018 B0FA80F0 		clz	r0, r0
 751 001c 4009     		lsrs	r0, r0, #5
 752              	.L76:
 753              		.loc 1 529 0 discriminator 8
 754 001e FFF7FEFF 		bl	assert_param
 755              	.LVL64:
 756              		.loc 1 530 0 is_stmt 1 discriminator 8
 757 0022 122D     		cmp	r5, #18
 758 0024 8CBF     		ite	hi
 759 0026 0020     		movhi	r0, #0
 760 0028 0120     		movls	r0, #1
 761 002a FFF7FEFF 		bl	assert_param
 762              	.LVL65:
 763              		.loc 1 533 0 discriminator 8
 764 002e 6168     		ldr	r1, [r4, #4]
 765              	.LVL66:
 766              		.loc 1 536 0 discriminator 8
 767 0030 21F01F01 		bic	r1, r1, #31
 768              	.LVL67:
 769              		.loc 1 539 0 discriminator 8
 770 0034 2943     		orrs	r1, r1, r5
 771              	.LVL68:
 772              		.loc 1 542 0 discriminator 8
 773 0036 6160     		str	r1, [r4, #4]
 774 0038 38BD     		pop	{r3, r4, r5, pc}
 775              	.LVL69:
 776              	.L78:
 777              		.loc 1 529 0
 778 003a 0120     		movs	r0, #1
 779              	.LVL70:
 780 003c EFE7     		b	.L76
 781              	.L81:
 782 003e 00BF     		.align	2
 783              	.L80:
 784 0040 00200140 		.word	1073815552
 785 0044 00220140 		.word	1073816064
 786              		.cfi_endproc
 787              	.LFE131:
 788              		.size	ADC_AnalogWatchdogSingleChannelConfig, .-ADC_AnalogWatchdogSingleChannelConfig
 789              		.section	.text.ADC_TempSensorVrefintCmd,"ax",%progbits
 790              		.align	2
 791              		.p2align 4,,15
 792              		.global	ADC_TempSensorVrefintCmd
 793              		.thumb
 794              		.thumb_func
 795              		.type	ADC_TempSensorVrefintCmd, %function
 796              	ADC_TempSensorVrefintCmd:
 797              	.LFB132:
 798              		.loc 1 590 0
ARM GAS  /var/folders/m4/4md61f0s1_g0rzfghffqnxvr0000gn/T//ccTIFpbg.s 			page 15


 799              		.cfi_startproc
 800              		@ args = 0, pretend = 0, frame = 0
 801              		@ frame_needed = 0, uses_anonymous_args = 0
 802              	.LVL71:
 803              		.loc 1 592 0
 804 0000 0128     		cmp	r0, #1
 805              		.loc 1 590 0
 806 0002 10B5     		push	{r4, lr}
 807              		.cfi_def_cfa_offset 8
 808              		.cfi_offset 4, -8
 809              		.cfi_offset 14, -4
 810              		.loc 1 590 0
 811 0004 0446     		mov	r4, r0
 812              		.loc 1 592 0
 813 0006 8CBF     		ite	hi
 814 0008 0020     		movhi	r0, #0
 815              	.LVL72:
 816 000a 0120     		movls	r0, #1
 817 000c FFF7FEFF 		bl	assert_param
 818              	.LVL73:
 819              		.loc 1 596 0
 820 0010 054A     		ldr	r2, .L87
 821 0012 5368     		ldr	r3, [r2, #4]
 822              		.loc 1 593 0
 823 0014 1CB9     		cbnz	r4, .L86
 824              		.loc 1 601 0
 825 0016 23F40003 		bic	r3, r3, #8388608
 826 001a 5360     		str	r3, [r2, #4]
 827 001c 10BD     		pop	{r4, pc}
 828              	.L86:
 829              		.loc 1 596 0
 830 001e 43F40003 		orr	r3, r3, #8388608
 831 0022 5360     		str	r3, [r2, #4]
 832 0024 10BD     		pop	{r4, pc}
 833              	.L88:
 834 0026 00BF     		.align	2
 835              	.L87:
 836 0028 00230140 		.word	1073816320
 837              		.cfi_endproc
 838              	.LFE132:
 839              		.size	ADC_TempSensorVrefintCmd, .-ADC_TempSensorVrefintCmd
 840              		.section	.text.ADC_VBATCmd,"ax",%progbits
 841              		.align	2
 842              		.p2align 4,,15
 843              		.global	ADC_VBATCmd
 844              		.thumb
 845              		.thumb_func
 846              		.type	ADC_VBATCmd, %function
 847              	ADC_VBATCmd:
 848              	.LFB133:
 849              		.loc 1 616 0
 850              		.cfi_startproc
 851              		@ args = 0, pretend = 0, frame = 0
 852              		@ frame_needed = 0, uses_anonymous_args = 0
 853              	.LVL74:
 854              		.loc 1 618 0
 855 0000 0128     		cmp	r0, #1
ARM GAS  /var/folders/m4/4md61f0s1_g0rzfghffqnxvr0000gn/T//ccTIFpbg.s 			page 16


 856              		.loc 1 616 0
 857 0002 10B5     		push	{r4, lr}
 858              		.cfi_def_cfa_offset 8
 859              		.cfi_offset 4, -8
 860              		.cfi_offset 14, -4
 861              		.loc 1 616 0
 862 0004 0446     		mov	r4, r0
 863              		.loc 1 618 0
 864 0006 8CBF     		ite	hi
 865 0008 0020     		movhi	r0, #0
 866              	.LVL75:
 867 000a 0120     		movls	r0, #1
 868 000c FFF7FEFF 		bl	assert_param
 869              	.LVL76:
 870              		.loc 1 622 0
 871 0010 054A     		ldr	r2, .L94
 872 0012 5368     		ldr	r3, [r2, #4]
 873              		.loc 1 619 0
 874 0014 1CB9     		cbnz	r4, .L93
 875              		.loc 1 627 0
 876 0016 23F48003 		bic	r3, r3, #4194304
 877 001a 5360     		str	r3, [r2, #4]
 878 001c 10BD     		pop	{r4, pc}
 879              	.L93:
 880              		.loc 1 622 0
 881 001e 43F48003 		orr	r3, r3, #4194304
 882 0022 5360     		str	r3, [r2, #4]
 883 0024 10BD     		pop	{r4, pc}
 884              	.L95:
 885 0026 00BF     		.align	2
 886              	.L94:
 887 0028 00230140 		.word	1073816320
 888              		.cfi_endproc
 889              	.LFE133:
 890              		.size	ADC_VBATCmd, .-ADC_VBATCmd
 891              		.section	.text.ADC_RegularChannelConfig,"ax",%progbits
 892              		.align	2
 893              		.p2align 4,,15
 894              		.global	ADC_RegularChannelConfig
 895              		.thumb
 896              		.thumb_func
 897              		.type	ADC_RegularChannelConfig, %function
 898              	ADC_RegularChannelConfig:
 899              	.LFB134:
 900              		.loc 1 716 0
 901              		.cfi_startproc
 902              		@ args = 0, pretend = 0, frame = 0
 903              		@ frame_needed = 0, uses_anonymous_args = 0
 904              	.LVL77:
 905 0000 2DE9F041 		push	{r4, r5, r6, r7, r8, lr}
 906              		.cfi_def_cfa_offset 24
 907              		.cfi_offset 4, -24
 908              		.cfi_offset 5, -20
 909              		.cfi_offset 6, -16
 910              		.cfi_offset 7, -12
 911              		.cfi_offset 8, -8
 912              		.cfi_offset 14, -4
ARM GAS  /var/folders/m4/4md61f0s1_g0rzfghffqnxvr0000gn/T//ccTIFpbg.s 			page 17


 913              		.loc 1 719 0
 914 0004 DFF8E4E0 		ldr	lr, .L108+8
 915 0008 7045     		cmp	r0, lr
 916              		.loc 1 716 0
 917 000a 0646     		mov	r6, r0
 918 000c 0C46     		mov	r4, r1
 919 000e 1546     		mov	r5, r2
 920 0010 1F46     		mov	r7, r3
 921              		.loc 1 719 0
 922 0012 65D0     		beq	.L104
 923              		.loc 1 719 0 is_stmt 0 discriminator 2
 924 0014 334B     		ldr	r3, .L108
 925              	.LVL78:
 926 0016 9842     		cmp	r0, r3
 927 0018 62D0     		beq	.L104
 928              		.loc 1 719 0 discriminator 4
 929 001a 3348     		ldr	r0, .L108+4
 930              	.LVL79:
 931 001c 301A     		subs	r0, r6, r0
 932 001e B0FA80F0 		clz	r0, r0
 933 0022 4009     		lsrs	r0, r0, #5
 934              	.L97:
 935              		.loc 1 719 0 discriminator 8
 936 0024 FFF7FEFF 		bl	assert_param
 937              	.LVL80:
 938              		.loc 1 720 0 is_stmt 1 discriminator 8
 939 0028 122C     		cmp	r4, #18
 940 002a 8CBF     		ite	hi
 941 002c 0020     		movhi	r0, #0
 942 002e 0120     		movls	r0, #1
 943              		.loc 1 721 0 discriminator 8
 944 0030 05F1FF38 		add	r8, r5, #-1
 945              		.loc 1 720 0 discriminator 8
 946 0034 FFF7FEFF 		bl	assert_param
 947              	.LVL81:
 948              		.loc 1 721 0 discriminator 8
 949 0038 5FFA88F0 		uxtb	r0, r8
 950 003c 0F28     		cmp	r0, #15
 951 003e 8CBF     		ite	hi
 952 0040 0020     		movhi	r0, #0
 953 0042 0120     		movls	r0, #1
 954 0044 FFF7FEFF 		bl	assert_param
 955              	.LVL82:
 956              		.loc 1 722 0 discriminator 8
 957 0048 072F     		cmp	r7, #7
 958 004a 8CBF     		ite	hi
 959 004c 0020     		movhi	r0, #0
 960 004e 0120     		movls	r0, #1
 961 0050 FFF7FEFF 		bl	assert_param
 962              	.LVL83:
 963              		.loc 1 725 0 discriminator 8
 964 0054 092C     		cmp	r4, #9
 965 0056 1CD9     		bls	.L98
 966              		.loc 1 731 0
 967 0058 A4F10A03 		sub	r3, r4, #10
 968 005c 03EB4303 		add	r3, r3, r3, lsl #1
 969              		.loc 1 728 0
ARM GAS  /var/folders/m4/4md61f0s1_g0rzfghffqnxvr0000gn/T//ccTIFpbg.s 			page 18


 970 0060 F268     		ldr	r2, [r6, #12]
 971              	.LVL84:
 972              		.loc 1 731 0
 973 0062 0721     		movs	r1, #7
 974 0064 9940     		lsls	r1, r1, r3
 975              	.LVL85:
 976              		.loc 1 737 0
 977 0066 9F40     		lsls	r7, r7, r3
 978              		.loc 1 734 0
 979 0068 22EA0103 		bic	r3, r2, r1
 980              	.LVL86:
 981              		.loc 1 740 0
 982 006c 1F43     		orrs	r7, r7, r3
 983              	.LVL87:
 984              		.loc 1 766 0
 985 006e 062D     		cmp	r5, #6
 986              		.loc 1 743 0
 987 0070 F760     		str	r7, [r6, #12]
 988              		.loc 1 766 0
 989 0072 1AD9     		bls	.L106
 990              	.L100:
 991              		.loc 1 787 0
 992 0074 0C2D     		cmp	r5, #12
 993 0076 26D9     		bls	.L107
 994              		.loc 1 814 0
 995 0078 0D3D     		subs	r5, r5, #13
 996 007a 05EB8505 		add	r5, r5, r5, lsl #2
 997              		.loc 1 811 0
 998 007e F36A     		ldr	r3, [r6, #44]
 999              	.LVL88:
 1000              		.loc 1 814 0
 1001 0080 1F21     		movs	r1, #31
 1002 0082 A940     		lsls	r1, r1, r5
 1003              	.LVL89:
 1004              		.loc 1 820 0
 1005 0084 AC40     		lsls	r4, r4, r5
 1006              		.loc 1 817 0
 1007 0086 23EA0101 		bic	r1, r3, r1
 1008              	.LVL90:
 1009              		.loc 1 823 0
 1010 008a 0C43     		orrs	r4, r4, r1
 1011              	.LVL91:
 1012              		.loc 1 826 0
 1013 008c F462     		str	r4, [r6, #44]
 1014 008e BDE8F081 		pop	{r4, r5, r6, r7, r8, pc}
 1015              	.LVL92:
 1016              	.L98:
 1017              		.loc 1 751 0
 1018 0092 04EB4401 		add	r1, r4, r4, lsl #1
 1019              		.loc 1 748 0
 1020 0096 3269     		ldr	r2, [r6, #16]
 1021              	.LVL93:
 1022              		.loc 1 751 0
 1023 0098 0723     		movs	r3, #7
 1024 009a 8B40     		lsls	r3, r3, r1
 1025              	.LVL94:
 1026              		.loc 1 757 0
ARM GAS  /var/folders/m4/4md61f0s1_g0rzfghffqnxvr0000gn/T//ccTIFpbg.s 			page 19


 1027 009c 8F40     		lsls	r7, r7, r1
 1028              		.loc 1 754 0
 1029 009e 22EA0303 		bic	r3, r2, r3
 1030              	.LVL95:
 1031              		.loc 1 760 0
 1032 00a2 1F43     		orrs	r7, r7, r3
 1033              	.LVL96:
 1034              		.loc 1 766 0
 1035 00a4 062D     		cmp	r5, #6
 1036              		.loc 1 763 0
 1037 00a6 3761     		str	r7, [r6, #16]
 1038              		.loc 1 766 0
 1039 00a8 E4D8     		bhi	.L100
 1040              	.L106:
 1041              		.loc 1 772 0
 1042 00aa 08EB8808 		add	r8, r8, r8, lsl #2
 1043              		.loc 1 769 0
 1044 00ae 736B     		ldr	r3, [r6, #52]
 1045              	.LVL97:
 1046              		.loc 1 772 0
 1047 00b0 1F21     		movs	r1, #31
 1048 00b2 01FA08F1 		lsl	r1, r1, r8
 1049              	.LVL98:
 1050              		.loc 1 778 0
 1051 00b6 04FA08F4 		lsl	r4, r4, r8
 1052              		.loc 1 775 0
 1053 00ba 23EA0101 		bic	r1, r3, r1
 1054              	.LVL99:
 1055              		.loc 1 781 0
 1056 00be 0C43     		orrs	r4, r4, r1
 1057              	.LVL100:
 1058              		.loc 1 784 0
 1059 00c0 7463     		str	r4, [r6, #52]
 1060 00c2 BDE8F081 		pop	{r4, r5, r6, r7, r8, pc}
 1061              	.LVL101:
 1062              	.L107:
 1063              		.loc 1 793 0
 1064 00c6 073D     		subs	r5, r5, #7
 1065 00c8 05EB8505 		add	r5, r5, r5, lsl #2
 1066              		.loc 1 790 0
 1067 00cc 336B     		ldr	r3, [r6, #48]
 1068              	.LVL102:
 1069              		.loc 1 793 0
 1070 00ce 1F21     		movs	r1, #31
 1071 00d0 A940     		lsls	r1, r1, r5
 1072              	.LVL103:
 1073              		.loc 1 799 0
 1074 00d2 AC40     		lsls	r4, r4, r5
 1075              		.loc 1 796 0
 1076 00d4 23EA0101 		bic	r1, r3, r1
 1077              	.LVL104:
 1078              		.loc 1 802 0
 1079 00d8 0C43     		orrs	r4, r4, r1
 1080              	.LVL105:
 1081              		.loc 1 805 0
 1082 00da 3463     		str	r4, [r6, #48]
 1083 00dc BDE8F081 		pop	{r4, r5, r6, r7, r8, pc}
ARM GAS  /var/folders/m4/4md61f0s1_g0rzfghffqnxvr0000gn/T//ccTIFpbg.s 			page 20


 1084              	.LVL106:
 1085              	.L104:
 1086              		.loc 1 719 0
 1087 00e0 0120     		movs	r0, #1
 1088              	.LVL107:
 1089 00e2 9FE7     		b	.L97
 1090              	.L109:
 1091              		.align	2
 1092              	.L108:
 1093 00e4 00210140 		.word	1073815808
 1094 00e8 00220140 		.word	1073816064
 1095 00ec 00200140 		.word	1073815552
 1096              		.cfi_endproc
 1097              	.LFE134:
 1098              		.size	ADC_RegularChannelConfig, .-ADC_RegularChannelConfig
 1099              		.section	.text.ADC_SoftwareStartConv,"ax",%progbits
 1100              		.align	2
 1101              		.p2align 4,,15
 1102              		.global	ADC_SoftwareStartConv
 1103              		.thumb
 1104              		.thumb_func
 1105              		.type	ADC_SoftwareStartConv, %function
 1106              	ADC_SoftwareStartConv:
 1107              	.LFB135:
 1108              		.loc 1 836 0
 1109              		.cfi_startproc
 1110              		@ args = 0, pretend = 0, frame = 0
 1111              		@ frame_needed = 0, uses_anonymous_args = 0
 1112              	.LVL108:
 1113              		.loc 1 838 0
 1114 0000 0B4B     		ldr	r3, .L115
 1115 0002 9842     		cmp	r0, r3
 1116              		.loc 1 836 0
 1117 0004 10B5     		push	{r4, lr}
 1118              		.cfi_def_cfa_offset 8
 1119              		.cfi_offset 4, -8
 1120              		.cfi_offset 14, -4
 1121              		.loc 1 836 0
 1122 0006 0446     		mov	r4, r0
 1123              		.loc 1 838 0
 1124 0008 0FD0     		beq	.L113
 1125              		.loc 1 838 0 is_stmt 0 discriminator 2
 1126 000a 03F58073 		add	r3, r3, #256
 1127 000e 9842     		cmp	r0, r3
 1128 0010 0BD0     		beq	.L113
 1129              		.loc 1 838 0 discriminator 4
 1130 0012 0848     		ldr	r0, .L115+4
 1131              	.LVL109:
 1132 0014 201A     		subs	r0, r4, r0
 1133 0016 B0FA80F0 		clz	r0, r0
 1134 001a 4009     		lsrs	r0, r0, #5
 1135              	.L111:
 1136              		.loc 1 838 0 discriminator 8
 1137 001c FFF7FEFF 		bl	assert_param
 1138              	.LVL110:
 1139              		.loc 1 841 0 is_stmt 1 discriminator 8
 1140 0020 A368     		ldr	r3, [r4, #8]
ARM GAS  /var/folders/m4/4md61f0s1_g0rzfghffqnxvr0000gn/T//ccTIFpbg.s 			page 21


 1141 0022 43F08043 		orr	r3, r3, #1073741824
 1142 0026 A360     		str	r3, [r4, #8]
 1143 0028 10BD     		pop	{r4, pc}
 1144              	.LVL111:
 1145              	.L113:
 1146              		.loc 1 838 0
 1147 002a 0120     		movs	r0, #1
 1148              	.LVL112:
 1149 002c F6E7     		b	.L111
 1150              	.L116:
 1151 002e 00BF     		.align	2
 1152              	.L115:
 1153 0030 00200140 		.word	1073815552
 1154 0034 00220140 		.word	1073816064
 1155              		.cfi_endproc
 1156              	.LFE135:
 1157              		.size	ADC_SoftwareStartConv, .-ADC_SoftwareStartConv
 1158              		.section	.text.ADC_GetSoftwareStartConvStatus,"ax",%progbits
 1159              		.align	2
 1160              		.p2align 4,,15
 1161              		.global	ADC_GetSoftwareStartConvStatus
 1162              		.thumb
 1163              		.thumb_func
 1164              		.type	ADC_GetSoftwareStartConvStatus, %function
 1165              	ADC_GetSoftwareStartConvStatus:
 1166              	.LFB136:
 1167              		.loc 1 850 0
 1168              		.cfi_startproc
 1169              		@ args = 0, pretend = 0, frame = 0
 1170              		@ frame_needed = 0, uses_anonymous_args = 0
 1171              	.LVL113:
 1172              		.loc 1 853 0
 1173 0000 0D4B     		ldr	r3, .L122
 1174 0002 9842     		cmp	r0, r3
 1175              		.loc 1 850 0
 1176 0004 10B5     		push	{r4, lr}
 1177              		.cfi_def_cfa_offset 8
 1178              		.cfi_offset 4, -8
 1179              		.cfi_offset 14, -4
 1180              		.loc 1 850 0
 1181 0006 0446     		mov	r4, r0
 1182              		.loc 1 853 0
 1183 0008 0ED0     		beq	.L120
 1184              		.loc 1 853 0 is_stmt 0 discriminator 2
 1185 000a 03F58073 		add	r3, r3, #256
 1186 000e 9842     		cmp	r0, r3
 1187 0010 0AD0     		beq	.L120
 1188              		.loc 1 853 0 discriminator 4
 1189 0012 0A48     		ldr	r0, .L122+4
 1190              	.LVL114:
 1191 0014 201A     		subs	r0, r4, r0
 1192 0016 B0FA80F0 		clz	r0, r0
 1193 001a 4009     		lsrs	r0, r0, #5
 1194 001c FFF7FEFF 		bl	assert_param
 1195              	.LVL115:
 1196              		.loc 1 856 0 is_stmt 1 discriminator 4
 1197 0020 A068     		ldr	r0, [r4, #8]
ARM GAS  /var/folders/m4/4md61f0s1_g0rzfghffqnxvr0000gn/T//ccTIFpbg.s 			page 22


 1198              	.LVL116:
 1199              		.loc 1 869 0 discriminator 4
 1200 0022 C0F38070 		ubfx	r0, r0, #30, #1
 1201              	.LVL117:
 1202 0026 10BD     		pop	{r4, pc}
 1203              	.LVL118:
 1204              	.L120:
 1205              		.loc 1 853 0
 1206 0028 0120     		movs	r0, #1
 1207              	.LVL119:
 1208 002a FFF7FEFF 		bl	assert_param
 1209              	.LVL120:
 1210              		.loc 1 856 0
 1211 002e A068     		ldr	r0, [r4, #8]
 1212              	.LVL121:
 1213              		.loc 1 869 0
 1214 0030 C0F38070 		ubfx	r0, r0, #30, #1
 1215              	.LVL122:
 1216 0034 10BD     		pop	{r4, pc}
 1217              	.LVL123:
 1218              	.L123:
 1219 0036 00BF     		.align	2
 1220              	.L122:
 1221 0038 00200140 		.word	1073815552
 1222 003c 00220140 		.word	1073816064
 1223              		.cfi_endproc
 1224              	.LFE136:
 1225              		.size	ADC_GetSoftwareStartConvStatus, .-ADC_GetSoftwareStartConvStatus
 1226              		.section	.text.ADC_EOCOnEachRegularChannelCmd,"ax",%progbits
 1227              		.align	2
 1228              		.p2align 4,,15
 1229              		.global	ADC_EOCOnEachRegularChannelCmd
 1230              		.thumb
 1231              		.thumb_func
 1232              		.type	ADC_EOCOnEachRegularChannelCmd, %function
 1233              	ADC_EOCOnEachRegularChannelCmd:
 1234              	.LFB137:
 1235              		.loc 1 880 0
 1236              		.cfi_startproc
 1237              		@ args = 0, pretend = 0, frame = 0
 1238              		@ frame_needed = 0, uses_anonymous_args = 0
 1239              	.LVL124:
 1240 0000 38B5     		push	{r3, r4, r5, lr}
 1241              		.cfi_def_cfa_offset 16
 1242              		.cfi_offset 3, -16
 1243              		.cfi_offset 4, -12
 1244              		.cfi_offset 5, -8
 1245              		.cfi_offset 14, -4
 1246              		.loc 1 882 0
 1247 0002 114B     		ldr	r3, .L132
 1248 0004 9842     		cmp	r0, r3
 1249              		.loc 1 880 0
 1250 0006 0446     		mov	r4, r0
 1251 0008 0D46     		mov	r5, r1
 1252              		.loc 1 882 0
 1253 000a 1AD0     		beq	.L129
 1254              		.loc 1 882 0 is_stmt 0 discriminator 2
ARM GAS  /var/folders/m4/4md61f0s1_g0rzfghffqnxvr0000gn/T//ccTIFpbg.s 			page 23


 1255 000c 03F58073 		add	r3, r3, #256
 1256 0010 9842     		cmp	r0, r3
 1257 0012 16D0     		beq	.L129
 1258              		.loc 1 882 0 discriminator 4
 1259 0014 0D48     		ldr	r0, .L132+4
 1260              	.LVL125:
 1261 0016 201A     		subs	r0, r4, r0
 1262 0018 B0FA80F0 		clz	r0, r0
 1263 001c 4009     		lsrs	r0, r0, #5
 1264              	.L125:
 1265              		.loc 1 882 0 discriminator 8
 1266 001e FFF7FEFF 		bl	assert_param
 1267              	.LVL126:
 1268              		.loc 1 883 0 is_stmt 1 discriminator 8
 1269 0022 012D     		cmp	r5, #1
 1270 0024 8CBF     		ite	hi
 1271 0026 0020     		movhi	r0, #0
 1272 0028 0120     		movls	r0, #1
 1273 002a FFF7FEFF 		bl	assert_param
 1274              	.LVL127:
 1275              		.loc 1 888 0 discriminator 8
 1276 002e A368     		ldr	r3, [r4, #8]
 1277              		.loc 1 885 0 discriminator 8
 1278 0030 1DB9     		cbnz	r5, .L131
 1279              		.loc 1 893 0
 1280 0032 23F48063 		bic	r3, r3, #1024
 1281 0036 A360     		str	r3, [r4, #8]
 1282 0038 38BD     		pop	{r3, r4, r5, pc}
 1283              	.LVL128:
 1284              	.L131:
 1285              		.loc 1 888 0
 1286 003a 43F48063 		orr	r3, r3, #1024
 1287 003e A360     		str	r3, [r4, #8]
 1288 0040 38BD     		pop	{r3, r4, r5, pc}
 1289              	.LVL129:
 1290              	.L129:
 1291              		.loc 1 882 0
 1292 0042 0120     		movs	r0, #1
 1293              	.LVL130:
 1294 0044 EBE7     		b	.L125
 1295              	.L133:
 1296 0046 00BF     		.align	2
 1297              	.L132:
 1298 0048 00200140 		.word	1073815552
 1299 004c 00220140 		.word	1073816064
 1300              		.cfi_endproc
 1301              	.LFE137:
 1302              		.size	ADC_EOCOnEachRegularChannelCmd, .-ADC_EOCOnEachRegularChannelCmd
 1303              		.section	.text.ADC_ContinuousModeCmd,"ax",%progbits
 1304              		.align	2
 1305              		.p2align 4,,15
 1306              		.global	ADC_ContinuousModeCmd
 1307              		.thumb
 1308              		.thumb_func
 1309              		.type	ADC_ContinuousModeCmd, %function
 1310              	ADC_ContinuousModeCmd:
 1311              	.LFB138:
ARM GAS  /var/folders/m4/4md61f0s1_g0rzfghffqnxvr0000gn/T//ccTIFpbg.s 			page 24


 1312              		.loc 1 905 0
 1313              		.cfi_startproc
 1314              		@ args = 0, pretend = 0, frame = 0
 1315              		@ frame_needed = 0, uses_anonymous_args = 0
 1316              	.LVL131:
 1317 0000 38B5     		push	{r3, r4, r5, lr}
 1318              		.cfi_def_cfa_offset 16
 1319              		.cfi_offset 3, -16
 1320              		.cfi_offset 4, -12
 1321              		.cfi_offset 5, -8
 1322              		.cfi_offset 14, -4
 1323              		.loc 1 907 0
 1324 0002 114B     		ldr	r3, .L142
 1325 0004 9842     		cmp	r0, r3
 1326              		.loc 1 905 0
 1327 0006 0446     		mov	r4, r0
 1328 0008 0D46     		mov	r5, r1
 1329              		.loc 1 907 0
 1330 000a 1AD0     		beq	.L139
 1331              		.loc 1 907 0 is_stmt 0 discriminator 2
 1332 000c 03F58073 		add	r3, r3, #256
 1333 0010 9842     		cmp	r0, r3
 1334 0012 16D0     		beq	.L139
 1335              		.loc 1 907 0 discriminator 4
 1336 0014 0D48     		ldr	r0, .L142+4
 1337              	.LVL132:
 1338 0016 201A     		subs	r0, r4, r0
 1339 0018 B0FA80F0 		clz	r0, r0
 1340 001c 4009     		lsrs	r0, r0, #5
 1341              	.L135:
 1342              		.loc 1 907 0 discriminator 8
 1343 001e FFF7FEFF 		bl	assert_param
 1344              	.LVL133:
 1345              		.loc 1 908 0 is_stmt 1 discriminator 8
 1346 0022 012D     		cmp	r5, #1
 1347 0024 8CBF     		ite	hi
 1348 0026 0020     		movhi	r0, #0
 1349 0028 0120     		movls	r0, #1
 1350 002a FFF7FEFF 		bl	assert_param
 1351              	.LVL134:
 1352              		.loc 1 913 0 discriminator 8
 1353 002e A368     		ldr	r3, [r4, #8]
 1354              		.loc 1 910 0 discriminator 8
 1355 0030 1DB9     		cbnz	r5, .L141
 1356              		.loc 1 918 0
 1357 0032 23F00203 		bic	r3, r3, #2
 1358 0036 A360     		str	r3, [r4, #8]
 1359 0038 38BD     		pop	{r3, r4, r5, pc}
 1360              	.LVL135:
 1361              	.L141:
 1362              		.loc 1 913 0
 1363 003a 43F00203 		orr	r3, r3, #2
 1364 003e A360     		str	r3, [r4, #8]
 1365 0040 38BD     		pop	{r3, r4, r5, pc}
 1366              	.LVL136:
 1367              	.L139:
 1368              		.loc 1 907 0
ARM GAS  /var/folders/m4/4md61f0s1_g0rzfghffqnxvr0000gn/T//ccTIFpbg.s 			page 25


 1369 0042 0120     		movs	r0, #1
 1370              	.LVL137:
 1371 0044 EBE7     		b	.L135
 1372              	.L143:
 1373 0046 00BF     		.align	2
 1374              	.L142:
 1375 0048 00200140 		.word	1073815552
 1376 004c 00220140 		.word	1073816064
 1377              		.cfi_endproc
 1378              	.LFE138:
 1379              		.size	ADC_ContinuousModeCmd, .-ADC_ContinuousModeCmd
 1380              		.section	.text.ADC_DiscModeChannelCountConfig,"ax",%progbits
 1381              		.align	2
 1382              		.p2align 4,,15
 1383              		.global	ADC_DiscModeChannelCountConfig
 1384              		.thumb
 1385              		.thumb_func
 1386              		.type	ADC_DiscModeChannelCountConfig, %function
 1387              	ADC_DiscModeChannelCountConfig:
 1388              	.LFB139:
 1389              		.loc 1 931 0
 1390              		.cfi_startproc
 1391              		@ args = 0, pretend = 0, frame = 0
 1392              		@ frame_needed = 0, uses_anonymous_args = 0
 1393              	.LVL138:
 1394 0000 38B5     		push	{r3, r4, r5, lr}
 1395              		.cfi_def_cfa_offset 16
 1396              		.cfi_offset 3, -16
 1397              		.cfi_offset 4, -12
 1398              		.cfi_offset 5, -8
 1399              		.cfi_offset 14, -4
 1400              		.loc 1 936 0
 1401 0002 104B     		ldr	r3, .L149
 1402 0004 9842     		cmp	r0, r3
 1403              		.loc 1 931 0
 1404 0006 0446     		mov	r4, r0
 1405              		.loc 1 936 0
 1406 0008 19D0     		beq	.L147
 1407              		.loc 1 936 0 is_stmt 0 discriminator 2
 1408 000a 03F58073 		add	r3, r3, #256
 1409 000e 9842     		cmp	r0, r3
 1410 0010 15D0     		beq	.L147
 1411              		.loc 1 936 0 discriminator 4
 1412 0012 0D48     		ldr	r0, .L149+4
 1413              	.LVL139:
 1414 0014 201A     		subs	r0, r4, r0
 1415 0016 B0FA80F0 		clz	r0, r0
 1416 001a 4009     		lsrs	r0, r0, #5
 1417              	.L145:
 1418              		.loc 1 937 0 is_stmt 1 discriminator 8
 1419 001c 4D1E     		subs	r5, r1, #1
 1420              		.loc 1 936 0 discriminator 8
 1421 001e FFF7FEFF 		bl	assert_param
 1422              	.LVL140:
 1423              		.loc 1 937 0 discriminator 8
 1424 0022 E8B2     		uxtb	r0, r5
 1425 0024 0728     		cmp	r0, #7
ARM GAS  /var/folders/m4/4md61f0s1_g0rzfghffqnxvr0000gn/T//ccTIFpbg.s 			page 26


 1426 0026 8CBF     		ite	hi
 1427 0028 0020     		movhi	r0, #0
 1428 002a 0120     		movls	r0, #1
 1429 002c FFF7FEFF 		bl	assert_param
 1430              	.LVL141:
 1431              		.loc 1 940 0 discriminator 8
 1432 0030 6168     		ldr	r1, [r4, #4]
 1433              	.LVL142:
 1434              		.loc 1 943 0 discriminator 8
 1435 0032 21F46041 		bic	r1, r1, #57344
 1436              	.LVL143:
 1437              		.loc 1 947 0 discriminator 8
 1438 0036 41EA4531 		orr	r1, r1, r5, lsl #13
 1439              	.LVL144:
 1440              		.loc 1 950 0 discriminator 8
 1441 003a 6160     		str	r1, [r4, #4]
 1442 003c 38BD     		pop	{r3, r4, r5, pc}
 1443              	.LVL145:
 1444              	.L147:
 1445              		.loc 1 936 0
 1446 003e 0120     		movs	r0, #1
 1447              	.LVL146:
 1448 0040 ECE7     		b	.L145
 1449              	.L150:
 1450 0042 00BF     		.align	2
 1451              	.L149:
 1452 0044 00200140 		.word	1073815552
 1453 0048 00220140 		.word	1073816064
 1454              		.cfi_endproc
 1455              	.LFE139:
 1456              		.size	ADC_DiscModeChannelCountConfig, .-ADC_DiscModeChannelCountConfig
 1457              		.section	.text.ADC_DiscModeCmd,"ax",%progbits
 1458              		.align	2
 1459              		.p2align 4,,15
 1460              		.global	ADC_DiscModeCmd
 1461              		.thumb
 1462              		.thumb_func
 1463              		.type	ADC_DiscModeCmd, %function
 1464              	ADC_DiscModeCmd:
 1465              	.LFB140:
 1466              		.loc 1 963 0
 1467              		.cfi_startproc
 1468              		@ args = 0, pretend = 0, frame = 0
 1469              		@ frame_needed = 0, uses_anonymous_args = 0
 1470              	.LVL147:
 1471 0000 38B5     		push	{r3, r4, r5, lr}
 1472              		.cfi_def_cfa_offset 16
 1473              		.cfi_offset 3, -16
 1474              		.cfi_offset 4, -12
 1475              		.cfi_offset 5, -8
 1476              		.cfi_offset 14, -4
 1477              		.loc 1 965 0
 1478 0002 114B     		ldr	r3, .L159
 1479 0004 9842     		cmp	r0, r3
 1480              		.loc 1 963 0
 1481 0006 0446     		mov	r4, r0
 1482 0008 0D46     		mov	r5, r1
ARM GAS  /var/folders/m4/4md61f0s1_g0rzfghffqnxvr0000gn/T//ccTIFpbg.s 			page 27


 1483              		.loc 1 965 0
 1484 000a 1AD0     		beq	.L156
 1485              		.loc 1 965 0 is_stmt 0 discriminator 2
 1486 000c 03F58073 		add	r3, r3, #256
 1487 0010 9842     		cmp	r0, r3
 1488 0012 16D0     		beq	.L156
 1489              		.loc 1 965 0 discriminator 4
 1490 0014 0D48     		ldr	r0, .L159+4
 1491              	.LVL148:
 1492 0016 201A     		subs	r0, r4, r0
 1493 0018 B0FA80F0 		clz	r0, r0
 1494 001c 4009     		lsrs	r0, r0, #5
 1495              	.L152:
 1496              		.loc 1 965 0 discriminator 8
 1497 001e FFF7FEFF 		bl	assert_param
 1498              	.LVL149:
 1499              		.loc 1 966 0 is_stmt 1 discriminator 8
 1500 0022 012D     		cmp	r5, #1
 1501 0024 8CBF     		ite	hi
 1502 0026 0020     		movhi	r0, #0
 1503 0028 0120     		movls	r0, #1
 1504 002a FFF7FEFF 		bl	assert_param
 1505              	.LVL150:
 1506              		.loc 1 971 0 discriminator 8
 1507 002e 6368     		ldr	r3, [r4, #4]
 1508              		.loc 1 968 0 discriminator 8
 1509 0030 1DB9     		cbnz	r5, .L158
 1510              		.loc 1 976 0
 1511 0032 23F40063 		bic	r3, r3, #2048
 1512 0036 6360     		str	r3, [r4, #4]
 1513 0038 38BD     		pop	{r3, r4, r5, pc}
 1514              	.LVL151:
 1515              	.L158:
 1516              		.loc 1 971 0
 1517 003a 43F40063 		orr	r3, r3, #2048
 1518 003e 6360     		str	r3, [r4, #4]
 1519 0040 38BD     		pop	{r3, r4, r5, pc}
 1520              	.LVL152:
 1521              	.L156:
 1522              		.loc 1 965 0
 1523 0042 0120     		movs	r0, #1
 1524              	.LVL153:
 1525 0044 EBE7     		b	.L152
 1526              	.L160:
 1527 0046 00BF     		.align	2
 1528              	.L159:
 1529 0048 00200140 		.word	1073815552
 1530 004c 00220140 		.word	1073816064
 1531              		.cfi_endproc
 1532              	.LFE140:
 1533              		.size	ADC_DiscModeCmd, .-ADC_DiscModeCmd
 1534              		.section	.text.ADC_GetConversionValue,"ax",%progbits
 1535              		.align	2
 1536              		.p2align 4,,15
 1537              		.global	ADC_GetConversionValue
 1538              		.thumb
 1539              		.thumb_func
ARM GAS  /var/folders/m4/4md61f0s1_g0rzfghffqnxvr0000gn/T//ccTIFpbg.s 			page 28


 1540              		.type	ADC_GetConversionValue, %function
 1541              	ADC_GetConversionValue:
 1542              	.LFB141:
 1543              		.loc 1 986 0
 1544              		.cfi_startproc
 1545              		@ args = 0, pretend = 0, frame = 0
 1546              		@ frame_needed = 0, uses_anonymous_args = 0
 1547              	.LVL154:
 1548              		.loc 1 988 0
 1549 0000 0C4B     		ldr	r3, .L166
 1550 0002 9842     		cmp	r0, r3
 1551              		.loc 1 986 0
 1552 0004 10B5     		push	{r4, lr}
 1553              		.cfi_def_cfa_offset 8
 1554              		.cfi_offset 4, -8
 1555              		.cfi_offset 14, -4
 1556              		.loc 1 986 0
 1557 0006 0446     		mov	r4, r0
 1558              		.loc 1 988 0
 1559 0008 0DD0     		beq	.L164
 1560              		.loc 1 988 0 is_stmt 0 discriminator 2
 1561 000a 03F58073 		add	r3, r3, #256
 1562 000e 9842     		cmp	r0, r3
 1563 0010 09D0     		beq	.L164
 1564              		.loc 1 988 0 discriminator 4
 1565 0012 0948     		ldr	r0, .L166+4
 1566              	.LVL155:
 1567 0014 201A     		subs	r0, r4, r0
 1568 0016 B0FA80F0 		clz	r0, r0
 1569 001a 4009     		lsrs	r0, r0, #5
 1570 001c FFF7FEFF 		bl	assert_param
 1571              	.LVL156:
 1572              		.loc 1 991 0 is_stmt 1 discriminator 4
 1573 0020 E06C     		ldr	r0, [r4, #76]
 1574              		.loc 1 992 0 discriminator 4
 1575 0022 80B2     		uxth	r0, r0
 1576 0024 10BD     		pop	{r4, pc}
 1577              	.LVL157:
 1578              	.L164:
 1579              		.loc 1 988 0
 1580 0026 0120     		movs	r0, #1
 1581              	.LVL158:
 1582 0028 FFF7FEFF 		bl	assert_param
 1583              	.LVL159:
 1584              		.loc 1 991 0
 1585 002c E06C     		ldr	r0, [r4, #76]
 1586              		.loc 1 992 0
 1587 002e 80B2     		uxth	r0, r0
 1588 0030 10BD     		pop	{r4, pc}
 1589              	.LVL160:
 1590              	.L167:
 1591 0032 00BF     		.align	2
 1592              	.L166:
 1593 0034 00200140 		.word	1073815552
 1594 0038 00220140 		.word	1073816064
 1595              		.cfi_endproc
 1596              	.LFE141:
ARM GAS  /var/folders/m4/4md61f0s1_g0rzfghffqnxvr0000gn/T//ccTIFpbg.s 			page 29


 1597              		.size	ADC_GetConversionValue, .-ADC_GetConversionValue
 1598              		.section	.text.ADC_GetMultiModeConversionValue,"ax",%progbits
 1599              		.align	2
 1600              		.p2align 4,,15
 1601              		.global	ADC_GetMultiModeConversionValue
 1602              		.thumb
 1603              		.thumb_func
 1604              		.type	ADC_GetMultiModeConversionValue, %function
 1605              	ADC_GetMultiModeConversionValue:
 1606              	.LFB142:
 1607              		.loc 1 1007 0
 1608              		.cfi_startproc
 1609              		@ args = 0, pretend = 0, frame = 0
 1610              		@ frame_needed = 0, uses_anonymous_args = 0
 1611              		@ link register save eliminated.
 1612              		.loc 1 1009 0
 1613 0000 014B     		ldr	r3, .L169
 1614 0002 1868     		ldr	r0, [r3]
 1615              		.loc 1 1010 0
 1616 0004 7047     		bx	lr
 1617              	.L170:
 1618 0006 00BF     		.align	2
 1619              	.L169:
 1620 0008 08230140 		.word	1073816328
 1621              		.cfi_endproc
 1622              	.LFE142:
 1623              		.size	ADC_GetMultiModeConversionValue, .-ADC_GetMultiModeConversionValue
 1624              		.section	.text.ADC_DMACmd,"ax",%progbits
 1625              		.align	2
 1626              		.p2align 4,,15
 1627              		.global	ADC_DMACmd
 1628              		.thumb
 1629              		.thumb_func
 1630              		.type	ADC_DMACmd, %function
 1631              	ADC_DMACmd:
 1632              	.LFB143:
 1633              		.loc 1 1053 0
 1634              		.cfi_startproc
 1635              		@ args = 0, pretend = 0, frame = 0
 1636              		@ frame_needed = 0, uses_anonymous_args = 0
 1637              	.LVL161:
 1638 0000 38B5     		push	{r3, r4, r5, lr}
 1639              		.cfi_def_cfa_offset 16
 1640              		.cfi_offset 3, -16
 1641              		.cfi_offset 4, -12
 1642              		.cfi_offset 5, -8
 1643              		.cfi_offset 14, -4
 1644              		.loc 1 1055 0
 1645 0002 114B     		ldr	r3, .L179
 1646 0004 9842     		cmp	r0, r3
 1647              		.loc 1 1053 0
 1648 0006 0446     		mov	r4, r0
 1649 0008 0D46     		mov	r5, r1
 1650              		.loc 1 1055 0
 1651 000a 1AD0     		beq	.L176
 1652              		.loc 1 1055 0 is_stmt 0 discriminator 2
 1653 000c 03F58073 		add	r3, r3, #256
ARM GAS  /var/folders/m4/4md61f0s1_g0rzfghffqnxvr0000gn/T//ccTIFpbg.s 			page 30


 1654 0010 9842     		cmp	r0, r3
 1655 0012 16D0     		beq	.L176
 1656              		.loc 1 1055 0 discriminator 4
 1657 0014 0D48     		ldr	r0, .L179+4
 1658              	.LVL162:
 1659 0016 201A     		subs	r0, r4, r0
 1660 0018 B0FA80F0 		clz	r0, r0
 1661 001c 4009     		lsrs	r0, r0, #5
 1662              	.L172:
 1663              		.loc 1 1055 0 discriminator 8
 1664 001e FFF7FEFF 		bl	assert_param
 1665              	.LVL163:
 1666              		.loc 1 1056 0 is_stmt 1 discriminator 8
 1667 0022 012D     		cmp	r5, #1
 1668 0024 8CBF     		ite	hi
 1669 0026 0020     		movhi	r0, #0
 1670 0028 0120     		movls	r0, #1
 1671 002a FFF7FEFF 		bl	assert_param
 1672              	.LVL164:
 1673              		.loc 1 1060 0 discriminator 8
 1674 002e A368     		ldr	r3, [r4, #8]
 1675              		.loc 1 1057 0 discriminator 8
 1676 0030 1DB9     		cbnz	r5, .L178
 1677              		.loc 1 1065 0
 1678 0032 23F48073 		bic	r3, r3, #256
 1679 0036 A360     		str	r3, [r4, #8]
 1680 0038 38BD     		pop	{r3, r4, r5, pc}
 1681              	.LVL165:
 1682              	.L178:
 1683              		.loc 1 1060 0
 1684 003a 43F48073 		orr	r3, r3, #256
 1685 003e A360     		str	r3, [r4, #8]
 1686 0040 38BD     		pop	{r3, r4, r5, pc}
 1687              	.LVL166:
 1688              	.L176:
 1689              		.loc 1 1055 0
 1690 0042 0120     		movs	r0, #1
 1691              	.LVL167:
 1692 0044 EBE7     		b	.L172
 1693              	.L180:
 1694 0046 00BF     		.align	2
 1695              	.L179:
 1696 0048 00200140 		.word	1073815552
 1697 004c 00220140 		.word	1073816064
 1698              		.cfi_endproc
 1699              	.LFE143:
 1700              		.size	ADC_DMACmd, .-ADC_DMACmd
 1701              		.section	.text.ADC_DMARequestAfterLastTransferCmd,"ax",%progbits
 1702              		.align	2
 1703              		.p2align 4,,15
 1704              		.global	ADC_DMARequestAfterLastTransferCmd
 1705              		.thumb
 1706              		.thumb_func
 1707              		.type	ADC_DMARequestAfterLastTransferCmd, %function
 1708              	ADC_DMARequestAfterLastTransferCmd:
 1709              	.LFB144:
 1710              		.loc 1 1077 0
ARM GAS  /var/folders/m4/4md61f0s1_g0rzfghffqnxvr0000gn/T//ccTIFpbg.s 			page 31


 1711              		.cfi_startproc
 1712              		@ args = 0, pretend = 0, frame = 0
 1713              		@ frame_needed = 0, uses_anonymous_args = 0
 1714              	.LVL168:
 1715 0000 38B5     		push	{r3, r4, r5, lr}
 1716              		.cfi_def_cfa_offset 16
 1717              		.cfi_offset 3, -16
 1718              		.cfi_offset 4, -12
 1719              		.cfi_offset 5, -8
 1720              		.cfi_offset 14, -4
 1721              		.loc 1 1079 0
 1722 0002 114B     		ldr	r3, .L189
 1723 0004 9842     		cmp	r0, r3
 1724              		.loc 1 1077 0
 1725 0006 0446     		mov	r4, r0
 1726 0008 0D46     		mov	r5, r1
 1727              		.loc 1 1079 0
 1728 000a 1AD0     		beq	.L186
 1729              		.loc 1 1079 0 is_stmt 0 discriminator 2
 1730 000c 03F58073 		add	r3, r3, #256
 1731 0010 9842     		cmp	r0, r3
 1732 0012 16D0     		beq	.L186
 1733              		.loc 1 1079 0 discriminator 4
 1734 0014 0D48     		ldr	r0, .L189+4
 1735              	.LVL169:
 1736 0016 201A     		subs	r0, r4, r0
 1737 0018 B0FA80F0 		clz	r0, r0
 1738 001c 4009     		lsrs	r0, r0, #5
 1739              	.L182:
 1740              		.loc 1 1079 0 discriminator 8
 1741 001e FFF7FEFF 		bl	assert_param
 1742              	.LVL170:
 1743              		.loc 1 1080 0 is_stmt 1 discriminator 8
 1744 0022 012D     		cmp	r5, #1
 1745 0024 8CBF     		ite	hi
 1746 0026 0020     		movhi	r0, #0
 1747 0028 0120     		movls	r0, #1
 1748 002a FFF7FEFF 		bl	assert_param
 1749              	.LVL171:
 1750              		.loc 1 1084 0 discriminator 8
 1751 002e A368     		ldr	r3, [r4, #8]
 1752              		.loc 1 1081 0 discriminator 8
 1753 0030 1DB9     		cbnz	r5, .L188
 1754              		.loc 1 1089 0
 1755 0032 23F40073 		bic	r3, r3, #512
 1756 0036 A360     		str	r3, [r4, #8]
 1757 0038 38BD     		pop	{r3, r4, r5, pc}
 1758              	.LVL172:
 1759              	.L188:
 1760              		.loc 1 1084 0
 1761 003a 43F40073 		orr	r3, r3, #512
 1762 003e A360     		str	r3, [r4, #8]
 1763 0040 38BD     		pop	{r3, r4, r5, pc}
 1764              	.LVL173:
 1765              	.L186:
 1766              		.loc 1 1079 0
 1767 0042 0120     		movs	r0, #1
ARM GAS  /var/folders/m4/4md61f0s1_g0rzfghffqnxvr0000gn/T//ccTIFpbg.s 			page 32


 1768              	.LVL174:
 1769 0044 EBE7     		b	.L182
 1770              	.L190:
 1771 0046 00BF     		.align	2
 1772              	.L189:
 1773 0048 00200140 		.word	1073815552
 1774 004c 00220140 		.word	1073816064
 1775              		.cfi_endproc
 1776              	.LFE144:
 1777              		.size	ADC_DMARequestAfterLastTransferCmd, .-ADC_DMARequestAfterLastTransferCmd
 1778              		.section	.text.ADC_MultiModeDMARequestAfterLastTransferCmd,"ax",%progbits
 1779              		.align	2
 1780              		.p2align 4,,15
 1781              		.global	ADC_MultiModeDMARequestAfterLastTransferCmd
 1782              		.thumb
 1783              		.thumb_func
 1784              		.type	ADC_MultiModeDMARequestAfterLastTransferCmd, %function
 1785              	ADC_MultiModeDMARequestAfterLastTransferCmd:
 1786              	.LFB145:
 1787              		.loc 1 1104 0
 1788              		.cfi_startproc
 1789              		@ args = 0, pretend = 0, frame = 0
 1790              		@ frame_needed = 0, uses_anonymous_args = 0
 1791              	.LVL175:
 1792              		.loc 1 1106 0
 1793 0000 0128     		cmp	r0, #1
 1794              		.loc 1 1104 0
 1795 0002 10B5     		push	{r4, lr}
 1796              		.cfi_def_cfa_offset 8
 1797              		.cfi_offset 4, -8
 1798              		.cfi_offset 14, -4
 1799              		.loc 1 1104 0
 1800 0004 0446     		mov	r4, r0
 1801              		.loc 1 1106 0
 1802 0006 8CBF     		ite	hi
 1803 0008 0020     		movhi	r0, #0
 1804              	.LVL176:
 1805 000a 0120     		movls	r0, #1
 1806 000c FFF7FEFF 		bl	assert_param
 1807              	.LVL177:
 1808              		.loc 1 1110 0
 1809 0010 054A     		ldr	r2, .L196
 1810 0012 5368     		ldr	r3, [r2, #4]
 1811              		.loc 1 1107 0
 1812 0014 1CB9     		cbnz	r4, .L195
 1813              		.loc 1 1115 0
 1814 0016 23F40053 		bic	r3, r3, #8192
 1815 001a 5360     		str	r3, [r2, #4]
 1816 001c 10BD     		pop	{r4, pc}
 1817              	.L195:
 1818              		.loc 1 1110 0
 1819 001e 43F40053 		orr	r3, r3, #8192
 1820 0022 5360     		str	r3, [r2, #4]
 1821 0024 10BD     		pop	{r4, pc}
 1822              	.L197:
 1823 0026 00BF     		.align	2
 1824              	.L196:
ARM GAS  /var/folders/m4/4md61f0s1_g0rzfghffqnxvr0000gn/T//ccTIFpbg.s 			page 33


 1825 0028 00230140 		.word	1073816320
 1826              		.cfi_endproc
 1827              	.LFE145:
 1828              		.size	ADC_MultiModeDMARequestAfterLastTransferCmd, .-ADC_MultiModeDMARequestAfterLastTransferCmd
 1829              		.section	.text.ADC_InjectedChannelConfig,"ax",%progbits
 1830              		.align	2
 1831              		.p2align 4,,15
 1832              		.global	ADC_InjectedChannelConfig
 1833              		.thumb
 1834              		.thumb_func
 1835              		.type	ADC_InjectedChannelConfig, %function
 1836              	ADC_InjectedChannelConfig:
 1837              	.LFB146:
 1838              		.loc 1 1191 0
 1839              		.cfi_startproc
 1840              		@ args = 0, pretend = 0, frame = 0
 1841              		@ frame_needed = 0, uses_anonymous_args = 0
 1842              	.LVL178:
 1843 0000 F8B5     		push	{r3, r4, r5, r6, r7, lr}
 1844              		.cfi_def_cfa_offset 24
 1845              		.cfi_offset 3, -24
 1846              		.cfi_offset 4, -20
 1847              		.cfi_offset 5, -16
 1848              		.cfi_offset 6, -12
 1849              		.cfi_offset 7, -8
 1850              		.cfi_offset 14, -4
 1851              		.loc 1 1194 0
 1852 0002 DFF8A8E0 		ldr	lr, .L206+8
 1853 0006 7045     		cmp	r0, lr
 1854              		.loc 1 1191 0
 1855 0008 0646     		mov	r6, r0
 1856 000a 0D46     		mov	r5, r1
 1857 000c 1446     		mov	r4, r2
 1858 000e 1F46     		mov	r7, r3
 1859              		.loc 1 1194 0
 1860 0010 45D0     		beq	.L203
 1861              		.loc 1 1194 0 is_stmt 0 discriminator 2
 1862 0012 244B     		ldr	r3, .L206
 1863              	.LVL179:
 1864 0014 9842     		cmp	r0, r3
 1865 0016 42D0     		beq	.L203
 1866              		.loc 1 1194 0 discriminator 4
 1867 0018 2348     		ldr	r0, .L206+4
 1868              	.LVL180:
 1869 001a 301A     		subs	r0, r6, r0
 1870 001c B0FA80F0 		clz	r0, r0
 1871 0020 4009     		lsrs	r0, r0, #5
 1872              	.L199:
 1873              		.loc 1 1194 0 discriminator 8
 1874 0022 FFF7FEFF 		bl	assert_param
 1875              	.LVL181:
 1876              		.loc 1 1195 0 is_stmt 1 discriminator 8
 1877 0026 122D     		cmp	r5, #18
 1878 0028 8CBF     		ite	hi
 1879 002a 0020     		movhi	r0, #0
 1880 002c 0120     		movls	r0, #1
 1881 002e FFF7FEFF 		bl	assert_param
ARM GAS  /var/folders/m4/4md61f0s1_g0rzfghffqnxvr0000gn/T//ccTIFpbg.s 			page 34


 1882              	.LVL182:
 1883              		.loc 1 1196 0 discriminator 8
 1884 0032 601E     		subs	r0, r4, #1
 1885 0034 0328     		cmp	r0, #3
 1886 0036 8CBF     		ite	hi
 1887 0038 0020     		movhi	r0, #0
 1888 003a 0120     		movls	r0, #1
 1889 003c FFF7FEFF 		bl	assert_param
 1890              	.LVL183:
 1891              		.loc 1 1197 0 discriminator 8
 1892 0040 072F     		cmp	r7, #7
 1893 0042 8CBF     		ite	hi
 1894 0044 0020     		movhi	r0, #0
 1895 0046 0120     		movls	r0, #1
 1896 0048 FFF7FEFF 		bl	assert_param
 1897              	.LVL184:
 1898              		.loc 1 1199 0 discriminator 8
 1899 004c 092D     		cmp	r5, #9
 1900 004e 19D8     		bhi	.L205
 1901              		.loc 1 1219 0
 1902 0050 05EB4501 		add	r1, r5, r5, lsl #1
 1903              		.loc 1 1217 0
 1904 0054 3269     		ldr	r2, [r6, #16]
 1905              	.LVL185:
 1906              		.loc 1 1219 0
 1907 0056 0723     		movs	r3, #7
 1908 0058 8B40     		lsls	r3, r3, r1
 1909              	.LVL186:
 1910              		.loc 1 1223 0
 1911 005a 8F40     		lsls	r7, r7, r1
 1912              		.loc 1 1221 0
 1913 005c 22EA0303 		bic	r3, r2, r3
 1914              	.LVL187:
 1915              		.loc 1 1225 0
 1916 0060 1F43     		orrs	r7, r7, r3
 1917              	.LVL188:
 1918              		.loc 1 1227 0
 1919 0062 3761     		str	r7, [r6, #16]
 1920              	.L201:
 1921              		.loc 1 1231 0
 1922 0064 B36B     		ldr	r3, [r6, #56]
 1923              	.LVL189:
 1924 0066 0234     		adds	r4, r4, #2
 1925              		.loc 1 1233 0
 1926 0068 C3F30152 		ubfx	r2, r3, #20, #2
 1927              		.loc 1 1235 0
 1928 006c A41A     		subs	r4, r4, r2
 1929 006e E4B2     		uxtb	r4, r4
 1930 0070 04EB8404 		add	r4, r4, r4, lsl #2
 1931              	.LVL190:
 1932 0074 1F21     		movs	r1, #31
 1933 0076 A140     		lsls	r1, r1, r4
 1934              	.LVL191:
 1935              		.loc 1 1239 0
 1936 0078 A540     		lsls	r5, r5, r4
 1937              		.loc 1 1237 0
 1938 007a 23EA0103 		bic	r3, r3, r1
ARM GAS  /var/folders/m4/4md61f0s1_g0rzfghffqnxvr0000gn/T//ccTIFpbg.s 			page 35


 1939              	.LVL192:
 1940              		.loc 1 1241 0
 1941 007e 1D43     		orrs	r5, r5, r3
 1942              	.LVL193:
 1943              		.loc 1 1243 0
 1944 0080 B563     		str	r5, [r6, #56]
 1945 0082 F8BD     		pop	{r3, r4, r5, r6, r7, pc}
 1946              	.LVL194:
 1947              	.L205:
 1948              		.loc 1 1204 0
 1949 0084 A5F10A03 		sub	r3, r5, #10
 1950 0088 03EB4303 		add	r3, r3, r3, lsl #1
 1951              		.loc 1 1202 0
 1952 008c F268     		ldr	r2, [r6, #12]
 1953              	.LVL195:
 1954              		.loc 1 1204 0
 1955 008e 0721     		movs	r1, #7
 1956 0090 9940     		lsls	r1, r1, r3
 1957              	.LVL196:
 1958              		.loc 1 1208 0
 1959 0092 9F40     		lsls	r7, r7, r3
 1960              		.loc 1 1206 0
 1961 0094 22EA0103 		bic	r3, r2, r1
 1962              	.LVL197:
 1963              		.loc 1 1210 0
 1964 0098 1F43     		orrs	r7, r7, r3
 1965              	.LVL198:
 1966              		.loc 1 1212 0
 1967 009a F760     		str	r7, [r6, #12]
 1968 009c E2E7     		b	.L201
 1969              	.LVL199:
 1970              	.L203:
 1971              		.loc 1 1194 0
 1972 009e 0120     		movs	r0, #1
 1973              	.LVL200:
 1974 00a0 BFE7     		b	.L199
 1975              	.L207:
 1976 00a2 00BF     		.align	2
 1977              	.L206:
 1978 00a4 00210140 		.word	1073815808
 1979 00a8 00220140 		.word	1073816064
 1980 00ac 00200140 		.word	1073815552
 1981              		.cfi_endproc
 1982              	.LFE146:
 1983              		.size	ADC_InjectedChannelConfig, .-ADC_InjectedChannelConfig
 1984              		.section	.text.ADC_InjectedSequencerLengthConfig,"ax",%progbits
 1985              		.align	2
 1986              		.p2align 4,,15
 1987              		.global	ADC_InjectedSequencerLengthConfig
 1988              		.thumb
 1989              		.thumb_func
 1990              		.type	ADC_InjectedSequencerLengthConfig, %function
 1991              	ADC_InjectedSequencerLengthConfig:
 1992              	.LFB147:
 1993              		.loc 1 1254 0
 1994              		.cfi_startproc
 1995              		@ args = 0, pretend = 0, frame = 0
ARM GAS  /var/folders/m4/4md61f0s1_g0rzfghffqnxvr0000gn/T//ccTIFpbg.s 			page 36


 1996              		@ frame_needed = 0, uses_anonymous_args = 0
 1997              	.LVL201:
 1998 0000 38B5     		push	{r3, r4, r5, lr}
 1999              		.cfi_def_cfa_offset 16
 2000              		.cfi_offset 3, -16
 2001              		.cfi_offset 4, -12
 2002              		.cfi_offset 5, -8
 2003              		.cfi_offset 14, -4
 2004              		.loc 1 1258 0
 2005 0002 104B     		ldr	r3, .L213
 2006 0004 9842     		cmp	r0, r3
 2007              		.loc 1 1254 0
 2008 0006 0446     		mov	r4, r0
 2009              		.loc 1 1258 0
 2010 0008 19D0     		beq	.L211
 2011              		.loc 1 1258 0 is_stmt 0 discriminator 2
 2012 000a 03F58073 		add	r3, r3, #256
 2013 000e 9842     		cmp	r0, r3
 2014 0010 15D0     		beq	.L211
 2015              		.loc 1 1258 0 discriminator 4
 2016 0012 0D48     		ldr	r0, .L213+4
 2017              	.LVL202:
 2018 0014 201A     		subs	r0, r4, r0
 2019 0016 B0FA80F0 		clz	r0, r0
 2020 001a 4009     		lsrs	r0, r0, #5
 2021              	.L209:
 2022              		.loc 1 1259 0 is_stmt 1 discriminator 8
 2023 001c 4D1E     		subs	r5, r1, #1
 2024              		.loc 1 1258 0 discriminator 8
 2025 001e FFF7FEFF 		bl	assert_param
 2026              	.LVL203:
 2027              		.loc 1 1259 0 discriminator 8
 2028 0022 E8B2     		uxtb	r0, r5
 2029 0024 0328     		cmp	r0, #3
 2030 0026 8CBF     		ite	hi
 2031 0028 0020     		movhi	r0, #0
 2032 002a 0120     		movls	r0, #1
 2033 002c FFF7FEFF 		bl	assert_param
 2034              	.LVL204:
 2035              		.loc 1 1262 0 discriminator 8
 2036 0030 A16B     		ldr	r1, [r4, #56]
 2037              	.LVL205:
 2038              		.loc 1 1265 0 discriminator 8
 2039 0032 21F44011 		bic	r1, r1, #3145728
 2040              	.LVL206:
 2041              		.loc 1 1269 0 discriminator 8
 2042 0036 41EA0551 		orr	r1, r1, r5, lsl #20
 2043              	.LVL207:
 2044              		.loc 1 1272 0 discriminator 8
 2045 003a A163     		str	r1, [r4, #56]
 2046 003c 38BD     		pop	{r3, r4, r5, pc}
 2047              	.LVL208:
 2048              	.L211:
 2049              		.loc 1 1258 0
 2050 003e 0120     		movs	r0, #1
 2051              	.LVL209:
 2052 0040 ECE7     		b	.L209
ARM GAS  /var/folders/m4/4md61f0s1_g0rzfghffqnxvr0000gn/T//ccTIFpbg.s 			page 37


 2053              	.L214:
 2054 0042 00BF     		.align	2
 2055              	.L213:
 2056 0044 00200140 		.word	1073815552
 2057 0048 00220140 		.word	1073816064
 2058              		.cfi_endproc
 2059              	.LFE147:
 2060              		.size	ADC_InjectedSequencerLengthConfig, .-ADC_InjectedSequencerLengthConfig
 2061              		.section	.text.ADC_SetInjectedOffset,"ax",%progbits
 2062              		.align	2
 2063              		.p2align 4,,15
 2064              		.global	ADC_SetInjectedOffset
 2065              		.thumb
 2066              		.thumb_func
 2067              		.type	ADC_SetInjectedOffset, %function
 2068              	ADC_SetInjectedOffset:
 2069              	.LFB148:
 2070              		.loc 1 1289 0
 2071              		.cfi_startproc
 2072              		@ args = 0, pretend = 0, frame = 8
 2073              		@ frame_needed = 0, uses_anonymous_args = 0
 2074              	.LVL210:
 2075 0000 70B5     		push	{r4, r5, r6, lr}
 2076              		.cfi_def_cfa_offset 16
 2077              		.cfi_offset 4, -16
 2078              		.cfi_offset 5, -12
 2079              		.cfi_offset 6, -8
 2080              		.cfi_offset 14, -4
 2081              		.loc 1 1292 0
 2082 0002 1A4B     		ldr	r3, .L223
 2083              		.loc 1 1289 0
 2084 0004 0446     		mov	r4, r0
 2085 0006 82B0     		sub	sp, sp, #8
 2086              		.cfi_def_cfa_offset 24
 2087              		.loc 1 1290 0
 2088 0008 0020     		movs	r0, #0
 2089              	.LVL211:
 2090              		.loc 1 1292 0
 2091 000a 9C42     		cmp	r4, r3
 2092              		.loc 1 1289 0
 2093 000c 0D46     		mov	r5, r1
 2094 000e 1646     		mov	r6, r2
 2095              		.loc 1 1290 0
 2096 0010 0190     		str	r0, [sp, #4]
 2097              		.loc 1 1292 0
 2098 0012 28D0     		beq	.L219
 2099              		.loc 1 1292 0 is_stmt 0 discriminator 2
 2100 0014 03F58073 		add	r3, r3, #256
 2101 0018 9C42     		cmp	r4, r3
 2102 001a 24D0     		beq	.L219
 2103              		.loc 1 1292 0 discriminator 4
 2104 001c 1448     		ldr	r0, .L223+4
 2105 001e 201A     		subs	r0, r4, r0
 2106 0020 B0FA80F0 		clz	r0, r0
 2107 0024 4009     		lsrs	r0, r0, #5
 2108              	.L216:
 2109              		.loc 1 1292 0 discriminator 8
ARM GAS  /var/folders/m4/4md61f0s1_g0rzfghffqnxvr0000gn/T//ccTIFpbg.s 			page 38


 2110 0026 FFF7FEFF 		bl	assert_param
 2111              	.LVL212:
 2112              		.loc 1 1293 0 is_stmt 1 discriminator 8
 2113 002a 05F0F703 		and	r3, r5, #247
 2114 002e 142B     		cmp	r3, #20
 2115 0030 17D0     		beq	.L221
 2116              		.loc 1 1293 0 is_stmt 0 discriminator 2
 2117 0032 182D     		cmp	r5, #24
 2118 0034 15D0     		beq	.L221
 2119              		.loc 1 1293 0 discriminator 6
 2120 0036 A5F12000 		sub	r0, r5, #32
 2121 003a B0FA80F0 		clz	r0, r0
 2122 003e 4009     		lsrs	r0, r0, #5
 2123              	.L217:
 2124              		.loc 1 1293 0 discriminator 10
 2125 0040 FFF7FEFF 		bl	assert_param
 2126              	.LVL213:
 2127              		.loc 1 1294 0 is_stmt 1 discriminator 10
 2128 0044 B6F5805F 		cmp	r6, #4096
 2129 0048 2CBF     		ite	cs
 2130 004a 0020     		movcs	r0, #0
 2131 004c 0120     		movcc	r0, #1
 2132 004e FFF7FEFF 		bl	assert_param
 2133              	.LVL214:
 2134              		.loc 1 1296 0 discriminator 10
 2135 0052 0194     		str	r4, [sp, #4]
 2136              		.loc 1 1297 0 discriminator 10
 2137 0054 0199     		ldr	r1, [sp, #4]
 2138 0056 0D44     		add	r5, r5, r1
 2139 0058 0195     		str	r5, [sp, #4]
 2140              		.loc 1 1300 0 discriminator 10
 2141 005a 019B     		ldr	r3, [sp, #4]
 2142 005c 1E60     		str	r6, [r3]
 2143              		.loc 1 1301 0 discriminator 10
 2144 005e 02B0     		add	sp, sp, #8
 2145              		.cfi_remember_state
 2146              		.cfi_def_cfa_offset 16
 2147              		@ sp needed
 2148 0060 70BD     		pop	{r4, r5, r6, pc}
 2149              	.LVL215:
 2150              	.L221:
 2151              		.cfi_restore_state
 2152              		.loc 1 1293 0
 2153 0062 0120     		movs	r0, #1
 2154 0064 ECE7     		b	.L217
 2155              	.LVL216:
 2156              	.L219:
 2157              		.loc 1 1292 0
 2158 0066 0120     		movs	r0, #1
 2159 0068 DDE7     		b	.L216
 2160              	.L224:
 2161 006a 00BF     		.align	2
 2162              	.L223:
 2163 006c 00200140 		.word	1073815552
 2164 0070 00220140 		.word	1073816064
 2165              		.cfi_endproc
 2166              	.LFE148:
ARM GAS  /var/folders/m4/4md61f0s1_g0rzfghffqnxvr0000gn/T//ccTIFpbg.s 			page 39


 2167              		.size	ADC_SetInjectedOffset, .-ADC_SetInjectedOffset
 2168              		.section	.text.ADC_ExternalTrigInjectedConvConfig,"ax",%progbits
 2169              		.align	2
 2170              		.p2align 4,,15
 2171              		.global	ADC_ExternalTrigInjectedConvConfig
 2172              		.thumb
 2173              		.thumb_func
 2174              		.type	ADC_ExternalTrigInjectedConvConfig, %function
 2175              	ADC_ExternalTrigInjectedConvConfig:
 2176              	.LFB149:
 2177              		.loc 1 1327 0
 2178              		.cfi_startproc
 2179              		@ args = 0, pretend = 0, frame = 0
 2180              		@ frame_needed = 0, uses_anonymous_args = 0
 2181              	.LVL217:
 2182 0000 38B5     		push	{r3, r4, r5, lr}
 2183              		.cfi_def_cfa_offset 16
 2184              		.cfi_offset 3, -16
 2185              		.cfi_offset 4, -12
 2186              		.cfi_offset 5, -8
 2187              		.cfi_offset 14, -4
 2188              		.loc 1 1330 0
 2189 0002 184B     		ldr	r3, .L238
 2190 0004 9842     		cmp	r0, r3
 2191              		.loc 1 1327 0
 2192 0006 0446     		mov	r4, r0
 2193 0008 0D46     		mov	r5, r1
 2194              		.loc 1 1330 0
 2195 000a 28D0     		beq	.L230
 2196              		.loc 1 1330 0 is_stmt 0 discriminator 2
 2197 000c 03F58073 		add	r3, r3, #256
 2198 0010 9842     		cmp	r0, r3
 2199 0012 24D0     		beq	.L230
 2200              		.loc 1 1330 0 discriminator 4
 2201 0014 1448     		ldr	r0, .L238+4
 2202              	.LVL218:
 2203 0016 201A     		subs	r0, r4, r0
 2204 0018 B0FA80F0 		clz	r0, r0
 2205 001c 4009     		lsrs	r0, r0, #5
 2206              	.L226:
 2207              		.loc 1 1330 0
 2208 001e FFF7FEFF 		bl	assert_param
 2209              	.LVL219:
 2210              		.loc 1 1331 0 is_stmt 1
 2211 0022 35F44033 		bics	r3, r5, #196608
 2212 0026 25F48030 		bic	r0, r5, #65536
 2213 002a 0ED0     		beq	.L234
 2214              		.loc 1 1331 0 is_stmt 0 discriminator 8
 2215 002c B3F5802F 		cmp	r3, #262144
 2216 0030 0BD0     		beq	.L234
 2217              		.loc 1 1331 0 discriminator 16
 2218 0032 B3F5002F 		cmp	r3, #524288
 2219 0036 08D0     		beq	.L234
 2220              		.loc 1 1331 0 discriminator 24
 2221 0038 B0F5402F 		cmp	r0, #786432
 2222 003c 05D0     		beq	.L234
 2223              		.loc 1 1331 0 discriminator 28
ARM GAS  /var/folders/m4/4md61f0s1_g0rzfghffqnxvr0000gn/T//ccTIFpbg.s 			page 40


 2224 003e A0F56020 		sub	r0, r0, #917504
 2225 0042 B0FA80F0 		clz	r0, r0
 2226 0046 4009     		lsrs	r0, r0, #5
 2227 0048 00E0     		b	.L227
 2228              	.L234:
 2229              		.loc 1 1331 0
 2230 004a 0120     		movs	r0, #1
 2231              	.L227:
 2232              		.loc 1 1331 0 discriminator 34
 2233 004c FFF7FEFF 		bl	assert_param
 2234              	.LVL220:
 2235              		.loc 1 1334 0 is_stmt 1 discriminator 34
 2236 0050 A368     		ldr	r3, [r4, #8]
 2237              	.LVL221:
 2238              		.loc 1 1337 0 discriminator 34
 2239 0052 23F47023 		bic	r3, r3, #983040
 2240              	.LVL222:
 2241              		.loc 1 1340 0 discriminator 34
 2242 0056 45EA0301 		orr	r1, r5, r3
 2243              	.LVL223:
 2244              		.loc 1 1343 0 discriminator 34
 2245 005a A160     		str	r1, [r4, #8]
 2246 005c 38BD     		pop	{r3, r4, r5, pc}
 2247              	.LVL224:
 2248              	.L230:
 2249              		.loc 1 1330 0
 2250 005e 0120     		movs	r0, #1
 2251              	.LVL225:
 2252 0060 DDE7     		b	.L226
 2253              	.L239:
 2254 0062 00BF     		.align	2
 2255              	.L238:
 2256 0064 00200140 		.word	1073815552
 2257 0068 00220140 		.word	1073816064
 2258              		.cfi_endproc
 2259              	.LFE149:
 2260              		.size	ADC_ExternalTrigInjectedConvConfig, .-ADC_ExternalTrigInjectedConvConfig
 2261              		.section	.text.ADC_ExternalTrigInjectedConvEdgeConfig,"ax",%progbits
 2262              		.align	2
 2263              		.p2align 4,,15
 2264              		.global	ADC_ExternalTrigInjectedConvEdgeConfig
 2265              		.thumb
 2266              		.thumb_func
 2267              		.type	ADC_ExternalTrigInjectedConvEdgeConfig, %function
 2268              	ADC_ExternalTrigInjectedConvEdgeConfig:
 2269              	.LFB150:
 2270              		.loc 1 1361 0
 2271              		.cfi_startproc
 2272              		@ args = 0, pretend = 0, frame = 0
 2273              		@ frame_needed = 0, uses_anonymous_args = 0
 2274              	.LVL226:
 2275 0000 38B5     		push	{r3, r4, r5, lr}
 2276              		.cfi_def_cfa_offset 16
 2277              		.cfi_offset 3, -16
 2278              		.cfi_offset 4, -12
 2279              		.cfi_offset 5, -8
 2280              		.cfi_offset 14, -4
ARM GAS  /var/folders/m4/4md61f0s1_g0rzfghffqnxvr0000gn/T//ccTIFpbg.s 			page 41


 2281              		.loc 1 1364 0
 2282 0002 114B     		ldr	r3, .L247
 2283 0004 9842     		cmp	r0, r3
 2284              		.loc 1 1361 0
 2285 0006 0446     		mov	r4, r0
 2286 0008 0D46     		mov	r5, r1
 2287              		.loc 1 1364 0
 2288 000a 1BD0     		beq	.L244
 2289              		.loc 1 1364 0 is_stmt 0 discriminator 2
 2290 000c 03F58073 		add	r3, r3, #256
 2291 0010 9842     		cmp	r0, r3
 2292 0012 17D0     		beq	.L244
 2293              		.loc 1 1364 0 discriminator 4
 2294 0014 0D48     		ldr	r0, .L247+4
 2295              	.LVL227:
 2296 0016 201A     		subs	r0, r4, r0
 2297 0018 B0FA80F0 		clz	r0, r0
 2298 001c 4009     		lsrs	r0, r0, #5
 2299              	.L241:
 2300              		.loc 1 1364 0 discriminator 8
 2301 001e FFF7FEFF 		bl	assert_param
 2302              	.LVL228:
 2303              		.loc 1 1365 0 is_stmt 1 discriminator 8
 2304 0022 35F48010 		bics	r0, r5, #1048576
 2305 0026 17BF     		itett	ne
 2306 0028 A0F50010 		subne	r0, r0, #2097152
 2307 002c 0120     		moveq	r0, #1
 2308 002e B0FA80F0 		clzne	r0, r0
 2309 0032 4009     		lsrne	r0, r0, #5
 2310 0034 FFF7FEFF 		bl	assert_param
 2311              	.LVL229:
 2312              		.loc 1 1367 0 discriminator 8
 2313 0038 A168     		ldr	r1, [r4, #8]
 2314              	.LVL230:
 2315              		.loc 1 1369 0 discriminator 8
 2316 003a 21F44011 		bic	r1, r1, #3145728
 2317              	.LVL231:
 2318              		.loc 1 1371 0 discriminator 8
 2319 003e 2943     		orrs	r1, r1, r5
 2320              	.LVL232:
 2321              		.loc 1 1373 0 discriminator 8
 2322 0040 A160     		str	r1, [r4, #8]
 2323 0042 38BD     		pop	{r3, r4, r5, pc}
 2324              	.LVL233:
 2325              	.L244:
 2326              		.loc 1 1364 0
 2327 0044 0120     		movs	r0, #1
 2328              	.LVL234:
 2329 0046 EAE7     		b	.L241
 2330              	.L248:
 2331              		.align	2
 2332              	.L247:
 2333 0048 00200140 		.word	1073815552
 2334 004c 00220140 		.word	1073816064
 2335              		.cfi_endproc
 2336              	.LFE150:
 2337              		.size	ADC_ExternalTrigInjectedConvEdgeConfig, .-ADC_ExternalTrigInjectedConvEdgeConfig
ARM GAS  /var/folders/m4/4md61f0s1_g0rzfghffqnxvr0000gn/T//ccTIFpbg.s 			page 42


 2338              		.section	.text.ADC_SoftwareStartInjectedConv,"ax",%progbits
 2339              		.align	2
 2340              		.p2align 4,,15
 2341              		.global	ADC_SoftwareStartInjectedConv
 2342              		.thumb
 2343              		.thumb_func
 2344              		.type	ADC_SoftwareStartInjectedConv, %function
 2345              	ADC_SoftwareStartInjectedConv:
 2346              	.LFB151:
 2347              		.loc 1 1382 0
 2348              		.cfi_startproc
 2349              		@ args = 0, pretend = 0, frame = 0
 2350              		@ frame_needed = 0, uses_anonymous_args = 0
 2351              	.LVL235:
 2352              		.loc 1 1384 0
 2353 0000 0B4B     		ldr	r3, .L254
 2354 0002 9842     		cmp	r0, r3
 2355              		.loc 1 1382 0
 2356 0004 10B5     		push	{r4, lr}
 2357              		.cfi_def_cfa_offset 8
 2358              		.cfi_offset 4, -8
 2359              		.cfi_offset 14, -4
 2360              		.loc 1 1382 0
 2361 0006 0446     		mov	r4, r0
 2362              		.loc 1 1384 0
 2363 0008 0FD0     		beq	.L252
 2364              		.loc 1 1384 0 is_stmt 0 discriminator 2
 2365 000a 03F58073 		add	r3, r3, #256
 2366 000e 9842     		cmp	r0, r3
 2367 0010 0BD0     		beq	.L252
 2368              		.loc 1 1384 0 discriminator 4
 2369 0012 0848     		ldr	r0, .L254+4
 2370              	.LVL236:
 2371 0014 201A     		subs	r0, r4, r0
 2372 0016 B0FA80F0 		clz	r0, r0
 2373 001a 4009     		lsrs	r0, r0, #5
 2374              	.L250:
 2375              		.loc 1 1384 0 discriminator 8
 2376 001c FFF7FEFF 		bl	assert_param
 2377              	.LVL237:
 2378              		.loc 1 1386 0 is_stmt 1 discriminator 8
 2379 0020 A368     		ldr	r3, [r4, #8]
 2380 0022 43F48003 		orr	r3, r3, #4194304
 2381 0026 A360     		str	r3, [r4, #8]
 2382 0028 10BD     		pop	{r4, pc}
 2383              	.LVL238:
 2384              	.L252:
 2385              		.loc 1 1384 0
 2386 002a 0120     		movs	r0, #1
 2387              	.LVL239:
 2388 002c F6E7     		b	.L250
 2389              	.L255:
 2390 002e 00BF     		.align	2
 2391              	.L254:
 2392 0030 00200140 		.word	1073815552
 2393 0034 00220140 		.word	1073816064
 2394              		.cfi_endproc
ARM GAS  /var/folders/m4/4md61f0s1_g0rzfghffqnxvr0000gn/T//ccTIFpbg.s 			page 43


 2395              	.LFE151:
 2396              		.size	ADC_SoftwareStartInjectedConv, .-ADC_SoftwareStartInjectedConv
 2397              		.section	.text.ADC_GetSoftwareStartInjectedConvCmdStatus,"ax",%progbits
 2398              		.align	2
 2399              		.p2align 4,,15
 2400              		.global	ADC_GetSoftwareStartInjectedConvCmdStatus
 2401              		.thumb
 2402              		.thumb_func
 2403              		.type	ADC_GetSoftwareStartInjectedConvCmdStatus, %function
 2404              	ADC_GetSoftwareStartInjectedConvCmdStatus:
 2405              	.LFB152:
 2406              		.loc 1 1395 0
 2407              		.cfi_startproc
 2408              		@ args = 0, pretend = 0, frame = 0
 2409              		@ frame_needed = 0, uses_anonymous_args = 0
 2410              	.LVL240:
 2411              		.loc 1 1398 0
 2412 0000 0D4B     		ldr	r3, .L261
 2413 0002 9842     		cmp	r0, r3
 2414              		.loc 1 1395 0
 2415 0004 10B5     		push	{r4, lr}
 2416              		.cfi_def_cfa_offset 8
 2417              		.cfi_offset 4, -8
 2418              		.cfi_offset 14, -4
 2419              		.loc 1 1395 0
 2420 0006 0446     		mov	r4, r0
 2421              		.loc 1 1398 0
 2422 0008 0ED0     		beq	.L259
 2423              		.loc 1 1398 0 is_stmt 0 discriminator 2
 2424 000a 03F58073 		add	r3, r3, #256
 2425 000e 9842     		cmp	r0, r3
 2426 0010 0AD0     		beq	.L259
 2427              		.loc 1 1398 0 discriminator 4
 2428 0012 0A48     		ldr	r0, .L261+4
 2429              	.LVL241:
 2430 0014 201A     		subs	r0, r4, r0
 2431 0016 B0FA80F0 		clz	r0, r0
 2432 001a 4009     		lsrs	r0, r0, #5
 2433 001c FFF7FEFF 		bl	assert_param
 2434              	.LVL242:
 2435              		.loc 1 1401 0 is_stmt 1 discriminator 4
 2436 0020 A068     		ldr	r0, [r4, #8]
 2437              	.LVL243:
 2438              		.loc 1 1413 0 discriminator 4
 2439 0022 C0F38050 		ubfx	r0, r0, #22, #1
 2440              	.LVL244:
 2441 0026 10BD     		pop	{r4, pc}
 2442              	.LVL245:
 2443              	.L259:
 2444              		.loc 1 1398 0
 2445 0028 0120     		movs	r0, #1
 2446              	.LVL246:
 2447 002a FFF7FEFF 		bl	assert_param
 2448              	.LVL247:
 2449              		.loc 1 1401 0
 2450 002e A068     		ldr	r0, [r4, #8]
 2451              	.LVL248:
ARM GAS  /var/folders/m4/4md61f0s1_g0rzfghffqnxvr0000gn/T//ccTIFpbg.s 			page 44


 2452              		.loc 1 1413 0
 2453 0030 C0F38050 		ubfx	r0, r0, #22, #1
 2454              	.LVL249:
 2455 0034 10BD     		pop	{r4, pc}
 2456              	.LVL250:
 2457              	.L262:
 2458 0036 00BF     		.align	2
 2459              	.L261:
 2460 0038 00200140 		.word	1073815552
 2461 003c 00220140 		.word	1073816064
 2462              		.cfi_endproc
 2463              	.LFE152:
 2464              		.size	ADC_GetSoftwareStartInjectedConvCmdStatus, .-ADC_GetSoftwareStartInjectedConvCmdStatus
 2465              		.section	.text.ADC_AutoInjectedConvCmd,"ax",%progbits
 2466              		.align	2
 2467              		.p2align 4,,15
 2468              		.global	ADC_AutoInjectedConvCmd
 2469              		.thumb
 2470              		.thumb_func
 2471              		.type	ADC_AutoInjectedConvCmd, %function
 2472              	ADC_AutoInjectedConvCmd:
 2473              	.LFB153:
 2474              		.loc 1 1424 0
 2475              		.cfi_startproc
 2476              		@ args = 0, pretend = 0, frame = 0
 2477              		@ frame_needed = 0, uses_anonymous_args = 0
 2478              	.LVL251:
 2479 0000 38B5     		push	{r3, r4, r5, lr}
 2480              		.cfi_def_cfa_offset 16
 2481              		.cfi_offset 3, -16
 2482              		.cfi_offset 4, -12
 2483              		.cfi_offset 5, -8
 2484              		.cfi_offset 14, -4
 2485              		.loc 1 1426 0
 2486 0002 114B     		ldr	r3, .L271
 2487 0004 9842     		cmp	r0, r3
 2488              		.loc 1 1424 0
 2489 0006 0446     		mov	r4, r0
 2490 0008 0D46     		mov	r5, r1
 2491              		.loc 1 1426 0
 2492 000a 1AD0     		beq	.L268
 2493              		.loc 1 1426 0 is_stmt 0 discriminator 2
 2494 000c 03F58073 		add	r3, r3, #256
 2495 0010 9842     		cmp	r0, r3
 2496 0012 16D0     		beq	.L268
 2497              		.loc 1 1426 0 discriminator 4
 2498 0014 0D48     		ldr	r0, .L271+4
 2499              	.LVL252:
 2500 0016 201A     		subs	r0, r4, r0
 2501 0018 B0FA80F0 		clz	r0, r0
 2502 001c 4009     		lsrs	r0, r0, #5
 2503              	.L264:
 2504              		.loc 1 1426 0 discriminator 8
 2505 001e FFF7FEFF 		bl	assert_param
 2506              	.LVL253:
 2507              		.loc 1 1427 0 is_stmt 1 discriminator 8
 2508 0022 012D     		cmp	r5, #1
ARM GAS  /var/folders/m4/4md61f0s1_g0rzfghffqnxvr0000gn/T//ccTIFpbg.s 			page 45


 2509 0024 8CBF     		ite	hi
 2510 0026 0020     		movhi	r0, #0
 2511 0028 0120     		movls	r0, #1
 2512 002a FFF7FEFF 		bl	assert_param
 2513              	.LVL254:
 2514              		.loc 1 1431 0 discriminator 8
 2515 002e 6368     		ldr	r3, [r4, #4]
 2516              		.loc 1 1428 0 discriminator 8
 2517 0030 1DB9     		cbnz	r5, .L270
 2518              		.loc 1 1436 0
 2519 0032 23F48063 		bic	r3, r3, #1024
 2520 0036 6360     		str	r3, [r4, #4]
 2521 0038 38BD     		pop	{r3, r4, r5, pc}
 2522              	.LVL255:
 2523              	.L270:
 2524              		.loc 1 1431 0
 2525 003a 43F48063 		orr	r3, r3, #1024
 2526 003e 6360     		str	r3, [r4, #4]
 2527 0040 38BD     		pop	{r3, r4, r5, pc}
 2528              	.LVL256:
 2529              	.L268:
 2530              		.loc 1 1426 0
 2531 0042 0120     		movs	r0, #1
 2532              	.LVL257:
 2533 0044 EBE7     		b	.L264
 2534              	.L272:
 2535 0046 00BF     		.align	2
 2536              	.L271:
 2537 0048 00200140 		.word	1073815552
 2538 004c 00220140 		.word	1073816064
 2539              		.cfi_endproc
 2540              	.LFE153:
 2541              		.size	ADC_AutoInjectedConvCmd, .-ADC_AutoInjectedConvCmd
 2542              		.section	.text.ADC_InjectedDiscModeCmd,"ax",%progbits
 2543              		.align	2
 2544              		.p2align 4,,15
 2545              		.global	ADC_InjectedDiscModeCmd
 2546              		.thumb
 2547              		.thumb_func
 2548              		.type	ADC_InjectedDiscModeCmd, %function
 2549              	ADC_InjectedDiscModeCmd:
 2550              	.LFB154:
 2551              		.loc 1 1450 0
 2552              		.cfi_startproc
 2553              		@ args = 0, pretend = 0, frame = 0
 2554              		@ frame_needed = 0, uses_anonymous_args = 0
 2555              	.LVL258:
 2556 0000 38B5     		push	{r3, r4, r5, lr}
 2557              		.cfi_def_cfa_offset 16
 2558              		.cfi_offset 3, -16
 2559              		.cfi_offset 4, -12
 2560              		.cfi_offset 5, -8
 2561              		.cfi_offset 14, -4
 2562              		.loc 1 1452 0
 2563 0002 114B     		ldr	r3, .L281
 2564 0004 9842     		cmp	r0, r3
 2565              		.loc 1 1450 0
ARM GAS  /var/folders/m4/4md61f0s1_g0rzfghffqnxvr0000gn/T//ccTIFpbg.s 			page 46


 2566 0006 0446     		mov	r4, r0
 2567 0008 0D46     		mov	r5, r1
 2568              		.loc 1 1452 0
 2569 000a 1AD0     		beq	.L278
 2570              		.loc 1 1452 0 is_stmt 0 discriminator 2
 2571 000c 03F58073 		add	r3, r3, #256
 2572 0010 9842     		cmp	r0, r3
 2573 0012 16D0     		beq	.L278
 2574              		.loc 1 1452 0 discriminator 4
 2575 0014 0D48     		ldr	r0, .L281+4
 2576              	.LVL259:
 2577 0016 201A     		subs	r0, r4, r0
 2578 0018 B0FA80F0 		clz	r0, r0
 2579 001c 4009     		lsrs	r0, r0, #5
 2580              	.L274:
 2581              		.loc 1 1452 0 discriminator 8
 2582 001e FFF7FEFF 		bl	assert_param
 2583              	.LVL260:
 2584              		.loc 1 1453 0 is_stmt 1 discriminator 8
 2585 0022 012D     		cmp	r5, #1
 2586 0024 8CBF     		ite	hi
 2587 0026 0020     		movhi	r0, #0
 2588 0028 0120     		movls	r0, #1
 2589 002a FFF7FEFF 		bl	assert_param
 2590              	.LVL261:
 2591              		.loc 1 1457 0 discriminator 8
 2592 002e 6368     		ldr	r3, [r4, #4]
 2593              		.loc 1 1454 0 discriminator 8
 2594 0030 1DB9     		cbnz	r5, .L280
 2595              		.loc 1 1462 0
 2596 0032 23F48053 		bic	r3, r3, #4096
 2597 0036 6360     		str	r3, [r4, #4]
 2598 0038 38BD     		pop	{r3, r4, r5, pc}
 2599              	.LVL262:
 2600              	.L280:
 2601              		.loc 1 1457 0
 2602 003a 43F48053 		orr	r3, r3, #4096
 2603 003e 6360     		str	r3, [r4, #4]
 2604 0040 38BD     		pop	{r3, r4, r5, pc}
 2605              	.LVL263:
 2606              	.L278:
 2607              		.loc 1 1452 0
 2608 0042 0120     		movs	r0, #1
 2609              	.LVL264:
 2610 0044 EBE7     		b	.L274
 2611              	.L282:
 2612 0046 00BF     		.align	2
 2613              	.L281:
 2614 0048 00200140 		.word	1073815552
 2615 004c 00220140 		.word	1073816064
 2616              		.cfi_endproc
 2617              	.LFE154:
 2618              		.size	ADC_InjectedDiscModeCmd, .-ADC_InjectedDiscModeCmd
 2619              		.section	.text.ADC_GetInjectedConversionValue,"ax",%progbits
 2620              		.align	2
 2621              		.p2align 4,,15
 2622              		.global	ADC_GetInjectedConversionValue
ARM GAS  /var/folders/m4/4md61f0s1_g0rzfghffqnxvr0000gn/T//ccTIFpbg.s 			page 47


 2623              		.thumb
 2624              		.thumb_func
 2625              		.type	ADC_GetInjectedConversionValue, %function
 2626              	ADC_GetInjectedConversionValue:
 2627              	.LFB155:
 2628              		.loc 1 1478 0
 2629              		.cfi_startproc
 2630              		@ args = 0, pretend = 0, frame = 8
 2631              		@ frame_needed = 0, uses_anonymous_args = 0
 2632              	.LVL265:
 2633 0000 30B5     		push	{r4, r5, lr}
 2634              		.cfi_def_cfa_offset 12
 2635              		.cfi_offset 4, -12
 2636              		.cfi_offset 5, -8
 2637              		.cfi_offset 14, -4
 2638              		.loc 1 1482 0
 2639 0002 174B     		ldr	r3, .L291
 2640              		.loc 1 1478 0
 2641 0004 83B0     		sub	sp, sp, #12
 2642              		.cfi_def_cfa_offset 24
 2643              		.loc 1 1479 0
 2644 0006 0022     		movs	r2, #0
 2645              		.loc 1 1482 0
 2646 0008 9842     		cmp	r0, r3
 2647              		.loc 1 1478 0
 2648 000a 0546     		mov	r5, r0
 2649 000c 0C46     		mov	r4, r1
 2650              		.loc 1 1479 0
 2651 000e 0192     		str	r2, [sp, #4]
 2652              		.loc 1 1482 0
 2653 0010 23D0     		beq	.L287
 2654              		.loc 1 1482 0 is_stmt 0 discriminator 2
 2655 0012 03F58073 		add	r3, r3, #256
 2656 0016 9842     		cmp	r0, r3
 2657 0018 1FD0     		beq	.L287
 2658              		.loc 1 1482 0 discriminator 4
 2659 001a 1248     		ldr	r0, .L291+4
 2660              	.LVL266:
 2661 001c 281A     		subs	r0, r5, r0
 2662 001e B0FA80F0 		clz	r0, r0
 2663 0022 4009     		lsrs	r0, r0, #5
 2664              	.L284:
 2665              		.loc 1 1482 0 discriminator 8
 2666 0024 FFF7FEFF 		bl	assert_param
 2667              	.LVL267:
 2668              		.loc 1 1483 0 is_stmt 1 discriminator 8
 2669 0028 04F0F703 		and	r3, r4, #247
 2670 002c 142B     		cmp	r3, #20
 2671 002e 12D0     		beq	.L289
 2672              		.loc 1 1483 0 is_stmt 0 discriminator 2
 2673 0030 182C     		cmp	r4, #24
 2674 0032 10D0     		beq	.L289
 2675              		.loc 1 1483 0 discriminator 6
 2676 0034 A4F12000 		sub	r0, r4, #32
 2677 0038 B0FA80F0 		clz	r0, r0
 2678 003c 4009     		lsrs	r0, r0, #5
 2679              	.L285:
ARM GAS  /var/folders/m4/4md61f0s1_g0rzfghffqnxvr0000gn/T//ccTIFpbg.s 			page 48


 2680              		.loc 1 1483 0 discriminator 10
 2681 003e FFF7FEFF 		bl	assert_param
 2682              	.LVL268:
 2683              		.loc 1 1485 0 is_stmt 1 discriminator 10
 2684 0042 0195     		str	r5, [sp, #4]
 2685              		.loc 1 1486 0 discriminator 10
 2686 0044 0199     		ldr	r1, [sp, #4]
 2687 0046 2831     		adds	r1, r1, #40
 2688 0048 0C44     		add	r4, r4, r1
 2689 004a 0194     		str	r4, [sp, #4]
 2690              		.loc 1 1489 0 discriminator 10
 2691 004c 019B     		ldr	r3, [sp, #4]
 2692 004e 1868     		ldr	r0, [r3]
 2693              		.loc 1 1490 0 discriminator 10
 2694 0050 80B2     		uxth	r0, r0
 2695 0052 03B0     		add	sp, sp, #12
 2696              		.cfi_remember_state
 2697              		.cfi_def_cfa_offset 12
 2698              		@ sp needed
 2699 0054 30BD     		pop	{r4, r5, pc}
 2700              	.LVL269:
 2701              	.L289:
 2702              		.cfi_restore_state
 2703              		.loc 1 1483 0
 2704 0056 0120     		movs	r0, #1
 2705 0058 F1E7     		b	.L285
 2706              	.LVL270:
 2707              	.L287:
 2708              		.loc 1 1482 0
 2709 005a 0120     		movs	r0, #1
 2710              	.LVL271:
 2711 005c E2E7     		b	.L284
 2712              	.L292:
 2713 005e 00BF     		.align	2
 2714              	.L291:
 2715 0060 00200140 		.word	1073815552
 2716 0064 00220140 		.word	1073816064
 2717              		.cfi_endproc
 2718              	.LFE155:
 2719              		.size	ADC_GetInjectedConversionValue, .-ADC_GetInjectedConversionValue
 2720              		.section	.text.ADC_ITConfig,"ax",%progbits
 2721              		.align	2
 2722              		.p2align 4,,15
 2723              		.global	ADC_ITConfig
 2724              		.thumb
 2725              		.thumb_func
 2726              		.type	ADC_ITConfig, %function
 2727              	ADC_ITConfig:
 2728              	.LFB156:
 2729              		.loc 1 1585 0
 2730              		.cfi_startproc
 2731              		@ args = 0, pretend = 0, frame = 0
 2732              		@ frame_needed = 0, uses_anonymous_args = 0
 2733              	.LVL272:
 2734              		.loc 1 1588 0
 2735 0000 1D4B     		ldr	r3, .L305
 2736 0002 9842     		cmp	r0, r3
ARM GAS  /var/folders/m4/4md61f0s1_g0rzfghffqnxvr0000gn/T//ccTIFpbg.s 			page 49


 2737              		.loc 1 1585 0
 2738 0004 70B5     		push	{r4, r5, r6, lr}
 2739              		.cfi_def_cfa_offset 16
 2740              		.cfi_offset 4, -16
 2741              		.cfi_offset 5, -12
 2742              		.cfi_offset 6, -8
 2743              		.cfi_offset 14, -4
 2744              		.loc 1 1585 0
 2745 0006 0546     		mov	r5, r0
 2746 0008 0C46     		mov	r4, r1
 2747 000a 1646     		mov	r6, r2
 2748              		.loc 1 1588 0
 2749 000c 31D0     		beq	.L299
 2750              		.loc 1 1588 0 is_stmt 0 discriminator 2
 2751 000e 03F58073 		add	r3, r3, #256
 2752 0012 9842     		cmp	r0, r3
 2753 0014 2DD0     		beq	.L299
 2754              		.loc 1 1588 0 discriminator 4
 2755 0016 1948     		ldr	r0, .L305+4
 2756              	.LVL273:
 2757 0018 281A     		subs	r0, r5, r0
 2758 001a B0FA80F0 		clz	r0, r0
 2759 001e 4009     		lsrs	r0, r0, #5
 2760              	.L294:
 2761              		.loc 1 1588 0 discriminator 8
 2762 0020 FFF7FEFF 		bl	assert_param
 2763              	.LVL274:
 2764              		.loc 1 1589 0 is_stmt 1 discriminator 8
 2765 0024 012E     		cmp	r6, #1
 2766 0026 8CBF     		ite	hi
 2767 0028 0020     		movhi	r0, #0
 2768 002a 0120     		movls	r0, #1
 2769 002c FFF7FEFF 		bl	assert_param
 2770              	.LVL275:
 2771              		.loc 1 1590 0 discriminator 8
 2772 0030 40F20523 		movw	r3, #517
 2773 0034 9C42     		cmp	r4, r3
 2774 0036 0DD0     		beq	.L302
 2775              		.loc 1 1590 0 is_stmt 0 discriminator 2
 2776 0038 B4F5837F 		cmp	r4, #262
 2777 003c 0AD0     		beq	.L302
 2778              		.loc 1 1590 0 discriminator 4
 2779 003e 40F20743 		movw	r3, #1031
 2780 0042 9C42     		cmp	r4, r3
 2781 0044 06D0     		beq	.L302
 2782              		.loc 1 1590 0 discriminator 6
 2783 0046 42F21A00 		movw	r0, #8218
 2784 004a 201A     		subs	r0, r4, r0
 2785 004c B0FA80F0 		clz	r0, r0
 2786 0050 4009     		lsrs	r0, r0, #5
 2787 0052 00E0     		b	.L295
 2788              	.L302:
 2789              		.loc 1 1590 0
 2790 0054 0120     		movs	r0, #1
 2791              	.L295:
 2792              		.loc 1 1590 0 discriminator 10
 2793 0056 FFF7FEFF 		bl	assert_param
ARM GAS  /var/folders/m4/4md61f0s1_g0rzfghffqnxvr0000gn/T//ccTIFpbg.s 			page 50


 2794              	.LVL276:
 2795              		.loc 1 1594 0 is_stmt 1 discriminator 10
 2796 005a E4B2     		uxtb	r4, r4
 2797              	.LVL277:
 2798 005c 0123     		movs	r3, #1
 2799 005e A340     		lsls	r3, r3, r4
 2800              	.LVL278:
 2801              		.loc 1 1599 0 discriminator 10
 2802 0060 6A68     		ldr	r2, [r5, #4]
 2803              		.loc 1 1596 0 discriminator 10
 2804 0062 1EB9     		cbnz	r6, .L304
 2805              		.loc 1 1604 0
 2806 0064 22EA0303 		bic	r3, r2, r3
 2807              	.LVL279:
 2808 0068 6B60     		str	r3, [r5, #4]
 2809 006a 70BD     		pop	{r4, r5, r6, pc}
 2810              	.LVL280:
 2811              	.L304:
 2812              		.loc 1 1599 0
 2813 006c 1343     		orrs	r3, r3, r2
 2814              	.LVL281:
 2815 006e 6B60     		str	r3, [r5, #4]
 2816 0070 70BD     		pop	{r4, r5, r6, pc}
 2817              	.LVL282:
 2818              	.L299:
 2819              		.loc 1 1588 0
 2820 0072 0120     		movs	r0, #1
 2821              	.LVL283:
 2822 0074 D4E7     		b	.L294
 2823              	.L306:
 2824 0076 00BF     		.align	2
 2825              	.L305:
 2826 0078 00200140 		.word	1073815552
 2827 007c 00220140 		.word	1073816064
 2828              		.cfi_endproc
 2829              	.LFE156:
 2830              		.size	ADC_ITConfig, .-ADC_ITConfig
 2831              		.section	.text.ADC_GetFlagStatus,"ax",%progbits
 2832              		.align	2
 2833              		.p2align 4,,15
 2834              		.global	ADC_GetFlagStatus
 2835              		.thumb
 2836              		.thumb_func
 2837              		.type	ADC_GetFlagStatus, %function
 2838              	ADC_GetFlagStatus:
 2839              	.LFB157:
 2840              		.loc 1 1622 0
 2841              		.cfi_startproc
 2842              		@ args = 0, pretend = 0, frame = 0
 2843              		@ frame_needed = 0, uses_anonymous_args = 0
 2844              	.LVL284:
 2845 0000 38B5     		push	{r3, r4, r5, lr}
 2846              		.cfi_def_cfa_offset 16
 2847              		.cfi_offset 3, -16
 2848              		.cfi_offset 4, -12
 2849              		.cfi_offset 5, -8
 2850              		.cfi_offset 14, -4
ARM GAS  /var/folders/m4/4md61f0s1_g0rzfghffqnxvr0000gn/T//ccTIFpbg.s 			page 51


 2851              		.loc 1 1625 0
 2852 0002 154B     		ldr	r3, .L317
 2853 0004 9842     		cmp	r0, r3
 2854              		.loc 1 1622 0
 2855 0006 0546     		mov	r5, r0
 2856 0008 0C46     		mov	r4, r1
 2857              		.loc 1 1625 0
 2858 000a 22D0     		beq	.L311
 2859              		.loc 1 1625 0 is_stmt 0 discriminator 2
 2860 000c 03F58073 		add	r3, r3, #256
 2861 0010 9842     		cmp	r0, r3
 2862 0012 1ED0     		beq	.L311
 2863              		.loc 1 1625 0 discriminator 4
 2864 0014 1148     		ldr	r0, .L317+4
 2865              	.LVL285:
 2866 0016 281A     		subs	r0, r5, r0
 2867 0018 B0FA80F0 		clz	r0, r0
 2868 001c 4009     		lsrs	r0, r0, #5
 2869              	.L308:
 2870              		.loc 1 1625 0 discriminator 8
 2871 001e FFF7FEFF 		bl	assert_param
 2872              	.LVL286:
 2873              		.loc 1 1626 0 is_stmt 1 discriminator 8
 2874 0022 631E     		subs	r3, r4, #1
 2875 0024 012B     		cmp	r3, #1
 2876 0026 0BD9     		bls	.L315
 2877              		.loc 1 1626 0 is_stmt 0 discriminator 2
 2878 0028 042C     		cmp	r4, #4
 2879 002a 09D0     		beq	.L315
 2880              		.loc 1 1626 0 discriminator 4
 2881 002c 082C     		cmp	r4, #8
 2882 002e 07D0     		beq	.L315
 2883              		.loc 1 1626 0 discriminator 6
 2884 0030 102C     		cmp	r4, #16
 2885 0032 05D0     		beq	.L315
 2886              		.loc 1 1626 0 discriminator 8
 2887 0034 A4F12000 		sub	r0, r4, #32
 2888 0038 B0FA80F0 		clz	r0, r0
 2889 003c 4009     		lsrs	r0, r0, #5
 2890 003e 00E0     		b	.L309
 2891              	.L315:
 2892              		.loc 1 1626 0
 2893 0040 0120     		movs	r0, #1
 2894              	.L309:
 2895              		.loc 1 1626 0 discriminator 12
 2896 0042 FFF7FEFF 		bl	assert_param
 2897              	.LVL287:
 2898              		.loc 1 1629 0 is_stmt 1 discriminator 12
 2899 0046 2B68     		ldr	r3, [r5]
 2900              	.LVL288:
 2901 0048 1C42     		tst	r4, r3
 2902              		.loc 1 1641 0 discriminator 12
 2903 004a 14BF     		ite	ne
 2904 004c 0120     		movne	r0, #1
 2905 004e 0020     		moveq	r0, #0
 2906 0050 38BD     		pop	{r3, r4, r5, pc}
 2907              	.LVL289:
ARM GAS  /var/folders/m4/4md61f0s1_g0rzfghffqnxvr0000gn/T//ccTIFpbg.s 			page 52


 2908              	.L311:
 2909              		.loc 1 1625 0
 2910 0052 0120     		movs	r0, #1
 2911              	.LVL290:
 2912 0054 E3E7     		b	.L308
 2913              	.L318:
 2914 0056 00BF     		.align	2
 2915              	.L317:
 2916 0058 00200140 		.word	1073815552
 2917 005c 00220140 		.word	1073816064
 2918              		.cfi_endproc
 2919              	.LFE157:
 2920              		.size	ADC_GetFlagStatus, .-ADC_GetFlagStatus
 2921              		.section	.text.ADC_ClearFlag,"ax",%progbits
 2922              		.align	2
 2923              		.p2align 4,,15
 2924              		.global	ADC_ClearFlag
 2925              		.thumb
 2926              		.thumb_func
 2927              		.type	ADC_ClearFlag, %function
 2928              	ADC_ClearFlag:
 2929              	.LFB158:
 2930              		.loc 1 1657 0
 2931              		.cfi_startproc
 2932              		@ args = 0, pretend = 0, frame = 0
 2933              		@ frame_needed = 0, uses_anonymous_args = 0
 2934              	.LVL291:
 2935 0000 38B5     		push	{r3, r4, r5, lr}
 2936              		.cfi_def_cfa_offset 16
 2937              		.cfi_offset 3, -16
 2938              		.cfi_offset 4, -12
 2939              		.cfi_offset 5, -8
 2940              		.cfi_offset 14, -4
 2941              		.loc 1 1659 0
 2942 0002 114B     		ldr	r3, .L326
 2943 0004 9842     		cmp	r0, r3
 2944              		.loc 1 1657 0
 2945 0006 0546     		mov	r5, r0
 2946 0008 0C46     		mov	r4, r1
 2947              		.loc 1 1659 0
 2948 000a 1BD0     		beq	.L323
 2949              		.loc 1 1659 0 is_stmt 0 discriminator 2
 2950 000c 03F58073 		add	r3, r3, #256
 2951 0010 9842     		cmp	r0, r3
 2952 0012 17D0     		beq	.L323
 2953              		.loc 1 1659 0 discriminator 4
 2954 0014 0D48     		ldr	r0, .L326+4
 2955              	.LVL292:
 2956 0016 281A     		subs	r0, r5, r0
 2957 0018 B0FA80F0 		clz	r0, r0
 2958 001c 4009     		lsrs	r0, r0, #5
 2959              	.L320:
 2960              		.loc 1 1659 0 discriminator 8
 2961 001e FFF7FEFF 		bl	assert_param
 2962              	.LVL293:
 2963              		.loc 1 1660 0 is_stmt 1 discriminator 8
 2964 0022 14F0C00F 		tst	r4, #192
ARM GAS  /var/folders/m4/4md61f0s1_g0rzfghffqnxvr0000gn/T//ccTIFpbg.s 			page 53


 2965 0026 07D1     		bne	.L324
 2966              		.loc 1 1660 0 is_stmt 0 discriminator 1
 2967 0028 201C     		adds	r0, r4, #0
 2968 002a 18BF     		it	ne
 2969 002c 0120     		movne	r0, #1
 2970              		.loc 1 1663 0 is_stmt 1 discriminator 1
 2971 002e E443     		mvns	r4, r4
 2972              		.loc 1 1660 0 discriminator 1
 2973 0030 FFF7FEFF 		bl	assert_param
 2974              	.LVL294:
 2975              		.loc 1 1663 0 discriminator 1
 2976 0034 2C60     		str	r4, [r5]
 2977 0036 38BD     		pop	{r3, r4, r5, pc}
 2978              	.LVL295:
 2979              	.L324:
 2980              		.loc 1 1660 0
 2981 0038 0020     		movs	r0, #0
 2982              		.loc 1 1663 0
 2983 003a E443     		mvns	r4, r4
 2984              		.loc 1 1660 0
 2985 003c FFF7FEFF 		bl	assert_param
 2986              	.LVL296:
 2987              		.loc 1 1663 0
 2988 0040 2C60     		str	r4, [r5]
 2989 0042 38BD     		pop	{r3, r4, r5, pc}
 2990              	.LVL297:
 2991              	.L323:
 2992              		.loc 1 1659 0
 2993 0044 0120     		movs	r0, #1
 2994              	.LVL298:
 2995 0046 EAE7     		b	.L320
 2996              	.L327:
 2997              		.align	2
 2998              	.L326:
 2999 0048 00200140 		.word	1073815552
 3000 004c 00220140 		.word	1073816064
 3001              		.cfi_endproc
 3002              	.LFE158:
 3003              		.size	ADC_ClearFlag, .-ADC_ClearFlag
 3004              		.section	.text.ADC_GetITStatus,"ax",%progbits
 3005              		.align	2
 3006              		.p2align 4,,15
 3007              		.global	ADC_GetITStatus
 3008              		.thumb
 3009              		.thumb_func
 3010              		.type	ADC_GetITStatus, %function
 3011              	ADC_GetITStatus:
 3012              	.LFB159:
 3013              		.loc 1 1678 0
 3014              		.cfi_startproc
 3015              		@ args = 0, pretend = 0, frame = 0
 3016              		@ frame_needed = 0, uses_anonymous_args = 0
 3017              	.LVL299:
 3018 0000 38B5     		push	{r3, r4, r5, lr}
 3019              		.cfi_def_cfa_offset 16
 3020              		.cfi_offset 3, -16
 3021              		.cfi_offset 4, -12
ARM GAS  /var/folders/m4/4md61f0s1_g0rzfghffqnxvr0000gn/T//ccTIFpbg.s 			page 54


 3022              		.cfi_offset 5, -8
 3023              		.cfi_offset 14, -4
 3024              		.loc 1 1683 0
 3025 0002 1A4B     		ldr	r3, .L339
 3026 0004 9842     		cmp	r0, r3
 3027              		.loc 1 1678 0
 3028 0006 0546     		mov	r5, r0
 3029 0008 0C46     		mov	r4, r1
 3030              		.loc 1 1683 0
 3031 000a 2CD0     		beq	.L333
 3032              		.loc 1 1683 0 is_stmt 0 discriminator 2
 3033 000c 03F58073 		add	r3, r3, #256
 3034 0010 9842     		cmp	r0, r3
 3035 0012 28D0     		beq	.L333
 3036              		.loc 1 1683 0 discriminator 4
 3037 0014 1648     		ldr	r0, .L339+4
 3038              	.LVL300:
 3039 0016 281A     		subs	r0, r5, r0
 3040 0018 B0FA80F0 		clz	r0, r0
 3041 001c 4009     		lsrs	r0, r0, #5
 3042              	.L329:
 3043              		.loc 1 1683 0 discriminator 8
 3044 001e FFF7FEFF 		bl	assert_param
 3045              	.LVL301:
 3046              		.loc 1 1684 0 is_stmt 1 discriminator 8
 3047 0022 40F20523 		movw	r3, #517
 3048 0026 9C42     		cmp	r4, r3
 3049 0028 0DD0     		beq	.L336
 3050              		.loc 1 1684 0 is_stmt 0 discriminator 2
 3051 002a B4F5837F 		cmp	r4, #262
 3052 002e 0AD0     		beq	.L336
 3053              		.loc 1 1684 0 discriminator 4
 3054 0030 40F20743 		movw	r3, #1031
 3055 0034 9C42     		cmp	r4, r3
 3056 0036 06D0     		beq	.L336
 3057              		.loc 1 1684 0 discriminator 6
 3058 0038 42F21A00 		movw	r0, #8218
 3059 003c 201A     		subs	r0, r4, r0
 3060 003e B0FA80F0 		clz	r0, r0
 3061 0042 4009     		lsrs	r0, r0, #5
 3062 0044 00E0     		b	.L330
 3063              	.L336:
 3064              		.loc 1 1684 0
 3065 0046 0120     		movs	r0, #1
 3066              	.L330:
 3067              		.loc 1 1684 0 discriminator 10
 3068 0048 FFF7FEFF 		bl	assert_param
 3069              	.LVL302:
 3070              		.loc 1 1690 0 is_stmt 1 discriminator 10
 3071 004c 6A68     		ldr	r2, [r5, #4]
 3072              	.LVL303:
 3073              		.loc 1 1693 0 discriminator 10
 3074 004e 2868     		ldr	r0, [r5]
 3075 0050 10EA1420 		ands	r0, r0, r4, lsr #8
 3076 0054 06D0     		beq	.L331
 3077              		.loc 1 1690 0 discriminator 1
 3078 0056 E4B2     		uxtb	r4, r4
ARM GAS  /var/folders/m4/4md61f0s1_g0rzfghffqnxvr0000gn/T//ccTIFpbg.s 			page 55


 3079              	.LVL304:
 3080 0058 0123     		movs	r3, #1
 3081 005a A340     		lsls	r3, r3, r4
 3082              		.loc 1 1693 0 discriminator 1
 3083 005c 1342     		tst	r3, r2
 3084              		.loc 1 1696 0 discriminator 1
 3085 005e 14BF     		ite	ne
 3086 0060 0120     		movne	r0, #1
 3087 0062 0020     		moveq	r0, #0
 3088              	.LVL305:
 3089              	.L331:
 3090              		.loc 1 1705 0
 3091 0064 38BD     		pop	{r3, r4, r5, pc}
 3092              	.LVL306:
 3093              	.L333:
 3094              		.loc 1 1683 0
 3095 0066 0120     		movs	r0, #1
 3096              	.LVL307:
 3097 0068 D9E7     		b	.L329
 3098              	.L340:
 3099 006a 00BF     		.align	2
 3100              	.L339:
 3101 006c 00200140 		.word	1073815552
 3102 0070 00220140 		.word	1073816064
 3103              		.cfi_endproc
 3104              	.LFE159:
 3105              		.size	ADC_GetITStatus, .-ADC_GetITStatus
 3106              		.section	.text.ADC_ClearITPendingBit,"ax",%progbits
 3107              		.align	2
 3108              		.p2align 4,,15
 3109              		.global	ADC_ClearITPendingBit
 3110              		.thumb
 3111              		.thumb_func
 3112              		.type	ADC_ClearITPendingBit, %function
 3113              	ADC_ClearITPendingBit:
 3114              	.LFB160:
 3115              		.loc 1 1719 0
 3116              		.cfi_startproc
 3117              		@ args = 0, pretend = 0, frame = 0
 3118              		@ frame_needed = 0, uses_anonymous_args = 0
 3119              	.LVL308:
 3120 0000 38B5     		push	{r3, r4, r5, lr}
 3121              		.cfi_def_cfa_offset 16
 3122              		.cfi_offset 3, -16
 3123              		.cfi_offset 4, -12
 3124              		.cfi_offset 5, -8
 3125              		.cfi_offset 14, -4
 3126              		.loc 1 1722 0
 3127 0002 184B     		ldr	r3, .L350
 3128 0004 9842     		cmp	r0, r3
 3129              		.loc 1 1719 0
 3130 0006 0546     		mov	r5, r0
 3131 0008 0C46     		mov	r4, r1
 3132              		.loc 1 1722 0
 3133 000a 28D0     		beq	.L345
 3134              		.loc 1 1722 0 is_stmt 0 discriminator 2
 3135 000c 03F58073 		add	r3, r3, #256
ARM GAS  /var/folders/m4/4md61f0s1_g0rzfghffqnxvr0000gn/T//ccTIFpbg.s 			page 56


 3136 0010 9842     		cmp	r0, r3
 3137 0012 24D0     		beq	.L345
 3138              		.loc 1 1722 0 discriminator 4
 3139 0014 1448     		ldr	r0, .L350+4
 3140              	.LVL309:
 3141 0016 281A     		subs	r0, r5, r0
 3142 0018 B0FA80F0 		clz	r0, r0
 3143 001c 4009     		lsrs	r0, r0, #5
 3144              	.L342:
 3145              		.loc 1 1722 0 discriminator 8
 3146 001e FFF7FEFF 		bl	assert_param
 3147              	.LVL310:
 3148              		.loc 1 1723 0 is_stmt 1 discriminator 8
 3149 0022 40F20523 		movw	r3, #517
 3150 0026 9C42     		cmp	r4, r3
 3151 0028 12D0     		beq	.L348
 3152              		.loc 1 1723 0 is_stmt 0 discriminator 2
 3153 002a B4F5837F 		cmp	r4, #262
 3154 002e 0FD0     		beq	.L348
 3155              		.loc 1 1723 0 discriminator 4
 3156 0030 40F20743 		movw	r3, #1031
 3157 0034 9C42     		cmp	r4, r3
 3158 0036 0BD0     		beq	.L348
 3159              		.loc 1 1723 0 discriminator 6
 3160 0038 42F21A00 		movw	r0, #8218
 3161 003c 201A     		subs	r0, r4, r0
 3162              		.loc 1 1727 0 is_stmt 1 discriminator 6
 3163 003e 6FEA1424 		mvn	r4, r4, lsr #8
 3164              		.loc 1 1723 0 discriminator 6
 3165 0042 B0FA80F0 		clz	r0, r0
 3166 0046 4009     		lsrs	r0, r0, #5
 3167 0048 FFF7FEFF 		bl	assert_param
 3168              	.LVL311:
 3169              		.loc 1 1727 0 discriminator 6
 3170 004c 2C60     		str	r4, [r5]
 3171 004e 38BD     		pop	{r3, r4, r5, pc}
 3172              	.LVL312:
 3173              	.L348:
 3174              		.loc 1 1723 0
 3175 0050 0120     		movs	r0, #1
 3176              		.loc 1 1727 0
 3177 0052 6FEA1424 		mvn	r4, r4, lsr #8
 3178              		.loc 1 1723 0
 3179 0056 FFF7FEFF 		bl	assert_param
 3180              	.LVL313:
 3181              		.loc 1 1727 0
 3182 005a 2C60     		str	r4, [r5]
 3183 005c 38BD     		pop	{r3, r4, r5, pc}
 3184              	.LVL314:
 3185              	.L345:
 3186              		.loc 1 1722 0
 3187 005e 0120     		movs	r0, #1
 3188              	.LVL315:
 3189 0060 DDE7     		b	.L342
 3190              	.L351:
 3191 0062 00BF     		.align	2
 3192              	.L350:
ARM GAS  /var/folders/m4/4md61f0s1_g0rzfghffqnxvr0000gn/T//ccTIFpbg.s 			page 57


 3193 0064 00200140 		.word	1073815552
 3194 0068 00220140 		.word	1073816064
 3195              		.cfi_endproc
 3196              	.LFE160:
 3197              		.size	ADC_ClearITPendingBit, .-ADC_ClearITPendingBit
 3198              		.text
 3199              	.Letext0:
 3200              		.file 2 "/usr/local/Cellar/gcc-arm-none-eabi-49/20150609/arm-none-eabi/include/machine/_default_ty
 3201              		.file 3 "/usr/local/Cellar/gcc-arm-none-eabi-49/20150609/arm-none-eabi/include/sys/_stdint.h"
 3202              		.file 4 "ChibiOS_16.1.4/os/ext/CMSIS/ST/STM32F4xx/stm32f446xx.h"
 3203              		.file 5 "ChibiOS_16.1.4/os/ext/CMSIS/ST/STM32F4xx/stm32f4xx.h"
 3204              		.file 6 "ChibiOS_16.1.4/ext/stdperiph_stm32f4/inc/stm32f4xx_adc.h"
 3205              		.file 7 "ChibiOS_16.1.4/ext/stdperiph_stm32f4/inc/stm32f4xx_rcc.h"
 3206              		.file 8 "ChibiOS_16.1.4/os/ext/CMSIS/include/core_cm4.h"
 3207              		.section	.debug_info,"",%progbits
 3208              	.Ldebug_info0:
 3209 0000 D2140000 		.4byte	0x14d2
 3210 0004 0400     		.2byte	0x4
 3211 0006 00000000 		.4byte	.Ldebug_abbrev0
 3212 000a 04       		.byte	0x4
 3213 000b 01       		.uleb128 0x1
 3214 000c 87070000 		.4byte	.LASF117
 3215 0010 01       		.byte	0x1
 3216 0011 6F060000 		.4byte	.LASF118
 3217 0015 B5000000 		.4byte	.LASF119
 3218 0019 00000000 		.4byte	.Ldebug_ranges0+0
 3219 001d 00000000 		.4byte	0
 3220 0021 00000000 		.4byte	.Ldebug_line0
 3221 0025 02       		.uleb128 0x2
 3222 0026 01       		.byte	0x1
 3223 0027 06       		.byte	0x6
 3224 0028 50070000 		.4byte	.LASF0
 3225 002c 03       		.uleb128 0x3
 3226 002d 9D050000 		.4byte	.LASF3
 3227 0031 02       		.byte	0x2
 3228 0032 1D       		.byte	0x1d
 3229 0033 37000000 		.4byte	0x37
 3230 0037 02       		.uleb128 0x2
 3231 0038 01       		.byte	0x1
 3232 0039 08       		.byte	0x8
 3233 003a 40060000 		.4byte	.LASF1
 3234 003e 02       		.uleb128 0x2
 3235 003f 02       		.byte	0x2
 3236 0040 05       		.byte	0x5
 3237 0041 DA040000 		.4byte	.LASF2
 3238 0045 03       		.uleb128 0x3
 3239 0046 D5010000 		.4byte	.LASF4
 3240 004a 02       		.byte	0x2
 3241 004b 2B       		.byte	0x2b
 3242 004c 50000000 		.4byte	0x50
 3243 0050 02       		.uleb128 0x2
 3244 0051 02       		.byte	0x2
 3245 0052 07       		.byte	0x7
 3246 0053 5C070000 		.4byte	.LASF5
 3247 0057 03       		.uleb128 0x3
 3248 0058 93000000 		.4byte	.LASF6
 3249 005c 02       		.byte	0x2
ARM GAS  /var/folders/m4/4md61f0s1_g0rzfghffqnxvr0000gn/T//ccTIFpbg.s 			page 58


 3250 005d 3F       		.byte	0x3f
 3251 005e 62000000 		.4byte	0x62
 3252 0062 02       		.uleb128 0x2
 3253 0063 04       		.byte	0x4
 3254 0064 05       		.byte	0x5
 3255 0065 F7040000 		.4byte	.LASF7
 3256 0069 03       		.uleb128 0x3
 3257 006a 64060000 		.4byte	.LASF8
 3258 006e 02       		.byte	0x2
 3259 006f 41       		.byte	0x41
 3260 0070 74000000 		.4byte	0x74
 3261 0074 02       		.uleb128 0x2
 3262 0075 04       		.byte	0x4
 3263 0076 07       		.byte	0x7
 3264 0077 F0050000 		.4byte	.LASF9
 3265 007b 02       		.uleb128 0x2
 3266 007c 08       		.byte	0x8
 3267 007d 05       		.byte	0x5
 3268 007e 3A030000 		.4byte	.LASF10
 3269 0082 02       		.uleb128 0x2
 3270 0083 08       		.byte	0x8
 3271 0084 07       		.byte	0x7
 3272 0085 8E010000 		.4byte	.LASF11
 3273 0089 04       		.uleb128 0x4
 3274 008a 04       		.byte	0x4
 3275 008b 05       		.byte	0x5
 3276 008c 696E7400 		.ascii	"int\000"
 3277 0090 02       		.uleb128 0x2
 3278 0091 04       		.byte	0x4
 3279 0092 07       		.byte	0x7
 3280 0093 76000000 		.4byte	.LASF12
 3281 0097 03       		.uleb128 0x3
 3282 0098 FF020000 		.4byte	.LASF13
 3283 009c 03       		.byte	0x3
 3284 009d 14       		.byte	0x14
 3285 009e 2C000000 		.4byte	0x2c
 3286 00a2 03       		.uleb128 0x3
 3287 00a3 7E040000 		.4byte	.LASF14
 3288 00a7 03       		.byte	0x3
 3289 00a8 1A       		.byte	0x1a
 3290 00a9 45000000 		.4byte	0x45
 3291 00ad 03       		.uleb128 0x3
 3292 00ae 1A060000 		.4byte	.LASF15
 3293 00b2 03       		.byte	0x3
 3294 00b3 1F       		.byte	0x1f
 3295 00b4 57000000 		.4byte	0x57
 3296 00b8 03       		.uleb128 0x3
 3297 00b9 22010000 		.4byte	.LASF16
 3298 00bd 03       		.byte	0x3
 3299 00be 20       		.byte	0x20
 3300 00bf 69000000 		.4byte	0x69
 3301 00c3 02       		.uleb128 0x2
 3302 00c4 04       		.byte	0x4
 3303 00c5 07       		.byte	0x7
 3304 00c6 E7050000 		.4byte	.LASF17
 3305 00ca 05       		.uleb128 0x5
 3306 00cb B8000000 		.4byte	0xb8
ARM GAS  /var/folders/m4/4md61f0s1_g0rzfghffqnxvr0000gn/T//ccTIFpbg.s 			page 59


 3307 00cf 06       		.uleb128 0x6
 3308 00d0 50       		.byte	0x50
 3309 00d1 04       		.byte	0x4
 3310 00d2 C8       		.byte	0xc8
 3311 00d3 C6010000 		.4byte	0x1c6
 3312 00d7 07       		.uleb128 0x7
 3313 00d8 535200   		.ascii	"SR\000"
 3314 00db 04       		.byte	0x4
 3315 00dc CA       		.byte	0xca
 3316 00dd CA000000 		.4byte	0xca
 3317 00e1 00       		.byte	0
 3318 00e2 07       		.uleb128 0x7
 3319 00e3 43523100 		.ascii	"CR1\000"
 3320 00e7 04       		.byte	0x4
 3321 00e8 CB       		.byte	0xcb
 3322 00e9 CA000000 		.4byte	0xca
 3323 00ed 04       		.byte	0x4
 3324 00ee 07       		.uleb128 0x7
 3325 00ef 43523200 		.ascii	"CR2\000"
 3326 00f3 04       		.byte	0x4
 3327 00f4 CC       		.byte	0xcc
 3328 00f5 CA000000 		.4byte	0xca
 3329 00f9 08       		.byte	0x8
 3330 00fa 08       		.uleb128 0x8
 3331 00fb 21040000 		.4byte	.LASF18
 3332 00ff 04       		.byte	0x4
 3333 0100 CD       		.byte	0xcd
 3334 0101 CA000000 		.4byte	0xca
 3335 0105 0C       		.byte	0xc
 3336 0106 08       		.uleb128 0x8
 3337 0107 27040000 		.4byte	.LASF19
 3338 010b 04       		.byte	0x4
 3339 010c CE       		.byte	0xce
 3340 010d CA000000 		.4byte	0xca
 3341 0111 10       		.byte	0x10
 3342 0112 08       		.uleb128 0x8
 3343 0113 6F070000 		.4byte	.LASF20
 3344 0117 04       		.byte	0x4
 3345 0118 CF       		.byte	0xcf
 3346 0119 CA000000 		.4byte	0xca
 3347 011d 14       		.byte	0x14
 3348 011e 08       		.uleb128 0x8
 3349 011f 75070000 		.4byte	.LASF21
 3350 0123 04       		.byte	0x4
 3351 0124 D0       		.byte	0xd0
 3352 0125 CA000000 		.4byte	0xca
 3353 0129 18       		.byte	0x18
 3354 012a 08       		.uleb128 0x8
 3355 012b 7B070000 		.4byte	.LASF22
 3356 012f 04       		.byte	0x4
 3357 0130 D1       		.byte	0xd1
 3358 0131 CA000000 		.4byte	0xca
 3359 0135 1C       		.byte	0x1c
 3360 0136 08       		.uleb128 0x8
 3361 0137 81070000 		.4byte	.LASF23
 3362 013b 04       		.byte	0x4
 3363 013c D2       		.byte	0xd2
ARM GAS  /var/folders/m4/4md61f0s1_g0rzfghffqnxvr0000gn/T//ccTIFpbg.s 			page 60


 3364 013d CA000000 		.4byte	0xca
 3365 0141 20       		.byte	0x20
 3366 0142 07       		.uleb128 0x7
 3367 0143 48545200 		.ascii	"HTR\000"
 3368 0147 04       		.byte	0x4
 3369 0148 D3       		.byte	0xd3
 3370 0149 CA000000 		.4byte	0xca
 3371 014d 24       		.byte	0x24
 3372 014e 07       		.uleb128 0x7
 3373 014f 4C545200 		.ascii	"LTR\000"
 3374 0153 04       		.byte	0x4
 3375 0154 D4       		.byte	0xd4
 3376 0155 CA000000 		.4byte	0xca
 3377 0159 28       		.byte	0x28
 3378 015a 08       		.uleb128 0x8
 3379 015b 2B000000 		.4byte	.LASF24
 3380 015f 04       		.byte	0x4
 3381 0160 D5       		.byte	0xd5
 3382 0161 CA000000 		.4byte	0xca
 3383 0165 2C       		.byte	0x2c
 3384 0166 08       		.uleb128 0x8
 3385 0167 30000000 		.4byte	.LASF25
 3386 016b 04       		.byte	0x4
 3387 016c D6       		.byte	0xd6
 3388 016d CA000000 		.4byte	0xca
 3389 0171 30       		.byte	0x30
 3390 0172 08       		.uleb128 0x8
 3391 0173 35000000 		.4byte	.LASF26
 3392 0177 04       		.byte	0x4
 3393 0178 D7       		.byte	0xd7
 3394 0179 CA000000 		.4byte	0xca
 3395 017d 34       		.byte	0x34
 3396 017e 08       		.uleb128 0x8
 3397 017f F9030000 		.4byte	.LASF27
 3398 0183 04       		.byte	0x4
 3399 0184 D8       		.byte	0xd8
 3400 0185 CA000000 		.4byte	0xca
 3401 0189 38       		.byte	0x38
 3402 018a 08       		.uleb128 0x8
 3403 018b A9040000 		.4byte	.LASF28
 3404 018f 04       		.byte	0x4
 3405 0190 D9       		.byte	0xd9
 3406 0191 CA000000 		.4byte	0xca
 3407 0195 3C       		.byte	0x3c
 3408 0196 08       		.uleb128 0x8
 3409 0197 AE040000 		.4byte	.LASF29
 3410 019b 04       		.byte	0x4
 3411 019c DA       		.byte	0xda
 3412 019d CA000000 		.4byte	0xca
 3413 01a1 40       		.byte	0x40
 3414 01a2 08       		.uleb128 0x8
 3415 01a3 B3040000 		.4byte	.LASF30
 3416 01a7 04       		.byte	0x4
 3417 01a8 DB       		.byte	0xdb
 3418 01a9 CA000000 		.4byte	0xca
 3419 01ad 44       		.byte	0x44
 3420 01ae 08       		.uleb128 0x8
ARM GAS  /var/folders/m4/4md61f0s1_g0rzfghffqnxvr0000gn/T//ccTIFpbg.s 			page 61


 3421 01af B8040000 		.4byte	.LASF31
 3422 01b3 04       		.byte	0x4
 3423 01b4 DC       		.byte	0xdc
 3424 01b5 CA000000 		.4byte	0xca
 3425 01b9 48       		.byte	0x48
 3426 01ba 07       		.uleb128 0x7
 3427 01bb 445200   		.ascii	"DR\000"
 3428 01be 04       		.byte	0x4
 3429 01bf DD       		.byte	0xdd
 3430 01c0 CA000000 		.4byte	0xca
 3431 01c4 4C       		.byte	0x4c
 3432 01c5 00       		.byte	0
 3433 01c6 03       		.uleb128 0x3
 3434 01c7 2E030000 		.4byte	.LASF32
 3435 01cb 04       		.byte	0x4
 3436 01cc DE       		.byte	0xde
 3437 01cd CF000000 		.4byte	0xcf
 3438 01d1 06       		.uleb128 0x6
 3439 01d2 0C       		.byte	0xc
 3440 01d3 04       		.byte	0x4
 3441 01d4 E0       		.byte	0xe0
 3442 01d5 FE010000 		.4byte	0x1fe
 3443 01d9 07       		.uleb128 0x7
 3444 01da 43535200 		.ascii	"CSR\000"
 3445 01de 04       		.byte	0x4
 3446 01df E2       		.byte	0xe2
 3447 01e0 CA000000 		.4byte	0xca
 3448 01e4 00       		.byte	0
 3449 01e5 07       		.uleb128 0x7
 3450 01e6 43435200 		.ascii	"CCR\000"
 3451 01ea 04       		.byte	0x4
 3452 01eb E3       		.byte	0xe3
 3453 01ec CA000000 		.4byte	0xca
 3454 01f0 04       		.byte	0x4
 3455 01f1 07       		.uleb128 0x7
 3456 01f2 43445200 		.ascii	"CDR\000"
 3457 01f6 04       		.byte	0x4
 3458 01f7 E4       		.byte	0xe4
 3459 01f8 CA000000 		.4byte	0xca
 3460 01fc 08       		.byte	0x8
 3461 01fd 00       		.byte	0
 3462 01fe 03       		.uleb128 0x3
 3463 01ff E4040000 		.4byte	.LASF33
 3464 0203 04       		.byte	0x4
 3465 0204 E6       		.byte	0xe6
 3466 0205 D1010000 		.4byte	0x1d1
 3467 0209 09       		.uleb128 0x9
 3468 020a 01       		.byte	0x1
 3469 020b 05       		.byte	0x5
 3470 020c B8       		.byte	0xb8
 3471 020d 1E020000 		.4byte	0x21e
 3472 0211 0A       		.uleb128 0xa
 3473 0212 28050000 		.4byte	.LASF34
 3474 0216 00       		.sleb128 0
 3475 0217 0B       		.uleb128 0xb
 3476 0218 53455400 		.ascii	"SET\000"
 3477 021c 01       		.sleb128 1
ARM GAS  /var/folders/m4/4md61f0s1_g0rzfghffqnxvr0000gn/T//ccTIFpbg.s 			page 62


 3478 021d 00       		.byte	0
 3479 021e 03       		.uleb128 0x3
 3480 021f 9D000000 		.4byte	.LASF35
 3481 0223 05       		.byte	0x5
 3482 0224 BB       		.byte	0xbb
 3483 0225 09020000 		.4byte	0x209
 3484 0229 03       		.uleb128 0x3
 3485 022a 3D020000 		.4byte	.LASF36
 3486 022e 05       		.byte	0x5
 3487 022f BB       		.byte	0xbb
 3488 0230 09020000 		.4byte	0x209
 3489 0234 09       		.uleb128 0x9
 3490 0235 01       		.byte	0x1
 3491 0236 05       		.byte	0x5
 3492 0237 BE       		.byte	0xbe
 3493 0238 49020000 		.4byte	0x249
 3494 023c 0A       		.uleb128 0xa
 3495 023d D1020000 		.4byte	.LASF37
 3496 0241 00       		.sleb128 0
 3497 0242 0A       		.uleb128 0xa
 3498 0243 E0050000 		.4byte	.LASF38
 3499 0247 01       		.sleb128 1
 3500 0248 00       		.byte	0
 3501 0249 03       		.uleb128 0x3
 3502 024a 83000000 		.4byte	.LASF39
 3503 024e 05       		.byte	0x5
 3504 024f C1       		.byte	0xc1
 3505 0250 34020000 		.4byte	0x234
 3506 0254 06       		.uleb128 0x6
 3507 0255 18       		.byte	0x18
 3508 0256 06       		.byte	0x6
 3509 0257 35       		.byte	0x35
 3510 0258 B1020000 		.4byte	0x2b1
 3511 025c 08       		.uleb128 0x8
 3512 025d 61030000 		.4byte	.LASF40
 3513 0261 06       		.byte	0x6
 3514 0262 37       		.byte	0x37
 3515 0263 B8000000 		.4byte	0xb8
 3516 0267 00       		.byte	0
 3517 0268 08       		.uleb128 0x8
 3518 0269 BB010000 		.4byte	.LASF41
 3519 026d 06       		.byte	0x6
 3520 026e 39       		.byte	0x39
 3521 026f 49020000 		.4byte	0x249
 3522 0273 04       		.byte	0x4
 3523 0274 08       		.uleb128 0x8
 3524 0275 BA020000 		.4byte	.LASF42
 3525 0279 06       		.byte	0x6
 3526 027a 3D       		.byte	0x3d
 3527 027b 49020000 		.4byte	0x249
 3528 027f 05       		.byte	0x5
 3529 0280 08       		.uleb128 0x8
 3530 0281 48030000 		.4byte	.LASF43
 3531 0285 06       		.byte	0x6
 3532 0286 40       		.byte	0x40
 3533 0287 B8000000 		.4byte	0xb8
 3534 028b 08       		.byte	0x8
ARM GAS  /var/folders/m4/4md61f0s1_g0rzfghffqnxvr0000gn/T//ccTIFpbg.s 			page 63


 3535 028c 08       		.uleb128 0x8
 3536 028d 3B070000 		.4byte	.LASF44
 3537 0291 06       		.byte	0x6
 3538 0292 44       		.byte	0x44
 3539 0293 B8000000 		.4byte	0xb8
 3540 0297 0C       		.byte	0xc
 3541 0298 08       		.uleb128 0x8
 3542 0299 0D050000 		.4byte	.LASF45
 3543 029d 06       		.byte	0x6
 3544 029e 48       		.byte	0x48
 3545 029f B8000000 		.4byte	0xb8
 3546 02a3 10       		.byte	0x10
 3547 02a4 08       		.uleb128 0x8
 3548 02a5 3A000000 		.4byte	.LASF46
 3549 02a9 06       		.byte	0x6
 3550 02aa 4B       		.byte	0x4b
 3551 02ab 97000000 		.4byte	0x97
 3552 02af 14       		.byte	0x14
 3553 02b0 00       		.byte	0
 3554 02b1 03       		.uleb128 0x3
 3555 02b2 1B000000 		.4byte	.LASF47
 3556 02b6 06       		.byte	0x6
 3557 02b7 4F       		.byte	0x4f
 3558 02b8 54020000 		.4byte	0x254
 3559 02bc 06       		.uleb128 0x6
 3560 02bd 10       		.byte	0x10
 3561 02be 06       		.byte	0x6
 3562 02bf 54       		.byte	0x54
 3563 02c0 F5020000 		.4byte	0x2f5
 3564 02c4 08       		.uleb128 0x8
 3565 02c5 44040000 		.4byte	.LASF48
 3566 02c9 06       		.byte	0x6
 3567 02ca 56       		.byte	0x56
 3568 02cb B8000000 		.4byte	0xb8
 3569 02cf 00       		.byte	0
 3570 02d0 08       		.uleb128 0x8
 3571 02d1 CC040000 		.4byte	.LASF49
 3572 02d5 06       		.byte	0x6
 3573 02d6 59       		.byte	0x59
 3574 02d7 B8000000 		.4byte	0xb8
 3575 02db 04       		.byte	0x4
 3576 02dc 08       		.uleb128 0x8
 3577 02dd 1C030000 		.4byte	.LASF50
 3578 02e1 06       		.byte	0x6
 3579 02e2 5C       		.byte	0x5c
 3580 02e3 B8000000 		.4byte	0xb8
 3581 02e7 08       		.byte	0x8
 3582 02e8 08       		.uleb128 0x8
 3583 02e9 E4030000 		.4byte	.LASF51
 3584 02ed 06       		.byte	0x6
 3585 02ee 60       		.byte	0x60
 3586 02ef B8000000 		.4byte	0xb8
 3587 02f3 0C       		.byte	0xc
 3588 02f4 00       		.byte	0
 3589 02f5 03       		.uleb128 0x3
 3590 02f6 C7060000 		.4byte	.LASF52
 3591 02fa 06       		.byte	0x6
ARM GAS  /var/folders/m4/4md61f0s1_g0rzfghffqnxvr0000gn/T//ccTIFpbg.s 			page 64


 3592 02fb 64       		.byte	0x64
 3593 02fc BC020000 		.4byte	0x2bc
 3594 0300 0C       		.uleb128 0xc
 3595 0301 59010000 		.4byte	.LASF53
 3596 0305 01       		.byte	0x1
 3597 0306 D5       		.byte	0xd5
 3598 0307 00000000 		.4byte	.LFB123
 3599 030b 1A000000 		.4byte	.LFE123-.LFB123
 3600 030f 01       		.uleb128 0x1
 3601 0310 9C       		.byte	0x9c
 3602 0311 46030000 		.4byte	0x346
 3603 0315 0D       		.uleb128 0xd
 3604 0316 0C000000 		.4byte	.LVL0
 3605 031a B1140000 		.4byte	0x14b1
 3606 031e 2F030000 		.4byte	0x32f
 3607 0322 0E       		.uleb128 0xe
 3608 0323 01       		.uleb128 0x1
 3609 0324 51       		.byte	0x51
 3610 0325 01       		.uleb128 0x1
 3611 0326 31       		.byte	0x31
 3612 0327 0E       		.uleb128 0xe
 3613 0328 01       		.uleb128 0x1
 3614 0329 50       		.byte	0x50
 3615 032a 03       		.uleb128 0x3
 3616 032b 0A       		.byte	0xa
 3617 032c 0001     		.2byte	0x100
 3618 032e 00       		.byte	0
 3619 032f 0F       		.uleb128 0xf
 3620 0330 1A000000 		.4byte	.LVL1
 3621 0334 B1140000 		.4byte	0x14b1
 3622 0338 0E       		.uleb128 0xe
 3623 0339 01       		.uleb128 0x1
 3624 033a 51       		.byte	0x51
 3625 033b 01       		.uleb128 0x1
 3626 033c 30       		.byte	0x30
 3627 033d 0E       		.uleb128 0xe
 3628 033e 01       		.uleb128 0x1
 3629 033f 50       		.byte	0x50
 3630 0340 03       		.uleb128 0x3
 3631 0341 0A       		.byte	0xa
 3632 0342 0001     		.2byte	0x100
 3633 0344 00       		.byte	0
 3634 0345 00       		.byte	0
 3635 0346 0C       		.uleb128 0xc
 3636 0347 CC010000 		.4byte	.LASF54
 3637 034b 01       		.byte	0x1
 3638 034c EB       		.byte	0xeb
 3639 034d 00000000 		.4byte	.LFB124
 3640 0351 1C010000 		.4byte	.LFE124-.LFB124
 3641 0355 01       		.uleb128 0x1
 3642 0356 9C       		.byte	0x9c
 3643 0357 F1030000 		.4byte	0x3f1
 3644 035b 10       		.uleb128 0x10
 3645 035c 8C030000 		.4byte	.LASF55
 3646 0360 01       		.byte	0x1
 3647 0361 EB       		.byte	0xeb
 3648 0362 F1030000 		.4byte	0x3f1
ARM GAS  /var/folders/m4/4md61f0s1_g0rzfghffqnxvr0000gn/T//ccTIFpbg.s 			page 65


 3649 0366 00000000 		.4byte	.LLST0
 3650 036a 10       		.uleb128 0x10
 3651 036b EC000000 		.4byte	.LASF56
 3652 036f 01       		.byte	0x1
 3653 0370 EB       		.byte	0xeb
 3654 0371 F7030000 		.4byte	0x3f7
 3655 0375 34000000 		.4byte	.LLST1
 3656 0379 11       		.uleb128 0x11
 3657 037a 02060000 		.4byte	.LASF57
 3658 037e 01       		.byte	0x1
 3659 037f ED       		.byte	0xed
 3660 0380 B8000000 		.4byte	0xb8
 3661 0384 68000000 		.4byte	.LLST2
 3662 0388 11       		.uleb128 0x11
 3663 0389 0A060000 		.4byte	.LASF58
 3664 038d 01       		.byte	0x1
 3665 038e EE       		.byte	0xee
 3666 038f 97000000 		.4byte	0x97
 3667 0393 E4000000 		.4byte	.LLST3
 3668 0397 12       		.uleb128 0x12
 3669 0398 1B050000 		.4byte	.LASF62
 3670 039c 01       		.byte	0x1
 3671 039d F0       		.byte	0xf0
 3672 039e 89000000 		.4byte	0x89
 3673 03a2 A8030000 		.4byte	0x3a8
 3674 03a6 13       		.uleb128 0x13
 3675 03a7 00       		.byte	0
 3676 03a8 14       		.uleb128 0x14
 3677 03a9 22000000 		.4byte	.LVL4
 3678 03ad C8140000 		.4byte	0x14c8
 3679 03b1 14       		.uleb128 0x14
 3680 03b2 3A000000 		.4byte	.LVL5
 3681 03b6 C8140000 		.4byte	0x14c8
 3682 03ba 14       		.uleb128 0x14
 3683 03bb 48000000 		.4byte	.LVL6
 3684 03bf C8140000 		.4byte	0x14c8
 3685 03c3 14       		.uleb128 0x14
 3686 03c4 56000000 		.4byte	.LVL7
 3687 03c8 C8140000 		.4byte	0x14c8
 3688 03cc 14       		.uleb128 0x14
 3689 03cd 6C000000 		.4byte	.LVL8
 3690 03d1 C8140000 		.4byte	0x14c8
 3691 03d5 14       		.uleb128 0x14
 3692 03d6 7E000000 		.4byte	.LVL9
 3693 03da C8140000 		.4byte	0x14c8
 3694 03de 14       		.uleb128 0x14
 3695 03df 8E000000 		.4byte	.LVL10
 3696 03e3 C8140000 		.4byte	0x14c8
 3697 03e7 14       		.uleb128 0x14
 3698 03e8 9E000000 		.4byte	.LVL11
 3699 03ec C8140000 		.4byte	0x14c8
 3700 03f0 00       		.byte	0
 3701 03f1 15       		.uleb128 0x15
 3702 03f2 04       		.byte	0x4
 3703 03f3 C6010000 		.4byte	0x1c6
 3704 03f7 15       		.uleb128 0x15
 3705 03f8 04       		.byte	0x4
ARM GAS  /var/folders/m4/4md61f0s1_g0rzfghffqnxvr0000gn/T//ccTIFpbg.s 			page 66


 3706 03f9 B1020000 		.4byte	0x2b1
 3707 03fd 16       		.uleb128 0x16
 3708 03fe BD040000 		.4byte	.LASF59
 3709 0402 01       		.byte	0x1
 3710 0403 3601     		.2byte	0x136
 3711 0405 00000000 		.4byte	.LFB125
 3712 0409 14000000 		.4byte	.LFE125-.LFB125
 3713 040d 01       		.uleb128 0x1
 3714 040e 9C       		.byte	0x9c
 3715 040f 22040000 		.4byte	0x422
 3716 0413 17       		.uleb128 0x17
 3717 0414 EC000000 		.4byte	.LASF56
 3718 0418 01       		.byte	0x1
 3719 0419 3601     		.2byte	0x136
 3720 041b F7030000 		.4byte	0x3f7
 3721 041f 01       		.uleb128 0x1
 3722 0420 50       		.byte	0x50
 3723 0421 00       		.byte	0
 3724 0422 16       		.uleb128 0x16
 3725 0423 70030000 		.4byte	.LASF60
 3726 0427 01       		.byte	0x1
 3727 0428 5501     		.2byte	0x155
 3728 042a 00000000 		.4byte	.LFB126
 3729 042e B0000000 		.4byte	.LFE126-.LFB126
 3730 0432 01       		.uleb128 0x1
 3731 0433 9C       		.byte	0x9c
 3732 0434 8E040000 		.4byte	0x48e
 3733 0438 18       		.uleb128 0x18
 3734 0439 07030000 		.4byte	.LASF61
 3735 043d 01       		.byte	0x1
 3736 043e 5501     		.2byte	0x155
 3737 0440 8E040000 		.4byte	0x48e
 3738 0444 15010000 		.4byte	.LLST4
 3739 0448 19       		.uleb128 0x19
 3740 0449 02060000 		.4byte	.LASF57
 3741 044d 01       		.byte	0x1
 3742 044e 5701     		.2byte	0x157
 3743 0450 B8000000 		.4byte	0xb8
 3744 0454 41010000 		.4byte	.LLST5
 3745 0458 12       		.uleb128 0x12
 3746 0459 1B050000 		.4byte	.LASF62
 3747 045d 01       		.byte	0x1
 3748 045e F0       		.byte	0xf0
 3749 045f 89000000 		.4byte	0x89
 3750 0463 69040000 		.4byte	0x469
 3751 0467 13       		.uleb128 0x13
 3752 0468 00       		.byte	0
 3753 0469 14       		.uleb128 0x14
 3754 046a 2A000000 		.4byte	.LVL30
 3755 046e C8140000 		.4byte	0x14c8
 3756 0472 14       		.uleb128 0x14
 3757 0473 42000000 		.4byte	.LVL31
 3758 0477 C8140000 		.4byte	0x14c8
 3759 047b 14       		.uleb128 0x14
 3760 047c 58000000 		.4byte	.LVL32
 3761 0480 C8140000 		.4byte	0x14c8
 3762 0484 14       		.uleb128 0x14
ARM GAS  /var/folders/m4/4md61f0s1_g0rzfghffqnxvr0000gn/T//ccTIFpbg.s 			page 67


 3763 0485 8C000000 		.4byte	.LVL33
 3764 0489 C8140000 		.4byte	0x14c8
 3765 048d 00       		.byte	0
 3766 048e 15       		.uleb128 0x15
 3767 048f 04       		.byte	0x4
 3768 0490 F5020000 		.4byte	0x2f5
 3769 0494 16       		.uleb128 0x16
 3770 0495 4E000000 		.4byte	.LASF63
 3771 0499 01       		.byte	0x1
 3772 049a 7901     		.2byte	0x179
 3773 049c 00000000 		.4byte	.LFB127
 3774 04a0 0C000000 		.4byte	.LFE127-.LFB127
 3775 04a4 01       		.uleb128 0x1
 3776 04a5 9C       		.byte	0x9c
 3777 04a6 B9040000 		.4byte	0x4b9
 3778 04aa 17       		.uleb128 0x17
 3779 04ab 07030000 		.4byte	.LASF61
 3780 04af 01       		.byte	0x1
 3781 04b0 7901     		.2byte	0x179
 3782 04b2 8E040000 		.4byte	0x48e
 3783 04b6 01       		.uleb128 0x1
 3784 04b7 50       		.byte	0x50
 3785 04b8 00       		.byte	0
 3786 04b9 16       		.uleb128 0x16
 3787 04ba 3B010000 		.4byte	.LASF64
 3788 04be 01       		.byte	0x1
 3789 04bf 8F01     		.2byte	0x18f
 3790 04c1 00000000 		.4byte	.LFB128
 3791 04c5 50000000 		.4byte	.LFE128-.LFB128
 3792 04c9 01       		.uleb128 0x1
 3793 04ca 9C       		.byte	0x9c
 3794 04cb 13050000 		.4byte	0x513
 3795 04cf 18       		.uleb128 0x18
 3796 04d0 8C030000 		.4byte	.LASF55
 3797 04d4 01       		.byte	0x1
 3798 04d5 8F01     		.2byte	0x18f
 3799 04d7 F1030000 		.4byte	0x3f1
 3800 04db 6B010000 		.4byte	.LLST6
 3801 04df 18       		.uleb128 0x18
 3802 04e0 56020000 		.4byte	.LASF65
 3803 04e4 01       		.byte	0x1
 3804 04e5 8F01     		.2byte	0x18f
 3805 04e7 49020000 		.4byte	0x249
 3806 04eb 9F010000 		.4byte	.LLST7
 3807 04ef 12       		.uleb128 0x12
 3808 04f0 1B050000 		.4byte	.LASF62
 3809 04f4 01       		.byte	0x1
 3810 04f5 F0       		.byte	0xf0
 3811 04f6 89000000 		.4byte	0x89
 3812 04fa 00050000 		.4byte	0x500
 3813 04fe 13       		.uleb128 0x13
 3814 04ff 00       		.byte	0
 3815 0500 14       		.uleb128 0x14
 3816 0501 22000000 		.4byte	.LVL40
 3817 0505 C8140000 		.4byte	0x14c8
 3818 0509 14       		.uleb128 0x14
 3819 050a 2E000000 		.4byte	.LVL41
ARM GAS  /var/folders/m4/4md61f0s1_g0rzfghffqnxvr0000gn/T//ccTIFpbg.s 			page 68


 3820 050e C8140000 		.4byte	0x14c8
 3821 0512 00       		.byte	0
 3822 0513 16       		.uleb128 0x16
 3823 0514 43010000 		.4byte	.LASF66
 3824 0518 01       		.byte	0x1
 3825 0519 C701     		.2byte	0x1c7
 3826 051b 00000000 		.4byte	.LFB129
 3827 051f 70000000 		.4byte	.LFE129-.LFB129
 3828 0523 01       		.uleb128 0x1
 3829 0524 9C       		.byte	0x9c
 3830 0525 7D050000 		.4byte	0x57d
 3831 0529 18       		.uleb128 0x18
 3832 052a 8C030000 		.4byte	.LASF55
 3833 052e 01       		.byte	0x1
 3834 052f C701     		.2byte	0x1c7
 3835 0531 F1030000 		.4byte	0x3f1
 3836 0535 CB010000 		.4byte	.LLST8
 3837 0539 18       		.uleb128 0x18
 3838 053a 63000000 		.4byte	.LASF67
 3839 053e 01       		.byte	0x1
 3840 053f C701     		.2byte	0x1c7
 3841 0541 B8000000 		.4byte	0xb8
 3842 0545 FF010000 		.4byte	.LLST9
 3843 0549 19       		.uleb128 0x19
 3844 054a 1E020000 		.4byte	.LASF68
 3845 054e 01       		.byte	0x1
 3846 054f C901     		.2byte	0x1c9
 3847 0551 B8000000 		.4byte	0xb8
 3848 0555 28020000 		.4byte	.LLST10
 3849 0559 12       		.uleb128 0x12
 3850 055a 1B050000 		.4byte	.LASF62
 3851 055e 01       		.byte	0x1
 3852 055f F0       		.byte	0xf0
 3853 0560 89000000 		.4byte	0x89
 3854 0564 6A050000 		.4byte	0x56a
 3855 0568 13       		.uleb128 0x13
 3856 0569 00       		.byte	0
 3857 056a 14       		.uleb128 0x14
 3858 056b 22000000 		.4byte	.LVL47
 3859 056f C8140000 		.4byte	0x14c8
 3860 0573 14       		.uleb128 0x14
 3861 0574 4A000000 		.4byte	.LVL48
 3862 0578 C8140000 		.4byte	0x14c8
 3863 057c 00       		.byte	0
 3864 057d 16       		.uleb128 0x16
 3865 057e 82020000 		.4byte	.LASF69
 3866 0582 01       		.byte	0x1
 3867 0583 E401     		.2byte	0x1e4
 3868 0585 00000000 		.4byte	.LFB130
 3869 0589 54000000 		.4byte	.LFE130-.LFB130
 3870 058d 01       		.uleb128 0x1
 3871 058e 9C       		.byte	0x9c
 3872 058f F0050000 		.4byte	0x5f0
 3873 0593 18       		.uleb128 0x18
 3874 0594 8C030000 		.4byte	.LASF55
 3875 0598 01       		.byte	0x1
 3876 0599 E401     		.2byte	0x1e4
ARM GAS  /var/folders/m4/4md61f0s1_g0rzfghffqnxvr0000gn/T//ccTIFpbg.s 			page 69


 3877 059b F1030000 		.4byte	0x3f1
 3878 059f 5E020000 		.4byte	.LLST11
 3879 05a3 18       		.uleb128 0x18
 3880 05a4 AC020000 		.4byte	.LASF70
 3881 05a8 01       		.byte	0x1
 3882 05a9 E401     		.2byte	0x1e4
 3883 05ab A2000000 		.4byte	0xa2
 3884 05af 92020000 		.4byte	.LLST12
 3885 05b3 18       		.uleb128 0x18
 3886 05b4 7F030000 		.4byte	.LASF71
 3887 05b8 01       		.byte	0x1
 3888 05b9 E501     		.2byte	0x1e5
 3889 05bb A2000000 		.4byte	0xa2
 3890 05bf BE020000 		.4byte	.LLST13
 3891 05c3 12       		.uleb128 0x12
 3892 05c4 1B050000 		.4byte	.LASF62
 3893 05c8 01       		.byte	0x1
 3894 05c9 F0       		.byte	0xf0
 3895 05ca 89000000 		.4byte	0x89
 3896 05ce D4050000 		.4byte	0x5d4
 3897 05d2 13       		.uleb128 0x13
 3898 05d3 00       		.byte	0
 3899 05d4 14       		.uleb128 0x14
 3900 05d5 28000000 		.4byte	.LVL57
 3901 05d9 C8140000 		.4byte	0x14c8
 3902 05dd 14       		.uleb128 0x14
 3903 05de 34000000 		.4byte	.LVL58
 3904 05e2 C8140000 		.4byte	0x14c8
 3905 05e6 14       		.uleb128 0x14
 3906 05e7 40000000 		.4byte	.LVL59
 3907 05eb C8140000 		.4byte	0x14c8
 3908 05ef 00       		.byte	0
 3909 05f0 16       		.uleb128 0x16
 3910 05f1 D9020000 		.4byte	.LASF72
 3911 05f5 01       		.byte	0x1
 3912 05f6 0D02     		.2byte	0x20d
 3913 05f8 00000000 		.4byte	.LFB131
 3914 05fc 48000000 		.4byte	.LFE131-.LFB131
 3915 0600 01       		.uleb128 0x1
 3916 0601 9C       		.byte	0x9c
 3917 0602 5A060000 		.4byte	0x65a
 3918 0606 18       		.uleb128 0x18
 3919 0607 8C030000 		.4byte	.LASF55
 3920 060b 01       		.byte	0x1
 3921 060c 0D02     		.2byte	0x20d
 3922 060e F1030000 		.4byte	0x3f1
 3923 0612 EA020000 		.4byte	.LLST14
 3924 0616 18       		.uleb128 0x18
 3925 0617 D4050000 		.4byte	.LASF73
 3926 061b 01       		.byte	0x1
 3927 061c 0D02     		.2byte	0x20d
 3928 061e 97000000 		.4byte	0x97
 3929 0622 1E030000 		.4byte	.LLST15
 3930 0626 19       		.uleb128 0x19
 3931 0627 1E020000 		.4byte	.LASF68
 3932 062b 01       		.byte	0x1
 3933 062c 0F02     		.2byte	0x20f
ARM GAS  /var/folders/m4/4md61f0s1_g0rzfghffqnxvr0000gn/T//ccTIFpbg.s 			page 70


 3934 062e B8000000 		.4byte	0xb8
 3935 0632 4A030000 		.4byte	.LLST16
 3936 0636 12       		.uleb128 0x12
 3937 0637 1B050000 		.4byte	.LASF62
 3938 063b 01       		.byte	0x1
 3939 063c F0       		.byte	0xf0
 3940 063d 89000000 		.4byte	0x89
 3941 0641 47060000 		.4byte	0x647
 3942 0645 13       		.uleb128 0x13
 3943 0646 00       		.byte	0
 3944 0647 14       		.uleb128 0x14
 3945 0648 22000000 		.4byte	.LVL64
 3946 064c C8140000 		.4byte	0x14c8
 3947 0650 14       		.uleb128 0x14
 3948 0651 2E000000 		.4byte	.LVL65
 3949 0655 C8140000 		.4byte	0x14c8
 3950 0659 00       		.byte	0
 3951 065a 16       		.uleb128 0x16
 3952 065b 91030000 		.4byte	.LASF74
 3953 065f 01       		.byte	0x1
 3954 0660 4D02     		.2byte	0x24d
 3955 0662 00000000 		.4byte	.LFB132
 3956 0666 2C000000 		.4byte	.LFE132-.LFB132
 3957 066a 01       		.uleb128 0x1
 3958 066b 9C       		.byte	0x9c
 3959 066c C6060000 		.4byte	0x6c6
 3960 0670 18       		.uleb128 0x18
 3961 0671 56020000 		.4byte	.LASF65
 3962 0675 01       		.byte	0x1
 3963 0676 4D02     		.2byte	0x24d
 3964 0678 49020000 		.4byte	0x249
 3965 067c 75030000 		.4byte	.LLST17
 3966 0680 12       		.uleb128 0x12
 3967 0681 1B050000 		.4byte	.LASF62
 3968 0685 01       		.byte	0x1
 3969 0686 F0       		.byte	0xf0
 3970 0687 89000000 		.4byte	0x89
 3971 068b 91060000 		.4byte	0x691
 3972 068f 13       		.uleb128 0x13
 3973 0690 00       		.byte	0
 3974 0691 1A       		.uleb128 0x1a
 3975 0692 10000000 		.4byte	.LVL73
 3976 0696 C8140000 		.4byte	0x14c8
 3977 069a 0E       		.uleb128 0xe
 3978 069b 01       		.uleb128 0x1
 3979 069c 50       		.byte	0x50
 3980 069d 26       		.uleb128 0x26
 3981 069e 31       		.byte	0x31
 3982 069f 30       		.byte	0x30
 3983 06a0 74       		.byte	0x74
 3984 06a1 00       		.sleb128 0
 3985 06a2 74       		.byte	0x74
 3986 06a3 00       		.sleb128 0
 3987 06a4 40       		.byte	0x40
 3988 06a5 4B       		.byte	0x4b
 3989 06a6 24       		.byte	0x24
 3990 06a7 22       		.byte	0x22
ARM GAS  /var/folders/m4/4md61f0s1_g0rzfghffqnxvr0000gn/T//ccTIFpbg.s 			page 71


 3991 06a8 0C       		.byte	0xc
 3992 06a9 01000080 		.4byte	0x80000001
 3993 06ad 2B       		.byte	0x2b
 3994 06ae 28       		.byte	0x28
 3995 06af 0100     		.2byte	0x1
 3996 06b1 16       		.byte	0x16
 3997 06b2 13       		.byte	0x13
 3998 06b3 74       		.byte	0x74
 3999 06b4 00       		.sleb128 0
 4000 06b5 40       		.byte	0x40
 4001 06b6 4B       		.byte	0x4b
 4002 06b7 24       		.byte	0x24
 4003 06b8 22       		.byte	0x22
 4004 06b9 0C       		.byte	0xc
 4005 06ba 01000080 		.4byte	0x80000001
 4006 06be 2C       		.byte	0x2c
 4007 06bf 28       		.byte	0x28
 4008 06c0 0100     		.2byte	0x1
 4009 06c2 16       		.byte	0x16
 4010 06c3 13       		.byte	0x13
 4011 06c4 00       		.byte	0
 4012 06c5 00       		.byte	0
 4013 06c6 16       		.uleb128 0x16
 4014 06c7 0F000000 		.4byte	.LASF75
 4015 06cb 01       		.byte	0x1
 4016 06cc 6702     		.2byte	0x267
 4017 06ce 00000000 		.4byte	.LFB133
 4018 06d2 2C000000 		.4byte	.LFE133-.LFB133
 4019 06d6 01       		.uleb128 0x1
 4020 06d7 9C       		.byte	0x9c
 4021 06d8 32070000 		.4byte	0x732
 4022 06dc 18       		.uleb128 0x18
 4023 06dd 56020000 		.4byte	.LASF65
 4024 06e1 01       		.byte	0x1
 4025 06e2 6702     		.2byte	0x267
 4026 06e4 49020000 		.4byte	0x249
 4027 06e8 96030000 		.4byte	.LLST18
 4028 06ec 12       		.uleb128 0x12
 4029 06ed 1B050000 		.4byte	.LASF62
 4030 06f1 01       		.byte	0x1
 4031 06f2 F0       		.byte	0xf0
 4032 06f3 89000000 		.4byte	0x89
 4033 06f7 FD060000 		.4byte	0x6fd
 4034 06fb 13       		.uleb128 0x13
 4035 06fc 00       		.byte	0
 4036 06fd 1A       		.uleb128 0x1a
 4037 06fe 10000000 		.4byte	.LVL76
 4038 0702 C8140000 		.4byte	0x14c8
 4039 0706 0E       		.uleb128 0xe
 4040 0707 01       		.uleb128 0x1
 4041 0708 50       		.byte	0x50
 4042 0709 26       		.uleb128 0x26
 4043 070a 31       		.byte	0x31
 4044 070b 30       		.byte	0x30
 4045 070c 74       		.byte	0x74
 4046 070d 00       		.sleb128 0
 4047 070e 74       		.byte	0x74
ARM GAS  /var/folders/m4/4md61f0s1_g0rzfghffqnxvr0000gn/T//ccTIFpbg.s 			page 72


 4048 070f 00       		.sleb128 0
 4049 0710 40       		.byte	0x40
 4050 0711 4B       		.byte	0x4b
 4051 0712 24       		.byte	0x24
 4052 0713 22       		.byte	0x22
 4053 0714 0C       		.byte	0xc
 4054 0715 01000080 		.4byte	0x80000001
 4055 0719 2B       		.byte	0x2b
 4056 071a 28       		.byte	0x28
 4057 071b 0100     		.2byte	0x1
 4058 071d 16       		.byte	0x16
 4059 071e 13       		.byte	0x13
 4060 071f 74       		.byte	0x74
 4061 0720 00       		.sleb128 0
 4062 0721 40       		.byte	0x40
 4063 0722 4B       		.byte	0x4b
 4064 0723 24       		.byte	0x24
 4065 0724 22       		.byte	0x22
 4066 0725 0C       		.byte	0xc
 4067 0726 01000080 		.4byte	0x80000001
 4068 072a 2C       		.byte	0x2c
 4069 072b 28       		.byte	0x28
 4070 072c 0100     		.2byte	0x1
 4071 072e 16       		.byte	0x16
 4072 072f 13       		.byte	0x13
 4073 0730 00       		.byte	0
 4074 0731 00       		.byte	0
 4075 0732 16       		.uleb128 0x16
 4076 0733 BA080000 		.4byte	.LASF76
 4077 0737 01       		.byte	0x1
 4078 0738 CB02     		.2byte	0x2cb
 4079 073a 00000000 		.4byte	.LFB134
 4080 073e F0000000 		.4byte	.LFE134-.LFB134
 4081 0742 01       		.uleb128 0x1
 4082 0743 9C       		.byte	0x9c
 4083 0744 16080000 		.4byte	0x816
 4084 0748 18       		.uleb128 0x18
 4085 0749 8C030000 		.4byte	.LASF55
 4086 074d 01       		.byte	0x1
 4087 074e CB02     		.2byte	0x2cb
 4088 0750 F1030000 		.4byte	0x3f1
 4089 0754 B7030000 		.4byte	.LLST19
 4090 0758 18       		.uleb128 0x18
 4091 0759 D4050000 		.4byte	.LASF73
 4092 075d 01       		.byte	0x1
 4093 075e CB02     		.2byte	0x2cb
 4094 0760 97000000 		.4byte	0x97
 4095 0764 EB030000 		.4byte	.LLST20
 4096 0768 18       		.uleb128 0x18
 4097 0769 A4040000 		.4byte	.LASF77
 4098 076d 01       		.byte	0x1
 4099 076e CB02     		.2byte	0x2cb
 4100 0770 97000000 		.4byte	0x97
 4101 0774 17040000 		.4byte	.LLST21
 4102 0778 18       		.uleb128 0x18
 4103 0779 00000000 		.4byte	.LASF78
 4104 077d 01       		.byte	0x1
ARM GAS  /var/folders/m4/4md61f0s1_g0rzfghffqnxvr0000gn/T//ccTIFpbg.s 			page 73


 4105 077e CB02     		.2byte	0x2cb
 4106 0780 97000000 		.4byte	0x97
 4107 0784 43040000 		.4byte	.LLST22
 4108 0788 19       		.uleb128 0x19
 4109 0789 02060000 		.4byte	.LASF57
 4110 078d 01       		.byte	0x1
 4111 078e CD02     		.2byte	0x2cd
 4112 0790 B8000000 		.4byte	0xb8
 4113 0794 64040000 		.4byte	.LLST23
 4114 0798 19       		.uleb128 0x19
 4115 0799 0A060000 		.4byte	.LASF58
 4116 079d 01       		.byte	0x1
 4117 079e CD02     		.2byte	0x2cd
 4118 07a0 B8000000 		.4byte	0xb8
 4119 07a4 40050000 		.4byte	.LLST24
 4120 07a8 12       		.uleb128 0x12
 4121 07a9 1B050000 		.4byte	.LASF62
 4122 07ad 01       		.byte	0x1
 4123 07ae F0       		.byte	0xf0
 4124 07af 89000000 		.4byte	0x89
 4125 07b3 B9070000 		.4byte	0x7b9
 4126 07b7 13       		.uleb128 0x13
 4127 07b8 00       		.byte	0
 4128 07b9 14       		.uleb128 0x14
 4129 07ba 28000000 		.4byte	.LVL80
 4130 07be C8140000 		.4byte	0x14c8
 4131 07c2 14       		.uleb128 0x14
 4132 07c3 38000000 		.4byte	.LVL81
 4133 07c7 C8140000 		.4byte	0x14c8
 4134 07cb 0D       		.uleb128 0xd
 4135 07cc 48000000 		.4byte	.LVL82
 4136 07d0 C8140000 		.4byte	0x14c8
 4137 07d4 0C080000 		.4byte	0x80c
 4138 07d8 0E       		.uleb128 0xe
 4139 07d9 01       		.uleb128 0x1
 4140 07da 50       		.byte	0x50
 4141 07db 2F       		.uleb128 0x2f
 4142 07dc 31       		.byte	0x31
 4143 07dd 30       		.byte	0x30
 4144 07de 78       		.byte	0x78
 4145 07df 00       		.sleb128 0
 4146 07e0 08       		.byte	0x8
 4147 07e1 FF       		.byte	0xff
 4148 07e2 1A       		.byte	0x1a
 4149 07e3 78       		.byte	0x78
 4150 07e4 00       		.sleb128 0
 4151 07e5 08       		.byte	0x8
 4152 07e6 FF       		.byte	0xff
 4153 07e7 1A       		.byte	0x1a
 4154 07e8 40       		.byte	0x40
 4155 07e9 4B       		.byte	0x4b
 4156 07ea 24       		.byte	0x24
 4157 07eb 22       		.byte	0x22
 4158 07ec 0C       		.byte	0xc
 4159 07ed 0F000080 		.4byte	0x8000000f
 4160 07f1 2B       		.byte	0x2b
 4161 07f2 28       		.byte	0x28
ARM GAS  /var/folders/m4/4md61f0s1_g0rzfghffqnxvr0000gn/T//ccTIFpbg.s 			page 74


 4162 07f3 0100     		.2byte	0x1
 4163 07f5 16       		.byte	0x16
 4164 07f6 13       		.byte	0x13
 4165 07f7 78       		.byte	0x78
 4166 07f8 00       		.sleb128 0
 4167 07f9 08       		.byte	0x8
 4168 07fa FF       		.byte	0xff
 4169 07fb 1A       		.byte	0x1a
 4170 07fc 40       		.byte	0x40
 4171 07fd 4B       		.byte	0x4b
 4172 07fe 24       		.byte	0x24
 4173 07ff 22       		.byte	0x22
 4174 0800 0C       		.byte	0xc
 4175 0801 0F000080 		.4byte	0x8000000f
 4176 0805 2C       		.byte	0x2c
 4177 0806 28       		.byte	0x28
 4178 0807 0100     		.2byte	0x1
 4179 0809 16       		.byte	0x16
 4180 080a 13       		.byte	0x13
 4181 080b 00       		.byte	0
 4182 080c 14       		.uleb128 0x14
 4183 080d 54000000 		.4byte	.LVL83
 4184 0811 C8140000 		.4byte	0x14c8
 4185 0815 00       		.byte	0
 4186 0816 16       		.uleb128 0x16
 4187 0817 8E040000 		.4byte	.LASF79
 4188 081b 01       		.byte	0x1
 4189 081c 4303     		.2byte	0x343
 4190 081e 00000000 		.4byte	.LFB135
 4191 0822 38000000 		.4byte	.LFE135-.LFB135
 4192 0826 01       		.uleb128 0x1
 4193 0827 9C       		.byte	0x9c
 4194 0828 57080000 		.4byte	0x857
 4195 082c 18       		.uleb128 0x18
 4196 082d 8C030000 		.4byte	.LASF55
 4197 0831 01       		.byte	0x1
 4198 0832 4303     		.2byte	0x343
 4199 0834 F1030000 		.4byte	0x3f1
 4200 0838 EE050000 		.4byte	.LLST25
 4201 083c 12       		.uleb128 0x12
 4202 083d 1B050000 		.4byte	.LASF62
 4203 0841 01       		.byte	0x1
 4204 0842 F0       		.byte	0xf0
 4205 0843 89000000 		.4byte	0x89
 4206 0847 4D080000 		.4byte	0x84d
 4207 084b 13       		.uleb128 0x13
 4208 084c 00       		.byte	0
 4209 084d 14       		.uleb128 0x14
 4210 084e 20000000 		.4byte	.LVL110
 4211 0852 C8140000 		.4byte	0x14c8
 4212 0856 00       		.byte	0
 4213 0857 1B       		.uleb128 0x1b
 4214 0858 5F040000 		.4byte	.LASF86
 4215 085c 01       		.byte	0x1
 4216 085d 5103     		.2byte	0x351
 4217 085f 1E020000 		.4byte	0x21e
 4218 0863 00000000 		.4byte	.LFB136
ARM GAS  /var/folders/m4/4md61f0s1_g0rzfghffqnxvr0000gn/T//ccTIFpbg.s 			page 75


 4219 0867 40000000 		.4byte	.LFE136-.LFB136
 4220 086b 01       		.uleb128 0x1
 4221 086c 9C       		.byte	0x9c
 4222 086d CC080000 		.4byte	0x8cc
 4223 0871 18       		.uleb128 0x18
 4224 0872 8C030000 		.4byte	.LASF55
 4225 0876 01       		.byte	0x1
 4226 0877 5103     		.2byte	0x351
 4227 0879 F1030000 		.4byte	0x3f1
 4228 087d 22060000 		.4byte	.LLST26
 4229 0881 19       		.uleb128 0x19
 4230 0882 A9080000 		.4byte	.LASF80
 4231 0886 01       		.byte	0x1
 4232 0887 5303     		.2byte	0x353
 4233 0889 1E020000 		.4byte	0x21e
 4234 088d 64060000 		.4byte	.LLST27
 4235 0891 12       		.uleb128 0x12
 4236 0892 1B050000 		.4byte	.LASF62
 4237 0896 01       		.byte	0x1
 4238 0897 F0       		.byte	0xf0
 4239 0898 89000000 		.4byte	0x89
 4240 089c A2080000 		.4byte	0x8a2
 4241 08a0 13       		.uleb128 0x13
 4242 08a1 00       		.byte	0
 4243 08a2 0D       		.uleb128 0xd
 4244 08a3 20000000 		.4byte	.LVL115
 4245 08a7 C8140000 		.4byte	0x14c8
 4246 08ab BC080000 		.4byte	0x8bc
 4247 08af 0E       		.uleb128 0xe
 4248 08b0 01       		.uleb128 0x1
 4249 08b1 50       		.byte	0x50
 4250 08b2 08       		.uleb128 0x8
 4251 08b3 74       		.byte	0x74
 4252 08b4 00       		.sleb128 0
 4253 08b5 0C       		.byte	0xc
 4254 08b6 00220140 		.4byte	0x40012200
 4255 08ba 29       		.byte	0x29
 4256 08bb 00       		.byte	0
 4257 08bc 1A       		.uleb128 0x1a
 4258 08bd 2E000000 		.4byte	.LVL120
 4259 08c1 C8140000 		.4byte	0x14c8
 4260 08c5 0E       		.uleb128 0xe
 4261 08c6 01       		.uleb128 0x1
 4262 08c7 50       		.byte	0x50
 4263 08c8 01       		.uleb128 0x1
 4264 08c9 31       		.byte	0x31
 4265 08ca 00       		.byte	0
 4266 08cb 00       		.byte	0
 4267 08cc 16       		.uleb128 0x16
 4268 08cd A8060000 		.4byte	.LASF81
 4269 08d1 01       		.byte	0x1
 4270 08d2 6F03     		.2byte	0x36f
 4271 08d4 00000000 		.4byte	.LFB137
 4272 08d8 50000000 		.4byte	.LFE137-.LFB137
 4273 08dc 01       		.uleb128 0x1
 4274 08dd 9C       		.byte	0x9c
 4275 08de 26090000 		.4byte	0x926
ARM GAS  /var/folders/m4/4md61f0s1_g0rzfghffqnxvr0000gn/T//ccTIFpbg.s 			page 76


 4276 08e2 18       		.uleb128 0x18
 4277 08e3 8C030000 		.4byte	.LASF55
 4278 08e7 01       		.byte	0x1
 4279 08e8 6F03     		.2byte	0x36f
 4280 08ea F1030000 		.4byte	0x3f1
 4281 08ee AA060000 		.4byte	.LLST28
 4282 08f2 18       		.uleb128 0x18
 4283 08f3 56020000 		.4byte	.LASF65
 4284 08f7 01       		.byte	0x1
 4285 08f8 6F03     		.2byte	0x36f
 4286 08fa 49020000 		.4byte	0x249
 4287 08fe DE060000 		.4byte	.LLST29
 4288 0902 12       		.uleb128 0x12
 4289 0903 1B050000 		.4byte	.LASF62
 4290 0907 01       		.byte	0x1
 4291 0908 F0       		.byte	0xf0
 4292 0909 89000000 		.4byte	0x89
 4293 090d 13090000 		.4byte	0x913
 4294 0911 13       		.uleb128 0x13
 4295 0912 00       		.byte	0
 4296 0913 14       		.uleb128 0x14
 4297 0914 22000000 		.4byte	.LVL126
 4298 0918 C8140000 		.4byte	0x14c8
 4299 091c 14       		.uleb128 0x14
 4300 091d 2E000000 		.4byte	.LVL127
 4301 0921 C8140000 		.4byte	0x14c8
 4302 0925 00       		.byte	0
 4303 0926 16       		.uleb128 0x16
 4304 0927 4E060000 		.4byte	.LASF82
 4305 092b 01       		.byte	0x1
 4306 092c 8803     		.2byte	0x388
 4307 092e 00000000 		.4byte	.LFB138
 4308 0932 50000000 		.4byte	.LFE138-.LFB138
 4309 0936 01       		.uleb128 0x1
 4310 0937 9C       		.byte	0x9c
 4311 0938 80090000 		.4byte	0x980
 4312 093c 18       		.uleb128 0x18
 4313 093d 8C030000 		.4byte	.LASF55
 4314 0941 01       		.byte	0x1
 4315 0942 8803     		.2byte	0x388
 4316 0944 F1030000 		.4byte	0x3f1
 4317 0948 0A070000 		.4byte	.LLST30
 4318 094c 18       		.uleb128 0x18
 4319 094d 56020000 		.4byte	.LASF65
 4320 0951 01       		.byte	0x1
 4321 0952 8803     		.2byte	0x388
 4322 0954 49020000 		.4byte	0x249
 4323 0958 3E070000 		.4byte	.LLST31
 4324 095c 12       		.uleb128 0x12
 4325 095d 1B050000 		.4byte	.LASF62
 4326 0961 01       		.byte	0x1
 4327 0962 F0       		.byte	0xf0
 4328 0963 89000000 		.4byte	0x89
 4329 0967 6D090000 		.4byte	0x96d
 4330 096b 13       		.uleb128 0x13
 4331 096c 00       		.byte	0
 4332 096d 14       		.uleb128 0x14
ARM GAS  /var/folders/m4/4md61f0s1_g0rzfghffqnxvr0000gn/T//ccTIFpbg.s 			page 77


 4333 096e 22000000 		.4byte	.LVL133
 4334 0972 C8140000 		.4byte	0x14c8
 4335 0976 14       		.uleb128 0x14
 4336 0977 2E000000 		.4byte	.LVL134
 4337 097b C8140000 		.4byte	0x14c8
 4338 097f 00       		.byte	0
 4339 0980 16       		.uleb128 0x16
 4340 0981 66050000 		.4byte	.LASF83
 4341 0985 01       		.byte	0x1
 4342 0986 A203     		.2byte	0x3a2
 4343 0988 00000000 		.4byte	.LFB139
 4344 098c 4C000000 		.4byte	.LFE139-.LFB139
 4345 0990 01       		.uleb128 0x1
 4346 0991 9C       		.byte	0x9c
 4347 0992 2E0A0000 		.4byte	0xa2e
 4348 0996 18       		.uleb128 0x18
 4349 0997 8C030000 		.4byte	.LASF55
 4350 099b 01       		.byte	0x1
 4351 099c A203     		.2byte	0x3a2
 4352 099e F1030000 		.4byte	0x3f1
 4353 09a2 6A070000 		.4byte	.LLST32
 4354 09a6 18       		.uleb128 0x18
 4355 09a7 4F020000 		.4byte	.LASF84
 4356 09ab 01       		.byte	0x1
 4357 09ac A203     		.2byte	0x3a2
 4358 09ae 97000000 		.4byte	0x97
 4359 09b2 9E070000 		.4byte	.LLST33
 4360 09b6 19       		.uleb128 0x19
 4361 09b7 02060000 		.4byte	.LASF57
 4362 09bb 01       		.byte	0x1
 4363 09bc A403     		.2byte	0x3a4
 4364 09be B8000000 		.4byte	0xb8
 4365 09c2 CA070000 		.4byte	.LLST34
 4366 09c6 19       		.uleb128 0x19
 4367 09c7 0A060000 		.4byte	.LASF58
 4368 09cb 01       		.byte	0x1
 4369 09cc A503     		.2byte	0x3a5
 4370 09ce B8000000 		.4byte	0xb8
 4371 09d2 F5070000 		.4byte	.LLST35
 4372 09d6 12       		.uleb128 0x12
 4373 09d7 1B050000 		.4byte	.LASF62
 4374 09db 01       		.byte	0x1
 4375 09dc F0       		.byte	0xf0
 4376 09dd 89000000 		.4byte	0x89
 4377 09e1 E7090000 		.4byte	0x9e7
 4378 09e5 13       		.uleb128 0x13
 4379 09e6 00       		.byte	0
 4380 09e7 14       		.uleb128 0x14
 4381 09e8 22000000 		.4byte	.LVL140
 4382 09ec C8140000 		.4byte	0x14c8
 4383 09f0 1A       		.uleb128 0x1a
 4384 09f1 30000000 		.4byte	.LVL141
 4385 09f5 C8140000 		.4byte	0x14c8
 4386 09f9 0E       		.uleb128 0xe
 4387 09fa 01       		.uleb128 0x1
 4388 09fb 50       		.byte	0x50
 4389 09fc 2F       		.uleb128 0x2f
ARM GAS  /var/folders/m4/4md61f0s1_g0rzfghffqnxvr0000gn/T//ccTIFpbg.s 			page 78


 4390 09fd 31       		.byte	0x31
 4391 09fe 30       		.byte	0x30
 4392 09ff 75       		.byte	0x75
 4393 0a00 00       		.sleb128 0
 4394 0a01 08       		.byte	0x8
 4395 0a02 FF       		.byte	0xff
 4396 0a03 1A       		.byte	0x1a
 4397 0a04 75       		.byte	0x75
 4398 0a05 00       		.sleb128 0
 4399 0a06 08       		.byte	0x8
 4400 0a07 FF       		.byte	0xff
 4401 0a08 1A       		.byte	0x1a
 4402 0a09 40       		.byte	0x40
 4403 0a0a 4B       		.byte	0x4b
 4404 0a0b 24       		.byte	0x24
 4405 0a0c 22       		.byte	0x22
 4406 0a0d 0C       		.byte	0xc
 4407 0a0e 07000080 		.4byte	0x80000007
 4408 0a12 2B       		.byte	0x2b
 4409 0a13 28       		.byte	0x28
 4410 0a14 0100     		.2byte	0x1
 4411 0a16 16       		.byte	0x16
 4412 0a17 13       		.byte	0x13
 4413 0a18 75       		.byte	0x75
 4414 0a19 00       		.sleb128 0
 4415 0a1a 08       		.byte	0x8
 4416 0a1b FF       		.byte	0xff
 4417 0a1c 1A       		.byte	0x1a
 4418 0a1d 40       		.byte	0x40
 4419 0a1e 4B       		.byte	0x4b
 4420 0a1f 24       		.byte	0x24
 4421 0a20 22       		.byte	0x22
 4422 0a21 0C       		.byte	0xc
 4423 0a22 07000080 		.4byte	0x80000007
 4424 0a26 2C       		.byte	0x2c
 4425 0a27 28       		.byte	0x28
 4426 0a28 0100     		.2byte	0x1
 4427 0a2a 16       		.byte	0x16
 4428 0a2b 13       		.byte	0x13
 4429 0a2c 00       		.byte	0
 4430 0a2d 00       		.byte	0
 4431 0a2e 16       		.uleb128 0x16
 4432 0a2f 2B070000 		.4byte	.LASF85
 4433 0a33 01       		.byte	0x1
 4434 0a34 C203     		.2byte	0x3c2
 4435 0a36 00000000 		.4byte	.LFB140
 4436 0a3a 50000000 		.4byte	.LFE140-.LFB140
 4437 0a3e 01       		.uleb128 0x1
 4438 0a3f 9C       		.byte	0x9c
 4439 0a40 880A0000 		.4byte	0xa88
 4440 0a44 18       		.uleb128 0x18
 4441 0a45 8C030000 		.4byte	.LASF55
 4442 0a49 01       		.byte	0x1
 4443 0a4a C203     		.2byte	0x3c2
 4444 0a4c F1030000 		.4byte	0x3f1
 4445 0a50 27080000 		.4byte	.LLST36
 4446 0a54 18       		.uleb128 0x18
ARM GAS  /var/folders/m4/4md61f0s1_g0rzfghffqnxvr0000gn/T//ccTIFpbg.s 			page 79


 4447 0a55 56020000 		.4byte	.LASF65
 4448 0a59 01       		.byte	0x1
 4449 0a5a C203     		.2byte	0x3c2
 4450 0a5c 49020000 		.4byte	0x249
 4451 0a60 5B080000 		.4byte	.LLST37
 4452 0a64 12       		.uleb128 0x12
 4453 0a65 1B050000 		.4byte	.LASF62
 4454 0a69 01       		.byte	0x1
 4455 0a6a F0       		.byte	0xf0
 4456 0a6b 89000000 		.4byte	0x89
 4457 0a6f 750A0000 		.4byte	0xa75
 4458 0a73 13       		.uleb128 0x13
 4459 0a74 00       		.byte	0
 4460 0a75 14       		.uleb128 0x14
 4461 0a76 22000000 		.4byte	.LVL149
 4462 0a7a C8140000 		.4byte	0x14c8
 4463 0a7e 14       		.uleb128 0x14
 4464 0a7f 2E000000 		.4byte	.LVL150
 4465 0a83 C8140000 		.4byte	0x14c8
 4466 0a87 00       		.byte	0
 4467 0a88 1B       		.uleb128 0x1b
 4468 0a89 D3080000 		.4byte	.LASF87
 4469 0a8d 01       		.byte	0x1
 4470 0a8e D903     		.2byte	0x3d9
 4471 0a90 A2000000 		.4byte	0xa2
 4472 0a94 00000000 		.4byte	.LFB141
 4473 0a98 3C000000 		.4byte	.LFE141-.LFB141
 4474 0a9c 01       		.uleb128 0x1
 4475 0a9d 9C       		.byte	0x9c
 4476 0a9e ED0A0000 		.4byte	0xaed
 4477 0aa2 18       		.uleb128 0x18
 4478 0aa3 8C030000 		.4byte	.LASF55
 4479 0aa7 01       		.byte	0x1
 4480 0aa8 D903     		.2byte	0x3d9
 4481 0aaa F1030000 		.4byte	0x3f1
 4482 0aae 87080000 		.4byte	.LLST38
 4483 0ab2 12       		.uleb128 0x12
 4484 0ab3 1B050000 		.4byte	.LASF62
 4485 0ab7 01       		.byte	0x1
 4486 0ab8 F0       		.byte	0xf0
 4487 0ab9 89000000 		.4byte	0x89
 4488 0abd C30A0000 		.4byte	0xac3
 4489 0ac1 13       		.uleb128 0x13
 4490 0ac2 00       		.byte	0
 4491 0ac3 0D       		.uleb128 0xd
 4492 0ac4 20000000 		.4byte	.LVL156
 4493 0ac8 C8140000 		.4byte	0x14c8
 4494 0acc DD0A0000 		.4byte	0xadd
 4495 0ad0 0E       		.uleb128 0xe
 4496 0ad1 01       		.uleb128 0x1
 4497 0ad2 50       		.byte	0x50
 4498 0ad3 08       		.uleb128 0x8
 4499 0ad4 74       		.byte	0x74
 4500 0ad5 00       		.sleb128 0
 4501 0ad6 0C       		.byte	0xc
 4502 0ad7 00220140 		.4byte	0x40012200
 4503 0adb 29       		.byte	0x29
ARM GAS  /var/folders/m4/4md61f0s1_g0rzfghffqnxvr0000gn/T//ccTIFpbg.s 			page 80


 4504 0adc 00       		.byte	0
 4505 0add 1A       		.uleb128 0x1a
 4506 0ade 2C000000 		.4byte	.LVL159
 4507 0ae2 C8140000 		.4byte	0x14c8
 4508 0ae6 0E       		.uleb128 0xe
 4509 0ae7 01       		.uleb128 0x1
 4510 0ae8 50       		.byte	0x50
 4511 0ae9 01       		.uleb128 0x1
 4512 0aea 31       		.byte	0x31
 4513 0aeb 00       		.byte	0
 4514 0aec 00       		.byte	0
 4515 0aed 1C       		.uleb128 0x1c
 4516 0aee AA030000 		.4byte	.LASF120
 4517 0af2 01       		.byte	0x1
 4518 0af3 EE03     		.2byte	0x3ee
 4519 0af5 B8000000 		.4byte	0xb8
 4520 0af9 00000000 		.4byte	.LFB142
 4521 0afd 0C000000 		.4byte	.LFE142-.LFB142
 4522 0b01 01       		.uleb128 0x1
 4523 0b02 9C       		.byte	0x9c
 4524 0b03 16       		.uleb128 0x16
 4525 0b04 E1000000 		.4byte	.LASF88
 4526 0b08 01       		.byte	0x1
 4527 0b09 1C04     		.2byte	0x41c
 4528 0b0b 00000000 		.4byte	.LFB143
 4529 0b0f 50000000 		.4byte	.LFE143-.LFB143
 4530 0b13 01       		.uleb128 0x1
 4531 0b14 9C       		.byte	0x9c
 4532 0b15 5D0B0000 		.4byte	0xb5d
 4533 0b19 18       		.uleb128 0x18
 4534 0b1a 8C030000 		.4byte	.LASF55
 4535 0b1e 01       		.byte	0x1
 4536 0b1f 1C04     		.2byte	0x41c
 4537 0b21 F1030000 		.4byte	0x3f1
 4538 0b25 C9080000 		.4byte	.LLST39
 4539 0b29 18       		.uleb128 0x18
 4540 0b2a 56020000 		.4byte	.LASF65
 4541 0b2e 01       		.byte	0x1
 4542 0b2f 1C04     		.2byte	0x41c
 4543 0b31 49020000 		.4byte	0x249
 4544 0b35 FD080000 		.4byte	.LLST40
 4545 0b39 12       		.uleb128 0x12
 4546 0b3a 1B050000 		.4byte	.LASF62
 4547 0b3e 01       		.byte	0x1
 4548 0b3f F0       		.byte	0xf0
 4549 0b40 89000000 		.4byte	0x89
 4550 0b44 4A0B0000 		.4byte	0xb4a
 4551 0b48 13       		.uleb128 0x13
 4552 0b49 00       		.byte	0
 4553 0b4a 14       		.uleb128 0x14
 4554 0b4b 22000000 		.4byte	.LVL163
 4555 0b4f C8140000 		.4byte	0x14c8
 4556 0b53 14       		.uleb128 0x14
 4557 0b54 2E000000 		.4byte	.LVL164
 4558 0b58 C8140000 		.4byte	0x14c8
 4559 0b5c 00       		.byte	0
 4560 0b5d 16       		.uleb128 0x16
ARM GAS  /var/folders/m4/4md61f0s1_g0rzfghffqnxvr0000gn/T//ccTIFpbg.s 			page 81


 4561 0b5e FB010000 		.4byte	.LASF89
 4562 0b62 01       		.byte	0x1
 4563 0b63 3404     		.2byte	0x434
 4564 0b65 00000000 		.4byte	.LFB144
 4565 0b69 50000000 		.4byte	.LFE144-.LFB144
 4566 0b6d 01       		.uleb128 0x1
 4567 0b6e 9C       		.byte	0x9c
 4568 0b6f B70B0000 		.4byte	0xbb7
 4569 0b73 18       		.uleb128 0x18
 4570 0b74 8C030000 		.4byte	.LASF55
 4571 0b78 01       		.byte	0x1
 4572 0b79 3404     		.2byte	0x434
 4573 0b7b F1030000 		.4byte	0x3f1
 4574 0b7f 29090000 		.4byte	.LLST41
 4575 0b83 18       		.uleb128 0x18
 4576 0b84 56020000 		.4byte	.LASF65
 4577 0b88 01       		.byte	0x1
 4578 0b89 3404     		.2byte	0x434
 4579 0b8b 49020000 		.4byte	0x249
 4580 0b8f 5D090000 		.4byte	.LLST42
 4581 0b93 12       		.uleb128 0x12
 4582 0b94 1B050000 		.4byte	.LASF62
 4583 0b98 01       		.byte	0x1
 4584 0b99 F0       		.byte	0xf0
 4585 0b9a 89000000 		.4byte	0x89
 4586 0b9e A40B0000 		.4byte	0xba4
 4587 0ba2 13       		.uleb128 0x13
 4588 0ba3 00       		.byte	0
 4589 0ba4 14       		.uleb128 0x14
 4590 0ba5 22000000 		.4byte	.LVL170
 4591 0ba9 C8140000 		.4byte	0x14c8
 4592 0bad 14       		.uleb128 0x14
 4593 0bae 2E000000 		.4byte	.LVL171
 4594 0bb2 C8140000 		.4byte	0x14c8
 4595 0bb6 00       		.byte	0
 4596 0bb7 16       		.uleb128 0x16
 4597 0bb8 FF060000 		.4byte	.LASF90
 4598 0bbc 01       		.byte	0x1
 4599 0bbd 4F04     		.2byte	0x44f
 4600 0bbf 00000000 		.4byte	.LFB145
 4601 0bc3 2C000000 		.4byte	.LFE145-.LFB145
 4602 0bc7 01       		.uleb128 0x1
 4603 0bc8 9C       		.byte	0x9c
 4604 0bc9 230C0000 		.4byte	0xc23
 4605 0bcd 18       		.uleb128 0x18
 4606 0bce 56020000 		.4byte	.LASF65
 4607 0bd2 01       		.byte	0x1
 4608 0bd3 4F04     		.2byte	0x44f
 4609 0bd5 49020000 		.4byte	0x249
 4610 0bd9 89090000 		.4byte	.LLST43
 4611 0bdd 12       		.uleb128 0x12
 4612 0bde 1B050000 		.4byte	.LASF62
 4613 0be2 01       		.byte	0x1
 4614 0be3 F0       		.byte	0xf0
 4615 0be4 89000000 		.4byte	0x89
 4616 0be8 EE0B0000 		.4byte	0xbee
 4617 0bec 13       		.uleb128 0x13
ARM GAS  /var/folders/m4/4md61f0s1_g0rzfghffqnxvr0000gn/T//ccTIFpbg.s 			page 82


 4618 0bed 00       		.byte	0
 4619 0bee 1A       		.uleb128 0x1a
 4620 0bef 10000000 		.4byte	.LVL177
 4621 0bf3 C8140000 		.4byte	0x14c8
 4622 0bf7 0E       		.uleb128 0xe
 4623 0bf8 01       		.uleb128 0x1
 4624 0bf9 50       		.byte	0x50
 4625 0bfa 26       		.uleb128 0x26
 4626 0bfb 31       		.byte	0x31
 4627 0bfc 30       		.byte	0x30
 4628 0bfd 74       		.byte	0x74
 4629 0bfe 00       		.sleb128 0
 4630 0bff 74       		.byte	0x74
 4631 0c00 00       		.sleb128 0
 4632 0c01 40       		.byte	0x40
 4633 0c02 4B       		.byte	0x4b
 4634 0c03 24       		.byte	0x24
 4635 0c04 22       		.byte	0x22
 4636 0c05 0C       		.byte	0xc
 4637 0c06 01000080 		.4byte	0x80000001
 4638 0c0a 2B       		.byte	0x2b
 4639 0c0b 28       		.byte	0x28
 4640 0c0c 0100     		.2byte	0x1
 4641 0c0e 16       		.byte	0x16
 4642 0c0f 13       		.byte	0x13
 4643 0c10 74       		.byte	0x74
 4644 0c11 00       		.sleb128 0
 4645 0c12 40       		.byte	0x40
 4646 0c13 4B       		.byte	0x4b
 4647 0c14 24       		.byte	0x24
 4648 0c15 22       		.byte	0x22
 4649 0c16 0C       		.byte	0xc
 4650 0c17 01000080 		.4byte	0x80000001
 4651 0c1b 2C       		.byte	0x2c
 4652 0c1c 28       		.byte	0x28
 4653 0c1d 0100     		.2byte	0x1
 4654 0c1f 16       		.byte	0x16
 4655 0c20 13       		.byte	0x13
 4656 0c21 00       		.byte	0
 4657 0c22 00       		.byte	0
 4658 0c23 16       		.uleb128 0x16
 4659 0c24 CA030000 		.4byte	.LASF91
 4660 0c28 01       		.byte	0x1
 4661 0c29 A604     		.2byte	0x4a6
 4662 0c2b 00000000 		.4byte	.LFB146
 4663 0c2f B0000000 		.4byte	.LFE146-.LFB146
 4664 0c33 01       		.uleb128 0x1
 4665 0c34 9C       		.byte	0x9c
 4666 0c35 0E0D0000 		.4byte	0xd0e
 4667 0c39 18       		.uleb128 0x18
 4668 0c3a 8C030000 		.4byte	.LASF55
 4669 0c3e 01       		.byte	0x1
 4670 0c3f A604     		.2byte	0x4a6
 4671 0c41 F1030000 		.4byte	0x3f1
 4672 0c45 AA090000 		.4byte	.LLST44
 4673 0c49 18       		.uleb128 0x18
 4674 0c4a D4050000 		.4byte	.LASF73
ARM GAS  /var/folders/m4/4md61f0s1_g0rzfghffqnxvr0000gn/T//ccTIFpbg.s 			page 83


 4675 0c4e 01       		.byte	0x1
 4676 0c4f A604     		.2byte	0x4a6
 4677 0c51 97000000 		.4byte	0x97
 4678 0c55 DE090000 		.4byte	.LLST45
 4679 0c59 18       		.uleb128 0x18
 4680 0c5a A4040000 		.4byte	.LASF77
 4681 0c5e 01       		.byte	0x1
 4682 0c5f A604     		.2byte	0x4a6
 4683 0c61 97000000 		.4byte	0x97
 4684 0c65 0A0A0000 		.4byte	.LLST46
 4685 0c69 18       		.uleb128 0x18
 4686 0c6a 00000000 		.4byte	.LASF78
 4687 0c6e 01       		.byte	0x1
 4688 0c6f A604     		.2byte	0x4a6
 4689 0c71 97000000 		.4byte	0x97
 4690 0c75 360A0000 		.4byte	.LLST47
 4691 0c79 19       		.uleb128 0x19
 4692 0c7a 02060000 		.4byte	.LASF57
 4693 0c7e 01       		.byte	0x1
 4694 0c7f A804     		.2byte	0x4a8
 4695 0c81 B8000000 		.4byte	0xb8
 4696 0c85 570A0000 		.4byte	.LLST48
 4697 0c89 19       		.uleb128 0x19
 4698 0c8a 0A060000 		.4byte	.LASF58
 4699 0c8e 01       		.byte	0x1
 4700 0c8f A804     		.2byte	0x4a8
 4701 0c91 B8000000 		.4byte	0xb8
 4702 0c95 DB0A0000 		.4byte	.LLST49
 4703 0c99 19       		.uleb128 0x19
 4704 0c9a 12060000 		.4byte	.LASF92
 4705 0c9e 01       		.byte	0x1
 4706 0c9f A804     		.2byte	0x4a8
 4707 0ca1 B8000000 		.4byte	0xb8
 4708 0ca5 550B0000 		.4byte	.LLST50
 4709 0ca9 12       		.uleb128 0x12
 4710 0caa 1B050000 		.4byte	.LASF62
 4711 0cae 01       		.byte	0x1
 4712 0caf F0       		.byte	0xf0
 4713 0cb0 89000000 		.4byte	0x89
 4714 0cb4 BA0C0000 		.4byte	0xcba
 4715 0cb8 13       		.uleb128 0x13
 4716 0cb9 00       		.byte	0
 4717 0cba 14       		.uleb128 0x14
 4718 0cbb 26000000 		.4byte	.LVL181
 4719 0cbf C8140000 		.4byte	0x14c8
 4720 0cc3 14       		.uleb128 0x14
 4721 0cc4 32000000 		.4byte	.LVL182
 4722 0cc8 C8140000 		.4byte	0x14c8
 4723 0ccc 0D       		.uleb128 0xd
 4724 0ccd 40000000 		.4byte	.LVL183
 4725 0cd1 C8140000 		.4byte	0x14c8
 4726 0cd5 040D0000 		.4byte	0xd04
 4727 0cd9 0E       		.uleb128 0xe
 4728 0cda 01       		.uleb128 0x1
 4729 0cdb 50       		.byte	0x50
 4730 0cdc 26       		.uleb128 0x26
 4731 0cdd 31       		.byte	0x31
ARM GAS  /var/folders/m4/4md61f0s1_g0rzfghffqnxvr0000gn/T//ccTIFpbg.s 			page 84


 4732 0cde 30       		.byte	0x30
 4733 0cdf 74       		.byte	0x74
 4734 0ce0 7F       		.sleb128 -1
 4735 0ce1 74       		.byte	0x74
 4736 0ce2 7F       		.sleb128 -1
 4737 0ce3 40       		.byte	0x40
 4738 0ce4 4B       		.byte	0x4b
 4739 0ce5 24       		.byte	0x24
 4740 0ce6 22       		.byte	0x22
 4741 0ce7 0C       		.byte	0xc
 4742 0ce8 03000080 		.4byte	0x80000003
 4743 0cec 2B       		.byte	0x2b
 4744 0ced 28       		.byte	0x28
 4745 0cee 0100     		.2byte	0x1
 4746 0cf0 16       		.byte	0x16
 4747 0cf1 13       		.byte	0x13
 4748 0cf2 74       		.byte	0x74
 4749 0cf3 7F       		.sleb128 -1
 4750 0cf4 40       		.byte	0x40
 4751 0cf5 4B       		.byte	0x4b
 4752 0cf6 24       		.byte	0x24
 4753 0cf7 22       		.byte	0x22
 4754 0cf8 0C       		.byte	0xc
 4755 0cf9 03000080 		.4byte	0x80000003
 4756 0cfd 2C       		.byte	0x2c
 4757 0cfe 28       		.byte	0x28
 4758 0cff 0100     		.2byte	0x1
 4759 0d01 16       		.byte	0x16
 4760 0d02 13       		.byte	0x13
 4761 0d03 00       		.byte	0
 4762 0d04 14       		.uleb128 0x14
 4763 0d05 4C000000 		.4byte	.LVL184
 4764 0d09 C8140000 		.4byte	0x14c8
 4765 0d0d 00       		.byte	0
 4766 0d0e 16       		.uleb128 0x16
 4767 0d0f DD060000 		.4byte	.LASF93
 4768 0d13 01       		.byte	0x1
 4769 0d14 E504     		.2byte	0x4e5
 4770 0d16 00000000 		.4byte	.LFB147
 4771 0d1a 4C000000 		.4byte	.LFE147-.LFB147
 4772 0d1e 01       		.uleb128 0x1
 4773 0d1f 9C       		.byte	0x9c
 4774 0d20 BC0D0000 		.4byte	0xdbc
 4775 0d24 18       		.uleb128 0x18
 4776 0d25 8C030000 		.4byte	.LASF55
 4777 0d29 01       		.byte	0x1
 4778 0d2a E504     		.2byte	0x4e5
 4779 0d2c F1030000 		.4byte	0x3f1
 4780 0d30 880B0000 		.4byte	.LLST51
 4781 0d34 18       		.uleb128 0x18
 4782 0d35 F4010000 		.4byte	.LASF94
 4783 0d39 01       		.byte	0x1
 4784 0d3a E504     		.2byte	0x4e5
 4785 0d3c 97000000 		.4byte	0x97
 4786 0d40 BC0B0000 		.4byte	.LLST52
 4787 0d44 19       		.uleb128 0x19
 4788 0d45 02060000 		.4byte	.LASF57
ARM GAS  /var/folders/m4/4md61f0s1_g0rzfghffqnxvr0000gn/T//ccTIFpbg.s 			page 85


 4789 0d49 01       		.byte	0x1
 4790 0d4a E704     		.2byte	0x4e7
 4791 0d4c B8000000 		.4byte	0xb8
 4792 0d50 E80B0000 		.4byte	.LLST53
 4793 0d54 19       		.uleb128 0x19
 4794 0d55 0A060000 		.4byte	.LASF58
 4795 0d59 01       		.byte	0x1
 4796 0d5a E804     		.2byte	0x4e8
 4797 0d5c B8000000 		.4byte	0xb8
 4798 0d60 130C0000 		.4byte	.LLST54
 4799 0d64 12       		.uleb128 0x12
 4800 0d65 1B050000 		.4byte	.LASF62
 4801 0d69 01       		.byte	0x1
 4802 0d6a F0       		.byte	0xf0
 4803 0d6b 89000000 		.4byte	0x89
 4804 0d6f 750D0000 		.4byte	0xd75
 4805 0d73 13       		.uleb128 0x13
 4806 0d74 00       		.byte	0
 4807 0d75 14       		.uleb128 0x14
 4808 0d76 22000000 		.4byte	.LVL203
 4809 0d7a C8140000 		.4byte	0x14c8
 4810 0d7e 1A       		.uleb128 0x1a
 4811 0d7f 30000000 		.4byte	.LVL204
 4812 0d83 C8140000 		.4byte	0x14c8
 4813 0d87 0E       		.uleb128 0xe
 4814 0d88 01       		.uleb128 0x1
 4815 0d89 50       		.byte	0x50
 4816 0d8a 2F       		.uleb128 0x2f
 4817 0d8b 31       		.byte	0x31
 4818 0d8c 30       		.byte	0x30
 4819 0d8d 75       		.byte	0x75
 4820 0d8e 00       		.sleb128 0
 4821 0d8f 08       		.byte	0x8
 4822 0d90 FF       		.byte	0xff
 4823 0d91 1A       		.byte	0x1a
 4824 0d92 75       		.byte	0x75
 4825 0d93 00       		.sleb128 0
 4826 0d94 08       		.byte	0x8
 4827 0d95 FF       		.byte	0xff
 4828 0d96 1A       		.byte	0x1a
 4829 0d97 40       		.byte	0x40
 4830 0d98 4B       		.byte	0x4b
 4831 0d99 24       		.byte	0x24
 4832 0d9a 22       		.byte	0x22
 4833 0d9b 0C       		.byte	0xc
 4834 0d9c 03000080 		.4byte	0x80000003
 4835 0da0 2B       		.byte	0x2b
 4836 0da1 28       		.byte	0x28
 4837 0da2 0100     		.2byte	0x1
 4838 0da4 16       		.byte	0x16
 4839 0da5 13       		.byte	0x13
 4840 0da6 75       		.byte	0x75
 4841 0da7 00       		.sleb128 0
 4842 0da8 08       		.byte	0x8
 4843 0da9 FF       		.byte	0xff
 4844 0daa 1A       		.byte	0x1a
 4845 0dab 40       		.byte	0x40
ARM GAS  /var/folders/m4/4md61f0s1_g0rzfghffqnxvr0000gn/T//ccTIFpbg.s 			page 86


 4846 0dac 4B       		.byte	0x4b
 4847 0dad 24       		.byte	0x24
 4848 0dae 22       		.byte	0x22
 4849 0daf 0C       		.byte	0xc
 4850 0db0 03000080 		.4byte	0x80000003
 4851 0db4 2C       		.byte	0x2c
 4852 0db5 28       		.byte	0x28
 4853 0db6 0100     		.2byte	0x1
 4854 0db8 16       		.byte	0x16
 4855 0db9 13       		.byte	0x13
 4856 0dba 00       		.byte	0
 4857 0dbb 00       		.byte	0
 4858 0dbc 16       		.uleb128 0x16
 4859 0dbd A5010000 		.4byte	.LASF95
 4860 0dc1 01       		.byte	0x1
 4861 0dc2 0805     		.2byte	0x508
 4862 0dc4 00000000 		.4byte	.LFB148
 4863 0dc8 74000000 		.4byte	.LFE148-.LFB148
 4864 0dcc 01       		.uleb128 0x1
 4865 0dcd 9C       		.byte	0x9c
 4866 0dce 3E0E0000 		.4byte	0xe3e
 4867 0dd2 18       		.uleb128 0x18
 4868 0dd3 8C030000 		.4byte	.LASF55
 4869 0dd7 01       		.byte	0x1
 4870 0dd8 0805     		.2byte	0x508
 4871 0dda F1030000 		.4byte	0x3f1
 4872 0dde 450C0000 		.4byte	.LLST55
 4873 0de2 18       		.uleb128 0x18
 4874 0de3 E0010000 		.4byte	.LASF96
 4875 0de7 01       		.byte	0x1
 4876 0de8 0805     		.2byte	0x508
 4877 0dea 97000000 		.4byte	0x97
 4878 0dee 630C0000 		.4byte	.LLST56
 4879 0df2 18       		.uleb128 0x18
 4880 0df3 B3080000 		.4byte	.LASF97
 4881 0df7 01       		.byte	0x1
 4882 0df8 0805     		.2byte	0x508
 4883 0dfa A2000000 		.4byte	0xa2
 4884 0dfe 8F0C0000 		.4byte	.LLST57
 4885 0e02 1D       		.uleb128 0x1d
 4886 0e03 746D7000 		.ascii	"tmp\000"
 4887 0e07 01       		.byte	0x1
 4888 0e08 0A05     		.2byte	0x50a
 4889 0e0a CA000000 		.4byte	0xca
 4890 0e0e 02       		.uleb128 0x2
 4891 0e0f 91       		.byte	0x91
 4892 0e10 6C       		.sleb128 -20
 4893 0e11 12       		.uleb128 0x12
 4894 0e12 1B050000 		.4byte	.LASF62
 4895 0e16 01       		.byte	0x1
 4896 0e17 F0       		.byte	0xf0
 4897 0e18 89000000 		.4byte	0x89
 4898 0e1c 220E0000 		.4byte	0xe22
 4899 0e20 13       		.uleb128 0x13
 4900 0e21 00       		.byte	0
 4901 0e22 14       		.uleb128 0x14
 4902 0e23 2A000000 		.4byte	.LVL212
ARM GAS  /var/folders/m4/4md61f0s1_g0rzfghffqnxvr0000gn/T//ccTIFpbg.s 			page 87


 4903 0e27 C8140000 		.4byte	0x14c8
 4904 0e2b 14       		.uleb128 0x14
 4905 0e2c 44000000 		.4byte	.LVL213
 4906 0e30 C8140000 		.4byte	0x14c8
 4907 0e34 14       		.uleb128 0x14
 4908 0e35 52000000 		.4byte	.LVL214
 4909 0e39 C8140000 		.4byte	0x14c8
 4910 0e3d 00       		.byte	0
 4911 0e3e 16       		.uleb128 0x16
 4912 0e3f 5F020000 		.4byte	.LASF98
 4913 0e43 01       		.byte	0x1
 4914 0e44 2E05     		.2byte	0x52e
 4915 0e46 00000000 		.4byte	.LFB149
 4916 0e4a 6C000000 		.4byte	.LFE149-.LFB149
 4917 0e4e 01       		.uleb128 0x1
 4918 0e4f 9C       		.byte	0x9c
 4919 0e50 A80E0000 		.4byte	0xea8
 4920 0e54 18       		.uleb128 0x18
 4921 0e55 8C030000 		.4byte	.LASF55
 4922 0e59 01       		.byte	0x1
 4923 0e5a 2E05     		.2byte	0x52e
 4924 0e5c F1030000 		.4byte	0x3f1
 4925 0e60 BB0C0000 		.4byte	.LLST58
 4926 0e64 18       		.uleb128 0x18
 4927 0e65 2E050000 		.4byte	.LASF99
 4928 0e69 01       		.byte	0x1
 4929 0e6a 2E05     		.2byte	0x52e
 4930 0e6c B8000000 		.4byte	0xb8
 4931 0e70 EF0C0000 		.4byte	.LLST59
 4932 0e74 19       		.uleb128 0x19
 4933 0e75 1E020000 		.4byte	.LASF68
 4934 0e79 01       		.byte	0x1
 4935 0e7a 3005     		.2byte	0x530
 4936 0e7c B8000000 		.4byte	0xb8
 4937 0e80 180D0000 		.4byte	.LLST60
 4938 0e84 12       		.uleb128 0x12
 4939 0e85 1B050000 		.4byte	.LASF62
 4940 0e89 01       		.byte	0x1
 4941 0e8a F0       		.byte	0xf0
 4942 0e8b 89000000 		.4byte	0x89
 4943 0e8f 950E0000 		.4byte	0xe95
 4944 0e93 13       		.uleb128 0x13
 4945 0e94 00       		.byte	0
 4946 0e95 14       		.uleb128 0x14
 4947 0e96 22000000 		.4byte	.LVL219
 4948 0e9a C8140000 		.4byte	0x14c8
 4949 0e9e 14       		.uleb128 0x14
 4950 0e9f 50000000 		.4byte	.LVL220
 4951 0ea3 C8140000 		.4byte	0x14c8
 4952 0ea7 00       		.byte	0
 4953 0ea8 16       		.uleb128 0x16
 4954 0ea9 FB000000 		.4byte	.LASF100
 4955 0ead 01       		.byte	0x1
 4956 0eae 5005     		.2byte	0x550
 4957 0eb0 00000000 		.4byte	.LFB150
 4958 0eb4 50000000 		.4byte	.LFE150-.LFB150
 4959 0eb8 01       		.uleb128 0x1
ARM GAS  /var/folders/m4/4md61f0s1_g0rzfghffqnxvr0000gn/T//ccTIFpbg.s 			page 88


 4960 0eb9 9C       		.byte	0x9c
 4961 0eba 51100000 		.4byte	0x1051
 4962 0ebe 18       		.uleb128 0x18
 4963 0ebf 8C030000 		.4byte	.LASF55
 4964 0ec3 01       		.byte	0x1
 4965 0ec4 5005     		.2byte	0x550
 4966 0ec6 F1030000 		.4byte	0x3f1
 4967 0eca 4E0D0000 		.4byte	.LLST61
 4968 0ece 18       		.uleb128 0x18
 4969 0ecf 22060000 		.4byte	.LASF101
 4970 0ed3 01       		.byte	0x1
 4971 0ed4 5005     		.2byte	0x550
 4972 0ed6 B8000000 		.4byte	0xb8
 4973 0eda 820D0000 		.4byte	.LLST62
 4974 0ede 19       		.uleb128 0x19
 4975 0edf 1E020000 		.4byte	.LASF68
 4976 0ee3 01       		.byte	0x1
 4977 0ee4 5205     		.2byte	0x552
 4978 0ee6 B8000000 		.4byte	0xb8
 4979 0eea AB0D0000 		.4byte	.LLST63
 4980 0eee 12       		.uleb128 0x12
 4981 0eef 1B050000 		.4byte	.LASF62
 4982 0ef3 01       		.byte	0x1
 4983 0ef4 F0       		.byte	0xf0
 4984 0ef5 89000000 		.4byte	0x89
 4985 0ef9 FF0E0000 		.4byte	0xeff
 4986 0efd 13       		.uleb128 0x13
 4987 0efe 00       		.byte	0
 4988 0eff 14       		.uleb128 0x14
 4989 0f00 22000000 		.4byte	.LVL228
 4990 0f04 C8140000 		.4byte	0x14c8
 4991 0f08 1A       		.uleb128 0x1a
 4992 0f09 38000000 		.4byte	.LVL229
 4993 0f0d C8140000 		.4byte	0x14c8
 4994 0f11 0E       		.uleb128 0xe
 4995 0f12 01       		.uleb128 0x1
 4996 0f13 50       		.byte	0x50
 4997 0f14 B902     		.uleb128 0x139
 4998 0f16 31       		.byte	0x31
 4999 0f17 75       		.byte	0x75
 5000 0f18 00       		.sleb128 0
 5001 0f19 11       		.byte	0x11
 5002 0f1a FFFFBF7F 		.sleb128 -1048577
 5003 0f1e 1A       		.byte	0x1a
 5004 0f1f 40       		.byte	0x40
 5005 0f20 41       		.byte	0x41
 5006 0f21 24       		.byte	0x24
 5007 0f22 1C       		.byte	0x1c
 5008 0f23 75       		.byte	0x75
 5009 0f24 00       		.sleb128 0
 5010 0f25 11       		.byte	0x11
 5011 0f26 FFFFBF7F 		.sleb128 -1048577
 5012 0f2a 1A       		.byte	0x1a
 5013 0f2b 75       		.byte	0x75
 5014 0f2c 00       		.sleb128 0
 5015 0f2d 11       		.byte	0x11
 5016 0f2e FFFFBF7F 		.sleb128 -1048577
ARM GAS  /var/folders/m4/4md61f0s1_g0rzfghffqnxvr0000gn/T//ccTIFpbg.s 			page 89


 5017 0f32 1A       		.byte	0x1a
 5018 0f33 30       		.byte	0x30
 5019 0f34 2E       		.byte	0x2e
 5020 0f35 28       		.byte	0x28
 5021 0f36 0100     		.2byte	0x1
 5022 0f38 16       		.byte	0x16
 5023 0f39 13       		.byte	0x13
 5024 0f3a 75       		.byte	0x75
 5025 0f3b 00       		.sleb128 0
 5026 0f3c 11       		.byte	0x11
 5027 0f3d FFFFBF7F 		.sleb128 -1048577
 5028 0f41 1A       		.byte	0x1a
 5029 0f42 30       		.byte	0x30
 5030 0f43 29       		.byte	0x29
 5031 0f44 28       		.byte	0x28
 5032 0f45 0100     		.2byte	0x1
 5033 0f47 16       		.byte	0x16
 5034 0f48 13       		.byte	0x13
 5035 0f49 12       		.byte	0x12
 5036 0f4a 28       		.byte	0x28
 5037 0f4b 0600     		.2byte	0x6
 5038 0f4d 13       		.byte	0x13
 5039 0f4e 08       		.byte	0x8
 5040 0f4f 20       		.byte	0x20
 5041 0f50 2F       		.byte	0x2f
 5042 0f51 1400     		.2byte	0x14
 5043 0f53 30       		.byte	0x30
 5044 0f54 16       		.byte	0x16
 5045 0f55 12       		.byte	0x12
 5046 0f56 40       		.byte	0x40
 5047 0f57 4B       		.byte	0x4b
 5048 0f58 24       		.byte	0x24
 5049 0f59 1A       		.byte	0x1a
 5050 0f5a 28       		.byte	0x28
 5051 0f5b 0900     		.2byte	0x9
 5052 0f5d 31       		.byte	0x31
 5053 0f5e 24       		.byte	0x24
 5054 0f5f 16       		.byte	0x16
 5055 0f60 23       		.byte	0x23
 5056 0f61 01       		.uleb128 0x1
 5057 0f62 16       		.byte	0x16
 5058 0f63 2F       		.byte	0x2f
 5059 0f64 EFFF     		.2byte	0xffef
 5060 0f66 13       		.byte	0x13
 5061 0f67 96       		.byte	0x96
 5062 0f68 31       		.byte	0x31
 5063 0f69 75       		.byte	0x75
 5064 0f6a 00       		.sleb128 0
 5065 0f6b 11       		.byte	0x11
 5066 0f6c FFFFBF7F 		.sleb128 -1048577
 5067 0f70 1A       		.byte	0x1a
 5068 0f71 40       		.byte	0x40
 5069 0f72 41       		.byte	0x41
 5070 0f73 24       		.byte	0x24
 5071 0f74 1C       		.byte	0x1c
 5072 0f75 75       		.byte	0x75
 5073 0f76 00       		.sleb128 0
ARM GAS  /var/folders/m4/4md61f0s1_g0rzfghffqnxvr0000gn/T//ccTIFpbg.s 			page 90


 5074 0f77 11       		.byte	0x11
 5075 0f78 FFFFBF7F 		.sleb128 -1048577
 5076 0f7c 1A       		.byte	0x1a
 5077 0f7d 75       		.byte	0x75
 5078 0f7e 00       		.sleb128 0
 5079 0f7f 11       		.byte	0x11
 5080 0f80 FFFFBF7F 		.sleb128 -1048577
 5081 0f84 1A       		.byte	0x1a
 5082 0f85 30       		.byte	0x30
 5083 0f86 2E       		.byte	0x2e
 5084 0f87 28       		.byte	0x28
 5085 0f88 0100     		.2byte	0x1
 5086 0f8a 16       		.byte	0x16
 5087 0f8b 13       		.byte	0x13
 5088 0f8c 75       		.byte	0x75
 5089 0f8d 00       		.sleb128 0
 5090 0f8e 11       		.byte	0x11
 5091 0f8f FFFFBF7F 		.sleb128 -1048577
 5092 0f93 1A       		.byte	0x1a
 5093 0f94 30       		.byte	0x30
 5094 0f95 29       		.byte	0x29
 5095 0f96 28       		.byte	0x28
 5096 0f97 0100     		.2byte	0x1
 5097 0f99 16       		.byte	0x16
 5098 0f9a 13       		.byte	0x13
 5099 0f9b 75       		.byte	0x75
 5100 0f9c 00       		.sleb128 0
 5101 0f9d 11       		.byte	0x11
 5102 0f9e FFFFBF7F 		.sleb128 -1048577
 5103 0fa2 1A       		.byte	0x1a
 5104 0fa3 30       		.byte	0x30
 5105 0fa4 2E       		.byte	0x2e
 5106 0fa5 28       		.byte	0x28
 5107 0fa6 0100     		.2byte	0x1
 5108 0fa8 16       		.byte	0x16
 5109 0fa9 13       		.byte	0x13
 5110 0faa 35       		.byte	0x35
 5111 0fab 25       		.byte	0x25
 5112 0fac 31       		.byte	0x31
 5113 0fad 75       		.byte	0x75
 5114 0fae 00       		.sleb128 0
 5115 0faf 11       		.byte	0x11
 5116 0fb0 FFFFBF7F 		.sleb128 -1048577
 5117 0fb4 1A       		.byte	0x1a
 5118 0fb5 40       		.byte	0x40
 5119 0fb6 41       		.byte	0x41
 5120 0fb7 24       		.byte	0x24
 5121 0fb8 1C       		.byte	0x1c
 5122 0fb9 75       		.byte	0x75
 5123 0fba 00       		.sleb128 0
 5124 0fbb 11       		.byte	0x11
 5125 0fbc FFFFBF7F 		.sleb128 -1048577
 5126 0fc0 1A       		.byte	0x1a
 5127 0fc1 75       		.byte	0x75
 5128 0fc2 00       		.sleb128 0
 5129 0fc3 11       		.byte	0x11
 5130 0fc4 FFFFBF7F 		.sleb128 -1048577
ARM GAS  /var/folders/m4/4md61f0s1_g0rzfghffqnxvr0000gn/T//ccTIFpbg.s 			page 91


 5131 0fc8 1A       		.byte	0x1a
 5132 0fc9 30       		.byte	0x30
 5133 0fca 2E       		.byte	0x2e
 5134 0fcb 28       		.byte	0x28
 5135 0fcc 0100     		.2byte	0x1
 5136 0fce 16       		.byte	0x16
 5137 0fcf 13       		.byte	0x13
 5138 0fd0 75       		.byte	0x75
 5139 0fd1 00       		.sleb128 0
 5140 0fd2 11       		.byte	0x11
 5141 0fd3 FFFFBF7F 		.sleb128 -1048577
 5142 0fd7 1A       		.byte	0x1a
 5143 0fd8 30       		.byte	0x30
 5144 0fd9 29       		.byte	0x29
 5145 0fda 28       		.byte	0x28
 5146 0fdb 0100     		.2byte	0x1
 5147 0fdd 16       		.byte	0x16
 5148 0fde 13       		.byte	0x13
 5149 0fdf 12       		.byte	0x12
 5150 0fe0 28       		.byte	0x28
 5151 0fe1 0600     		.2byte	0x6
 5152 0fe3 13       		.byte	0x13
 5153 0fe4 08       		.byte	0x8
 5154 0fe5 20       		.byte	0x20
 5155 0fe6 2F       		.byte	0x2f
 5156 0fe7 1400     		.2byte	0x14
 5157 0fe9 30       		.byte	0x30
 5158 0fea 16       		.byte	0x16
 5159 0feb 12       		.byte	0x12
 5160 0fec 40       		.byte	0x40
 5161 0fed 4B       		.byte	0x4b
 5162 0fee 24       		.byte	0x24
 5163 0fef 1A       		.byte	0x1a
 5164 0ff0 28       		.byte	0x28
 5165 0ff1 0900     		.2byte	0x9
 5166 0ff3 31       		.byte	0x31
 5167 0ff4 24       		.byte	0x24
 5168 0ff5 16       		.byte	0x16
 5169 0ff6 23       		.byte	0x23
 5170 0ff7 01       		.uleb128 0x1
 5171 0ff8 16       		.byte	0x16
 5172 0ff9 2F       		.byte	0x2f
 5173 0ffa EFFF     		.2byte	0xffef
 5174 0ffc 13       		.byte	0x13
 5175 0ffd 96       		.byte	0x96
 5176 0ffe 31       		.byte	0x31
 5177 0fff 75       		.byte	0x75
 5178 1000 00       		.sleb128 0
 5179 1001 11       		.byte	0x11
 5180 1002 FFFFBF7F 		.sleb128 -1048577
 5181 1006 1A       		.byte	0x1a
 5182 1007 40       		.byte	0x40
 5183 1008 41       		.byte	0x41
 5184 1009 24       		.byte	0x24
 5185 100a 1C       		.byte	0x1c
 5186 100b 75       		.byte	0x75
 5187 100c 00       		.sleb128 0
ARM GAS  /var/folders/m4/4md61f0s1_g0rzfghffqnxvr0000gn/T//ccTIFpbg.s 			page 92


 5188 100d 11       		.byte	0x11
 5189 100e FFFFBF7F 		.sleb128 -1048577
 5190 1012 1A       		.byte	0x1a
 5191 1013 75       		.byte	0x75
 5192 1014 00       		.sleb128 0
 5193 1015 11       		.byte	0x11
 5194 1016 FFFFBF7F 		.sleb128 -1048577
 5195 101a 1A       		.byte	0x1a
 5196 101b 30       		.byte	0x30
 5197 101c 2E       		.byte	0x2e
 5198 101d 28       		.byte	0x28
 5199 101e 0100     		.2byte	0x1
 5200 1020 16       		.byte	0x16
 5201 1021 13       		.byte	0x13
 5202 1022 75       		.byte	0x75
 5203 1023 00       		.sleb128 0
 5204 1024 11       		.byte	0x11
 5205 1025 FFFFBF7F 		.sleb128 -1048577
 5206 1029 1A       		.byte	0x1a
 5207 102a 30       		.byte	0x30
 5208 102b 29       		.byte	0x29
 5209 102c 28       		.byte	0x28
 5210 102d 0100     		.2byte	0x1
 5211 102f 16       		.byte	0x16
 5212 1030 13       		.byte	0x13
 5213 1031 75       		.byte	0x75
 5214 1032 00       		.sleb128 0
 5215 1033 11       		.byte	0x11
 5216 1034 FFFFBF7F 		.sleb128 -1048577
 5217 1038 1A       		.byte	0x1a
 5218 1039 30       		.byte	0x30
 5219 103a 2E       		.byte	0x2e
 5220 103b 28       		.byte	0x28
 5221 103c 0100     		.2byte	0x1
 5222 103e 16       		.byte	0x16
 5223 103f 13       		.byte	0x13
 5224 1040 75       		.byte	0x75
 5225 1041 00       		.sleb128 0
 5226 1042 11       		.byte	0x11
 5227 1043 FFFFBF7F 		.sleb128 -1048577
 5228 1047 1A       		.byte	0x1a
 5229 1048 30       		.byte	0x30
 5230 1049 2E       		.byte	0x2e
 5231 104a 28       		.byte	0x28
 5232 104b 0100     		.2byte	0x1
 5233 104d 16       		.byte	0x16
 5234 104e 13       		.byte	0x13
 5235 104f 00       		.byte	0
 5236 1050 00       		.byte	0
 5237 1051 16       		.uleb128 0x16
 5238 1052 48050000 		.4byte	.LASF102
 5239 1056 01       		.byte	0x1
 5240 1057 6505     		.2byte	0x565
 5241 1059 00000000 		.4byte	.LFB151
 5242 105d 38000000 		.4byte	.LFE151-.LFB151
 5243 1061 01       		.uleb128 0x1
 5244 1062 9C       		.byte	0x9c
ARM GAS  /var/folders/m4/4md61f0s1_g0rzfghffqnxvr0000gn/T//ccTIFpbg.s 			page 93


 5245 1063 92100000 		.4byte	0x1092
 5246 1067 18       		.uleb128 0x18
 5247 1068 8C030000 		.4byte	.LASF55
 5248 106c 01       		.byte	0x1
 5249 106d 6505     		.2byte	0x565
 5250 106f F1030000 		.4byte	0x3f1
 5251 1073 D60D0000 		.4byte	.LLST64
 5252 1077 12       		.uleb128 0x12
 5253 1078 1B050000 		.4byte	.LASF62
 5254 107c 01       		.byte	0x1
 5255 107d F0       		.byte	0xf0
 5256 107e 89000000 		.4byte	0x89
 5257 1082 88100000 		.4byte	0x1088
 5258 1086 13       		.uleb128 0x13
 5259 1087 00       		.byte	0
 5260 1088 14       		.uleb128 0x14
 5261 1089 20000000 		.4byte	.LVL237
 5262 108d C8140000 		.4byte	0x14c8
 5263 1091 00       		.byte	0
 5264 1092 1B       		.uleb128 0x1b
 5265 1093 64010000 		.4byte	.LASF103
 5266 1097 01       		.byte	0x1
 5267 1098 7205     		.2byte	0x572
 5268 109a 1E020000 		.4byte	0x21e
 5269 109e 00000000 		.4byte	.LFB152
 5270 10a2 40000000 		.4byte	.LFE152-.LFB152
 5271 10a6 01       		.uleb128 0x1
 5272 10a7 9C       		.byte	0x9c
 5273 10a8 07110000 		.4byte	0x1107
 5274 10ac 18       		.uleb128 0x18
 5275 10ad 8C030000 		.4byte	.LASF55
 5276 10b1 01       		.byte	0x1
 5277 10b2 7205     		.2byte	0x572
 5278 10b4 F1030000 		.4byte	0x3f1
 5279 10b8 0A0E0000 		.4byte	.LLST65
 5280 10bc 19       		.uleb128 0x19
 5281 10bd A9080000 		.4byte	.LASF80
 5282 10c1 01       		.byte	0x1
 5283 10c2 7405     		.2byte	0x574
 5284 10c4 1E020000 		.4byte	0x21e
 5285 10c8 4C0E0000 		.4byte	.LLST66
 5286 10cc 12       		.uleb128 0x12
 5287 10cd 1B050000 		.4byte	.LASF62
 5288 10d1 01       		.byte	0x1
 5289 10d2 F0       		.byte	0xf0
 5290 10d3 89000000 		.4byte	0x89
 5291 10d7 DD100000 		.4byte	0x10dd
 5292 10db 13       		.uleb128 0x13
 5293 10dc 00       		.byte	0
 5294 10dd 0D       		.uleb128 0xd
 5295 10de 20000000 		.4byte	.LVL242
 5296 10e2 C8140000 		.4byte	0x14c8
 5297 10e6 F7100000 		.4byte	0x10f7
 5298 10ea 0E       		.uleb128 0xe
 5299 10eb 01       		.uleb128 0x1
 5300 10ec 50       		.byte	0x50
 5301 10ed 08       		.uleb128 0x8
ARM GAS  /var/folders/m4/4md61f0s1_g0rzfghffqnxvr0000gn/T//ccTIFpbg.s 			page 94


 5302 10ee 74       		.byte	0x74
 5303 10ef 00       		.sleb128 0
 5304 10f0 0C       		.byte	0xc
 5305 10f1 00220140 		.4byte	0x40012200
 5306 10f5 29       		.byte	0x29
 5307 10f6 00       		.byte	0
 5308 10f7 1A       		.uleb128 0x1a
 5309 10f8 2E000000 		.4byte	.LVL247
 5310 10fc C8140000 		.4byte	0x14c8
 5311 1100 0E       		.uleb128 0xe
 5312 1101 01       		.uleb128 0x1
 5313 1102 50       		.byte	0x50
 5314 1103 01       		.uleb128 0x1
 5315 1104 31       		.byte	0x31
 5316 1105 00       		.byte	0
 5317 1106 00       		.byte	0
 5318 1107 16       		.uleb128 0x16
 5319 1108 85050000 		.4byte	.LASF104
 5320 110c 01       		.byte	0x1
 5321 110d 8F05     		.2byte	0x58f
 5322 110f 00000000 		.4byte	.LFB153
 5323 1113 50000000 		.4byte	.LFE153-.LFB153
 5324 1117 01       		.uleb128 0x1
 5325 1118 9C       		.byte	0x9c
 5326 1119 61110000 		.4byte	0x1161
 5327 111d 18       		.uleb128 0x18
 5328 111e 8C030000 		.4byte	.LASF55
 5329 1122 01       		.byte	0x1
 5330 1123 8F05     		.2byte	0x58f
 5331 1125 F1030000 		.4byte	0x3f1
 5332 1129 920E0000 		.4byte	.LLST67
 5333 112d 18       		.uleb128 0x18
 5334 112e 56020000 		.4byte	.LASF65
 5335 1132 01       		.byte	0x1
 5336 1133 8F05     		.2byte	0x58f
 5337 1135 49020000 		.4byte	0x249
 5338 1139 C60E0000 		.4byte	.LLST68
 5339 113d 12       		.uleb128 0x12
 5340 113e 1B050000 		.4byte	.LASF62
 5341 1142 01       		.byte	0x1
 5342 1143 F0       		.byte	0xf0
 5343 1144 89000000 		.4byte	0x89
 5344 1148 4E110000 		.4byte	0x114e
 5345 114c 13       		.uleb128 0x13
 5346 114d 00       		.byte	0
 5347 114e 14       		.uleb128 0x14
 5348 114f 22000000 		.4byte	.LVL253
 5349 1153 C8140000 		.4byte	0x14c8
 5350 1157 14       		.uleb128 0x14
 5351 1158 2E000000 		.4byte	.LVL254
 5352 115c C8140000 		.4byte	0x14c8
 5353 1160 00       		.byte	0
 5354 1161 16       		.uleb128 0x16
 5355 1162 25020000 		.4byte	.LASF105
 5356 1166 01       		.byte	0x1
 5357 1167 A905     		.2byte	0x5a9
 5358 1169 00000000 		.4byte	.LFB154
ARM GAS  /var/folders/m4/4md61f0s1_g0rzfghffqnxvr0000gn/T//ccTIFpbg.s 			page 95


 5359 116d 50000000 		.4byte	.LFE154-.LFB154
 5360 1171 01       		.uleb128 0x1
 5361 1172 9C       		.byte	0x9c
 5362 1173 BB110000 		.4byte	0x11bb
 5363 1177 18       		.uleb128 0x18
 5364 1178 8C030000 		.4byte	.LASF55
 5365 117c 01       		.byte	0x1
 5366 117d A905     		.2byte	0x5a9
 5367 117f F1030000 		.4byte	0x3f1
 5368 1183 F20E0000 		.4byte	.LLST69
 5369 1187 18       		.uleb128 0x18
 5370 1188 56020000 		.4byte	.LASF65
 5371 118c 01       		.byte	0x1
 5372 118d A905     		.2byte	0x5a9
 5373 118f 49020000 		.4byte	0x249
 5374 1193 260F0000 		.4byte	.LLST70
 5375 1197 12       		.uleb128 0x12
 5376 1198 1B050000 		.4byte	.LASF62
 5377 119c 01       		.byte	0x1
 5378 119d F0       		.byte	0xf0
 5379 119e 89000000 		.4byte	0x89
 5380 11a2 A8110000 		.4byte	0x11a8
 5381 11a6 13       		.uleb128 0x13
 5382 11a7 00       		.byte	0
 5383 11a8 14       		.uleb128 0x14
 5384 11a9 22000000 		.4byte	.LVL260
 5385 11ad C8140000 		.4byte	0x14c8
 5386 11b1 14       		.uleb128 0x14
 5387 11b2 2E000000 		.4byte	.LVL261
 5388 11b6 C8140000 		.4byte	0x14c8
 5389 11ba 00       		.byte	0
 5390 11bb 1B       		.uleb128 0x1b
 5391 11bc B5050000 		.4byte	.LASF106
 5392 11c0 01       		.byte	0x1
 5393 11c1 C505     		.2byte	0x5c5
 5394 11c3 A2000000 		.4byte	0xa2
 5395 11c7 00000000 		.4byte	.LFB155
 5396 11cb 68000000 		.4byte	.LFE155-.LFB155
 5397 11cf 01       		.uleb128 0x1
 5398 11d0 9C       		.byte	0x9c
 5399 11d1 28120000 		.4byte	0x1228
 5400 11d5 18       		.uleb128 0x18
 5401 11d6 8C030000 		.4byte	.LASF55
 5402 11da 01       		.byte	0x1
 5403 11db C505     		.2byte	0x5c5
 5404 11dd F1030000 		.4byte	0x3f1
 5405 11e1 520F0000 		.4byte	.LLST71
 5406 11e5 18       		.uleb128 0x18
 5407 11e6 E0010000 		.4byte	.LASF96
 5408 11ea 01       		.byte	0x1
 5409 11eb C505     		.2byte	0x5c5
 5410 11ed 97000000 		.4byte	0x97
 5411 11f1 860F0000 		.4byte	.LLST72
 5412 11f5 1D       		.uleb128 0x1d
 5413 11f6 746D7000 		.ascii	"tmp\000"
 5414 11fa 01       		.byte	0x1
 5415 11fb C705     		.2byte	0x5c7
ARM GAS  /var/folders/m4/4md61f0s1_g0rzfghffqnxvr0000gn/T//ccTIFpbg.s 			page 96


 5416 11fd CA000000 		.4byte	0xca
 5417 1201 02       		.uleb128 0x2
 5418 1202 91       		.byte	0x91
 5419 1203 6C       		.sleb128 -20
 5420 1204 12       		.uleb128 0x12
 5421 1205 1B050000 		.4byte	.LASF62
 5422 1209 01       		.byte	0x1
 5423 120a F0       		.byte	0xf0
 5424 120b 89000000 		.4byte	0x89
 5425 120f 15120000 		.4byte	0x1215
 5426 1213 13       		.uleb128 0x13
 5427 1214 00       		.byte	0
 5428 1215 14       		.uleb128 0x14
 5429 1216 28000000 		.4byte	.LVL267
 5430 121a C8140000 		.4byte	0x14c8
 5431 121e 14       		.uleb128 0x14
 5432 121f 42000000 		.4byte	.LVL268
 5433 1223 C8140000 		.4byte	0x14c8
 5434 1227 00       		.byte	0
 5435 1228 16       		.uleb128 0x16
 5436 1229 14040000 		.4byte	.LASF107
 5437 122d 01       		.byte	0x1
 5438 122e 3006     		.2byte	0x630
 5439 1230 00000000 		.4byte	.LFB156
 5440 1234 80000000 		.4byte	.LFE156-.LFB156
 5441 1238 01       		.uleb128 0x1
 5442 1239 9C       		.byte	0x9c
 5443 123a AB120000 		.4byte	0x12ab
 5444 123e 18       		.uleb128 0x18
 5445 123f 8C030000 		.4byte	.LASF55
 5446 1243 01       		.byte	0x1
 5447 1244 3006     		.2byte	0x630
 5448 1246 F1030000 		.4byte	0x3f1
 5449 124a B20F0000 		.4byte	.LLST73
 5450 124e 18       		.uleb128 0x18
 5451 124f A5020000 		.4byte	.LASF108
 5452 1253 01       		.byte	0x1
 5453 1254 3006     		.2byte	0x630
 5454 1256 A2000000 		.4byte	0xa2
 5455 125a E60F0000 		.4byte	.LLST74
 5456 125e 18       		.uleb128 0x18
 5457 125f 56020000 		.4byte	.LASF65
 5458 1263 01       		.byte	0x1
 5459 1264 3006     		.2byte	0x630
 5460 1266 49020000 		.4byte	0x249
 5461 126a 12100000 		.4byte	.LLST75
 5462 126e 19       		.uleb128 0x19
 5463 126f 87040000 		.4byte	.LASF109
 5464 1273 01       		.byte	0x1
 5465 1274 3206     		.2byte	0x632
 5466 1276 B8000000 		.4byte	0xb8
 5467 127a 3E100000 		.4byte	.LLST76
 5468 127e 12       		.uleb128 0x12
 5469 127f 1B050000 		.4byte	.LASF62
 5470 1283 01       		.byte	0x1
 5471 1284 F0       		.byte	0xf0
 5472 1285 89000000 		.4byte	0x89
ARM GAS  /var/folders/m4/4md61f0s1_g0rzfghffqnxvr0000gn/T//ccTIFpbg.s 			page 97


 5473 1289 8F120000 		.4byte	0x128f
 5474 128d 13       		.uleb128 0x13
 5475 128e 00       		.byte	0
 5476 128f 14       		.uleb128 0x14
 5477 1290 24000000 		.4byte	.LVL274
 5478 1294 C8140000 		.4byte	0x14c8
 5479 1298 14       		.uleb128 0x14
 5480 1299 30000000 		.4byte	.LVL275
 5481 129d C8140000 		.4byte	0x14c8
 5482 12a1 14       		.uleb128 0x14
 5483 12a2 5A000000 		.4byte	.LVL276
 5484 12a6 C8140000 		.4byte	0x14c8
 5485 12aa 00       		.byte	0
 5486 12ab 1B       		.uleb128 0x1b
 5487 12ac 4D040000 		.4byte	.LASF110
 5488 12b0 01       		.byte	0x1
 5489 12b1 5506     		.2byte	0x655
 5490 12b3 1E020000 		.4byte	0x21e
 5491 12b7 00000000 		.4byte	.LFB157
 5492 12bb 60000000 		.4byte	.LFE157-.LFB157
 5493 12bf 01       		.uleb128 0x1
 5494 12c0 9C       		.byte	0x9c
 5495 12c1 19130000 		.4byte	0x1319
 5496 12c5 18       		.uleb128 0x18
 5497 12c6 8C030000 		.4byte	.LASF55
 5498 12ca 01       		.byte	0x1
 5499 12cb 5506     		.2byte	0x655
 5500 12cd F1030000 		.4byte	0x3f1
 5501 12d1 AD100000 		.4byte	.LLST77
 5502 12d5 18       		.uleb128 0x18
 5503 12d6 46020000 		.4byte	.LASF111
 5504 12da 01       		.byte	0x1
 5505 12db 5506     		.2byte	0x655
 5506 12dd 97000000 		.4byte	0x97
 5507 12e1 E1100000 		.4byte	.LLST78
 5508 12e5 19       		.uleb128 0x19
 5509 12e6 A9080000 		.4byte	.LASF80
 5510 12ea 01       		.byte	0x1
 5511 12eb 5706     		.2byte	0x657
 5512 12ed 1E020000 		.4byte	0x21e
 5513 12f1 0D110000 		.4byte	.LLST79
 5514 12f5 12       		.uleb128 0x12
 5515 12f6 1B050000 		.4byte	.LASF62
 5516 12fa 01       		.byte	0x1
 5517 12fb F0       		.byte	0xf0
 5518 12fc 89000000 		.4byte	0x89
 5519 1300 06130000 		.4byte	0x1306
 5520 1304 13       		.uleb128 0x13
 5521 1305 00       		.byte	0
 5522 1306 14       		.uleb128 0x14
 5523 1307 22000000 		.4byte	.LVL286
 5524 130b C8140000 		.4byte	0x14c8
 5525 130f 14       		.uleb128 0x14
 5526 1310 46000000 		.4byte	.LVL287
 5527 1314 C8140000 		.4byte	0x14c8
 5528 1318 00       		.byte	0
 5529 1319 16       		.uleb128 0x16
ARM GAS  /var/folders/m4/4md61f0s1_g0rzfghffqnxvr0000gn/T//ccTIFpbg.s 			page 98


 5530 131a A7050000 		.4byte	.LASF112
 5531 131e 01       		.byte	0x1
 5532 131f 7806     		.2byte	0x678
 5533 1321 00000000 		.4byte	.LFB158
 5534 1325 50000000 		.4byte	.LFE158-.LFB158
 5535 1329 01       		.uleb128 0x1
 5536 132a 9C       		.byte	0x9c
 5537 132b 99130000 		.4byte	0x1399
 5538 132f 18       		.uleb128 0x18
 5539 1330 8C030000 		.4byte	.LASF55
 5540 1334 01       		.byte	0x1
 5541 1335 7806     		.2byte	0x678
 5542 1337 F1030000 		.4byte	0x3f1
 5543 133b 42110000 		.4byte	.LLST80
 5544 133f 18       		.uleb128 0x18
 5545 1340 46020000 		.4byte	.LASF111
 5546 1344 01       		.byte	0x1
 5547 1345 7806     		.2byte	0x678
 5548 1347 97000000 		.4byte	0x97
 5549 134b 76110000 		.4byte	.LLST81
 5550 134f 12       		.uleb128 0x12
 5551 1350 1B050000 		.4byte	.LASF62
 5552 1354 01       		.byte	0x1
 5553 1355 F0       		.byte	0xf0
 5554 1356 89000000 		.4byte	0x89
 5555 135a 60130000 		.4byte	0x1360
 5556 135e 13       		.uleb128 0x13
 5557 135f 00       		.byte	0
 5558 1360 14       		.uleb128 0x14
 5559 1361 22000000 		.4byte	.LVL293
 5560 1365 C8140000 		.4byte	0x14c8
 5561 1369 0D       		.uleb128 0xd
 5562 136a 34000000 		.4byte	.LVL294
 5563 136e C8140000 		.4byte	0x14c8
 5564 1372 89130000 		.4byte	0x1389
 5565 1376 0E       		.uleb128 0xe
 5566 1377 01       		.uleb128 0x1
 5567 1378 50       		.byte	0x50
 5568 1379 0E       		.uleb128 0xe
 5569 137a 31       		.byte	0x31
 5570 137b 74       		.byte	0x74
 5571 137c 00       		.sleb128 0
 5572 137d 20       		.byte	0x20
 5573 137e 74       		.byte	0x74
 5574 137f 00       		.sleb128 0
 5575 1380 20       		.byte	0x20
 5576 1381 30       		.byte	0x30
 5577 1382 2E       		.byte	0x2e
 5578 1383 28       		.byte	0x28
 5579 1384 0100     		.2byte	0x1
 5580 1386 16       		.byte	0x16
 5581 1387 13       		.byte	0x13
 5582 1388 00       		.byte	0
 5583 1389 1A       		.uleb128 0x1a
 5584 138a 40000000 		.4byte	.LVL296
 5585 138e C8140000 		.4byte	0x14c8
 5586 1392 0E       		.uleb128 0xe
ARM GAS  /var/folders/m4/4md61f0s1_g0rzfghffqnxvr0000gn/T//ccTIFpbg.s 			page 99


 5587 1393 01       		.uleb128 0x1
 5588 1394 50       		.byte	0x50
 5589 1395 01       		.uleb128 0x1
 5590 1396 30       		.byte	0x30
 5591 1397 00       		.byte	0
 5592 1398 00       		.byte	0
 5593 1399 1B       		.uleb128 0x1b
 5594 139a 2B010000 		.4byte	.LASF113
 5595 139e 01       		.byte	0x1
 5596 139f 8D06     		.2byte	0x68d
 5597 13a1 29020000 		.4byte	0x229
 5598 13a5 00000000 		.4byte	.LFB159
 5599 13a9 74000000 		.4byte	.LFE159-.LFB159
 5600 13ad 01       		.uleb128 0x1
 5601 13ae 9C       		.byte	0x9c
 5602 13af 27140000 		.4byte	0x1427
 5603 13b3 18       		.uleb128 0x18
 5604 13b4 8C030000 		.4byte	.LASF55
 5605 13b8 01       		.byte	0x1
 5606 13b9 8D06     		.2byte	0x68d
 5607 13bb F1030000 		.4byte	0x3f1
 5608 13bf A2110000 		.4byte	.LLST82
 5609 13c3 18       		.uleb128 0x18
 5610 13c4 A5020000 		.4byte	.LASF108
 5611 13c8 01       		.byte	0x1
 5612 13c9 8D06     		.2byte	0x68d
 5613 13cb A2000000 		.4byte	0xa2
 5614 13cf D6110000 		.4byte	.LLST83
 5615 13d3 19       		.uleb128 0x19
 5616 13d4 A9080000 		.4byte	.LASF80
 5617 13d8 01       		.byte	0x1
 5618 13d9 8F06     		.2byte	0x68f
 5619 13db 29020000 		.4byte	0x229
 5620 13df 02120000 		.4byte	.LLST84
 5621 13e3 19       		.uleb128 0x19
 5622 13e4 87040000 		.4byte	.LASF109
 5623 13e8 01       		.byte	0x1
 5624 13e9 9006     		.2byte	0x690
 5625 13eb B8000000 		.4byte	0xb8
 5626 13ef 2D120000 		.4byte	.LLST85
 5627 13f3 19       		.uleb128 0x19
 5628 13f4 A8000000 		.4byte	.LASF114
 5629 13f8 01       		.byte	0x1
 5630 13f9 9006     		.2byte	0x690
 5631 13fb B8000000 		.4byte	0xb8
 5632 13ff 60120000 		.4byte	.LLST86
 5633 1403 12       		.uleb128 0x12
 5634 1404 1B050000 		.4byte	.LASF62
 5635 1408 01       		.byte	0x1
 5636 1409 F0       		.byte	0xf0
 5637 140a 89000000 		.4byte	0x89
 5638 140e 14140000 		.4byte	0x1414
 5639 1412 13       		.uleb128 0x13
 5640 1413 00       		.byte	0
 5641 1414 14       		.uleb128 0x14
 5642 1415 22000000 		.4byte	.LVL301
 5643 1419 C8140000 		.4byte	0x14c8
ARM GAS  /var/folders/m4/4md61f0s1_g0rzfghffqnxvr0000gn/T//ccTIFpbg.s 			page 100


 5644 141d 14       		.uleb128 0x14
 5645 141e 4C000000 		.4byte	.LVL302
 5646 1422 C8140000 		.4byte	0x14c8
 5647 1426 00       		.byte	0
 5648 1427 16       		.uleb128 0x16
 5649 1428 FE030000 		.4byte	.LASF115
 5650 142c 01       		.byte	0x1
 5651 142d B606     		.2byte	0x6b6
 5652 142f 00000000 		.4byte	.LFB160
 5653 1433 6C000000 		.4byte	.LFE160-.LFB160
 5654 1437 01       		.uleb128 0x1
 5655 1438 9C       		.byte	0x9c
 5656 1439 A0140000 		.4byte	0x14a0
 5657 143d 18       		.uleb128 0x18
 5658 143e 8C030000 		.4byte	.LASF55
 5659 1442 01       		.byte	0x1
 5660 1443 B606     		.2byte	0x6b6
 5661 1445 F1030000 		.4byte	0x3f1
 5662 1449 95120000 		.4byte	.LLST87
 5663 144d 18       		.uleb128 0x18
 5664 144e A5020000 		.4byte	.LASF108
 5665 1452 01       		.byte	0x1
 5666 1453 B606     		.2byte	0x6b6
 5667 1455 A2000000 		.4byte	0xa2
 5668 1459 C9120000 		.4byte	.LLST88
 5669 145d 19       		.uleb128 0x19
 5670 145e 87040000 		.4byte	.LASF109
 5671 1462 01       		.byte	0x1
 5672 1463 B806     		.2byte	0x6b8
 5673 1465 97000000 		.4byte	0x97
 5674 1469 F5120000 		.4byte	.LLST89
 5675 146d 12       		.uleb128 0x12
 5676 146e 1B050000 		.4byte	.LASF62
 5677 1472 01       		.byte	0x1
 5678 1473 F0       		.byte	0xf0
 5679 1474 89000000 		.4byte	0x89
 5680 1478 7E140000 		.4byte	0x147e
 5681 147c 13       		.uleb128 0x13
 5682 147d 00       		.byte	0
 5683 147e 14       		.uleb128 0x14
 5684 147f 22000000 		.4byte	.LVL310
 5685 1483 C8140000 		.4byte	0x14c8
 5686 1487 14       		.uleb128 0x14
 5687 1488 4C000000 		.4byte	.LVL311
 5688 148c C8140000 		.4byte	0x14c8
 5689 1490 1A       		.uleb128 0x1a
 5690 1491 5A000000 		.4byte	.LVL313
 5691 1495 C8140000 		.4byte	0x14c8
 5692 1499 0E       		.uleb128 0xe
 5693 149a 01       		.uleb128 0x1
 5694 149b 50       		.byte	0x50
 5695 149c 01       		.uleb128 0x1
 5696 149d 31       		.byte	0x31
 5697 149e 00       		.byte	0
 5698 149f 00       		.byte	0
 5699 14a0 1E       		.uleb128 0x1e
 5700 14a1 00050000 		.4byte	.LASF121
ARM GAS  /var/folders/m4/4md61f0s1_g0rzfghffqnxvr0000gn/T//ccTIFpbg.s 			page 101


 5701 14a5 08       		.byte	0x8
 5702 14a6 FA06     		.2byte	0x6fa
 5703 14a8 AC140000 		.4byte	0x14ac
 5704 14ac 05       		.uleb128 0x5
 5705 14ad AD000000 		.4byte	0xad
 5706 14b1 1F       		.uleb128 0x1f
 5707 14b2 2D040000 		.4byte	.LASF116
 5708 14b6 07       		.byte	0x7
 5709 14b7 6203     		.2byte	0x362
 5710 14b9 C8140000 		.4byte	0x14c8
 5711 14bd 20       		.uleb128 0x20
 5712 14be B8000000 		.4byte	0xb8
 5713 14c2 20       		.uleb128 0x20
 5714 14c3 49020000 		.4byte	0x249
 5715 14c7 00       		.byte	0
 5716 14c8 21       		.uleb128 0x21
 5717 14c9 1B050000 		.4byte	.LASF62
 5718 14cd 01       		.byte	0x1
 5719 14ce F0       		.byte	0xf0
 5720 14cf 89000000 		.4byte	0x89
 5721 14d3 13       		.uleb128 0x13
 5722 14d4 00       		.byte	0
 5723 14d5 00       		.byte	0
 5724              		.section	.debug_abbrev,"",%progbits
 5725              	.Ldebug_abbrev0:
 5726 0000 01       		.uleb128 0x1
 5727 0001 11       		.uleb128 0x11
 5728 0002 01       		.byte	0x1
 5729 0003 25       		.uleb128 0x25
 5730 0004 0E       		.uleb128 0xe
 5731 0005 13       		.uleb128 0x13
 5732 0006 0B       		.uleb128 0xb
 5733 0007 03       		.uleb128 0x3
 5734 0008 0E       		.uleb128 0xe
 5735 0009 1B       		.uleb128 0x1b
 5736 000a 0E       		.uleb128 0xe
 5737 000b 55       		.uleb128 0x55
 5738 000c 17       		.uleb128 0x17
 5739 000d 11       		.uleb128 0x11
 5740 000e 01       		.uleb128 0x1
 5741 000f 10       		.uleb128 0x10
 5742 0010 17       		.uleb128 0x17
 5743 0011 00       		.byte	0
 5744 0012 00       		.byte	0
 5745 0013 02       		.uleb128 0x2
 5746 0014 24       		.uleb128 0x24
 5747 0015 00       		.byte	0
 5748 0016 0B       		.uleb128 0xb
 5749 0017 0B       		.uleb128 0xb
 5750 0018 3E       		.uleb128 0x3e
 5751 0019 0B       		.uleb128 0xb
 5752 001a 03       		.uleb128 0x3
 5753 001b 0E       		.uleb128 0xe
 5754 001c 00       		.byte	0
 5755 001d 00       		.byte	0
 5756 001e 03       		.uleb128 0x3
 5757 001f 16       		.uleb128 0x16
ARM GAS  /var/folders/m4/4md61f0s1_g0rzfghffqnxvr0000gn/T//ccTIFpbg.s 			page 102


 5758 0020 00       		.byte	0
 5759 0021 03       		.uleb128 0x3
 5760 0022 0E       		.uleb128 0xe
 5761 0023 3A       		.uleb128 0x3a
 5762 0024 0B       		.uleb128 0xb
 5763 0025 3B       		.uleb128 0x3b
 5764 0026 0B       		.uleb128 0xb
 5765 0027 49       		.uleb128 0x49
 5766 0028 13       		.uleb128 0x13
 5767 0029 00       		.byte	0
 5768 002a 00       		.byte	0
 5769 002b 04       		.uleb128 0x4
 5770 002c 24       		.uleb128 0x24
 5771 002d 00       		.byte	0
 5772 002e 0B       		.uleb128 0xb
 5773 002f 0B       		.uleb128 0xb
 5774 0030 3E       		.uleb128 0x3e
 5775 0031 0B       		.uleb128 0xb
 5776 0032 03       		.uleb128 0x3
 5777 0033 08       		.uleb128 0x8
 5778 0034 00       		.byte	0
 5779 0035 00       		.byte	0
 5780 0036 05       		.uleb128 0x5
 5781 0037 35       		.uleb128 0x35
 5782 0038 00       		.byte	0
 5783 0039 49       		.uleb128 0x49
 5784 003a 13       		.uleb128 0x13
 5785 003b 00       		.byte	0
 5786 003c 00       		.byte	0
 5787 003d 06       		.uleb128 0x6
 5788 003e 13       		.uleb128 0x13
 5789 003f 01       		.byte	0x1
 5790 0040 0B       		.uleb128 0xb
 5791 0041 0B       		.uleb128 0xb
 5792 0042 3A       		.uleb128 0x3a
 5793 0043 0B       		.uleb128 0xb
 5794 0044 3B       		.uleb128 0x3b
 5795 0045 0B       		.uleb128 0xb
 5796 0046 01       		.uleb128 0x1
 5797 0047 13       		.uleb128 0x13
 5798 0048 00       		.byte	0
 5799 0049 00       		.byte	0
 5800 004a 07       		.uleb128 0x7
 5801 004b 0D       		.uleb128 0xd
 5802 004c 00       		.byte	0
 5803 004d 03       		.uleb128 0x3
 5804 004e 08       		.uleb128 0x8
 5805 004f 3A       		.uleb128 0x3a
 5806 0050 0B       		.uleb128 0xb
 5807 0051 3B       		.uleb128 0x3b
 5808 0052 0B       		.uleb128 0xb
 5809 0053 49       		.uleb128 0x49
 5810 0054 13       		.uleb128 0x13
 5811 0055 38       		.uleb128 0x38
 5812 0056 0B       		.uleb128 0xb
 5813 0057 00       		.byte	0
 5814 0058 00       		.byte	0
ARM GAS  /var/folders/m4/4md61f0s1_g0rzfghffqnxvr0000gn/T//ccTIFpbg.s 			page 103


 5815 0059 08       		.uleb128 0x8
 5816 005a 0D       		.uleb128 0xd
 5817 005b 00       		.byte	0
 5818 005c 03       		.uleb128 0x3
 5819 005d 0E       		.uleb128 0xe
 5820 005e 3A       		.uleb128 0x3a
 5821 005f 0B       		.uleb128 0xb
 5822 0060 3B       		.uleb128 0x3b
 5823 0061 0B       		.uleb128 0xb
 5824 0062 49       		.uleb128 0x49
 5825 0063 13       		.uleb128 0x13
 5826 0064 38       		.uleb128 0x38
 5827 0065 0B       		.uleb128 0xb
 5828 0066 00       		.byte	0
 5829 0067 00       		.byte	0
 5830 0068 09       		.uleb128 0x9
 5831 0069 04       		.uleb128 0x4
 5832 006a 01       		.byte	0x1
 5833 006b 0B       		.uleb128 0xb
 5834 006c 0B       		.uleb128 0xb
 5835 006d 3A       		.uleb128 0x3a
 5836 006e 0B       		.uleb128 0xb
 5837 006f 3B       		.uleb128 0x3b
 5838 0070 0B       		.uleb128 0xb
 5839 0071 01       		.uleb128 0x1
 5840 0072 13       		.uleb128 0x13
 5841 0073 00       		.byte	0
 5842 0074 00       		.byte	0
 5843 0075 0A       		.uleb128 0xa
 5844 0076 28       		.uleb128 0x28
 5845 0077 00       		.byte	0
 5846 0078 03       		.uleb128 0x3
 5847 0079 0E       		.uleb128 0xe
 5848 007a 1C       		.uleb128 0x1c
 5849 007b 0D       		.uleb128 0xd
 5850 007c 00       		.byte	0
 5851 007d 00       		.byte	0
 5852 007e 0B       		.uleb128 0xb
 5853 007f 28       		.uleb128 0x28
 5854 0080 00       		.byte	0
 5855 0081 03       		.uleb128 0x3
 5856 0082 08       		.uleb128 0x8
 5857 0083 1C       		.uleb128 0x1c
 5858 0084 0D       		.uleb128 0xd
 5859 0085 00       		.byte	0
 5860 0086 00       		.byte	0
 5861 0087 0C       		.uleb128 0xc
 5862 0088 2E       		.uleb128 0x2e
 5863 0089 01       		.byte	0x1
 5864 008a 3F       		.uleb128 0x3f
 5865 008b 19       		.uleb128 0x19
 5866 008c 03       		.uleb128 0x3
 5867 008d 0E       		.uleb128 0xe
 5868 008e 3A       		.uleb128 0x3a
 5869 008f 0B       		.uleb128 0xb
 5870 0090 3B       		.uleb128 0x3b
 5871 0091 0B       		.uleb128 0xb
ARM GAS  /var/folders/m4/4md61f0s1_g0rzfghffqnxvr0000gn/T//ccTIFpbg.s 			page 104


 5872 0092 27       		.uleb128 0x27
 5873 0093 19       		.uleb128 0x19
 5874 0094 11       		.uleb128 0x11
 5875 0095 01       		.uleb128 0x1
 5876 0096 12       		.uleb128 0x12
 5877 0097 06       		.uleb128 0x6
 5878 0098 40       		.uleb128 0x40
 5879 0099 18       		.uleb128 0x18
 5880 009a 9742     		.uleb128 0x2117
 5881 009c 19       		.uleb128 0x19
 5882 009d 01       		.uleb128 0x1
 5883 009e 13       		.uleb128 0x13
 5884 009f 00       		.byte	0
 5885 00a0 00       		.byte	0
 5886 00a1 0D       		.uleb128 0xd
 5887 00a2 898201   		.uleb128 0x4109
 5888 00a5 01       		.byte	0x1
 5889 00a6 11       		.uleb128 0x11
 5890 00a7 01       		.uleb128 0x1
 5891 00a8 31       		.uleb128 0x31
 5892 00a9 13       		.uleb128 0x13
 5893 00aa 01       		.uleb128 0x1
 5894 00ab 13       		.uleb128 0x13
 5895 00ac 00       		.byte	0
 5896 00ad 00       		.byte	0
 5897 00ae 0E       		.uleb128 0xe
 5898 00af 8A8201   		.uleb128 0x410a
 5899 00b2 00       		.byte	0
 5900 00b3 02       		.uleb128 0x2
 5901 00b4 18       		.uleb128 0x18
 5902 00b5 9142     		.uleb128 0x2111
 5903 00b7 18       		.uleb128 0x18
 5904 00b8 00       		.byte	0
 5905 00b9 00       		.byte	0
 5906 00ba 0F       		.uleb128 0xf
 5907 00bb 898201   		.uleb128 0x4109
 5908 00be 01       		.byte	0x1
 5909 00bf 11       		.uleb128 0x11
 5910 00c0 01       		.uleb128 0x1
 5911 00c1 9542     		.uleb128 0x2115
 5912 00c3 19       		.uleb128 0x19
 5913 00c4 31       		.uleb128 0x31
 5914 00c5 13       		.uleb128 0x13
 5915 00c6 00       		.byte	0
 5916 00c7 00       		.byte	0
 5917 00c8 10       		.uleb128 0x10
 5918 00c9 05       		.uleb128 0x5
 5919 00ca 00       		.byte	0
 5920 00cb 03       		.uleb128 0x3
 5921 00cc 0E       		.uleb128 0xe
 5922 00cd 3A       		.uleb128 0x3a
 5923 00ce 0B       		.uleb128 0xb
 5924 00cf 3B       		.uleb128 0x3b
 5925 00d0 0B       		.uleb128 0xb
 5926 00d1 49       		.uleb128 0x49
 5927 00d2 13       		.uleb128 0x13
 5928 00d3 02       		.uleb128 0x2
ARM GAS  /var/folders/m4/4md61f0s1_g0rzfghffqnxvr0000gn/T//ccTIFpbg.s 			page 105


 5929 00d4 17       		.uleb128 0x17
 5930 00d5 00       		.byte	0
 5931 00d6 00       		.byte	0
 5932 00d7 11       		.uleb128 0x11
 5933 00d8 34       		.uleb128 0x34
 5934 00d9 00       		.byte	0
 5935 00da 03       		.uleb128 0x3
 5936 00db 0E       		.uleb128 0xe
 5937 00dc 3A       		.uleb128 0x3a
 5938 00dd 0B       		.uleb128 0xb
 5939 00de 3B       		.uleb128 0x3b
 5940 00df 0B       		.uleb128 0xb
 5941 00e0 49       		.uleb128 0x49
 5942 00e1 13       		.uleb128 0x13
 5943 00e2 02       		.uleb128 0x2
 5944 00e3 17       		.uleb128 0x17
 5945 00e4 00       		.byte	0
 5946 00e5 00       		.byte	0
 5947 00e6 12       		.uleb128 0x12
 5948 00e7 2E       		.uleb128 0x2e
 5949 00e8 01       		.byte	0x1
 5950 00e9 3F       		.uleb128 0x3f
 5951 00ea 19       		.uleb128 0x19
 5952 00eb 03       		.uleb128 0x3
 5953 00ec 0E       		.uleb128 0xe
 5954 00ed 3A       		.uleb128 0x3a
 5955 00ee 0B       		.uleb128 0xb
 5956 00ef 3B       		.uleb128 0x3b
 5957 00f0 0B       		.uleb128 0xb
 5958 00f1 49       		.uleb128 0x49
 5959 00f2 13       		.uleb128 0x13
 5960 00f3 3C       		.uleb128 0x3c
 5961 00f4 19       		.uleb128 0x19
 5962 00f5 01       		.uleb128 0x1
 5963 00f6 13       		.uleb128 0x13
 5964 00f7 00       		.byte	0
 5965 00f8 00       		.byte	0
 5966 00f9 13       		.uleb128 0x13
 5967 00fa 18       		.uleb128 0x18
 5968 00fb 00       		.byte	0
 5969 00fc 00       		.byte	0
 5970 00fd 00       		.byte	0
 5971 00fe 14       		.uleb128 0x14
 5972 00ff 898201   		.uleb128 0x4109
 5973 0102 00       		.byte	0
 5974 0103 11       		.uleb128 0x11
 5975 0104 01       		.uleb128 0x1
 5976 0105 31       		.uleb128 0x31
 5977 0106 13       		.uleb128 0x13
 5978 0107 00       		.byte	0
 5979 0108 00       		.byte	0
 5980 0109 15       		.uleb128 0x15
 5981 010a 0F       		.uleb128 0xf
 5982 010b 00       		.byte	0
 5983 010c 0B       		.uleb128 0xb
 5984 010d 0B       		.uleb128 0xb
 5985 010e 49       		.uleb128 0x49
ARM GAS  /var/folders/m4/4md61f0s1_g0rzfghffqnxvr0000gn/T//ccTIFpbg.s 			page 106


 5986 010f 13       		.uleb128 0x13
 5987 0110 00       		.byte	0
 5988 0111 00       		.byte	0
 5989 0112 16       		.uleb128 0x16
 5990 0113 2E       		.uleb128 0x2e
 5991 0114 01       		.byte	0x1
 5992 0115 3F       		.uleb128 0x3f
 5993 0116 19       		.uleb128 0x19
 5994 0117 03       		.uleb128 0x3
 5995 0118 0E       		.uleb128 0xe
 5996 0119 3A       		.uleb128 0x3a
 5997 011a 0B       		.uleb128 0xb
 5998 011b 3B       		.uleb128 0x3b
 5999 011c 05       		.uleb128 0x5
 6000 011d 27       		.uleb128 0x27
 6001 011e 19       		.uleb128 0x19
 6002 011f 11       		.uleb128 0x11
 6003 0120 01       		.uleb128 0x1
 6004 0121 12       		.uleb128 0x12
 6005 0122 06       		.uleb128 0x6
 6006 0123 40       		.uleb128 0x40
 6007 0124 18       		.uleb128 0x18
 6008 0125 9742     		.uleb128 0x2117
 6009 0127 19       		.uleb128 0x19
 6010 0128 01       		.uleb128 0x1
 6011 0129 13       		.uleb128 0x13
 6012 012a 00       		.byte	0
 6013 012b 00       		.byte	0
 6014 012c 17       		.uleb128 0x17
 6015 012d 05       		.uleb128 0x5
 6016 012e 00       		.byte	0
 6017 012f 03       		.uleb128 0x3
 6018 0130 0E       		.uleb128 0xe
 6019 0131 3A       		.uleb128 0x3a
 6020 0132 0B       		.uleb128 0xb
 6021 0133 3B       		.uleb128 0x3b
 6022 0134 05       		.uleb128 0x5
 6023 0135 49       		.uleb128 0x49
 6024 0136 13       		.uleb128 0x13
 6025 0137 02       		.uleb128 0x2
 6026 0138 18       		.uleb128 0x18
 6027 0139 00       		.byte	0
 6028 013a 00       		.byte	0
 6029 013b 18       		.uleb128 0x18
 6030 013c 05       		.uleb128 0x5
 6031 013d 00       		.byte	0
 6032 013e 03       		.uleb128 0x3
 6033 013f 0E       		.uleb128 0xe
 6034 0140 3A       		.uleb128 0x3a
 6035 0141 0B       		.uleb128 0xb
 6036 0142 3B       		.uleb128 0x3b
 6037 0143 05       		.uleb128 0x5
 6038 0144 49       		.uleb128 0x49
 6039 0145 13       		.uleb128 0x13
 6040 0146 02       		.uleb128 0x2
 6041 0147 17       		.uleb128 0x17
 6042 0148 00       		.byte	0
ARM GAS  /var/folders/m4/4md61f0s1_g0rzfghffqnxvr0000gn/T//ccTIFpbg.s 			page 107


 6043 0149 00       		.byte	0
 6044 014a 19       		.uleb128 0x19
 6045 014b 34       		.uleb128 0x34
 6046 014c 00       		.byte	0
 6047 014d 03       		.uleb128 0x3
 6048 014e 0E       		.uleb128 0xe
 6049 014f 3A       		.uleb128 0x3a
 6050 0150 0B       		.uleb128 0xb
 6051 0151 3B       		.uleb128 0x3b
 6052 0152 05       		.uleb128 0x5
 6053 0153 49       		.uleb128 0x49
 6054 0154 13       		.uleb128 0x13
 6055 0155 02       		.uleb128 0x2
 6056 0156 17       		.uleb128 0x17
 6057 0157 00       		.byte	0
 6058 0158 00       		.byte	0
 6059 0159 1A       		.uleb128 0x1a
 6060 015a 898201   		.uleb128 0x4109
 6061 015d 01       		.byte	0x1
 6062 015e 11       		.uleb128 0x11
 6063 015f 01       		.uleb128 0x1
 6064 0160 31       		.uleb128 0x31
 6065 0161 13       		.uleb128 0x13
 6066 0162 00       		.byte	0
 6067 0163 00       		.byte	0
 6068 0164 1B       		.uleb128 0x1b
 6069 0165 2E       		.uleb128 0x2e
 6070 0166 01       		.byte	0x1
 6071 0167 3F       		.uleb128 0x3f
 6072 0168 19       		.uleb128 0x19
 6073 0169 03       		.uleb128 0x3
 6074 016a 0E       		.uleb128 0xe
 6075 016b 3A       		.uleb128 0x3a
 6076 016c 0B       		.uleb128 0xb
 6077 016d 3B       		.uleb128 0x3b
 6078 016e 05       		.uleb128 0x5
 6079 016f 27       		.uleb128 0x27
 6080 0170 19       		.uleb128 0x19
 6081 0171 49       		.uleb128 0x49
 6082 0172 13       		.uleb128 0x13
 6083 0173 11       		.uleb128 0x11
 6084 0174 01       		.uleb128 0x1
 6085 0175 12       		.uleb128 0x12
 6086 0176 06       		.uleb128 0x6
 6087 0177 40       		.uleb128 0x40
 6088 0178 18       		.uleb128 0x18
 6089 0179 9742     		.uleb128 0x2117
 6090 017b 19       		.uleb128 0x19
 6091 017c 01       		.uleb128 0x1
 6092 017d 13       		.uleb128 0x13
 6093 017e 00       		.byte	0
 6094 017f 00       		.byte	0
 6095 0180 1C       		.uleb128 0x1c
 6096 0181 2E       		.uleb128 0x2e
 6097 0182 00       		.byte	0
 6098 0183 3F       		.uleb128 0x3f
 6099 0184 19       		.uleb128 0x19
ARM GAS  /var/folders/m4/4md61f0s1_g0rzfghffqnxvr0000gn/T//ccTIFpbg.s 			page 108


 6100 0185 03       		.uleb128 0x3
 6101 0186 0E       		.uleb128 0xe
 6102 0187 3A       		.uleb128 0x3a
 6103 0188 0B       		.uleb128 0xb
 6104 0189 3B       		.uleb128 0x3b
 6105 018a 05       		.uleb128 0x5
 6106 018b 27       		.uleb128 0x27
 6107 018c 19       		.uleb128 0x19
 6108 018d 49       		.uleb128 0x49
 6109 018e 13       		.uleb128 0x13
 6110 018f 11       		.uleb128 0x11
 6111 0190 01       		.uleb128 0x1
 6112 0191 12       		.uleb128 0x12
 6113 0192 06       		.uleb128 0x6
 6114 0193 40       		.uleb128 0x40
 6115 0194 18       		.uleb128 0x18
 6116 0195 9742     		.uleb128 0x2117
 6117 0197 19       		.uleb128 0x19
 6118 0198 00       		.byte	0
 6119 0199 00       		.byte	0
 6120 019a 1D       		.uleb128 0x1d
 6121 019b 34       		.uleb128 0x34
 6122 019c 00       		.byte	0
 6123 019d 03       		.uleb128 0x3
 6124 019e 08       		.uleb128 0x8
 6125 019f 3A       		.uleb128 0x3a
 6126 01a0 0B       		.uleb128 0xb
 6127 01a1 3B       		.uleb128 0x3b
 6128 01a2 05       		.uleb128 0x5
 6129 01a3 49       		.uleb128 0x49
 6130 01a4 13       		.uleb128 0x13
 6131 01a5 02       		.uleb128 0x2
 6132 01a6 18       		.uleb128 0x18
 6133 01a7 00       		.byte	0
 6134 01a8 00       		.byte	0
 6135 01a9 1E       		.uleb128 0x1e
 6136 01aa 34       		.uleb128 0x34
 6137 01ab 00       		.byte	0
 6138 01ac 03       		.uleb128 0x3
 6139 01ad 0E       		.uleb128 0xe
 6140 01ae 3A       		.uleb128 0x3a
 6141 01af 0B       		.uleb128 0xb
 6142 01b0 3B       		.uleb128 0x3b
 6143 01b1 05       		.uleb128 0x5
 6144 01b2 49       		.uleb128 0x49
 6145 01b3 13       		.uleb128 0x13
 6146 01b4 3F       		.uleb128 0x3f
 6147 01b5 19       		.uleb128 0x19
 6148 01b6 3C       		.uleb128 0x3c
 6149 01b7 19       		.uleb128 0x19
 6150 01b8 00       		.byte	0
 6151 01b9 00       		.byte	0
 6152 01ba 1F       		.uleb128 0x1f
 6153 01bb 2E       		.uleb128 0x2e
 6154 01bc 01       		.byte	0x1
 6155 01bd 3F       		.uleb128 0x3f
 6156 01be 19       		.uleb128 0x19
ARM GAS  /var/folders/m4/4md61f0s1_g0rzfghffqnxvr0000gn/T//ccTIFpbg.s 			page 109


 6157 01bf 03       		.uleb128 0x3
 6158 01c0 0E       		.uleb128 0xe
 6159 01c1 3A       		.uleb128 0x3a
 6160 01c2 0B       		.uleb128 0xb
 6161 01c3 3B       		.uleb128 0x3b
 6162 01c4 05       		.uleb128 0x5
 6163 01c5 27       		.uleb128 0x27
 6164 01c6 19       		.uleb128 0x19
 6165 01c7 3C       		.uleb128 0x3c
 6166 01c8 19       		.uleb128 0x19
 6167 01c9 01       		.uleb128 0x1
 6168 01ca 13       		.uleb128 0x13
 6169 01cb 00       		.byte	0
 6170 01cc 00       		.byte	0
 6171 01cd 20       		.uleb128 0x20
 6172 01ce 05       		.uleb128 0x5
 6173 01cf 00       		.byte	0
 6174 01d0 49       		.uleb128 0x49
 6175 01d1 13       		.uleb128 0x13
 6176 01d2 00       		.byte	0
 6177 01d3 00       		.byte	0
 6178 01d4 21       		.uleb128 0x21
 6179 01d5 2E       		.uleb128 0x2e
 6180 01d6 01       		.byte	0x1
 6181 01d7 3F       		.uleb128 0x3f
 6182 01d8 19       		.uleb128 0x19
 6183 01d9 03       		.uleb128 0x3
 6184 01da 0E       		.uleb128 0xe
 6185 01db 3A       		.uleb128 0x3a
 6186 01dc 0B       		.uleb128 0xb
 6187 01dd 3B       		.uleb128 0x3b
 6188 01de 0B       		.uleb128 0xb
 6189 01df 49       		.uleb128 0x49
 6190 01e0 13       		.uleb128 0x13
 6191 01e1 3C       		.uleb128 0x3c
 6192 01e2 19       		.uleb128 0x19
 6193 01e3 00       		.byte	0
 6194 01e4 00       		.byte	0
 6195 01e5 00       		.byte	0
 6196              		.section	.debug_loc,"",%progbits
 6197              	.Ldebug_loc0:
 6198              	.LLST0:
 6199 0000 00000000 		.4byte	.LVL2
 6200 0004 16000000 		.4byte	.LVL3
 6201 0008 0100     		.2byte	0x1
 6202 000a 50       		.byte	0x50
 6203 000b 16000000 		.4byte	.LVL3
 6204 000f EC000000 		.4byte	.LVL24
 6205 0013 0100     		.2byte	0x1
 6206 0015 55       		.byte	0x55
 6207 0016 EC000000 		.4byte	.LVL24
 6208 001a EE000000 		.4byte	.LVL25
 6209 001e 0100     		.2byte	0x1
 6210 0020 50       		.byte	0x50
 6211 0021 EE000000 		.4byte	.LVL25
 6212 0025 1C010000 		.4byte	.LFE124
 6213 0029 0100     		.2byte	0x1
ARM GAS  /var/folders/m4/4md61f0s1_g0rzfghffqnxvr0000gn/T//ccTIFpbg.s 			page 110


 6214 002b 55       		.byte	0x55
 6215 002c 00000000 		.4byte	0
 6216 0030 00000000 		.4byte	0
 6217              	.LLST1:
 6218 0034 00000000 		.4byte	.LVL2
 6219 0038 21000000 		.4byte	.LVL4-1
 6220 003c 0100     		.2byte	0x1
 6221 003e 51       		.byte	0x51
 6222 003f 21000000 		.4byte	.LVL4-1
 6223 0043 EC000000 		.4byte	.LVL24
 6224 0047 0100     		.2byte	0x1
 6225 0049 54       		.byte	0x54
 6226 004a EC000000 		.4byte	.LVL24
 6227 004e F0000000 		.4byte	.LVL26
 6228 0052 0100     		.2byte	0x1
 6229 0054 51       		.byte	0x51
 6230 0055 F0000000 		.4byte	.LVL26
 6231 0059 1C010000 		.4byte	.LFE124
 6232 005d 0100     		.2byte	0x1
 6233 005f 54       		.byte	0x54
 6234 0060 00000000 		.4byte	0
 6235 0064 00000000 		.4byte	0
 6236              	.LLST2:
 6237 0068 00000000 		.4byte	.LVL2
 6238 006c A0000000 		.4byte	.LVL12
 6239 0070 0200     		.2byte	0x2
 6240 0072 30       		.byte	0x30
 6241 0073 9F       		.byte	0x9f
 6242 0074 A0000000 		.4byte	.LVL12
 6243 0078 B6000000 		.4byte	.LVL13
 6244 007c 0900     		.2byte	0x9
 6245 007e 71       		.byte	0x71
 6246 007f 00       		.sleb128 0
 6247 0080 11       		.byte	0x11
 6248 0081 FFFDFF67 		.sleb128 -50331905
 6249 0085 1A       		.byte	0x1a
 6250 0086 9F       		.byte	0x9f
 6251 0087 C0000000 		.4byte	.LVL14
 6252 008b C4000000 		.4byte	.LVL15
 6253 008f 0100     		.2byte	0x1
 6254 0091 52       		.byte	0x52
 6255 0092 C4000000 		.4byte	.LVL15
 6256 0096 CC000000 		.4byte	.LVL16
 6257 009a 0A00     		.2byte	0xa
 6258 009c 71       		.byte	0x71
 6259 009d 00       		.sleb128 0
 6260 009e 11       		.byte	0x11
 6261 009f FDEFFF87 		.sleb128 -1056966659
 6261      7C
 6262 00a4 1A       		.byte	0x1a
 6263 00a5 9F       		.byte	0x9f
 6264 00a6 CC000000 		.4byte	.LVL16
 6265 00aa CE000000 		.4byte	.LVL17
 6266 00ae 0100     		.2byte	0x1
 6267 00b0 53       		.byte	0x53
 6268 00b1 CE000000 		.4byte	.LVL17
 6269 00b5 D2000000 		.4byte	.LVL18
ARM GAS  /var/folders/m4/4md61f0s1_g0rzfghffqnxvr0000gn/T//ccTIFpbg.s 			page 111


 6270 00b9 0A00     		.2byte	0xa
 6271 00bb 71       		.byte	0x71
 6272 00bc 00       		.sleb128 0
 6273 00bd 11       		.byte	0x11
 6274 00be FDEFFF87 		.sleb128 -1056966659
 6274      7C
 6275 00c3 1A       		.byte	0x1a
 6276 00c4 9F       		.byte	0x9f
 6277 00c5 D2000000 		.4byte	.LVL18
 6278 00c9 E8000000 		.4byte	.LVL23
 6279 00cd 0100     		.2byte	0x1
 6280 00cf 53       		.byte	0x53
 6281 00d0 E8000000 		.4byte	.LVL23
 6282 00d4 1C010000 		.4byte	.LFE124
 6283 00d8 0200     		.2byte	0x2
 6284 00da 30       		.byte	0x30
 6285 00db 9F       		.byte	0x9f
 6286 00dc 00000000 		.4byte	0
 6287 00e0 00000000 		.4byte	0
 6288              	.LLST3:
 6289 00e4 00000000 		.4byte	.LVL2
 6290 00e8 E0000000 		.4byte	.LVL20
 6291 00ec 0200     		.2byte	0x2
 6292 00ee 30       		.byte	0x30
 6293 00ef 9F       		.byte	0x9f
 6294 00f0 E0000000 		.4byte	.LVL20
 6295 00f4 E6000000 		.4byte	.LVL22
 6296 00f8 0700     		.2byte	0x7
 6297 00fa 74       		.byte	0x74
 6298 00fb 14       		.sleb128 20
 6299 00fc 94       		.byte	0x94
 6300 00fd 01       		.byte	0x1
 6301 00fe 31       		.byte	0x31
 6302 00ff 1C       		.byte	0x1c
 6303 0100 9F       		.byte	0x9f
 6304 0101 E8000000 		.4byte	.LVL23
 6305 0105 1C010000 		.4byte	.LFE124
 6306 0109 0200     		.2byte	0x2
 6307 010b 30       		.byte	0x30
 6308 010c 9F       		.byte	0x9f
 6309 010d 00000000 		.4byte	0
 6310 0111 00000000 		.4byte	0
 6311              	.LLST4:
 6312 0115 00000000 		.4byte	.LVL28
 6313 0119 06000000 		.4byte	.LVL29
 6314 011d 0100     		.2byte	0x1
 6315 011f 50       		.byte	0x50
 6316 0120 06000000 		.4byte	.LVL29
 6317 0124 9A000000 		.4byte	.LVL34
 6318 0128 0100     		.2byte	0x1
 6319 012a 54       		.byte	0x54
 6320 012b 9A000000 		.4byte	.LVL34
 6321 012f B0000000 		.4byte	.LFE126
 6322 0133 0400     		.2byte	0x4
 6323 0135 F3       		.byte	0xf3
 6324 0136 01       		.uleb128 0x1
 6325 0137 50       		.byte	0x50
ARM GAS  /var/folders/m4/4md61f0s1_g0rzfghffqnxvr0000gn/T//ccTIFpbg.s 			page 112


 6326 0138 9F       		.byte	0x9f
 6327 0139 00000000 		.4byte	0
 6328 013d 00000000 		.4byte	0
 6329              	.LLST5:
 6330 0141 00000000 		.4byte	.LVL28
 6331 0145 9A000000 		.4byte	.LVL34
 6332 0149 0200     		.2byte	0x2
 6333 014b 30       		.byte	0x30
 6334 014c 9F       		.byte	0x9f
 6335 014d 9A000000 		.4byte	.LVL34
 6336 0151 A2000000 		.4byte	.LVL35
 6337 0155 0100     		.2byte	0x1
 6338 0157 54       		.byte	0x54
 6339 0158 A2000000 		.4byte	.LVL35
 6340 015c B0000000 		.4byte	.LFE126
 6341 0160 0100     		.2byte	0x1
 6342 0162 53       		.byte	0x53
 6343 0163 00000000 		.4byte	0
 6344 0167 00000000 		.4byte	0
 6345              	.LLST6:
 6346 016b 00000000 		.4byte	.LVL38
 6347 016f 16000000 		.4byte	.LVL39
 6348 0173 0100     		.2byte	0x1
 6349 0175 50       		.byte	0x50
 6350 0176 16000000 		.4byte	.LVL39
 6351 017a 42000000 		.4byte	.LVL43
 6352 017e 0100     		.2byte	0x1
 6353 0180 54       		.byte	0x54
 6354 0181 42000000 		.4byte	.LVL43
 6355 0185 44000000 		.4byte	.LVL44
 6356 0189 0100     		.2byte	0x1
 6357 018b 50       		.byte	0x50
 6358 018c 44000000 		.4byte	.LVL44
 6359 0190 50000000 		.4byte	.LFE128
 6360 0194 0100     		.2byte	0x1
 6361 0196 54       		.byte	0x54
 6362 0197 00000000 		.4byte	0
 6363 019b 00000000 		.4byte	0
 6364              	.LLST7:
 6365 019f 00000000 		.4byte	.LVL38
 6366 01a3 21000000 		.4byte	.LVL40-1
 6367 01a7 0100     		.2byte	0x1
 6368 01a9 51       		.byte	0x51
 6369 01aa 21000000 		.4byte	.LVL40-1
 6370 01ae 42000000 		.4byte	.LVL43
 6371 01b2 0400     		.2byte	0x4
 6372 01b4 F3       		.byte	0xf3
 6373 01b5 01       		.uleb128 0x1
 6374 01b6 51       		.byte	0x51
 6375 01b7 9F       		.byte	0x9f
 6376 01b8 42000000 		.4byte	.LVL43
 6377 01bc 50000000 		.4byte	.LFE128
 6378 01c0 0100     		.2byte	0x1
 6379 01c2 51       		.byte	0x51
 6380 01c3 00000000 		.4byte	0
 6381 01c7 00000000 		.4byte	0
 6382              	.LLST8:
ARM GAS  /var/folders/m4/4md61f0s1_g0rzfghffqnxvr0000gn/T//ccTIFpbg.s 			page 113


 6383 01cb 00000000 		.4byte	.LVL45
 6384 01cf 16000000 		.4byte	.LVL46
 6385 01d3 0100     		.2byte	0x1
 6386 01d5 50       		.byte	0x50
 6387 01d6 16000000 		.4byte	.LVL46
 6388 01da 5E000000 		.4byte	.LVL53
 6389 01de 0100     		.2byte	0x1
 6390 01e0 54       		.byte	0x54
 6391 01e1 5E000000 		.4byte	.LVL53
 6392 01e5 60000000 		.4byte	.LVL54
 6393 01e9 0100     		.2byte	0x1
 6394 01eb 50       		.byte	0x50
 6395 01ec 60000000 		.4byte	.LVL54
 6396 01f0 70000000 		.4byte	.LFE129
 6397 01f4 0100     		.2byte	0x1
 6398 01f6 54       		.byte	0x54
 6399 01f7 00000000 		.4byte	0
 6400 01fb 00000000 		.4byte	0
 6401              	.LLST9:
 6402 01ff 00000000 		.4byte	.LVL45
 6403 0203 21000000 		.4byte	.LVL47-1
 6404 0207 0100     		.2byte	0x1
 6405 0209 51       		.byte	0x51
 6406 020a 21000000 		.4byte	.LVL47-1
 6407 020e 5E000000 		.4byte	.LVL53
 6408 0212 0100     		.2byte	0x1
 6409 0214 55       		.byte	0x55
 6410 0215 5E000000 		.4byte	.LVL53
 6411 0219 70000000 		.4byte	.LFE129
 6412 021d 0100     		.2byte	0x1
 6413 021f 51       		.byte	0x51
 6414 0220 00000000 		.4byte	0
 6415 0224 00000000 		.4byte	0
 6416              	.LLST10:
 6417 0228 00000000 		.4byte	.LVL45
 6418 022c 4C000000 		.4byte	.LVL49
 6419 0230 0200     		.2byte	0x2
 6420 0232 30       		.byte	0x30
 6421 0233 9F       		.byte	0x9f
 6422 0234 4C000000 		.4byte	.LVL49
 6423 0238 54000000 		.4byte	.LVL50
 6424 023c 0100     		.2byte	0x1
 6425 023e 52       		.byte	0x52
 6426 023f 54000000 		.4byte	.LVL50
 6427 0243 5A000000 		.4byte	.LVL52
 6428 0247 0100     		.2byte	0x1
 6429 0249 53       		.byte	0x53
 6430 024a 5A000000 		.4byte	.LVL52
 6431 024e 70000000 		.4byte	.LFE129
 6432 0252 0200     		.2byte	0x2
 6433 0254 30       		.byte	0x30
 6434 0255 9F       		.byte	0x9f
 6435 0256 00000000 		.4byte	0
 6436 025a 00000000 		.4byte	0
 6437              	.LLST11:
 6438 025e 00000000 		.4byte	.LVL55
 6439 0262 18000000 		.4byte	.LVL56
ARM GAS  /var/folders/m4/4md61f0s1_g0rzfghffqnxvr0000gn/T//ccTIFpbg.s 			page 114


 6440 0266 0100     		.2byte	0x1
 6441 0268 50       		.byte	0x50
 6442 0269 18000000 		.4byte	.LVL56
 6443 026d 46000000 		.4byte	.LVL60
 6444 0271 0100     		.2byte	0x1
 6445 0273 54       		.byte	0x54
 6446 0274 46000000 		.4byte	.LVL60
 6447 0278 48000000 		.4byte	.LVL61
 6448 027c 0100     		.2byte	0x1
 6449 027e 50       		.byte	0x50
 6450 027f 48000000 		.4byte	.LVL61
 6451 0283 54000000 		.4byte	.LFE130
 6452 0287 0100     		.2byte	0x1
 6453 0289 54       		.byte	0x54
 6454 028a 00000000 		.4byte	0
 6455 028e 00000000 		.4byte	0
 6456              	.LLST12:
 6457 0292 00000000 		.4byte	.LVL55
 6458 0296 27000000 		.4byte	.LVL57-1
 6459 029a 0100     		.2byte	0x1
 6460 029c 51       		.byte	0x51
 6461 029d 27000000 		.4byte	.LVL57-1
 6462 02a1 46000000 		.4byte	.LVL60
 6463 02a5 0400     		.2byte	0x4
 6464 02a7 F3       		.byte	0xf3
 6465 02a8 01       		.uleb128 0x1
 6466 02a9 51       		.byte	0x51
 6467 02aa 9F       		.byte	0x9f
 6468 02ab 46000000 		.4byte	.LVL60
 6469 02af 54000000 		.4byte	.LFE130
 6470 02b3 0100     		.2byte	0x1
 6471 02b5 51       		.byte	0x51
 6472 02b6 00000000 		.4byte	0
 6473 02ba 00000000 		.4byte	0
 6474              	.LLST13:
 6475 02be 00000000 		.4byte	.LVL55
 6476 02c2 27000000 		.4byte	.LVL57-1
 6477 02c6 0100     		.2byte	0x1
 6478 02c8 52       		.byte	0x52
 6479 02c9 27000000 		.4byte	.LVL57-1
 6480 02cd 46000000 		.4byte	.LVL60
 6481 02d1 0400     		.2byte	0x4
 6482 02d3 F3       		.byte	0xf3
 6483 02d4 01       		.uleb128 0x1
 6484 02d5 52       		.byte	0x52
 6485 02d6 9F       		.byte	0x9f
 6486 02d7 46000000 		.4byte	.LVL60
 6487 02db 54000000 		.4byte	.LFE130
 6488 02df 0100     		.2byte	0x1
 6489 02e1 52       		.byte	0x52
 6490 02e2 00000000 		.4byte	0
 6491 02e6 00000000 		.4byte	0
 6492              	.LLST14:
 6493 02ea 00000000 		.4byte	.LVL62
 6494 02ee 16000000 		.4byte	.LVL63
 6495 02f2 0100     		.2byte	0x1
 6496 02f4 50       		.byte	0x50
ARM GAS  /var/folders/m4/4md61f0s1_g0rzfghffqnxvr0000gn/T//ccTIFpbg.s 			page 115


 6497 02f5 16000000 		.4byte	.LVL63
 6498 02f9 3A000000 		.4byte	.LVL69
 6499 02fd 0100     		.2byte	0x1
 6500 02ff 54       		.byte	0x54
 6501 0300 3A000000 		.4byte	.LVL69
 6502 0304 3C000000 		.4byte	.LVL70
 6503 0308 0100     		.2byte	0x1
 6504 030a 50       		.byte	0x50
 6505 030b 3C000000 		.4byte	.LVL70
 6506 030f 48000000 		.4byte	.LFE131
 6507 0313 0100     		.2byte	0x1
 6508 0315 54       		.byte	0x54
 6509 0316 00000000 		.4byte	0
 6510 031a 00000000 		.4byte	0
 6511              	.LLST15:
 6512 031e 00000000 		.4byte	.LVL62
 6513 0322 21000000 		.4byte	.LVL64-1
 6514 0326 0100     		.2byte	0x1
 6515 0328 51       		.byte	0x51
 6516 0329 21000000 		.4byte	.LVL64-1
 6517 032d 3A000000 		.4byte	.LVL69
 6518 0331 0400     		.2byte	0x4
 6519 0333 F3       		.byte	0xf3
 6520 0334 01       		.uleb128 0x1
 6521 0335 51       		.byte	0x51
 6522 0336 9F       		.byte	0x9f
 6523 0337 3A000000 		.4byte	.LVL69
 6524 033b 48000000 		.4byte	.LFE131
 6525 033f 0100     		.2byte	0x1
 6526 0341 51       		.byte	0x51
 6527 0342 00000000 		.4byte	0
 6528 0346 00000000 		.4byte	0
 6529              	.LLST16:
 6530 034a 00000000 		.4byte	.LVL62
 6531 034e 30000000 		.4byte	.LVL66
 6532 0352 0200     		.2byte	0x2
 6533 0354 30       		.byte	0x30
 6534 0355 9F       		.byte	0x9f
 6535 0356 30000000 		.4byte	.LVL66
 6536 035a 3A000000 		.4byte	.LVL69
 6537 035e 0100     		.2byte	0x1
 6538 0360 51       		.byte	0x51
 6539 0361 3A000000 		.4byte	.LVL69
 6540 0365 48000000 		.4byte	.LFE131
 6541 0369 0200     		.2byte	0x2
 6542 036b 30       		.byte	0x30
 6543 036c 9F       		.byte	0x9f
 6544 036d 00000000 		.4byte	0
 6545 0371 00000000 		.4byte	0
 6546              	.LLST17:
 6547 0375 00000000 		.4byte	.LVL71
 6548 0379 0A000000 		.4byte	.LVL72
 6549 037d 0100     		.2byte	0x1
 6550 037f 50       		.byte	0x50
 6551 0380 0A000000 		.4byte	.LVL72
 6552 0384 2C000000 		.4byte	.LFE132
 6553 0388 0400     		.2byte	0x4
ARM GAS  /var/folders/m4/4md61f0s1_g0rzfghffqnxvr0000gn/T//ccTIFpbg.s 			page 116


 6554 038a F3       		.byte	0xf3
 6555 038b 01       		.uleb128 0x1
 6556 038c 50       		.byte	0x50
 6557 038d 9F       		.byte	0x9f
 6558 038e 00000000 		.4byte	0
 6559 0392 00000000 		.4byte	0
 6560              	.LLST18:
 6561 0396 00000000 		.4byte	.LVL74
 6562 039a 0A000000 		.4byte	.LVL75
 6563 039e 0100     		.2byte	0x1
 6564 03a0 50       		.byte	0x50
 6565 03a1 0A000000 		.4byte	.LVL75
 6566 03a5 2C000000 		.4byte	.LFE133
 6567 03a9 0400     		.2byte	0x4
 6568 03ab F3       		.byte	0xf3
 6569 03ac 01       		.uleb128 0x1
 6570 03ad 50       		.byte	0x50
 6571 03ae 9F       		.byte	0x9f
 6572 03af 00000000 		.4byte	0
 6573 03b3 00000000 		.4byte	0
 6574              	.LLST19:
 6575 03b7 00000000 		.4byte	.LVL77
 6576 03bb 1C000000 		.4byte	.LVL79
 6577 03bf 0100     		.2byte	0x1
 6578 03c1 50       		.byte	0x50
 6579 03c2 1C000000 		.4byte	.LVL79
 6580 03c6 E0000000 		.4byte	.LVL106
 6581 03ca 0100     		.2byte	0x1
 6582 03cc 56       		.byte	0x56
 6583 03cd E0000000 		.4byte	.LVL106
 6584 03d1 E2000000 		.4byte	.LVL107
 6585 03d5 0100     		.2byte	0x1
 6586 03d7 50       		.byte	0x50
 6587 03d8 E2000000 		.4byte	.LVL107
 6588 03dc F0000000 		.4byte	.LFE134
 6589 03e0 0100     		.2byte	0x1
 6590 03e2 56       		.byte	0x56
 6591 03e3 00000000 		.4byte	0
 6592 03e7 00000000 		.4byte	0
 6593              	.LLST20:
 6594 03eb 00000000 		.4byte	.LVL77
 6595 03ef 27000000 		.4byte	.LVL80-1
 6596 03f3 0100     		.2byte	0x1
 6597 03f5 51       		.byte	0x51
 6598 03f6 27000000 		.4byte	.LVL80-1
 6599 03fa E0000000 		.4byte	.LVL106
 6600 03fe 0400     		.2byte	0x4
 6601 0400 F3       		.byte	0xf3
 6602 0401 01       		.uleb128 0x1
 6603 0402 51       		.byte	0x51
 6604 0403 9F       		.byte	0x9f
 6605 0404 E0000000 		.4byte	.LVL106
 6606 0408 F0000000 		.4byte	.LFE134
 6607 040c 0100     		.2byte	0x1
 6608 040e 51       		.byte	0x51
 6609 040f 00000000 		.4byte	0
 6610 0413 00000000 		.4byte	0
ARM GAS  /var/folders/m4/4md61f0s1_g0rzfghffqnxvr0000gn/T//ccTIFpbg.s 			page 117


 6611              	.LLST21:
 6612 0417 00000000 		.4byte	.LVL77
 6613 041b 27000000 		.4byte	.LVL80-1
 6614 041f 0100     		.2byte	0x1
 6615 0421 52       		.byte	0x52
 6616 0422 27000000 		.4byte	.LVL80-1
 6617 0426 E0000000 		.4byte	.LVL106
 6618 042a 0400     		.2byte	0x4
 6619 042c F3       		.byte	0xf3
 6620 042d 01       		.uleb128 0x1
 6621 042e 52       		.byte	0x52
 6622 042f 9F       		.byte	0x9f
 6623 0430 E0000000 		.4byte	.LVL106
 6624 0434 F0000000 		.4byte	.LFE134
 6625 0438 0100     		.2byte	0x1
 6626 043a 52       		.byte	0x52
 6627 043b 00000000 		.4byte	0
 6628 043f 00000000 		.4byte	0
 6629              	.LLST22:
 6630 0443 00000000 		.4byte	.LVL77
 6631 0447 16000000 		.4byte	.LVL78
 6632 044b 0100     		.2byte	0x1
 6633 044d 53       		.byte	0x53
 6634 044e 16000000 		.4byte	.LVL78
 6635 0452 F0000000 		.4byte	.LFE134
 6636 0456 0400     		.2byte	0x4
 6637 0458 F3       		.byte	0xf3
 6638 0459 01       		.uleb128 0x1
 6639 045a 53       		.byte	0x53
 6640 045b 9F       		.byte	0x9f
 6641 045c 00000000 		.4byte	0
 6642 0460 00000000 		.4byte	0
 6643              	.LLST23:
 6644 0464 00000000 		.4byte	.LVL77
 6645 0468 62000000 		.4byte	.LVL84
 6646 046c 0200     		.2byte	0x2
 6647 046e 30       		.byte	0x30
 6648 046f 9F       		.byte	0x9f
 6649 0470 62000000 		.4byte	.LVL84
 6650 0474 6C000000 		.4byte	.LVL86
 6651 0478 0100     		.2byte	0x1
 6652 047a 52       		.byte	0x52
 6653 047b 6C000000 		.4byte	.LVL86
 6654 047f 6E000000 		.4byte	.LVL87
 6655 0483 0100     		.2byte	0x1
 6656 0485 53       		.byte	0x53
 6657 0486 6E000000 		.4byte	.LVL87
 6658 048a 80000000 		.4byte	.LVL88
 6659 048e 0100     		.2byte	0x1
 6660 0490 57       		.byte	0x57
 6661 0491 80000000 		.4byte	.LVL88
 6662 0495 8A000000 		.4byte	.LVL90
 6663 0499 0100     		.2byte	0x1
 6664 049b 53       		.byte	0x53
 6665 049c 8A000000 		.4byte	.LVL90
 6666 04a0 8C000000 		.4byte	.LVL91
 6667 04a4 0100     		.2byte	0x1
ARM GAS  /var/folders/m4/4md61f0s1_g0rzfghffqnxvr0000gn/T//ccTIFpbg.s 			page 118


 6668 04a6 51       		.byte	0x51
 6669 04a7 8C000000 		.4byte	.LVL91
 6670 04ab 92000000 		.4byte	.LVL92
 6671 04af 0100     		.2byte	0x1
 6672 04b1 54       		.byte	0x54
 6673 04b2 92000000 		.4byte	.LVL92
 6674 04b6 98000000 		.4byte	.LVL93
 6675 04ba 0200     		.2byte	0x2
 6676 04bc 30       		.byte	0x30
 6677 04bd 9F       		.byte	0x9f
 6678 04be 98000000 		.4byte	.LVL93
 6679 04c2 A2000000 		.4byte	.LVL95
 6680 04c6 0100     		.2byte	0x1
 6681 04c8 52       		.byte	0x52
 6682 04c9 A2000000 		.4byte	.LVL95
 6683 04cd A4000000 		.4byte	.LVL96
 6684 04d1 0100     		.2byte	0x1
 6685 04d3 53       		.byte	0x53
 6686 04d4 A4000000 		.4byte	.LVL96
 6687 04d8 B0000000 		.4byte	.LVL97
 6688 04dc 0100     		.2byte	0x1
 6689 04de 57       		.byte	0x57
 6690 04df B0000000 		.4byte	.LVL97
 6691 04e3 BE000000 		.4byte	.LVL99
 6692 04e7 0100     		.2byte	0x1
 6693 04e9 53       		.byte	0x53
 6694 04ea BE000000 		.4byte	.LVL99
 6695 04ee C0000000 		.4byte	.LVL100
 6696 04f2 0100     		.2byte	0x1
 6697 04f4 51       		.byte	0x51
 6698 04f5 C0000000 		.4byte	.LVL100
 6699 04f9 C6000000 		.4byte	.LVL101
 6700 04fd 0100     		.2byte	0x1
 6701 04ff 54       		.byte	0x54
 6702 0500 C6000000 		.4byte	.LVL101
 6703 0504 CE000000 		.4byte	.LVL102
 6704 0508 0100     		.2byte	0x1
 6705 050a 57       		.byte	0x57
 6706 050b CE000000 		.4byte	.LVL102
 6707 050f D8000000 		.4byte	.LVL104
 6708 0513 0100     		.2byte	0x1
 6709 0515 53       		.byte	0x53
 6710 0516 D8000000 		.4byte	.LVL104
 6711 051a DA000000 		.4byte	.LVL105
 6712 051e 0100     		.2byte	0x1
 6713 0520 51       		.byte	0x51
 6714 0521 DA000000 		.4byte	.LVL105
 6715 0525 E0000000 		.4byte	.LVL106
 6716 0529 0100     		.2byte	0x1
 6717 052b 54       		.byte	0x54
 6718 052c E0000000 		.4byte	.LVL106
 6719 0530 F0000000 		.4byte	.LFE134
 6720 0534 0200     		.2byte	0x2
 6721 0536 30       		.byte	0x30
 6722 0537 9F       		.byte	0x9f
 6723 0538 00000000 		.4byte	0
 6724 053c 00000000 		.4byte	0
ARM GAS  /var/folders/m4/4md61f0s1_g0rzfghffqnxvr0000gn/T//ccTIFpbg.s 			page 119


 6725              	.LLST24:
 6726 0540 00000000 		.4byte	.LVL77
 6727 0544 62000000 		.4byte	.LVL84
 6728 0548 0200     		.2byte	0x2
 6729 054a 30       		.byte	0x30
 6730 054b 9F       		.byte	0x9f
 6731 054c 62000000 		.4byte	.LVL84
 6732 0550 66000000 		.4byte	.LVL85
 6733 0554 0500     		.2byte	0x5
 6734 0556 37       		.byte	0x37
 6735 0557 73       		.byte	0x73
 6736 0558 00       		.sleb128 0
 6737 0559 24       		.byte	0x24
 6738 055a 9F       		.byte	0x9f
 6739 055b 66000000 		.4byte	.LVL85
 6740 055f 6C000000 		.4byte	.LVL86
 6741 0563 0100     		.2byte	0x1
 6742 0565 51       		.byte	0x51
 6743 0566 80000000 		.4byte	.LVL88
 6744 056a 84000000 		.4byte	.LVL89
 6745 056e 0500     		.2byte	0x5
 6746 0570 4F       		.byte	0x4f
 6747 0571 75       		.byte	0x75
 6748 0572 00       		.sleb128 0
 6749 0573 24       		.byte	0x24
 6750 0574 9F       		.byte	0x9f
 6751 0575 84000000 		.4byte	.LVL89
 6752 0579 8A000000 		.4byte	.LVL90
 6753 057d 0100     		.2byte	0x1
 6754 057f 51       		.byte	0x51
 6755 0580 92000000 		.4byte	.LVL92
 6756 0584 98000000 		.4byte	.LVL93
 6757 0588 0200     		.2byte	0x2
 6758 058a 30       		.byte	0x30
 6759 058b 9F       		.byte	0x9f
 6760 058c 98000000 		.4byte	.LVL93
 6761 0590 9C000000 		.4byte	.LVL94
 6762 0594 0500     		.2byte	0x5
 6763 0596 37       		.byte	0x37
 6764 0597 71       		.byte	0x71
 6765 0598 00       		.sleb128 0
 6766 0599 24       		.byte	0x24
 6767 059a 9F       		.byte	0x9f
 6768 059b 9C000000 		.4byte	.LVL94
 6769 059f A2000000 		.4byte	.LVL95
 6770 05a3 0100     		.2byte	0x1
 6771 05a5 53       		.byte	0x53
 6772 05a6 B0000000 		.4byte	.LVL97
 6773 05aa B6000000 		.4byte	.LVL98
 6774 05ae 0500     		.2byte	0x5
 6775 05b0 4F       		.byte	0x4f
 6776 05b1 78       		.byte	0x78
 6777 05b2 00       		.sleb128 0
 6778 05b3 24       		.byte	0x24
 6779 05b4 9F       		.byte	0x9f
 6780 05b5 B6000000 		.4byte	.LVL98
 6781 05b9 BE000000 		.4byte	.LVL99
ARM GAS  /var/folders/m4/4md61f0s1_g0rzfghffqnxvr0000gn/T//ccTIFpbg.s 			page 120


 6782 05bd 0100     		.2byte	0x1
 6783 05bf 51       		.byte	0x51
 6784 05c0 CE000000 		.4byte	.LVL102
 6785 05c4 D2000000 		.4byte	.LVL103
 6786 05c8 0500     		.2byte	0x5
 6787 05ca 4F       		.byte	0x4f
 6788 05cb 75       		.byte	0x75
 6789 05cc 00       		.sleb128 0
 6790 05cd 24       		.byte	0x24
 6791 05ce 9F       		.byte	0x9f
 6792 05cf D2000000 		.4byte	.LVL103
 6793 05d3 D8000000 		.4byte	.LVL104
 6794 05d7 0100     		.2byte	0x1
 6795 05d9 51       		.byte	0x51
 6796 05da E0000000 		.4byte	.LVL106
 6797 05de F0000000 		.4byte	.LFE134
 6798 05e2 0200     		.2byte	0x2
 6799 05e4 30       		.byte	0x30
 6800 05e5 9F       		.byte	0x9f
 6801 05e6 00000000 		.4byte	0
 6802 05ea 00000000 		.4byte	0
 6803              	.LLST25:
 6804 05ee 00000000 		.4byte	.LVL108
 6805 05f2 14000000 		.4byte	.LVL109
 6806 05f6 0100     		.2byte	0x1
 6807 05f8 50       		.byte	0x50
 6808 05f9 14000000 		.4byte	.LVL109
 6809 05fd 2A000000 		.4byte	.LVL111
 6810 0601 0100     		.2byte	0x1
 6811 0603 54       		.byte	0x54
 6812 0604 2A000000 		.4byte	.LVL111
 6813 0608 2C000000 		.4byte	.LVL112
 6814 060c 0100     		.2byte	0x1
 6815 060e 50       		.byte	0x50
 6816 060f 2C000000 		.4byte	.LVL112
 6817 0613 38000000 		.4byte	.LFE135
 6818 0617 0100     		.2byte	0x1
 6819 0619 54       		.byte	0x54
 6820 061a 00000000 		.4byte	0
 6821 061e 00000000 		.4byte	0
 6822              	.LLST26:
 6823 0622 00000000 		.4byte	.LVL113
 6824 0626 14000000 		.4byte	.LVL114
 6825 062a 0100     		.2byte	0x1
 6826 062c 50       		.byte	0x50
 6827 062d 14000000 		.4byte	.LVL114
 6828 0631 28000000 		.4byte	.LVL118
 6829 0635 0100     		.2byte	0x1
 6830 0637 54       		.byte	0x54
 6831 0638 28000000 		.4byte	.LVL118
 6832 063c 2A000000 		.4byte	.LVL119
 6833 0640 0100     		.2byte	0x1
 6834 0642 50       		.byte	0x50
 6835 0643 2A000000 		.4byte	.LVL119
 6836 0647 36000000 		.4byte	.LVL123
 6837 064b 0100     		.2byte	0x1
 6838 064d 54       		.byte	0x54
ARM GAS  /var/folders/m4/4md61f0s1_g0rzfghffqnxvr0000gn/T//ccTIFpbg.s 			page 121


 6839 064e 36000000 		.4byte	.LVL123
 6840 0652 40000000 		.4byte	.LFE136
 6841 0656 0400     		.2byte	0x4
 6842 0658 F3       		.byte	0xf3
 6843 0659 01       		.uleb128 0x1
 6844 065a 50       		.byte	0x50
 6845 065b 9F       		.byte	0x9f
 6846 065c 00000000 		.4byte	0
 6847 0660 00000000 		.4byte	0
 6848              	.LLST27:
 6849 0664 00000000 		.4byte	.LVL113
 6850 0668 22000000 		.4byte	.LVL116
 6851 066c 0200     		.2byte	0x2
 6852 066e 30       		.byte	0x30
 6853 066f 9F       		.byte	0x9f
 6854 0670 22000000 		.4byte	.LVL116
 6855 0674 26000000 		.4byte	.LVL117
 6856 0678 0900     		.2byte	0x9
 6857 067a 70       		.byte	0x70
 6858 067b 00       		.sleb128 0
 6859 067c 40       		.byte	0x40
 6860 067d 4A       		.byte	0x4a
 6861 067e 24       		.byte	0x24
 6862 067f 1A       		.byte	0x1a
 6863 0680 30       		.byte	0x30
 6864 0681 2E       		.byte	0x2e
 6865 0682 9F       		.byte	0x9f
 6866 0683 28000000 		.4byte	.LVL118
 6867 0687 30000000 		.4byte	.LVL121
 6868 068b 0200     		.2byte	0x2
 6869 068d 30       		.byte	0x30
 6870 068e 9F       		.byte	0x9f
 6871 068f 30000000 		.4byte	.LVL121
 6872 0693 34000000 		.4byte	.LVL122
 6873 0697 0900     		.2byte	0x9
 6874 0699 70       		.byte	0x70
 6875 069a 00       		.sleb128 0
 6876 069b 40       		.byte	0x40
 6877 069c 4A       		.byte	0x4a
 6878 069d 24       		.byte	0x24
 6879 069e 1A       		.byte	0x1a
 6880 069f 30       		.byte	0x30
 6881 06a0 2E       		.byte	0x2e
 6882 06a1 9F       		.byte	0x9f
 6883 06a2 00000000 		.4byte	0
 6884 06a6 00000000 		.4byte	0
 6885              	.LLST28:
 6886 06aa 00000000 		.4byte	.LVL124
 6887 06ae 16000000 		.4byte	.LVL125
 6888 06b2 0100     		.2byte	0x1
 6889 06b4 50       		.byte	0x50
 6890 06b5 16000000 		.4byte	.LVL125
 6891 06b9 42000000 		.4byte	.LVL129
 6892 06bd 0100     		.2byte	0x1
 6893 06bf 54       		.byte	0x54
 6894 06c0 42000000 		.4byte	.LVL129
 6895 06c4 44000000 		.4byte	.LVL130
ARM GAS  /var/folders/m4/4md61f0s1_g0rzfghffqnxvr0000gn/T//ccTIFpbg.s 			page 122


 6896 06c8 0100     		.2byte	0x1
 6897 06ca 50       		.byte	0x50
 6898 06cb 44000000 		.4byte	.LVL130
 6899 06cf 50000000 		.4byte	.LFE137
 6900 06d3 0100     		.2byte	0x1
 6901 06d5 54       		.byte	0x54
 6902 06d6 00000000 		.4byte	0
 6903 06da 00000000 		.4byte	0
 6904              	.LLST29:
 6905 06de 00000000 		.4byte	.LVL124
 6906 06e2 21000000 		.4byte	.LVL126-1
 6907 06e6 0100     		.2byte	0x1
 6908 06e8 51       		.byte	0x51
 6909 06e9 21000000 		.4byte	.LVL126-1
 6910 06ed 42000000 		.4byte	.LVL129
 6911 06f1 0400     		.2byte	0x4
 6912 06f3 F3       		.byte	0xf3
 6913 06f4 01       		.uleb128 0x1
 6914 06f5 51       		.byte	0x51
 6915 06f6 9F       		.byte	0x9f
 6916 06f7 42000000 		.4byte	.LVL129
 6917 06fb 50000000 		.4byte	.LFE137
 6918 06ff 0100     		.2byte	0x1
 6919 0701 51       		.byte	0x51
 6920 0702 00000000 		.4byte	0
 6921 0706 00000000 		.4byte	0
 6922              	.LLST30:
 6923 070a 00000000 		.4byte	.LVL131
 6924 070e 16000000 		.4byte	.LVL132
 6925 0712 0100     		.2byte	0x1
 6926 0714 50       		.byte	0x50
 6927 0715 16000000 		.4byte	.LVL132
 6928 0719 42000000 		.4byte	.LVL136
 6929 071d 0100     		.2byte	0x1
 6930 071f 54       		.byte	0x54
 6931 0720 42000000 		.4byte	.LVL136
 6932 0724 44000000 		.4byte	.LVL137
 6933 0728 0100     		.2byte	0x1
 6934 072a 50       		.byte	0x50
 6935 072b 44000000 		.4byte	.LVL137
 6936 072f 50000000 		.4byte	.LFE138
 6937 0733 0100     		.2byte	0x1
 6938 0735 54       		.byte	0x54
 6939 0736 00000000 		.4byte	0
 6940 073a 00000000 		.4byte	0
 6941              	.LLST31:
 6942 073e 00000000 		.4byte	.LVL131
 6943 0742 21000000 		.4byte	.LVL133-1
 6944 0746 0100     		.2byte	0x1
 6945 0748 51       		.byte	0x51
 6946 0749 21000000 		.4byte	.LVL133-1
 6947 074d 42000000 		.4byte	.LVL136
 6948 0751 0400     		.2byte	0x4
 6949 0753 F3       		.byte	0xf3
 6950 0754 01       		.uleb128 0x1
 6951 0755 51       		.byte	0x51
 6952 0756 9F       		.byte	0x9f
ARM GAS  /var/folders/m4/4md61f0s1_g0rzfghffqnxvr0000gn/T//ccTIFpbg.s 			page 123


 6953 0757 42000000 		.4byte	.LVL136
 6954 075b 50000000 		.4byte	.LFE138
 6955 075f 0100     		.2byte	0x1
 6956 0761 51       		.byte	0x51
 6957 0762 00000000 		.4byte	0
 6958 0766 00000000 		.4byte	0
 6959              	.LLST32:
 6960 076a 00000000 		.4byte	.LVL138
 6961 076e 14000000 		.4byte	.LVL139
 6962 0772 0100     		.2byte	0x1
 6963 0774 50       		.byte	0x50
 6964 0775 14000000 		.4byte	.LVL139
 6965 0779 3E000000 		.4byte	.LVL145
 6966 077d 0100     		.2byte	0x1
 6967 077f 54       		.byte	0x54
 6968 0780 3E000000 		.4byte	.LVL145
 6969 0784 40000000 		.4byte	.LVL146
 6970 0788 0100     		.2byte	0x1
 6971 078a 50       		.byte	0x50
 6972 078b 40000000 		.4byte	.LVL146
 6973 078f 4C000000 		.4byte	.LFE139
 6974 0793 0100     		.2byte	0x1
 6975 0795 54       		.byte	0x54
 6976 0796 00000000 		.4byte	0
 6977 079a 00000000 		.4byte	0
 6978              	.LLST33:
 6979 079e 00000000 		.4byte	.LVL138
 6980 07a2 21000000 		.4byte	.LVL140-1
 6981 07a6 0100     		.2byte	0x1
 6982 07a8 51       		.byte	0x51
 6983 07a9 21000000 		.4byte	.LVL140-1
 6984 07ad 3E000000 		.4byte	.LVL145
 6985 07b1 0400     		.2byte	0x4
 6986 07b3 F3       		.byte	0xf3
 6987 07b4 01       		.uleb128 0x1
 6988 07b5 51       		.byte	0x51
 6989 07b6 9F       		.byte	0x9f
 6990 07b7 3E000000 		.4byte	.LVL145
 6991 07bb 4C000000 		.4byte	.LFE139
 6992 07bf 0100     		.2byte	0x1
 6993 07c1 51       		.byte	0x51
 6994 07c2 00000000 		.4byte	0
 6995 07c6 00000000 		.4byte	0
 6996              	.LLST34:
 6997 07ca 00000000 		.4byte	.LVL138
 6998 07ce 32000000 		.4byte	.LVL142
 6999 07d2 0200     		.2byte	0x2
 7000 07d4 30       		.byte	0x30
 7001 07d5 9F       		.byte	0x9f
 7002 07d6 32000000 		.4byte	.LVL142
 7003 07da 3E000000 		.4byte	.LVL145
 7004 07de 0100     		.2byte	0x1
 7005 07e0 51       		.byte	0x51
 7006 07e1 3E000000 		.4byte	.LVL145
 7007 07e5 4C000000 		.4byte	.LFE139
 7008 07e9 0200     		.2byte	0x2
 7009 07eb 30       		.byte	0x30
ARM GAS  /var/folders/m4/4md61f0s1_g0rzfghffqnxvr0000gn/T//ccTIFpbg.s 			page 124


 7010 07ec 9F       		.byte	0x9f
 7011 07ed 00000000 		.4byte	0
 7012 07f1 00000000 		.4byte	0
 7013              	.LLST35:
 7014 07f5 00000000 		.4byte	.LVL138
 7015 07f9 36000000 		.4byte	.LVL143
 7016 07fd 0200     		.2byte	0x2
 7017 07ff 30       		.byte	0x30
 7018 0800 9F       		.byte	0x9f
 7019 0801 36000000 		.4byte	.LVL143
 7020 0805 3E000000 		.4byte	.LVL145
 7021 0809 0800     		.2byte	0x8
 7022 080b 75       		.byte	0x75
 7023 080c 01       		.sleb128 1
 7024 080d 08       		.byte	0x8
 7025 080e FF       		.byte	0xff
 7026 080f 1A       		.byte	0x1a
 7027 0810 31       		.byte	0x31
 7028 0811 1C       		.byte	0x1c
 7029 0812 9F       		.byte	0x9f
 7030 0813 3E000000 		.4byte	.LVL145
 7031 0817 4C000000 		.4byte	.LFE139
 7032 081b 0200     		.2byte	0x2
 7033 081d 30       		.byte	0x30
 7034 081e 9F       		.byte	0x9f
 7035 081f 00000000 		.4byte	0
 7036 0823 00000000 		.4byte	0
 7037              	.LLST36:
 7038 0827 00000000 		.4byte	.LVL147
 7039 082b 16000000 		.4byte	.LVL148
 7040 082f 0100     		.2byte	0x1
 7041 0831 50       		.byte	0x50
 7042 0832 16000000 		.4byte	.LVL148
 7043 0836 42000000 		.4byte	.LVL152
 7044 083a 0100     		.2byte	0x1
 7045 083c 54       		.byte	0x54
 7046 083d 42000000 		.4byte	.LVL152
 7047 0841 44000000 		.4byte	.LVL153
 7048 0845 0100     		.2byte	0x1
 7049 0847 50       		.byte	0x50
 7050 0848 44000000 		.4byte	.LVL153
 7051 084c 50000000 		.4byte	.LFE140
 7052 0850 0100     		.2byte	0x1
 7053 0852 54       		.byte	0x54
 7054 0853 00000000 		.4byte	0
 7055 0857 00000000 		.4byte	0
 7056              	.LLST37:
 7057 085b 00000000 		.4byte	.LVL147
 7058 085f 21000000 		.4byte	.LVL149-1
 7059 0863 0100     		.2byte	0x1
 7060 0865 51       		.byte	0x51
 7061 0866 21000000 		.4byte	.LVL149-1
 7062 086a 42000000 		.4byte	.LVL152
 7063 086e 0400     		.2byte	0x4
 7064 0870 F3       		.byte	0xf3
 7065 0871 01       		.uleb128 0x1
 7066 0872 51       		.byte	0x51
ARM GAS  /var/folders/m4/4md61f0s1_g0rzfghffqnxvr0000gn/T//ccTIFpbg.s 			page 125


 7067 0873 9F       		.byte	0x9f
 7068 0874 42000000 		.4byte	.LVL152
 7069 0878 50000000 		.4byte	.LFE140
 7070 087c 0100     		.2byte	0x1
 7071 087e 51       		.byte	0x51
 7072 087f 00000000 		.4byte	0
 7073 0883 00000000 		.4byte	0
 7074              	.LLST38:
 7075 0887 00000000 		.4byte	.LVL154
 7076 088b 14000000 		.4byte	.LVL155
 7077 088f 0100     		.2byte	0x1
 7078 0891 50       		.byte	0x50
 7079 0892 14000000 		.4byte	.LVL155
 7080 0896 26000000 		.4byte	.LVL157
 7081 089a 0100     		.2byte	0x1
 7082 089c 54       		.byte	0x54
 7083 089d 26000000 		.4byte	.LVL157
 7084 08a1 28000000 		.4byte	.LVL158
 7085 08a5 0100     		.2byte	0x1
 7086 08a7 50       		.byte	0x50
 7087 08a8 28000000 		.4byte	.LVL158
 7088 08ac 32000000 		.4byte	.LVL160
 7089 08b0 0100     		.2byte	0x1
 7090 08b2 54       		.byte	0x54
 7091 08b3 32000000 		.4byte	.LVL160
 7092 08b7 3C000000 		.4byte	.LFE141
 7093 08bb 0400     		.2byte	0x4
 7094 08bd F3       		.byte	0xf3
 7095 08be 01       		.uleb128 0x1
 7096 08bf 50       		.byte	0x50
 7097 08c0 9F       		.byte	0x9f
 7098 08c1 00000000 		.4byte	0
 7099 08c5 00000000 		.4byte	0
 7100              	.LLST39:
 7101 08c9 00000000 		.4byte	.LVL161
 7102 08cd 16000000 		.4byte	.LVL162
 7103 08d1 0100     		.2byte	0x1
 7104 08d3 50       		.byte	0x50
 7105 08d4 16000000 		.4byte	.LVL162
 7106 08d8 42000000 		.4byte	.LVL166
 7107 08dc 0100     		.2byte	0x1
 7108 08de 54       		.byte	0x54
 7109 08df 42000000 		.4byte	.LVL166
 7110 08e3 44000000 		.4byte	.LVL167
 7111 08e7 0100     		.2byte	0x1
 7112 08e9 50       		.byte	0x50
 7113 08ea 44000000 		.4byte	.LVL167
 7114 08ee 50000000 		.4byte	.LFE143
 7115 08f2 0100     		.2byte	0x1
 7116 08f4 54       		.byte	0x54
 7117 08f5 00000000 		.4byte	0
 7118 08f9 00000000 		.4byte	0
 7119              	.LLST40:
 7120 08fd 00000000 		.4byte	.LVL161
 7121 0901 21000000 		.4byte	.LVL163-1
 7122 0905 0100     		.2byte	0x1
 7123 0907 51       		.byte	0x51
ARM GAS  /var/folders/m4/4md61f0s1_g0rzfghffqnxvr0000gn/T//ccTIFpbg.s 			page 126


 7124 0908 21000000 		.4byte	.LVL163-1
 7125 090c 42000000 		.4byte	.LVL166
 7126 0910 0400     		.2byte	0x4
 7127 0912 F3       		.byte	0xf3
 7128 0913 01       		.uleb128 0x1
 7129 0914 51       		.byte	0x51
 7130 0915 9F       		.byte	0x9f
 7131 0916 42000000 		.4byte	.LVL166
 7132 091a 50000000 		.4byte	.LFE143
 7133 091e 0100     		.2byte	0x1
 7134 0920 51       		.byte	0x51
 7135 0921 00000000 		.4byte	0
 7136 0925 00000000 		.4byte	0
 7137              	.LLST41:
 7138 0929 00000000 		.4byte	.LVL168
 7139 092d 16000000 		.4byte	.LVL169
 7140 0931 0100     		.2byte	0x1
 7141 0933 50       		.byte	0x50
 7142 0934 16000000 		.4byte	.LVL169
 7143 0938 42000000 		.4byte	.LVL173
 7144 093c 0100     		.2byte	0x1
 7145 093e 54       		.byte	0x54
 7146 093f 42000000 		.4byte	.LVL173
 7147 0943 44000000 		.4byte	.LVL174
 7148 0947 0100     		.2byte	0x1
 7149 0949 50       		.byte	0x50
 7150 094a 44000000 		.4byte	.LVL174
 7151 094e 50000000 		.4byte	.LFE144
 7152 0952 0100     		.2byte	0x1
 7153 0954 54       		.byte	0x54
 7154 0955 00000000 		.4byte	0
 7155 0959 00000000 		.4byte	0
 7156              	.LLST42:
 7157 095d 00000000 		.4byte	.LVL168
 7158 0961 21000000 		.4byte	.LVL170-1
 7159 0965 0100     		.2byte	0x1
 7160 0967 51       		.byte	0x51
 7161 0968 21000000 		.4byte	.LVL170-1
 7162 096c 42000000 		.4byte	.LVL173
 7163 0970 0400     		.2byte	0x4
 7164 0972 F3       		.byte	0xf3
 7165 0973 01       		.uleb128 0x1
 7166 0974 51       		.byte	0x51
 7167 0975 9F       		.byte	0x9f
 7168 0976 42000000 		.4byte	.LVL173
 7169 097a 50000000 		.4byte	.LFE144
 7170 097e 0100     		.2byte	0x1
 7171 0980 51       		.byte	0x51
 7172 0981 00000000 		.4byte	0
 7173 0985 00000000 		.4byte	0
 7174              	.LLST43:
 7175 0989 00000000 		.4byte	.LVL175
 7176 098d 0A000000 		.4byte	.LVL176
 7177 0991 0100     		.2byte	0x1
 7178 0993 50       		.byte	0x50
 7179 0994 0A000000 		.4byte	.LVL176
 7180 0998 2C000000 		.4byte	.LFE145
ARM GAS  /var/folders/m4/4md61f0s1_g0rzfghffqnxvr0000gn/T//ccTIFpbg.s 			page 127


 7181 099c 0400     		.2byte	0x4
 7182 099e F3       		.byte	0xf3
 7183 099f 01       		.uleb128 0x1
 7184 09a0 50       		.byte	0x50
 7185 09a1 9F       		.byte	0x9f
 7186 09a2 00000000 		.4byte	0
 7187 09a6 00000000 		.4byte	0
 7188              	.LLST44:
 7189 09aa 00000000 		.4byte	.LVL178
 7190 09ae 1A000000 		.4byte	.LVL180
 7191 09b2 0100     		.2byte	0x1
 7192 09b4 50       		.byte	0x50
 7193 09b5 1A000000 		.4byte	.LVL180
 7194 09b9 9E000000 		.4byte	.LVL199
 7195 09bd 0100     		.2byte	0x1
 7196 09bf 56       		.byte	0x56
 7197 09c0 9E000000 		.4byte	.LVL199
 7198 09c4 A0000000 		.4byte	.LVL200
 7199 09c8 0100     		.2byte	0x1
 7200 09ca 50       		.byte	0x50
 7201 09cb A0000000 		.4byte	.LVL200
 7202 09cf B0000000 		.4byte	.LFE146
 7203 09d3 0100     		.2byte	0x1
 7204 09d5 56       		.byte	0x56
 7205 09d6 00000000 		.4byte	0
 7206 09da 00000000 		.4byte	0
 7207              	.LLST45:
 7208 09de 00000000 		.4byte	.LVL178
 7209 09e2 25000000 		.4byte	.LVL181-1
 7210 09e6 0100     		.2byte	0x1
 7211 09e8 51       		.byte	0x51
 7212 09e9 25000000 		.4byte	.LVL181-1
 7213 09ed 9E000000 		.4byte	.LVL199
 7214 09f1 0400     		.2byte	0x4
 7215 09f3 F3       		.byte	0xf3
 7216 09f4 01       		.uleb128 0x1
 7217 09f5 51       		.byte	0x51
 7218 09f6 9F       		.byte	0x9f
 7219 09f7 9E000000 		.4byte	.LVL199
 7220 09fb B0000000 		.4byte	.LFE146
 7221 09ff 0100     		.2byte	0x1
 7222 0a01 51       		.byte	0x51
 7223 0a02 00000000 		.4byte	0
 7224 0a06 00000000 		.4byte	0
 7225              	.LLST46:
 7226 0a0a 00000000 		.4byte	.LVL178
 7227 0a0e 25000000 		.4byte	.LVL181-1
 7228 0a12 0100     		.2byte	0x1
 7229 0a14 52       		.byte	0x52
 7230 0a15 25000000 		.4byte	.LVL181-1
 7231 0a19 9E000000 		.4byte	.LVL199
 7232 0a1d 0400     		.2byte	0x4
 7233 0a1f F3       		.byte	0xf3
 7234 0a20 01       		.uleb128 0x1
 7235 0a21 52       		.byte	0x52
 7236 0a22 9F       		.byte	0x9f
 7237 0a23 9E000000 		.4byte	.LVL199
ARM GAS  /var/folders/m4/4md61f0s1_g0rzfghffqnxvr0000gn/T//ccTIFpbg.s 			page 128


 7238 0a27 B0000000 		.4byte	.LFE146
 7239 0a2b 0100     		.2byte	0x1
 7240 0a2d 52       		.byte	0x52
 7241 0a2e 00000000 		.4byte	0
 7242 0a32 00000000 		.4byte	0
 7243              	.LLST47:
 7244 0a36 00000000 		.4byte	.LVL178
 7245 0a3a 14000000 		.4byte	.LVL179
 7246 0a3e 0100     		.2byte	0x1
 7247 0a40 53       		.byte	0x53
 7248 0a41 14000000 		.4byte	.LVL179
 7249 0a45 B0000000 		.4byte	.LFE146
 7250 0a49 0400     		.2byte	0x4
 7251 0a4b F3       		.byte	0xf3
 7252 0a4c 01       		.uleb128 0x1
 7253 0a4d 53       		.byte	0x53
 7254 0a4e 9F       		.byte	0x9f
 7255 0a4f 00000000 		.4byte	0
 7256 0a53 00000000 		.4byte	0
 7257              	.LLST48:
 7258 0a57 00000000 		.4byte	.LVL178
 7259 0a5b 56000000 		.4byte	.LVL185
 7260 0a5f 0200     		.2byte	0x2
 7261 0a61 30       		.byte	0x30
 7262 0a62 9F       		.byte	0x9f
 7263 0a63 56000000 		.4byte	.LVL185
 7264 0a67 60000000 		.4byte	.LVL187
 7265 0a6b 0100     		.2byte	0x1
 7266 0a6d 52       		.byte	0x52
 7267 0a6e 60000000 		.4byte	.LVL187
 7268 0a72 62000000 		.4byte	.LVL188
 7269 0a76 0100     		.2byte	0x1
 7270 0a78 53       		.byte	0x53
 7271 0a79 62000000 		.4byte	.LVL188
 7272 0a7d 66000000 		.4byte	.LVL189
 7273 0a81 0100     		.2byte	0x1
 7274 0a83 57       		.byte	0x57
 7275 0a84 66000000 		.4byte	.LVL189
 7276 0a88 80000000 		.4byte	.LVL193
 7277 0a8c 0100     		.2byte	0x1
 7278 0a8e 53       		.byte	0x53
 7279 0a8f 80000000 		.4byte	.LVL193
 7280 0a93 84000000 		.4byte	.LVL194
 7281 0a97 0100     		.2byte	0x1
 7282 0a99 55       		.byte	0x55
 7283 0a9a 84000000 		.4byte	.LVL194
 7284 0a9e 8E000000 		.4byte	.LVL195
 7285 0aa2 0200     		.2byte	0x2
 7286 0aa4 30       		.byte	0x30
 7287 0aa5 9F       		.byte	0x9f
 7288 0aa6 8E000000 		.4byte	.LVL195
 7289 0aaa 98000000 		.4byte	.LVL197
 7290 0aae 0100     		.2byte	0x1
 7291 0ab0 52       		.byte	0x52
 7292 0ab1 98000000 		.4byte	.LVL197
 7293 0ab5 9A000000 		.4byte	.LVL198
 7294 0ab9 0100     		.2byte	0x1
ARM GAS  /var/folders/m4/4md61f0s1_g0rzfghffqnxvr0000gn/T//ccTIFpbg.s 			page 129


 7295 0abb 53       		.byte	0x53
 7296 0abc 9A000000 		.4byte	.LVL198
 7297 0ac0 9E000000 		.4byte	.LVL199
 7298 0ac4 0100     		.2byte	0x1
 7299 0ac6 57       		.byte	0x57
 7300 0ac7 9E000000 		.4byte	.LVL199
 7301 0acb B0000000 		.4byte	.LFE146
 7302 0acf 0200     		.2byte	0x2
 7303 0ad1 30       		.byte	0x30
 7304 0ad2 9F       		.byte	0x9f
 7305 0ad3 00000000 		.4byte	0
 7306 0ad7 00000000 		.4byte	0
 7307              	.LLST49:
 7308 0adb 00000000 		.4byte	.LVL178
 7309 0adf 56000000 		.4byte	.LVL185
 7310 0ae3 0200     		.2byte	0x2
 7311 0ae5 30       		.byte	0x30
 7312 0ae6 9F       		.byte	0x9f
 7313 0ae7 56000000 		.4byte	.LVL185
 7314 0aeb 5A000000 		.4byte	.LVL186
 7315 0aef 0500     		.2byte	0x5
 7316 0af1 37       		.byte	0x37
 7317 0af2 71       		.byte	0x71
 7318 0af3 00       		.sleb128 0
 7319 0af4 24       		.byte	0x24
 7320 0af5 9F       		.byte	0x9f
 7321 0af6 5A000000 		.4byte	.LVL186
 7322 0afa 60000000 		.4byte	.LVL187
 7323 0afe 0100     		.2byte	0x1
 7324 0b00 53       		.byte	0x53
 7325 0b01 74000000 		.4byte	.LVL190
 7326 0b05 78000000 		.4byte	.LVL191
 7327 0b09 0500     		.2byte	0x5
 7328 0b0b 4F       		.byte	0x4f
 7329 0b0c 74       		.byte	0x74
 7330 0b0d 00       		.sleb128 0
 7331 0b0e 24       		.byte	0x24
 7332 0b0f 9F       		.byte	0x9f
 7333 0b10 78000000 		.4byte	.LVL191
 7334 0b14 7E000000 		.4byte	.LVL192
 7335 0b18 0100     		.2byte	0x1
 7336 0b1a 51       		.byte	0x51
 7337 0b1b 84000000 		.4byte	.LVL194
 7338 0b1f 8E000000 		.4byte	.LVL195
 7339 0b23 0200     		.2byte	0x2
 7340 0b25 30       		.byte	0x30
 7341 0b26 9F       		.byte	0x9f
 7342 0b27 8E000000 		.4byte	.LVL195
 7343 0b2b 92000000 		.4byte	.LVL196
 7344 0b2f 0500     		.2byte	0x5
 7345 0b31 37       		.byte	0x37
 7346 0b32 73       		.byte	0x73
 7347 0b33 00       		.sleb128 0
 7348 0b34 24       		.byte	0x24
 7349 0b35 9F       		.byte	0x9f
 7350 0b36 92000000 		.4byte	.LVL196
 7351 0b3a 98000000 		.4byte	.LVL197
ARM GAS  /var/folders/m4/4md61f0s1_g0rzfghffqnxvr0000gn/T//ccTIFpbg.s 			page 130


 7352 0b3e 0100     		.2byte	0x1
 7353 0b40 51       		.byte	0x51
 7354 0b41 9E000000 		.4byte	.LVL199
 7355 0b45 B0000000 		.4byte	.LFE146
 7356 0b49 0200     		.2byte	0x2
 7357 0b4b 30       		.byte	0x30
 7358 0b4c 9F       		.byte	0x9f
 7359 0b4d 00000000 		.4byte	0
 7360 0b51 00000000 		.4byte	0
 7361              	.LLST50:
 7362 0b55 00000000 		.4byte	.LVL178
 7363 0b59 66000000 		.4byte	.LVL189
 7364 0b5d 0200     		.2byte	0x2
 7365 0b5f 30       		.byte	0x30
 7366 0b60 9F       		.byte	0x9f
 7367 0b61 66000000 		.4byte	.LVL189
 7368 0b65 7E000000 		.4byte	.LVL192
 7369 0b69 0900     		.2byte	0x9
 7370 0b6b 73       		.byte	0x73
 7371 0b6c 00       		.sleb128 0
 7372 0b6d 48       		.byte	0x48
 7373 0b6e 41       		.byte	0x41
 7374 0b6f 24       		.byte	0x24
 7375 0b70 1A       		.byte	0x1a
 7376 0b71 44       		.byte	0x44
 7377 0b72 25       		.byte	0x25
 7378 0b73 9F       		.byte	0x9f
 7379 0b74 84000000 		.4byte	.LVL194
 7380 0b78 B0000000 		.4byte	.LFE146
 7381 0b7c 0200     		.2byte	0x2
 7382 0b7e 30       		.byte	0x30
 7383 0b7f 9F       		.byte	0x9f
 7384 0b80 00000000 		.4byte	0
 7385 0b84 00000000 		.4byte	0
 7386              	.LLST51:
 7387 0b88 00000000 		.4byte	.LVL201
 7388 0b8c 14000000 		.4byte	.LVL202
 7389 0b90 0100     		.2byte	0x1
 7390 0b92 50       		.byte	0x50
 7391 0b93 14000000 		.4byte	.LVL202
 7392 0b97 3E000000 		.4byte	.LVL208
 7393 0b9b 0100     		.2byte	0x1
 7394 0b9d 54       		.byte	0x54
 7395 0b9e 3E000000 		.4byte	.LVL208
 7396 0ba2 40000000 		.4byte	.LVL209
 7397 0ba6 0100     		.2byte	0x1
 7398 0ba8 50       		.byte	0x50
 7399 0ba9 40000000 		.4byte	.LVL209
 7400 0bad 4C000000 		.4byte	.LFE147
 7401 0bb1 0100     		.2byte	0x1
 7402 0bb3 54       		.byte	0x54
 7403 0bb4 00000000 		.4byte	0
 7404 0bb8 00000000 		.4byte	0
 7405              	.LLST52:
 7406 0bbc 00000000 		.4byte	.LVL201
 7407 0bc0 21000000 		.4byte	.LVL203-1
 7408 0bc4 0100     		.2byte	0x1
ARM GAS  /var/folders/m4/4md61f0s1_g0rzfghffqnxvr0000gn/T//ccTIFpbg.s 			page 131


 7409 0bc6 51       		.byte	0x51
 7410 0bc7 21000000 		.4byte	.LVL203-1
 7411 0bcb 3E000000 		.4byte	.LVL208
 7412 0bcf 0400     		.2byte	0x4
 7413 0bd1 F3       		.byte	0xf3
 7414 0bd2 01       		.uleb128 0x1
 7415 0bd3 51       		.byte	0x51
 7416 0bd4 9F       		.byte	0x9f
 7417 0bd5 3E000000 		.4byte	.LVL208
 7418 0bd9 4C000000 		.4byte	.LFE147
 7419 0bdd 0100     		.2byte	0x1
 7420 0bdf 51       		.byte	0x51
 7421 0be0 00000000 		.4byte	0
 7422 0be4 00000000 		.4byte	0
 7423              	.LLST53:
 7424 0be8 00000000 		.4byte	.LVL201
 7425 0bec 32000000 		.4byte	.LVL205
 7426 0bf0 0200     		.2byte	0x2
 7427 0bf2 30       		.byte	0x30
 7428 0bf3 9F       		.byte	0x9f
 7429 0bf4 32000000 		.4byte	.LVL205
 7430 0bf8 3E000000 		.4byte	.LVL208
 7431 0bfc 0100     		.2byte	0x1
 7432 0bfe 51       		.byte	0x51
 7433 0bff 3E000000 		.4byte	.LVL208
 7434 0c03 4C000000 		.4byte	.LFE147
 7435 0c07 0200     		.2byte	0x2
 7436 0c09 30       		.byte	0x30
 7437 0c0a 9F       		.byte	0x9f
 7438 0c0b 00000000 		.4byte	0
 7439 0c0f 00000000 		.4byte	0
 7440              	.LLST54:
 7441 0c13 00000000 		.4byte	.LVL201
 7442 0c17 36000000 		.4byte	.LVL206
 7443 0c1b 0200     		.2byte	0x2
 7444 0c1d 30       		.byte	0x30
 7445 0c1e 9F       		.byte	0x9f
 7446 0c1f 36000000 		.4byte	.LVL206
 7447 0c23 3E000000 		.4byte	.LVL208
 7448 0c27 0800     		.2byte	0x8
 7449 0c29 75       		.byte	0x75
 7450 0c2a 01       		.sleb128 1
 7451 0c2b 08       		.byte	0x8
 7452 0c2c FF       		.byte	0xff
 7453 0c2d 1A       		.byte	0x1a
 7454 0c2e 31       		.byte	0x31
 7455 0c2f 1C       		.byte	0x1c
 7456 0c30 9F       		.byte	0x9f
 7457 0c31 3E000000 		.4byte	.LVL208
 7458 0c35 4C000000 		.4byte	.LFE147
 7459 0c39 0200     		.2byte	0x2
 7460 0c3b 30       		.byte	0x30
 7461 0c3c 9F       		.byte	0x9f
 7462 0c3d 00000000 		.4byte	0
 7463 0c41 00000000 		.4byte	0
 7464              	.LLST55:
 7465 0c45 00000000 		.4byte	.LVL210
ARM GAS  /var/folders/m4/4md61f0s1_g0rzfghffqnxvr0000gn/T//ccTIFpbg.s 			page 132


 7466 0c49 0A000000 		.4byte	.LVL211
 7467 0c4d 0100     		.2byte	0x1
 7468 0c4f 50       		.byte	0x50
 7469 0c50 0A000000 		.4byte	.LVL211
 7470 0c54 74000000 		.4byte	.LFE148
 7471 0c58 0100     		.2byte	0x1
 7472 0c5a 54       		.byte	0x54
 7473 0c5b 00000000 		.4byte	0
 7474 0c5f 00000000 		.4byte	0
 7475              	.LLST56:
 7476 0c63 00000000 		.4byte	.LVL210
 7477 0c67 29000000 		.4byte	.LVL212-1
 7478 0c6b 0100     		.2byte	0x1
 7479 0c6d 51       		.byte	0x51
 7480 0c6e 29000000 		.4byte	.LVL212-1
 7481 0c72 66000000 		.4byte	.LVL216
 7482 0c76 0400     		.2byte	0x4
 7483 0c78 F3       		.byte	0xf3
 7484 0c79 01       		.uleb128 0x1
 7485 0c7a 51       		.byte	0x51
 7486 0c7b 9F       		.byte	0x9f
 7487 0c7c 66000000 		.4byte	.LVL216
 7488 0c80 74000000 		.4byte	.LFE148
 7489 0c84 0100     		.2byte	0x1
 7490 0c86 51       		.byte	0x51
 7491 0c87 00000000 		.4byte	0
 7492 0c8b 00000000 		.4byte	0
 7493              	.LLST57:
 7494 0c8f 00000000 		.4byte	.LVL210
 7495 0c93 29000000 		.4byte	.LVL212-1
 7496 0c97 0100     		.2byte	0x1
 7497 0c99 52       		.byte	0x52
 7498 0c9a 29000000 		.4byte	.LVL212-1
 7499 0c9e 66000000 		.4byte	.LVL216
 7500 0ca2 0400     		.2byte	0x4
 7501 0ca4 F3       		.byte	0xf3
 7502 0ca5 01       		.uleb128 0x1
 7503 0ca6 52       		.byte	0x52
 7504 0ca7 9F       		.byte	0x9f
 7505 0ca8 66000000 		.4byte	.LVL216
 7506 0cac 74000000 		.4byte	.LFE148
 7507 0cb0 0100     		.2byte	0x1
 7508 0cb2 52       		.byte	0x52
 7509 0cb3 00000000 		.4byte	0
 7510 0cb7 00000000 		.4byte	0
 7511              	.LLST58:
 7512 0cbb 00000000 		.4byte	.LVL217
 7513 0cbf 16000000 		.4byte	.LVL218
 7514 0cc3 0100     		.2byte	0x1
 7515 0cc5 50       		.byte	0x50
 7516 0cc6 16000000 		.4byte	.LVL218
 7517 0cca 5E000000 		.4byte	.LVL224
 7518 0cce 0100     		.2byte	0x1
 7519 0cd0 54       		.byte	0x54
 7520 0cd1 5E000000 		.4byte	.LVL224
 7521 0cd5 60000000 		.4byte	.LVL225
 7522 0cd9 0100     		.2byte	0x1
ARM GAS  /var/folders/m4/4md61f0s1_g0rzfghffqnxvr0000gn/T//ccTIFpbg.s 			page 133


 7523 0cdb 50       		.byte	0x50
 7524 0cdc 60000000 		.4byte	.LVL225
 7525 0ce0 6C000000 		.4byte	.LFE149
 7526 0ce4 0100     		.2byte	0x1
 7527 0ce6 54       		.byte	0x54
 7528 0ce7 00000000 		.4byte	0
 7529 0ceb 00000000 		.4byte	0
 7530              	.LLST59:
 7531 0cef 00000000 		.4byte	.LVL217
 7532 0cf3 21000000 		.4byte	.LVL219-1
 7533 0cf7 0100     		.2byte	0x1
 7534 0cf9 51       		.byte	0x51
 7535 0cfa 21000000 		.4byte	.LVL219-1
 7536 0cfe 5E000000 		.4byte	.LVL224
 7537 0d02 0100     		.2byte	0x1
 7538 0d04 55       		.byte	0x55
 7539 0d05 5E000000 		.4byte	.LVL224
 7540 0d09 6C000000 		.4byte	.LFE149
 7541 0d0d 0100     		.2byte	0x1
 7542 0d0f 51       		.byte	0x51
 7543 0d10 00000000 		.4byte	0
 7544 0d14 00000000 		.4byte	0
 7545              	.LLST60:
 7546 0d18 00000000 		.4byte	.LVL217
 7547 0d1c 52000000 		.4byte	.LVL221
 7548 0d20 0200     		.2byte	0x2
 7549 0d22 30       		.byte	0x30
 7550 0d23 9F       		.byte	0x9f
 7551 0d24 52000000 		.4byte	.LVL221
 7552 0d28 5A000000 		.4byte	.LVL223
 7553 0d2c 0100     		.2byte	0x1
 7554 0d2e 53       		.byte	0x53
 7555 0d2f 5A000000 		.4byte	.LVL223
 7556 0d33 5E000000 		.4byte	.LVL224
 7557 0d37 0100     		.2byte	0x1
 7558 0d39 51       		.byte	0x51
 7559 0d3a 5E000000 		.4byte	.LVL224
 7560 0d3e 6C000000 		.4byte	.LFE149
 7561 0d42 0200     		.2byte	0x2
 7562 0d44 30       		.byte	0x30
 7563 0d45 9F       		.byte	0x9f
 7564 0d46 00000000 		.4byte	0
 7565 0d4a 00000000 		.4byte	0
 7566              	.LLST61:
 7567 0d4e 00000000 		.4byte	.LVL226
 7568 0d52 16000000 		.4byte	.LVL227
 7569 0d56 0100     		.2byte	0x1
 7570 0d58 50       		.byte	0x50
 7571 0d59 16000000 		.4byte	.LVL227
 7572 0d5d 44000000 		.4byte	.LVL233
 7573 0d61 0100     		.2byte	0x1
 7574 0d63 54       		.byte	0x54
 7575 0d64 44000000 		.4byte	.LVL233
 7576 0d68 46000000 		.4byte	.LVL234
 7577 0d6c 0100     		.2byte	0x1
 7578 0d6e 50       		.byte	0x50
 7579 0d6f 46000000 		.4byte	.LVL234
ARM GAS  /var/folders/m4/4md61f0s1_g0rzfghffqnxvr0000gn/T//ccTIFpbg.s 			page 134


 7580 0d73 50000000 		.4byte	.LFE150
 7581 0d77 0100     		.2byte	0x1
 7582 0d79 54       		.byte	0x54
 7583 0d7a 00000000 		.4byte	0
 7584 0d7e 00000000 		.4byte	0
 7585              	.LLST62:
 7586 0d82 00000000 		.4byte	.LVL226
 7587 0d86 21000000 		.4byte	.LVL228-1
 7588 0d8a 0100     		.2byte	0x1
 7589 0d8c 51       		.byte	0x51
 7590 0d8d 21000000 		.4byte	.LVL228-1
 7591 0d91 44000000 		.4byte	.LVL233
 7592 0d95 0100     		.2byte	0x1
 7593 0d97 55       		.byte	0x55
 7594 0d98 44000000 		.4byte	.LVL233
 7595 0d9c 50000000 		.4byte	.LFE150
 7596 0da0 0100     		.2byte	0x1
 7597 0da2 51       		.byte	0x51
 7598 0da3 00000000 		.4byte	0
 7599 0da7 00000000 		.4byte	0
 7600              	.LLST63:
 7601 0dab 00000000 		.4byte	.LVL226
 7602 0daf 3A000000 		.4byte	.LVL230
 7603 0db3 0200     		.2byte	0x2
 7604 0db5 30       		.byte	0x30
 7605 0db6 9F       		.byte	0x9f
 7606 0db7 3A000000 		.4byte	.LVL230
 7607 0dbb 44000000 		.4byte	.LVL233
 7608 0dbf 0100     		.2byte	0x1
 7609 0dc1 51       		.byte	0x51
 7610 0dc2 44000000 		.4byte	.LVL233
 7611 0dc6 50000000 		.4byte	.LFE150
 7612 0dca 0200     		.2byte	0x2
 7613 0dcc 30       		.byte	0x30
 7614 0dcd 9F       		.byte	0x9f
 7615 0dce 00000000 		.4byte	0
 7616 0dd2 00000000 		.4byte	0
 7617              	.LLST64:
 7618 0dd6 00000000 		.4byte	.LVL235
 7619 0dda 14000000 		.4byte	.LVL236
 7620 0dde 0100     		.2byte	0x1
 7621 0de0 50       		.byte	0x50
 7622 0de1 14000000 		.4byte	.LVL236
 7623 0de5 2A000000 		.4byte	.LVL238
 7624 0de9 0100     		.2byte	0x1
 7625 0deb 54       		.byte	0x54
 7626 0dec 2A000000 		.4byte	.LVL238
 7627 0df0 2C000000 		.4byte	.LVL239
 7628 0df4 0100     		.2byte	0x1
 7629 0df6 50       		.byte	0x50
 7630 0df7 2C000000 		.4byte	.LVL239
 7631 0dfb 38000000 		.4byte	.LFE151
 7632 0dff 0100     		.2byte	0x1
 7633 0e01 54       		.byte	0x54
 7634 0e02 00000000 		.4byte	0
 7635 0e06 00000000 		.4byte	0
 7636              	.LLST65:
ARM GAS  /var/folders/m4/4md61f0s1_g0rzfghffqnxvr0000gn/T//ccTIFpbg.s 			page 135


 7637 0e0a 00000000 		.4byte	.LVL240
 7638 0e0e 14000000 		.4byte	.LVL241
 7639 0e12 0100     		.2byte	0x1
 7640 0e14 50       		.byte	0x50
 7641 0e15 14000000 		.4byte	.LVL241
 7642 0e19 28000000 		.4byte	.LVL245
 7643 0e1d 0100     		.2byte	0x1
 7644 0e1f 54       		.byte	0x54
 7645 0e20 28000000 		.4byte	.LVL245
 7646 0e24 2A000000 		.4byte	.LVL246
 7647 0e28 0100     		.2byte	0x1
 7648 0e2a 50       		.byte	0x50
 7649 0e2b 2A000000 		.4byte	.LVL246
 7650 0e2f 36000000 		.4byte	.LVL250
 7651 0e33 0100     		.2byte	0x1
 7652 0e35 54       		.byte	0x54
 7653 0e36 36000000 		.4byte	.LVL250
 7654 0e3a 40000000 		.4byte	.LFE152
 7655 0e3e 0400     		.2byte	0x4
 7656 0e40 F3       		.byte	0xf3
 7657 0e41 01       		.uleb128 0x1
 7658 0e42 50       		.byte	0x50
 7659 0e43 9F       		.byte	0x9f
 7660 0e44 00000000 		.4byte	0
 7661 0e48 00000000 		.4byte	0
 7662              	.LLST66:
 7663 0e4c 00000000 		.4byte	.LVL240
 7664 0e50 22000000 		.4byte	.LVL243
 7665 0e54 0200     		.2byte	0x2
 7666 0e56 30       		.byte	0x30
 7667 0e57 9F       		.byte	0x9f
 7668 0e58 22000000 		.4byte	.LVL243
 7669 0e5c 26000000 		.4byte	.LVL244
 7670 0e60 0900     		.2byte	0x9
 7671 0e62 70       		.byte	0x70
 7672 0e63 00       		.sleb128 0
 7673 0e64 40       		.byte	0x40
 7674 0e65 42       		.byte	0x42
 7675 0e66 24       		.byte	0x24
 7676 0e67 1A       		.byte	0x1a
 7677 0e68 30       		.byte	0x30
 7678 0e69 2E       		.byte	0x2e
 7679 0e6a 9F       		.byte	0x9f
 7680 0e6b 28000000 		.4byte	.LVL245
 7681 0e6f 30000000 		.4byte	.LVL248
 7682 0e73 0200     		.2byte	0x2
 7683 0e75 30       		.byte	0x30
 7684 0e76 9F       		.byte	0x9f
 7685 0e77 30000000 		.4byte	.LVL248
 7686 0e7b 34000000 		.4byte	.LVL249
 7687 0e7f 0900     		.2byte	0x9
 7688 0e81 70       		.byte	0x70
 7689 0e82 00       		.sleb128 0
 7690 0e83 40       		.byte	0x40
 7691 0e84 42       		.byte	0x42
 7692 0e85 24       		.byte	0x24
 7693 0e86 1A       		.byte	0x1a
ARM GAS  /var/folders/m4/4md61f0s1_g0rzfghffqnxvr0000gn/T//ccTIFpbg.s 			page 136


 7694 0e87 30       		.byte	0x30
 7695 0e88 2E       		.byte	0x2e
 7696 0e89 9F       		.byte	0x9f
 7697 0e8a 00000000 		.4byte	0
 7698 0e8e 00000000 		.4byte	0
 7699              	.LLST67:
 7700 0e92 00000000 		.4byte	.LVL251
 7701 0e96 16000000 		.4byte	.LVL252
 7702 0e9a 0100     		.2byte	0x1
 7703 0e9c 50       		.byte	0x50
 7704 0e9d 16000000 		.4byte	.LVL252
 7705 0ea1 42000000 		.4byte	.LVL256
 7706 0ea5 0100     		.2byte	0x1
 7707 0ea7 54       		.byte	0x54
 7708 0ea8 42000000 		.4byte	.LVL256
 7709 0eac 44000000 		.4byte	.LVL257
 7710 0eb0 0100     		.2byte	0x1
 7711 0eb2 50       		.byte	0x50
 7712 0eb3 44000000 		.4byte	.LVL257
 7713 0eb7 50000000 		.4byte	.LFE153
 7714 0ebb 0100     		.2byte	0x1
 7715 0ebd 54       		.byte	0x54
 7716 0ebe 00000000 		.4byte	0
 7717 0ec2 00000000 		.4byte	0
 7718              	.LLST68:
 7719 0ec6 00000000 		.4byte	.LVL251
 7720 0eca 21000000 		.4byte	.LVL253-1
 7721 0ece 0100     		.2byte	0x1
 7722 0ed0 51       		.byte	0x51
 7723 0ed1 21000000 		.4byte	.LVL253-1
 7724 0ed5 42000000 		.4byte	.LVL256
 7725 0ed9 0400     		.2byte	0x4
 7726 0edb F3       		.byte	0xf3
 7727 0edc 01       		.uleb128 0x1
 7728 0edd 51       		.byte	0x51
 7729 0ede 9F       		.byte	0x9f
 7730 0edf 42000000 		.4byte	.LVL256
 7731 0ee3 50000000 		.4byte	.LFE153
 7732 0ee7 0100     		.2byte	0x1
 7733 0ee9 51       		.byte	0x51
 7734 0eea 00000000 		.4byte	0
 7735 0eee 00000000 		.4byte	0
 7736              	.LLST69:
 7737 0ef2 00000000 		.4byte	.LVL258
 7738 0ef6 16000000 		.4byte	.LVL259
 7739 0efa 0100     		.2byte	0x1
 7740 0efc 50       		.byte	0x50
 7741 0efd 16000000 		.4byte	.LVL259
 7742 0f01 42000000 		.4byte	.LVL263
 7743 0f05 0100     		.2byte	0x1
 7744 0f07 54       		.byte	0x54
 7745 0f08 42000000 		.4byte	.LVL263
 7746 0f0c 44000000 		.4byte	.LVL264
 7747 0f10 0100     		.2byte	0x1
 7748 0f12 50       		.byte	0x50
 7749 0f13 44000000 		.4byte	.LVL264
 7750 0f17 50000000 		.4byte	.LFE154
ARM GAS  /var/folders/m4/4md61f0s1_g0rzfghffqnxvr0000gn/T//ccTIFpbg.s 			page 137


 7751 0f1b 0100     		.2byte	0x1
 7752 0f1d 54       		.byte	0x54
 7753 0f1e 00000000 		.4byte	0
 7754 0f22 00000000 		.4byte	0
 7755              	.LLST70:
 7756 0f26 00000000 		.4byte	.LVL258
 7757 0f2a 21000000 		.4byte	.LVL260-1
 7758 0f2e 0100     		.2byte	0x1
 7759 0f30 51       		.byte	0x51
 7760 0f31 21000000 		.4byte	.LVL260-1
 7761 0f35 42000000 		.4byte	.LVL263
 7762 0f39 0400     		.2byte	0x4
 7763 0f3b F3       		.byte	0xf3
 7764 0f3c 01       		.uleb128 0x1
 7765 0f3d 51       		.byte	0x51
 7766 0f3e 9F       		.byte	0x9f
 7767 0f3f 42000000 		.4byte	.LVL263
 7768 0f43 50000000 		.4byte	.LFE154
 7769 0f47 0100     		.2byte	0x1
 7770 0f49 51       		.byte	0x51
 7771 0f4a 00000000 		.4byte	0
 7772 0f4e 00000000 		.4byte	0
 7773              	.LLST71:
 7774 0f52 00000000 		.4byte	.LVL265
 7775 0f56 1C000000 		.4byte	.LVL266
 7776 0f5a 0100     		.2byte	0x1
 7777 0f5c 50       		.byte	0x50
 7778 0f5d 1C000000 		.4byte	.LVL266
 7779 0f61 5A000000 		.4byte	.LVL270
 7780 0f65 0100     		.2byte	0x1
 7781 0f67 55       		.byte	0x55
 7782 0f68 5A000000 		.4byte	.LVL270
 7783 0f6c 5C000000 		.4byte	.LVL271
 7784 0f70 0100     		.2byte	0x1
 7785 0f72 50       		.byte	0x50
 7786 0f73 5C000000 		.4byte	.LVL271
 7787 0f77 68000000 		.4byte	.LFE155
 7788 0f7b 0100     		.2byte	0x1
 7789 0f7d 55       		.byte	0x55
 7790 0f7e 00000000 		.4byte	0
 7791 0f82 00000000 		.4byte	0
 7792              	.LLST72:
 7793 0f86 00000000 		.4byte	.LVL265
 7794 0f8a 27000000 		.4byte	.LVL267-1
 7795 0f8e 0100     		.2byte	0x1
 7796 0f90 51       		.byte	0x51
 7797 0f91 27000000 		.4byte	.LVL267-1
 7798 0f95 5A000000 		.4byte	.LVL270
 7799 0f99 0400     		.2byte	0x4
 7800 0f9b F3       		.byte	0xf3
 7801 0f9c 01       		.uleb128 0x1
 7802 0f9d 51       		.byte	0x51
 7803 0f9e 9F       		.byte	0x9f
 7804 0f9f 5A000000 		.4byte	.LVL270
 7805 0fa3 68000000 		.4byte	.LFE155
 7806 0fa7 0100     		.2byte	0x1
 7807 0fa9 51       		.byte	0x51
ARM GAS  /var/folders/m4/4md61f0s1_g0rzfghffqnxvr0000gn/T//ccTIFpbg.s 			page 138


 7808 0faa 00000000 		.4byte	0
 7809 0fae 00000000 		.4byte	0
 7810              	.LLST73:
 7811 0fb2 00000000 		.4byte	.LVL272
 7812 0fb6 18000000 		.4byte	.LVL273
 7813 0fba 0100     		.2byte	0x1
 7814 0fbc 50       		.byte	0x50
 7815 0fbd 18000000 		.4byte	.LVL273
 7816 0fc1 72000000 		.4byte	.LVL282
 7817 0fc5 0100     		.2byte	0x1
 7818 0fc7 55       		.byte	0x55
 7819 0fc8 72000000 		.4byte	.LVL282
 7820 0fcc 74000000 		.4byte	.LVL283
 7821 0fd0 0100     		.2byte	0x1
 7822 0fd2 50       		.byte	0x50
 7823 0fd3 74000000 		.4byte	.LVL283
 7824 0fd7 80000000 		.4byte	.LFE156
 7825 0fdb 0100     		.2byte	0x1
 7826 0fdd 55       		.byte	0x55
 7827 0fde 00000000 		.4byte	0
 7828 0fe2 00000000 		.4byte	0
 7829              	.LLST74:
 7830 0fe6 00000000 		.4byte	.LVL272
 7831 0fea 23000000 		.4byte	.LVL274-1
 7832 0fee 0100     		.2byte	0x1
 7833 0ff0 51       		.byte	0x51
 7834 0ff1 23000000 		.4byte	.LVL274-1
 7835 0ff5 72000000 		.4byte	.LVL282
 7836 0ff9 0400     		.2byte	0x4
 7837 0ffb F3       		.byte	0xf3
 7838 0ffc 01       		.uleb128 0x1
 7839 0ffd 51       		.byte	0x51
 7840 0ffe 9F       		.byte	0x9f
 7841 0fff 72000000 		.4byte	.LVL282
 7842 1003 80000000 		.4byte	.LFE156
 7843 1007 0100     		.2byte	0x1
 7844 1009 51       		.byte	0x51
 7845 100a 00000000 		.4byte	0
 7846 100e 00000000 		.4byte	0
 7847              	.LLST75:
 7848 1012 00000000 		.4byte	.LVL272
 7849 1016 23000000 		.4byte	.LVL274-1
 7850 101a 0100     		.2byte	0x1
 7851 101c 52       		.byte	0x52
 7852 101d 23000000 		.4byte	.LVL274-1
 7853 1021 72000000 		.4byte	.LVL282
 7854 1025 0400     		.2byte	0x4
 7855 1027 F3       		.byte	0xf3
 7856 1028 01       		.uleb128 0x1
 7857 1029 52       		.byte	0x52
 7858 102a 9F       		.byte	0x9f
 7859 102b 72000000 		.4byte	.LVL282
 7860 102f 80000000 		.4byte	.LFE156
 7861 1033 0100     		.2byte	0x1
 7862 1035 52       		.byte	0x52
 7863 1036 00000000 		.4byte	0
 7864 103a 00000000 		.4byte	0
ARM GAS  /var/folders/m4/4md61f0s1_g0rzfghffqnxvr0000gn/T//ccTIFpbg.s 			page 139


 7865              	.LLST76:
 7866 103e 00000000 		.4byte	.LVL272
 7867 1042 5A000000 		.4byte	.LVL276
 7868 1046 0200     		.2byte	0x2
 7869 1048 30       		.byte	0x30
 7870 1049 9F       		.byte	0x9f
 7871 104a 5A000000 		.4byte	.LVL276
 7872 104e 5C000000 		.4byte	.LVL277
 7873 1052 0600     		.2byte	0x6
 7874 1054 74       		.byte	0x74
 7875 1055 00       		.sleb128 0
 7876 1056 08       		.byte	0x8
 7877 1057 FF       		.byte	0xff
 7878 1058 1A       		.byte	0x1a
 7879 1059 9F       		.byte	0x9f
 7880 105a 5C000000 		.4byte	.LVL277
 7881 105e 60000000 		.4byte	.LVL278
 7882 1062 0100     		.2byte	0x1
 7883 1064 54       		.byte	0x54
 7884 1065 60000000 		.4byte	.LVL278
 7885 1069 68000000 		.4byte	.LVL279
 7886 106d 0100     		.2byte	0x1
 7887 106f 53       		.byte	0x53
 7888 1070 68000000 		.4byte	.LVL279
 7889 1074 6C000000 		.4byte	.LVL280
 7890 1078 0500     		.2byte	0x5
 7891 107a 31       		.byte	0x31
 7892 107b 74       		.byte	0x74
 7893 107c 00       		.sleb128 0
 7894 107d 24       		.byte	0x24
 7895 107e 9F       		.byte	0x9f
 7896 107f 6C000000 		.4byte	.LVL280
 7897 1083 6E000000 		.4byte	.LVL281
 7898 1087 0100     		.2byte	0x1
 7899 1089 53       		.byte	0x53
 7900 108a 6E000000 		.4byte	.LVL281
 7901 108e 72000000 		.4byte	.LVL282
 7902 1092 0500     		.2byte	0x5
 7903 1094 31       		.byte	0x31
 7904 1095 74       		.byte	0x74
 7905 1096 00       		.sleb128 0
 7906 1097 24       		.byte	0x24
 7907 1098 9F       		.byte	0x9f
 7908 1099 72000000 		.4byte	.LVL282
 7909 109d 80000000 		.4byte	.LFE156
 7910 10a1 0200     		.2byte	0x2
 7911 10a3 30       		.byte	0x30
 7912 10a4 9F       		.byte	0x9f
 7913 10a5 00000000 		.4byte	0
 7914 10a9 00000000 		.4byte	0
 7915              	.LLST77:
 7916 10ad 00000000 		.4byte	.LVL284
 7917 10b1 16000000 		.4byte	.LVL285
 7918 10b5 0100     		.2byte	0x1
 7919 10b7 50       		.byte	0x50
 7920 10b8 16000000 		.4byte	.LVL285
 7921 10bc 52000000 		.4byte	.LVL289
ARM GAS  /var/folders/m4/4md61f0s1_g0rzfghffqnxvr0000gn/T//ccTIFpbg.s 			page 140


 7922 10c0 0100     		.2byte	0x1
 7923 10c2 55       		.byte	0x55
 7924 10c3 52000000 		.4byte	.LVL289
 7925 10c7 54000000 		.4byte	.LVL290
 7926 10cb 0100     		.2byte	0x1
 7927 10cd 50       		.byte	0x50
 7928 10ce 54000000 		.4byte	.LVL290
 7929 10d2 60000000 		.4byte	.LFE157
 7930 10d6 0100     		.2byte	0x1
 7931 10d8 55       		.byte	0x55
 7932 10d9 00000000 		.4byte	0
 7933 10dd 00000000 		.4byte	0
 7934              	.LLST78:
 7935 10e1 00000000 		.4byte	.LVL284
 7936 10e5 21000000 		.4byte	.LVL286-1
 7937 10e9 0100     		.2byte	0x1
 7938 10eb 51       		.byte	0x51
 7939 10ec 21000000 		.4byte	.LVL286-1
 7940 10f0 52000000 		.4byte	.LVL289
 7941 10f4 0400     		.2byte	0x4
 7942 10f6 F3       		.byte	0xf3
 7943 10f7 01       		.uleb128 0x1
 7944 10f8 51       		.byte	0x51
 7945 10f9 9F       		.byte	0x9f
 7946 10fa 52000000 		.4byte	.LVL289
 7947 10fe 60000000 		.4byte	.LFE157
 7948 1102 0100     		.2byte	0x1
 7949 1104 51       		.byte	0x51
 7950 1105 00000000 		.4byte	0
 7951 1109 00000000 		.4byte	0
 7952              	.LLST79:
 7953 110d 00000000 		.4byte	.LVL284
 7954 1111 48000000 		.4byte	.LVL288
 7955 1115 0200     		.2byte	0x2
 7956 1117 30       		.byte	0x30
 7957 1118 9F       		.byte	0x9f
 7958 1119 48000000 		.4byte	.LVL288
 7959 111d 52000000 		.4byte	.LVL289
 7960 1121 0B00     		.2byte	0xb
 7961 1123 74       		.byte	0x74
 7962 1124 00       		.sleb128 0
 7963 1125 08       		.byte	0x8
 7964 1126 FF       		.byte	0xff
 7965 1127 1A       		.byte	0x1a
 7966 1128 73       		.byte	0x73
 7967 1129 00       		.sleb128 0
 7968 112a 1A       		.byte	0x1a
 7969 112b 30       		.byte	0x30
 7970 112c 2E       		.byte	0x2e
 7971 112d 9F       		.byte	0x9f
 7972 112e 52000000 		.4byte	.LVL289
 7973 1132 60000000 		.4byte	.LFE157
 7974 1136 0200     		.2byte	0x2
 7975 1138 30       		.byte	0x30
 7976 1139 9F       		.byte	0x9f
 7977 113a 00000000 		.4byte	0
 7978 113e 00000000 		.4byte	0
ARM GAS  /var/folders/m4/4md61f0s1_g0rzfghffqnxvr0000gn/T//ccTIFpbg.s 			page 141


 7979              	.LLST80:
 7980 1142 00000000 		.4byte	.LVL291
 7981 1146 16000000 		.4byte	.LVL292
 7982 114a 0100     		.2byte	0x1
 7983 114c 50       		.byte	0x50
 7984 114d 16000000 		.4byte	.LVL292
 7985 1151 44000000 		.4byte	.LVL297
 7986 1155 0100     		.2byte	0x1
 7987 1157 55       		.byte	0x55
 7988 1158 44000000 		.4byte	.LVL297
 7989 115c 46000000 		.4byte	.LVL298
 7990 1160 0100     		.2byte	0x1
 7991 1162 50       		.byte	0x50
 7992 1163 46000000 		.4byte	.LVL298
 7993 1167 50000000 		.4byte	.LFE158
 7994 116b 0100     		.2byte	0x1
 7995 116d 55       		.byte	0x55
 7996 116e 00000000 		.4byte	0
 7997 1172 00000000 		.4byte	0
 7998              	.LLST81:
 7999 1176 00000000 		.4byte	.LVL291
 8000 117a 21000000 		.4byte	.LVL293-1
 8001 117e 0100     		.2byte	0x1
 8002 1180 51       		.byte	0x51
 8003 1181 21000000 		.4byte	.LVL293-1
 8004 1185 44000000 		.4byte	.LVL297
 8005 1189 0400     		.2byte	0x4
 8006 118b F3       		.byte	0xf3
 8007 118c 01       		.uleb128 0x1
 8008 118d 51       		.byte	0x51
 8009 118e 9F       		.byte	0x9f
 8010 118f 44000000 		.4byte	.LVL297
 8011 1193 50000000 		.4byte	.LFE158
 8012 1197 0100     		.2byte	0x1
 8013 1199 51       		.byte	0x51
 8014 119a 00000000 		.4byte	0
 8015 119e 00000000 		.4byte	0
 8016              	.LLST82:
 8017 11a2 00000000 		.4byte	.LVL299
 8018 11a6 16000000 		.4byte	.LVL300
 8019 11aa 0100     		.2byte	0x1
 8020 11ac 50       		.byte	0x50
 8021 11ad 16000000 		.4byte	.LVL300
 8022 11b1 66000000 		.4byte	.LVL306
 8023 11b5 0100     		.2byte	0x1
 8024 11b7 55       		.byte	0x55
 8025 11b8 66000000 		.4byte	.LVL306
 8026 11bc 68000000 		.4byte	.LVL307
 8027 11c0 0100     		.2byte	0x1
 8028 11c2 50       		.byte	0x50
 8029 11c3 68000000 		.4byte	.LVL307
 8030 11c7 74000000 		.4byte	.LFE159
 8031 11cb 0100     		.2byte	0x1
 8032 11cd 55       		.byte	0x55
 8033 11ce 00000000 		.4byte	0
 8034 11d2 00000000 		.4byte	0
 8035              	.LLST83:
ARM GAS  /var/folders/m4/4md61f0s1_g0rzfghffqnxvr0000gn/T//ccTIFpbg.s 			page 142


 8036 11d6 00000000 		.4byte	.LVL299
 8037 11da 21000000 		.4byte	.LVL301-1
 8038 11de 0100     		.2byte	0x1
 8039 11e0 51       		.byte	0x51
 8040 11e1 21000000 		.4byte	.LVL301-1
 8041 11e5 66000000 		.4byte	.LVL306
 8042 11e9 0400     		.2byte	0x4
 8043 11eb F3       		.byte	0xf3
 8044 11ec 01       		.uleb128 0x1
 8045 11ed 51       		.byte	0x51
 8046 11ee 9F       		.byte	0x9f
 8047 11ef 66000000 		.4byte	.LVL306
 8048 11f3 74000000 		.4byte	.LFE159
 8049 11f7 0100     		.2byte	0x1
 8050 11f9 51       		.byte	0x51
 8051 11fa 00000000 		.4byte	0
 8052 11fe 00000000 		.4byte	0
 8053              	.LLST84:
 8054 1202 00000000 		.4byte	.LVL299
 8055 1206 64000000 		.4byte	.LVL305
 8056 120a 0200     		.2byte	0x2
 8057 120c 30       		.byte	0x30
 8058 120d 9F       		.byte	0x9f
 8059 120e 64000000 		.4byte	.LVL305
 8060 1212 66000000 		.4byte	.LVL306
 8061 1216 0100     		.2byte	0x1
 8062 1218 50       		.byte	0x50
 8063 1219 66000000 		.4byte	.LVL306
 8064 121d 74000000 		.4byte	.LFE159
 8065 1221 0200     		.2byte	0x2
 8066 1223 30       		.byte	0x30
 8067 1224 9F       		.byte	0x9f
 8068 1225 00000000 		.4byte	0
 8069 1229 00000000 		.4byte	0
 8070              	.LLST85:
 8071 122d 00000000 		.4byte	.LVL299
 8072 1231 4C000000 		.4byte	.LVL302
 8073 1235 0200     		.2byte	0x2
 8074 1237 30       		.byte	0x30
 8075 1238 9F       		.byte	0x9f
 8076 1239 4C000000 		.4byte	.LVL302
 8077 123d 58000000 		.4byte	.LVL304
 8078 1241 0900     		.2byte	0x9
 8079 1243 74       		.byte	0x74
 8080 1244 00       		.sleb128 0
 8081 1245 38       		.byte	0x38
 8082 1246 25       		.byte	0x25
 8083 1247 0A       		.byte	0xa
 8084 1248 FFFF     		.2byte	0xffff
 8085 124a 1A       		.byte	0x1a
 8086 124b 9F       		.byte	0x9f
 8087 124c 66000000 		.4byte	.LVL306
 8088 1250 74000000 		.4byte	.LFE159
 8089 1254 0200     		.2byte	0x2
 8090 1256 30       		.byte	0x30
 8091 1257 9F       		.byte	0x9f
 8092 1258 00000000 		.4byte	0
ARM GAS  /var/folders/m4/4md61f0s1_g0rzfghffqnxvr0000gn/T//ccTIFpbg.s 			page 143


 8093 125c 00000000 		.4byte	0
 8094              	.LLST86:
 8095 1260 00000000 		.4byte	.LVL299
 8096 1264 4E000000 		.4byte	.LVL303
 8097 1268 0200     		.2byte	0x2
 8098 126a 30       		.byte	0x30
 8099 126b 9F       		.byte	0x9f
 8100 126c 4E000000 		.4byte	.LVL303
 8101 1270 64000000 		.4byte	.LVL305
 8102 1274 0B00     		.2byte	0xb
 8103 1276 31       		.byte	0x31
 8104 1277 74       		.byte	0x74
 8105 1278 00       		.sleb128 0
 8106 1279 08       		.byte	0x8
 8107 127a FF       		.byte	0xff
 8108 127b 1A       		.byte	0x1a
 8109 127c 24       		.byte	0x24
 8110 127d 72       		.byte	0x72
 8111 127e 00       		.sleb128 0
 8112 127f 1A       		.byte	0x1a
 8113 1280 9F       		.byte	0x9f
 8114 1281 66000000 		.4byte	.LVL306
 8115 1285 74000000 		.4byte	.LFE159
 8116 1289 0200     		.2byte	0x2
 8117 128b 30       		.byte	0x30
 8118 128c 9F       		.byte	0x9f
 8119 128d 00000000 		.4byte	0
 8120 1291 00000000 		.4byte	0
 8121              	.LLST87:
 8122 1295 00000000 		.4byte	.LVL308
 8123 1299 16000000 		.4byte	.LVL309
 8124 129d 0100     		.2byte	0x1
 8125 129f 50       		.byte	0x50
 8126 12a0 16000000 		.4byte	.LVL309
 8127 12a4 5E000000 		.4byte	.LVL314
 8128 12a8 0100     		.2byte	0x1
 8129 12aa 55       		.byte	0x55
 8130 12ab 5E000000 		.4byte	.LVL314
 8131 12af 60000000 		.4byte	.LVL315
 8132 12b3 0100     		.2byte	0x1
 8133 12b5 50       		.byte	0x50
 8134 12b6 60000000 		.4byte	.LVL315
 8135 12ba 6C000000 		.4byte	.LFE160
 8136 12be 0100     		.2byte	0x1
 8137 12c0 55       		.byte	0x55
 8138 12c1 00000000 		.4byte	0
 8139 12c5 00000000 		.4byte	0
 8140              	.LLST88:
 8141 12c9 00000000 		.4byte	.LVL308
 8142 12cd 21000000 		.4byte	.LVL310-1
 8143 12d1 0100     		.2byte	0x1
 8144 12d3 51       		.byte	0x51
 8145 12d4 21000000 		.4byte	.LVL310-1
 8146 12d8 5E000000 		.4byte	.LVL314
 8147 12dc 0400     		.2byte	0x4
 8148 12de F3       		.byte	0xf3
 8149 12df 01       		.uleb128 0x1
ARM GAS  /var/folders/m4/4md61f0s1_g0rzfghffqnxvr0000gn/T//ccTIFpbg.s 			page 144


 8150 12e0 51       		.byte	0x51
 8151 12e1 9F       		.byte	0x9f
 8152 12e2 5E000000 		.4byte	.LVL314
 8153 12e6 6C000000 		.4byte	.LFE160
 8154 12ea 0100     		.2byte	0x1
 8155 12ec 51       		.byte	0x51
 8156 12ed 00000000 		.4byte	0
 8157 12f1 00000000 		.4byte	0
 8158              	.LLST89:
 8159 12f5 00000000 		.4byte	.LVL308
 8160 12f9 4C000000 		.4byte	.LVL311
 8161 12fd 0200     		.2byte	0x2
 8162 12ff 30       		.byte	0x30
 8163 1300 9F       		.byte	0x9f
 8164 1301 50000000 		.4byte	.LVL312
 8165 1305 5A000000 		.4byte	.LVL313
 8166 1309 0200     		.2byte	0x2
 8167 130b 30       		.byte	0x30
 8168 130c 9F       		.byte	0x9f
 8169 130d 5E000000 		.4byte	.LVL314
 8170 1311 6C000000 		.4byte	.LFE160
 8171 1315 0200     		.2byte	0x2
 8172 1317 30       		.byte	0x30
 8173 1318 9F       		.byte	0x9f
 8174 1319 00000000 		.4byte	0
 8175 131d 00000000 		.4byte	0
 8176              		.section	.debug_aranges,"",%progbits
 8177 0000 44010000 		.4byte	0x144
 8178 0004 0200     		.2byte	0x2
 8179 0006 00000000 		.4byte	.Ldebug_info0
 8180 000a 04       		.byte	0x4
 8181 000b 00       		.byte	0
 8182 000c 0000     		.2byte	0
 8183 000e 0000     		.2byte	0
 8184 0010 00000000 		.4byte	.LFB123
 8185 0014 1A000000 		.4byte	.LFE123-.LFB123
 8186 0018 00000000 		.4byte	.LFB124
 8187 001c 1C010000 		.4byte	.LFE124-.LFB124
 8188 0020 00000000 		.4byte	.LFB125
 8189 0024 14000000 		.4byte	.LFE125-.LFB125
 8190 0028 00000000 		.4byte	.LFB126
 8191 002c B0000000 		.4byte	.LFE126-.LFB126
 8192 0030 00000000 		.4byte	.LFB127
 8193 0034 0C000000 		.4byte	.LFE127-.LFB127
 8194 0038 00000000 		.4byte	.LFB128
 8195 003c 50000000 		.4byte	.LFE128-.LFB128
 8196 0040 00000000 		.4byte	.LFB129
 8197 0044 70000000 		.4byte	.LFE129-.LFB129
 8198 0048 00000000 		.4byte	.LFB130
 8199 004c 54000000 		.4byte	.LFE130-.LFB130
 8200 0050 00000000 		.4byte	.LFB131
 8201 0054 48000000 		.4byte	.LFE131-.LFB131
 8202 0058 00000000 		.4byte	.LFB132
 8203 005c 2C000000 		.4byte	.LFE132-.LFB132
 8204 0060 00000000 		.4byte	.LFB133
 8205 0064 2C000000 		.4byte	.LFE133-.LFB133
 8206 0068 00000000 		.4byte	.LFB134
ARM GAS  /var/folders/m4/4md61f0s1_g0rzfghffqnxvr0000gn/T//ccTIFpbg.s 			page 145


 8207 006c F0000000 		.4byte	.LFE134-.LFB134
 8208 0070 00000000 		.4byte	.LFB135
 8209 0074 38000000 		.4byte	.LFE135-.LFB135
 8210 0078 00000000 		.4byte	.LFB136
 8211 007c 40000000 		.4byte	.LFE136-.LFB136
 8212 0080 00000000 		.4byte	.LFB137
 8213 0084 50000000 		.4byte	.LFE137-.LFB137
 8214 0088 00000000 		.4byte	.LFB138
 8215 008c 50000000 		.4byte	.LFE138-.LFB138
 8216 0090 00000000 		.4byte	.LFB139
 8217 0094 4C000000 		.4byte	.LFE139-.LFB139
 8218 0098 00000000 		.4byte	.LFB140
 8219 009c 50000000 		.4byte	.LFE140-.LFB140
 8220 00a0 00000000 		.4byte	.LFB141
 8221 00a4 3C000000 		.4byte	.LFE141-.LFB141
 8222 00a8 00000000 		.4byte	.LFB142
 8223 00ac 0C000000 		.4byte	.LFE142-.LFB142
 8224 00b0 00000000 		.4byte	.LFB143
 8225 00b4 50000000 		.4byte	.LFE143-.LFB143
 8226 00b8 00000000 		.4byte	.LFB144
 8227 00bc 50000000 		.4byte	.LFE144-.LFB144
 8228 00c0 00000000 		.4byte	.LFB145
 8229 00c4 2C000000 		.4byte	.LFE145-.LFB145
 8230 00c8 00000000 		.4byte	.LFB146
 8231 00cc B0000000 		.4byte	.LFE146-.LFB146
 8232 00d0 00000000 		.4byte	.LFB147
 8233 00d4 4C000000 		.4byte	.LFE147-.LFB147
 8234 00d8 00000000 		.4byte	.LFB148
 8235 00dc 74000000 		.4byte	.LFE148-.LFB148
 8236 00e0 00000000 		.4byte	.LFB149
 8237 00e4 6C000000 		.4byte	.LFE149-.LFB149
 8238 00e8 00000000 		.4byte	.LFB150
 8239 00ec 50000000 		.4byte	.LFE150-.LFB150
 8240 00f0 00000000 		.4byte	.LFB151
 8241 00f4 38000000 		.4byte	.LFE151-.LFB151
 8242 00f8 00000000 		.4byte	.LFB152
 8243 00fc 40000000 		.4byte	.LFE152-.LFB152
 8244 0100 00000000 		.4byte	.LFB153
 8245 0104 50000000 		.4byte	.LFE153-.LFB153
 8246 0108 00000000 		.4byte	.LFB154
 8247 010c 50000000 		.4byte	.LFE154-.LFB154
 8248 0110 00000000 		.4byte	.LFB155
 8249 0114 68000000 		.4byte	.LFE155-.LFB155
 8250 0118 00000000 		.4byte	.LFB156
 8251 011c 80000000 		.4byte	.LFE156-.LFB156
 8252 0120 00000000 		.4byte	.LFB157
 8253 0124 60000000 		.4byte	.LFE157-.LFB157
 8254 0128 00000000 		.4byte	.LFB158
 8255 012c 50000000 		.4byte	.LFE158-.LFB158
 8256 0130 00000000 		.4byte	.LFB159
 8257 0134 74000000 		.4byte	.LFE159-.LFB159
 8258 0138 00000000 		.4byte	.LFB160
 8259 013c 6C000000 		.4byte	.LFE160-.LFB160
 8260 0140 00000000 		.4byte	0
 8261 0144 00000000 		.4byte	0
 8262              		.section	.debug_ranges,"",%progbits
 8263              	.Ldebug_ranges0:
ARM GAS  /var/folders/m4/4md61f0s1_g0rzfghffqnxvr0000gn/T//ccTIFpbg.s 			page 146


 8264 0000 00000000 		.4byte	.LFB123
 8265 0004 1A000000 		.4byte	.LFE123
 8266 0008 00000000 		.4byte	.LFB124
 8267 000c 1C010000 		.4byte	.LFE124
 8268 0010 00000000 		.4byte	.LFB125
 8269 0014 14000000 		.4byte	.LFE125
 8270 0018 00000000 		.4byte	.LFB126
 8271 001c B0000000 		.4byte	.LFE126
 8272 0020 00000000 		.4byte	.LFB127
 8273 0024 0C000000 		.4byte	.LFE127
 8274 0028 00000000 		.4byte	.LFB128
 8275 002c 50000000 		.4byte	.LFE128
 8276 0030 00000000 		.4byte	.LFB129
 8277 0034 70000000 		.4byte	.LFE129
 8278 0038 00000000 		.4byte	.LFB130
 8279 003c 54000000 		.4byte	.LFE130
 8280 0040 00000000 		.4byte	.LFB131
 8281 0044 48000000 		.4byte	.LFE131
 8282 0048 00000000 		.4byte	.LFB132
 8283 004c 2C000000 		.4byte	.LFE132
 8284 0050 00000000 		.4byte	.LFB133
 8285 0054 2C000000 		.4byte	.LFE133
 8286 0058 00000000 		.4byte	.LFB134
 8287 005c F0000000 		.4byte	.LFE134
 8288 0060 00000000 		.4byte	.LFB135
 8289 0064 38000000 		.4byte	.LFE135
 8290 0068 00000000 		.4byte	.LFB136
 8291 006c 40000000 		.4byte	.LFE136
 8292 0070 00000000 		.4byte	.LFB137
 8293 0074 50000000 		.4byte	.LFE137
 8294 0078 00000000 		.4byte	.LFB138
 8295 007c 50000000 		.4byte	.LFE138
 8296 0080 00000000 		.4byte	.LFB139
 8297 0084 4C000000 		.4byte	.LFE139
 8298 0088 00000000 		.4byte	.LFB140
 8299 008c 50000000 		.4byte	.LFE140
 8300 0090 00000000 		.4byte	.LFB141
 8301 0094 3C000000 		.4byte	.LFE141
 8302 0098 00000000 		.4byte	.LFB142
 8303 009c 0C000000 		.4byte	.LFE142
 8304 00a0 00000000 		.4byte	.LFB143
 8305 00a4 50000000 		.4byte	.LFE143
 8306 00a8 00000000 		.4byte	.LFB144
 8307 00ac 50000000 		.4byte	.LFE144
 8308 00b0 00000000 		.4byte	.LFB145
 8309 00b4 2C000000 		.4byte	.LFE145
 8310 00b8 00000000 		.4byte	.LFB146
 8311 00bc B0000000 		.4byte	.LFE146
 8312 00c0 00000000 		.4byte	.LFB147
 8313 00c4 4C000000 		.4byte	.LFE147
 8314 00c8 00000000 		.4byte	.LFB148
 8315 00cc 74000000 		.4byte	.LFE148
 8316 00d0 00000000 		.4byte	.LFB149
 8317 00d4 6C000000 		.4byte	.LFE149
 8318 00d8 00000000 		.4byte	.LFB150
 8319 00dc 50000000 		.4byte	.LFE150
 8320 00e0 00000000 		.4byte	.LFB151
ARM GAS  /var/folders/m4/4md61f0s1_g0rzfghffqnxvr0000gn/T//ccTIFpbg.s 			page 147


 8321 00e4 38000000 		.4byte	.LFE151
 8322 00e8 00000000 		.4byte	.LFB152
 8323 00ec 40000000 		.4byte	.LFE152
 8324 00f0 00000000 		.4byte	.LFB153
 8325 00f4 50000000 		.4byte	.LFE153
 8326 00f8 00000000 		.4byte	.LFB154
 8327 00fc 50000000 		.4byte	.LFE154
 8328 0100 00000000 		.4byte	.LFB155
 8329 0104 68000000 		.4byte	.LFE155
 8330 0108 00000000 		.4byte	.LFB156
 8331 010c 80000000 		.4byte	.LFE156
 8332 0110 00000000 		.4byte	.LFB157
 8333 0114 60000000 		.4byte	.LFE157
 8334 0118 00000000 		.4byte	.LFB158
 8335 011c 50000000 		.4byte	.LFE158
 8336 0120 00000000 		.4byte	.LFB159
 8337 0124 74000000 		.4byte	.LFE159
 8338 0128 00000000 		.4byte	.LFB160
 8339 012c 6C000000 		.4byte	.LFE160
 8340 0130 00000000 		.4byte	0
 8341 0134 00000000 		.4byte	0
 8342              		.section	.debug_line,"",%progbits
 8343              	.Ldebug_line0:
 8344 0000 9D0B0000 		.section	.debug_str,"MS",%progbits,1
 8344      0200D201 
 8344      00000201 
 8344      FB0E0D00 
 8344      01010101 
 8345              	.LASF78:
 8346 0000 4144435F 		.ascii	"ADC_SampleTime\000"
 8346      53616D70 
 8346      6C655469 
 8346      6D6500
 8347              	.LASF75:
 8348 000f 4144435F 		.ascii	"ADC_VBATCmd\000"
 8348      56424154 
 8348      436D6400 
 8349              	.LASF47:
 8350 001b 4144435F 		.ascii	"ADC_InitTypeDef\000"
 8350      496E6974 
 8350      54797065 
 8350      44656600 
 8351              	.LASF24:
 8352 002b 53515231 		.ascii	"SQR1\000"
 8352      00
 8353              	.LASF25:
 8354 0030 53515232 		.ascii	"SQR2\000"
 8354      00
 8355              	.LASF26:
 8356 0035 53515233 		.ascii	"SQR3\000"
 8356      00
 8357              	.LASF46:
 8358 003a 4144435F 		.ascii	"ADC_NbrOfConversion\000"
 8358      4E62724F 
 8358      66436F6E 
 8358      76657273 
 8358      696F6E00 
ARM GAS  /var/folders/m4/4md61f0s1_g0rzfghffqnxvr0000gn/T//ccTIFpbg.s 			page 148


 8359              	.LASF63:
 8360 004e 4144435F 		.ascii	"ADC_CommonStructInit\000"
 8360      436F6D6D 
 8360      6F6E5374 
 8360      72756374 
 8360      496E6974 
 8361              	.LASF67:
 8362 0063 4144435F 		.ascii	"ADC_AnalogWatchdog\000"
 8362      416E616C 
 8362      6F675761 
 8362      74636864 
 8362      6F6700
 8363              	.LASF12:
 8364 0076 756E7369 		.ascii	"unsigned int\000"
 8364      676E6564 
 8364      20696E74 
 8364      00
 8365              	.LASF39:
 8366 0083 46756E63 		.ascii	"FunctionalState\000"
 8366      74696F6E 
 8366      616C5374 
 8366      61746500 
 8367              	.LASF6:
 8368 0093 5F5F696E 		.ascii	"__int32_t\000"
 8368      7433325F 
 8368      7400
 8369              	.LASF35:
 8370 009d 466C6167 		.ascii	"FlagStatus\000"
 8370      53746174 
 8370      757300
 8371              	.LASF114:
 8372 00a8 656E6162 		.ascii	"enablestatus\000"
 8372      6C657374 
 8372      61747573 
 8372      00
 8373              	.LASF119:
 8374 00b5 2F557365 		.ascii	"/Users/raphael/Documents/pcb-quadrotor/code\000"
 8374      72732F72 
 8374      61706861 
 8374      656C2F44 
 8374      6F63756D 
 8375              	.LASF88:
 8376 00e1 4144435F 		.ascii	"ADC_DMACmd\000"
 8376      444D4143 
 8376      6D6400
 8377              	.LASF56:
 8378 00ec 4144435F 		.ascii	"ADC_InitStruct\000"
 8378      496E6974 
 8378      53747275 
 8378      637400
 8379              	.LASF100:
 8380 00fb 4144435F 		.ascii	"ADC_ExternalTrigInjectedConvEdgeConfig\000"
 8380      45787465 
 8380      726E616C 
 8380      54726967 
 8380      496E6A65 
 8381              	.LASF16:
ARM GAS  /var/folders/m4/4md61f0s1_g0rzfghffqnxvr0000gn/T//ccTIFpbg.s 			page 149


 8382 0122 75696E74 		.ascii	"uint32_t\000"
 8382      33325F74 
 8382      00
 8383              	.LASF113:
 8384 012b 4144435F 		.ascii	"ADC_GetITStatus\000"
 8384      47657449 
 8384      54537461 
 8384      74757300 
 8385              	.LASF64:
 8386 013b 4144435F 		.ascii	"ADC_Cmd\000"
 8386      436D6400 
 8387              	.LASF66:
 8388 0143 4144435F 		.ascii	"ADC_AnalogWatchdogCmd\000"
 8388      416E616C 
 8388      6F675761 
 8388      74636864 
 8388      6F67436D 
 8389              	.LASF53:
 8390 0159 4144435F 		.ascii	"ADC_DeInit\000"
 8390      4465496E 
 8390      697400
 8391              	.LASF103:
 8392 0164 4144435F 		.ascii	"ADC_GetSoftwareStartInjectedConvCmdStatus\000"
 8392      47657453 
 8392      6F667477 
 8392      61726553 
 8392      74617274 
 8393              	.LASF11:
 8394 018e 6C6F6E67 		.ascii	"long long unsigned int\000"
 8394      206C6F6E 
 8394      6720756E 
 8394      7369676E 
 8394      65642069 
 8395              	.LASF95:
 8396 01a5 4144435F 		.ascii	"ADC_SetInjectedOffset\000"
 8396      53657449 
 8396      6E6A6563 
 8396      7465644F 
 8396      66667365 
 8397              	.LASF41:
 8398 01bb 4144435F 		.ascii	"ADC_ScanConvMode\000"
 8398      5363616E 
 8398      436F6E76 
 8398      4D6F6465 
 8398      00
 8399              	.LASF54:
 8400 01cc 4144435F 		.ascii	"ADC_Init\000"
 8400      496E6974 
 8400      00
 8401              	.LASF4:
 8402 01d5 5F5F7569 		.ascii	"__uint16_t\000"
 8402      6E743136 
 8402      5F7400
 8403              	.LASF96:
 8404 01e0 4144435F 		.ascii	"ADC_InjectedChannel\000"
 8404      496E6A65 
 8404      63746564 
ARM GAS  /var/folders/m4/4md61f0s1_g0rzfghffqnxvr0000gn/T//ccTIFpbg.s 			page 150


 8404      4368616E 
 8404      6E656C00 
 8405              	.LASF94:
 8406 01f4 4C656E67 		.ascii	"Length\000"
 8406      746800
 8407              	.LASF89:
 8408 01fb 4144435F 		.ascii	"ADC_DMARequestAfterLastTransferCmd\000"
 8408      444D4152 
 8408      65717565 
 8408      73744166 
 8408      7465724C 
 8409              	.LASF68:
 8410 021e 746D7072 		.ascii	"tmpreg\000"
 8410      656700
 8411              	.LASF105:
 8412 0225 4144435F 		.ascii	"ADC_InjectedDiscModeCmd\000"
 8412      496E6A65 
 8412      63746564 
 8412      44697363 
 8412      4D6F6465 
 8413              	.LASF36:
 8414 023d 49545374 		.ascii	"ITStatus\000"
 8414      61747573 
 8414      00
 8415              	.LASF111:
 8416 0246 4144435F 		.ascii	"ADC_FLAG\000"
 8416      464C4147 
 8416      00
 8417              	.LASF84:
 8418 024f 4E756D62 		.ascii	"Number\000"
 8418      657200
 8419              	.LASF65:
 8420 0256 4E657753 		.ascii	"NewState\000"
 8420      74617465 
 8420      00
 8421              	.LASF98:
 8422 025f 4144435F 		.ascii	"ADC_ExternalTrigInjectedConvConfig\000"
 8422      45787465 
 8422      726E616C 
 8422      54726967 
 8422      496E6A65 
 8423              	.LASF69:
 8424 0282 4144435F 		.ascii	"ADC_AnalogWatchdogThresholdsConfig\000"
 8424      416E616C 
 8424      6F675761 
 8424      74636864 
 8424      6F675468 
 8425              	.LASF108:
 8426 02a5 4144435F 		.ascii	"ADC_IT\000"
 8426      495400
 8427              	.LASF70:
 8428 02ac 48696768 		.ascii	"HighThreshold\000"
 8428      54687265 
 8428      73686F6C 
 8428      6400
 8429              	.LASF42:
 8430 02ba 4144435F 		.ascii	"ADC_ContinuousConvMode\000"
ARM GAS  /var/folders/m4/4md61f0s1_g0rzfghffqnxvr0000gn/T//ccTIFpbg.s 			page 151


 8430      436F6E74 
 8430      696E756F 
 8430      7573436F 
 8430      6E764D6F 
 8431              	.LASF37:
 8432 02d1 44495341 		.ascii	"DISABLE\000"
 8432      424C4500 
 8433              	.LASF72:
 8434 02d9 4144435F 		.ascii	"ADC_AnalogWatchdogSingleChannelConfig\000"
 8434      416E616C 
 8434      6F675761 
 8434      74636864 
 8434      6F675369 
 8435              	.LASF13:
 8436 02ff 75696E74 		.ascii	"uint8_t\000"
 8436      385F7400 
 8437              	.LASF61:
 8438 0307 4144435F 		.ascii	"ADC_CommonInitStruct\000"
 8438      436F6D6D 
 8438      6F6E496E 
 8438      69745374 
 8438      72756374 
 8439              	.LASF50:
 8440 031c 4144435F 		.ascii	"ADC_DMAAccessMode\000"
 8440      444D4141 
 8440      63636573 
 8440      734D6F64 
 8440      6500
 8441              	.LASF32:
 8442 032e 4144435F 		.ascii	"ADC_TypeDef\000"
 8442      54797065 
 8442      44656600 
 8443              	.LASF10:
 8444 033a 6C6F6E67 		.ascii	"long long int\000"
 8444      206C6F6E 
 8444      6720696E 
 8444      7400
 8445              	.LASF43:
 8446 0348 4144435F 		.ascii	"ADC_ExternalTrigConvEdge\000"
 8446      45787465 
 8446      726E616C 
 8446      54726967 
 8446      436F6E76 
 8447              	.LASF40:
 8448 0361 4144435F 		.ascii	"ADC_Resolution\000"
 8448      5265736F 
 8448      6C757469 
 8448      6F6E00
 8449              	.LASF60:
 8450 0370 4144435F 		.ascii	"ADC_CommonInit\000"
 8450      436F6D6D 
 8450      6F6E496E 
 8450      697400
 8451              	.LASF71:
 8452 037f 4C6F7754 		.ascii	"LowThreshold\000"
 8452      68726573 
 8452      686F6C64 
ARM GAS  /var/folders/m4/4md61f0s1_g0rzfghffqnxvr0000gn/T//ccTIFpbg.s 			page 152


 8452      00
 8453              	.LASF55:
 8454 038c 41444378 		.ascii	"ADCx\000"
 8454      00
 8455              	.LASF74:
 8456 0391 4144435F 		.ascii	"ADC_TempSensorVrefintCmd\000"
 8456      54656D70 
 8456      53656E73 
 8456      6F725672 
 8456      6566696E 
 8457              	.LASF120:
 8458 03aa 4144435F 		.ascii	"ADC_GetMultiModeConversionValue\000"
 8458      4765744D 
 8458      756C7469 
 8458      4D6F6465 
 8458      436F6E76 
 8459              	.LASF91:
 8460 03ca 4144435F 		.ascii	"ADC_InjectedChannelConfig\000"
 8460      496E6A65 
 8460      63746564 
 8460      4368616E 
 8460      6E656C43 
 8461              	.LASF51:
 8462 03e4 4144435F 		.ascii	"ADC_TwoSamplingDelay\000"
 8462      54776F53 
 8462      616D706C 
 8462      696E6744 
 8462      656C6179 
 8463              	.LASF27:
 8464 03f9 4A535152 		.ascii	"JSQR\000"
 8464      00
 8465              	.LASF115:
 8466 03fe 4144435F 		.ascii	"ADC_ClearITPendingBit\000"
 8466      436C6561 
 8466      72495450 
 8466      656E6469 
 8466      6E674269 
 8467              	.LASF107:
 8468 0414 4144435F 		.ascii	"ADC_ITConfig\000"
 8468      4954436F 
 8468      6E666967 
 8468      00
 8469              	.LASF18:
 8470 0421 534D5052 		.ascii	"SMPR1\000"
 8470      3100
 8471              	.LASF19:
 8472 0427 534D5052 		.ascii	"SMPR2\000"
 8472      3200
 8473              	.LASF116:
 8474 042d 5243435F 		.ascii	"RCC_APB2PeriphResetCmd\000"
 8474      41504232 
 8474      50657269 
 8474      70685265 
 8474      73657443 
 8475              	.LASF48:
 8476 0444 4144435F 		.ascii	"ADC_Mode\000"
 8476      4D6F6465 
ARM GAS  /var/folders/m4/4md61f0s1_g0rzfghffqnxvr0000gn/T//ccTIFpbg.s 			page 153


 8476      00
 8477              	.LASF110:
 8478 044d 4144435F 		.ascii	"ADC_GetFlagStatus\000"
 8478      47657446 
 8478      6C616753 
 8478      74617475 
 8478      7300
 8479              	.LASF86:
 8480 045f 4144435F 		.ascii	"ADC_GetSoftwareStartConvStatus\000"
 8480      47657453 
 8480      6F667477 
 8480      61726553 
 8480      74617274 
 8481              	.LASF14:
 8482 047e 75696E74 		.ascii	"uint16_t\000"
 8482      31365F74 
 8482      00
 8483              	.LASF109:
 8484 0487 69746D61 		.ascii	"itmask\000"
 8484      736B00
 8485              	.LASF79:
 8486 048e 4144435F 		.ascii	"ADC_SoftwareStartConv\000"
 8486      536F6674 
 8486      77617265 
 8486      53746172 
 8486      74436F6E 
 8487              	.LASF77:
 8488 04a4 52616E6B 		.ascii	"Rank\000"
 8488      00
 8489              	.LASF28:
 8490 04a9 4A445231 		.ascii	"JDR1\000"
 8490      00
 8491              	.LASF29:
 8492 04ae 4A445232 		.ascii	"JDR2\000"
 8492      00
 8493              	.LASF30:
 8494 04b3 4A445233 		.ascii	"JDR3\000"
 8494      00
 8495              	.LASF31:
 8496 04b8 4A445234 		.ascii	"JDR4\000"
 8496      00
 8497              	.LASF59:
 8498 04bd 4144435F 		.ascii	"ADC_StructInit\000"
 8498      53747275 
 8498      6374496E 
 8498      697400
 8499              	.LASF49:
 8500 04cc 4144435F 		.ascii	"ADC_Prescaler\000"
 8500      50726573 
 8500      63616C65 
 8500      7200
 8501              	.LASF2:
 8502 04da 73686F72 		.ascii	"short int\000"
 8502      7420696E 
 8502      7400
 8503              	.LASF33:
 8504 04e4 4144435F 		.ascii	"ADC_Common_TypeDef\000"
ARM GAS  /var/folders/m4/4md61f0s1_g0rzfghffqnxvr0000gn/T//ccTIFpbg.s 			page 154


 8504      436F6D6D 
 8504      6F6E5F54 
 8504      79706544 
 8504      656600
 8505              	.LASF7:
 8506 04f7 6C6F6E67 		.ascii	"long int\000"
 8506      20696E74 
 8506      00
 8507              	.LASF121:
 8508 0500 49544D5F 		.ascii	"ITM_RxBuffer\000"
 8508      52784275 
 8508      66666572 
 8508      00
 8509              	.LASF45:
 8510 050d 4144435F 		.ascii	"ADC_DataAlign\000"
 8510      44617461 
 8510      416C6967 
 8510      6E00
 8511              	.LASF62:
 8512 051b 61737365 		.ascii	"assert_param\000"
 8512      72745F70 
 8512      6172616D 
 8512      00
 8513              	.LASF34:
 8514 0528 52455345 		.ascii	"RESET\000"
 8514      5400
 8515              	.LASF99:
 8516 052e 4144435F 		.ascii	"ADC_ExternalTrigInjecConv\000"
 8516      45787465 
 8516      726E616C 
 8516      54726967 
 8516      496E6A65 
 8517              	.LASF102:
 8518 0548 4144435F 		.ascii	"ADC_SoftwareStartInjectedConv\000"
 8518      536F6674 
 8518      77617265 
 8518      53746172 
 8518      74496E6A 
 8519              	.LASF83:
 8520 0566 4144435F 		.ascii	"ADC_DiscModeChannelCountConfig\000"
 8520      44697363 
 8520      4D6F6465 
 8520      4368616E 
 8520      6E656C43 
 8521              	.LASF104:
 8522 0585 4144435F 		.ascii	"ADC_AutoInjectedConvCmd\000"
 8522      4175746F 
 8522      496E6A65 
 8522      63746564 
 8522      436F6E76 
 8523              	.LASF3:
 8524 059d 5F5F7569 		.ascii	"__uint8_t\000"
 8524      6E74385F 
 8524      7400
 8525              	.LASF112:
 8526 05a7 4144435F 		.ascii	"ADC_ClearFlag\000"
 8526      436C6561 
ARM GAS  /var/folders/m4/4md61f0s1_g0rzfghffqnxvr0000gn/T//ccTIFpbg.s 			page 155


 8526      72466C61 
 8526      6700
 8527              	.LASF106:
 8528 05b5 4144435F 		.ascii	"ADC_GetInjectedConversionValue\000"
 8528      47657449 
 8528      6E6A6563 
 8528      74656443 
 8528      6F6E7665 
 8529              	.LASF73:
 8530 05d4 4144435F 		.ascii	"ADC_Channel\000"
 8530      4368616E 
 8530      6E656C00 
 8531              	.LASF38:
 8532 05e0 454E4142 		.ascii	"ENABLE\000"
 8532      4C4500
 8533              	.LASF17:
 8534 05e7 73697A65 		.ascii	"sizetype\000"
 8534      74797065 
 8534      00
 8535              	.LASF9:
 8536 05f0 6C6F6E67 		.ascii	"long unsigned int\000"
 8536      20756E73 
 8536      69676E65 
 8536      6420696E 
 8536      7400
 8537              	.LASF57:
 8538 0602 746D7072 		.ascii	"tmpreg1\000"
 8538      65673100 
 8539              	.LASF58:
 8540 060a 746D7072 		.ascii	"tmpreg2\000"
 8540      65673200 
 8541              	.LASF92:
 8542 0612 746D7072 		.ascii	"tmpreg3\000"
 8542      65673300 
 8543              	.LASF15:
 8544 061a 696E7433 		.ascii	"int32_t\000"
 8544      325F7400 
 8545              	.LASF101:
 8546 0622 4144435F 		.ascii	"ADC_ExternalTrigInjecConvEdge\000"
 8546      45787465 
 8546      726E616C 
 8546      54726967 
 8546      496E6A65 
 8547              	.LASF1:
 8548 0640 756E7369 		.ascii	"unsigned char\000"
 8548      676E6564 
 8548      20636861 
 8548      7200
 8549              	.LASF82:
 8550 064e 4144435F 		.ascii	"ADC_ContinuousModeCmd\000"
 8550      436F6E74 
 8550      696E756F 
 8550      75734D6F 
 8550      6465436D 
 8551              	.LASF8:
 8552 0664 5F5F7569 		.ascii	"__uint32_t\000"
 8552      6E743332 
ARM GAS  /var/folders/m4/4md61f0s1_g0rzfghffqnxvr0000gn/T//ccTIFpbg.s 			page 156


 8552      5F7400
 8553              	.LASF118:
 8554 066f 43686962 		.ascii	"ChibiOS_16.1.4/ext/stdperiph_stm32f4/src/stm32f4xx_"
 8554      694F535F 
 8554      31362E31 
 8554      2E342F65 
 8554      78742F73 
 8555 06a2 6164632E 		.ascii	"adc.c\000"
 8555      6300
 8556              	.LASF81:
 8557 06a8 4144435F 		.ascii	"ADC_EOCOnEachRegularChannelCmd\000"
 8557      454F434F 
 8557      6E456163 
 8557      68526567 
 8557      756C6172 
 8558              	.LASF52:
 8559 06c7 4144435F 		.ascii	"ADC_CommonInitTypeDef\000"
 8559      436F6D6D 
 8559      6F6E496E 
 8559      69745479 
 8559      70654465 
 8560              	.LASF93:
 8561 06dd 4144435F 		.ascii	"ADC_InjectedSequencerLengthConfig\000"
 8561      496E6A65 
 8561      63746564 
 8561      53657175 
 8561      656E6365 
 8562              	.LASF90:
 8563 06ff 4144435F 		.ascii	"ADC_MultiModeDMARequestAfterLastTransferCmd\000"
 8563      4D756C74 
 8563      694D6F64 
 8563      65444D41 
 8563      52657175 
 8564              	.LASF85:
 8565 072b 4144435F 		.ascii	"ADC_DiscModeCmd\000"
 8565      44697363 
 8565      4D6F6465 
 8565      436D6400 
 8566              	.LASF44:
 8567 073b 4144435F 		.ascii	"ADC_ExternalTrigConv\000"
 8567      45787465 
 8567      726E616C 
 8567      54726967 
 8567      436F6E76 
 8568              	.LASF0:
 8569 0750 7369676E 		.ascii	"signed char\000"
 8569      65642063 
 8569      68617200 
 8570              	.LASF5:
 8571 075c 73686F72 		.ascii	"short unsigned int\000"
 8571      7420756E 
 8571      7369676E 
 8571      65642069 
 8571      6E7400
 8572              	.LASF20:
 8573 076f 4A4F4652 		.ascii	"JOFR1\000"
 8573      3100
ARM GAS  /var/folders/m4/4md61f0s1_g0rzfghffqnxvr0000gn/T//ccTIFpbg.s 			page 157


 8574              	.LASF21:
 8575 0775 4A4F4652 		.ascii	"JOFR2\000"
 8575      3200
 8576              	.LASF22:
 8577 077b 4A4F4652 		.ascii	"JOFR3\000"
 8577      3300
 8578              	.LASF23:
 8579 0781 4A4F4652 		.ascii	"JOFR4\000"
 8579      3400
 8580              	.LASF117:
 8581 0787 474E5520 		.ascii	"GNU C 4.9.3 20150529 (release) [ARM/embedded-4_9-br"
 8581      4320342E 
 8581      392E3320 
 8581      32303135 
 8581      30353239 
 8582 07ba 616E6368 		.ascii	"anch revision 224288] -mcpu=cortex-m4 -mfloat-abi=h"
 8582      20726576 
 8582      6973696F 
 8582      6E203232 
 8582      34323838 
 8583 07ed 61726420 		.ascii	"ard -mfpu=fpv4-sp-d16 -mno-thumb-interwork -mthumb "
 8583      2D6D6670 
 8583      753D6670 
 8583      76342D73 
 8583      702D6431 
 8584 0820 2D676764 		.ascii	"-ggdb -O2 -std=c99 -fomit-frame-pointer -falign-fun"
 8584      62202D4F 
 8584      32202D73 
 8584      74643D63 
 8584      3939202D 
 8585 0853 6374696F 		.ascii	"ctions=16 -ffunction-sections -fdata-sections -fno-"
 8585      6E733D31 
 8585      36202D66 
 8585      66756E63 
 8585      74696F6E 
 8586 0886 636F6D6D 		.ascii	"common -fsingle-precision-constant\000"
 8586      6F6E202D 
 8586      6673696E 
 8586      676C652D 
 8586      70726563 
 8587              	.LASF80:
 8588 08a9 62697473 		.ascii	"bitstatus\000"
 8588      74617475 
 8588      7300
 8589              	.LASF97:
 8590 08b3 4F666673 		.ascii	"Offset\000"
 8590      657400
 8591              	.LASF76:
 8592 08ba 4144435F 		.ascii	"ADC_RegularChannelConfig\000"
 8592      52656775 
 8592      6C617243 
 8592      68616E6E 
 8592      656C436F 
 8593              	.LASF87:
 8594 08d3 4144435F 		.ascii	"ADC_GetConversionValue\000"
 8594      47657443 
 8594      6F6E7665 
ARM GAS  /var/folders/m4/4md61f0s1_g0rzfghffqnxvr0000gn/T//ccTIFpbg.s 			page 158


 8594      7273696F 
 8594      6E56616C 
 8595              		.ident	"GCC: (GNU Tools for ARM Embedded Processors) 4.9.3 20150529 (release) [ARM/embedded-4_9-br
ARM GAS  /var/folders/m4/4md61f0s1_g0rzfghffqnxvr0000gn/T//ccTIFpbg.s 			page 159


DEFINED SYMBOLS
                            *ABS*:0000000000000000 stm32f4xx_adc.c
/var/folders/m4/4md61f0s1_g0rzfghffqnxvr0000gn/T//ccTIFpbg.s:21     .text.ADC_DeInit:0000000000000000 $t
/var/folders/m4/4md61f0s1_g0rzfghffqnxvr0000gn/T//ccTIFpbg.s:27     .text.ADC_DeInit:0000000000000000 ADC_DeInit
/var/folders/m4/4md61f0s1_g0rzfghffqnxvr0000gn/T//ccTIFpbg.s:58     .text.ADC_Init:0000000000000000 $t
/var/folders/m4/4md61f0s1_g0rzfghffqnxvr0000gn/T//ccTIFpbg.s:64     .text.ADC_Init:0000000000000000 ADC_Init
/var/folders/m4/4md61f0s1_g0rzfghffqnxvr0000gn/T//ccTIFpbg.s:254    .text.ADC_Init:0000000000000110 $d
/var/folders/m4/4md61f0s1_g0rzfghffqnxvr0000gn/T//ccTIFpbg.s:261    .text.ADC_StructInit:0000000000000000 $t
/var/folders/m4/4md61f0s1_g0rzfghffqnxvr0000gn/T//ccTIFpbg.s:267    .text.ADC_StructInit:0000000000000000 ADC_StructInit
/var/folders/m4/4md61f0s1_g0rzfghffqnxvr0000gn/T//ccTIFpbg.s:297    .text.ADC_CommonInit:0000000000000000 $t
/var/folders/m4/4md61f0s1_g0rzfghffqnxvr0000gn/T//ccTIFpbg.s:303    .text.ADC_CommonInit:0000000000000000 ADC_CommonInit
/var/folders/m4/4md61f0s1_g0rzfghffqnxvr0000gn/T//ccTIFpbg.s:428    .text.ADC_CommonInit:00000000000000a8 $d
/var/folders/m4/4md61f0s1_g0rzfghffqnxvr0000gn/T//ccTIFpbg.s:434    .text.ADC_CommonStructInit:0000000000000000 $t
/var/folders/m4/4md61f0s1_g0rzfghffqnxvr0000gn/T//ccTIFpbg.s:440    .text.ADC_CommonStructInit:0000000000000000 ADC_CommonStructInit
/var/folders/m4/4md61f0s1_g0rzfghffqnxvr0000gn/T//ccTIFpbg.s:462    .text.ADC_Cmd:0000000000000000 $t
/var/folders/m4/4md61f0s1_g0rzfghffqnxvr0000gn/T//ccTIFpbg.s:468    .text.ADC_Cmd:0000000000000000 ADC_Cmd
/var/folders/m4/4md61f0s1_g0rzfghffqnxvr0000gn/T//ccTIFpbg.s:533    .text.ADC_Cmd:0000000000000048 $d
/var/folders/m4/4md61f0s1_g0rzfghffqnxvr0000gn/T//ccTIFpbg.s:539    .text.ADC_AnalogWatchdogCmd:0000000000000000 $t
/var/folders/m4/4md61f0s1_g0rzfghffqnxvr0000gn/T//ccTIFpbg.s:545    .text.ADC_AnalogWatchdogCmd:0000000000000000 ADC_AnalogWatchdogCmd
/var/folders/m4/4md61f0s1_g0rzfghffqnxvr0000gn/T//ccTIFpbg.s:628    .text.ADC_AnalogWatchdogCmd:0000000000000064 $d
/var/folders/m4/4md61f0s1_g0rzfghffqnxvr0000gn/T//ccTIFpbg.s:635    .text.ADC_AnalogWatchdogThresholdsConfig:0000000000000000 $t
/var/folders/m4/4md61f0s1_g0rzfghffqnxvr0000gn/T//ccTIFpbg.s:641    .text.ADC_AnalogWatchdogThresholdsConfig:0000000000000000 ADC_AnalogWatchdogThresholdsConfig
/var/folders/m4/4md61f0s1_g0rzfghffqnxvr0000gn/T//ccTIFpbg.s:709    .text.ADC_AnalogWatchdogThresholdsConfig:000000000000004c $d
/var/folders/m4/4md61f0s1_g0rzfghffqnxvr0000gn/T//ccTIFpbg.s:715    .text.ADC_AnalogWatchdogSingleChannelConfig:0000000000000000 $t
/var/folders/m4/4md61f0s1_g0rzfghffqnxvr0000gn/T//ccTIFpbg.s:721    .text.ADC_AnalogWatchdogSingleChannelConfig:0000000000000000 ADC_AnalogWatchdogSingleChannelConfig
/var/folders/m4/4md61f0s1_g0rzfghffqnxvr0000gn/T//ccTIFpbg.s:784    .text.ADC_AnalogWatchdogSingleChannelConfig:0000000000000040 $d
/var/folders/m4/4md61f0s1_g0rzfghffqnxvr0000gn/T//ccTIFpbg.s:790    .text.ADC_TempSensorVrefintCmd:0000000000000000 $t
/var/folders/m4/4md61f0s1_g0rzfghffqnxvr0000gn/T//ccTIFpbg.s:796    .text.ADC_TempSensorVrefintCmd:0000000000000000 ADC_TempSensorVrefintCmd
/var/folders/m4/4md61f0s1_g0rzfghffqnxvr0000gn/T//ccTIFpbg.s:836    .text.ADC_TempSensorVrefintCmd:0000000000000028 $d
/var/folders/m4/4md61f0s1_g0rzfghffqnxvr0000gn/T//ccTIFpbg.s:841    .text.ADC_VBATCmd:0000000000000000 $t
/var/folders/m4/4md61f0s1_g0rzfghffqnxvr0000gn/T//ccTIFpbg.s:847    .text.ADC_VBATCmd:0000000000000000 ADC_VBATCmd
/var/folders/m4/4md61f0s1_g0rzfghffqnxvr0000gn/T//ccTIFpbg.s:887    .text.ADC_VBATCmd:0000000000000028 $d
/var/folders/m4/4md61f0s1_g0rzfghffqnxvr0000gn/T//ccTIFpbg.s:892    .text.ADC_RegularChannelConfig:0000000000000000 $t
/var/folders/m4/4md61f0s1_g0rzfghffqnxvr0000gn/T//ccTIFpbg.s:898    .text.ADC_RegularChannelConfig:0000000000000000 ADC_RegularChannelConfig
/var/folders/m4/4md61f0s1_g0rzfghffqnxvr0000gn/T//ccTIFpbg.s:1093   .text.ADC_RegularChannelConfig:00000000000000e4 $d
/var/folders/m4/4md61f0s1_g0rzfghffqnxvr0000gn/T//ccTIFpbg.s:1100   .text.ADC_SoftwareStartConv:0000000000000000 $t
/var/folders/m4/4md61f0s1_g0rzfghffqnxvr0000gn/T//ccTIFpbg.s:1106   .text.ADC_SoftwareStartConv:0000000000000000 ADC_SoftwareStartConv
/var/folders/m4/4md61f0s1_g0rzfghffqnxvr0000gn/T//ccTIFpbg.s:1153   .text.ADC_SoftwareStartConv:0000000000000030 $d
/var/folders/m4/4md61f0s1_g0rzfghffqnxvr0000gn/T//ccTIFpbg.s:1159   .text.ADC_GetSoftwareStartConvStatus:0000000000000000 $t
/var/folders/m4/4md61f0s1_g0rzfghffqnxvr0000gn/T//ccTIFpbg.s:1165   .text.ADC_GetSoftwareStartConvStatus:0000000000000000 ADC_GetSoftwareStartConvStatus
/var/folders/m4/4md61f0s1_g0rzfghffqnxvr0000gn/T//ccTIFpbg.s:1221   .text.ADC_GetSoftwareStartConvStatus:0000000000000038 $d
/var/folders/m4/4md61f0s1_g0rzfghffqnxvr0000gn/T//ccTIFpbg.s:1227   .text.ADC_EOCOnEachRegularChannelCmd:0000000000000000 $t
/var/folders/m4/4md61f0s1_g0rzfghffqnxvr0000gn/T//ccTIFpbg.s:1233   .text.ADC_EOCOnEachRegularChannelCmd:0000000000000000 ADC_EOCOnEachRegularChannelCmd
/var/folders/m4/4md61f0s1_g0rzfghffqnxvr0000gn/T//ccTIFpbg.s:1298   .text.ADC_EOCOnEachRegularChannelCmd:0000000000000048 $d
/var/folders/m4/4md61f0s1_g0rzfghffqnxvr0000gn/T//ccTIFpbg.s:1304   .text.ADC_ContinuousModeCmd:0000000000000000 $t
/var/folders/m4/4md61f0s1_g0rzfghffqnxvr0000gn/T//ccTIFpbg.s:1310   .text.ADC_ContinuousModeCmd:0000000000000000 ADC_ContinuousModeCmd
/var/folders/m4/4md61f0s1_g0rzfghffqnxvr0000gn/T//ccTIFpbg.s:1375   .text.ADC_ContinuousModeCmd:0000000000000048 $d
/var/folders/m4/4md61f0s1_g0rzfghffqnxvr0000gn/T//ccTIFpbg.s:1381   .text.ADC_DiscModeChannelCountConfig:0000000000000000 $t
/var/folders/m4/4md61f0s1_g0rzfghffqnxvr0000gn/T//ccTIFpbg.s:1387   .text.ADC_DiscModeChannelCountConfig:0000000000000000 ADC_DiscModeChannelCountConfig
/var/folders/m4/4md61f0s1_g0rzfghffqnxvr0000gn/T//ccTIFpbg.s:1452   .text.ADC_DiscModeChannelCountConfig:0000000000000044 $d
/var/folders/m4/4md61f0s1_g0rzfghffqnxvr0000gn/T//ccTIFpbg.s:1458   .text.ADC_DiscModeCmd:0000000000000000 $t
/var/folders/m4/4md61f0s1_g0rzfghffqnxvr0000gn/T//ccTIFpbg.s:1464   .text.ADC_DiscModeCmd:0000000000000000 ADC_DiscModeCmd
/var/folders/m4/4md61f0s1_g0rzfghffqnxvr0000gn/T//ccTIFpbg.s:1529   .text.ADC_DiscModeCmd:0000000000000048 $d
/var/folders/m4/4md61f0s1_g0rzfghffqnxvr0000gn/T//ccTIFpbg.s:1535   .text.ADC_GetConversionValue:0000000000000000 $t
/var/folders/m4/4md61f0s1_g0rzfghffqnxvr0000gn/T//ccTIFpbg.s:1541   .text.ADC_GetConversionValue:0000000000000000 ADC_GetConversionValue
/var/folders/m4/4md61f0s1_g0rzfghffqnxvr0000gn/T//ccTIFpbg.s:1593   .text.ADC_GetConversionValue:0000000000000034 $d
/var/folders/m4/4md61f0s1_g0rzfghffqnxvr0000gn/T//ccTIFpbg.s:1599   .text.ADC_GetMultiModeConversionValue:0000000000000000 $t
ARM GAS  /var/folders/m4/4md61f0s1_g0rzfghffqnxvr0000gn/T//ccTIFpbg.s 			page 160


/var/folders/m4/4md61f0s1_g0rzfghffqnxvr0000gn/T//ccTIFpbg.s:1605   .text.ADC_GetMultiModeConversionValue:0000000000000000 ADC_GetMultiModeConversionValue
/var/folders/m4/4md61f0s1_g0rzfghffqnxvr0000gn/T//ccTIFpbg.s:1620   .text.ADC_GetMultiModeConversionValue:0000000000000008 $d
/var/folders/m4/4md61f0s1_g0rzfghffqnxvr0000gn/T//ccTIFpbg.s:1625   .text.ADC_DMACmd:0000000000000000 $t
/var/folders/m4/4md61f0s1_g0rzfghffqnxvr0000gn/T//ccTIFpbg.s:1631   .text.ADC_DMACmd:0000000000000000 ADC_DMACmd
/var/folders/m4/4md61f0s1_g0rzfghffqnxvr0000gn/T//ccTIFpbg.s:1696   .text.ADC_DMACmd:0000000000000048 $d
/var/folders/m4/4md61f0s1_g0rzfghffqnxvr0000gn/T//ccTIFpbg.s:1702   .text.ADC_DMARequestAfterLastTransferCmd:0000000000000000 $t
/var/folders/m4/4md61f0s1_g0rzfghffqnxvr0000gn/T//ccTIFpbg.s:1708   .text.ADC_DMARequestAfterLastTransferCmd:0000000000000000 ADC_DMARequestAfterLastTransferCmd
/var/folders/m4/4md61f0s1_g0rzfghffqnxvr0000gn/T//ccTIFpbg.s:1773   .text.ADC_DMARequestAfterLastTransferCmd:0000000000000048 $d
/var/folders/m4/4md61f0s1_g0rzfghffqnxvr0000gn/T//ccTIFpbg.s:1779   .text.ADC_MultiModeDMARequestAfterLastTransferCmd:0000000000000000 $t
/var/folders/m4/4md61f0s1_g0rzfghffqnxvr0000gn/T//ccTIFpbg.s:1785   .text.ADC_MultiModeDMARequestAfterLastTransferCmd:0000000000000000 ADC_MultiModeDMARequestAfterLastTransferCmd
/var/folders/m4/4md61f0s1_g0rzfghffqnxvr0000gn/T//ccTIFpbg.s:1825   .text.ADC_MultiModeDMARequestAfterLastTransferCmd:0000000000000028 $d
/var/folders/m4/4md61f0s1_g0rzfghffqnxvr0000gn/T//ccTIFpbg.s:1830   .text.ADC_InjectedChannelConfig:0000000000000000 $t
/var/folders/m4/4md61f0s1_g0rzfghffqnxvr0000gn/T//ccTIFpbg.s:1836   .text.ADC_InjectedChannelConfig:0000000000000000 ADC_InjectedChannelConfig
/var/folders/m4/4md61f0s1_g0rzfghffqnxvr0000gn/T//ccTIFpbg.s:1978   .text.ADC_InjectedChannelConfig:00000000000000a4 $d
/var/folders/m4/4md61f0s1_g0rzfghffqnxvr0000gn/T//ccTIFpbg.s:1985   .text.ADC_InjectedSequencerLengthConfig:0000000000000000 $t
/var/folders/m4/4md61f0s1_g0rzfghffqnxvr0000gn/T//ccTIFpbg.s:1991   .text.ADC_InjectedSequencerLengthConfig:0000000000000000 ADC_InjectedSequencerLengthConfig
/var/folders/m4/4md61f0s1_g0rzfghffqnxvr0000gn/T//ccTIFpbg.s:2056   .text.ADC_InjectedSequencerLengthConfig:0000000000000044 $d
/var/folders/m4/4md61f0s1_g0rzfghffqnxvr0000gn/T//ccTIFpbg.s:2062   .text.ADC_SetInjectedOffset:0000000000000000 $t
/var/folders/m4/4md61f0s1_g0rzfghffqnxvr0000gn/T//ccTIFpbg.s:2068   .text.ADC_SetInjectedOffset:0000000000000000 ADC_SetInjectedOffset
/var/folders/m4/4md61f0s1_g0rzfghffqnxvr0000gn/T//ccTIFpbg.s:2163   .text.ADC_SetInjectedOffset:000000000000006c $d
/var/folders/m4/4md61f0s1_g0rzfghffqnxvr0000gn/T//ccTIFpbg.s:2169   .text.ADC_ExternalTrigInjectedConvConfig:0000000000000000 $t
/var/folders/m4/4md61f0s1_g0rzfghffqnxvr0000gn/T//ccTIFpbg.s:2175   .text.ADC_ExternalTrigInjectedConvConfig:0000000000000000 ADC_ExternalTrigInjectedConvConfig
/var/folders/m4/4md61f0s1_g0rzfghffqnxvr0000gn/T//ccTIFpbg.s:2256   .text.ADC_ExternalTrigInjectedConvConfig:0000000000000064 $d
/var/folders/m4/4md61f0s1_g0rzfghffqnxvr0000gn/T//ccTIFpbg.s:2262   .text.ADC_ExternalTrigInjectedConvEdgeConfig:0000000000000000 $t
/var/folders/m4/4md61f0s1_g0rzfghffqnxvr0000gn/T//ccTIFpbg.s:2268   .text.ADC_ExternalTrigInjectedConvEdgeConfig:0000000000000000 ADC_ExternalTrigInjectedConvEdgeConfig
/var/folders/m4/4md61f0s1_g0rzfghffqnxvr0000gn/T//ccTIFpbg.s:2333   .text.ADC_ExternalTrigInjectedConvEdgeConfig:0000000000000048 $d
/var/folders/m4/4md61f0s1_g0rzfghffqnxvr0000gn/T//ccTIFpbg.s:2339   .text.ADC_SoftwareStartInjectedConv:0000000000000000 $t
/var/folders/m4/4md61f0s1_g0rzfghffqnxvr0000gn/T//ccTIFpbg.s:2345   .text.ADC_SoftwareStartInjectedConv:0000000000000000 ADC_SoftwareStartInjectedConv
/var/folders/m4/4md61f0s1_g0rzfghffqnxvr0000gn/T//ccTIFpbg.s:2392   .text.ADC_SoftwareStartInjectedConv:0000000000000030 $d
/var/folders/m4/4md61f0s1_g0rzfghffqnxvr0000gn/T//ccTIFpbg.s:2398   .text.ADC_GetSoftwareStartInjectedConvCmdStatus:0000000000000000 $t
/var/folders/m4/4md61f0s1_g0rzfghffqnxvr0000gn/T//ccTIFpbg.s:2404   .text.ADC_GetSoftwareStartInjectedConvCmdStatus:0000000000000000 ADC_GetSoftwareStartInjectedConvCmdStatus
/var/folders/m4/4md61f0s1_g0rzfghffqnxvr0000gn/T//ccTIFpbg.s:2460   .text.ADC_GetSoftwareStartInjectedConvCmdStatus:0000000000000038 $d
/var/folders/m4/4md61f0s1_g0rzfghffqnxvr0000gn/T//ccTIFpbg.s:2466   .text.ADC_AutoInjectedConvCmd:0000000000000000 $t
/var/folders/m4/4md61f0s1_g0rzfghffqnxvr0000gn/T//ccTIFpbg.s:2472   .text.ADC_AutoInjectedConvCmd:0000000000000000 ADC_AutoInjectedConvCmd
/var/folders/m4/4md61f0s1_g0rzfghffqnxvr0000gn/T//ccTIFpbg.s:2537   .text.ADC_AutoInjectedConvCmd:0000000000000048 $d
/var/folders/m4/4md61f0s1_g0rzfghffqnxvr0000gn/T//ccTIFpbg.s:2543   .text.ADC_InjectedDiscModeCmd:0000000000000000 $t
/var/folders/m4/4md61f0s1_g0rzfghffqnxvr0000gn/T//ccTIFpbg.s:2549   .text.ADC_InjectedDiscModeCmd:0000000000000000 ADC_InjectedDiscModeCmd
/var/folders/m4/4md61f0s1_g0rzfghffqnxvr0000gn/T//ccTIFpbg.s:2614   .text.ADC_InjectedDiscModeCmd:0000000000000048 $d
/var/folders/m4/4md61f0s1_g0rzfghffqnxvr0000gn/T//ccTIFpbg.s:2620   .text.ADC_GetInjectedConversionValue:0000000000000000 $t
/var/folders/m4/4md61f0s1_g0rzfghffqnxvr0000gn/T//ccTIFpbg.s:2626   .text.ADC_GetInjectedConversionValue:0000000000000000 ADC_GetInjectedConversionValue
/var/folders/m4/4md61f0s1_g0rzfghffqnxvr0000gn/T//ccTIFpbg.s:2715   .text.ADC_GetInjectedConversionValue:0000000000000060 $d
/var/folders/m4/4md61f0s1_g0rzfghffqnxvr0000gn/T//ccTIFpbg.s:2721   .text.ADC_ITConfig:0000000000000000 $t
/var/folders/m4/4md61f0s1_g0rzfghffqnxvr0000gn/T//ccTIFpbg.s:2727   .text.ADC_ITConfig:0000000000000000 ADC_ITConfig
/var/folders/m4/4md61f0s1_g0rzfghffqnxvr0000gn/T//ccTIFpbg.s:2826   .text.ADC_ITConfig:0000000000000078 $d
/var/folders/m4/4md61f0s1_g0rzfghffqnxvr0000gn/T//ccTIFpbg.s:2832   .text.ADC_GetFlagStatus:0000000000000000 $t
/var/folders/m4/4md61f0s1_g0rzfghffqnxvr0000gn/T//ccTIFpbg.s:2838   .text.ADC_GetFlagStatus:0000000000000000 ADC_GetFlagStatus
/var/folders/m4/4md61f0s1_g0rzfghffqnxvr0000gn/T//ccTIFpbg.s:2916   .text.ADC_GetFlagStatus:0000000000000058 $d
/var/folders/m4/4md61f0s1_g0rzfghffqnxvr0000gn/T//ccTIFpbg.s:2922   .text.ADC_ClearFlag:0000000000000000 $t
/var/folders/m4/4md61f0s1_g0rzfghffqnxvr0000gn/T//ccTIFpbg.s:2928   .text.ADC_ClearFlag:0000000000000000 ADC_ClearFlag
/var/folders/m4/4md61f0s1_g0rzfghffqnxvr0000gn/T//ccTIFpbg.s:2999   .text.ADC_ClearFlag:0000000000000048 $d
/var/folders/m4/4md61f0s1_g0rzfghffqnxvr0000gn/T//ccTIFpbg.s:3005   .text.ADC_GetITStatus:0000000000000000 $t
/var/folders/m4/4md61f0s1_g0rzfghffqnxvr0000gn/T//ccTIFpbg.s:3011   .text.ADC_GetITStatus:0000000000000000 ADC_GetITStatus
/var/folders/m4/4md61f0s1_g0rzfghffqnxvr0000gn/T//ccTIFpbg.s:3101   .text.ADC_GetITStatus:000000000000006c $d
/var/folders/m4/4md61f0s1_g0rzfghffqnxvr0000gn/T//ccTIFpbg.s:3107   .text.ADC_ClearITPendingBit:0000000000000000 $t
/var/folders/m4/4md61f0s1_g0rzfghffqnxvr0000gn/T//ccTIFpbg.s:3113   .text.ADC_ClearITPendingBit:0000000000000000 ADC_ClearITPendingBit
/var/folders/m4/4md61f0s1_g0rzfghffqnxvr0000gn/T//ccTIFpbg.s:3193   .text.ADC_ClearITPendingBit:0000000000000064 $d
                     .debug_frame:0000000000000010 $d
ARM GAS  /var/folders/m4/4md61f0s1_g0rzfghffqnxvr0000gn/T//ccTIFpbg.s 			page 161



UNDEFINED SYMBOLS
RCC_APB2PeriphResetCmd
assert_param
