ARM GAS  /var/folders/m4/4md61f0s1_g0rzfghffqnxvr0000gn/T//cclIfXo6.s 			page 1


   1              		.syntax unified
   2              		.cpu cortex-m4
   3              		.eabi_attribute 27, 1
   4              		.eabi_attribute 28, 1
   5              		.fpu fpv4-sp-d16
   6              		.eabi_attribute 20, 1
   7              		.eabi_attribute 21, 1
   8              		.eabi_attribute 23, 3
   9              		.eabi_attribute 24, 1
  10              		.eabi_attribute 25, 1
  11              		.eabi_attribute 26, 1
  12              		.eabi_attribute 30, 2
  13              		.eabi_attribute 34, 1
  14              		.eabi_attribute 18, 4
  15              		.thumb
  16              		.file	"stm32f4xx_syscfg.c"
  17              		.text
  18              	.Ltext0:
  19              		.cfi_sections	.debug_frame
  20              		.section	.text.SYSCFG_DeInit,"ax",%progbits
  21              		.align	2
  22              		.p2align 4,,15
  23              		.global	SYSCFG_DeInit
  24              		.thumb
  25              		.thumb_func
  26              		.type	SYSCFG_DeInit, %function
  27              	SYSCFG_DeInit:
  28              	.LFB123:
  29              		.file 1 "ChibiOS_16.1.4/ext/stdperiph_stm32f4/src/stm32f4xx_syscfg.c"
  30              		.loc 1 100 0
  31              		.cfi_startproc
  32              		@ args = 0, pretend = 0, frame = 0
  33              		@ frame_needed = 0, uses_anonymous_args = 0
  34 0000 08B5     		push	{r3, lr}
  35              		.cfi_def_cfa_offset 8
  36              		.cfi_offset 3, -8
  37              		.cfi_offset 14, -4
  38              		.loc 1 101 0
  39 0002 4FF48040 		mov	r0, #16384
  40 0006 0121     		movs	r1, #1
  41 0008 FFF7FEFF 		bl	RCC_APB2PeriphResetCmd
  42              	.LVL0:
  43              		.loc 1 102 0
  44 000c 4FF48040 		mov	r0, #16384
  45 0010 0021     		movs	r1, #0
  46              		.loc 1 103 0
  47 0012 BDE80840 		pop	{r3, lr}
  48              		.cfi_restore 14
  49              		.cfi_restore 3
  50              		.cfi_def_cfa_offset 0
  51              		.loc 1 102 0
  52 0016 FFF7FEBF 		b	RCC_APB2PeriphResetCmd
  53              	.LVL1:
  54              		.cfi_endproc
  55              	.LFE123:
  56              		.size	SYSCFG_DeInit, .-SYSCFG_DeInit
  57 001a 00BF     		.section	.text.SYSCFG_MemoryRemapConfig,"ax",%progbits
ARM GAS  /var/folders/m4/4md61f0s1_g0rzfghffqnxvr0000gn/T//cclIfXo6.s 			page 2


  58              		.align	2
  59              		.p2align 4,,15
  60              		.global	SYSCFG_MemoryRemapConfig
  61              		.thumb
  62              		.thumb_func
  63              		.type	SYSCFG_MemoryRemapConfig, %function
  64              	SYSCFG_MemoryRemapConfig:
  65              	.LFB124:
  66              		.loc 1 119 0
  67              		.cfi_startproc
  68              		@ args = 0, pretend = 0, frame = 0
  69              		@ frame_needed = 0, uses_anonymous_args = 0
  70              	.LVL2:
  71 0000 10B5     		push	{r4, lr}
  72              		.cfi_def_cfa_offset 8
  73              		.cfi_offset 4, -8
  74              		.cfi_offset 14, -4
  75              		.loc 1 121 0
  76 0002 0428     		cmp	r0, #4
  77              		.loc 1 119 0
  78 0004 0446     		mov	r4, r0
  79              		.loc 1 121 0
  80 0006 8CBF     		ite	hi
  81 0008 0020     		movhi	r0, #0
  82              	.LVL3:
  83 000a 0120     		movls	r0, #1
  84 000c FFF7FEFF 		bl	assert_param
  85              	.LVL4:
  86              		.loc 1 123 0
  87 0010 014B     		ldr	r3, .L5
  88 0012 1C60     		str	r4, [r3]
  89 0014 10BD     		pop	{r4, pc}
  90              	.L6:
  91 0016 00BF     		.align	2
  92              	.L5:
  93 0018 00380140 		.word	1073821696
  94              		.cfi_endproc
  95              	.LFE124:
  96              		.size	SYSCFG_MemoryRemapConfig, .-SYSCFG_MemoryRemapConfig
  97              		.section	.text.SYSCFG_MemorySwappingBank,"ax",%progbits
  98              		.align	2
  99              		.p2align 4,,15
 100              		.global	SYSCFG_MemorySwappingBank
 101              		.thumb
 102              		.thumb_func
 103              		.type	SYSCFG_MemorySwappingBank, %function
 104              	SYSCFG_MemorySwappingBank:
 105              	.LFB125:
 106              		.loc 1 140 0
 107              		.cfi_startproc
 108              		@ args = 0, pretend = 0, frame = 0
 109              		@ frame_needed = 0, uses_anonymous_args = 0
 110              	.LVL5:
 111 0000 10B5     		push	{r4, lr}
 112              		.cfi_def_cfa_offset 8
 113              		.cfi_offset 4, -8
 114              		.cfi_offset 14, -4
ARM GAS  /var/folders/m4/4md61f0s1_g0rzfghffqnxvr0000gn/T//cclIfXo6.s 			page 3


 115              		.loc 1 142 0
 116 0002 0128     		cmp	r0, #1
 117              		.loc 1 140 0
 118 0004 0446     		mov	r4, r0
 119              		.loc 1 142 0
 120 0006 8CBF     		ite	hi
 121 0008 0020     		movhi	r0, #0
 122              	.LVL6:
 123 000a 0120     		movls	r0, #1
 124 000c FFF7FEFF 		bl	assert_param
 125              	.LVL7:
 126              		.loc 1 144 0
 127 0010 014B     		ldr	r3, .L9
 128 0012 1C60     		str	r4, [r3]
 129 0014 10BD     		pop	{r4, pc}
 130              	.L10:
 131 0016 00BF     		.align	2
 132              	.L9:
 133 0018 20002742 		.word	1109852192
 134              		.cfi_endproc
 135              	.LFE125:
 136              		.size	SYSCFG_MemorySwappingBank, .-SYSCFG_MemorySwappingBank
 137              		.section	.text.SYSCFG_EXTILineConfig,"ax",%progbits
 138              		.align	2
 139              		.p2align 4,,15
 140              		.global	SYSCFG_EXTILineConfig
 141              		.thumb
 142              		.thumb_func
 143              		.type	SYSCFG_EXTILineConfig, %function
 144              	SYSCFG_EXTILineConfig:
 145              	.LFB126:
 146              		.loc 1 163 0
 147              		.cfi_startproc
 148              		@ args = 0, pretend = 0, frame = 0
 149              		@ frame_needed = 0, uses_anonymous_args = 0
 150              	.LVL8:
 151              		.loc 1 167 0
 152 0000 0A28     		cmp	r0, #10
 153              		.loc 1 163 0
 154 0002 38B5     		push	{r3, r4, r5, lr}
 155              		.cfi_def_cfa_offset 16
 156              		.cfi_offset 3, -16
 157              		.cfi_offset 4, -12
 158              		.cfi_offset 5, -8
 159              		.cfi_offset 14, -4
 160              		.loc 1 163 0
 161 0004 0C46     		mov	r4, r1
 162 0006 0546     		mov	r5, r0
 163              		.loc 1 167 0
 164 0008 8CBF     		ite	hi
 165 000a 0020     		movhi	r0, #0
 166              	.LVL9:
 167 000c 0120     		movls	r0, #1
 168 000e FFF7FEFF 		bl	assert_param
 169              	.LVL10:
 170              		.loc 1 168 0
 171 0012 0F2C     		cmp	r4, #15
ARM GAS  /var/folders/m4/4md61f0s1_g0rzfghffqnxvr0000gn/T//cclIfXo6.s 			page 4


 172 0014 8CBF     		ite	hi
 173 0016 0020     		movhi	r0, #0
 174 0018 0120     		movls	r0, #1
 175 001a FFF7FEFF 		bl	assert_param
 176              	.LVL11:
 177 001e 04F0FC03 		and	r3, r4, #252
 178 0022 03F18043 		add	r3, r3, #1073741824
 179 0026 03F59C33 		add	r3, r3, #79872
 180              		.loc 1 170 0
 181 002a 04F00304 		and	r4, r4, #3
 182              		.loc 1 171 0
 183 002e 9968     		ldr	r1, [r3, #8]
 184              		.loc 1 170 0
 185 0030 A400     		lsls	r4, r4, #2
 186              	.LVL12:
 187 0032 0F22     		movs	r2, #15
 188 0034 A240     		lsls	r2, r2, r4
 189              	.LVL13:
 190              		.loc 1 171 0
 191 0036 21EA0202 		bic	r2, r1, r2
 192              	.LVL14:
 193 003a 9A60     		str	r2, [r3, #8]
 194              		.loc 1 172 0
 195 003c 9A68     		ldr	r2, [r3, #8]
 196 003e A540     		lsls	r5, r5, r4
 197 0040 1543     		orrs	r5, r5, r2
 198 0042 9D60     		str	r5, [r3, #8]
 199 0044 38BD     		pop	{r3, r4, r5, pc}
 200              		.cfi_endproc
 201              	.LFE126:
 202              		.size	SYSCFG_EXTILineConfig, .-SYSCFG_EXTILineConfig
 203 0046 00BF     		.section	.text.SYSCFG_ETH_MediaInterfaceConfig,"ax",%progbits
 204              		.align	2
 205              		.p2align 4,,15
 206              		.global	SYSCFG_ETH_MediaInterfaceConfig
 207              		.thumb
 208              		.thumb_func
 209              		.type	SYSCFG_ETH_MediaInterfaceConfig, %function
 210              	SYSCFG_ETH_MediaInterfaceConfig:
 211              	.LFB127:
 212              		.loc 1 184 0
 213              		.cfi_startproc
 214              		@ args = 0, pretend = 0, frame = 0
 215              		@ frame_needed = 0, uses_anonymous_args = 0
 216              	.LVL15:
 217 0000 10B5     		push	{r4, lr}
 218              		.cfi_def_cfa_offset 8
 219              		.cfi_offset 4, -8
 220              		.cfi_offset 14, -4
 221              		.loc 1 185 0
 222 0002 0128     		cmp	r0, #1
 223              		.loc 1 184 0
 224 0004 0446     		mov	r4, r0
 225              		.loc 1 185 0
 226 0006 8CBF     		ite	hi
 227 0008 0020     		movhi	r0, #0
 228              	.LVL16:
ARM GAS  /var/folders/m4/4md61f0s1_g0rzfghffqnxvr0000gn/T//cclIfXo6.s 			page 5


 229 000a 0120     		movls	r0, #1
 230 000c FFF7FEFF 		bl	assert_param
 231              	.LVL17:
 232              		.loc 1 187 0
 233 0010 014B     		ldr	r3, .L15
 234 0012 1C60     		str	r4, [r3]
 235 0014 10BD     		pop	{r4, pc}
 236              	.LVL18:
 237              	.L16:
 238 0016 00BF     		.align	2
 239              	.L15:
 240 0018 DC002742 		.word	1109852380
 241              		.cfi_endproc
 242              	.LFE127:
 243              		.size	SYSCFG_ETH_MediaInterfaceConfig, .-SYSCFG_ETH_MediaInterfaceConfig
 244              		.section	.text.SYSCFG_CompensationCellCmd,"ax",%progbits
 245              		.align	2
 246              		.p2align 4,,15
 247              		.global	SYSCFG_CompensationCellCmd
 248              		.thumb
 249              		.thumb_func
 250              		.type	SYSCFG_CompensationCellCmd, %function
 251              	SYSCFG_CompensationCellCmd:
 252              	.LFB128:
 253              		.loc 1 201 0
 254              		.cfi_startproc
 255              		@ args = 0, pretend = 0, frame = 0
 256              		@ frame_needed = 0, uses_anonymous_args = 0
 257              	.LVL19:
 258 0000 10B5     		push	{r4, lr}
 259              		.cfi_def_cfa_offset 8
 260              		.cfi_offset 4, -8
 261              		.cfi_offset 14, -4
 262              		.loc 1 203 0
 263 0002 0128     		cmp	r0, #1
 264              		.loc 1 201 0
 265 0004 0446     		mov	r4, r0
 266              		.loc 1 203 0
 267 0006 8CBF     		ite	hi
 268 0008 0020     		movhi	r0, #0
 269              	.LVL20:
 270 000a 0120     		movls	r0, #1
 271 000c FFF7FEFF 		bl	assert_param
 272              	.LVL21:
 273              		.loc 1 205 0
 274 0010 014B     		ldr	r3, .L19
 275 0012 1C60     		str	r4, [r3]
 276 0014 10BD     		pop	{r4, pc}
 277              	.L20:
 278 0016 00BF     		.align	2
 279              	.L19:
 280 0018 00042742 		.word	1109853184
 281              		.cfi_endproc
 282              	.LFE128:
 283              		.size	SYSCFG_CompensationCellCmd, .-SYSCFG_CompensationCellCmd
 284              		.section	.text.SYSCFG_GetCompensationCellStatus,"ax",%progbits
 285              		.align	2
ARM GAS  /var/folders/m4/4md61f0s1_g0rzfghffqnxvr0000gn/T//cclIfXo6.s 			page 6


 286              		.p2align 4,,15
 287              		.global	SYSCFG_GetCompensationCellStatus
 288              		.thumb
 289              		.thumb_func
 290              		.type	SYSCFG_GetCompensationCellStatus, %function
 291              	SYSCFG_GetCompensationCellStatus:
 292              	.LFB129:
 293              		.loc 1 214 0
 294              		.cfi_startproc
 295              		@ args = 0, pretend = 0, frame = 0
 296              		@ frame_needed = 0, uses_anonymous_args = 0
 297              		@ link register save eliminated.
 298              	.LVL22:
 299              		.loc 1 217 0
 300 0000 024B     		ldr	r3, .L22
 301 0002 186A     		ldr	r0, [r3, #32]
 302              	.LVL23:
 303              		.loc 1 226 0
 304 0004 C0F30020 		ubfx	r0, r0, #8, #1
 305              	.LVL24:
 306 0008 7047     		bx	lr
 307              	.L23:
 308 000a 00BF     		.align	2
 309              	.L22:
 310 000c 00380140 		.word	1073821696
 311              		.cfi_endproc
 312              	.LFE129:
 313              		.size	SYSCFG_GetCompensationCellStatus, .-SYSCFG_GetCompensationCellStatus
 314              		.text
 315              	.Letext0:
 316              		.file 2 "/usr/local/Cellar/gcc-arm-none-eabi-49/20150609/arm-none-eabi/include/machine/_default_ty
 317              		.file 3 "/usr/local/Cellar/gcc-arm-none-eabi-49/20150609/arm-none-eabi/include/sys/_stdint.h"
 318              		.file 4 "ChibiOS_16.1.4/os/ext/CMSIS/ST/STM32F4xx/stm32f446xx.h"
 319              		.file 5 "ChibiOS_16.1.4/os/ext/CMSIS/ST/STM32F4xx/stm32f4xx.h"
 320              		.file 6 "ChibiOS_16.1.4/ext/stdperiph_stm32f4/inc/stm32f4xx_rcc.h"
 321              		.file 7 "ChibiOS_16.1.4/os/ext/CMSIS/include/core_cm4.h"