ARM GAS  /var/folders/m4/4md61f0s1_g0rzfghffqnxvr0000gn/T//ccN7wrnn.s 			page 1


   1              		.syntax unified
   2              		.cpu cortex-m4
   3              		.eabi_attribute 27, 1
   4              		.eabi_attribute 28, 1
   5              		.fpu fpv4-sp-d16
   6              		.eabi_attribute 20, 1
   7              		.eabi_attribute 21, 1
   8              		.eabi_attribute 23, 3
   9              		.eabi_attribute 24, 1
  10              		.eabi_attribute 25, 1
  11              		.eabi_attribute 26, 1
  12              		.eabi_attribute 30, 2
  13              		.eabi_attribute 34, 1
  14              		.eabi_attribute 18, 4
  15              		.thumb
  16              		.file	"stm32f4xx_wwdg.c"
  17              		.text
  18              	.Ltext0:
  19              		.cfi_sections	.debug_frame
  20              		.section	.text.WWDG_DeInit,"ax",%progbits
  21              		.align	2
  22              		.p2align 4,,15
  23              		.global	WWDG_DeInit
  24              		.thumb
  25              		.thumb_func
  26              		.type	WWDG_DeInit, %function
  27              	WWDG_DeInit:
  28              	.LFB123:
  29              		.file 1 "ChibiOS_16.1.4/ext/stdperiph_stm32f4/src/stm32f4xx_wwdg.c"
  30              		.loc 1 139 0
  31              		.cfi_startproc
  32              		@ args = 0, pretend = 0, frame = 0
  33              		@ frame_needed = 0, uses_anonymous_args = 0
  34 0000 08B5     		push	{r3, lr}
  35              		.cfi_def_cfa_offset 8
  36              		.cfi_offset 3, -8
  37              		.cfi_offset 14, -4
  38              		.loc 1 140 0
  39 0002 4FF40060 		mov	r0, #2048
  40 0006 0121     		movs	r1, #1
  41 0008 FFF7FEFF 		bl	RCC_APB1PeriphResetCmd
  42              	.LVL0:
  43              		.loc 1 141 0
  44 000c 4FF40060 		mov	r0, #2048
  45 0010 0021     		movs	r1, #0
  46              		.loc 1 142 0
  47 0012 BDE80840 		pop	{r3, lr}
  48              		.cfi_restore 14
  49              		.cfi_restore 3
  50              		.cfi_def_cfa_offset 0
  51              		.loc 1 141 0
  52 0016 FFF7FEBF 		b	RCC_APB1PeriphResetCmd
  53              	.LVL1:
  54              		.cfi_endproc
  55              	.LFE123:
  56              		.size	WWDG_DeInit, .-WWDG_DeInit
  57 001a 00BF     		.section	.text.WWDG_SetPrescaler,"ax",%progbits
ARM GAS  /var/folders/m4/4md61f0s1_g0rzfghffqnxvr0000gn/T//ccN7wrnn.s 			page 2


  58              		.align	2
  59              		.p2align 4,,15
  60              		.global	WWDG_SetPrescaler
  61              		.thumb
  62              		.thumb_func
  63              		.type	WWDG_SetPrescaler, %function
  64              	WWDG_SetPrescaler:
  65              	.LFB124:
  66              		.loc 1 155 0
  67              		.cfi_startproc
  68              		@ args = 0, pretend = 0, frame = 0
  69              		@ frame_needed = 0, uses_anonymous_args = 0
  70              	.LVL2:
  71 0000 10B5     		push	{r4, lr}
  72              		.cfi_def_cfa_offset 8
  73              		.cfi_offset 4, -8
  74              		.cfi_offset 14, -4
  75              		.loc 1 155 0
  76 0002 0446     		mov	r4, r0
  77              		.loc 1 158 0
  78 0004 30F08000 		bics	r0, r0, #128
  79              	.LVL3:
  80 0008 17BF     		itett	ne
  81 000a A0F58070 		subne	r0, r0, #256
  82 000e 0120     		moveq	r0, #1
  83 0010 B0FA80F0 		clzne	r0, r0
  84 0014 4009     		lsrne	r0, r0, #5
  85 0016 FFF7FEFF 		bl	assert_param
  86              	.LVL4:
  87              		.loc 1 160 0
  88 001a 034B     		ldr	r3, .L7
  89 001c 5868     		ldr	r0, [r3, #4]
  90 001e 20F4C070 		bic	r0, r0, #384
  91              	.LVL5:
  92              		.loc 1 162 0
  93 0022 2043     		orrs	r0, r0, r4
  94              	.LVL6:
  95              		.loc 1 164 0
  96 0024 5860     		str	r0, [r3, #4]
  97 0026 10BD     		pop	{r4, pc}
  98              	.LVL7:
  99              	.L8:
 100              		.align	2
 101              	.L7:
 102 0028 002C0040 		.word	1073753088
 103              		.cfi_endproc
 104              	.LFE124:
 105              		.size	WWDG_SetPrescaler, .-WWDG_SetPrescaler
 106              		.section	.text.WWDG_SetWindowValue,"ax",%progbits
 107              		.align	2
 108              		.p2align 4,,15
 109              		.global	WWDG_SetWindowValue
 110              		.thumb
 111              		.thumb_func
 112              		.type	WWDG_SetWindowValue, %function
 113              	WWDG_SetWindowValue:
 114              	.LFB125:
ARM GAS  /var/folders/m4/4md61f0s1_g0rzfghffqnxvr0000gn/T//ccN7wrnn.s 			page 3


 115              		.loc 1 174 0
 116              		.cfi_startproc
 117              		@ args = 0, pretend = 0, frame = 8
 118              		@ frame_needed = 0, uses_anonymous_args = 0
 119              	.LVL8:
 120 0000 10B5     		push	{r4, lr}
 121              		.cfi_def_cfa_offset 8
 122              		.cfi_offset 4, -8
 123              		.cfi_offset 14, -4
 124 0002 0446     		mov	r4, r0
 125              		.loc 1 178 0
 126 0004 40B2     		sxtb	r0, r0
 127              		.loc 1 174 0
 128 0006 82B0     		sub	sp, sp, #8
 129              		.cfi_def_cfa_offset 16
 130              		.loc 1 178 0
 131 0008 C043     		mvns	r0, r0
 132              	.LVL9:
 133              		.loc 1 175 0
 134 000a 0023     		movs	r3, #0
 135              		.loc 1 178 0
 136 000c C00F     		lsrs	r0, r0, #31
 137              	.LVL10:
 138              		.loc 1 175 0
 139 000e 0193     		str	r3, [sp, #4]
 140              		.loc 1 178 0
 141 0010 FFF7FEFF 		bl	assert_param
 142              	.LVL11:
 143              		.loc 1 181 0
 144 0014 064A     		ldr	r2, .L11
 145 0016 5368     		ldr	r3, [r2, #4]
 146 0018 23F07F03 		bic	r3, r3, #127
 147 001c 0193     		str	r3, [sp, #4]
 148              		.loc 1 184 0
 149 001e 019B     		ldr	r3, [sp, #4]
 150 0020 04F07F04 		and	r4, r4, #127
 151 0024 1C43     		orrs	r4, r4, r3
 152 0026 0194     		str	r4, [sp, #4]
 153              		.loc 1 187 0
 154 0028 019B     		ldr	r3, [sp, #4]
 155 002a 5360     		str	r3, [r2, #4]
 156              		.loc 1 188 0
 157 002c 02B0     		add	sp, sp, #8
 158              		.cfi_def_cfa_offset 8
 159              		@ sp needed
 160 002e 10BD     		pop	{r4, pc}
 161              	.L12:
 162              		.align	2
 163              	.L11:
 164 0030 002C0040 		.word	1073753088
 165              		.cfi_endproc
 166              	.LFE125:
 167              		.size	WWDG_SetWindowValue, .-WWDG_SetWindowValue
 168              		.section	.text.WWDG_EnableIT,"ax",%progbits
 169              		.align	2
 170              		.p2align 4,,15
 171              		.global	WWDG_EnableIT
ARM GAS  /var/folders/m4/4md61f0s1_g0rzfghffqnxvr0000gn/T//ccN7wrnn.s 			page 4


 172              		.thumb
 173              		.thumb_func
 174              		.type	WWDG_EnableIT, %function
 175              	WWDG_EnableIT:
 176              	.LFB126:
 177              		.loc 1 197 0
 178              		.cfi_startproc
 179              		@ args = 0, pretend = 0, frame = 0
 180              		@ frame_needed = 0, uses_anonymous_args = 0
 181              		@ link register save eliminated.
 182              		.loc 1 198 0
 183 0000 014B     		ldr	r3, .L14
 184 0002 0122     		movs	r2, #1
 185 0004 1A60     		str	r2, [r3]
 186 0006 7047     		bx	lr
 187              	.L15:
 188              		.align	2
 189              	.L14:
 190 0008 A4800542 		.word	1107656868
 191              		.cfi_endproc
 192              	.LFE126:
 193              		.size	WWDG_EnableIT, .-WWDG_EnableIT
 194              		.section	.text.WWDG_SetCounter,"ax",%progbits
 195              		.align	2
 196              		.p2align 4,,15
 197              		.global	WWDG_SetCounter
 198              		.thumb
 199              		.thumb_func
 200              		.type	WWDG_SetCounter, %function
 201              	WWDG_SetCounter:
 202              	.LFB127:
 203              		.loc 1 209 0
 204              		.cfi_startproc
 205              		@ args = 0, pretend = 0, frame = 0
 206              		@ frame_needed = 0, uses_anonymous_args = 0
 207              	.LVL12:
 208 0000 10B5     		push	{r4, lr}
 209              		.cfi_def_cfa_offset 8
 210              		.cfi_offset 4, -8
 211              		.cfi_offset 14, -4
 212              		.loc 1 209 0
 213 0002 0446     		mov	r4, r0
 214              		.loc 1 211 0
 215 0004 4038     		subs	r0, r0, #64
 216              	.LVL13:
 217 0006 3F28     		cmp	r0, #63
 218 0008 8CBF     		ite	hi
 219 000a 0020     		movhi	r0, #0
 220 000c 0120     		movls	r0, #1
 221 000e FFF7FEFF 		bl	assert_param
 222              	.LVL14:
 223              		.loc 1 214 0
 224 0012 024B     		ldr	r3, .L18
 225 0014 04F07F04 		and	r4, r4, #127
 226 0018 1C60     		str	r4, [r3]
 227 001a 10BD     		pop	{r4, pc}
 228              	.L19:
ARM GAS  /var/folders/m4/4md61f0s1_g0rzfghffqnxvr0000gn/T//ccN7wrnn.s 			page 5


 229              		.align	2
 230              	.L18:
 231 001c 002C0040 		.word	1073753088
 232              		.cfi_endproc
 233              	.LFE127:
 234              		.size	WWDG_SetCounter, .-WWDG_SetCounter
 235              		.section	.text.WWDG_Enable,"ax",%progbits
 236              		.align	2
 237              		.p2align 4,,15
 238              		.global	WWDG_Enable
 239              		.thumb
 240              		.thumb_func
 241              		.type	WWDG_Enable, %function
 242              	WWDG_Enable:
 243              	.LFB128:
 244              		.loc 1 240 0
 245              		.cfi_startproc
 246              		@ args = 0, pretend = 0, frame = 0
 247              		@ frame_needed = 0, uses_anonymous_args = 0
 248              	.LVL15:
 249 0000 10B5     		push	{r4, lr}
 250              		.cfi_def_cfa_offset 8
 251              		.cfi_offset 4, -8
 252              		.cfi_offset 14, -4
 253              		.loc 1 240 0
 254 0002 0446     		mov	r4, r0
 255              		.loc 1 242 0
 256 0004 4038     		subs	r0, r0, #64
 257              	.LVL16:
 258 0006 3F28     		cmp	r0, #63
 259 0008 8CBF     		ite	hi
 260 000a 0020     		movhi	r0, #0
 261 000c 0120     		movls	r0, #1
 262 000e FFF7FEFF 		bl	assert_param
 263              	.LVL17:
 264              		.loc 1 243 0
 265 0012 024B     		ldr	r3, .L22
 266 0014 44F08004 		orr	r4, r4, #128
 267 0018 1C60     		str	r4, [r3]
 268 001a 10BD     		pop	{r4, pc}
 269              	.L23:
 270              		.align	2
 271              	.L22:
 272 001c 002C0040 		.word	1073753088
 273              		.cfi_endproc
 274              	.LFE128:
 275              		.size	WWDG_Enable, .-WWDG_Enable
 276              		.section	.text.WWDG_GetFlagStatus,"ax",%progbits
 277              		.align	2
 278              		.p2align 4,,15
 279              		.global	WWDG_GetFlagStatus
 280              		.thumb
 281              		.thumb_func
 282              		.type	WWDG_GetFlagStatus, %function
 283              	WWDG_GetFlagStatus:
 284              	.LFB129:
 285              		.loc 1 267 0
ARM GAS  /var/folders/m4/4md61f0s1_g0rzfghffqnxvr0000gn/T//ccN7wrnn.s 			page 6


 286              		.cfi_startproc
 287              		@ args = 0, pretend = 0, frame = 0
 288              		@ frame_needed = 0, uses_anonymous_args = 0
 289              		@ link register save eliminated.
 290              	.LVL18:
 291              		.loc 1 270 0
 292 0000 024B     		ldr	r3, .L25
 293 0002 9868     		ldr	r0, [r3, #8]
 294              	.LVL19:
 295              		.loc 1 279 0
 296 0004 0030     		adds	r0, r0, #0
 297 0006 18BF     		it	ne
 298 0008 0120     		movne	r0, #1
 299              	.LVL20:
 300 000a 7047     		bx	lr
 301              	.L26:
 302              		.align	2
 303              	.L25:
 304 000c 002C0040 		.word	1073753088
 305              		.cfi_endproc
 306              	.LFE129:
 307              		.size	WWDG_GetFlagStatus, .-WWDG_GetFlagStatus
 308              		.section	.text.WWDG_ClearFlag,"ax",%progbits
 309              		.align	2
 310              		.p2align 4,,15
 311              		.global	WWDG_ClearFlag
 312              		.thumb
 313              		.thumb_func
 314              		.type	WWDG_ClearFlag, %function
 315              	WWDG_ClearFlag:
 316              	.LFB130:
 317              		.loc 1 287 0
 318              		.cfi_startproc
 319              		@ args = 0, pretend = 0, frame = 0
 320              		@ frame_needed = 0, uses_anonymous_args = 0
 321              		@ link register save eliminated.
 322              		.loc 1 288 0
 323 0000 014B     		ldr	r3, .L28
 324 0002 0022     		movs	r2, #0
 325 0004 9A60     		str	r2, [r3, #8]
 326 0006 7047     		bx	lr
 327              	.L29:
 328              		.align	2
 329              	.L28:
 330 0008 002C0040 		.word	1073753088
 331              		.cfi_endproc
 332              	.LFE130:
 333              		.size	WWDG_ClearFlag, .-WWDG_ClearFlag
 334              		.text
 335              	.Letext0:
 336              		.file 2 "/usr/local/Cellar/gcc-arm-none-eabi-49/20150609/arm-none-eabi/include/machine/_default_ty
 337              		.file 3 "/usr/local/Cellar/gcc-arm-none-eabi-49/20150609/arm-none-eabi/include/sys/_stdint.h"
 338              		.file 4 "ChibiOS_16.1.4/os/ext/CMSIS/ST/STM32F4xx/stm32f446xx.h"
 339              		.file 5 "ChibiOS_16.1.4/os/ext/CMSIS/ST/STM32F4xx/stm32f4xx.h"
 340              		.file 6 "ChibiOS_16.1.4/ext/stdperiph_stm32f4/inc/stm32f4xx_rcc.h"
 341              		.file 7 "ChibiOS_16.1.4/os/ext/CMSIS/include/core_cm4.h"
 342              		.section	.debug_info,"",%progbits
ARM GAS  /var/folders/m4/4md61f0s1_g0rzfghffqnxvr0000gn/T//ccN7wrnn.s 			page 7


 343              	.Ldebug_info0:
 344 0000 91040000 		.4byte	0x491
 345 0004 0400     		.2byte	0x4
 346 0006 00000000 		.4byte	.Ldebug_abbrev0
 347 000a 04       		.byte	0x4
 348 000b 01       		.uleb128 0x1
 349 000c FA010000 		.4byte	.LASF36
 350 0010 01       		.byte	0x1
 351 0011 17000000 		.4byte	.LASF37
 352 0015 BF010000 		.4byte	.LASF38
 353 0019 00000000 		.4byte	.Ldebug_ranges0+0
 354 001d 00000000 		.4byte	0
 355 0021 00000000 		.4byte	.Ldebug_line0
 356 0025 02       		.uleb128 0x2
 357 0026 01       		.byte	0x1
 358 0027 06       		.byte	0x6
 359 0028 5F010000 		.4byte	.LASF0
 360 002c 03       		.uleb128 0x3
 361 002d 00000000 		.4byte	.LASF4
 362 0031 02       		.byte	0x2
 363 0032 1D       		.byte	0x1d
 364 0033 37000000 		.4byte	0x37
 365 0037 02       		.uleb128 0x2
 366 0038 01       		.byte	0x1
 367 0039 08       		.byte	0x8
 368 003a FF000000 		.4byte	.LASF1
 369 003e 02       		.uleb128 0x2
 370 003f 02       		.byte	0x2
 371 0040 05       		.byte	0x5
 372 0041 B5010000 		.4byte	.LASF2
 373 0045 02       		.uleb128 0x2
 374 0046 02       		.byte	0x2
 375 0047 07       		.byte	0x7
 376 0048 5B000000 		.4byte	.LASF3
 377 004c 03       		.uleb128 0x3
 378 004d 51000000 		.4byte	.LASF5
 379 0051 02       		.byte	0x2
 380 0052 3F       		.byte	0x3f
 381 0053 57000000 		.4byte	0x57
 382 0057 02       		.uleb128 0x2
 383 0058 04       		.byte	0x4
 384 0059 05       		.byte	0x5
 385 005a 47030000 		.4byte	.LASF6
 386 005e 03       		.uleb128 0x3
 387 005f 9C000000 		.4byte	.LASF7
 388 0063 02       		.byte	0x2
 389 0064 41       		.byte	0x41
 390 0065 69000000 		.4byte	0x69
 391 0069 02       		.uleb128 0x2
 392 006a 04       		.byte	0x4
 393 006b 07       		.byte	0x7
 394 006c DA000000 		.4byte	.LASF8
 395 0070 02       		.uleb128 0x2
 396 0071 08       		.byte	0x8
 397 0072 05       		.byte	0x5
 398 0073 93010000 		.4byte	.LASF9
 399 0077 02       		.uleb128 0x2
ARM GAS  /var/folders/m4/4md61f0s1_g0rzfghffqnxvr0000gn/T//ccN7wrnn.s 			page 8


 400 0078 08       		.byte	0x8
 401 0079 07       		.byte	0x7
 402 007a 2E010000 		.4byte	.LASF10
 403 007e 04       		.uleb128 0x4
 404 007f 04       		.byte	0x4
 405 0080 05       		.byte	0x5
 406 0081 696E7400 		.ascii	"int\000"
 407 0085 02       		.uleb128 0x2
 408 0086 04       		.byte	0x4
 409 0087 07       		.byte	0x7
 410 0088 21010000 		.4byte	.LASF11
 411 008c 03       		.uleb128 0x3
 412 008d 45010000 		.4byte	.LASF12
 413 0091 03       		.byte	0x3
 414 0092 14       		.byte	0x14
 415 0093 2C000000 		.4byte	0x2c
 416 0097 03       		.uleb128 0x3
 417 0098 88000000 		.4byte	.LASF13
 418 009c 03       		.byte	0x3
 419 009d 1F       		.byte	0x1f
 420 009e 4C000000 		.4byte	0x4c
 421 00a2 03       		.uleb128 0x3
 422 00a3 3E030000 		.4byte	.LASF14
 423 00a7 03       		.byte	0x3
 424 00a8 20       		.byte	0x20
 425 00a9 5E000000 		.4byte	0x5e
 426 00ad 02       		.uleb128 0x2
 427 00ae 04       		.byte	0x4
 428 00af 07       		.byte	0x7
 429 00b0 8A010000 		.4byte	.LASF15
 430 00b4 05       		.uleb128 0x5
 431 00b5 A2000000 		.4byte	0xa2
 432 00b9 06       		.uleb128 0x6
 433 00ba 0C       		.byte	0xc
 434 00bb 04       		.byte	0x4
 435 00bc 2803     		.2byte	0x328
 436 00be E8000000 		.4byte	0xe8
 437 00c2 07       		.uleb128 0x7
 438 00c3 435200   		.ascii	"CR\000"
 439 00c6 04       		.byte	0x4
 440 00c7 2A03     		.2byte	0x32a
 441 00c9 B4000000 		.4byte	0xb4
 442 00cd 00       		.byte	0
 443 00ce 07       		.uleb128 0x7
 444 00cf 43465200 		.ascii	"CFR\000"
 445 00d3 04       		.byte	0x4
 446 00d4 2B03     		.2byte	0x32b
 447 00d6 B4000000 		.4byte	0xb4
 448 00da 04       		.byte	0x4
 449 00db 07       		.uleb128 0x7
 450 00dc 535200   		.ascii	"SR\000"
 451 00df 04       		.byte	0x4
 452 00e0 2C03     		.2byte	0x32c
 453 00e2 B4000000 		.4byte	0xb4
 454 00e6 08       		.byte	0x8
 455 00e7 00       		.byte	0
 456 00e8 08       		.uleb128 0x8
ARM GAS  /var/folders/m4/4md61f0s1_g0rzfghffqnxvr0000gn/T//ccN7wrnn.s 			page 9


 457 00e9 A1010000 		.4byte	.LASF16
 458 00ed 04       		.byte	0x4
 459 00ee 2D03     		.2byte	0x32d
 460 00f0 B9000000 		.4byte	0xb9
 461 00f4 09       		.uleb128 0x9
 462 00f5 01       		.byte	0x1
 463 00f6 05       		.byte	0x5
 464 00f7 B8       		.byte	0xb8
 465 00f8 09010000 		.4byte	0x109
 466 00fc 0A       		.uleb128 0xa
 467 00fd EC000000 		.4byte	.LASF17
 468 0101 00       		.sleb128 0
 469 0102 0B       		.uleb128 0xb
 470 0103 53455400 		.ascii	"SET\000"
 471 0107 01       		.sleb128 1
 472 0108 00       		.byte	0
 473 0109 03       		.uleb128 0x3
 474 010a BC000000 		.4byte	.LASF18
 475 010e 05       		.byte	0x5
 476 010f BB       		.byte	0xbb
 477 0110 F4000000 		.4byte	0xf4
 478 0114 09       		.uleb128 0x9
 479 0115 01       		.byte	0x1
 480 0116 05       		.byte	0x5
 481 0117 BE       		.byte	0xbe
 482 0118 29010000 		.4byte	0x129
 483 011c 0A       		.uleb128 0xa
 484 011d 50030000 		.4byte	.LASF19
 485 0121 00       		.sleb128 0
 486 0122 0A       		.uleb128 0xa
 487 0123 A7000000 		.4byte	.LASF20
 488 0127 01       		.sleb128 1
 489 0128 00       		.byte	0
 490 0129 03       		.uleb128 0x3
 491 012a 6E000000 		.4byte	.LASF21
 492 012e 05       		.byte	0x5
 493 012f C1       		.byte	0xc1
 494 0130 14010000 		.4byte	0x114
 495 0134 0C       		.uleb128 0xc
 496 0135 32030000 		.4byte	.LASF22
 497 0139 01       		.byte	0x1
 498 013a 8A       		.byte	0x8a
 499 013b 00000000 		.4byte	.LFB123
 500 013f 1A000000 		.4byte	.LFE123-.LFB123
 501 0143 01       		.uleb128 0x1
 502 0144 9C       		.byte	0x9c
 503 0145 7A010000 		.4byte	0x17a
 504 0149 0D       		.uleb128 0xd
 505 014a 0C000000 		.4byte	.LVL0
 506 014e 70040000 		.4byte	0x470
 507 0152 63010000 		.4byte	0x163
 508 0156 0E       		.uleb128 0xe
 509 0157 01       		.uleb128 0x1
 510 0158 51       		.byte	0x51
 511 0159 01       		.uleb128 0x1
 512 015a 31       		.byte	0x31
 513 015b 0E       		.uleb128 0xe
ARM GAS  /var/folders/m4/4md61f0s1_g0rzfghffqnxvr0000gn/T//ccN7wrnn.s 			page 10


 514 015c 01       		.uleb128 0x1
 515 015d 50       		.byte	0x50
 516 015e 03       		.uleb128 0x3
 517 015f 0A       		.byte	0xa
 518 0160 0008     		.2byte	0x800
 519 0162 00       		.byte	0
 520 0163 0F       		.uleb128 0xf
 521 0164 1A000000 		.4byte	.LVL1
 522 0168 70040000 		.4byte	0x470
 523 016c 0E       		.uleb128 0xe
 524 016d 01       		.uleb128 0x1
 525 016e 51       		.byte	0x51
 526 016f 01       		.uleb128 0x1
 527 0170 30       		.byte	0x30
 528 0171 0E       		.uleb128 0xe
 529 0172 01       		.uleb128 0x1
 530 0173 50       		.byte	0x50
 531 0174 03       		.uleb128 0x3
 532 0175 0A       		.byte	0xa
 533 0176 0008     		.2byte	0x800
 534 0178 00       		.byte	0
 535 0179 00       		.byte	0
 536 017a 0C       		.uleb128 0xc
 537 017b 4D010000 		.4byte	.LASF23
 538 017f 01       		.byte	0x1
 539 0180 9A       		.byte	0x9a
 540 0181 00000000 		.4byte	.LFB124
 541 0185 2C000000 		.4byte	.LFE124-.LFB124
 542 0189 01       		.uleb128 0x1
 543 018a 9C       		.byte	0x9c
 544 018b E1020000 		.4byte	0x2e1
 545 018f 10       		.uleb128 0x10
 546 0190 7B010000 		.4byte	.LASF25
 547 0194 01       		.byte	0x1
 548 0195 9A       		.byte	0x9a
 549 0196 A2000000 		.4byte	0xa2
 550 019a 00000000 		.4byte	.LLST0
 551 019e 11       		.uleb128 0x11
 552 019f AE010000 		.4byte	.LASF27
 553 01a3 01       		.byte	0x1
 554 01a4 9C       		.byte	0x9c
 555 01a5 A2000000 		.4byte	0xa2
 556 01a9 2C000000 		.4byte	.LLST1
 557 01ad 12       		.uleb128 0x12
 558 01ae 0A000000 		.4byte	.LASF28
 559 01b2 01       		.byte	0x1
 560 01b3 9E       		.byte	0x9e
 561 01b4 7E000000 		.4byte	0x7e
 562 01b8 BE010000 		.4byte	0x1be
 563 01bc 13       		.uleb128 0x13
 564 01bd 00       		.byte	0
 565 01be 14       		.uleb128 0x14
 566 01bf 1A000000 		.4byte	.LVL4
 567 01c3 87040000 		.4byte	0x487
 568 01c7 0E       		.uleb128 0xe
 569 01c8 01       		.uleb128 0x1
 570 01c9 50       		.byte	0x50
ARM GAS  /var/folders/m4/4md61f0s1_g0rzfghffqnxvr0000gn/T//ccN7wrnn.s 			page 11


 571 01ca 9302     		.uleb128 0x113
 572 01cc 31       		.byte	0x31
 573 01cd 74       		.byte	0x74
 574 01ce 00       		.sleb128 0
 575 01cf 0B       		.byte	0xb
 576 01d0 7FFF     		.2byte	0xff7f
 577 01d2 1A       		.byte	0x1a
 578 01d3 0A       		.byte	0xa
 579 01d4 0001     		.2byte	0x100
 580 01d6 1C       		.byte	0x1c
 581 01d7 74       		.byte	0x74
 582 01d8 00       		.sleb128 0
 583 01d9 0B       		.byte	0xb
 584 01da 7FFF     		.2byte	0xff7f
 585 01dc 1A       		.byte	0x1a
 586 01dd 74       		.byte	0x74
 587 01de 00       		.sleb128 0
 588 01df 0B       		.byte	0xb
 589 01e0 7FFF     		.2byte	0xff7f
 590 01e2 1A       		.byte	0x1a
 591 01e3 30       		.byte	0x30
 592 01e4 2E       		.byte	0x2e
 593 01e5 28       		.byte	0x28
 594 01e6 0100     		.2byte	0x1
 595 01e8 16       		.byte	0x16
 596 01e9 13       		.byte	0x13
 597 01ea 74       		.byte	0x74
 598 01eb 00       		.sleb128 0
 599 01ec 0B       		.byte	0xb
 600 01ed 7FFF     		.2byte	0xff7f
 601 01ef 1A       		.byte	0x1a
 602 01f0 30       		.byte	0x30
 603 01f1 29       		.byte	0x29
 604 01f2 28       		.byte	0x28
 605 01f3 0100     		.2byte	0x1
 606 01f5 16       		.byte	0x16
 607 01f6 13       		.byte	0x13
 608 01f7 12       		.byte	0x12
 609 01f8 28       		.byte	0x28
 610 01f9 0600     		.2byte	0x6
 611 01fb 13       		.byte	0x13
 612 01fc 08       		.byte	0x8
 613 01fd 20       		.byte	0x20
 614 01fe 2F       		.byte	0x2f
 615 01ff 1400     		.2byte	0x14
 616 0201 30       		.byte	0x30
 617 0202 16       		.byte	0x16
 618 0203 12       		.byte	0x12
 619 0204 40       		.byte	0x40
 620 0205 4B       		.byte	0x4b
 621 0206 24       		.byte	0x24
 622 0207 1A       		.byte	0x1a
 623 0208 28       		.byte	0x28
 624 0209 0900     		.2byte	0x9
 625 020b 31       		.byte	0x31
 626 020c 24       		.byte	0x24
 627 020d 16       		.byte	0x16
ARM GAS  /var/folders/m4/4md61f0s1_g0rzfghffqnxvr0000gn/T//ccN7wrnn.s 			page 12


 628 020e 23       		.byte	0x23
 629 020f 01       		.uleb128 0x1
 630 0210 16       		.byte	0x16
 631 0211 2F       		.byte	0x2f
 632 0212 EFFF     		.2byte	0xffef
 633 0214 13       		.byte	0x13
 634 0215 96       		.byte	0x96
 635 0216 31       		.byte	0x31
 636 0217 74       		.byte	0x74
 637 0218 00       		.sleb128 0
 638 0219 0B       		.byte	0xb
 639 021a 7FFF     		.2byte	0xff7f
 640 021c 1A       		.byte	0x1a
 641 021d 0A       		.byte	0xa
 642 021e 0001     		.2byte	0x100
 643 0220 1C       		.byte	0x1c
 644 0221 74       		.byte	0x74
 645 0222 00       		.sleb128 0
 646 0223 0B       		.byte	0xb
 647 0224 7FFF     		.2byte	0xff7f
 648 0226 1A       		.byte	0x1a
 649 0227 74       		.byte	0x74
 650 0228 00       		.sleb128 0
 651 0229 0B       		.byte	0xb
 652 022a 7FFF     		.2byte	0xff7f
 653 022c 1A       		.byte	0x1a
 654 022d 30       		.byte	0x30
 655 022e 2E       		.byte	0x2e
 656 022f 28       		.byte	0x28
 657 0230 0100     		.2byte	0x1
 658 0232 16       		.byte	0x16
 659 0233 13       		.byte	0x13
 660 0234 74       		.byte	0x74
 661 0235 00       		.sleb128 0
 662 0236 0B       		.byte	0xb
 663 0237 7FFF     		.2byte	0xff7f
 664 0239 1A       		.byte	0x1a
 665 023a 30       		.byte	0x30
 666 023b 29       		.byte	0x29
 667 023c 28       		.byte	0x28
 668 023d 0100     		.2byte	0x1
 669 023f 16       		.byte	0x16
 670 0240 13       		.byte	0x13
 671 0241 74       		.byte	0x74
 672 0242 00       		.sleb128 0
 673 0243 0B       		.byte	0xb
 674 0244 7FFF     		.2byte	0xff7f
 675 0246 1A       		.byte	0x1a
 676 0247 30       		.byte	0x30
 677 0248 2E       		.byte	0x2e
 678 0249 28       		.byte	0x28
 679 024a 0100     		.2byte	0x1
 680 024c 16       		.byte	0x16
 681 024d 13       		.byte	0x13
 682 024e 35       		.byte	0x35
 683 024f 25       		.byte	0x25
 684 0250 31       		.byte	0x31
ARM GAS  /var/folders/m4/4md61f0s1_g0rzfghffqnxvr0000gn/T//ccN7wrnn.s 			page 13


 685 0251 74       		.byte	0x74
 686 0252 00       		.sleb128 0
 687 0253 0B       		.byte	0xb
 688 0254 7FFF     		.2byte	0xff7f
 689 0256 1A       		.byte	0x1a
 690 0257 0A       		.byte	0xa
 691 0258 0001     		.2byte	0x100
 692 025a 1C       		.byte	0x1c
 693 025b 74       		.byte	0x74
 694 025c 00       		.sleb128 0
 695 025d 0B       		.byte	0xb
 696 025e 7FFF     		.2byte	0xff7f
 697 0260 1A       		.byte	0x1a
 698 0261 74       		.byte	0x74
 699 0262 00       		.sleb128 0
 700 0263 0B       		.byte	0xb
 701 0264 7FFF     		.2byte	0xff7f
 702 0266 1A       		.byte	0x1a
 703 0267 30       		.byte	0x30
 704 0268 2E       		.byte	0x2e
 705 0269 28       		.byte	0x28
 706 026a 0100     		.2byte	0x1
 707 026c 16       		.byte	0x16
 708 026d 13       		.byte	0x13
 709 026e 74       		.byte	0x74
 710 026f 00       		.sleb128 0
 711 0270 0B       		.byte	0xb
 712 0271 7FFF     		.2byte	0xff7f
 713 0273 1A       		.byte	0x1a
 714 0274 30       		.byte	0x30
 715 0275 29       		.byte	0x29
 716 0276 28       		.byte	0x28
 717 0277 0100     		.2byte	0x1
 718 0279 16       		.byte	0x16
 719 027a 13       		.byte	0x13
 720 027b 12       		.byte	0x12
 721 027c 28       		.byte	0x28
 722 027d 0600     		.2byte	0x6
 723 027f 13       		.byte	0x13
 724 0280 08       		.byte	0x8
 725 0281 20       		.byte	0x20
 726 0282 2F       		.byte	0x2f
 727 0283 1400     		.2byte	0x14
 728 0285 30       		.byte	0x30
 729 0286 16       		.byte	0x16
 730 0287 12       		.byte	0x12
 731 0288 40       		.byte	0x40
 732 0289 4B       		.byte	0x4b
 733 028a 24       		.byte	0x24
 734 028b 1A       		.byte	0x1a
 735 028c 28       		.byte	0x28
 736 028d 0900     		.2byte	0x9
 737 028f 31       		.byte	0x31
 738 0290 24       		.byte	0x24
 739 0291 16       		.byte	0x16
 740 0292 23       		.byte	0x23
 741 0293 01       		.uleb128 0x1
ARM GAS  /var/folders/m4/4md61f0s1_g0rzfghffqnxvr0000gn/T//ccN7wrnn.s 			page 14


 742 0294 16       		.byte	0x16
 743 0295 2F       		.byte	0x2f
 744 0296 EFFF     		.2byte	0xffef
 745 0298 13       		.byte	0x13
 746 0299 96       		.byte	0x96
 747 029a 31       		.byte	0x31
 748 029b 74       		.byte	0x74
 749 029c 00       		.sleb128 0
 750 029d 0B       		.byte	0xb
 751 029e 7FFF     		.2byte	0xff7f
 752 02a0 1A       		.byte	0x1a
 753 02a1 0A       		.byte	0xa
 754 02a2 0001     		.2byte	0x100
 755 02a4 1C       		.byte	0x1c
 756 02a5 74       		.byte	0x74
 757 02a6 00       		.sleb128 0
 758 02a7 0B       		.byte	0xb
 759 02a8 7FFF     		.2byte	0xff7f
 760 02aa 1A       		.byte	0x1a
 761 02ab 74       		.byte	0x74
 762 02ac 00       		.sleb128 0
 763 02ad 0B       		.byte	0xb
 764 02ae 7FFF     		.2byte	0xff7f
 765 02b0 1A       		.byte	0x1a
 766 02b1 30       		.byte	0x30
 767 02b2 2E       		.byte	0x2e
 768 02b3 28       		.byte	0x28
 769 02b4 0100     		.2byte	0x1
 770 02b6 16       		.byte	0x16
 771 02b7 13       		.byte	0x13
 772 02b8 74       		.byte	0x74
 773 02b9 00       		.sleb128 0
 774 02ba 0B       		.byte	0xb
 775 02bb 7FFF     		.2byte	0xff7f
 776 02bd 1A       		.byte	0x1a
 777 02be 30       		.byte	0x30
 778 02bf 29       		.byte	0x29
 779 02c0 28       		.byte	0x28
 780 02c1 0100     		.2byte	0x1
 781 02c3 16       		.byte	0x16
 782 02c4 13       		.byte	0x13
 783 02c5 74       		.byte	0x74
 784 02c6 00       		.sleb128 0
 785 02c7 0B       		.byte	0xb
 786 02c8 7FFF     		.2byte	0xff7f
 787 02ca 1A       		.byte	0x1a
 788 02cb 30       		.byte	0x30
 789 02cc 2E       		.byte	0x2e
 790 02cd 28       		.byte	0x28
 791 02ce 0100     		.2byte	0x1
 792 02d0 16       		.byte	0x16
 793 02d1 13       		.byte	0x13
 794 02d2 74       		.byte	0x74
 795 02d3 00       		.sleb128 0
 796 02d4 0B       		.byte	0xb
 797 02d5 7FFF     		.2byte	0xff7f
 798 02d7 1A       		.byte	0x1a
ARM GAS  /var/folders/m4/4md61f0s1_g0rzfghffqnxvr0000gn/T//ccN7wrnn.s 			page 15


 799 02d8 30       		.byte	0x30
 800 02d9 2E       		.byte	0x2e
 801 02da 28       		.byte	0x28
 802 02db 0100     		.2byte	0x1
 803 02dd 16       		.byte	0x16
 804 02de 13       		.byte	0x13
 805 02df 00       		.byte	0
 806 02e0 00       		.byte	0
 807 02e1 0C       		.uleb128 0xc
 808 02e2 1E030000 		.4byte	.LASF24
 809 02e6 01       		.byte	0x1
 810 02e7 AD       		.byte	0xad
 811 02e8 00000000 		.4byte	.LFB125
 812 02ec 34000000 		.4byte	.LFE125-.LFB125
 813 02f0 01       		.uleb128 0x1
 814 02f1 9C       		.byte	0x9c
 815 02f2 3D030000 		.4byte	0x33d
 816 02f6 10       		.uleb128 0x10
 817 02f7 0D010000 		.4byte	.LASF26
 818 02fb 01       		.byte	0x1
 819 02fc AD       		.byte	0xad
 820 02fd 8C000000 		.4byte	0x8c
 821 0301 4B000000 		.4byte	.LLST2
 822 0305 15       		.uleb128 0x15
 823 0306 AE010000 		.4byte	.LASF27
 824 030a 01       		.byte	0x1
 825 030b AF       		.byte	0xaf
 826 030c B4000000 		.4byte	0xb4
 827 0310 02       		.uleb128 0x2
 828 0311 91       		.byte	0x91
 829 0312 74       		.sleb128 -12
 830 0313 12       		.uleb128 0x12
 831 0314 0A000000 		.4byte	.LASF28
 832 0318 01       		.byte	0x1
 833 0319 9E       		.byte	0x9e
 834 031a 7E000000 		.4byte	0x7e
 835 031e 24030000 		.4byte	0x324
 836 0322 13       		.uleb128 0x13
 837 0323 00       		.byte	0
 838 0324 14       		.uleb128 0x14
 839 0325 14000000 		.4byte	.LVL11
 840 0329 87040000 		.4byte	0x487
 841 032d 0E       		.uleb128 0xe
 842 032e 01       		.uleb128 0x1
 843 032f 50       		.byte	0x50
 844 0330 0A       		.uleb128 0xa
 845 0331 F3       		.byte	0xf3
 846 0332 01       		.uleb128 0x1
 847 0333 50       		.byte	0x50
 848 0334 48       		.byte	0x48
 849 0335 24       		.byte	0x24
 850 0336 48       		.byte	0x48
 851 0337 26       		.byte	0x26
 852 0338 20       		.byte	0x20
 853 0339 4F       		.byte	0x4f
 854 033a 25       		.byte	0x25
 855 033b 00       		.byte	0
ARM GAS  /var/folders/m4/4md61f0s1_g0rzfghffqnxvr0000gn/T//ccN7wrnn.s 			page 16


 856 033c 00       		.byte	0
 857 033d 16       		.uleb128 0x16
 858 033e AE000000 		.4byte	.LASF33
 859 0342 01       		.byte	0x1
 860 0343 C4       		.byte	0xc4
 861 0344 00000000 		.4byte	.LFB126
 862 0348 0C000000 		.4byte	.LFE126-.LFB126
 863 034c 01       		.uleb128 0x1
 864 034d 9C       		.byte	0x9c
 865 034e 0C       		.uleb128 0xc
 866 034f 6B010000 		.4byte	.LASF29
 867 0353 01       		.byte	0x1
 868 0354 D0       		.byte	0xd0
 869 0355 00000000 		.4byte	.LFB127
 870 0359 20000000 		.4byte	.LFE127-.LFB127
 871 035d 01       		.uleb128 0x1
 872 035e 9C       		.byte	0x9c
 873 035f B8030000 		.4byte	0x3b8
 874 0363 10       		.uleb128 0x10
 875 0364 19010000 		.4byte	.LASF30
 876 0368 01       		.byte	0x1
 877 0369 D0       		.byte	0xd0
 878 036a 8C000000 		.4byte	0x8c
 879 036e 7A000000 		.4byte	.LLST3
 880 0372 12       		.uleb128 0x12
 881 0373 0A000000 		.4byte	.LASF28
 882 0377 01       		.byte	0x1
 883 0378 9E       		.byte	0x9e
 884 0379 7E000000 		.4byte	0x7e
 885 037d 83030000 		.4byte	0x383
 886 0381 13       		.uleb128 0x13
 887 0382 00       		.byte	0
 888 0383 14       		.uleb128 0x14
 889 0384 12000000 		.4byte	.LVL14
 890 0388 87040000 		.4byte	0x487
 891 038c 0E       		.uleb128 0xe
 892 038d 01       		.uleb128 0x1
 893 038e 50       		.byte	0x50
 894 038f 26       		.uleb128 0x26
 895 0390 31       		.byte	0x31
 896 0391 30       		.byte	0x30
 897 0392 74       		.byte	0x74
 898 0393 40       		.sleb128 -64
 899 0394 74       		.byte	0x74
 900 0395 40       		.sleb128 -64
 901 0396 40       		.byte	0x40
 902 0397 4B       		.byte	0x4b
 903 0398 24       		.byte	0x24
 904 0399 22       		.byte	0x22
 905 039a 0C       		.byte	0xc
 906 039b 3F000080 		.4byte	0x8000003f
 907 039f 2B       		.byte	0x2b
 908 03a0 28       		.byte	0x28
 909 03a1 0100     		.2byte	0x1
 910 03a3 16       		.byte	0x16
 911 03a4 13       		.byte	0x13
 912 03a5 74       		.byte	0x74
ARM GAS  /var/folders/m4/4md61f0s1_g0rzfghffqnxvr0000gn/T//ccN7wrnn.s 			page 17


 913 03a6 40       		.sleb128 -64
 914 03a7 40       		.byte	0x40
 915 03a8 4B       		.byte	0x4b
 916 03a9 24       		.byte	0x24
 917 03aa 22       		.byte	0x22
 918 03ab 0C       		.byte	0xc
 919 03ac 3F000080 		.4byte	0x8000003f
 920 03b0 2C       		.byte	0x2c
 921 03b1 28       		.byte	0x28
 922 03b2 0100     		.2byte	0x1
 923 03b4 16       		.byte	0x16
 924 03b5 13       		.byte	0x13
 925 03b6 00       		.byte	0
 926 03b7 00       		.byte	0
 927 03b8 0C       		.uleb128 0xc
 928 03b9 90000000 		.4byte	.LASF31
 929 03bd 01       		.byte	0x1
 930 03be EF       		.byte	0xef
 931 03bf 00000000 		.4byte	.LFB128
 932 03c3 20000000 		.4byte	.LFE128-.LFB128
 933 03c7 01       		.uleb128 0x1
 934 03c8 9C       		.byte	0x9c
 935 03c9 22040000 		.4byte	0x422
 936 03cd 10       		.uleb128 0x10
 937 03ce 19010000 		.4byte	.LASF30
 938 03d2 01       		.byte	0x1
 939 03d3 EF       		.byte	0xef
 940 03d4 8C000000 		.4byte	0x8c
 941 03d8 9B000000 		.4byte	.LLST4
 942 03dc 12       		.uleb128 0x12
 943 03dd 0A000000 		.4byte	.LASF28
 944 03e1 01       		.byte	0x1
 945 03e2 9E       		.byte	0x9e
 946 03e3 7E000000 		.4byte	0x7e
 947 03e7 ED030000 		.4byte	0x3ed
 948 03eb 13       		.uleb128 0x13
 949 03ec 00       		.byte	0
 950 03ed 14       		.uleb128 0x14
 951 03ee 12000000 		.4byte	.LVL17
 952 03f2 87040000 		.4byte	0x487
 953 03f6 0E       		.uleb128 0xe
 954 03f7 01       		.uleb128 0x1
 955 03f8 50       		.byte	0x50
 956 03f9 26       		.uleb128 0x26
 957 03fa 31       		.byte	0x31
 958 03fb 30       		.byte	0x30
 959 03fc 74       		.byte	0x74
 960 03fd 40       		.sleb128 -64
 961 03fe 74       		.byte	0x74
 962 03ff 40       		.sleb128 -64
 963 0400 40       		.byte	0x40
 964 0401 4B       		.byte	0x4b
 965 0402 24       		.byte	0x24
 966 0403 22       		.byte	0x22
 967 0404 0C       		.byte	0xc
 968 0405 3F000080 		.4byte	0x8000003f
 969 0409 2B       		.byte	0x2b
ARM GAS  /var/folders/m4/4md61f0s1_g0rzfghffqnxvr0000gn/T//ccN7wrnn.s 			page 18


 970 040a 28       		.byte	0x28
 971 040b 0100     		.2byte	0x1
 972 040d 16       		.byte	0x16
 973 040e 13       		.byte	0x13
 974 040f 74       		.byte	0x74
 975 0410 40       		.sleb128 -64
 976 0411 40       		.byte	0x40
 977 0412 4B       		.byte	0x4b
 978 0413 24       		.byte	0x24
 979 0414 22       		.byte	0x22
 980 0415 0C       		.byte	0xc
 981 0416 3F000080 		.4byte	0x8000003f
 982 041a 2C       		.byte	0x2c
 983 041b 28       		.byte	0x28
 984 041c 0100     		.2byte	0x1
 985 041e 16       		.byte	0x16
 986 041f 13       		.byte	0x13
 987 0420 00       		.byte	0
 988 0421 00       		.byte	0
 989 0422 17       		.uleb128 0x17
 990 0423 C7000000 		.4byte	.LASF39
 991 0427 01       		.byte	0x1
 992 0428 0A01     		.2byte	0x10a
 993 042a 09010000 		.4byte	0x109
 994 042e 00000000 		.4byte	.LFB129
 995 0432 10000000 		.4byte	.LFE129-.LFB129
 996 0436 01       		.uleb128 0x1
 997 0437 9C       		.byte	0x9c
 998 0438 4D040000 		.4byte	0x44d
 999 043c 18       		.uleb128 0x18
 1000 043d 7E000000 		.4byte	.LASF32
 1001 0441 01       		.byte	0x1
 1002 0442 0C01     		.2byte	0x10c
 1003 0444 09010000 		.4byte	0x109
 1004 0448 BC000000 		.4byte	.LLST5
 1005 044c 00       		.byte	0
 1006 044d 19       		.uleb128 0x19
 1007 044e EB010000 		.4byte	.LASF34
 1008 0452 01       		.byte	0x1
 1009 0453 1E01     		.2byte	0x11e
 1010 0455 00000000 		.4byte	.LFB130
 1011 0459 0C000000 		.4byte	.LFE130-.LFB130
 1012 045d 01       		.uleb128 0x1
 1013 045e 9C       		.byte	0x9c
 1014 045f 1A       		.uleb128 0x1a
 1015 0460 F2000000 		.4byte	.LASF40
 1016 0464 07       		.byte	0x7
 1017 0465 FA06     		.2byte	0x6fa
 1018 0467 6B040000 		.4byte	0x46b
 1019 046b 05       		.uleb128 0x5
 1020 046c 97000000 		.4byte	0x97
 1021 0470 1B       		.uleb128 0x1b
 1022 0471 58030000 		.4byte	.LASF35
 1023 0475 06       		.byte	0x6
 1024 0476 6103     		.2byte	0x361
 1025 0478 87040000 		.4byte	0x487
 1026 047c 1C       		.uleb128 0x1c
ARM GAS  /var/folders/m4/4md61f0s1_g0rzfghffqnxvr0000gn/T//ccN7wrnn.s 			page 19


 1027 047d A2000000 		.4byte	0xa2
 1028 0481 1C       		.uleb128 0x1c
 1029 0482 29010000 		.4byte	0x129
 1030 0486 00       		.byte	0
 1031 0487 1D       		.uleb128 0x1d
 1032 0488 0A000000 		.4byte	.LASF28
 1033 048c 01       		.byte	0x1
 1034 048d 9E       		.byte	0x9e
 1035 048e 7E000000 		.4byte	0x7e
 1036 0492 13       		.uleb128 0x13
 1037 0493 00       		.byte	0
 1038 0494 00       		.byte	0
 1039              		.section	.debug_abbrev,"",%progbits
 1040              	.Ldebug_abbrev0:
 1041 0000 01       		.uleb128 0x1
 1042 0001 11       		.uleb128 0x11
 1043 0002 01       		.byte	0x1
 1044 0003 25       		.uleb128 0x25
 1045 0004 0E       		.uleb128 0xe
 1046 0005 13       		.uleb128 0x13
 1047 0006 0B       		.uleb128 0xb
 1048 0007 03       		.uleb128 0x3
 1049 0008 0E       		.uleb128 0xe
 1050 0009 1B       		.uleb128 0x1b
 1051 000a 0E       		.uleb128 0xe
 1052 000b 55       		.uleb128 0x55
 1053 000c 17       		.uleb128 0x17
 1054 000d 11       		.uleb128 0x11
 1055 000e 01       		.uleb128 0x1
 1056 000f 10       		.uleb128 0x10
 1057 0010 17       		.uleb128 0x17
 1058 0011 00       		.byte	0
 1059 0012 00       		.byte	0
 1060 0013 02       		.uleb128 0x2
 1061 0014 24       		.uleb128 0x24
 1062 0015 00       		.byte	0
 1063 0016 0B       		.uleb128 0xb
 1064 0017 0B       		.uleb128 0xb
 1065 0018 3E       		.uleb128 0x3e
 1066 0019 0B       		.uleb128 0xb
 1067 001a 03       		.uleb128 0x3
 1068 001b 0E       		.uleb128 0xe
 1069 001c 00       		.byte	0
 1070 001d 00       		.byte	0
 1071 001e 03       		.uleb128 0x3
 1072 001f 16       		.uleb128 0x16
 1073 0020 00       		.byte	0
 1074 0021 03       		.uleb128 0x3
 1075 0022 0E       		.uleb128 0xe
 1076 0023 3A       		.uleb128 0x3a
 1077 0024 0B       		.uleb128 0xb
 1078 0025 3B       		.uleb128 0x3b
 1079 0026 0B       		.uleb128 0xb
 1080 0027 49       		.uleb128 0x49
 1081 0028 13       		.uleb128 0x13
 1082 0029 00       		.byte	0
 1083 002a 00       		.byte	0
ARM GAS  /var/folders/m4/4md61f0s1_g0rzfghffqnxvr0000gn/T//ccN7wrnn.s 			page 20


 1084 002b 04       		.uleb128 0x4
 1085 002c 24       		.uleb128 0x24
 1086 002d 00       		.byte	0
 1087 002e 0B       		.uleb128 0xb
 1088 002f 0B       		.uleb128 0xb
 1089 0030 3E       		.uleb128 0x3e
 1090 0031 0B       		.uleb128 0xb
 1091 0032 03       		.uleb128 0x3
 1092 0033 08       		.uleb128 0x8
 1093 0034 00       		.byte	0
 1094 0035 00       		.byte	0
 1095 0036 05       		.uleb128 0x5
 1096 0037 35       		.uleb128 0x35
 1097 0038 00       		.byte	0
 1098 0039 49       		.uleb128 0x49
 1099 003a 13       		.uleb128 0x13
 1100 003b 00       		.byte	0
 1101 003c 00       		.byte	0
 1102 003d 06       		.uleb128 0x6
 1103 003e 13       		.uleb128 0x13
 1104 003f 01       		.byte	0x1
 1105 0040 0B       		.uleb128 0xb
 1106 0041 0B       		.uleb128 0xb
 1107 0042 3A       		.uleb128 0x3a
 1108 0043 0B       		.uleb128 0xb
 1109 0044 3B       		.uleb128 0x3b
 1110 0045 05       		.uleb128 0x5
 1111 0046 01       		.uleb128 0x1
 1112 0047 13       		.uleb128 0x13
 1113 0048 00       		.byte	0
 1114 0049 00       		.byte	0
 1115 004a 07       		.uleb128 0x7
 1116 004b 0D       		.uleb128 0xd
 1117 004c 00       		.byte	0
 1118 004d 03       		.uleb128 0x3
 1119 004e 08       		.uleb128 0x8
 1120 004f 3A       		.uleb128 0x3a
 1121 0050 0B       		.uleb128 0xb
 1122 0051 3B       		.uleb128 0x3b
 1123 0052 05       		.uleb128 0x5
 1124 0053 49       		.uleb128 0x49
 1125 0054 13       		.uleb128 0x13
 1126 0055 38       		.uleb128 0x38
 1127 0056 0B       		.uleb128 0xb
 1128 0057 00       		.byte	0
 1129 0058 00       		.byte	0
 1130 0059 08       		.uleb128 0x8
 1131 005a 16       		.uleb128 0x16
 1132 005b 00       		.byte	0
 1133 005c 03       		.uleb128 0x3
 1134 005d 0E       		.uleb128 0xe
 1135 005e 3A       		.uleb128 0x3a
 1136 005f 0B       		.uleb128 0xb
 1137 0060 3B       		.uleb128 0x3b
 1138 0061 05       		.uleb128 0x5
 1139 0062 49       		.uleb128 0x49
 1140 0063 13       		.uleb128 0x13
ARM GAS  /var/folders/m4/4md61f0s1_g0rzfghffqnxvr0000gn/T//ccN7wrnn.s 			page 21


 1141 0064 00       		.byte	0
 1142 0065 00       		.byte	0
 1143 0066 09       		.uleb128 0x9
 1144 0067 04       		.uleb128 0x4
 1145 0068 01       		.byte	0x1
 1146 0069 0B       		.uleb128 0xb
 1147 006a 0B       		.uleb128 0xb
 1148 006b 3A       		.uleb128 0x3a
 1149 006c 0B       		.uleb128 0xb
 1150 006d 3B       		.uleb128 0x3b
 1151 006e 0B       		.uleb128 0xb
 1152 006f 01       		.uleb128 0x1
 1153 0070 13       		.uleb128 0x13
 1154 0071 00       		.byte	0
 1155 0072 00       		.byte	0
 1156 0073 0A       		.uleb128 0xa
 1157 0074 28       		.uleb128 0x28
 1158 0075 00       		.byte	0
 1159 0076 03       		.uleb128 0x3
 1160 0077 0E       		.uleb128 0xe
 1161 0078 1C       		.uleb128 0x1c
 1162 0079 0D       		.uleb128 0xd
 1163 007a 00       		.byte	0
 1164 007b 00       		.byte	0
 1165 007c 0B       		.uleb128 0xb
 1166 007d 28       		.uleb128 0x28
 1167 007e 00       		.byte	0
 1168 007f 03       		.uleb128 0x3
 1169 0080 08       		.uleb128 0x8
 1170 0081 1C       		.uleb128 0x1c
 1171 0082 0D       		.uleb128 0xd
 1172 0083 00       		.byte	0
 1173 0084 00       		.byte	0
 1174 0085 0C       		.uleb128 0xc
 1175 0086 2E       		.uleb128 0x2e
 1176 0087 01       		.byte	0x1
 1177 0088 3F       		.uleb128 0x3f
 1178 0089 19       		.uleb128 0x19
 1179 008a 03       		.uleb128 0x3
 1180 008b 0E       		.uleb128 0xe
 1181 008c 3A       		.uleb128 0x3a
 1182 008d 0B       		.uleb128 0xb
 1183 008e 3B       		.uleb128 0x3b
 1184 008f 0B       		.uleb128 0xb
 1185 0090 27       		.uleb128 0x27
 1186 0091 19       		.uleb128 0x19
 1187 0092 11       		.uleb128 0x11
 1188 0093 01       		.uleb128 0x1
 1189 0094 12       		.uleb128 0x12
 1190 0095 06       		.uleb128 0x6
 1191 0096 40       		.uleb128 0x40
 1192 0097 18       		.uleb128 0x18
 1193 0098 9742     		.uleb128 0x2117
 1194 009a 19       		.uleb128 0x19
 1195 009b 01       		.uleb128 0x1
 1196 009c 13       		.uleb128 0x13
 1197 009d 00       		.byte	0
ARM GAS  /var/folders/m4/4md61f0s1_g0rzfghffqnxvr0000gn/T//ccN7wrnn.s 			page 22


 1198 009e 00       		.byte	0
 1199 009f 0D       		.uleb128 0xd
 1200 00a0 898201   		.uleb128 0x4109
 1201 00a3 01       		.byte	0x1
 1202 00a4 11       		.uleb128 0x11
 1203 00a5 01       		.uleb128 0x1
 1204 00a6 31       		.uleb128 0x31
 1205 00a7 13       		.uleb128 0x13
 1206 00a8 01       		.uleb128 0x1
 1207 00a9 13       		.uleb128 0x13
 1208 00aa 00       		.byte	0
 1209 00ab 00       		.byte	0
 1210 00ac 0E       		.uleb128 0xe
 1211 00ad 8A8201   		.uleb128 0x410a
 1212 00b0 00       		.byte	0
 1213 00b1 02       		.uleb128 0x2
 1214 00b2 18       		.uleb128 0x18
 1215 00b3 9142     		.uleb128 0x2111
 1216 00b5 18       		.uleb128 0x18
 1217 00b6 00       		.byte	0
 1218 00b7 00       		.byte	0
 1219 00b8 0F       		.uleb128 0xf
 1220 00b9 898201   		.uleb128 0x4109
 1221 00bc 01       		.byte	0x1
 1222 00bd 11       		.uleb128 0x11
 1223 00be 01       		.uleb128 0x1
 1224 00bf 9542     		.uleb128 0x2115
 1225 00c1 19       		.uleb128 0x19
 1226 00c2 31       		.uleb128 0x31
 1227 00c3 13       		.uleb128 0x13
 1228 00c4 00       		.byte	0
 1229 00c5 00       		.byte	0
 1230 00c6 10       		.uleb128 0x10
 1231 00c7 05       		.uleb128 0x5
 1232 00c8 00       		.byte	0
 1233 00c9 03       		.uleb128 0x3
 1234 00ca 0E       		.uleb128 0xe
 1235 00cb 3A       		.uleb128 0x3a
 1236 00cc 0B       		.uleb128 0xb
 1237 00cd 3B       		.uleb128 0x3b
 1238 00ce 0B       		.uleb128 0xb
 1239 00cf 49       		.uleb128 0x49
 1240 00d0 13       		.uleb128 0x13
 1241 00d1 02       		.uleb128 0x2
 1242 00d2 17       		.uleb128 0x17
 1243 00d3 00       		.byte	0
 1244 00d4 00       		.byte	0
 1245 00d5 11       		.uleb128 0x11
 1246 00d6 34       		.uleb128 0x34
 1247 00d7 00       		.byte	0
 1248 00d8 03       		.uleb128 0x3
 1249 00d9 0E       		.uleb128 0xe
 1250 00da 3A       		.uleb128 0x3a
 1251 00db 0B       		.uleb128 0xb
 1252 00dc 3B       		.uleb128 0x3b
 1253 00dd 0B       		.uleb128 0xb
 1254 00de 49       		.uleb128 0x49
ARM GAS  /var/folders/m4/4md61f0s1_g0rzfghffqnxvr0000gn/T//ccN7wrnn.s 			page 23


 1255 00df 13       		.uleb128 0x13
 1256 00e0 02       		.uleb128 0x2
 1257 00e1 17       		.uleb128 0x17
 1258 00e2 00       		.byte	0
 1259 00e3 00       		.byte	0
 1260 00e4 12       		.uleb128 0x12
 1261 00e5 2E       		.uleb128 0x2e
 1262 00e6 01       		.byte	0x1
 1263 00e7 3F       		.uleb128 0x3f
 1264 00e8 19       		.uleb128 0x19
 1265 00e9 03       		.uleb128 0x3
 1266 00ea 0E       		.uleb128 0xe
 1267 00eb 3A       		.uleb128 0x3a
 1268 00ec 0B       		.uleb128 0xb
 1269 00ed 3B       		.uleb128 0x3b
 1270 00ee 0B       		.uleb128 0xb
 1271 00ef 49       		.uleb128 0x49
 1272 00f0 13       		.uleb128 0x13
 1273 00f1 3C       		.uleb128 0x3c
 1274 00f2 19       		.uleb128 0x19
 1275 00f3 01       		.uleb128 0x1
 1276 00f4 13       		.uleb128 0x13
 1277 00f5 00       		.byte	0
 1278 00f6 00       		.byte	0
 1279 00f7 13       		.uleb128 0x13
 1280 00f8 18       		.uleb128 0x18
 1281 00f9 00       		.byte	0
 1282 00fa 00       		.byte	0
 1283 00fb 00       		.byte	0
 1284 00fc 14       		.uleb128 0x14
 1285 00fd 898201   		.uleb128 0x4109
 1286 0100 01       		.byte	0x1
 1287 0101 11       		.uleb128 0x11
 1288 0102 01       		.uleb128 0x1
 1289 0103 31       		.uleb128 0x31
 1290 0104 13       		.uleb128 0x13
 1291 0105 00       		.byte	0
 1292 0106 00       		.byte	0
 1293 0107 15       		.uleb128 0x15
 1294 0108 34       		.uleb128 0x34
 1295 0109 00       		.byte	0
 1296 010a 03       		.uleb128 0x3
 1297 010b 0E       		.uleb128 0xe
 1298 010c 3A       		.uleb128 0x3a
 1299 010d 0B       		.uleb128 0xb
 1300 010e 3B       		.uleb128 0x3b
 1301 010f 0B       		.uleb128 0xb
 1302 0110 49       		.uleb128 0x49
 1303 0111 13       		.uleb128 0x13
 1304 0112 02       		.uleb128 0x2
 1305 0113 18       		.uleb128 0x18
 1306 0114 00       		.byte	0
 1307 0115 00       		.byte	0
 1308 0116 16       		.uleb128 0x16
 1309 0117 2E       		.uleb128 0x2e
 1310 0118 00       		.byte	0
 1311 0119 3F       		.uleb128 0x3f
ARM GAS  /var/folders/m4/4md61f0s1_g0rzfghffqnxvr0000gn/T//ccN7wrnn.s 			page 24


 1312 011a 19       		.uleb128 0x19
 1313 011b 03       		.uleb128 0x3
 1314 011c 0E       		.uleb128 0xe
 1315 011d 3A       		.uleb128 0x3a
 1316 011e 0B       		.uleb128 0xb
 1317 011f 3B       		.uleb128 0x3b
 1318 0120 0B       		.uleb128 0xb
 1319 0121 27       		.uleb128 0x27
 1320 0122 19       		.uleb128 0x19
 1321 0123 11       		.uleb128 0x11
 1322 0124 01       		.uleb128 0x1
 1323 0125 12       		.uleb128 0x12
 1324 0126 06       		.uleb128 0x6
 1325 0127 40       		.uleb128 0x40
 1326 0128 18       		.uleb128 0x18
 1327 0129 9742     		.uleb128 0x2117
 1328 012b 19       		.uleb128 0x19
 1329 012c 00       		.byte	0
 1330 012d 00       		.byte	0
 1331 012e 17       		.uleb128 0x17
 1332 012f 2E       		.uleb128 0x2e
 1333 0130 01       		.byte	0x1
 1334 0131 3F       		.uleb128 0x3f
 1335 0132 19       		.uleb128 0x19
 1336 0133 03       		.uleb128 0x3
 1337 0134 0E       		.uleb128 0xe
 1338 0135 3A       		.uleb128 0x3a
 1339 0136 0B       		.uleb128 0xb
 1340 0137 3B       		.uleb128 0x3b
 1341 0138 05       		.uleb128 0x5
 1342 0139 27       		.uleb128 0x27
 1343 013a 19       		.uleb128 0x19
 1344 013b 49       		.uleb128 0x49
 1345 013c 13       		.uleb128 0x13
 1346 013d 11       		.uleb128 0x11
 1347 013e 01       		.uleb128 0x1
 1348 013f 12       		.uleb128 0x12
 1349 0140 06       		.uleb128 0x6
 1350 0141 40       		.uleb128 0x40
 1351 0142 18       		.uleb128 0x18
 1352 0143 9742     		.uleb128 0x2117
 1353 0145 19       		.uleb128 0x19
 1354 0146 01       		.uleb128 0x1
 1355 0147 13       		.uleb128 0x13
 1356 0148 00       		.byte	0
 1357 0149 00       		.byte	0
 1358 014a 18       		.uleb128 0x18
 1359 014b 34       		.uleb128 0x34
 1360 014c 00       		.byte	0
 1361 014d 03       		.uleb128 0x3
 1362 014e 0E       		.uleb128 0xe
 1363 014f 3A       		.uleb128 0x3a
 1364 0150 0B       		.uleb128 0xb
 1365 0151 3B       		.uleb128 0x3b
 1366 0152 05       		.uleb128 0x5
 1367 0153 49       		.uleb128 0x49
 1368 0154 13       		.uleb128 0x13
ARM GAS  /var/folders/m4/4md61f0s1_g0rzfghffqnxvr0000gn/T//ccN7wrnn.s 			page 25


 1369 0155 02       		.uleb128 0x2
 1370 0156 17       		.uleb128 0x17
 1371 0157 00       		.byte	0
 1372 0158 00       		.byte	0
 1373 0159 19       		.uleb128 0x19
 1374 015a 2E       		.uleb128 0x2e
 1375 015b 00       		.byte	0
 1376 015c 3F       		.uleb128 0x3f
 1377 015d 19       		.uleb128 0x19
 1378 015e 03       		.uleb128 0x3
 1379 015f 0E       		.uleb128 0xe
 1380 0160 3A       		.uleb128 0x3a
 1381 0161 0B       		.uleb128 0xb
 1382 0162 3B       		.uleb128 0x3b
 1383 0163 05       		.uleb128 0x5
 1384 0164 27       		.uleb128 0x27
 1385 0165 19       		.uleb128 0x19
 1386 0166 11       		.uleb128 0x11
 1387 0167 01       		.uleb128 0x1
 1388 0168 12       		.uleb128 0x12
 1389 0169 06       		.uleb128 0x6
 1390 016a 40       		.uleb128 0x40
 1391 016b 18       		.uleb128 0x18
 1392 016c 9742     		.uleb128 0x2117
 1393 016e 19       		.uleb128 0x19
 1394 016f 00       		.byte	0
 1395 0170 00       		.byte	0
 1396 0171 1A       		.uleb128 0x1a
 1397 0172 34       		.uleb128 0x34
 1398 0173 00       		.byte	0
 1399 0174 03       		.uleb128 0x3
 1400 0175 0E       		.uleb128 0xe
 1401 0176 3A       		.uleb128 0x3a
 1402 0177 0B       		.uleb128 0xb
 1403 0178 3B       		.uleb128 0x3b
 1404 0179 05       		.uleb128 0x5
 1405 017a 49       		.uleb128 0x49
 1406 017b 13       		.uleb128 0x13
 1407 017c 3F       		.uleb128 0x3f
 1408 017d 19       		.uleb128 0x19
 1409 017e 3C       		.uleb128 0x3c
 1410 017f 19       		.uleb128 0x19
 1411 0180 00       		.byte	0
 1412 0181 00       		.byte	0
 1413 0182 1B       		.uleb128 0x1b
 1414 0183 2E       		.uleb128 0x2e
 1415 0184 01       		.byte	0x1
 1416 0185 3F       		.uleb128 0x3f
 1417 0186 19       		.uleb128 0x19
 1418 0187 03       		.uleb128 0x3
 1419 0188 0E       		.uleb128 0xe
 1420 0189 3A       		.uleb128 0x3a
 1421 018a 0B       		.uleb128 0xb
 1422 018b 3B       		.uleb128 0x3b
 1423 018c 05       		.uleb128 0x5
 1424 018d 27       		.uleb128 0x27
 1425 018e 19       		.uleb128 0x19
ARM GAS  /var/folders/m4/4md61f0s1_g0rzfghffqnxvr0000gn/T//ccN7wrnn.s 			page 26


 1426 018f 3C       		.uleb128 0x3c
 1427 0190 19       		.uleb128 0x19
 1428 0191 01       		.uleb128 0x1
 1429 0192 13       		.uleb128 0x13
 1430 0193 00       		.byte	0
 1431 0194 00       		.byte	0
 1432 0195 1C       		.uleb128 0x1c
 1433 0196 05       		.uleb128 0x5
 1434 0197 00       		.byte	0
 1435 0198 49       		.uleb128 0x49
 1436 0199 13       		.uleb128 0x13
 1437 019a 00       		.byte	0
 1438 019b 00       		.byte	0
 1439 019c 1D       		.uleb128 0x1d
 1440 019d 2E       		.uleb128 0x2e
 1441 019e 01       		.byte	0x1
 1442 019f 3F       		.uleb128 0x3f
 1443 01a0 19       		.uleb128 0x19
 1444 01a1 03       		.uleb128 0x3
 1445 01a2 0E       		.uleb128 0xe
 1446 01a3 3A       		.uleb128 0x3a
 1447 01a4 0B       		.uleb128 0xb
 1448 01a5 3B       		.uleb128 0x3b
 1449 01a6 0B       		.uleb128 0xb
 1450 01a7 49       		.uleb128 0x49
 1451 01a8 13       		.uleb128 0x13
 1452 01a9 3C       		.uleb128 0x3c
 1453 01aa 19       		.uleb128 0x19
 1454 01ab 00       		.byte	0
 1455 01ac 00       		.byte	0
 1456 01ad 00       		.byte	0
 1457              		.section	.debug_loc,"",%progbits
 1458              	.Ldebug_loc0:
 1459              	.LLST0:
 1460 0000 00000000 		.4byte	.LVL2
 1461 0004 08000000 		.4byte	.LVL3
 1462 0008 0100     		.2byte	0x1
 1463 000a 50       		.byte	0x50
 1464 000b 08000000 		.4byte	.LVL3
 1465 000f 28000000 		.4byte	.LVL7
 1466 0013 0100     		.2byte	0x1
 1467 0015 54       		.byte	0x54
 1468 0016 28000000 		.4byte	.LVL7
 1469 001a 2C000000 		.4byte	.LFE124
 1470 001e 0400     		.2byte	0x4
 1471 0020 F3       		.byte	0xf3
 1472 0021 01       		.uleb128 0x1
 1473 0022 50       		.byte	0x50
 1474 0023 9F       		.byte	0x9f
 1475 0024 00000000 		.4byte	0
 1476 0028 00000000 		.4byte	0
 1477              	.LLST1:
 1478 002c 00000000 		.4byte	.LVL2
 1479 0030 22000000 		.4byte	.LVL5
 1480 0034 0200     		.2byte	0x2
 1481 0036 30       		.byte	0x30
 1482 0037 9F       		.byte	0x9f
ARM GAS  /var/folders/m4/4md61f0s1_g0rzfghffqnxvr0000gn/T//ccN7wrnn.s 			page 27


 1483 0038 22000000 		.4byte	.LVL5
 1484 003c 2C000000 		.4byte	.LFE124
 1485 0040 0100     		.2byte	0x1
 1486 0042 50       		.byte	0x50
 1487 0043 00000000 		.4byte	0
 1488 0047 00000000 		.4byte	0
 1489              	.LLST2:
 1490 004b 00000000 		.4byte	.LVL8
 1491 004f 0A000000 		.4byte	.LVL9
 1492 0053 0100     		.2byte	0x1
 1493 0055 50       		.byte	0x50
 1494 0056 0A000000 		.4byte	.LVL9
 1495 005a 0E000000 		.4byte	.LVL10
 1496 005e 0400     		.2byte	0x4
 1497 0060 70       		.byte	0x70
 1498 0061 00       		.sleb128 0
 1499 0062 20       		.byte	0x20
 1500 0063 9F       		.byte	0x9f
 1501 0064 0E000000 		.4byte	.LVL10
 1502 0068 34000000 		.4byte	.LFE125
 1503 006c 0400     		.2byte	0x4
 1504 006e F3       		.byte	0xf3
 1505 006f 01       		.uleb128 0x1
 1506 0070 50       		.byte	0x50
 1507 0071 9F       		.byte	0x9f
 1508 0072 00000000 		.4byte	0
 1509 0076 00000000 		.4byte	0
 1510              	.LLST3:
 1511 007a 00000000 		.4byte	.LVL12
 1512 007e 06000000 		.4byte	.LVL13
 1513 0082 0100     		.2byte	0x1
 1514 0084 50       		.byte	0x50
 1515 0085 06000000 		.4byte	.LVL13
 1516 0089 20000000 		.4byte	.LFE127
 1517 008d 0400     		.2byte	0x4
 1518 008f F3       		.byte	0xf3
 1519 0090 01       		.uleb128 0x1
 1520 0091 50       		.byte	0x50
 1521 0092 9F       		.byte	0x9f
 1522 0093 00000000 		.4byte	0
 1523 0097 00000000 		.4byte	0
 1524              	.LLST4:
 1525 009b 00000000 		.4byte	.LVL15
 1526 009f 06000000 		.4byte	.LVL16
 1527 00a3 0100     		.2byte	0x1
 1528 00a5 50       		.byte	0x50
 1529 00a6 06000000 		.4byte	.LVL16
 1530 00aa 20000000 		.4byte	.LFE128
 1531 00ae 0400     		.2byte	0x4
 1532 00b0 F3       		.byte	0xf3
 1533 00b1 01       		.uleb128 0x1
 1534 00b2 50       		.byte	0x50
 1535 00b3 9F       		.byte	0x9f
 1536 00b4 00000000 		.4byte	0
 1537 00b8 00000000 		.4byte	0
 1538              	.LLST5:
 1539 00bc 00000000 		.4byte	.LVL18
ARM GAS  /var/folders/m4/4md61f0s1_g0rzfghffqnxvr0000gn/T//ccN7wrnn.s 			page 28


 1540 00c0 04000000 		.4byte	.LVL19
 1541 00c4 0200     		.2byte	0x2
 1542 00c6 30       		.byte	0x30
 1543 00c7 9F       		.byte	0x9f
 1544 00c8 04000000 		.4byte	.LVL19
 1545 00cc 0A000000 		.4byte	.LVL20
 1546 00d0 0500     		.2byte	0x5
 1547 00d2 70       		.byte	0x70
 1548 00d3 00       		.sleb128 0
 1549 00d4 30       		.byte	0x30
 1550 00d5 2E       		.byte	0x2e
 1551 00d6 9F       		.byte	0x9f
 1552 00d7 00000000 		.4byte	0
 1553 00db 00000000 		.4byte	0
 1554              		.section	.debug_aranges,"",%progbits
 1555 0000 54000000 		.4byte	0x54
 1556 0004 0200     		.2byte	0x2
 1557 0006 00000000 		.4byte	.Ldebug_info0
 1558 000a 04       		.byte	0x4
 1559 000b 00       		.byte	0
 1560 000c 0000     		.2byte	0
 1561 000e 0000     		.2byte	0
 1562 0010 00000000 		.4byte	.LFB123
 1563 0014 1A000000 		.4byte	.LFE123-.LFB123
 1564 0018 00000000 		.4byte	.LFB124
 1565 001c 2C000000 		.4byte	.LFE124-.LFB124
 1566 0020 00000000 		.4byte	.LFB125
 1567 0024 34000000 		.4byte	.LFE125-.LFB125
 1568 0028 00000000 		.4byte	.LFB126
 1569 002c 0C000000 		.4byte	.LFE126-.LFB126
 1570 0030 00000000 		.4byte	.LFB127
 1571 0034 20000000 		.4byte	.LFE127-.LFB127
 1572 0038 00000000 		.4byte	.LFB128
 1573 003c 20000000 		.4byte	.LFE128-.LFB128
 1574 0040 00000000 		.4byte	.LFB129
 1575 0044 10000000 		.4byte	.LFE129-.LFB129
 1576 0048 00000000 		.4byte	.LFB130
 1577 004c 0C000000 		.4byte	.LFE130-.LFB130
 1578 0050 00000000 		.4byte	0
 1579 0054 00000000 		.4byte	0
 1580              		.section	.debug_ranges,"",%progbits
 1581              	.Ldebug_ranges0:
 1582 0000 00000000 		.4byte	.LFB123
 1583 0004 1A000000 		.4byte	.LFE123
 1584 0008 00000000 		.4byte	.LFB124
 1585 000c 2C000000 		.4byte	.LFE124
 1586 0010 00000000 		.4byte	.LFB125
 1587 0014 34000000 		.4byte	.LFE125
 1588 0018 00000000 		.4byte	.LFB126
 1589 001c 0C000000 		.4byte	.LFE126
 1590 0020 00000000 		.4byte	.LFB127
 1591 0024 20000000 		.4byte	.LFE127
 1592 0028 00000000 		.4byte	.LFB128
 1593 002c 20000000 		.4byte	.LFE128
 1594 0030 00000000 		.4byte	.LFB129
 1595 0034 10000000 		.4byte	.LFE129
 1596 0038 00000000 		.4byte	.LFB130
ARM GAS  /var/folders/m4/4md61f0s1_g0rzfghffqnxvr0000gn/T//ccN7wrnn.s 			page 29


 1597 003c 0C000000 		.4byte	.LFE130
 1598 0040 00000000 		.4byte	0
 1599 0044 00000000 		.4byte	0
 1600              		.section	.debug_line,"",%progbits
 1601              	.Ldebug_line0:
 1602 0000 66020000 		.section	.debug_str,"MS",%progbits,1
 1602      0200C001 
 1602      00000201 
 1602      FB0E0D00 
 1602      01010101 
 1603              	.LASF4:
 1604 0000 5F5F7569 		.ascii	"__uint8_t\000"
 1604      6E74385F 
 1604      7400
 1605              	.LASF28:
 1606 000a 61737365 		.ascii	"assert_param\000"
 1606      72745F70 
 1606      6172616D 
 1606      00
 1607              	.LASF37:
 1608 0017 43686962 		.ascii	"ChibiOS_16.1.4/ext/stdperiph_stm32f4/src/stm32f4xx_"
 1608      694F535F 
 1608      31362E31 
 1608      2E342F65 
 1608      78742F73 
 1609 004a 77776467 		.ascii	"wwdg.c\000"
 1609      2E6300
 1610              	.LASF5:
 1611 0051 5F5F696E 		.ascii	"__int32_t\000"
 1611      7433325F 
 1611      7400
 1612              	.LASF3:
 1613 005b 73686F72 		.ascii	"short unsigned int\000"
 1613      7420756E 
 1613      7369676E 
 1613      65642069 
 1613      6E7400
 1614              	.LASF21:
 1615 006e 46756E63 		.ascii	"FunctionalState\000"
 1615      74696F6E 
 1615      616C5374 
 1615      61746500 
 1616              	.LASF32:
 1617 007e 62697473 		.ascii	"bitstatus\000"
 1617      74617475 
 1617      7300
 1618              	.LASF13:
 1619 0088 696E7433 		.ascii	"int32_t\000"
 1619      325F7400 
 1620              	.LASF31:
 1621 0090 57574447 		.ascii	"WWDG_Enable\000"
 1621      5F456E61 
 1621      626C6500 
 1622              	.LASF7:
 1623 009c 5F5F7569 		.ascii	"__uint32_t\000"
 1623      6E743332 
 1623      5F7400
ARM GAS  /var/folders/m4/4md61f0s1_g0rzfghffqnxvr0000gn/T//ccN7wrnn.s 			page 30


 1624              	.LASF20:
 1625 00a7 454E4142 		.ascii	"ENABLE\000"
 1625      4C4500
 1626              	.LASF33:
 1627 00ae 57574447 		.ascii	"WWDG_EnableIT\000"
 1627      5F456E61 
 1627      626C6549 
 1627      5400
 1628              	.LASF18:
 1629 00bc 466C6167 		.ascii	"FlagStatus\000"
 1629      53746174 
 1629      757300
 1630              	.LASF39:
 1631 00c7 57574447 		.ascii	"WWDG_GetFlagStatus\000"
 1631      5F476574 
 1631      466C6167 
 1631      53746174 
 1631      757300
 1632              	.LASF8:
 1633 00da 6C6F6E67 		.ascii	"long unsigned int\000"
 1633      20756E73 
 1633      69676E65 
 1633      6420696E 
 1633      7400
 1634              	.LASF17:
 1635 00ec 52455345 		.ascii	"RESET\000"
 1635      5400
 1636              	.LASF40:
 1637 00f2 49544D5F 		.ascii	"ITM_RxBuffer\000"
 1637      52784275 
 1637      66666572 
 1637      00
 1638              	.LASF1:
 1639 00ff 756E7369 		.ascii	"unsigned char\000"
 1639      676E6564 
 1639      20636861 
 1639      7200
 1640              	.LASF26:
 1641 010d 57696E64 		.ascii	"WindowValue\000"
 1641      6F775661 
 1641      6C756500 
 1642              	.LASF30:
 1643 0119 436F756E 		.ascii	"Counter\000"
 1643      74657200 
 1644              	.LASF11:
 1645 0121 756E7369 		.ascii	"unsigned int\000"
 1645      676E6564 
 1645      20696E74 
 1645      00
 1646              	.LASF10:
 1647 012e 6C6F6E67 		.ascii	"long long unsigned int\000"
 1647      206C6F6E 
 1647      6720756E 
 1647      7369676E 
 1647      65642069 
 1648              	.LASF12:
 1649 0145 75696E74 		.ascii	"uint8_t\000"
ARM GAS  /var/folders/m4/4md61f0s1_g0rzfghffqnxvr0000gn/T//ccN7wrnn.s 			page 31


 1649      385F7400 
 1650              	.LASF23:
 1651 014d 57574447 		.ascii	"WWDG_SetPrescaler\000"
 1651      5F536574 
 1651      50726573 
 1651      63616C65 
 1651      7200
 1652              	.LASF0:
 1653 015f 7369676E 		.ascii	"signed char\000"
 1653      65642063 
 1653      68617200 
 1654              	.LASF29:
 1655 016b 57574447 		.ascii	"WWDG_SetCounter\000"
 1655      5F536574 
 1655      436F756E 
 1655      74657200 
 1656              	.LASF25:
 1657 017b 57574447 		.ascii	"WWDG_Prescaler\000"
 1657      5F507265 
 1657      7363616C 
 1657      657200
 1658              	.LASF15:
 1659 018a 73697A65 		.ascii	"sizetype\000"
 1659      74797065 
 1659      00
 1660              	.LASF9:
 1661 0193 6C6F6E67 		.ascii	"long long int\000"
 1661      206C6F6E 
 1661      6720696E 
 1661      7400
 1662              	.LASF16:
 1663 01a1 57574447 		.ascii	"WWDG_TypeDef\000"
 1663      5F547970 
 1663      65446566 
 1663      00
 1664              	.LASF27:
 1665 01ae 746D7072 		.ascii	"tmpreg\000"
 1665      656700
 1666              	.LASF2:
 1667 01b5 73686F72 		.ascii	"short int\000"
 1667      7420696E 
 1667      7400
 1668              	.LASF38:
 1669 01bf 2F557365 		.ascii	"/Users/raphael/Documents/pcb-quadrotor/code\000"
 1669      72732F72 
 1669      61706861 
 1669      656C2F44 
 1669      6F63756D 
 1670              	.LASF34:
 1671 01eb 57574447 		.ascii	"WWDG_ClearFlag\000"
 1671      5F436C65 
 1671      6172466C 
 1671      616700
 1672              	.LASF36:
 1673 01fa 474E5520 		.ascii	"GNU C 4.9.3 20150529 (release) [ARM/embedded-4_9-br"
 1673      4320342E 
 1673      392E3320 
ARM GAS  /var/folders/m4/4md61f0s1_g0rzfghffqnxvr0000gn/T//ccN7wrnn.s 			page 32


 1673      32303135 
 1673      30353239 
 1674 022d 616E6368 		.ascii	"anch revision 224288] -mcpu=cortex-m4 -mfloat-abi=h"
 1674      20726576 
 1674      6973696F 
 1674      6E203232 
 1674      34323838 
 1675 0260 61726420 		.ascii	"ard -mfpu=fpv4-sp-d16 -mno-thumb-interwork -mthumb "
 1675      2D6D6670 
 1675      753D6670 
 1675      76342D73 
 1675      702D6431 
 1676 0293 2D676764 		.ascii	"-ggdb -O2 -std=gnu99 -fomit-frame-pointer -falign-f"
 1676      62202D4F 
 1676      32202D73 
 1676      74643D67 
 1676      6E753939 
 1677 02c6 756E6374 		.ascii	"unctions=16 -ffunction-sections -fdata-sections -fn"
 1677      696F6E73 
 1677      3D313620 
 1677      2D666675 
 1677      6E637469 
 1678 02f9 6F2D636F 		.ascii	"o-common -fsingle-precision-constant\000"
 1678      6D6D6F6E 
 1678      202D6673 
 1678      696E676C 
 1678      652D7072 
 1679              	.LASF24:
 1680 031e 57574447 		.ascii	"WWDG_SetWindowValue\000"
 1680      5F536574 
 1680      57696E64 
 1680      6F775661 
 1680      6C756500 
 1681              	.LASF22:
 1682 0332 57574447 		.ascii	"WWDG_DeInit\000"
 1682      5F446549 
 1682      6E697400 
 1683              	.LASF14:
 1684 033e 75696E74 		.ascii	"uint32_t\000"
 1684      33325F74 
 1684      00
 1685              	.LASF6:
 1686 0347 6C6F6E67 		.ascii	"long int\000"
 1686      20696E74 
 1686      00
 1687              	.LASF19:
 1688 0350 44495341 		.ascii	"DISABLE\000"
 1688      424C4500 
 1689              	.LASF35:
 1690 0358 5243435F 		.ascii	"RCC_APB1PeriphResetCmd\000"
 1690      41504231 
 1690      50657269 
 1690      70685265 
 1690      73657443 
 1691              		.ident	"GCC: (GNU Tools for ARM Embedded Processors) 4.9.3 20150529 (release) [ARM/embedded-4_9-br
ARM GAS  /var/folders/m4/4md61f0s1_g0rzfghffqnxvr0000gn/T//ccN7wrnn.s 			page 33


DEFINED SYMBOLS
                            *ABS*:0000000000000000 stm32f4xx_wwdg.c
/var/folders/m4/4md61f0s1_g0rzfghffqnxvr0000gn/T//ccN7wrnn.s:21     .text.WWDG_DeInit:0000000000000000 $t
/var/folders/m4/4md61f0s1_g0rzfghffqnxvr0000gn/T//ccN7wrnn.s:27     .text.WWDG_DeInit:0000000000000000 WWDG_DeInit
/var/folders/m4/4md61f0s1_g0rzfghffqnxvr0000gn/T//ccN7wrnn.s:58     .text.WWDG_SetPrescaler:0000000000000000 $t
/var/folders/m4/4md61f0s1_g0rzfghffqnxvr0000gn/T//ccN7wrnn.s:64     .text.WWDG_SetPrescaler:0000000000000000 WWDG_SetPrescaler
/var/folders/m4/4md61f0s1_g0rzfghffqnxvr0000gn/T//ccN7wrnn.s:102    .text.WWDG_SetPrescaler:0000000000000028 $d
/var/folders/m4/4md61f0s1_g0rzfghffqnxvr0000gn/T//ccN7wrnn.s:107    .text.WWDG_SetWindowValue:0000000000000000 $t
/var/folders/m4/4md61f0s1_g0rzfghffqnxvr0000gn/T//ccN7wrnn.s:113    .text.WWDG_SetWindowValue:0000000000000000 WWDG_SetWindowValue
/var/folders/m4/4md61f0s1_g0rzfghffqnxvr0000gn/T//ccN7wrnn.s:164    .text.WWDG_SetWindowValue:0000000000000030 $d
/var/folders/m4/4md61f0s1_g0rzfghffqnxvr0000gn/T//ccN7wrnn.s:169    .text.WWDG_EnableIT:0000000000000000 $t
/var/folders/m4/4md61f0s1_g0rzfghffqnxvr0000gn/T//ccN7wrnn.s:175    .text.WWDG_EnableIT:0000000000000000 WWDG_EnableIT
/var/folders/m4/4md61f0s1_g0rzfghffqnxvr0000gn/T//ccN7wrnn.s:190    .text.WWDG_EnableIT:0000000000000008 $d
/var/folders/m4/4md61f0s1_g0rzfghffqnxvr0000gn/T//ccN7wrnn.s:195    .text.WWDG_SetCounter:0000000000000000 $t
/var/folders/m4/4md61f0s1_g0rzfghffqnxvr0000gn/T//ccN7wrnn.s:201    .text.WWDG_SetCounter:0000000000000000 WWDG_SetCounter
/var/folders/m4/4md61f0s1_g0rzfghffqnxvr0000gn/T//ccN7wrnn.s:231    .text.WWDG_SetCounter:000000000000001c $d
/var/folders/m4/4md61f0s1_g0rzfghffqnxvr0000gn/T//ccN7wrnn.s:236    .text.WWDG_Enable:0000000000000000 $t
/var/folders/m4/4md61f0s1_g0rzfghffqnxvr0000gn/T//ccN7wrnn.s:242    .text.WWDG_Enable:0000000000000000 WWDG_Enable
/var/folders/m4/4md61f0s1_g0rzfghffqnxvr0000gn/T//ccN7wrnn.s:272    .text.WWDG_Enable:000000000000001c $d
/var/folders/m4/4md61f0s1_g0rzfghffqnxvr0000gn/T//ccN7wrnn.s:277    .text.WWDG_GetFlagStatus:0000000000000000 $t
/var/folders/m4/4md61f0s1_g0rzfghffqnxvr0000gn/T//ccN7wrnn.s:283    .text.WWDG_GetFlagStatus:0000000000000000 WWDG_GetFlagStatus
/var/folders/m4/4md61f0s1_g0rzfghffqnxvr0000gn/T//ccN7wrnn.s:304    .text.WWDG_GetFlagStatus:000000000000000c $d
/var/folders/m4/4md61f0s1_g0rzfghffqnxvr0000gn/T//ccN7wrnn.s:309    .text.WWDG_ClearFlag:0000000000000000 $t
/var/folders/m4/4md61f0s1_g0rzfghffqnxvr0000gn/T//ccN7wrnn.s:315    .text.WWDG_ClearFlag:0000000000000000 WWDG_ClearFlag
/var/folders/m4/4md61f0s1_g0rzfghffqnxvr0000gn/T//ccN7wrnn.s:330    .text.WWDG_ClearFlag:0000000000000008 $d
                     .debug_frame:0000000000000010 $d

UNDEFINED SYMBOLS
RCC_APB1PeriphResetCmd
assert_param
