ARM GAS  /var/folders/m4/4md61f0s1_g0rzfghffqnxvr0000gn/T//ccN7wrnn.s 			page 1


   1              		.syntax unified
   2              		.cpu cortex-m4
   3              		.eabi_attribute 27, 1
   4              		.eabi_attribute 28, 1
   5              		.fpu fpv4-sp-d16
   6              		.eabi_attribute 20, 1
   7              		.eabi_attribute 21, 1
   8              		.eabi_attribute 23, 3
   9              		.eabi_attribute 24, 1
  10              		.eabi_attribute 25, 1
  11              		.eabi_attribute 26, 1
  12              		.eabi_attribute 30, 2
  13              		.eabi_attribute 34, 1
  14              		.eabi_attribute 18, 4
  15              		.thumb
  16              		.file	"stm32f4xx_wwdg.c"
  17              		.text
  18              	.Ltext0:
  19              		.cfi_sections	.debug_frame
  20              		.section	.text.WWDG_DeInit,"ax",%progbits
  21              		.align	2
  22              		.p2align 4,,15
  23              		.global	WWDG_DeInit
  24              		.thumb
  25              		.thumb_func
  26              		.type	WWDG_DeInit, %function
  27              	WWDG_DeInit:
  28              	.LFB123:
  29              		.file 1 "ChibiOS_16.1.4/ext/stdperiph_stm32f4/src/stm32f4xx_wwdg.c"
  30              		.loc 1 139 0
  31              		.cfi_startproc
  32              		@ args = 0, pretend = 0, frame = 0
  33              		@ frame_needed = 0, uses_anonymous_args = 0
  34 0000 08B5     		push	{r3, lr}
  35              		.cfi_def_cfa_offset 8
  36              		.cfi_offset 3, -8
  37              		.cfi_offset 14, -4
  38              		.loc 1 140 0
  39 0002 4FF40060 		mov	r0, #2048
  40 0006 0121     		movs	r1, #1
  41 0008 FFF7FEFF 		bl	RCC_APB1PeriphResetCmd
  42              	.LVL0:
  43              		.loc 1 141 0
  44 000c 4FF40060 		mov	r0, #2048
  45 0010 0021     		movs	r1, #0
  46              		.loc 1 142 0
  47 0012 BDE80840 		pop	{r3, lr}
  48              		.cfi_restore 14
  49              		.cfi_restore 3
  50              		.cfi_def_cfa_offset 0
  51              		.loc 1 141 0
  52 0016 FFF7FEBF 		b	RCC_APB1PeriphResetCmd
  53              	.LVL1:
  54              		.cfi_endproc
  55              	.LFE123:
  56              		.size	WWDG_DeInit, .-WWDG_DeInit
  57 001a 00BF     		.section	.text.WWDG_SetPrescaler,"ax",%progbits
ARM GAS  /var/folders/m4/4md61f0s1_g0rzfghffqnxvr0000gn/T//ccN7wrnn.s 			page 2


  58              		.align	2
  59              		.p2align 4,,15
  60              		.global	WWDG_SetPrescaler
  61              		.thumb
  62              		.thumb_func
  63              		.type	WWDG_SetPrescaler, %function
  64              	WWDG_SetPrescaler:
  65              	.LFB124:
  66              		.loc 1 155 0
  67              		.cfi_startproc
  68              		@ args = 0, pretend = 0, frame = 0
  69              		@ frame_needed = 0, uses_anonymous_args = 0
  70              	.LVL2:
  71 0000 10B5     		push	{r4, lr}
  72              		.cfi_def_cfa_offset 8
  73              		.cfi_offset 4, -8
  74              		.cfi_offset 14, -4
  75              		.loc 1 155 0
  76 0002 0446     		mov	r4, r0
  77              		.loc 1 158 0
  78 0004 30F08000 		bics	r0, r0, #128
  79              	.LVL3:
  80 0008 17BF     		itett	ne
  81 000a A0F58070 		subne	r0, r0, #256
  82 000e 0120     		moveq	r0, #1
  83 0010 B0FA80F0 		clzne	r0, r0
  84 0014 4009     		lsrne	r0, r0, #5
  85 0016 FFF7FEFF 		bl	assert_param
  86              	.LVL4:
  87              		.loc 1 160 0
  88 001a 034B     		ldr	r3, .L7
  89 001c 5868     		ldr	r0, [r3, #4]
  90 001e 20F4C070 		bic	r0, r0, #384
  91              	.LVL5:
  92              		.loc 1 162 0
  93 0022 2043     		orrs	r0, r0, r4
  94              	.LVL6:
  95              		.loc 1 164 0
  96 0024 5860     		str	r0, [r3, #4]
  97 0026 10BD     		pop	{r4, pc}
  98              	.LVL7:
  99              	.L8:
 100              		.align	2
 101              	.L7:
 102 0028 002C0040 		.word	1073753088
 103              		.cfi_endproc
 104              	.LFE124:
 105              		.size	WWDG_SetPrescaler, .-WWDG_SetPrescaler
 106              		.section	.text.WWDG_SetWindowValue,"ax",%progbits
 107              		.align	2
 108              		.p2align 4,,15
 109              		.global	WWDG_SetWindowValue
 110              		.thumb
 111              		.thumb_func
 112              		.type	WWDG_SetWindowValue, %function
 113              	WWDG_SetWindowValue:
 114              	.LFB125:
ARM GAS  /var/folders/m4/4md61f0s1_g0rzfghffqnxvr0000gn/T//ccN7wrnn.s 			page 3


 115              		.loc 1 174 0
 116              		.cfi_startproc
 117              		@ args = 0, pretend = 0, frame = 8
 118              		@ frame_needed = 0, uses_anonymous_args = 0
 119              	.LVL8:
 120 0000 10B5     		push	{r4, lr}
 121              		.cfi_def_cfa_offset 8
 122              		.cfi_offset 4, -8
 123              		.cfi_offset 14, -4
 124 0002 0446     		mov	r4, r0
 125              		.loc 1 178 0
 126 0004 40B2     		sxtb	r0, r0
 127              		.loc 1 174 0
 128 0006 82B0     		sub	sp, sp, #8
 129              		.cfi_def_cfa_offset 16
 130              		.loc 1 178 0
 131 0008 C043     		mvns	r0, r0
 132              	.LVL9:
 133              		.loc 1 175 0
 134 000a 0023     		movs	r3, #0
 135              		.loc 1 178 0
 136 000c C00F     		lsrs	r0, r0, #31
 137              	.LVL10:
 138              		.loc 1 175 0
 139 000e 0193     		str	r3, [sp, #4]
 140              		.loc 1 178 0
 141 0010 FFF7FEFF 		bl	assert_param
 142              	.LVL11:
 143              		.loc 1 181 0
 144 0014 064A     		ldr	r2, .L11
 145 0016 5368     		ldr	r3, [r2, #4]
 146 0018 23F07F03 		bic	r3, r3, #127
 147 001c 0193     		str	r3, [sp, #4]
 148              		.loc 1 184 0
 149 001e 019B     		ldr	r3, [sp, #4]
 150 0020 04F07F04 		and	r4, r4, #127
 151 0024 1C43     		orrs	r4, r4, r3
 152 0026 0194     		str	r4, [sp, #4]
 153              		.loc 1 187 0
 154 0028 019B     		ldr	r3, [sp, #4]
 155 002a 5360     		str	r3, [r2, #4]
 156              		.loc 1 188 0
 157 002c 02B0     		add	sp, sp, #8
 158              		.cfi_def_cfa_offset 8
 159              		@ sp needed
 160 002e 10BD     		pop	{r4, pc}
 161              	.L12:
 162              		.align	2
 163              	.L11:
 164 0030 002C0040 		.word	1073753088
 165              		.cfi_endproc
 166              	.LFE125:
 167              		.size	WWDG_SetWindowValue, .-WWDG_SetWindowValue
 168              		.section	.text.WWDG_EnableIT,"ax",%progbits
 169              		.align	2
 170              		.p2align 4,,15
 171              		.global	WWDG_EnableIT
ARM GAS  /var/folders/m4/4md61f0s1_g0rzfghffqnxvr0000gn/T//ccN7wrnn.s 			page 4


 172              		.thumb
 173              		.thumb_func
 174              		.type	WWDG_EnableIT, %function
 175              	WWDG_EnableIT:
 176              	.LFB126:
 177              		.loc 1 197 0
 178              		.cfi_startproc
 179              		@ args = 0, pretend = 0, frame = 0
 180              		@ frame_needed = 0, uses_anonymous_args = 0
 181              		@ link register save eliminated.
 182              		.loc 1 198 0
 183 0000 014B     		ldr	r3, .L14
 184 0002 0122     		movs	r2, #1
 185 0004 1A60     		str	r2, [r3]
 186 0006 7047     		bx	lr
 187              	.L15:
 188              		.align	2
 189              	.L14:
 190 0008 A4800542 		.word	1107656868
 191              		.cfi_endproc
 192              	.LFE126:
 193              		.size	WWDG_EnableIT, .-WWDG_EnableIT
 194              		.section	.text.WWDG_SetCounter,"ax",%progbits
 195              		.align	2
 196              		.p2align 4,,15
 197              		.global	WWDG_SetCounter
 198              		.thumb
 199              		.thumb_func
 200              		.type	WWDG_SetCounter, %function
 201              	WWDG_SetCounter:
 202              	.LFB127:
 203              		.loc 1 209 0
 204              		.cfi_startproc
 205              		@ args = 0, pretend = 0, frame = 0
 206              		@ frame_needed = 0, uses_anonymous_args = 0
 207              	.LVL12:
 208 0000 10B5     		push	{r4, lr}
 209              		.cfi_def_cfa_offset 8
 210              		.cfi_offset 4, -8
 211              		.cfi_offset 14, -4
 212              		.loc 1 209 0
 213 0002 0446     		mov	r4, r0
 214              		.loc 1 211 0
 215 0004 4038     		subs	r0, r0, #64
 216              	.LVL13:
 217 0006 3F28     		cmp	r0, #63
 218 0008 8CBF     		ite	hi
 219 000a 0020     		movhi	r0, #0
 220 000c 0120     		movls	r0, #1
 221 000e FFF7FEFF 		bl	assert_param
 222              	.LVL14:
 223              		.loc 1 214 0
 224 0012 024B     		ldr	r3, .L18
 225 0014 04F07F04 		and	r4, r4, #127
 226 0018 1C60     		str	r4, [r3]
 227 001a 10BD     		pop	{r4, pc}
 228              	.L19:
ARM GAS  /var/folders/m4/4md61f0s1_g0rzfghffqnxvr0000gn/T//ccN7wrnn.s 			page 5


 229              		.align	2
 230              	.L18:
 231 001c 002C0040 		.word	1073753088
 232              		.cfi_endproc
 233              	.LFE127:
 234              		.size	WWDG_SetCounter, .-WWDG_SetCounter
 235              		.section	.text.WWDG_Enable,"ax",%progbits
 236              		.align	2
 237              		.p2align 4,,15
 238              		.global	WWDG_Enable
 239              		.thumb
 240              		.thumb_func
 241              		.type	WWDG_Enable, %function
 242              	WWDG_Enable:
 243              	.LFB128:
 244              		.loc 1 240 0
 245              		.cfi_startproc
 246              		@ args = 0, pretend = 0, frame = 0
 247              		@ frame_needed = 0, uses_anonymous_args = 0
 248              	.LVL15:
 249 0000 10B5     		push	{r4, lr}
 250              		.cfi_def_cfa_offset 8
 251              		.cfi_offset 4, -8
 252              		.cfi_offset 14, -4
 253              		.loc 1 240 0
 254 0002 0446     		mov	r4, r0
 255              		.loc 1 242 0
 256 0004 4038     		subs	r0, r0, #64
 257              	.LVL16:
 258 0006 3F28     		cmp	r0, #63
 259 0008 8CBF     		ite	hi
 260 000a 0020     		movhi	r0, #0
 261 000c 0120     		movls	r0, #1
 262 000e FFF7FEFF 		bl	assert_param
 263              	.LVL17:
 264              		.loc 1 243 0
 265 0012 024B     		ldr	r3, .L22
 266 0014 44F08004 		orr	r4, r4, #128
 267 0018 1C60     		str	r4, [r3]
 268 001a 10BD     		pop	{r4, pc}
 269              	.L23:
 270              		.align	2
 271              	.L22:
 272 001c 002C0040 		.word	1073753088
 273              		.cfi_endproc
 274              	.LFE128:
 275              		.size	WWDG_Enable, .-WWDG_Enable
 276              		.section	.text.WWDG_GetFlagStatus,"ax",%progbits
 277              		.align	2
 278              		.p2align 4,,15
 279              		.global	WWDG_GetFlagStatus
 280              		.thumb
 281              		.thumb_func
 282              		.type	WWDG_GetFlagStatus, %function
 283              	WWDG_GetFlagStatus:
 284              	.LFB129:
 285              		.loc 1 267 0
ARM GAS  /var/folders/m4/4md61f0s1_g0rzfghffqnxvr0000gn/T//ccN7wrnn.s 			page 6


 286              		.cfi_startproc
 287              		@ args = 0, pretend = 0, frame = 0
 288              		@ frame_needed = 0, uses_anonymous_args = 0
 289              		@ link register save eliminated.
 290              	.LVL18:
 291              		.loc 1 270 0
 292 0000 024B     		ldr	r3, .L25
 293 0002 9868     		ldr	r0, [r3, #8]
 294              	.LVL19:
 295              		.loc 1 279 0
 296 0004 0030     		adds	r0, r0, #0
 297 0006 18BF     		it	ne
 298 0008 0120     		movne	r0, #1
 299              	.LVL20:
 300 000a 7047     		bx	lr
 301              	.L26:
 302              		.align	2
 303              	.L25:
 304 000c 002C0040 		.word	1073753088
 305              		.cfi_endproc
 306              	.LFE129:
 307              		.size	WWDG_GetFlagStatus, .-WWDG_GetFlagStatus
 308              		.section	.text.WWDG_ClearFlag,"ax",%progbits
 309              		.align	2
 310              		.p2align 4,,15
 311              		.global	WWDG_ClearFlag
 312              		.thumb
 313              		.thumb_func
 314              		.type	WWDG_ClearFlag, %function
 315              	WWDG_ClearFlag:
 316              	.LFB130:
 317              		.loc 1 287 0
 318              		.cfi_startproc
 319              		@ args = 0, pretend = 0, frame = 0
 320              		@ frame_needed = 0, uses_anonymous_args = 0
 321              		@ link register save eliminated.
 322              		.loc 1 288 0
 323 0000 014B     		ldr	r3, .L28
 324 0002 0022     		movs	r2, #0
 325 0004 9A60     		str	r2, [r3, #8]
 326 0006 7047     		bx	lr
 327              	.L29:
 328              		.align	2
 329              	.L28:
 330 0008 002C0040 		.word	1073753088
 331              		.cfi_endproc
 332              	.LFE130:
 333              		.size	WWDG_ClearFlag, .-WWDG_ClearFlag
 334              		.text
 335              	.Letext0:
 336              		.file 2 "/usr/local/Cellar/gcc-arm-none-eabi-49/20150609/arm-none-eabi/include/machine/_default_ty
 337              		.file 3 "/usr/local/Cellar/gcc-arm-none-eabi-49/20150609/arm-none-eabi/include/sys/_stdint.h"
 338              		.file 4 "ChibiOS_16.1.4/os/ext/CMSIS/ST/STM32F4xx/stm32f446xx.h"
 339              		.file 5 "ChibiOS_16.1.4/os/ext/CMSIS/ST/STM32F4xx/stm32f4xx.h"
 340              		.file 6 "ChibiOS_16.1.4/ext/stdperiph_stm32f4/inc/stm32f4xx_rcc.h"
 341              		.file 7 "ChibiOS_16.1.4/os/ext/CMSIS/include/core_cm4.h"