ARM GAS  /var/folders/m4/4md61f0s1_g0rzfghffqnxvr0000gn/T//ccT17VZ9.s 			page 1


   1              		.syntax unified
   2              		.cpu cortex-m4
   3              		.eabi_attribute 27, 1
   4              		.eabi_attribute 28, 1
   5              		.fpu fpv4-sp-d16
   6              		.eabi_attribute 20, 1
   7              		.eabi_attribute 21, 1
   8              		.eabi_attribute 23, 3
   9              		.eabi_attribute 24, 1
  10              		.eabi_attribute 25, 1
  11              		.eabi_attribute 26, 1
  12              		.eabi_attribute 30, 2
  13              		.eabi_attribute 34, 1
  14              		.eabi_attribute 18, 4
  15              		.thumb
  16              		.file	"stm32f4xx_rcc.c"
  17              		.text
  18              	.Ltext0:
  19              		.cfi_sections	.debug_frame
  20              		.section	.text.RCC_DeInit,"ax",%progbits
  21              		.align	2
  22              		.p2align 4,,15
  23              		.global	RCC_DeInit
  24              		.thumb
  25              		.thumb_func
  26              		.type	RCC_DeInit, %function
  27              	RCC_DeInit:
  28              	.LFB123:
  29              		.file 1 "ChibiOS_16.1.4/ext/stdperiph_stm32f4/src/stm32f4xx_rcc.c"
  30              		.loc 1 246 0
  31              		.cfi_startproc
  32              		@ args = 0, pretend = 0, frame = 0
  33              		@ frame_needed = 0, uses_anonymous_args = 0
  34              		@ link register save eliminated.
  35              		.loc 1 248 0
  36 0000 0F4B     		ldr	r3, .L3
  37              		.loc 1 266 0
  38 0002 1048     		ldr	r0, .L3+4
  39              		.loc 1 248 0
  40 0004 1A68     		ldr	r2, [r3]
  41              		.loc 1 251 0
  42 0006 0021     		movs	r1, #0
  43              		.loc 1 248 0
  44 0008 42F00102 		orr	r2, r2, #1
  45              		.loc 1 246 0
  46 000c 30B4     		push	{r4, r5}
  47              		.cfi_def_cfa_offset 8
  48              		.cfi_offset 4, -8
  49              		.cfi_offset 5, -4
  50              		.loc 1 248 0
  51 000e 1A60     		str	r2, [r3]
  52              		.loc 1 251 0
  53 0010 9960     		str	r1, [r3, #8]
  54              		.loc 1 254 0
  55 0012 1A68     		ldr	r2, [r3]
  56              		.loc 1 257 0
  57 0014 0C4D     		ldr	r5, .L3+8
ARM GAS  /var/folders/m4/4md61f0s1_g0rzfghffqnxvr0000gn/T//ccT17VZ9.s 			page 2


  58              		.loc 1 261 0
  59 0016 0D4C     		ldr	r4, .L3+12
  60              		.loc 1 254 0
  61 0018 22F0A852 		bic	r2, r2, #352321536
  62 001c 22F41022 		bic	r2, r2, #589824
  63 0020 1A60     		str	r2, [r3]
  64              		.loc 1 257 0
  65 0022 5D60     		str	r5, [r3, #4]
  66              		.loc 1 261 0
  67 0024 C3F88440 		str	r4, [r3, #132]
  68              		.loc 1 266 0
  69 0028 C3F88800 		str	r0, [r3, #136]
  70              		.loc 1 270 0
  71 002c 1A68     		ldr	r2, [r3]
  72 002e 22F48022 		bic	r2, r2, #262144
  73 0032 1A60     		str	r2, [r3]
  74              		.loc 1 282 0
  75 0034 30BC     		pop	{r4, r5}
  76              		.cfi_restore 5
  77              		.cfi_restore 4
  78              		.cfi_def_cfa_offset 0
  79              		.loc 1 273 0
  80 0036 D960     		str	r1, [r3, #12]
  81              		.loc 1 276 0
  82 0038 C3F88C10 		str	r1, [r3, #140]
  83              		.loc 1 282 0
  84 003c 7047     		bx	lr
  85              	.L4:
  86 003e 00BF     		.align	2
  87              	.L3:
  88 0040 00380240 		.word	1073887232
  89 0044 00300024 		.word	603992064
  90 0048 10300024 		.word	603992080
  91 004c 00300020 		.word	536883200
  92              		.cfi_endproc
  93              	.LFE123:
  94              		.size	RCC_DeInit, .-RCC_DeInit
  95              		.section	.text.RCC_HSEConfig,"ax",%progbits
  96              		.align	2
  97              		.p2align 4,,15
  98              		.global	RCC_HSEConfig
  99              		.thumb
 100              		.thumb_func
 101              		.type	RCC_HSEConfig, %function
 102              	RCC_HSEConfig:
 103              	.LFB124:
 104              		.loc 1 305 0
 105              		.cfi_startproc
 106              		@ args = 0, pretend = 0, frame = 0
 107              		@ frame_needed = 0, uses_anonymous_args = 0
 108              		@ link register save eliminated.
 109              	.LVL0:
 110              		.loc 1 310 0
 111 0000 024B     		ldr	r3, .L6
 112 0002 0022     		movs	r2, #0
 113 0004 1A70     		strb	r2, [r3]
 114              		.loc 1 313 0
ARM GAS  /var/folders/m4/4md61f0s1_g0rzfghffqnxvr0000gn/T//ccT17VZ9.s 			page 3


 115 0006 1870     		strb	r0, [r3]
 116 0008 7047     		bx	lr
 117              	.L7:
 118 000a 00BF     		.align	2
 119              	.L6:
 120 000c 02380240 		.word	1073887234
 121              		.cfi_endproc
 122              	.LFE124:
 123              		.size	RCC_HSEConfig, .-RCC_HSEConfig
 124              		.section	.text.RCC_WaitForHSEStartUp,"ax",%progbits
 125              		.align	2
 126              		.p2align 4,,15
 127              		.global	RCC_WaitForHSEStartUp
 128              		.thumb
 129              		.thumb_func
 130              		.type	RCC_WaitForHSEStartUp, %function
 131              	RCC_WaitForHSEStartUp:
 132              	.LFB125:
 133              		.loc 1 329 0
 134              		.cfi_startproc
 135              		@ args = 0, pretend = 0, frame = 8
 136              		@ frame_needed = 0, uses_anonymous_args = 0
 137              		@ link register save eliminated.
 138 0000 82B0     		sub	sp, sp, #8
 139              		.cfi_def_cfa_offset 8
 140              		.loc 1 330 0
 141 0002 0023     		movs	r3, #0
 142              	.LBB6:
 143              	.LBB7:
 144              		.loc 1 2858 0
 145 0004 0A4A     		ldr	r2, .L19
 146              	.LBE7:
 147              	.LBE6:
 148              		.loc 1 330 0
 149 0006 0193     		str	r3, [sp, #4]
 150              	.LVL1:
 151 0008 02E0     		b	.L12
 152              	.LVL2:
 153              	.L18:
 154              		.loc 1 338 0
 155 000a B3F5A04F 		cmp	r3, #20480
 156 000e 08D0     		beq	.L11
 157              	.LVL3:
 158              	.L12:
 159              	.LBB10:
 160              	.LBB8:
 161              		.loc 1 2858 0 discriminator 2
 162 0010 1368     		ldr	r3, [r2]
 163              	.LVL4:
 164              		.loc 1 2871 0 discriminator 2
 165 0012 13F4003F 		tst	r3, #131072
 166              	.LBE8:
 167              	.LBE10:
 168              		.loc 1 337 0 discriminator 2
 169 0016 019B     		ldr	r3, [sp, #4]
 170              	.LVL5:
 171 0018 03F10103 		add	r3, r3, #1
ARM GAS  /var/folders/m4/4md61f0s1_g0rzfghffqnxvr0000gn/T//ccT17VZ9.s 			page 4


 172 001c 0193     		str	r3, [sp, #4]
 173              		.loc 1 338 0 discriminator 2
 174 001e 019B     		ldr	r3, [sp, #4]
 175              	.LBB11:
 176              	.LBB9:
 177              		.loc 1 2871 0 discriminator 2
 178 0020 F3D0     		beq	.L18
 179              	.L11:
 180              	.LVL6:
 181              	.LBE9:
 182              	.LBE11:
 183              	.LBB12:
 184              	.LBB13:
 185              		.loc 1 2858 0
 186 0022 034B     		ldr	r3, .L19
 187 0024 1868     		ldr	r0, [r3]
 188              	.LVL7:
 189              	.LBE13:
 190              	.LBE12:
 191              		.loc 1 348 0
 192 0026 C0F34040 		ubfx	r0, r0, #17, #1
 193              	.LVL8:
 194              		.loc 1 349 0
 195 002a 02B0     		add	sp, sp, #8
 196              		.cfi_def_cfa_offset 0
 197              		@ sp needed
 198 002c 7047     		bx	lr
 199              	.L20:
 200 002e 00BF     		.align	2
 201              	.L19:
 202 0030 00380240 		.word	1073887232
 203              		.cfi_endproc
 204              	.LFE125:
 205              		.size	RCC_WaitForHSEStartUp, .-RCC_WaitForHSEStartUp
 206              		.section	.text.RCC_AdjustHSICalibrationValue,"ax",%progbits
 207              		.align	2
 208              		.p2align 4,,15
 209              		.global	RCC_AdjustHSICalibrationValue
 210              		.thumb
 211              		.thumb_func
 212              		.type	RCC_AdjustHSICalibrationValue, %function
 213              	RCC_AdjustHSICalibrationValue:
 214              	.LFB126:
 215              		.loc 1 360 0
 216              		.cfi_startproc
 217              		@ args = 0, pretend = 0, frame = 0
 218              		@ frame_needed = 0, uses_anonymous_args = 0
 219              		@ link register save eliminated.
 220              	.LVL9:
 221              		.loc 1 365 0
 222 0000 034A     		ldr	r2, .L22
 223 0002 1368     		ldr	r3, [r2]
 224              	.LVL10:
 225              		.loc 1 368 0
 226 0004 23F0F803 		bic	r3, r3, #248
 227              	.LVL11:
 228              		.loc 1 371 0
ARM GAS  /var/folders/m4/4md61f0s1_g0rzfghffqnxvr0000gn/T//ccT17VZ9.s 			page 5


 229 0008 43EAC000 		orr	r0, r3, r0, lsl #3
 230              	.LVL12:
 231              		.loc 1 374 0
 232 000c 1060     		str	r0, [r2]
 233 000e 7047     		bx	lr
 234              	.L23:
 235              		.align	2
 236              	.L22:
 237 0010 00380240 		.word	1073887232
 238              		.cfi_endproc
 239              	.LFE126:
 240              		.size	RCC_AdjustHSICalibrationValue, .-RCC_AdjustHSICalibrationValue
 241              		.section	.text.RCC_HSICmd,"ax",%progbits
 242              		.align	2
 243              		.p2align 4,,15
 244              		.global	RCC_HSICmd
 245              		.thumb
 246              		.thumb_func
 247              		.type	RCC_HSICmd, %function
 248              	RCC_HSICmd:
 249              	.LFB127:
 250              		.loc 1 396 0
 251              		.cfi_startproc
 252              		@ args = 0, pretend = 0, frame = 0
 253              		@ frame_needed = 0, uses_anonymous_args = 0
 254              		@ link register save eliminated.
 255              	.LVL13:
 256              		.loc 1 400 0
 257 0000 014B     		ldr	r3, .L25
 258 0002 1860     		str	r0, [r3]
 259 0004 7047     		bx	lr
 260              	.L26:
 261 0006 00BF     		.align	2
 262              	.L25:
 263 0008 00004742 		.word	1111949312
 264              		.cfi_endproc
 265              	.LFE127:
 266              		.size	RCC_HSICmd, .-RCC_HSICmd
 267              		.section	.text.RCC_LSEConfig,"ax",%progbits
 268              		.align	2
 269              		.p2align 4,,15
 270              		.global	RCC_LSEConfig
 271              		.thumb
 272              		.thumb_func
 273              		.type	RCC_LSEConfig, %function
 274              	RCC_LSEConfig:
 275              	.LFB128:
 276              		.loc 1 421 0
 277              		.cfi_startproc
 278              		@ args = 0, pretend = 0, frame = 0
 279              		@ frame_needed = 0, uses_anonymous_args = 0
 280              		@ link register save eliminated.
 281              	.LVL14:
 282              		.loc 1 427 0
 283 0000 064B     		ldr	r3, .L32
 284 0002 0022     		movs	r2, #0
 285              		.loc 1 433 0
ARM GAS  /var/folders/m4/4md61f0s1_g0rzfghffqnxvr0000gn/T//ccT17VZ9.s 			page 6


 286 0004 0128     		cmp	r0, #1
 287              		.loc 1 427 0
 288 0006 1A70     		strb	r2, [r3]
 289              		.loc 1 430 0
 290 0008 1A70     		strb	r2, [r3]
 291              		.loc 1 433 0
 292 000a 05D0     		beq	.L29
 293 000c 0428     		cmp	r0, #4
 294 000e 02D1     		bne	.L31
 295              		.loc 1 441 0
 296 0010 0522     		movs	r2, #5
 297 0012 1A70     		strb	r2, [r3]
 298 0014 7047     		bx	lr
 299              	.L31:
 300 0016 7047     		bx	lr
 301              	.L29:
 302              		.loc 1 437 0
 303 0018 1870     		strb	r0, [r3]
 304              		.loc 1 438 0
 305 001a 7047     		bx	lr
 306              	.L33:
 307              		.align	2
 308              	.L32:
 309 001c 70380240 		.word	1073887344
 310              		.cfi_endproc
 311              	.LFE128:
 312              		.size	RCC_LSEConfig, .-RCC_LSEConfig
 313              		.section	.text.RCC_LSICmd,"ax",%progbits
 314              		.align	2
 315              		.p2align 4,,15
 316              		.global	RCC_LSICmd
 317              		.thumb
 318              		.thumb_func
 319              		.type	RCC_LSICmd, %function
 320              	RCC_LSICmd:
 321              	.LFB129:
 322              		.loc 1 461 0
 323              		.cfi_startproc
 324              		@ args = 0, pretend = 0, frame = 0
 325              		@ frame_needed = 0, uses_anonymous_args = 0
 326              		@ link register save eliminated.
 327              	.LVL15:
 328              		.loc 1 465 0
 329 0000 014B     		ldr	r3, .L35
 330 0002 1860     		str	r0, [r3]
 331 0004 7047     		bx	lr
 332              	.L36:
 333 0006 00BF     		.align	2
 334              	.L35:
 335 0008 800E4742 		.word	1111953024
 336              		.cfi_endproc
 337              	.LFE129:
 338              		.size	RCC_LSICmd, .-RCC_LSICmd
 339              		.section	.text.RCC_PLLConfig,"ax",%progbits
 340              		.align	2
 341              		.p2align 4,,15
 342              		.global	RCC_PLLConfig
ARM GAS  /var/folders/m4/4md61f0s1_g0rzfghffqnxvr0000gn/T//ccT17VZ9.s 			page 7


 343              		.thumb
 344              		.thumb_func
 345              		.type	RCC_PLLConfig, %function
 346              	RCC_PLLConfig:
 347              	.LFB130:
 348              		.loc 1 509 0
 349              		.cfi_startproc
 350              		@ args = 8, pretend = 0, frame = 0
 351              		@ frame_needed = 0, uses_anonymous_args = 0
 352              		@ link register save eliminated.
 353              	.LVL16:
 354 0000 70B4     		push	{r4, r5, r6}
 355              		.cfi_def_cfa_offset 12
 356              		.cfi_offset 4, -12
 357              		.cfi_offset 5, -8
 358              		.cfi_offset 6, -4
 359              		.loc 1 509 0
 360 0002 039C     		ldr	r4, [sp, #12]
 361 0004 049E     		ldr	r6, [sp, #16]
 362              		.loc 1 518 0
 363 0006 074D     		ldr	r5, .L39
 364 0008 40EA0460 		orr	r0, r0, r4, lsl #24
 365              	.LVL17:
 366 000c 40EA0670 		orr	r0, r0, r6, lsl #28
 367 0010 0143     		orrs	r1, r1, r0
 368              	.LVL18:
 369 0012 5B08     		lsrs	r3, r3, #1
 370              	.LVL19:
 371 0014 013B     		subs	r3, r3, #1
 372 0016 41EA8212 		orr	r2, r1, r2, lsl #6
 373              	.LVL20:
 374              		.loc 1 519 0
 375 001a 42EA0340 		orr	r0, r2, r3, lsl #16
 376              		.loc 1 518 0
 377 001e 6860     		str	r0, [r5, #4]
 378              	.LVL21:
 379              		.loc 1 520 0
 380 0020 70BC     		pop	{r4, r5, r6}
 381              		.cfi_restore 6
 382              		.cfi_restore 5
 383              		.cfi_restore 4
 384              		.cfi_def_cfa_offset 0
 385 0022 7047     		bx	lr
 386              	.L40:
 387              		.align	2
 388              	.L39:
 389 0024 00380240 		.word	1073887232
 390              		.cfi_endproc
 391              	.LFE130:
 392              		.size	RCC_PLLConfig, .-RCC_PLLConfig
 393              		.section	.text.RCC_PLLCmd,"ax",%progbits
 394              		.align	2
 395              		.p2align 4,,15
 396              		.global	RCC_PLLCmd
 397              		.thumb
 398              		.thumb_func
 399              		.type	RCC_PLLCmd, %function
ARM GAS  /var/folders/m4/4md61f0s1_g0rzfghffqnxvr0000gn/T//ccT17VZ9.s 			page 8


 400              	RCC_PLLCmd:
 401              	.LFB131:
 402              		.loc 1 584 0
 403              		.cfi_startproc
 404              		@ args = 0, pretend = 0, frame = 0
 405              		@ frame_needed = 0, uses_anonymous_args = 0
 406              		@ link register save eliminated.
 407              	.LVL22:
 408              		.loc 1 587 0
 409 0000 014B     		ldr	r3, .L42
 410 0002 1860     		str	r0, [r3]
 411 0004 7047     		bx	lr
 412              	.L43:
 413 0006 00BF     		.align	2
 414              	.L42:
 415 0008 60004742 		.word	1111949408
 416              		.cfi_endproc
 417              	.LFE131:
 418              		.size	RCC_PLLCmd, .-RCC_PLLCmd
 419              		.section	.text.RCC_PLLI2SConfig,"ax",%progbits
 420              		.align	2
 421              		.p2align 4,,15
 422              		.global	RCC_PLLI2SConfig
 423              		.thumb
 424              		.thumb_func
 425              		.type	RCC_PLLI2SConfig, %function
 426              	RCC_PLLI2SConfig:
 427              	.LFB132:
 428              		.loc 1 734 0
 429              		.cfi_startproc
 430              		@ args = 4, pretend = 0, frame = 0
 431              		@ frame_needed = 0, uses_anonymous_args = 0
 432              		@ link register save eliminated.
 433              	.LVL23:
 434 0000 30B4     		push	{r4, r5}
 435              		.cfi_def_cfa_offset 8
 436              		.cfi_offset 4, -8
 437              		.cfi_offset 5, -4
 438              		.loc 1 734 0
 439 0002 029C     		ldr	r4, [sp, #8]
 440              		.loc 1 742 0
 441 0004 074D     		ldr	r5, .L46
 442 0006 2407     		lsls	r4, r4, #28
 443 0008 44EA0363 		orr	r3, r4, r3, lsl #24
 444              	.LVL24:
 445 000c 5208     		lsrs	r2, r2, #1
 446              	.LVL25:
 447 000e 1843     		orrs	r0, r0, r3
 448              	.LVL26:
 449 0010 013A     		subs	r2, r2, #1
 450 0012 40EA8111 		orr	r1, r0, r1, lsl #6
 451              	.LVL27:
 452 0016 41EA0244 		orr	r4, r1, r2, lsl #16
 453 001a C5F88440 		str	r4, [r5, #132]
 454              	.LVL28:
 455              		.loc 1 743 0
 456 001e 30BC     		pop	{r4, r5}
ARM GAS  /var/folders/m4/4md61f0s1_g0rzfghffqnxvr0000gn/T//ccT17VZ9.s 			page 9


 457              		.cfi_restore 5
 458              		.cfi_restore 4
 459              		.cfi_def_cfa_offset 0
 460 0020 7047     		bx	lr
 461              	.L47:
 462 0022 00BF     		.align	2
 463              	.L46:
 464 0024 00380240 		.word	1073887232
 465              		.cfi_endproc
 466              	.LFE132:
 467              		.size	RCC_PLLI2SConfig, .-RCC_PLLI2SConfig
 468              		.section	.text.RCC_PLLI2SCmd,"ax",%progbits
 469              		.align	2
 470              		.p2align 4,,15
 471              		.global	RCC_PLLI2SCmd
 472              		.thumb
 473              		.thumb_func
 474              		.type	RCC_PLLI2SCmd, %function
 475              	RCC_PLLI2SCmd:
 476              	.LFB133:
 477              		.loc 1 753 0
 478              		.cfi_startproc
 479              		@ args = 0, pretend = 0, frame = 0
 480              		@ frame_needed = 0, uses_anonymous_args = 0
 481              		@ link register save eliminated.
 482              	.LVL29:
 483              		.loc 1 756 0
 484 0000 014B     		ldr	r3, .L49
 485 0002 1860     		str	r0, [r3]
 486 0004 7047     		bx	lr
 487              	.L50:
 488 0006 00BF     		.align	2
 489              	.L49:
 490 0008 68004742 		.word	1111949416
 491              		.cfi_endproc
 492              	.LFE133:
 493              		.size	RCC_PLLI2SCmd, .-RCC_PLLI2SCmd
 494              		.section	.text.RCC_PLLSAIConfig,"ax",%progbits
 495              		.align	2
 496              		.p2align 4,,15
 497              		.global	RCC_PLLSAIConfig
 498              		.thumb
 499              		.thumb_func
 500              		.type	RCC_PLLSAIConfig, %function
 501              	RCC_PLLSAIConfig:
 502              	.LFB134:
 503              		.loc 1 827 0
 504              		.cfi_startproc
 505              		@ args = 0, pretend = 0, frame = 0
 506              		@ frame_needed = 0, uses_anonymous_args = 0
 507              		@ link register save eliminated.
 508              	.LVL30:
 509 0000 40EA0363 		orr	r3, r0, r3, lsl #24
 510              	.LVL31:
 511              		.loc 1 834 0
 512 0004 5208     		lsrs	r2, r2, #1
 513              	.LVL32:
ARM GAS  /var/folders/m4/4md61f0s1_g0rzfghffqnxvr0000gn/T//ccT17VZ9.s 			page 10


 514 0006 43EA8111 		orr	r1, r3, r1, lsl #6
 515              	.LVL33:
 516 000a 531E     		subs	r3, r2, #1
 517 000c 024A     		ldr	r2, .L52
 518 000e 41EA0343 		orr	r3, r1, r3, lsl #16
 519 0012 C2F88830 		str	r3, [r2, #136]
 520 0016 7047     		bx	lr
 521              	.L53:
 522              		.align	2
 523              	.L52:
 524 0018 00380240 		.word	1073887232
 525              		.cfi_endproc
 526              	.LFE134:
 527              		.size	RCC_PLLSAIConfig, .-RCC_PLLSAIConfig
 528              		.section	.text.RCC_PLLSAICmd,"ax",%progbits
 529              		.align	2
 530              		.p2align 4,,15
 531              		.global	RCC_PLLSAICmd
 532              		.thumb
 533              		.thumb_func
 534              		.type	RCC_PLLSAICmd, %function
 535              	RCC_PLLSAICmd:
 536              	.LFB135:
 537              		.loc 1 882 0
 538              		.cfi_startproc
 539              		@ args = 0, pretend = 0, frame = 0
 540              		@ frame_needed = 0, uses_anonymous_args = 0
 541              		@ link register save eliminated.
 542              	.LVL34:
 543              		.loc 1 885 0
 544 0000 014B     		ldr	r3, .L55
 545 0002 1860     		str	r0, [r3]
 546 0004 7047     		bx	lr
 547              	.L56:
 548 0006 00BF     		.align	2
 549              	.L55:
 550 0008 70004742 		.word	1111949424
 551              		.cfi_endproc
 552              	.LFE135:
 553              		.size	RCC_PLLSAICmd, .-RCC_PLLSAICmd
 554              		.section	.text.RCC_ClockSecuritySystemCmd,"ax",%progbits
 555              		.align	2
 556              		.p2align 4,,15
 557              		.global	RCC_ClockSecuritySystemCmd
 558              		.thumb
 559              		.thumb_func
 560              		.type	RCC_ClockSecuritySystemCmd, %function
 561              	RCC_ClockSecuritySystemCmd:
 562              	.LFB136:
 563              		.loc 1 900 0
 564              		.cfi_startproc
 565              		@ args = 0, pretend = 0, frame = 0
 566              		@ frame_needed = 0, uses_anonymous_args = 0
 567              		@ link register save eliminated.
 568              	.LVL35:
 569              		.loc 1 903 0
 570 0000 014B     		ldr	r3, .L58
ARM GAS  /var/folders/m4/4md61f0s1_g0rzfghffqnxvr0000gn/T//ccT17VZ9.s 			page 11


 571 0002 1860     		str	r0, [r3]
 572 0004 7047     		bx	lr
 573              	.L59:
 574 0006 00BF     		.align	2
 575              	.L58:
 576 0008 4C004742 		.word	1111949388
 577              		.cfi_endproc
 578              	.LFE136:
 579              		.size	RCC_ClockSecuritySystemCmd, .-RCC_ClockSecuritySystemCmd
 580              		.section	.text.RCC_MCO1Config,"ax",%progbits
 581              		.align	2
 582              		.p2align 4,,15
 583              		.global	RCC_MCO1Config
 584              		.thumb
 585              		.thumb_func
 586              		.type	RCC_MCO1Config, %function
 587              	RCC_MCO1Config:
 588              	.LFB137:
 589              		.loc 1 925 0
 590              		.cfi_startproc
 591              		@ args = 0, pretend = 0, frame = 0
 592              		@ frame_needed = 0, uses_anonymous_args = 0
 593              		@ link register save eliminated.
 594              	.LVL36:
 595              		.loc 1 932 0
 596 0000 034A     		ldr	r2, .L61
 597 0002 9368     		ldr	r3, [r2, #8]
 598              	.LVL37:
 599              		.loc 1 935 0
 600 0004 23F0EC63 		bic	r3, r3, #123731968
 601              	.LVL38:
 602 0008 1943     		orrs	r1, r1, r3
 603              	.LVL39:
 604              		.loc 1 938 0
 605 000a 0843     		orrs	r0, r0, r1
 606              	.LVL40:
 607              		.loc 1 941 0
 608 000c 9060     		str	r0, [r2, #8]
 609 000e 7047     		bx	lr
 610              	.L62:
 611              		.align	2
 612              	.L61:
 613 0010 00380240 		.word	1073887232
 614              		.cfi_endproc
 615              	.LFE137:
 616              		.size	RCC_MCO1Config, .-RCC_MCO1Config
 617              		.section	.text.RCC_MCO2Config,"ax",%progbits
 618              		.align	2
 619              		.p2align 4,,15
 620              		.global	RCC_MCO2Config
 621              		.thumb
 622              		.thumb_func
 623              		.type	RCC_MCO2Config, %function
 624              	RCC_MCO2Config:
 625              	.LFB138:
 626              		.loc 1 970 0
 627              		.cfi_startproc
ARM GAS  /var/folders/m4/4md61f0s1_g0rzfghffqnxvr0000gn/T//ccT17VZ9.s 			page 12


 628              		@ args = 0, pretend = 0, frame = 0
 629              		@ frame_needed = 0, uses_anonymous_args = 0
 630              		@ link register save eliminated.
 631              	.LVL41:
 632              		.loc 1 977 0
 633 0000 034A     		ldr	r2, .L64
 634 0002 9368     		ldr	r3, [r2, #8]
 635              	.LVL42:
 636              		.loc 1 980 0
 637 0004 23F07843 		bic	r3, r3, #-134217728
 638              	.LVL43:
 639 0008 1943     		orrs	r1, r1, r3
 640              	.LVL44:
 641              		.loc 1 983 0
 642 000a 0843     		orrs	r0, r0, r1
 643              	.LVL45:
 644              		.loc 1 986 0
 645 000c 9060     		str	r0, [r2, #8]
 646 000e 7047     		bx	lr
 647              	.L65:
 648              		.align	2
 649              	.L64:
 650 0010 00380240 		.word	1073887232
 651              		.cfi_endproc
 652              	.LFE138:
 653              		.size	RCC_MCO2Config, .-RCC_MCO2Config
 654              		.section	.text.RCC_SYSCLKConfig,"ax",%progbits
 655              		.align	2
 656              		.p2align 4,,15
 657              		.global	RCC_SYSCLKConfig
 658              		.thumb
 659              		.thumb_func
 660              		.type	RCC_SYSCLKConfig, %function
 661              	RCC_SYSCLKConfig:
 662              	.LFB139:
 663              		.loc 1 1170 0
 664              		.cfi_startproc
 665              		@ args = 0, pretend = 0, frame = 0
 666              		@ frame_needed = 0, uses_anonymous_args = 0
 667              		@ link register save eliminated.
 668              	.LVL46:
 669              		.loc 1 1176 0
 670 0000 034A     		ldr	r2, .L67
 671 0002 9368     		ldr	r3, [r2, #8]
 672              	.LVL47:
 673              		.loc 1 1179 0
 674 0004 23F00303 		bic	r3, r3, #3
 675              	.LVL48:
 676              		.loc 1 1182 0
 677 0008 1843     		orrs	r0, r0, r3
 678              	.LVL49:
 679              		.loc 1 1185 0
 680 000a 9060     		str	r0, [r2, #8]
 681 000c 7047     		bx	lr
 682              	.L68:
 683 000e 00BF     		.align	2
 684              	.L67:
ARM GAS  /var/folders/m4/4md61f0s1_g0rzfghffqnxvr0000gn/T//ccT17VZ9.s 			page 13


 685 0010 00380240 		.word	1073887232
 686              		.cfi_endproc
 687              	.LFE139:
 688              		.size	RCC_SYSCLKConfig, .-RCC_SYSCLKConfig
 689              		.section	.text.RCC_GetSYSCLKSource,"ax",%progbits
 690              		.align	2
 691              		.p2align 4,,15
 692              		.global	RCC_GetSYSCLKSource
 693              		.thumb
 694              		.thumb_func
 695              		.type	RCC_GetSYSCLKSource, %function
 696              	RCC_GetSYSCLKSource:
 697              	.LFB140:
 698              		.loc 1 1199 0
 699              		.cfi_startproc
 700              		@ args = 0, pretend = 0, frame = 0
 701              		@ frame_needed = 0, uses_anonymous_args = 0
 702              		@ link register save eliminated.
 703              		.loc 1 1200 0
 704 0000 024B     		ldr	r3, .L70
 705 0002 9868     		ldr	r0, [r3, #8]
 706              		.loc 1 1201 0
 707 0004 00F00C00 		and	r0, r0, #12
 708 0008 7047     		bx	lr
 709              	.L71:
 710 000a 00BF     		.align	2
 711              	.L70:
 712 000c 00380240 		.word	1073887232
 713              		.cfi_endproc
 714              	.LFE140:
 715              		.size	RCC_GetSYSCLKSource, .-RCC_GetSYSCLKSource
 716              		.section	.text.RCC_HCLKConfig,"ax",%progbits
 717              		.align	2
 718              		.p2align 4,,15
 719              		.global	RCC_HCLKConfig
 720              		.thumb
 721              		.thumb_func
 722              		.type	RCC_HCLKConfig, %function
 723              	RCC_HCLKConfig:
 724              	.LFB141:
 725              		.loc 1 1224 0
 726              		.cfi_startproc
 727              		@ args = 0, pretend = 0, frame = 0
 728              		@ frame_needed = 0, uses_anonymous_args = 0
 729              		@ link register save eliminated.
 730              	.LVL50:
 731              		.loc 1 1230 0
 732 0000 034A     		ldr	r2, .L73
 733 0002 9368     		ldr	r3, [r2, #8]
 734              	.LVL51:
 735              		.loc 1 1233 0
 736 0004 23F0F003 		bic	r3, r3, #240
 737              	.LVL52:
 738              		.loc 1 1236 0
 739 0008 1843     		orrs	r0, r0, r3
 740              	.LVL53:
 741              		.loc 1 1239 0
ARM GAS  /var/folders/m4/4md61f0s1_g0rzfghffqnxvr0000gn/T//ccT17VZ9.s 			page 14


 742 000a 9060     		str	r0, [r2, #8]
 743 000c 7047     		bx	lr
 744              	.L74:
 745 000e 00BF     		.align	2
 746              	.L73:
 747 0010 00380240 		.word	1073887232
 748              		.cfi_endproc
 749              	.LFE141:
 750              		.size	RCC_HCLKConfig, .-RCC_HCLKConfig
 751              		.section	.text.RCC_PCLK1Config,"ax",%progbits
 752              		.align	2
 753              		.p2align 4,,15
 754              		.global	RCC_PCLK1Config
 755              		.thumb
 756              		.thumb_func
 757              		.type	RCC_PCLK1Config, %function
 758              	RCC_PCLK1Config:
 759              	.LFB142:
 760              		.loc 1 1255 0
 761              		.cfi_startproc
 762              		@ args = 0, pretend = 0, frame = 0
 763              		@ frame_needed = 0, uses_anonymous_args = 0
 764              		@ link register save eliminated.
 765              	.LVL54:
 766              		.loc 1 1261 0
 767 0000 034A     		ldr	r2, .L76
 768 0002 9368     		ldr	r3, [r2, #8]
 769              	.LVL55:
 770              		.loc 1 1264 0
 771 0004 23F4E053 		bic	r3, r3, #7168
 772              	.LVL56:
 773              		.loc 1 1267 0
 774 0008 1843     		orrs	r0, r0, r3
 775              	.LVL57:
 776              		.loc 1 1270 0
 777 000a 9060     		str	r0, [r2, #8]
 778 000c 7047     		bx	lr
 779              	.L77:
 780 000e 00BF     		.align	2
 781              	.L76:
 782 0010 00380240 		.word	1073887232
 783              		.cfi_endproc
 784              	.LFE142:
 785              		.size	RCC_PCLK1Config, .-RCC_PCLK1Config
 786              		.section	.text.RCC_PCLK2Config,"ax",%progbits
 787              		.align	2
 788              		.p2align 4,,15
 789              		.global	RCC_PCLK2Config
 790              		.thumb
 791              		.thumb_func
 792              		.type	RCC_PCLK2Config, %function
 793              	RCC_PCLK2Config:
 794              	.LFB143:
 795              		.loc 1 1286 0
 796              		.cfi_startproc
 797              		@ args = 0, pretend = 0, frame = 0
 798              		@ frame_needed = 0, uses_anonymous_args = 0
ARM GAS  /var/folders/m4/4md61f0s1_g0rzfghffqnxvr0000gn/T//ccT17VZ9.s 			page 15


 799              		@ link register save eliminated.
 800              	.LVL58:
 801              		.loc 1 1292 0
 802 0000 034A     		ldr	r2, .L79
 803 0002 9368     		ldr	r3, [r2, #8]
 804              	.LVL59:
 805              		.loc 1 1295 0
 806 0004 23F46043 		bic	r3, r3, #57344
 807              	.LVL60:
 808              		.loc 1 1298 0
 809 0008 43EAC000 		orr	r0, r3, r0, lsl #3
 810              	.LVL61:
 811              		.loc 1 1301 0
 812 000c 9060     		str	r0, [r2, #8]
 813 000e 7047     		bx	lr
 814              	.L80:
 815              		.align	2
 816              	.L79:
 817 0010 00380240 		.word	1073887232
 818              		.cfi_endproc
 819              	.LFE143:
 820              		.size	RCC_PCLK2Config, .-RCC_PCLK2Config
 821              		.section	.text.RCC_GetClocksFreq,"ax",%progbits
 822              		.align	2
 823              		.p2align 4,,15
 824              		.global	RCC_GetClocksFreq
 825              		.thumb
 826              		.thumb_func
 827              		.type	RCC_GetClocksFreq, %function
 828              	RCC_GetClocksFreq:
 829              	.LFB144:
 830              		.loc 1 1338 0
 831              		.cfi_startproc
 832              		@ args = 0, pretend = 0, frame = 0
 833              		@ frame_needed = 0, uses_anonymous_args = 0
 834              		@ link register save eliminated.
 835              	.LVL62:
 836              		.loc 1 1345 0
 837 0000 334B     		ldr	r3, .L94
 838 0002 9B68     		ldr	r3, [r3, #8]
 839              	.LVL63:
 840 0004 03F00C03 		and	r3, r3, #12
 841              	.LVL64:
 842              		.loc 1 1338 0
 843 0008 10B4     		push	{r4}
 844              		.cfi_def_cfa_offset 4
 845              		.cfi_offset 4, -4
 846              		.loc 1 1347 0
 847 000a 0C2B     		cmp	r3, #12
 848 000c 08D8     		bhi	.L82
 849 000e DFE803F0 		tbb	[pc, r3]
 850              	.L84:
 851 0012 07       		.byte	(.L82-.L84)/2
 852 0013 07       		.byte	(.L82-.L84)/2
 853 0014 07       		.byte	(.L82-.L84)/2
 854 0015 07       		.byte	(.L82-.L84)/2
 855 0016 3E       		.byte	(.L85-.L84)/2
ARM GAS  /var/folders/m4/4md61f0s1_g0rzfghffqnxvr0000gn/T//ccT17VZ9.s 			page 16


 856 0017 07       		.byte	(.L82-.L84)/2
 857 0018 07       		.byte	(.L82-.L84)/2
 858 0019 07       		.byte	(.L82-.L84)/2
 859 001a 21       		.byte	(.L86-.L84)/2
 860 001b 07       		.byte	(.L82-.L84)/2
 861 001c 07       		.byte	(.L82-.L84)/2
 862 001d 07       		.byte	(.L82-.L84)/2
 863 001e 41       		.byte	(.L87-.L84)/2
 864 001f 00       		.p2align 1
 865              	.L82:
 866              		.loc 1 1403 0
 867 0020 2C4B     		ldr	r3, .L94+4
 868              	.LVL65:
 869 0022 0360     		str	r3, [r0]
 870              	.LVL66:
 871              	.L88:
 872              		.loc 1 1409 0
 873 0024 2A4A     		ldr	r2, .L94
 874              		.loc 1 1411 0
 875 0026 2C49     		ldr	r1, .L94+8
 876              		.loc 1 1409 0
 877 0028 9468     		ldr	r4, [r2, #8]
 878              	.LVL67:
 879              		.loc 1 1410 0
 880 002a C4F30314 		ubfx	r4, r4, #4, #4
 881              	.LVL68:
 882              		.loc 1 1411 0
 883 002e 0C5D     		ldrb	r4, [r1, r4]	@ zero_extendqisi2
 884              	.LVL69:
 885              		.loc 1 1413 0
 886 0030 E340     		lsrs	r3, r3, r4
 887 0032 4360     		str	r3, [r0, #4]
 888              		.loc 1 1416 0
 889 0034 9468     		ldr	r4, [r2, #8]
 890              	.LVL70:
 891              		.loc 1 1417 0
 892 0036 C4F38224 		ubfx	r4, r4, #10, #3
 893              	.LVL71:
 894              		.loc 1 1418 0
 895 003a 0C5D     		ldrb	r4, [r1, r4]	@ zero_extendqisi2
 896              	.LVL72:
 897              		.loc 1 1420 0
 898 003c 23FA04F4 		lsr	r4, r3, r4
 899              	.LVL73:
 900 0040 8460     		str	r4, [r0, #8]
 901              		.loc 1 1423 0
 902 0042 9268     		ldr	r2, [r2, #8]
 903              	.LVL74:
 904              		.loc 1 1428 0
 905 0044 5DF8044B 		ldr	r4, [sp], #4
 906              		.cfi_remember_state
 907              		.cfi_restore 4
 908              		.cfi_def_cfa_offset 0
 909              		.loc 1 1424 0
 910 0048 C2F34232 		ubfx	r2, r2, #13, #3
 911              	.LVL75:
 912              		.loc 1 1425 0
ARM GAS  /var/folders/m4/4md61f0s1_g0rzfghffqnxvr0000gn/T//ccT17VZ9.s 			page 17


 913 004c 8A5C     		ldrb	r2, [r1, r2]	@ zero_extendqisi2
 914              	.LVL76:
 915              		.loc 1 1427 0
 916 004e D340     		lsrs	r3, r3, r2
 917 0050 C360     		str	r3, [r0, #12]
 918              		.loc 1 1428 0
 919 0052 7047     		bx	lr
 920              	.LVL77:
 921              	.L86:
 922              		.cfi_restore_state
 923              		.loc 1 1360 0
 924 0054 1E4B     		ldr	r3, .L94
 925              	.LVL78:
 926 0056 5C68     		ldr	r4, [r3, #4]
 927              	.LVL79:
 928              		.loc 1 1361 0
 929 0058 5968     		ldr	r1, [r3, #4]
 930              		.loc 1 1366 0
 931 005a 5B68     		ldr	r3, [r3, #4]
 932              		.loc 1 1363 0
 933 005c 6402     		lsls	r4, r4, #9
 934              	.LVL80:
 935              		.loc 1 1361 0
 936 005e 01F03F02 		and	r2, r1, #63
 937              	.LVL81:
 938              		.loc 1 1371 0
 939 0062 56BF     		itet	pl
 940 0064 1B49     		ldrpl	r1, .L94+4
 941              		.loc 1 1366 0
 942 0066 1D4C     		ldrmi	r4, .L94+12
 943              		.loc 1 1371 0
 944 0068 B1FBF2F1 		udivpl	r1, r1, r2
 945 006c C3F38813 		ubfx	r3, r3, #6, #9
 946              		.loc 1 1366 0
 947 0070 48BF     		it	mi
 948 0072 B4FBF2F1 		udivmi	r1, r4, r2
 949              		.loc 1 1371 0
 950 0076 01FB03F2 		mul	r2, r1, r3
 951              	.LVL82:
 952              		.loc 1 1374 0
 953 007a 154B     		ldr	r3, .L94
 954 007c 5B68     		ldr	r3, [r3, #4]
 955              	.LVL83:
 956 007e C3F30143 		ubfx	r3, r3, #16, #2
 957              	.LVL84:
 958 0082 0133     		adds	r3, r3, #1
 959 0084 5B00     		lsls	r3, r3, #1
 960              		.loc 1 1375 0
 961 0086 B2FBF3F3 		udiv	r3, r2, r3
 962 008a 0360     		str	r3, [r0]
 963              		.loc 1 1376 0
 964 008c CAE7     		b	.L88
 965              	.LVL85:
 966              	.L85:
 967              		.loc 1 1353 0
 968 008e 134B     		ldr	r3, .L94+12
 969              	.LVL86:
ARM GAS  /var/folders/m4/4md61f0s1_g0rzfghffqnxvr0000gn/T//ccT17VZ9.s 			page 18


 970 0090 0360     		str	r3, [r0]
 971              		.loc 1 1354 0
 972 0092 C7E7     		b	.L88
 973              	.LVL87:
 974              	.L87:
 975              		.loc 1 1383 0
 976 0094 0E4B     		ldr	r3, .L94
 977              	.LVL88:
 978 0096 5C68     		ldr	r4, [r3, #4]
 979              	.LVL89:
 980              		.loc 1 1384 0
 981 0098 5968     		ldr	r1, [r3, #4]
 982              		.loc 1 1389 0
 983 009a 5B68     		ldr	r3, [r3, #4]
 984              		.loc 1 1384 0
 985 009c 01F03F02 		and	r2, r1, #63
 986              	.LVL90:
 987              		.loc 1 1386 0
 988 00a0 6102     		lsls	r1, r4, #9
 989              		.loc 1 1394 0
 990 00a2 56BF     		itet	pl
 991 00a4 0B49     		ldrpl	r1, .L94+4
 992              		.loc 1 1389 0
 993 00a6 0D4C     		ldrmi	r4, .L94+12
 994              	.LVL91:
 995              		.loc 1 1394 0
 996 00a8 B1FBF2F1 		udivpl	r1, r1, r2
 997 00ac C3F38813 		ubfx	r3, r3, #6, #9
 998              		.loc 1 1389 0
 999 00b0 48BF     		it	mi
 1000 00b2 B4FBF2F1 		udivmi	r1, r4, r2
 1001              		.loc 1 1394 0
 1002 00b6 01FB03F2 		mul	r2, r1, r3
 1003              	.LVL92:
 1004              		.loc 1 1397 0
 1005 00ba 054B     		ldr	r3, .L94
 1006 00bc 5B68     		ldr	r3, [r3, #4]
 1007              	.LVL93:
 1008 00be C3F30273 		ubfx	r3, r3, #28, #3
 1009              	.LVL94:
 1010 00c2 0133     		adds	r3, r3, #1
 1011 00c4 5B00     		lsls	r3, r3, #1
 1012              		.loc 1 1398 0
 1013 00c6 B2FBF3F3 		udiv	r3, r2, r3
 1014 00ca 0360     		str	r3, [r0]
 1015              		.loc 1 1399 0
 1016 00cc AAE7     		b	.L88
 1017              	.L95:
 1018 00ce 00BF     		.align	2
 1019              	.L94:
 1020 00d0 00380240 		.word	1073887232
 1021 00d4 0024F400 		.word	16000000
 1022 00d8 00000000 		.word	.LANCHOR0
 1023 00dc 00127A00 		.word	8000000
 1024              		.cfi_endproc
 1025              	.LFE144:
 1026              		.size	RCC_GetClocksFreq, .-RCC_GetClocksFreq
ARM GAS  /var/folders/m4/4md61f0s1_g0rzfghffqnxvr0000gn/T//ccT17VZ9.s 			page 19


 1027              		.section	.text.RCC_RTCCLKConfig,"ax",%progbits
 1028              		.align	2
 1029              		.p2align 4,,15
 1030              		.global	RCC_RTCCLKConfig
 1031              		.thumb
 1032              		.thumb_func
 1033              		.type	RCC_RTCCLKConfig, %function
 1034              	RCC_RTCCLKConfig:
 1035              	.LFB145:
 1036              		.loc 1 1491 0
 1037              		.cfi_startproc
 1038              		@ args = 0, pretend = 0, frame = 0
 1039              		@ frame_needed = 0, uses_anonymous_args = 0
 1040              		@ link register save eliminated.
 1041              	.LVL95:
 1042              		.loc 1 1497 0
 1043 0000 00F44073 		and	r3, r0, #768
 1044 0004 B3F5407F 		cmp	r3, #768
 1045 0008 09D1     		bne	.L97
 1046              		.loc 1 1499 0
 1047 000a 0849     		ldr	r1, .L98
 1048 000c 8B68     		ldr	r3, [r1, #8]
 1049              	.LVL96:
 1050              		.loc 1 1505 0
 1051 000e 20F07042 		bic	r2, r0, #-268435456
 1052              		.loc 1 1502 0
 1053 0012 23F4F813 		bic	r3, r3, #2031616
 1054              	.LVL97:
 1055              		.loc 1 1505 0
 1056 0016 22F44072 		bic	r2, r2, #768
 1057 001a 1343     		orrs	r3, r3, r2
 1058              	.LVL98:
 1059              		.loc 1 1508 0
 1060 001c 8B60     		str	r3, [r1, #8]
 1061              	.LVL99:
 1062              	.L97:
 1063              		.loc 1 1512 0
 1064 001e 034A     		ldr	r2, .L98
 1065 0020 136F     		ldr	r3, [r2, #112]
 1066 0022 C0F30B00 		ubfx	r0, r0, #0, #12
 1067              	.LVL100:
 1068 0026 1843     		orrs	r0, r0, r3
 1069 0028 1067     		str	r0, [r2, #112]
 1070 002a 7047     		bx	lr
 1071              	.L99:
 1072              		.align	2
 1073              	.L98:
 1074 002c 00380240 		.word	1073887232
 1075              		.cfi_endproc
 1076              	.LFE145:
 1077              		.size	RCC_RTCCLKConfig, .-RCC_RTCCLKConfig
 1078              		.section	.text.RCC_RTCCLKCmd,"ax",%progbits
 1079              		.align	2
 1080              		.p2align 4,,15
 1081              		.global	RCC_RTCCLKCmd
 1082              		.thumb
 1083              		.thumb_func
ARM GAS  /var/folders/m4/4md61f0s1_g0rzfghffqnxvr0000gn/T//ccT17VZ9.s 			page 20


 1084              		.type	RCC_RTCCLKCmd, %function
 1085              	RCC_RTCCLKCmd:
 1086              	.LFB146:
 1087              		.loc 1 1523 0
 1088              		.cfi_startproc
 1089              		@ args = 0, pretend = 0, frame = 0
 1090              		@ frame_needed = 0, uses_anonymous_args = 0
 1091              		@ link register save eliminated.
 1092              	.LVL101:
 1093              		.loc 1 1527 0
 1094 0000 014B     		ldr	r3, .L101
 1095 0002 1860     		str	r0, [r3]
 1096 0004 7047     		bx	lr
 1097              	.L102:
 1098 0006 00BF     		.align	2
 1099              	.L101:
 1100 0008 3C0E4742 		.word	1111952956
 1101              		.cfi_endproc
 1102              	.LFE146:
 1103              		.size	RCC_RTCCLKCmd, .-RCC_RTCCLKCmd
 1104              		.section	.text.RCC_BackupResetCmd,"ax",%progbits
 1105              		.align	2
 1106              		.p2align 4,,15
 1107              		.global	RCC_BackupResetCmd
 1108              		.thumb
 1109              		.thumb_func
 1110              		.type	RCC_BackupResetCmd, %function
 1111              	RCC_BackupResetCmd:
 1112              	.LFB147:
 1113              		.loc 1 1540 0
 1114              		.cfi_startproc
 1115              		@ args = 0, pretend = 0, frame = 0
 1116              		@ frame_needed = 0, uses_anonymous_args = 0
 1117              		@ link register save eliminated.
 1118              	.LVL102:
 1119              		.loc 1 1543 0
 1120 0000 014B     		ldr	r3, .L104
 1121 0002 1860     		str	r0, [r3]
 1122 0004 7047     		bx	lr
 1123              	.L105:
 1124 0006 00BF     		.align	2
 1125              	.L104:
 1126 0008 400E4742 		.word	1111952960
 1127              		.cfi_endproc
 1128              	.LFE147:
 1129              		.size	RCC_BackupResetCmd, .-RCC_BackupResetCmd
 1130              		.section	.text.RCC_I2SCLKConfig,"ax",%progbits
 1131              		.align	2
 1132              		.p2align 4,,15
 1133              		.global	RCC_I2SCLKConfig
 1134              		.thumb
 1135              		.thumb_func
 1136              		.type	RCC_I2SCLKConfig, %function
 1137              	RCC_I2SCLKConfig:
 1138              	.LFB148:
 1139              		.loc 1 1566 0
 1140              		.cfi_startproc
ARM GAS  /var/folders/m4/4md61f0s1_g0rzfghffqnxvr0000gn/T//ccT17VZ9.s 			page 21


 1141              		@ args = 0, pretend = 0, frame = 0
 1142              		@ frame_needed = 0, uses_anonymous_args = 0
 1143              		@ link register save eliminated.
 1144              	.LVL103:
 1145              		.loc 1 1574 0
 1146 0000 0C4B     		ldr	r3, .L110
 1147 0002 D3F88C20 		ldr	r2, [r3, #140]
 1148              		.loc 1 1571 0
 1149 0006 50B1     		cbz	r0, .L109
 1150              		.loc 1 1581 0
 1151 0008 22F0C052 		bic	r2, r2, #402653184
 1152 000c C3F88C20 		str	r2, [r3, #140]
 1153              		.loc 1 1583 0
 1154 0010 D3F88C20 		ldr	r2, [r3, #140]
 1155 0014 42EA8101 		orr	r1, r2, r1, lsl #2
 1156              	.LVL104:
 1157 0018 C3F88C10 		str	r1, [r3, #140]
 1158 001c 7047     		bx	lr
 1159              	.LVL105:
 1160              	.L109:
 1161              		.loc 1 1574 0
 1162 001e 22F0C062 		bic	r2, r2, #100663296
 1163 0022 C3F88C20 		str	r2, [r3, #140]
 1164              		.loc 1 1576 0
 1165 0026 D3F88C20 		ldr	r2, [r3, #140]
 1166 002a 1143     		orrs	r1, r1, r2
 1167              	.LVL106:
 1168 002c C3F88C10 		str	r1, [r3, #140]
 1169 0030 7047     		bx	lr
 1170              	.L111:
 1171 0032 00BF     		.align	2
 1172              	.L110:
 1173 0034 00380240 		.word	1073887232
 1174              		.cfi_endproc
 1175              	.LFE148:
 1176              		.size	RCC_I2SCLKConfig, .-RCC_I2SCLKConfig
 1177              		.section	.text.RCC_SAICLKConfig,"ax",%progbits
 1178              		.align	2
 1179              		.p2align 4,,15
 1180              		.global	RCC_SAICLKConfig
 1181              		.thumb
 1182              		.thumb_func
 1183              		.type	RCC_SAICLKConfig, %function
 1184              	RCC_SAICLKConfig:
 1185              	.LFB149:
 1186              		.loc 1 1605 0
 1187              		.cfi_startproc
 1188              		@ args = 0, pretend = 0, frame = 0
 1189              		@ frame_needed = 0, uses_anonymous_args = 0
 1190              		@ link register save eliminated.
 1191              	.LVL107:
 1192              		.loc 1 1613 0
 1193 0000 0C4B     		ldr	r3, .L116
 1194 0002 D3F88C20 		ldr	r2, [r3, #140]
 1195              		.loc 1 1610 0
 1196 0006 50B1     		cbz	r0, .L115
 1197              		.loc 1 1620 0
ARM GAS  /var/folders/m4/4md61f0s1_g0rzfghffqnxvr0000gn/T//ccT17VZ9.s 			page 22


 1198 0008 22F44002 		bic	r2, r2, #12582912
 1199 000c C3F88C20 		str	r2, [r3, #140]
 1200              		.loc 1 1622 0
 1201 0010 D3F88C20 		ldr	r2, [r3, #140]
 1202 0014 42EA8101 		orr	r1, r2, r1, lsl #2
 1203              	.LVL108:
 1204 0018 C3F88C10 		str	r1, [r3, #140]
 1205 001c 7047     		bx	lr
 1206              	.LVL109:
 1207              	.L115:
 1208              		.loc 1 1613 0
 1209 001e 22F44012 		bic	r2, r2, #3145728
 1210 0022 C3F88C20 		str	r2, [r3, #140]
 1211              		.loc 1 1615 0
 1212 0026 D3F88C20 		ldr	r2, [r3, #140]
 1213 002a 1143     		orrs	r1, r1, r2
 1214              	.LVL110:
 1215 002c C3F88C10 		str	r1, [r3, #140]
 1216 0030 7047     		bx	lr
 1217              	.L117:
 1218 0032 00BF     		.align	2
 1219              	.L116:
 1220 0034 00380240 		.word	1073887232
 1221              		.cfi_endproc
 1222              	.LFE149:
 1223              		.size	RCC_SAICLKConfig, .-RCC_SAICLKConfig
 1224              		.section	.text.RCC_SAIPLLI2SClkDivConfig,"ax",%progbits
 1225              		.align	2
 1226              		.p2align 4,,15
 1227              		.global	RCC_SAIPLLI2SClkDivConfig
 1228              		.thumb
 1229              		.thumb_func
 1230              		.type	RCC_SAIPLLI2SClkDivConfig, %function
 1231              	RCC_SAIPLLI2SClkDivConfig:
 1232              	.LFB150:
 1233              		.loc 1 1759 0
 1234              		.cfi_startproc
 1235              		@ args = 0, pretend = 0, frame = 0
 1236              		@ frame_needed = 0, uses_anonymous_args = 0
 1237              		@ link register save eliminated.
 1238              	.LVL111:
 1239              		.loc 1 1765 0
 1240 0000 044A     		ldr	r2, .L119
 1241 0002 D2F88C30 		ldr	r3, [r2, #140]
 1242              	.LVL112:
 1243              		.loc 1 1771 0
 1244 0006 0138     		subs	r0, r0, #1
 1245              	.LVL113:
 1246              		.loc 1 1768 0
 1247 0008 23F01F03 		bic	r3, r3, #31
 1248              	.LVL114:
 1249              		.loc 1 1771 0
 1250 000c 0343     		orrs	r3, r3, r0
 1251              	.LVL115:
 1252              		.loc 1 1774 0
 1253 000e C2F88C30 		str	r3, [r2, #140]
 1254 0012 7047     		bx	lr
ARM GAS  /var/folders/m4/4md61f0s1_g0rzfghffqnxvr0000gn/T//ccT17VZ9.s 			page 23


 1255              	.L120:
 1256              		.align	2
 1257              	.L119:
 1258 0014 00380240 		.word	1073887232
 1259              		.cfi_endproc
 1260              	.LFE150:
 1261              		.size	RCC_SAIPLLI2SClkDivConfig, .-RCC_SAIPLLI2SClkDivConfig
 1262              		.section	.text.RCC_SAIPLLSAIClkDivConfig,"ax",%progbits
 1263              		.align	2
 1264              		.p2align 4,,15
 1265              		.global	RCC_SAIPLLSAIClkDivConfig
 1266              		.thumb
 1267              		.thumb_func
 1268              		.type	RCC_SAIPLLSAIClkDivConfig, %function
 1269              	RCC_SAIPLLSAIClkDivConfig:
 1270              	.LFB151:
 1271              		.loc 1 1791 0
 1272              		.cfi_startproc
 1273              		@ args = 0, pretend = 0, frame = 0
 1274              		@ frame_needed = 0, uses_anonymous_args = 0
 1275              		@ link register save eliminated.
 1276              	.LVL116:
 1277              		.loc 1 1797 0
 1278 0000 054A     		ldr	r2, .L122
 1279 0002 D2F88C30 		ldr	r3, [r2, #140]
 1280              	.LVL117:
 1281              		.loc 1 1803 0
 1282 0006 0138     		subs	r0, r0, #1
 1283              	.LVL118:
 1284              		.loc 1 1800 0
 1285 0008 23F4F853 		bic	r3, r3, #7936
 1286              	.LVL119:
 1287              		.loc 1 1803 0
 1288 000c 43EA0023 		orr	r3, r3, r0, lsl #8
 1289              	.LVL120:
 1290              		.loc 1 1806 0
 1291 0010 C2F88C30 		str	r3, [r2, #140]
 1292 0014 7047     		bx	lr
 1293              	.L123:
 1294 0016 00BF     		.align	2
 1295              	.L122:
 1296 0018 00380240 		.word	1073887232
 1297              		.cfi_endproc
 1298              	.LFE151:
 1299              		.size	RCC_SAIPLLSAIClkDivConfig, .-RCC_SAIPLLSAIClkDivConfig
 1300              		.section	.text.RCC_LTDCCLKDivConfig,"ax",%progbits
 1301              		.align	2
 1302              		.p2align 4,,15
 1303              		.global	RCC_LTDCCLKDivConfig
 1304              		.thumb
 1305              		.thumb_func
 1306              		.type	RCC_LTDCCLKDivConfig, %function
 1307              	RCC_LTDCCLKDivConfig:
 1308              	.LFB152:
 1309              		.loc 1 1827 0
 1310              		.cfi_startproc
 1311              		@ args = 0, pretend = 0, frame = 0
ARM GAS  /var/folders/m4/4md61f0s1_g0rzfghffqnxvr0000gn/T//ccT17VZ9.s 			page 24


 1312              		@ frame_needed = 0, uses_anonymous_args = 0
 1313              		@ link register save eliminated.
 1314              	.LVL121:
 1315              		.loc 1 1833 0
 1316 0000 044A     		ldr	r2, .L125
 1317 0002 D2F88C30 		ldr	r3, [r2, #140]
 1318              	.LVL122:
 1319              		.loc 1 1836 0
 1320 0006 23F44033 		bic	r3, r3, #196608
 1321              	.LVL123:
 1322              		.loc 1 1839 0
 1323 000a 1843     		orrs	r0, r0, r3
 1324              	.LVL124:
 1325              		.loc 1 1842 0
 1326 000c C2F88C00 		str	r0, [r2, #140]
 1327 0010 7047     		bx	lr
 1328              	.L126:
 1329 0012 00BF     		.align	2
 1330              	.L125:
 1331 0014 00380240 		.word	1073887232
 1332              		.cfi_endproc
 1333              	.LFE152:
 1334              		.size	RCC_LTDCCLKDivConfig, .-RCC_LTDCCLKDivConfig
 1335              		.section	.text.RCC_TIMCLKPresConfig,"ax",%progbits
 1336              		.align	2
 1337              		.p2align 4,,15
 1338              		.global	RCC_TIMCLKPresConfig
 1339              		.thumb
 1340              		.thumb_func
 1341              		.type	RCC_TIMCLKPresConfig, %function
 1342              	RCC_TIMCLKPresConfig:
 1343              	.LFB153:
 1344              		.loc 1 1864 0
 1345              		.cfi_startproc
 1346              		@ args = 0, pretend = 0, frame = 0
 1347              		@ frame_needed = 0, uses_anonymous_args = 0
 1348              		@ link register save eliminated.
 1349              	.LVL125:
 1350              		.loc 1 1868 0
 1351 0000 014B     		ldr	r3, .L128
 1352 0002 1860     		str	r0, [r3]
 1353 0004 7047     		bx	lr
 1354              	.L129:
 1355 0006 00BF     		.align	2
 1356              	.L128:
 1357 0008 E0114742 		.word	1111953888
 1358              		.cfi_endproc
 1359              	.LFE153:
 1360              		.size	RCC_TIMCLKPresConfig, .-RCC_TIMCLKPresConfig
 1361              		.section	.text.RCC_AHB1PeriphClockCmd,"ax",%progbits
 1362              		.align	2
 1363              		.p2align 4,,15
 1364              		.global	RCC_AHB1PeriphClockCmd
 1365              		.thumb
 1366              		.thumb_func
 1367              		.type	RCC_AHB1PeriphClockCmd, %function
 1368              	RCC_AHB1PeriphClockCmd:
ARM GAS  /var/folders/m4/4md61f0s1_g0rzfghffqnxvr0000gn/T//ccT17VZ9.s 			page 25


 1369              	.LFB154:
 1370              		.loc 1 1906 0
 1371              		.cfi_startproc
 1372              		@ args = 0, pretend = 0, frame = 0
 1373              		@ frame_needed = 0, uses_anonymous_args = 0
 1374              		@ link register save eliminated.
 1375              	.LVL126:
 1376              		.loc 1 1913 0
 1377 0000 044A     		ldr	r2, .L134
 1378 0002 136B     		ldr	r3, [r2, #48]
 1379              		.loc 1 1911 0
 1380 0004 19B9     		cbnz	r1, .L133
 1381              		.loc 1 1917 0
 1382 0006 23EA0000 		bic	r0, r3, r0
 1383              	.LVL127:
 1384 000a 1063     		str	r0, [r2, #48]
 1385 000c 7047     		bx	lr
 1386              	.LVL128:
 1387              	.L133:
 1388              		.loc 1 1913 0
 1389 000e 1843     		orrs	r0, r0, r3
 1390              	.LVL129:
 1391 0010 1063     		str	r0, [r2, #48]
 1392 0012 7047     		bx	lr
 1393              	.L135:
 1394              		.align	2
 1395              	.L134:
 1396 0014 00380240 		.word	1073887232
 1397              		.cfi_endproc
 1398              	.LFE154:
 1399              		.size	RCC_AHB1PeriphClockCmd, .-RCC_AHB1PeriphClockCmd
 1400              		.section	.text.RCC_AHB2PeriphClockCmd,"ax",%progbits
 1401              		.align	2
 1402              		.p2align 4,,15
 1403              		.global	RCC_AHB2PeriphClockCmd
 1404              		.thumb
 1405              		.thumb_func
 1406              		.type	RCC_AHB2PeriphClockCmd, %function
 1407              	RCC_AHB2PeriphClockCmd:
 1408              	.LFB155:
 1409              		.loc 1 1938 0
 1410              		.cfi_startproc
 1411              		@ args = 0, pretend = 0, frame = 0
 1412              		@ frame_needed = 0, uses_anonymous_args = 0
 1413              		@ link register save eliminated.
 1414              	.LVL130:
 1415              		.loc 1 1945 0
 1416 0000 044A     		ldr	r2, .L140
 1417 0002 536B     		ldr	r3, [r2, #52]
 1418              		.loc 1 1943 0
 1419 0004 19B9     		cbnz	r1, .L139
 1420              		.loc 1 1949 0
 1421 0006 23EA0000 		bic	r0, r3, r0
 1422              	.LVL131:
 1423 000a 5063     		str	r0, [r2, #52]
 1424 000c 7047     		bx	lr
 1425              	.LVL132:
ARM GAS  /var/folders/m4/4md61f0s1_g0rzfghffqnxvr0000gn/T//ccT17VZ9.s 			page 26


 1426              	.L139:
 1427              		.loc 1 1945 0
 1428 000e 1843     		orrs	r0, r0, r3
 1429              	.LVL133:
 1430 0010 5063     		str	r0, [r2, #52]
 1431 0012 7047     		bx	lr
 1432              	.L141:
 1433              		.align	2
 1434              	.L140:
 1435 0014 00380240 		.word	1073887232
 1436              		.cfi_endproc
 1437              	.LFE155:
 1438              		.size	RCC_AHB2PeriphClockCmd, .-RCC_AHB2PeriphClockCmd
 1439              		.section	.text.RCC_AHB3PeriphClockCmd,"ax",%progbits
 1440              		.align	2
 1441              		.p2align 4,,15
 1442              		.global	RCC_AHB3PeriphClockCmd
 1443              		.thumb
 1444              		.thumb_func
 1445              		.type	RCC_AHB3PeriphClockCmd, %function
 1446              	RCC_AHB3PeriphClockCmd:
 1447              	.LFB156:
 1448              		.loc 1 1968 0
 1449              		.cfi_startproc
 1450              		@ args = 0, pretend = 0, frame = 0
 1451              		@ frame_needed = 0, uses_anonymous_args = 0
 1452              		@ link register save eliminated.
 1453              	.LVL134:
 1454              		.loc 1 1975 0
 1455 0000 044A     		ldr	r2, .L146
 1456 0002 936B     		ldr	r3, [r2, #56]
 1457              		.loc 1 1973 0
 1458 0004 19B9     		cbnz	r1, .L145
 1459              		.loc 1 1979 0
 1460 0006 23EA0000 		bic	r0, r3, r0
 1461              	.LVL135:
 1462 000a 9063     		str	r0, [r2, #56]
 1463 000c 7047     		bx	lr
 1464              	.LVL136:
 1465              	.L145:
 1466              		.loc 1 1975 0
 1467 000e 1843     		orrs	r0, r0, r3
 1468              	.LVL137:
 1469 0010 9063     		str	r0, [r2, #56]
 1470 0012 7047     		bx	lr
 1471              	.L147:
 1472              		.align	2
 1473              	.L146:
 1474 0014 00380240 		.word	1073887232
 1475              		.cfi_endproc
 1476              	.LFE156:
 1477              		.size	RCC_AHB3PeriphClockCmd, .-RCC_AHB3PeriphClockCmd
 1478              		.section	.text.RCC_APB1PeriphClockCmd,"ax",%progbits
 1479              		.align	2
 1480              		.p2align 4,,15
 1481              		.global	RCC_APB1PeriphClockCmd
 1482              		.thumb
ARM GAS  /var/folders/m4/4md61f0s1_g0rzfghffqnxvr0000gn/T//ccT17VZ9.s 			page 27


 1483              		.thumb_func
 1484              		.type	RCC_APB1PeriphClockCmd, %function
 1485              	RCC_APB1PeriphClockCmd:
 1486              	.LFB157:
 1487              		.loc 1 2025 0
 1488              		.cfi_startproc
 1489              		@ args = 0, pretend = 0, frame = 0
 1490              		@ frame_needed = 0, uses_anonymous_args = 0
 1491              		@ link register save eliminated.
 1492              	.LVL138:
 1493              		.loc 1 2032 0
 1494 0000 044A     		ldr	r2, .L152
 1495 0002 136C     		ldr	r3, [r2, #64]
 1496              		.loc 1 2030 0
 1497 0004 19B9     		cbnz	r1, .L151
 1498              		.loc 1 2036 0
 1499 0006 23EA0000 		bic	r0, r3, r0
 1500              	.LVL139:
 1501 000a 1064     		str	r0, [r2, #64]
 1502 000c 7047     		bx	lr
 1503              	.LVL140:
 1504              	.L151:
 1505              		.loc 1 2032 0
 1506 000e 1843     		orrs	r0, r0, r3
 1507              	.LVL141:
 1508 0010 1064     		str	r0, [r2, #64]
 1509 0012 7047     		bx	lr
 1510              	.L153:
 1511              		.align	2
 1512              	.L152:
 1513 0014 00380240 		.word	1073887232
 1514              		.cfi_endproc
 1515              	.LFE157:
 1516              		.size	RCC_APB1PeriphClockCmd, .-RCC_APB1PeriphClockCmd
 1517              		.section	.text.RCC_APB2PeriphClockCmd,"ax",%progbits
 1518              		.align	2
 1519              		.p2align 4,,15
 1520              		.global	RCC_APB2PeriphClockCmd
 1521              		.thumb
 1522              		.thumb_func
 1523              		.type	RCC_APB2PeriphClockCmd, %function
 1524              	RCC_APB2PeriphClockCmd:
 1525              	.LFB158:
 1526              		.loc 1 2072 0
 1527              		.cfi_startproc
 1528              		@ args = 0, pretend = 0, frame = 0
 1529              		@ frame_needed = 0, uses_anonymous_args = 0
 1530              		@ link register save eliminated.
 1531              	.LVL142:
 1532              		.loc 1 2079 0
 1533 0000 044A     		ldr	r2, .L158
 1534 0002 536C     		ldr	r3, [r2, #68]
 1535              		.loc 1 2077 0
 1536 0004 19B9     		cbnz	r1, .L157
 1537              		.loc 1 2083 0
 1538 0006 23EA0000 		bic	r0, r3, r0
 1539              	.LVL143:
ARM GAS  /var/folders/m4/4md61f0s1_g0rzfghffqnxvr0000gn/T//ccT17VZ9.s 			page 28


 1540 000a 5064     		str	r0, [r2, #68]
 1541 000c 7047     		bx	lr
 1542              	.LVL144:
 1543              	.L157:
 1544              		.loc 1 2079 0
 1545 000e 1843     		orrs	r0, r0, r3
 1546              	.LVL145:
 1547 0010 5064     		str	r0, [r2, #68]
 1548 0012 7047     		bx	lr
 1549              	.L159:
 1550              		.align	2
 1551              	.L158:
 1552 0014 00380240 		.word	1073887232
 1553              		.cfi_endproc
 1554              	.LFE158:
 1555              		.size	RCC_APB2PeriphClockCmd, .-RCC_APB2PeriphClockCmd
 1556              		.section	.text.RCC_AHB1PeriphResetCmd,"ax",%progbits
 1557              		.align	2
 1558              		.p2align 4,,15
 1559              		.global	RCC_AHB1PeriphResetCmd
 1560              		.thumb
 1561              		.thumb_func
 1562              		.type	RCC_AHB1PeriphResetCmd, %function
 1563              	RCC_AHB1PeriphResetCmd:
 1564              	.LFB159:
 1565              		.loc 1 2115 0
 1566              		.cfi_startproc
 1567              		@ args = 0, pretend = 0, frame = 0
 1568              		@ frame_needed = 0, uses_anonymous_args = 0
 1569              		@ link register save eliminated.
 1570              	.LVL146:
 1571              		.loc 1 2122 0
 1572 0000 044A     		ldr	r2, .L164
 1573 0002 1369     		ldr	r3, [r2, #16]
 1574              		.loc 1 2120 0
 1575 0004 19B9     		cbnz	r1, .L163
 1576              		.loc 1 2126 0
 1577 0006 23EA0000 		bic	r0, r3, r0
 1578              	.LVL147:
 1579 000a 1061     		str	r0, [r2, #16]
 1580 000c 7047     		bx	lr
 1581              	.LVL148:
 1582              	.L163:
 1583              		.loc 1 2122 0
 1584 000e 1843     		orrs	r0, r0, r3
 1585              	.LVL149:
 1586 0010 1061     		str	r0, [r2, #16]
 1587 0012 7047     		bx	lr
 1588              	.L165:
 1589              		.align	2
 1590              	.L164:
 1591 0014 00380240 		.word	1073887232
 1592              		.cfi_endproc
 1593              	.LFE159:
 1594              		.size	RCC_AHB1PeriphResetCmd, .-RCC_AHB1PeriphResetCmd
 1595              		.section	.text.RCC_AHB2PeriphResetCmd,"ax",%progbits
 1596              		.align	2
ARM GAS  /var/folders/m4/4md61f0s1_g0rzfghffqnxvr0000gn/T//ccT17VZ9.s 			page 29


 1597              		.p2align 4,,15
 1598              		.global	RCC_AHB2PeriphResetCmd
 1599              		.thumb
 1600              		.thumb_func
 1601              		.type	RCC_AHB2PeriphResetCmd, %function
 1602              	RCC_AHB2PeriphResetCmd:
 1603              	.LFB160:
 1604              		.loc 1 2144 0
 1605              		.cfi_startproc
 1606              		@ args = 0, pretend = 0, frame = 0
 1607              		@ frame_needed = 0, uses_anonymous_args = 0
 1608              		@ link register save eliminated.
 1609              	.LVL150:
 1610              		.loc 1 2151 0
 1611 0000 044A     		ldr	r2, .L170
 1612 0002 5369     		ldr	r3, [r2, #20]
 1613              		.loc 1 2149 0
 1614 0004 19B9     		cbnz	r1, .L169
 1615              		.loc 1 2155 0
 1616 0006 23EA0000 		bic	r0, r3, r0
 1617              	.LVL151:
 1618 000a 5061     		str	r0, [r2, #20]
 1619 000c 7047     		bx	lr
 1620              	.LVL152:
 1621              	.L169:
 1622              		.loc 1 2151 0
 1623 000e 1843     		orrs	r0, r0, r3
 1624              	.LVL153:
 1625 0010 5061     		str	r0, [r2, #20]
 1626 0012 7047     		bx	lr
 1627              	.L171:
 1628              		.align	2
 1629              	.L170:
 1630 0014 00380240 		.word	1073887232
 1631              		.cfi_endproc
 1632              	.LFE160:
 1633              		.size	RCC_AHB2PeriphResetCmd, .-RCC_AHB2PeriphResetCmd
 1634              		.section	.text.RCC_AHB3PeriphResetCmd,"ax",%progbits
 1635              		.align	2
 1636              		.p2align 4,,15
 1637              		.global	RCC_AHB3PeriphResetCmd
 1638              		.thumb
 1639              		.thumb_func
 1640              		.type	RCC_AHB3PeriphResetCmd, %function
 1641              	RCC_AHB3PeriphResetCmd:
 1642              	.LFB161:
 1643              		.loc 1 2171 0
 1644              		.cfi_startproc
 1645              		@ args = 0, pretend = 0, frame = 0
 1646              		@ frame_needed = 0, uses_anonymous_args = 0
 1647              		@ link register save eliminated.
 1648              	.LVL154:
 1649              		.loc 1 2178 0
 1650 0000 044A     		ldr	r2, .L176
 1651 0002 9369     		ldr	r3, [r2, #24]
 1652              		.loc 1 2176 0
 1653 0004 19B9     		cbnz	r1, .L175
ARM GAS  /var/folders/m4/4md61f0s1_g0rzfghffqnxvr0000gn/T//ccT17VZ9.s 			page 30


 1654              		.loc 1 2182 0
 1655 0006 23EA0000 		bic	r0, r3, r0
 1656              	.LVL155:
 1657 000a 9061     		str	r0, [r2, #24]
 1658 000c 7047     		bx	lr
 1659              	.LVL156:
 1660              	.L175:
 1661              		.loc 1 2178 0
 1662 000e 1843     		orrs	r0, r0, r3
 1663              	.LVL157:
 1664 0010 9061     		str	r0, [r2, #24]
 1665 0012 7047     		bx	lr
 1666              	.L177:
 1667              		.align	2
 1668              	.L176:
 1669 0014 00380240 		.word	1073887232
 1670              		.cfi_endproc
 1671              	.LFE161:
 1672              		.size	RCC_AHB3PeriphResetCmd, .-RCC_AHB3PeriphResetCmd
 1673              		.section	.text.RCC_APB1PeriphResetCmd,"ax",%progbits
 1674              		.align	2
 1675              		.p2align 4,,15
 1676              		.global	RCC_APB1PeriphResetCmd
 1677              		.thumb
 1678              		.thumb_func
 1679              		.type	RCC_APB1PeriphResetCmd, %function
 1680              	RCC_APB1PeriphResetCmd:
 1681              	.LFB162:
 1682              		.loc 1 2225 0
 1683              		.cfi_startproc
 1684              		@ args = 0, pretend = 0, frame = 0
 1685              		@ frame_needed = 0, uses_anonymous_args = 0
 1686              		@ link register save eliminated.
 1687              	.LVL158:
 1688              		.loc 1 2231 0
 1689 0000 044A     		ldr	r2, .L182
 1690 0002 136A     		ldr	r3, [r2, #32]
 1691              		.loc 1 2229 0
 1692 0004 19B9     		cbnz	r1, .L181
 1693              		.loc 1 2235 0
 1694 0006 23EA0000 		bic	r0, r3, r0
 1695              	.LVL159:
 1696 000a 1062     		str	r0, [r2, #32]
 1697 000c 7047     		bx	lr
 1698              	.LVL160:
 1699              	.L181:
 1700              		.loc 1 2231 0
 1701 000e 1843     		orrs	r0, r0, r3
 1702              	.LVL161:
 1703 0010 1062     		str	r0, [r2, #32]
 1704 0012 7047     		bx	lr
 1705              	.L183:
 1706              		.align	2
 1707              	.L182:
 1708 0014 00380240 		.word	1073887232
 1709              		.cfi_endproc
 1710              	.LFE162:
ARM GAS  /var/folders/m4/4md61f0s1_g0rzfghffqnxvr0000gn/T//ccT17VZ9.s 			page 31


 1711              		.size	RCC_APB1PeriphResetCmd, .-RCC_APB1PeriphResetCmd
 1712              		.section	.text.RCC_APB2PeriphResetCmd,"ax",%progbits
 1713              		.align	2
 1714              		.p2align 4,,15
 1715              		.global	RCC_APB2PeriphResetCmd
 1716              		.thumb
 1717              		.thumb_func
 1718              		.type	RCC_APB2PeriphResetCmd, %function
 1719              	RCC_APB2PeriphResetCmd:
 1720              	.LFB163:
 1721              		.loc 1 2268 0
 1722              		.cfi_startproc
 1723              		@ args = 0, pretend = 0, frame = 0
 1724              		@ frame_needed = 0, uses_anonymous_args = 0
 1725              		@ link register save eliminated.
 1726              	.LVL162:
 1727              		.loc 1 2274 0
 1728 0000 044A     		ldr	r2, .L188
 1729 0002 536A     		ldr	r3, [r2, #36]
 1730              		.loc 1 2272 0
 1731 0004 19B9     		cbnz	r1, .L187
 1732              		.loc 1 2278 0
 1733 0006 23EA0000 		bic	r0, r3, r0
 1734              	.LVL163:
 1735 000a 5062     		str	r0, [r2, #36]
 1736 000c 7047     		bx	lr
 1737              	.LVL164:
 1738              	.L187:
 1739              		.loc 1 2274 0
 1740 000e 1843     		orrs	r0, r0, r3
 1741              	.LVL165:
 1742 0010 5062     		str	r0, [r2, #36]
 1743 0012 7047     		bx	lr
 1744              	.L189:
 1745              		.align	2
 1746              	.L188:
 1747 0014 00380240 		.word	1073887232
 1748              		.cfi_endproc
 1749              	.LFE163:
 1750              		.size	RCC_APB2PeriphResetCmd, .-RCC_APB2PeriphResetCmd
 1751              		.section	.text.RCC_AHB1PeriphClockLPModeCmd,"ax",%progbits
 1752              		.align	2
 1753              		.p2align 4,,15
 1754              		.global	RCC_AHB1PeriphClockLPModeCmd
 1755              		.thumb
 1756              		.thumb_func
 1757              		.type	RCC_AHB1PeriphClockLPModeCmd, %function
 1758              	RCC_AHB1PeriphClockLPModeCmd:
 1759              	.LFB164:
 1760              		.loc 1 2317 0
 1761              		.cfi_startproc
 1762              		@ args = 0, pretend = 0, frame = 0
 1763              		@ frame_needed = 0, uses_anonymous_args = 0
 1764              		@ link register save eliminated.
 1765              	.LVL166:
 1766              		.loc 1 2323 0
 1767 0000 044A     		ldr	r2, .L194
ARM GAS  /var/folders/m4/4md61f0s1_g0rzfghffqnxvr0000gn/T//ccT17VZ9.s 			page 32


 1768 0002 136D     		ldr	r3, [r2, #80]
 1769              		.loc 1 2321 0
 1770 0004 19B9     		cbnz	r1, .L193
 1771              		.loc 1 2327 0
 1772 0006 23EA0000 		bic	r0, r3, r0
 1773              	.LVL167:
 1774 000a 1065     		str	r0, [r2, #80]
 1775 000c 7047     		bx	lr
 1776              	.LVL168:
 1777              	.L193:
 1778              		.loc 1 2323 0
 1779 000e 1843     		orrs	r0, r0, r3
 1780              	.LVL169:
 1781 0010 1065     		str	r0, [r2, #80]
 1782 0012 7047     		bx	lr
 1783              	.L195:
 1784              		.align	2
 1785              	.L194:
 1786 0014 00380240 		.word	1073887232
 1787              		.cfi_endproc
 1788              	.LFE164:
 1789              		.size	RCC_AHB1PeriphClockLPModeCmd, .-RCC_AHB1PeriphClockLPModeCmd
 1790              		.section	.text.RCC_AHB2PeriphClockLPModeCmd,"ax",%progbits
 1791              		.align	2
 1792              		.p2align 4,,15
 1793              		.global	RCC_AHB2PeriphClockLPModeCmd
 1794              		.thumb
 1795              		.thumb_func
 1796              		.type	RCC_AHB2PeriphClockLPModeCmd, %function
 1797              	RCC_AHB2PeriphClockLPModeCmd:
 1798              	.LFB165:
 1799              		.loc 1 2349 0
 1800              		.cfi_startproc
 1801              		@ args = 0, pretend = 0, frame = 0
 1802              		@ frame_needed = 0, uses_anonymous_args = 0
 1803              		@ link register save eliminated.
 1804              	.LVL170:
 1805              		.loc 1 2355 0
 1806 0000 044A     		ldr	r2, .L200
 1807 0002 536D     		ldr	r3, [r2, #84]
 1808              		.loc 1 2353 0
 1809 0004 19B9     		cbnz	r1, .L199
 1810              		.loc 1 2359 0
 1811 0006 23EA0000 		bic	r0, r3, r0
 1812              	.LVL171:
 1813 000a 5065     		str	r0, [r2, #84]
 1814 000c 7047     		bx	lr
 1815              	.LVL172:
 1816              	.L199:
 1817              		.loc 1 2355 0
 1818 000e 1843     		orrs	r0, r0, r3
 1819              	.LVL173:
 1820 0010 5065     		str	r0, [r2, #84]
 1821 0012 7047     		bx	lr
 1822              	.L201:
 1823              		.align	2
 1824              	.L200:
ARM GAS  /var/folders/m4/4md61f0s1_g0rzfghffqnxvr0000gn/T//ccT17VZ9.s 			page 33


 1825 0014 00380240 		.word	1073887232
 1826              		.cfi_endproc
 1827              	.LFE165:
 1828              		.size	RCC_AHB2PeriphClockLPModeCmd, .-RCC_AHB2PeriphClockLPModeCmd
 1829              		.section	.text.RCC_AHB3PeriphClockLPModeCmd,"ax",%progbits
 1830              		.align	2
 1831              		.p2align 4,,15
 1832              		.global	RCC_AHB3PeriphClockLPModeCmd
 1833              		.thumb
 1834              		.thumb_func
 1835              		.type	RCC_AHB3PeriphClockLPModeCmd, %function
 1836              	RCC_AHB3PeriphClockLPModeCmd:
 1837              	.LFB166:
 1838              		.loc 1 2379 0
 1839              		.cfi_startproc
 1840              		@ args = 0, pretend = 0, frame = 0
 1841              		@ frame_needed = 0, uses_anonymous_args = 0
 1842              		@ link register save eliminated.
 1843              	.LVL174:
 1844              		.loc 1 2385 0
 1845 0000 044A     		ldr	r2, .L206
 1846 0002 936D     		ldr	r3, [r2, #88]
 1847              		.loc 1 2383 0
 1848 0004 19B9     		cbnz	r1, .L205
 1849              		.loc 1 2389 0
 1850 0006 23EA0000 		bic	r0, r3, r0
 1851              	.LVL175:
 1852 000a 9065     		str	r0, [r2, #88]
 1853 000c 7047     		bx	lr
 1854              	.LVL176:
 1855              	.L205:
 1856              		.loc 1 2385 0
 1857 000e 1843     		orrs	r0, r0, r3
 1858              	.LVL177:
 1859 0010 9065     		str	r0, [r2, #88]
 1860 0012 7047     		bx	lr
 1861              	.L207:
 1862              		.align	2
 1863              	.L206:
 1864 0014 00380240 		.word	1073887232
 1865              		.cfi_endproc
 1866              	.LFE166:
 1867              		.size	RCC_AHB3PeriphClockLPModeCmd, .-RCC_AHB3PeriphClockLPModeCmd
 1868              		.section	.text.RCC_APB1PeriphClockLPModeCmd,"ax",%progbits
 1869              		.align	2
 1870              		.p2align 4,,15
 1871              		.global	RCC_APB1PeriphClockLPModeCmd
 1872              		.thumb
 1873              		.thumb_func
 1874              		.type	RCC_APB1PeriphClockLPModeCmd, %function
 1875              	RCC_APB1PeriphClockLPModeCmd:
 1876              	.LFB167:
 1877              		.loc 1 2436 0
 1878              		.cfi_startproc
 1879              		@ args = 0, pretend = 0, frame = 0
 1880              		@ frame_needed = 0, uses_anonymous_args = 0
 1881              		@ link register save eliminated.
ARM GAS  /var/folders/m4/4md61f0s1_g0rzfghffqnxvr0000gn/T//ccT17VZ9.s 			page 34


 1882              	.LVL178:
 1883              		.loc 1 2442 0
 1884 0000 044A     		ldr	r2, .L212
 1885 0002 136E     		ldr	r3, [r2, #96]
 1886              		.loc 1 2440 0
 1887 0004 19B9     		cbnz	r1, .L211
 1888              		.loc 1 2446 0
 1889 0006 23EA0000 		bic	r0, r3, r0
 1890              	.LVL179:
 1891 000a 1066     		str	r0, [r2, #96]
 1892 000c 7047     		bx	lr
 1893              	.LVL180:
 1894              	.L211:
 1895              		.loc 1 2442 0
 1896 000e 1843     		orrs	r0, r0, r3
 1897              	.LVL181:
 1898 0010 1066     		str	r0, [r2, #96]
 1899 0012 7047     		bx	lr
 1900              	.L213:
 1901              		.align	2
 1902              	.L212:
 1903 0014 00380240 		.word	1073887232
 1904              		.cfi_endproc
 1905              	.LFE167:
 1906              		.size	RCC_APB1PeriphClockLPModeCmd, .-RCC_APB1PeriphClockLPModeCmd
 1907              		.section	.text.RCC_APB2PeriphClockLPModeCmd,"ax",%progbits
 1908              		.align	2
 1909              		.p2align 4,,15
 1910              		.global	RCC_APB2PeriphClockLPModeCmd
 1911              		.thumb
 1912              		.thumb_func
 1913              		.type	RCC_APB2PeriphClockLPModeCmd, %function
 1914              	RCC_APB2PeriphClockLPModeCmd:
 1915              	.LFB168:
 1916              		.loc 1 2483 0
 1917              		.cfi_startproc
 1918              		@ args = 0, pretend = 0, frame = 0
 1919              		@ frame_needed = 0, uses_anonymous_args = 0
 1920              		@ link register save eliminated.
 1921              	.LVL182:
 1922              		.loc 1 2489 0
 1923 0000 044A     		ldr	r2, .L218
 1924 0002 536E     		ldr	r3, [r2, #100]
 1925              		.loc 1 2487 0
 1926 0004 19B9     		cbnz	r1, .L217
 1927              		.loc 1 2493 0
 1928 0006 23EA0000 		bic	r0, r3, r0
 1929              	.LVL183:
 1930 000a 5066     		str	r0, [r2, #100]
 1931 000c 7047     		bx	lr
 1932              	.LVL184:
 1933              	.L217:
 1934              		.loc 1 2489 0
 1935 000e 1843     		orrs	r0, r0, r3
 1936              	.LVL185:
 1937 0010 5066     		str	r0, [r2, #100]
 1938 0012 7047     		bx	lr
ARM GAS  /var/folders/m4/4md61f0s1_g0rzfghffqnxvr0000gn/T//ccT17VZ9.s 			page 35


 1939              	.L219:
 1940              		.align	2
 1941              	.L218:
 1942 0014 00380240 		.word	1073887232
 1943              		.cfi_endproc
 1944              	.LFE168:
 1945              		.size	RCC_APB2PeriphClockLPModeCmd, .-RCC_APB2PeriphClockLPModeCmd
 1946              		.section	.text.RCC_LSEModeConfig,"ax",%progbits
 1947              		.align	2
 1948              		.p2align 4,,15
 1949              		.global	RCC_LSEModeConfig
 1950              		.thumb
 1951              		.thumb_func
 1952              		.type	RCC_LSEModeConfig, %function
 1953              	RCC_LSEModeConfig:
 1954              	.LFB169:
 1955              		.loc 1 2507 0
 1956              		.cfi_startproc
 1957              		@ args = 0, pretend = 0, frame = 0
 1958              		@ frame_needed = 0, uses_anonymous_args = 0
 1959              		@ link register save eliminated.
 1960              	.LVL186:
 1961              		.loc 1 2513 0
 1962 0000 044A     		ldr	r2, .L223
 1963 0002 136F     		ldr	r3, [r2, #112]
 1964              		.loc 1 2511 0
 1965 0004 0128     		cmp	r0, #1
 1966              		.loc 1 2513 0
 1967 0006 0CBF     		ite	eq
 1968 0008 43F00803 		orreq	r3, r3, #8
 1969              		.loc 1 2517 0
 1970 000c 23F00803 		bicne	r3, r3, #8
 1971 0010 1367     		str	r3, [r2, #112]
 1972 0012 7047     		bx	lr
 1973              	.L224:
 1974              		.align	2
 1975              	.L223:
 1976 0014 00380240 		.word	1073887232
 1977              		.cfi_endproc
 1978              	.LFE169:
 1979              		.size	RCC_LSEModeConfig, .-RCC_LSEModeConfig
 1980              		.section	.text.RCC_48MHzClockSourceConfig,"ax",%progbits
 1981              		.align	2
 1982              		.p2align 4,,15
 1983              		.global	RCC_48MHzClockSourceConfig
 1984              		.thumb
 1985              		.thumb_func
 1986              		.type	RCC_48MHzClockSourceConfig, %function
 1987              	RCC_48MHzClockSourceConfig:
 1988              	.LFB170:
 1989              		.loc 1 2582 0
 1990              		.cfi_startproc
 1991              		@ args = 0, pretend = 0, frame = 0
 1992              		@ frame_needed = 0, uses_anonymous_args = 0
 1993              		@ link register save eliminated.
 1994              	.LVL187:
 1995              		.loc 1 2597 0
ARM GAS  /var/folders/m4/4md61f0s1_g0rzfghffqnxvr0000gn/T//ccT17VZ9.s 			page 36


 1996 0000 054A     		ldr	r2, .L228
 1997 0002 D2F89430 		ldr	r3, [r2, #148]
 1998              		.loc 1 2595 0
 1999 0006 0128     		cmp	r0, #1
 2000              		.loc 1 2597 0
 2001 0008 0CBF     		ite	eq
 2002 000a 43F00063 		orreq	r3, r3, #134217728
 2003              		.loc 1 2601 0
 2004 000e 23F00063 		bicne	r3, r3, #134217728
 2005 0012 C2F89430 		str	r3, [r2, #148]
 2006 0016 7047     		bx	lr
 2007              	.L229:
 2008              		.align	2
 2009              	.L228:
 2010 0018 00380240 		.word	1073887232
 2011              		.cfi_endproc
 2012              	.LFE170:
 2013              		.size	RCC_48MHzClockSourceConfig, .-RCC_48MHzClockSourceConfig
 2014              		.section	.text.RCC_SDIOClockSourceConfig,"ax",%progbits
 2015              		.align	2
 2016              		.p2align 4,,15
 2017              		.global	RCC_SDIOClockSourceConfig
 2018              		.thumb
 2019              		.thumb_func
 2020              		.type	RCC_SDIOClockSourceConfig, %function
 2021              	RCC_SDIOClockSourceConfig:
 2022              	.LFB171:
 2023              		.loc 1 2617 0
 2024              		.cfi_startproc
 2025              		@ args = 0, pretend = 0, frame = 0
 2026              		@ frame_needed = 0, uses_anonymous_args = 0
 2027              		@ link register save eliminated.
 2028              	.LVL188:
 2029              		.loc 1 2632 0
 2030 0000 054A     		ldr	r2, .L233
 2031 0002 D2F89430 		ldr	r3, [r2, #148]
 2032              		.loc 1 2630 0
 2033 0006 0128     		cmp	r0, #1
 2034              		.loc 1 2632 0
 2035 0008 0CBF     		ite	eq
 2036 000a 43F08053 		orreq	r3, r3, #268435456
 2037              		.loc 1 2636 0
 2038 000e 23F08053 		bicne	r3, r3, #268435456
 2039 0012 C2F89430 		str	r3, [r2, #148]
 2040 0016 7047     		bx	lr
 2041              	.L234:
 2042              		.align	2
 2043              	.L233:
 2044 0018 00380240 		.word	1073887232
 2045              		.cfi_endproc
 2046              	.LFE171:
 2047              		.size	RCC_SDIOClockSourceConfig, .-RCC_SDIOClockSourceConfig
 2048              		.section	.text.RCC_AHB1ClockGatingCmd,"ax",%progbits
 2049              		.align	2
 2050              		.p2align 4,,15
 2051              		.global	RCC_AHB1ClockGatingCmd
 2052              		.thumb
ARM GAS  /var/folders/m4/4md61f0s1_g0rzfghffqnxvr0000gn/T//ccT17VZ9.s 			page 37


 2053              		.thumb_func
 2054              		.type	RCC_AHB1ClockGatingCmd, %function
 2055              	RCC_AHB1ClockGatingCmd:
 2056              	.LFB172:
 2057              		.loc 1 2661 0
 2058              		.cfi_startproc
 2059              		@ args = 0, pretend = 0, frame = 0
 2060              		@ frame_needed = 0, uses_anonymous_args = 0
 2061              		@ link register save eliminated.
 2062              	.LVL189:
 2063              		.loc 1 2668 0
 2064 0000 064A     		ldr	r2, .L239
 2065 0002 D2F89030 		ldr	r3, [r2, #144]
 2066              		.loc 1 2666 0
 2067 0006 19B9     		cbnz	r1, .L238
 2068              		.loc 1 2672 0
 2069 0008 1843     		orrs	r0, r0, r3
 2070              	.LVL190:
 2071 000a C2F89000 		str	r0, [r2, #144]
 2072 000e 7047     		bx	lr
 2073              	.LVL191:
 2074              	.L238:
 2075              		.loc 1 2668 0
 2076 0010 23EA0000 		bic	r0, r3, r0
 2077              	.LVL192:
 2078 0014 C2F89000 		str	r0, [r2, #144]
 2079 0018 7047     		bx	lr
 2080              	.L240:
 2081 001a 00BF     		.align	2
 2082              	.L239:
 2083 001c 00380240 		.word	1073887232
 2084              		.cfi_endproc
 2085              	.LFE172:
 2086              		.size	RCC_AHB1ClockGatingCmd, .-RCC_AHB1ClockGatingCmd
 2087              		.section	.text.RCC_SPDIFRXClockSourceConfig,"ax",%progbits
 2088              		.align	2
 2089              		.p2align 4,,15
 2090              		.global	RCC_SPDIFRXClockSourceConfig
 2091              		.thumb
 2092              		.thumb_func
 2093              		.type	RCC_SPDIFRXClockSourceConfig, %function
 2094              	RCC_SPDIFRXClockSourceConfig:
 2095              	.LFB173:
 2096              		.loc 1 2686 0
 2097              		.cfi_startproc
 2098              		@ args = 0, pretend = 0, frame = 0
 2099              		@ frame_needed = 0, uses_anonymous_args = 0
 2100              		@ link register save eliminated.
 2101              	.LVL193:
 2102              		.loc 1 2692 0
 2103 0000 054A     		ldr	r2, .L244
 2104 0002 D2F89430 		ldr	r3, [r2, #148]
 2105              		.loc 1 2690 0
 2106 0006 0128     		cmp	r0, #1
 2107              		.loc 1 2692 0
 2108 0008 0CBF     		ite	eq
 2109 000a 43F00053 		orreq	r3, r3, #536870912
ARM GAS  /var/folders/m4/4md61f0s1_g0rzfghffqnxvr0000gn/T//ccT17VZ9.s 			page 38


 2110              		.loc 1 2696 0
 2111 000e 23F00053 		bicne	r3, r3, #536870912
 2112 0012 C2F89430 		str	r3, [r2, #148]
 2113 0016 7047     		bx	lr
 2114              	.L245:
 2115              		.align	2
 2116              	.L244:
 2117 0018 00380240 		.word	1073887232
 2118              		.cfi_endproc
 2119              	.LFE173:
 2120              		.size	RCC_SPDIFRXClockSourceConfig, .-RCC_SPDIFRXClockSourceConfig
 2121              		.section	.text.RCC_CECClockSourceConfig,"ax",%progbits
 2122              		.align	2
 2123              		.p2align 4,,15
 2124              		.global	RCC_CECClockSourceConfig
 2125              		.thumb
 2126              		.thumb_func
 2127              		.type	RCC_CECClockSourceConfig, %function
 2128              	RCC_CECClockSourceConfig:
 2129              	.LFB174:
 2130              		.loc 1 2710 0
 2131              		.cfi_startproc
 2132              		@ args = 0, pretend = 0, frame = 0
 2133              		@ frame_needed = 0, uses_anonymous_args = 0
 2134              		@ link register save eliminated.
 2135              	.LVL194:
 2136              		.loc 1 2716 0
 2137 0000 054A     		ldr	r2, .L249
 2138 0002 D2F89430 		ldr	r3, [r2, #148]
 2139              		.loc 1 2714 0
 2140 0006 0128     		cmp	r0, #1
 2141              		.loc 1 2716 0
 2142 0008 0CBF     		ite	eq
 2143 000a 43F08063 		orreq	r3, r3, #67108864
 2144              		.loc 1 2720 0
 2145 000e 23F08063 		bicne	r3, r3, #67108864
 2146 0012 C2F89430 		str	r3, [r2, #148]
 2147 0016 7047     		bx	lr
 2148              	.L250:
 2149              		.align	2
 2150              	.L249:
 2151 0018 00380240 		.word	1073887232
 2152              		.cfi_endproc
 2153              	.LFE174:
 2154              		.size	RCC_CECClockSourceConfig, .-RCC_CECClockSourceConfig
 2155              		.section	.text.RCC_FMPI2C1ClockSourceConfig,"ax",%progbits
 2156              		.align	2
 2157              		.p2align 4,,15
 2158              		.global	RCC_FMPI2C1ClockSourceConfig
 2159              		.thumb
 2160              		.thumb_func
 2161              		.type	RCC_FMPI2C1ClockSourceConfig, %function
 2162              	RCC_FMPI2C1ClockSourceConfig:
 2163              	.LFB175:
 2164              		.loc 1 2737 0
 2165              		.cfi_startproc
 2166              		@ args = 0, pretend = 0, frame = 0
ARM GAS  /var/folders/m4/4md61f0s1_g0rzfghffqnxvr0000gn/T//ccT17VZ9.s 			page 39


 2167              		@ frame_needed = 0, uses_anonymous_args = 0
 2168              		@ link register save eliminated.
 2169              	.LVL195:
 2170              		.loc 1 2742 0
 2171 0000 064B     		ldr	r3, .L252
 2172 0002 D3F89420 		ldr	r2, [r3, #148]
 2173 0006 22F44002 		bic	r2, r2, #12582912
 2174 000a C3F89420 		str	r2, [r3, #148]
 2175              		.loc 1 2744 0
 2176 000e D3F89420 		ldr	r2, [r3, #148]
 2177 0012 1043     		orrs	r0, r0, r2
 2178              	.LVL196:
 2179 0014 C3F89400 		str	r0, [r3, #148]
 2180 0018 7047     		bx	lr
 2181              	.L253:
 2182 001a 00BF     		.align	2
 2183              	.L252:
 2184 001c 00380240 		.word	1073887232
 2185              		.cfi_endproc
 2186              	.LFE175:
 2187              		.size	RCC_FMPI2C1ClockSourceConfig, .-RCC_FMPI2C1ClockSourceConfig
 2188              		.section	.text.RCC_ITConfig,"ax",%progbits
 2189              		.align	2
 2190              		.p2align 4,,15
 2191              		.global	RCC_ITConfig
 2192              		.thumb
 2193              		.thumb_func
 2194              		.type	RCC_ITConfig, %function
 2195              	RCC_ITConfig:
 2196              	.LFB176:
 2197              		.loc 1 2809 0
 2198              		.cfi_startproc
 2199              		@ args = 0, pretend = 0, frame = 0
 2200              		@ frame_needed = 0, uses_anonymous_args = 0
 2201              		@ link register save eliminated.
 2202              	.LVL197:
 2203              		.loc 1 2816 0
 2204 0000 044A     		ldr	r2, .L258
 2205 0002 1378     		ldrb	r3, [r2]	@ zero_extendqisi2
 2206              		.loc 1 2813 0
 2207 0004 19B9     		cbnz	r1, .L257
 2208              		.loc 1 2821 0
 2209 0006 23EA0000 		bic	r0, r3, r0
 2210              	.LVL198:
 2211 000a 1070     		strb	r0, [r2]
 2212 000c 7047     		bx	lr
 2213              	.LVL199:
 2214              	.L257:
 2215              		.loc 1 2816 0
 2216 000e 1843     		orrs	r0, r0, r3
 2217              	.LVL200:
 2218 0010 1070     		strb	r0, [r2]
 2219 0012 7047     		bx	lr
 2220              	.L259:
 2221              		.align	2
 2222              	.L258:
 2223 0014 0D380240 		.word	1073887245
ARM GAS  /var/folders/m4/4md61f0s1_g0rzfghffqnxvr0000gn/T//ccT17VZ9.s 			page 40


 2224              		.cfi_endproc
 2225              	.LFE176:
 2226              		.size	RCC_ITConfig, .-RCC_ITConfig
 2227              		.section	.text.RCC_GetFlagStatus,"ax",%progbits
 2228              		.align	2
 2229              		.p2align 4,,15
 2230              		.global	RCC_GetFlagStatus
 2231              		.thumb
 2232              		.thumb_func
 2233              		.type	RCC_GetFlagStatus, %function
 2234              	RCC_GetFlagStatus:
 2235              	.LFB177:
 2236              		.loc 1 2846 0
 2237              		.cfi_startproc
 2238              		@ args = 0, pretend = 0, frame = 0
 2239              		@ frame_needed = 0, uses_anonymous_args = 0
 2240              		@ link register save eliminated.
 2241              	.LVL201:
 2242              		.loc 1 2855 0
 2243 0000 4309     		lsrs	r3, r0, #5
 2244              	.LVL202:
 2245              		.loc 1 2856 0
 2246 0002 012B     		cmp	r3, #1
 2247 0004 0BD0     		beq	.L264
 2248              		.loc 1 2860 0
 2249 0006 022B     		cmp	r3, #2
 2250              		.loc 1 2862 0
 2251 0008 094B     		ldr	r3, .L265
 2252              	.LVL203:
 2253 000a 0CBF     		ite	eq
 2254 000c 1A6F     		ldreq	r2, [r3, #112]
 2255              	.LVL204:
 2256              		.loc 1 2866 0
 2257 000e 5A6F     		ldrne	r2, [r3, #116]
 2258              	.LVL205:
 2259              		.loc 1 2871 0
 2260 0010 00F01F03 		and	r3, r0, #31
 2261 0014 22FA03F0 		lsr	r0, r2, r3
 2262              	.LVL206:
 2263              		.loc 1 2881 0
 2264 0018 00F00100 		and	r0, r0, #1
 2265 001c 7047     		bx	lr
 2266              	.LVL207:
 2267              	.L264:
 2268              		.loc 1 2858 0
 2269 001e 044B     		ldr	r3, .L265
 2270              	.LVL208:
 2271 0020 1A68     		ldr	r2, [r3]
 2272              	.LVL209:
 2273              		.loc 1 2871 0
 2274 0022 00F01F03 		and	r3, r0, #31
 2275 0026 22FA03F0 		lsr	r0, r2, r3
 2276              	.LVL210:
 2277              		.loc 1 2881 0
 2278 002a 00F00100 		and	r0, r0, #1
 2279 002e 7047     		bx	lr
 2280              	.L266:
ARM GAS  /var/folders/m4/4md61f0s1_g0rzfghffqnxvr0000gn/T//ccT17VZ9.s 			page 41


 2281              		.align	2
 2282              	.L265:
 2283 0030 00380240 		.word	1073887232
 2284              		.cfi_endproc
 2285              	.LFE177:
 2286              		.size	RCC_GetFlagStatus, .-RCC_GetFlagStatus
 2287              		.section	.text.RCC_ClearFlag,"ax",%progbits
 2288              		.align	2
 2289              		.p2align 4,,15
 2290              		.global	RCC_ClearFlag
 2291              		.thumb
 2292              		.thumb_func
 2293              		.type	RCC_ClearFlag, %function
 2294              	RCC_ClearFlag:
 2295              	.LFB178:
 2296              		.loc 1 2891 0
 2297              		.cfi_startproc
 2298              		@ args = 0, pretend = 0, frame = 0
 2299              		@ frame_needed = 0, uses_anonymous_args = 0
 2300              		@ link register save eliminated.
 2301              		.loc 1 2893 0
 2302 0000 024A     		ldr	r2, .L268
 2303 0002 536F     		ldr	r3, [r2, #116]
 2304 0004 43F08073 		orr	r3, r3, #16777216
 2305 0008 5367     		str	r3, [r2, #116]
 2306 000a 7047     		bx	lr
 2307              	.L269:
 2308              		.align	2
 2309              	.L268:
 2310 000c 00380240 		.word	1073887232
 2311              		.cfi_endproc
 2312              	.LFE178:
 2313              		.size	RCC_ClearFlag, .-RCC_ClearFlag
 2314              		.section	.text.RCC_GetITStatus,"ax",%progbits
 2315              		.align	2
 2316              		.p2align 4,,15
 2317              		.global	RCC_GetITStatus
 2318              		.thumb
 2319              		.thumb_func
 2320              		.type	RCC_GetITStatus, %function
 2321              	RCC_GetITStatus:
 2322              	.LFB179:
 2323              		.loc 1 2911 0
 2324              		.cfi_startproc
 2325              		@ args = 0, pretend = 0, frame = 0
 2326              		@ frame_needed = 0, uses_anonymous_args = 0
 2327              		@ link register save eliminated.
 2328              	.LVL211:
 2329              		.loc 1 2918 0
 2330 0000 034B     		ldr	r3, .L271
 2331 0002 DB68     		ldr	r3, [r3, #12]
 2332              	.LVL212:
 2333 0004 1842     		tst	r0, r3
 2334              		.loc 1 2928 0
 2335 0006 14BF     		ite	ne
 2336 0008 0120     		movne	r0, #1
 2337              	.LVL213:
ARM GAS  /var/folders/m4/4md61f0s1_g0rzfghffqnxvr0000gn/T//ccT17VZ9.s 			page 42


 2338 000a 0020     		moveq	r0, #0
 2339 000c 7047     		bx	lr
 2340              	.L272:
 2341 000e 00BF     		.align	2
 2342              	.L271:
 2343 0010 00380240 		.word	1073887232
 2344              		.cfi_endproc
 2345              	.LFE179:
 2346              		.size	RCC_GetITStatus, .-RCC_GetITStatus
 2347              		.section	.text.RCC_ClearITPendingBit,"ax",%progbits
 2348              		.align	2
 2349              		.p2align 4,,15
 2350              		.global	RCC_ClearITPendingBit
 2351              		.thumb
 2352              		.thumb_func
 2353              		.type	RCC_ClearITPendingBit, %function
 2354              	RCC_ClearITPendingBit:
 2355              	.LFB180:
 2356              		.loc 1 2945 0
 2357              		.cfi_startproc
 2358              		@ args = 0, pretend = 0, frame = 0
 2359              		@ frame_needed = 0, uses_anonymous_args = 0
 2360              		@ link register save eliminated.
 2361              	.LVL214:
 2362              		.loc 1 2951 0
 2363 0000 014B     		ldr	r3, .L274
 2364 0002 1870     		strb	r0, [r3]
 2365 0004 7047     		bx	lr
 2366              	.L275:
 2367 0006 00BF     		.align	2
 2368              	.L274:
 2369 0008 0E380240 		.word	1073887246
 2370              		.cfi_endproc
 2371              	.LFE180:
 2372              		.size	RCC_ClearITPendingBit, .-RCC_ClearITPendingBit
 2373              		.section	.data.APBAHBPrescTable,"aw",%progbits
 2374              		.align	2
 2375              		.set	.LANCHOR0,. + 0
 2376              		.type	APBAHBPrescTable, %object
 2377              		.size	APBAHBPrescTable, 16
 2378              	APBAHBPrescTable:
 2379 0000 00       		.byte	0
 2380 0001 00       		.byte	0
 2381 0002 00       		.byte	0
 2382 0003 00       		.byte	0
 2383 0004 01       		.byte	1
 2384 0005 02       		.byte	2
 2385 0006 03       		.byte	3
 2386 0007 04       		.byte	4
 2387 0008 01       		.byte	1
 2388 0009 02       		.byte	2
 2389 000a 03       		.byte	3
 2390 000b 04       		.byte	4
 2391 000c 06       		.byte	6
 2392 000d 07       		.byte	7
 2393 000e 08       		.byte	8
 2394 000f 09       		.byte	9
ARM GAS  /var/folders/m4/4md61f0s1_g0rzfghffqnxvr0000gn/T//ccT17VZ9.s 			page 43


 2395              		.text
 2396              	.Letext0:
 2397              		.file 2 "/usr/local/Cellar/gcc-arm-none-eabi-49/20150609/arm-none-eabi/include/machine/_default_ty
 2398              		.file 3 "/usr/local/Cellar/gcc-arm-none-eabi-49/20150609/arm-none-eabi/include/sys/_stdint.h"
 2399              		.file 4 "ChibiOS_16.1.4/os/ext/CMSIS/ST/STM32F4xx/stm32f446xx.h"
 2400              		.file 5 "ChibiOS_16.1.4/os/ext/CMSIS/ST/STM32F4xx/stm32f4xx.h"
 2401              		.file 6 "ChibiOS_16.1.4/ext/stdperiph_stm32f4/inc/stm32f4xx_rcc.h"
 2402              		.file 7 "ChibiOS_16.1.4/os/ext/CMSIS/include/core_cm4.h"