ARM GAS  /var/folders/m4/4md61f0s1_g0rzfghffqnxvr0000gn/T//ccNSbQRa.s 			page 1


   1              		.syntax unified
   2              		.cpu cortex-m4
   3              		.eabi_attribute 27, 1
   4              		.eabi_attribute 28, 1
   5              		.fpu fpv4-sp-d16
   6              		.eabi_attribute 20, 1
   7              		.eabi_attribute 21, 1
   8              		.eabi_attribute 23, 3
   9              		.eabi_attribute 24, 1
  10              		.eabi_attribute 25, 1
  11              		.eabi_attribute 26, 1
  12              		.eabi_attribute 30, 2
  13              		.eabi_attribute 34, 1
  14              		.eabi_attribute 18, 4
  15              		.thumb
  16              		.file	"stm32f4xx_exti.c"
  17              		.text
  18              	.Ltext0:
  19              		.cfi_sections	.debug_frame
  20              		.section	.text.EXTI_DeInit,"ax",%progbits
  21              		.align	2
  22              		.p2align 4,,15
  23              		.global	EXTI_DeInit
  24              		.thumb
  25              		.thumb_func
  26              		.type	EXTI_DeInit, %function
  27              	EXTI_DeInit:
  28              	.LFB123:
  29              		.file 1 "ChibiOS_16.1.4/ext/stdperiph_stm32f4/src/stm32f4xx_exti.c"
  30              		.loc 1 111 0
  31              		.cfi_startproc
  32              		@ args = 0, pretend = 0, frame = 0
  33              		@ frame_needed = 0, uses_anonymous_args = 0
  34              		@ link register save eliminated.
  35              		.loc 1 112 0
  36 0000 044B     		ldr	r3, .L2
  37              		.loc 1 116 0
  38 0002 0549     		ldr	r1, .L2+4
  39              		.loc 1 112 0
  40 0004 0022     		movs	r2, #0
  41 0006 1A60     		str	r2, [r3]
  42              		.loc 1 113 0
  43 0008 5A60     		str	r2, [r3, #4]
  44              		.loc 1 114 0
  45 000a 9A60     		str	r2, [r3, #8]
  46              		.loc 1 115 0
  47 000c DA60     		str	r2, [r3, #12]
  48              		.loc 1 116 0
  49 000e 5961     		str	r1, [r3, #20]
  50 0010 7047     		bx	lr
  51              	.L3:
  52 0012 00BF     		.align	2
  53              	.L2:
  54 0014 003C0140 		.word	1073822720
  55 0018 FFFF7F00 		.word	8388607
  56              		.cfi_endproc
  57              	.LFE123:
ARM GAS  /var/folders/m4/4md61f0s1_g0rzfghffqnxvr0000gn/T//ccNSbQRa.s 			page 2


  58              		.size	EXTI_DeInit, .-EXTI_DeInit
  59              		.section	.text.EXTI_Init,"ax",%progbits
  60              		.align	2
  61              		.p2align 4,,15
  62              		.global	EXTI_Init
  63              		.thumb
  64              		.thumb_func
  65              		.type	EXTI_Init, %function
  66              	EXTI_Init:
  67              	.LFB124:
  68              		.loc 1 127 0
  69              		.cfi_startproc
  70              		@ args = 0, pretend = 0, frame = 0
  71              		@ frame_needed = 0, uses_anonymous_args = 0
  72              	.LVL0:
  73 0000 F8B5     		push	{r3, r4, r5, r6, r7, lr}
  74              		.cfi_def_cfa_offset 24
  75              		.cfi_offset 3, -24
  76              		.cfi_offset 4, -20
  77              		.cfi_offset 5, -16
  78              		.cfi_offset 6, -12
  79              		.cfi_offset 7, -8
  80              		.cfi_offset 14, -4
  81              		.loc 1 131 0
  82 0002 0379     		ldrb	r3, [r0, #4]	@ zero_extendqisi2
  83              		.loc 1 127 0
  84 0004 0446     		mov	r4, r0
  85              		.loc 1 131 0
  86 0006 13F0FB0F 		tst	r3, #251
  87 000a 0CBF     		ite	eq
  88 000c 0120     		moveq	r0, #1
  89              	.LVL1:
  90 000e 0020     		movne	r0, #0
  91 0010 FFF7FEFF 		bl	assert_param
  92              	.LVL2:
  93              		.loc 1 132 0
  94 0014 6079     		ldrb	r0, [r4, #5]	@ zero_extendqisi2
  95 0016 00F0FB03 		and	r3, r0, #251
  96 001a 082B     		cmp	r3, #8
  97 001c 17BF     		itett	ne
  98 001e 1038     		subne	r0, #16
  99 0020 0120     		moveq	r0, #1
 100 0022 B0FA80F0 		clzne	r0, r0
 101 0026 4009     		lsrne	r0, r0, #5
 102 0028 FFF7FEFF 		bl	assert_param
 103              	.LVL3:
 104              		.loc 1 133 0
 105 002c 2068     		ldr	r0, [r4]
 106 002e C30D     		lsrs	r3, r0, #23
 107 0030 DB05     		lsls	r3, r3, #23
 108 0032 002B     		cmp	r3, #0
 109 0034 32D1     		bne	.L11
 110              		.loc 1 133 0 is_stmt 0 discriminator 1
 111 0036 0030     		adds	r0, r0, #0
 112 0038 18BF     		it	ne
 113 003a 0120     		movne	r0, #1
 114              	.L6:
ARM GAS  /var/folders/m4/4md61f0s1_g0rzfghffqnxvr0000gn/T//ccNSbQRa.s 			page 3


 115              		.loc 1 133 0 discriminator 6
 116 003c FFF7FEFF 		bl	assert_param
 117              	.LVL4:
 118              		.loc 1 134 0 is_stmt 1 discriminator 6
 119 0040 A079     		ldrb	r0, [r4, #6]	@ zero_extendqisi2
 120 0042 0128     		cmp	r0, #1
 121 0044 8CBF     		ite	hi
 122 0046 0020     		movhi	r0, #0
 123 0048 0120     		movls	r0, #1
 124 004a FFF7FEFF 		bl	assert_param
 125              	.LVL5:
 126              		.loc 1 138 0 discriminator 6
 127 004e A379     		ldrb	r3, [r4, #6]	@ zero_extendqisi2
 128 0050 33B3     		cbz	r3, .L7
 129              		.loc 1 141 0
 130 0052 1C4B     		ldr	r3, .L15
 131 0054 2068     		ldr	r0, [r4]
 132 0056 1E68     		ldr	r6, [r3]
 133              		.loc 1 144 0
 134 0058 2279     		ldrb	r2, [r4, #4]	@ zero_extendqisi2
 135              		.loc 1 153 0
 136 005a 6179     		ldrb	r1, [r4, #5]	@ zero_extendqisi2
 137              		.loc 1 141 0
 138 005c C743     		mvns	r7, r0
 139 005e 3E40     		ands	r6, r6, r7
 140 0060 1E60     		str	r6, [r3]
 141              		.loc 1 142 0
 142 0062 5D68     		ldr	r5, [r3, #4]
 143              		.loc 1 144 0
 144 0064 02F18042 		add	r2, r2, #1073741824
 145 0068 02F59E32 		add	r2, r2, #80896
 146              		.loc 1 142 0
 147 006c 3D40     		ands	r5, r5, r7
 148 006e 5D60     		str	r5, [r3, #4]
 149              	.LVL6:
 150              		.loc 1 146 0
 151 0070 1568     		ldr	r5, [r2]
 152 0072 2843     		orrs	r0, r0, r5
 153 0074 1060     		str	r0, [r2]
 154              	.LVL7:
 155              		.loc 1 149 0
 156 0076 2268     		ldr	r2, [r4]
 157 0078 9C68     		ldr	r4, [r3, #8]
 158              	.LVL8:
 159 007a D543     		mvns	r5, r2
 160 007c 2C40     		ands	r4, r4, r5
 161 007e 9C60     		str	r4, [r3, #8]
 162              		.loc 1 150 0
 163 0080 D868     		ldr	r0, [r3, #12]
 164              		.loc 1 153 0
 165 0082 1029     		cmp	r1, #16
 166              		.loc 1 150 0
 167 0084 00EA0500 		and	r0, r0, r5
 168 0088 D860     		str	r0, [r3, #12]
 169              		.loc 1 153 0
 170 008a 14D0     		beq	.L14
 171              	.LVL9:
ARM GAS  /var/folders/m4/4md61f0s1_g0rzfghffqnxvr0000gn/T//ccNSbQRa.s 			page 4


 172              		.loc 1 162 0
 173 008c 01F18043 		add	r3, r1, #1073741824
 174 0090 03F59E33 		add	r3, r3, #80896
 175              		.loc 1 164 0
 176 0094 1968     		ldr	r1, [r3]
 177              	.LVL10:
 178 0096 0A43     		orrs	r2, r2, r1
 179 0098 1A60     		str	r2, [r3]
 180 009a F8BD     		pop	{r3, r4, r5, r6, r7, pc}
 181              	.LVL11:
 182              	.L11:
 183              		.loc 1 133 0
 184 009c 0020     		movs	r0, #0
 185 009e CDE7     		b	.L6
 186              	.LVL12:
 187              	.L7:
 188              		.loc 1 169 0
 189 00a0 2379     		ldrb	r3, [r4, #4]	@ zero_extendqisi2
 190              		.loc 1 172 0
 191 00a2 2168     		ldr	r1, [r4]
 192              		.loc 1 169 0
 193 00a4 03F18043 		add	r3, r3, #1073741824
 194 00a8 03F59E33 		add	r3, r3, #80896
 195              		.loc 1 172 0
 196 00ac 1A68     		ldr	r2, [r3]
 197 00ae 22EA0102 		bic	r2, r2, r1
 198 00b2 1A60     		str	r2, [r3]
 199              	.LVL13:
 200 00b4 F8BD     		pop	{r3, r4, r5, r6, r7, pc}
 201              	.LVL14:
 202              	.L14:
 203              		.loc 1 156 0
 204 00b6 9968     		ldr	r1, [r3, #8]
 205 00b8 1143     		orrs	r1, r1, r2
 206 00ba 9960     		str	r1, [r3, #8]
 207              		.loc 1 157 0
 208 00bc D968     		ldr	r1, [r3, #12]
 209 00be 0A43     		orrs	r2, r2, r1
 210 00c0 DA60     		str	r2, [r3, #12]
 211 00c2 F8BD     		pop	{r3, r4, r5, r6, r7, pc}
 212              	.L16:
 213              		.align	2
 214              	.L15:
 215 00c4 003C0140 		.word	1073822720
 216              		.cfi_endproc
 217              	.LFE124:
 218              		.size	EXTI_Init, .-EXTI_Init
 219              		.section	.text.EXTI_StructInit,"ax",%progbits
 220              		.align	2
 221              		.p2align 4,,15
 222              		.global	EXTI_StructInit
 223              		.thumb
 224              		.thumb_func
 225              		.type	EXTI_StructInit, %function
 226              	EXTI_StructInit:
 227              	.LFB125:
 228              		.loc 1 183 0
ARM GAS  /var/folders/m4/4md61f0s1_g0rzfghffqnxvr0000gn/T//ccNSbQRa.s 			page 5


 229              		.cfi_startproc
 230              		@ args = 0, pretend = 0, frame = 0
 231              		@ frame_needed = 0, uses_anonymous_args = 0
 232              		@ link register save eliminated.
 233              	.LVL15:
 234              		.loc 1 184 0
 235 0000 0023     		movs	r3, #0
 236              		.loc 1 186 0
 237 0002 0C22     		movs	r2, #12
 238 0004 4271     		strb	r2, [r0, #5]
 239              		.loc 1 184 0
 240 0006 0360     		str	r3, [r0]
 241              		.loc 1 185 0
 242 0008 0371     		strb	r3, [r0, #4]
 243              		.loc 1 187 0
 244 000a 8371     		strb	r3, [r0, #6]
 245 000c 7047     		bx	lr
 246              		.cfi_endproc
 247              	.LFE125:
 248              		.size	EXTI_StructInit, .-EXTI_StructInit
 249 000e 00BF     		.section	.text.EXTI_GenerateSWInterrupt,"ax",%progbits
 250              		.align	2
 251              		.p2align 4,,15
 252              		.global	EXTI_GenerateSWInterrupt
 253              		.thumb
 254              		.thumb_func
 255              		.type	EXTI_GenerateSWInterrupt, %function
 256              	EXTI_GenerateSWInterrupt:
 257              	.LFB126:
 258              		.loc 1 198 0
 259              		.cfi_startproc
 260              		@ args = 0, pretend = 0, frame = 0
 261              		@ frame_needed = 0, uses_anonymous_args = 0
 262              	.LVL16:
 263              		.loc 1 200 0
 264 0000 C30D     		lsrs	r3, r0, #23
 265 0002 DB05     		lsls	r3, r3, #23
 266              		.loc 1 198 0
 267 0004 10B5     		push	{r4, lr}
 268              		.cfi_def_cfa_offset 8
 269              		.cfi_offset 4, -8
 270              		.cfi_offset 14, -4
 271              		.loc 1 198 0
 272 0006 0446     		mov	r4, r0
 273              		.loc 1 200 0
 274 0008 4BB9     		cbnz	r3, .L20
 275              		.loc 1 200 0 is_stmt 0 discriminator 1
 276 000a 0030     		adds	r0, r0, #0
 277              	.LVL17:
 278 000c 18BF     		it	ne
 279 000e 0120     		movne	r0, #1
 280              	.L19:
 281              		.loc 1 200 0 discriminator 6
 282 0010 FFF7FEFF 		bl	assert_param
 283              	.LVL18:
 284              		.loc 1 202 0 is_stmt 1 discriminator 6
 285 0014 034B     		ldr	r3, .L22
ARM GAS  /var/folders/m4/4md61f0s1_g0rzfghffqnxvr0000gn/T//ccNSbQRa.s 			page 6


 286 0016 1869     		ldr	r0, [r3, #16]
 287 0018 2043     		orrs	r0, r0, r4
 288 001a 1861     		str	r0, [r3, #16]
 289 001c 10BD     		pop	{r4, pc}
 290              	.LVL19:
 291              	.L20:
 292              		.loc 1 200 0
 293 001e 0020     		movs	r0, #0
 294              	.LVL20:
 295 0020 F6E7     		b	.L19
 296              	.L23:
 297 0022 00BF     		.align	2
 298              	.L22:
 299 0024 003C0140 		.word	1073822720
 300              		.cfi_endproc
 301              	.LFE126:
 302              		.size	EXTI_GenerateSWInterrupt, .-EXTI_GenerateSWInterrupt
 303              		.section	.text.EXTI_GetFlagStatus,"ax",%progbits
 304              		.align	2
 305              		.p2align 4,,15
 306              		.global	EXTI_GetFlagStatus
 307              		.thumb
 308              		.thumb_func
 309              		.type	EXTI_GetFlagStatus, %function
 310              	EXTI_GetFlagStatus:
 311              	.LFB127:
 312              		.loc 1 228 0
 313              		.cfi_startproc
 314              		@ args = 0, pretend = 0, frame = 0
 315              		@ frame_needed = 0, uses_anonymous_args = 0
 316              	.LVL21:
 317              		.loc 1 231 0
 318 0000 431E     		subs	r3, r0, #1
 319 0002 012B     		cmp	r3, #1
 320              		.loc 1 228 0
 321 0004 10B5     		push	{r4, lr}
 322              		.cfi_def_cfa_offset 8
 323              		.cfi_offset 4, -8
 324              		.cfi_offset 14, -4
 325              		.loc 1 228 0
 326 0006 0446     		mov	r4, r0
 327              		.loc 1 231 0
 328 0008 3DD9     		bls	.L47
 329              		.loc 1 231 0 is_stmt 0 discriminator 2
 330 000a 0428     		cmp	r0, #4
 331 000c 3BD0     		beq	.L47
 332              		.loc 1 231 0 discriminator 4
 333 000e 0828     		cmp	r0, #8
 334 0010 39D0     		beq	.L47
 335              		.loc 1 231 0 discriminator 6
 336 0012 1028     		cmp	r0, #16
 337 0014 37D0     		beq	.L47
 338              		.loc 1 231 0 discriminator 8
 339 0016 2028     		cmp	r0, #32
 340 0018 35D0     		beq	.L47
 341              		.loc 1 231 0 discriminator 10
 342 001a 4028     		cmp	r0, #64
ARM GAS  /var/folders/m4/4md61f0s1_g0rzfghffqnxvr0000gn/T//ccNSbQRa.s 			page 7


 343 001c 33D0     		beq	.L47
 344              		.loc 1 231 0 discriminator 12
 345 001e 8028     		cmp	r0, #128
 346 0020 31D0     		beq	.L47
 347              		.loc 1 231 0 discriminator 14
 348 0022 B0F5807F 		cmp	r0, #256
 349 0026 2ED0     		beq	.L47
 350              		.loc 1 231 0 discriminator 16
 351 0028 B0F5007F 		cmp	r0, #512
 352 002c 2BD0     		beq	.L47
 353              		.loc 1 231 0 discriminator 18
 354 002e B0F5806F 		cmp	r0, #1024
 355 0032 28D0     		beq	.L47
 356              		.loc 1 231 0 discriminator 20
 357 0034 B0F5006F 		cmp	r0, #2048
 358 0038 25D0     		beq	.L47
 359              		.loc 1 231 0 discriminator 22
 360 003a B0F5805F 		cmp	r0, #4096
 361 003e 22D0     		beq	.L47
 362              		.loc 1 231 0 discriminator 24
 363 0040 B0F5005F 		cmp	r0, #8192
 364 0044 1FD0     		beq	.L47
 365              		.loc 1 231 0 discriminator 26
 366 0046 B0F5804F 		cmp	r0, #16384
 367 004a 1CD0     		beq	.L47
 368              		.loc 1 231 0 discriminator 28
 369 004c B0F5004F 		cmp	r0, #32768
 370 0050 19D0     		beq	.L47
 371              		.loc 1 231 0 discriminator 30
 372 0052 B0F5803F 		cmp	r0, #65536
 373 0056 16D0     		beq	.L47
 374              		.loc 1 231 0 discriminator 32
 375 0058 B0F5003F 		cmp	r0, #131072
 376 005c 13D0     		beq	.L47
 377              		.loc 1 231 0 discriminator 34
 378 005e B0F5802F 		cmp	r0, #262144
 379 0062 10D0     		beq	.L47
 380              		.loc 1 231 0 discriminator 36
 381 0064 B0F5002F 		cmp	r0, #524288
 382 0068 0DD0     		beq	.L47
 383              		.loc 1 231 0 discriminator 38
 384 006a B0F5801F 		cmp	r0, #1048576
 385 006e 0AD0     		beq	.L47
 386              		.loc 1 231 0 discriminator 40
 387 0070 B0F5001F 		cmp	r0, #2097152
 388 0074 07D0     		beq	.L47
 389              		.loc 1 231 0 discriminator 42
 390 0076 B0F5800F 		cmp	r0, #4194304
 391 007a 04D0     		beq	.L47
 392              		.loc 1 231 0 discriminator 44
 393 007c A0F50003 		sub	r3, r0, #8388608
 394 0080 5842     		rsbs	r0, r3, #0
 395              	.LVL22:
 396 0082 5841     		adcs	r0, r0, r3
 397 0084 00E0     		b	.L25
 398              	.LVL23:
 399              	.L47:
ARM GAS  /var/folders/m4/4md61f0s1_g0rzfghffqnxvr0000gn/T//ccNSbQRa.s 			page 8


 400              		.loc 1 231 0
 401 0086 0120     		movs	r0, #1
 402              	.LVL24:
 403              	.L25:
 404              		.loc 1 231 0 discriminator 48
 405 0088 FFF7FEFF 		bl	assert_param
 406              	.LVL25:
 407              		.loc 1 233 0 is_stmt 1 discriminator 48
 408 008c 034B     		ldr	r3, .L49
 409 008e 5B69     		ldr	r3, [r3, #20]
 410              	.LVL26:
 411 0090 1C42     		tst	r4, r3
 412              		.loc 1 242 0 discriminator 48
 413 0092 14BF     		ite	ne
 414 0094 0120     		movne	r0, #1
 415 0096 0020     		moveq	r0, #0
 416 0098 10BD     		pop	{r4, pc}
 417              	.LVL27:
 418              	.L50:
 419 009a 00BF     		.align	2
 420              	.L49:
 421 009c 003C0140 		.word	1073822720
 422              		.cfi_endproc
 423              	.LFE127:
 424              		.size	EXTI_GetFlagStatus, .-EXTI_GetFlagStatus
 425              		.section	.text.EXTI_ClearFlag,"ax",%progbits
 426              		.align	2
 427              		.p2align 4,,15
 428              		.global	EXTI_ClearFlag
 429              		.thumb
 430              		.thumb_func
 431              		.type	EXTI_ClearFlag, %function
 432              	EXTI_ClearFlag:
 433              	.LFB128:
 434              		.loc 1 251 0
 435              		.cfi_startproc
 436              		@ args = 0, pretend = 0, frame = 0
 437              		@ frame_needed = 0, uses_anonymous_args = 0
 438              	.LVL28:
 439              		.loc 1 253 0
 440 0000 C30D     		lsrs	r3, r0, #23
 441 0002 DB05     		lsls	r3, r3, #23
 442              		.loc 1 251 0
 443 0004 10B5     		push	{r4, lr}
 444              		.cfi_def_cfa_offset 8
 445              		.cfi_offset 4, -8
 446              		.cfi_offset 14, -4
 447              		.loc 1 251 0
 448 0006 0446     		mov	r4, r0
 449              		.loc 1 253 0
 450 0008 3BB9     		cbnz	r3, .L53
 451              		.loc 1 253 0 is_stmt 0 discriminator 1
 452 000a 0030     		adds	r0, r0, #0
 453              	.LVL29:
 454 000c 18BF     		it	ne
 455 000e 0120     		movne	r0, #1
 456 0010 FFF7FEFF 		bl	assert_param
ARM GAS  /var/folders/m4/4md61f0s1_g0rzfghffqnxvr0000gn/T//ccNSbQRa.s 			page 9


 457              	.LVL30:
 458              		.loc 1 255 0 is_stmt 1 discriminator 1
 459 0014 044B     		ldr	r3, .L55
 460 0016 5C61     		str	r4, [r3, #20]
 461 0018 10BD     		pop	{r4, pc}
 462              	.LVL31:
 463              	.L53:
 464              		.loc 1 253 0
 465 001a 0020     		movs	r0, #0
 466              	.LVL32:
 467 001c FFF7FEFF 		bl	assert_param
 468              	.LVL33:
 469              		.loc 1 255 0
 470 0020 014B     		ldr	r3, .L55
 471 0022 5C61     		str	r4, [r3, #20]
 472 0024 10BD     		pop	{r4, pc}
 473              	.LVL34:
 474              	.L56:
 475 0026 00BF     		.align	2
 476              	.L55:
 477 0028 003C0140 		.word	1073822720
 478              		.cfi_endproc
 479              	.LFE128:
 480              		.size	EXTI_ClearFlag, .-EXTI_ClearFlag
 481              		.section	.text.EXTI_GetITStatus,"ax",%progbits
 482              		.align	2
 483              		.p2align 4,,15
 484              		.global	EXTI_GetITStatus
 485              		.thumb
 486              		.thumb_func
 487              		.type	EXTI_GetITStatus, %function
 488              	EXTI_GetITStatus:
 489              	.LFB129:
 490              		.loc 1 265 0
 491              		.cfi_startproc
 492              		@ args = 0, pretend = 0, frame = 0
 493              		@ frame_needed = 0, uses_anonymous_args = 0
 494              	.LVL35:
 495              		.loc 1 268 0
 496 0000 431E     		subs	r3, r0, #1
 497 0002 012B     		cmp	r3, #1
 498              		.loc 1 265 0
 499 0004 10B5     		push	{r4, lr}
 500              		.cfi_def_cfa_offset 8
 501              		.cfi_offset 4, -8
 502              		.cfi_offset 14, -4
 503              		.loc 1 265 0
 504 0006 0446     		mov	r4, r0
 505              		.loc 1 268 0
 506 0008 3DD9     		bls	.L80
 507              		.loc 1 268 0 is_stmt 0 discriminator 2
 508 000a 0428     		cmp	r0, #4
 509 000c 3BD0     		beq	.L80
 510              		.loc 1 268 0 discriminator 4
 511 000e 0828     		cmp	r0, #8
 512 0010 39D0     		beq	.L80
 513              		.loc 1 268 0 discriminator 6
ARM GAS  /var/folders/m4/4md61f0s1_g0rzfghffqnxvr0000gn/T//ccNSbQRa.s 			page 10


 514 0012 1028     		cmp	r0, #16
 515 0014 37D0     		beq	.L80
 516              		.loc 1 268 0 discriminator 8
 517 0016 2028     		cmp	r0, #32
 518 0018 35D0     		beq	.L80
 519              		.loc 1 268 0 discriminator 10
 520 001a 4028     		cmp	r0, #64
 521 001c 33D0     		beq	.L80
 522              		.loc 1 268 0 discriminator 12
 523 001e 8028     		cmp	r0, #128
 524 0020 31D0     		beq	.L80
 525              		.loc 1 268 0 discriminator 14
 526 0022 B0F5807F 		cmp	r0, #256
 527 0026 2ED0     		beq	.L80
 528              		.loc 1 268 0 discriminator 16
 529 0028 B0F5007F 		cmp	r0, #512
 530 002c 2BD0     		beq	.L80
 531              		.loc 1 268 0 discriminator 18
 532 002e B0F5806F 		cmp	r0, #1024
 533 0032 28D0     		beq	.L80
 534              		.loc 1 268 0 discriminator 20
 535 0034 B0F5006F 		cmp	r0, #2048
 536 0038 25D0     		beq	.L80
 537              		.loc 1 268 0 discriminator 22
 538 003a B0F5805F 		cmp	r0, #4096
 539 003e 22D0     		beq	.L80
 540              		.loc 1 268 0 discriminator 24
 541 0040 B0F5005F 		cmp	r0, #8192
 542 0044 1FD0     		beq	.L80
 543              		.loc 1 268 0 discriminator 26
 544 0046 B0F5804F 		cmp	r0, #16384
 545 004a 1CD0     		beq	.L80
 546              		.loc 1 268 0 discriminator 28
 547 004c B0F5004F 		cmp	r0, #32768
 548 0050 19D0     		beq	.L80
 549              		.loc 1 268 0 discriminator 30
 550 0052 B0F5803F 		cmp	r0, #65536
 551 0056 16D0     		beq	.L80
 552              		.loc 1 268 0 discriminator 32
 553 0058 B0F5003F 		cmp	r0, #131072
 554 005c 13D0     		beq	.L80
 555              		.loc 1 268 0 discriminator 34
 556 005e B0F5802F 		cmp	r0, #262144
 557 0062 10D0     		beq	.L80
 558              		.loc 1 268 0 discriminator 36
 559 0064 B0F5002F 		cmp	r0, #524288
 560 0068 0DD0     		beq	.L80
 561              		.loc 1 268 0 discriminator 38
 562 006a B0F5801F 		cmp	r0, #1048576
 563 006e 0AD0     		beq	.L80
 564              		.loc 1 268 0 discriminator 40
 565 0070 B0F5001F 		cmp	r0, #2097152
 566 0074 07D0     		beq	.L80
 567              		.loc 1 268 0 discriminator 42
 568 0076 B0F5800F 		cmp	r0, #4194304
 569 007a 04D0     		beq	.L80
 570              		.loc 1 268 0 discriminator 44
ARM GAS  /var/folders/m4/4md61f0s1_g0rzfghffqnxvr0000gn/T//ccNSbQRa.s 			page 11


 571 007c A0F50003 		sub	r3, r0, #8388608
 572 0080 5842     		rsbs	r0, r3, #0
 573              	.LVL36:
 574 0082 5841     		adcs	r0, r0, r3
 575 0084 00E0     		b	.L58
 576              	.LVL37:
 577              	.L80:
 578              		.loc 1 268 0
 579 0086 0120     		movs	r0, #1
 580              	.LVL38:
 581              	.L58:
 582              		.loc 1 268 0 discriminator 48
 583 0088 FFF7FEFF 		bl	assert_param
 584              	.LVL39:
 585              		.loc 1 270 0 is_stmt 1 discriminator 48
 586 008c 034B     		ldr	r3, .L82
 587 008e 5B69     		ldr	r3, [r3, #20]
 588              	.LVL40:
 589 0090 1C42     		tst	r4, r3
 590              		.loc 1 280 0 discriminator 48
 591 0092 14BF     		ite	ne
 592 0094 0120     		movne	r0, #1
 593 0096 0020     		moveq	r0, #0
 594 0098 10BD     		pop	{r4, pc}
 595              	.LVL41:
 596              	.L83:
 597 009a 00BF     		.align	2
 598              	.L82:
 599 009c 003C0140 		.word	1073822720
 600              		.cfi_endproc
 601              	.LFE129:
 602              		.size	EXTI_GetITStatus, .-EXTI_GetITStatus
 603              		.section	.text.EXTI_ClearITPendingBit,"ax",%progbits
 604              		.align	2
 605              		.p2align 4,,15
 606              		.global	EXTI_ClearITPendingBit
 607              		.thumb
 608              		.thumb_func
 609              		.type	EXTI_ClearITPendingBit, %function
 610              	EXTI_ClearITPendingBit:
 611              	.LFB130:
 612              		.loc 1 289 0
 613              		.cfi_startproc
 614              		@ args = 0, pretend = 0, frame = 0
 615              		@ frame_needed = 0, uses_anonymous_args = 0
 616              	.LVL42:
 617              		.loc 1 291 0
 618 0000 C30D     		lsrs	r3, r0, #23
 619 0002 DB05     		lsls	r3, r3, #23
 620              		.loc 1 289 0
 621 0004 10B5     		push	{r4, lr}
 622              		.cfi_def_cfa_offset 8
 623              		.cfi_offset 4, -8
 624              		.cfi_offset 14, -4
 625              		.loc 1 289 0
 626 0006 0446     		mov	r4, r0
 627              		.loc 1 291 0
ARM GAS  /var/folders/m4/4md61f0s1_g0rzfghffqnxvr0000gn/T//ccNSbQRa.s 			page 12


 628 0008 3BB9     		cbnz	r3, .L86
 629              		.loc 1 291 0 is_stmt 0 discriminator 1
 630 000a 0030     		adds	r0, r0, #0
 631              	.LVL43:
 632 000c 18BF     		it	ne
 633 000e 0120     		movne	r0, #1
 634 0010 FFF7FEFF 		bl	assert_param
 635              	.LVL44:
 636              		.loc 1 293 0 is_stmt 1 discriminator 1
 637 0014 044B     		ldr	r3, .L88
 638 0016 5C61     		str	r4, [r3, #20]
 639 0018 10BD     		pop	{r4, pc}
 640              	.LVL45:
 641              	.L86:
 642              		.loc 1 291 0
 643 001a 0020     		movs	r0, #0
 644              	.LVL46:
 645 001c FFF7FEFF 		bl	assert_param
 646              	.LVL47:
 647              		.loc 1 293 0
 648 0020 014B     		ldr	r3, .L88
 649 0022 5C61     		str	r4, [r3, #20]
 650 0024 10BD     		pop	{r4, pc}
 651              	.LVL48:
 652              	.L89:
 653 0026 00BF     		.align	2
 654              	.L88:
 655 0028 003C0140 		.word	1073822720
 656              		.cfi_endproc
 657              	.LFE130:
 658              		.size	EXTI_ClearITPendingBit, .-EXTI_ClearITPendingBit
 659              		.text
 660              	.Letext0:
 661              		.file 2 "/usr/local/Cellar/gcc-arm-none-eabi-49/20150609/arm-none-eabi/include/machine/_default_ty
 662              		.file 3 "/usr/local/Cellar/gcc-arm-none-eabi-49/20150609/arm-none-eabi/include/sys/_stdint.h"
 663              		.file 4 "ChibiOS_16.1.4/os/ext/CMSIS/ST/STM32F4xx/stm32f446xx.h"
 664              		.file 5 "ChibiOS_16.1.4/os/ext/CMSIS/ST/STM32F4xx/stm32f4xx.h"
 665              		.file 6 "ChibiOS_16.1.4/ext/stdperiph_stm32f4/inc/stm32f4xx_exti.h"
 666              		.file 7 "ChibiOS_16.1.4/os/ext/CMSIS/include/core_cm4.h"