ARM GAS  /var/folders/m4/4md61f0s1_g0rzfghffqnxvr0000gn/T//ccsS3EJ9.s 			page 1


   1              		.syntax unified
   2              		.cpu cortex-m4
   3              		.eabi_attribute 27, 1
   4              		.eabi_attribute 28, 1
   5              		.fpu fpv4-sp-d16
   6              		.eabi_attribute 20, 1
   7              		.eabi_attribute 21, 1
   8              		.eabi_attribute 23, 3
   9              		.eabi_attribute 24, 1
  10              		.eabi_attribute 25, 1
  11              		.eabi_attribute 26, 1
  12              		.eabi_attribute 30, 2
  13              		.eabi_attribute 34, 1
  14              		.eabi_attribute 18, 4
  15              		.thumb
  16              		.file	"stm32f4xx_flash.c"
  17              		.text
  18              	.Ltext0:
  19              		.cfi_sections	.debug_frame
  20              		.section	.text.FLASH_SetLatency,"ax",%progbits
  21              		.align	2
  22              		.p2align 4,,15
  23              		.global	FLASH_SetLatency
  24              		.thumb
  25              		.thumb_func
  26              		.type	FLASH_SetLatency, %function
  27              	FLASH_SetLatency:
  28              	.LFB123:
  29              		.file 1 "ChibiOS_16.1.4/ext/stdperiph_stm32f4/src/stm32f4xx_flash.c"
  30              		.loc 1 278 0
  31              		.cfi_startproc
  32              		@ args = 0, pretend = 0, frame = 0
  33              		@ frame_needed = 0, uses_anonymous_args = 0
  34              	.LVL0:
  35              		.loc 1 280 0
  36 0000 0F28     		cmp	r0, #15
  37              		.loc 1 278 0
  38 0002 10B5     		push	{r4, lr}
  39              		.cfi_def_cfa_offset 8
  40              		.cfi_offset 4, -8
  41              		.cfi_offset 14, -4
  42              		.loc 1 278 0
  43 0004 0446     		mov	r4, r0
  44              		.loc 1 280 0
  45 0006 8CBF     		ite	hi
  46 0008 0020     		movhi	r0, #0
  47              	.LVL1:
  48 000a 0120     		movls	r0, #1
  49 000c FFF7FEFF 		bl	assert_param
  50              	.LVL2:
  51              		.loc 1 283 0
  52 0010 014B     		ldr	r3, .L3
  53 0012 E4B2     		uxtb	r4, r4
  54              	.LVL3:
  55 0014 1C70     		strb	r4, [r3]
  56 0016 10BD     		pop	{r4, pc}
  57              	.L4:
ARM GAS  /var/folders/m4/4md61f0s1_g0rzfghffqnxvr0000gn/T//ccsS3EJ9.s 			page 2


  58              		.align	2
  59              	.L3:
  60 0018 003C0240 		.word	1073888256
  61              		.cfi_endproc
  62              	.LFE123:
  63              		.size	FLASH_SetLatency, .-FLASH_SetLatency
  64              		.section	.text.FLASH_PrefetchBufferCmd,"ax",%progbits
  65              		.align	2
  66              		.p2align 4,,15
  67              		.global	FLASH_PrefetchBufferCmd
  68              		.thumb
  69              		.thumb_func
  70              		.type	FLASH_PrefetchBufferCmd, %function
  71              	FLASH_PrefetchBufferCmd:
  72              	.LFB124:
  73              		.loc 1 293 0
  74              		.cfi_startproc
  75              		@ args = 0, pretend = 0, frame = 0
  76              		@ frame_needed = 0, uses_anonymous_args = 0
  77              	.LVL4:
  78              		.loc 1 295 0
  79 0000 0128     		cmp	r0, #1
  80              		.loc 1 293 0
  81 0002 10B5     		push	{r4, lr}
  82              		.cfi_def_cfa_offset 8
  83              		.cfi_offset 4, -8
  84              		.cfi_offset 14, -4
  85              		.loc 1 293 0
  86 0004 0446     		mov	r4, r0
  87              		.loc 1 295 0
  88 0006 8CBF     		ite	hi
  89 0008 0020     		movhi	r0, #0
  90              	.LVL5:
  91 000a 0120     		movls	r0, #1
  92 000c FFF7FEFF 		bl	assert_param
  93              	.LVL6:
  94              		.loc 1 300 0
  95 0010 054A     		ldr	r2, .L11
  96 0012 1368     		ldr	r3, [r2]
  97              		.loc 1 298 0
  98 0014 1CB9     		cbnz	r4, .L10
  99              		.loc 1 304 0
 100 0016 23F48073 		bic	r3, r3, #256
 101 001a 1360     		str	r3, [r2]
 102 001c 10BD     		pop	{r4, pc}
 103              	.L10:
 104              		.loc 1 300 0
 105 001e 43F48073 		orr	r3, r3, #256
 106 0022 1360     		str	r3, [r2]
 107 0024 10BD     		pop	{r4, pc}
 108              	.L12:
 109 0026 00BF     		.align	2
 110              	.L11:
 111 0028 003C0240 		.word	1073888256
 112              		.cfi_endproc
 113              	.LFE124:
 114              		.size	FLASH_PrefetchBufferCmd, .-FLASH_PrefetchBufferCmd
ARM GAS  /var/folders/m4/4md61f0s1_g0rzfghffqnxvr0000gn/T//ccsS3EJ9.s 			page 3


 115              		.section	.text.FLASH_InstructionCacheCmd,"ax",%progbits
 116              		.align	2
 117              		.p2align 4,,15
 118              		.global	FLASH_InstructionCacheCmd
 119              		.thumb
 120              		.thumb_func
 121              		.type	FLASH_InstructionCacheCmd, %function
 122              	FLASH_InstructionCacheCmd:
 123              	.LFB125:
 124              		.loc 1 315 0
 125              		.cfi_startproc
 126              		@ args = 0, pretend = 0, frame = 0
 127              		@ frame_needed = 0, uses_anonymous_args = 0
 128              	.LVL7:
 129              		.loc 1 317 0
 130 0000 0128     		cmp	r0, #1
 131              		.loc 1 315 0
 132 0002 10B5     		push	{r4, lr}
 133              		.cfi_def_cfa_offset 8
 134              		.cfi_offset 4, -8
 135              		.cfi_offset 14, -4
 136              		.loc 1 315 0
 137 0004 0446     		mov	r4, r0
 138              		.loc 1 317 0
 139 0006 8CBF     		ite	hi
 140 0008 0020     		movhi	r0, #0
 141              	.LVL8:
 142 000a 0120     		movls	r0, #1
 143 000c FFF7FEFF 		bl	assert_param
 144              	.LVL9:
 145              		.loc 1 321 0
 146 0010 054A     		ldr	r2, .L18
 147 0012 1368     		ldr	r3, [r2]
 148              		.loc 1 319 0
 149 0014 1CB9     		cbnz	r4, .L17
 150              		.loc 1 325 0
 151 0016 23F40073 		bic	r3, r3, #512
 152 001a 1360     		str	r3, [r2]
 153 001c 10BD     		pop	{r4, pc}
 154              	.L17:
 155              		.loc 1 321 0
 156 001e 43F40073 		orr	r3, r3, #512
 157 0022 1360     		str	r3, [r2]
 158 0024 10BD     		pop	{r4, pc}
 159              	.L19:
 160 0026 00BF     		.align	2
 161              	.L18:
 162 0028 003C0240 		.word	1073888256
 163              		.cfi_endproc
 164              	.LFE125:
 165              		.size	FLASH_InstructionCacheCmd, .-FLASH_InstructionCacheCmd
 166              		.section	.text.FLASH_DataCacheCmd,"ax",%progbits
 167              		.align	2
 168              		.p2align 4,,15
 169              		.global	FLASH_DataCacheCmd
 170              		.thumb
 171              		.thumb_func
ARM GAS  /var/folders/m4/4md61f0s1_g0rzfghffqnxvr0000gn/T//ccsS3EJ9.s 			page 4


 172              		.type	FLASH_DataCacheCmd, %function
 173              	FLASH_DataCacheCmd:
 174              	.LFB126:
 175              		.loc 1 336 0
 176              		.cfi_startproc
 177              		@ args = 0, pretend = 0, frame = 0
 178              		@ frame_needed = 0, uses_anonymous_args = 0
 179              	.LVL10:
 180              		.loc 1 338 0
 181 0000 0128     		cmp	r0, #1
 182              		.loc 1 336 0
 183 0002 10B5     		push	{r4, lr}
 184              		.cfi_def_cfa_offset 8
 185              		.cfi_offset 4, -8
 186              		.cfi_offset 14, -4
 187              		.loc 1 336 0
 188 0004 0446     		mov	r4, r0
 189              		.loc 1 338 0
 190 0006 8CBF     		ite	hi
 191 0008 0020     		movhi	r0, #0
 192              	.LVL11:
 193 000a 0120     		movls	r0, #1
 194 000c FFF7FEFF 		bl	assert_param
 195              	.LVL12:
 196              		.loc 1 342 0
 197 0010 054A     		ldr	r2, .L25
 198 0012 1368     		ldr	r3, [r2]
 199              		.loc 1 340 0
 200 0014 1CB9     		cbnz	r4, .L24
 201              		.loc 1 346 0
 202 0016 23F48063 		bic	r3, r3, #1024
 203 001a 1360     		str	r3, [r2]
 204 001c 10BD     		pop	{r4, pc}
 205              	.L24:
 206              		.loc 1 342 0
 207 001e 43F48063 		orr	r3, r3, #1024
 208 0022 1360     		str	r3, [r2]
 209 0024 10BD     		pop	{r4, pc}
 210              	.L26:
 211 0026 00BF     		.align	2
 212              	.L25:
 213 0028 003C0240 		.word	1073888256
 214              		.cfi_endproc
 215              	.LFE126:
 216              		.size	FLASH_DataCacheCmd, .-FLASH_DataCacheCmd
 217              		.section	.text.FLASH_InstructionCacheReset,"ax",%progbits
 218              		.align	2
 219              		.p2align 4,,15
 220              		.global	FLASH_InstructionCacheReset
 221              		.thumb
 222              		.thumb_func
 223              		.type	FLASH_InstructionCacheReset, %function
 224              	FLASH_InstructionCacheReset:
 225              	.LFB127:
 226              		.loc 1 357 0
 227              		.cfi_startproc
 228              		@ args = 0, pretend = 0, frame = 0
ARM GAS  /var/folders/m4/4md61f0s1_g0rzfghffqnxvr0000gn/T//ccsS3EJ9.s 			page 5


 229              		@ frame_needed = 0, uses_anonymous_args = 0
 230              		@ link register save eliminated.
 231              		.loc 1 358 0
 232 0000 024A     		ldr	r2, .L28
 233 0002 1368     		ldr	r3, [r2]
 234 0004 43F40063 		orr	r3, r3, #2048
 235 0008 1360     		str	r3, [r2]
 236 000a 7047     		bx	lr
 237              	.L29:
 238              		.align	2
 239              	.L28:
 240 000c 003C0240 		.word	1073888256
 241              		.cfi_endproc
 242              	.LFE127:
 243              		.size	FLASH_InstructionCacheReset, .-FLASH_InstructionCacheReset
 244              		.section	.text.FLASH_DataCacheReset,"ax",%progbits
 245              		.align	2
 246              		.p2align 4,,15
 247              		.global	FLASH_DataCacheReset
 248              		.thumb
 249              		.thumb_func
 250              		.type	FLASH_DataCacheReset, %function
 251              	FLASH_DataCacheReset:
 252              	.LFB128:
 253              		.loc 1 368 0
 254              		.cfi_startproc
 255              		@ args = 0, pretend = 0, frame = 0
 256              		@ frame_needed = 0, uses_anonymous_args = 0
 257              		@ link register save eliminated.
 258              		.loc 1 369 0
 259 0000 024A     		ldr	r2, .L31
 260 0002 1368     		ldr	r3, [r2]
 261 0004 43F48053 		orr	r3, r3, #4096
 262 0008 1360     		str	r3, [r2]
 263 000a 7047     		bx	lr
 264              	.L32:
 265              		.align	2
 266              	.L31:
 267 000c 003C0240 		.word	1073888256
 268              		.cfi_endproc
 269              	.LFE128:
 270              		.size	FLASH_DataCacheReset, .-FLASH_DataCacheReset
 271              		.section	.text.FLASH_Unlock,"ax",%progbits
 272              		.align	2
 273              		.p2align 4,,15
 274              		.global	FLASH_Unlock
 275              		.thumb
 276              		.thumb_func
 277              		.type	FLASH_Unlock, %function
 278              	FLASH_Unlock:
 279              	.LFB129:
 280              		.loc 1 415 0
 281              		.cfi_startproc
 282              		@ args = 0, pretend = 0, frame = 0
 283              		@ frame_needed = 0, uses_anonymous_args = 0
 284              		@ link register save eliminated.
 285              		.loc 1 416 0
ARM GAS  /var/folders/m4/4md61f0s1_g0rzfghffqnxvr0000gn/T//ccsS3EJ9.s 			page 6


 286 0000 044B     		ldr	r3, .L35
 287 0002 1A69     		ldr	r2, [r3, #16]
 288 0004 002A     		cmp	r2, #0
 289 0006 03DA     		bge	.L33
 290              		.loc 1 419 0
 291 0008 0349     		ldr	r1, .L35+4
 292              		.loc 1 420 0
 293 000a 044A     		ldr	r2, .L35+8
 294              		.loc 1 419 0
 295 000c 5960     		str	r1, [r3, #4]
 296              		.loc 1 420 0
 297 000e 5A60     		str	r2, [r3, #4]
 298              	.L33:
 299 0010 7047     		bx	lr
 300              	.L36:
 301 0012 00BF     		.align	2
 302              	.L35:
 303 0014 003C0240 		.word	1073888256
 304 0018 23016745 		.word	1164378403
 305 001c AB89EFCD 		.word	-839939669
 306              		.cfi_endproc
 307              	.LFE129:
 308              		.size	FLASH_Unlock, .-FLASH_Unlock
 309              		.section	.text.FLASH_Lock,"ax",%progbits
 310              		.align	2
 311              		.p2align 4,,15
 312              		.global	FLASH_Lock
 313              		.thumb
 314              		.thumb_func
 315              		.type	FLASH_Lock, %function
 316              	FLASH_Lock:
 317              	.LFB130:
 318              		.loc 1 430 0
 319              		.cfi_startproc
 320              		@ args = 0, pretend = 0, frame = 0
 321              		@ frame_needed = 0, uses_anonymous_args = 0
 322              		@ link register save eliminated.
 323              		.loc 1 432 0
 324 0000 024A     		ldr	r2, .L38
 325 0002 1369     		ldr	r3, [r2, #16]
 326 0004 43F00043 		orr	r3, r3, #-2147483648
 327 0008 1361     		str	r3, [r2, #16]
 328 000a 7047     		bx	lr
 329              	.L39:
 330              		.align	2
 331              	.L38:
 332 000c 003C0240 		.word	1073888256
 333              		.cfi_endproc
 334              	.LFE130:
 335              		.size	FLASH_Lock, .-FLASH_Lock
 336              		.section	.text.FLASH_OB_Unlock,"ax",%progbits
 337              		.align	2
 338              		.p2align 4,,15
 339              		.global	FLASH_OB_Unlock
 340              		.thumb
 341              		.thumb_func
 342              		.type	FLASH_OB_Unlock, %function
ARM GAS  /var/folders/m4/4md61f0s1_g0rzfghffqnxvr0000gn/T//ccsS3EJ9.s 			page 7


 343              	FLASH_OB_Unlock:
 344              	.LFB139:
 345              		.loc 1 972 0
 346              		.cfi_startproc
 347              		@ args = 0, pretend = 0, frame = 0
 348              		@ frame_needed = 0, uses_anonymous_args = 0
 349              		@ link register save eliminated.
 350              		.loc 1 973 0
 351 0000 044B     		ldr	r3, .L45
 352 0002 5A69     		ldr	r2, [r3, #20]
 353 0004 D207     		lsls	r2, r2, #31
 354 0006 03D5     		bpl	.L40
 355              		.loc 1 976 0
 356 0008 0349     		ldr	r1, .L45+4
 357              		.loc 1 977 0
 358 000a 044A     		ldr	r2, .L45+8
 359              		.loc 1 976 0
 360 000c 9960     		str	r1, [r3, #8]
 361              		.loc 1 977 0
 362 000e 9A60     		str	r2, [r3, #8]
 363              	.L40:
 364 0010 7047     		bx	lr
 365              	.L46:
 366 0012 00BF     		.align	2
 367              	.L45:
 368 0014 003C0240 		.word	1073888256
 369 0018 3B2A1908 		.word	135866939
 370 001c 7F6E5D4C 		.word	1281191551
 371              		.cfi_endproc
 372              	.LFE139:
 373              		.size	FLASH_OB_Unlock, .-FLASH_OB_Unlock
 374              		.section	.text.FLASH_OB_Lock,"ax",%progbits
 375              		.align	2
 376              		.p2align 4,,15
 377              		.global	FLASH_OB_Lock
 378              		.thumb
 379              		.thumb_func
 380              		.type	FLASH_OB_Lock, %function
 381              	FLASH_OB_Lock:
 382              	.LFB140:
 383              		.loc 1 987 0
 384              		.cfi_startproc
 385              		@ args = 0, pretend = 0, frame = 0
 386              		@ frame_needed = 0, uses_anonymous_args = 0
 387              		@ link register save eliminated.
 388              		.loc 1 989 0
 389 0000 024A     		ldr	r2, .L48
 390 0002 5369     		ldr	r3, [r2, #20]
 391 0004 43F00103 		orr	r3, r3, #1
 392 0008 5361     		str	r3, [r2, #20]
 393 000a 7047     		bx	lr
 394              	.L49:
 395              		.align	2
 396              	.L48:
 397 000c 003C0240 		.word	1073888256
 398              		.cfi_endproc
 399              	.LFE140:
ARM GAS  /var/folders/m4/4md61f0s1_g0rzfghffqnxvr0000gn/T//ccsS3EJ9.s 			page 8


 400              		.size	FLASH_OB_Lock, .-FLASH_OB_Lock
 401              		.section	.text.FLASH_OB_PCROPSelectionConfig,"ax",%progbits
 402              		.align	2
 403              		.p2align 4,,15
 404              		.global	FLASH_OB_PCROPSelectionConfig
 405              		.thumb
 406              		.thumb_func
 407              		.type	FLASH_OB_PCROPSelectionConfig, %function
 408              	FLASH_OB_PCROPSelectionConfig:
 409              	.LFB143:
 410              		.loc 1 1102 0
 411              		.cfi_startproc
 412              		@ args = 0, pretend = 0, frame = 0
 413              		@ frame_needed = 0, uses_anonymous_args = 0
 414              	.LVL13:
 415              		.loc 1 1106 0
 416 0000 10F07F0F 		tst	r0, #127
 417              		.loc 1 1102 0
 418 0004 10B5     		push	{r4, lr}
 419              		.cfi_def_cfa_offset 8
 420              		.cfi_offset 4, -8
 421              		.cfi_offset 14, -4
 422              		.loc 1 1102 0
 423 0006 0446     		mov	r4, r0
 424              		.loc 1 1106 0
 425 0008 0CBF     		ite	eq
 426 000a 0120     		moveq	r0, #1
 427              	.LVL14:
 428 000c 0020     		movne	r0, #0
 429 000e FFF7FEFF 		bl	assert_param
 430              	.LVL15:
 431              		.loc 1 1109 0
 432 0012 034B     		ldr	r3, .L52
 433 0014 1878     		ldrb	r0, [r3]	@ zero_extendqisi2
 434              	.LVL16:
 435 0016 00F07F00 		and	r0, r0, #127
 436              	.LVL17:
 437              		.loc 1 1111 0
 438 001a 2043     		orrs	r0, r0, r4
 439 001c 1870     		strb	r0, [r3]
 440 001e 10BD     		pop	{r4, pc}
 441              	.L53:
 442              		.align	2
 443              	.L52:
 444 0020 173C0240 		.word	1073888279
 445              		.cfi_endproc
 446              	.LFE143:
 447              		.size	FLASH_OB_PCROPSelectionConfig, .-FLASH_OB_PCROPSelectionConfig
 448              		.section	.text.FLASH_OB_BootConfig,"ax",%progbits
 449              		.align	2
 450              		.p2align 4,,15
 451              		.global	FLASH_OB_BootConfig
 452              		.thumb
 453              		.thumb_func
 454              		.type	FLASH_OB_BootConfig, %function
 455              	FLASH_OB_BootConfig:
 456              	.LFB148:
ARM GAS  /var/folders/m4/4md61f0s1_g0rzfghffqnxvr0000gn/T//ccsS3EJ9.s 			page 9


 457              		.loc 1 1278 0
 458              		.cfi_startproc
 459              		@ args = 0, pretend = 0, frame = 0
 460              		@ frame_needed = 0, uses_anonymous_args = 0
 461              	.LVL18:
 462              		.loc 1 1280 0
 463 0000 10F0EF0F 		tst	r0, #239
 464              		.loc 1 1278 0
 465 0004 10B5     		push	{r4, lr}
 466              		.cfi_def_cfa_offset 8
 467              		.cfi_offset 4, -8
 468              		.cfi_offset 14, -4
 469              		.loc 1 1278 0
 470 0006 0446     		mov	r4, r0
 471              		.loc 1 1280 0
 472 0008 0CBF     		ite	eq
 473 000a 0120     		moveq	r0, #1
 474              	.LVL19:
 475 000c 0020     		movne	r0, #0
 476 000e FFF7FEFF 		bl	assert_param
 477              	.LVL20:
 478              		.loc 1 1283 0
 479 0012 044B     		ldr	r3, .L56
 480 0014 1A78     		ldrb	r2, [r3]	@ zero_extendqisi2
 481 0016 02F0EF02 		and	r2, r2, #239
 482 001a 1A70     		strb	r2, [r3]
 483              		.loc 1 1284 0
 484 001c 1878     		ldrb	r0, [r3]	@ zero_extendqisi2
 485 001e 2043     		orrs	r0, r0, r4
 486 0020 1870     		strb	r0, [r3]
 487 0022 10BD     		pop	{r4, pc}
 488              	.L57:
 489              		.align	2
 490              	.L56:
 491 0024 143C0240 		.word	1073888276
 492              		.cfi_endproc
 493              	.LFE148:
 494              		.size	FLASH_OB_BootConfig, .-FLASH_OB_BootConfig
 495              		.section	.text.FLASH_OB_BORConfig,"ax",%progbits
 496              		.align	2
 497              		.p2align 4,,15
 498              		.global	FLASH_OB_BORConfig
 499              		.thumb
 500              		.thumb_func
 501              		.type	FLASH_OB_BORConfig, %function
 502              	FLASH_OB_BORConfig:
 503              	.LFB149:
 504              		.loc 1 1299 0
 505              		.cfi_startproc
 506              		@ args = 0, pretend = 0, frame = 0
 507              		@ frame_needed = 0, uses_anonymous_args = 0
 508              	.LVL21:
 509 0000 10B5     		push	{r4, lr}
 510              		.cfi_def_cfa_offset 8
 511              		.cfi_offset 4, -8
 512              		.cfi_offset 14, -4
 513              		.loc 1 1299 0
ARM GAS  /var/folders/m4/4md61f0s1_g0rzfghffqnxvr0000gn/T//ccsS3EJ9.s 			page 10


 514 0002 0446     		mov	r4, r0
 515              		.loc 1 1301 0
 516 0004 00F0FB00 		and	r0, r0, #251
 517              	.LVL22:
 518 0008 0828     		cmp	r0, #8
 519 000a 0EBF     		itee	eq
 520 000c 0120     		moveq	r0, #1
 521 000e B0FA80F0 		clzne	r0, r0
 522 0012 4009     		lsrne	r0, r0, #5
 523 0014 FFF7FEFF 		bl	assert_param
 524              	.LVL23:
 525              		.loc 1 1304 0
 526 0018 044B     		ldr	r3, .L62
 527 001a 1A78     		ldrb	r2, [r3]	@ zero_extendqisi2
 528 001c 02F0F302 		and	r2, r2, #243
 529 0020 1A70     		strb	r2, [r3]
 530              		.loc 1 1305 0
 531 0022 1878     		ldrb	r0, [r3]	@ zero_extendqisi2
 532 0024 2043     		orrs	r0, r0, r4
 533 0026 1870     		strb	r0, [r3]
 534 0028 10BD     		pop	{r4, pc}
 535              	.L63:
 536 002a 00BF     		.align	2
 537              	.L62:
 538 002c 143C0240 		.word	1073888276
 539              		.cfi_endproc
 540              	.LFE149:
 541              		.size	FLASH_OB_BORConfig, .-FLASH_OB_BORConfig
 542              		.section	.text.FLASH_OB_GetUser,"ax",%progbits
 543              		.align	2
 544              		.p2align 4,,15
 545              		.global	FLASH_OB_GetUser
 546              		.thumb
 547              		.thumb_func
 548              		.type	FLASH_OB_GetUser, %function
 549              	FLASH_OB_GetUser:
 550              	.LFB151:
 551              		.loc 1 1335 0
 552              		.cfi_startproc
 553              		@ args = 0, pretend = 0, frame = 0
 554              		@ frame_needed = 0, uses_anonymous_args = 0
 555              		@ link register save eliminated.
 556              		.loc 1 1337 0
 557 0000 024B     		ldr	r3, .L65
 558 0002 5869     		ldr	r0, [r3, #20]
 559              		.loc 1 1338 0
 560 0004 C0F34710 		ubfx	r0, r0, #5, #8
 561 0008 7047     		bx	lr
 562              	.L66:
 563 000a 00BF     		.align	2
 564              	.L65:
 565 000c 003C0240 		.word	1073888256
 566              		.cfi_endproc
 567              	.LFE151:
 568              		.size	FLASH_OB_GetUser, .-FLASH_OB_GetUser
 569              		.section	.text.FLASH_OB_GetWRP,"ax",%progbits
 570              		.align	2
ARM GAS  /var/folders/m4/4md61f0s1_g0rzfghffqnxvr0000gn/T//ccsS3EJ9.s 			page 11


 571              		.p2align 4,,15
 572              		.global	FLASH_OB_GetWRP
 573              		.thumb
 574              		.thumb_func
 575              		.type	FLASH_OB_GetWRP, %function
 576              	FLASH_OB_GetWRP:
 577              	.LFB152:
 578              		.loc 1 1346 0
 579              		.cfi_startproc
 580              		@ args = 0, pretend = 0, frame = 0
 581              		@ frame_needed = 0, uses_anonymous_args = 0
 582              		@ link register save eliminated.
 583              		.loc 1 1348 0
 584 0000 014B     		ldr	r3, .L68
 585 0002 1888     		ldrh	r0, [r3]
 586              		.loc 1 1349 0
 587 0004 80B2     		uxth	r0, r0
 588 0006 7047     		bx	lr
 589              	.L69:
 590              		.align	2
 591              	.L68:
 592 0008 163C0240 		.word	1073888278
 593              		.cfi_endproc
 594              	.LFE152:
 595              		.size	FLASH_OB_GetWRP, .-FLASH_OB_GetWRP
 596              		.section	.text.FLASH_OB_GetWRP1,"ax",%progbits
 597              		.align	2
 598              		.p2align 4,,15
 599              		.global	FLASH_OB_GetWRP1
 600              		.thumb
 601              		.thumb_func
 602              		.type	FLASH_OB_GetWRP1, %function
 603              	FLASH_OB_GetWRP1:
 604              	.LFB153:
 605              		.loc 1 1360 0
 606              		.cfi_startproc
 607              		@ args = 0, pretend = 0, frame = 0
 608              		@ frame_needed = 0, uses_anonymous_args = 0
 609              		@ link register save eliminated.
 610              		.loc 1 1362 0
 611 0000 014B     		ldr	r3, .L71
 612 0002 1888     		ldrh	r0, [r3]
 613              		.loc 1 1363 0
 614 0004 80B2     		uxth	r0, r0
 615 0006 7047     		bx	lr
 616              	.L72:
 617              		.align	2
 618              	.L71:
 619 0008 1A3C0240 		.word	1073888282
 620              		.cfi_endproc
 621              	.LFE153:
 622              		.size	FLASH_OB_GetWRP1, .-FLASH_OB_GetWRP1
 623              		.section	.text.FLASH_OB_GetPCROP,"ax",%progbits
 624              		.align	2
 625              		.p2align 4,,15
 626              		.global	FLASH_OB_GetPCROP
 627              		.thumb
ARM GAS  /var/folders/m4/4md61f0s1_g0rzfghffqnxvr0000gn/T//ccsS3EJ9.s 			page 12


 628              		.thumb_func
 629              		.type	FLASH_OB_GetPCROP, %function
 630              	FLASH_OB_GetPCROP:
 631              	.LFB154:
 632              		.loc 1 1374 0
 633              		.cfi_startproc
 634              		@ args = 0, pretend = 0, frame = 0
 635              		@ frame_needed = 0, uses_anonymous_args = 0
 636              		@ link register save eliminated.
 637              		.loc 1 1376 0
 638 0000 014B     		ldr	r3, .L74
 639 0002 1888     		ldrh	r0, [r3]
 640              		.loc 1 1377 0
 641 0004 80B2     		uxth	r0, r0
 642 0006 7047     		bx	lr
 643              	.L75:
 644              		.align	2
 645              	.L74:
 646 0008 163C0240 		.word	1073888278
 647              		.cfi_endproc
 648              	.LFE154:
 649              		.size	FLASH_OB_GetPCROP, .-FLASH_OB_GetPCROP
 650              		.section	.text.FLASH_OB_GetPCROP1,"ax",%progbits
 651              		.align	2
 652              		.p2align 4,,15
 653              		.global	FLASH_OB_GetPCROP1
 654              		.thumb
 655              		.thumb_func
 656              		.type	FLASH_OB_GetPCROP1, %function
 657              	FLASH_OB_GetPCROP1:
 658              	.LFB155:
 659              		.loc 1 1388 0
 660              		.cfi_startproc
 661              		@ args = 0, pretend = 0, frame = 0
 662              		@ frame_needed = 0, uses_anonymous_args = 0
 663              		@ link register save eliminated.
 664              		.loc 1 1390 0
 665 0000 014B     		ldr	r3, .L77
 666 0002 1888     		ldrh	r0, [r3]
 667              		.loc 1 1391 0
 668 0004 80B2     		uxth	r0, r0
 669 0006 7047     		bx	lr
 670              	.L78:
 671              		.align	2
 672              	.L77:
 673 0008 1A3C0240 		.word	1073888282
 674              		.cfi_endproc
 675              	.LFE155:
 676              		.size	FLASH_OB_GetPCROP1, .-FLASH_OB_GetPCROP1
 677              		.section	.text.FLASH_OB_GetRDP,"ax",%progbits
 678              		.align	2
 679              		.p2align 4,,15
 680              		.global	FLASH_OB_GetRDP
 681              		.thumb
 682              		.thumb_func
 683              		.type	FLASH_OB_GetRDP, %function
 684              	FLASH_OB_GetRDP:
ARM GAS  /var/folders/m4/4md61f0s1_g0rzfghffqnxvr0000gn/T//ccsS3EJ9.s 			page 13


 685              	.LFB156:
 686              		.loc 1 1401 0
 687              		.cfi_startproc
 688              		@ args = 0, pretend = 0, frame = 0
 689              		@ frame_needed = 0, uses_anonymous_args = 0
 690              		@ link register save eliminated.
 691              	.LVL24:
 692              		.loc 1 1404 0
 693 0000 024B     		ldr	r3, .L80
 694 0002 1878     		ldrb	r0, [r3]	@ zero_extendqisi2
 695              	.LVL25:
 696              		.loc 1 1413 0
 697 0004 AA38     		subs	r0, r0, #170
 698              	.LVL26:
 699 0006 18BF     		it	ne
 700 0008 0120     		movne	r0, #1
 701 000a 7047     		bx	lr
 702              	.L81:
 703              		.align	2
 704              	.L80:
 705 000c 153C0240 		.word	1073888277
 706              		.cfi_endproc
 707              	.LFE156:
 708              		.size	FLASH_OB_GetRDP, .-FLASH_OB_GetRDP
 709              		.section	.text.FLASH_OB_GetBOR,"ax",%progbits
 710              		.align	2
 711              		.p2align 4,,15
 712              		.global	FLASH_OB_GetBOR
 713              		.thumb
 714              		.thumb_func
 715              		.type	FLASH_OB_GetBOR, %function
 716              	FLASH_OB_GetBOR:
 717              	.LFB157:
 718              		.loc 1 1425 0
 719              		.cfi_startproc
 720              		@ args = 0, pretend = 0, frame = 0
 721              		@ frame_needed = 0, uses_anonymous_args = 0
 722              		@ link register save eliminated.
 723              		.loc 1 1427 0
 724 0000 024B     		ldr	r3, .L83
 725 0002 1878     		ldrb	r0, [r3]	@ zero_extendqisi2
 726              		.loc 1 1428 0
 727 0004 00F00C00 		and	r0, r0, #12
 728 0008 7047     		bx	lr
 729              	.L84:
 730 000a 00BF     		.align	2
 731              	.L83:
 732 000c 143C0240 		.word	1073888276
 733              		.cfi_endproc
 734              	.LFE157:
 735              		.size	FLASH_OB_GetBOR, .-FLASH_OB_GetBOR
 736              		.section	.text.FLASH_ITConfig,"ax",%progbits
 737              		.align	2
 738              		.p2align 4,,15
 739              		.global	FLASH_ITConfig
 740              		.thumb
 741              		.thumb_func
ARM GAS  /var/folders/m4/4md61f0s1_g0rzfghffqnxvr0000gn/T//ccsS3EJ9.s 			page 14


 742              		.type	FLASH_ITConfig, %function
 743              	FLASH_ITConfig:
 744              	.LFB158:
 745              		.loc 1 1454 0
 746              		.cfi_startproc
 747              		@ args = 0, pretend = 0, frame = 0
 748              		@ frame_needed = 0, uses_anonymous_args = 0
 749              	.LVL27:
 750 0000 38B5     		push	{r3, r4, r5, lr}
 751              		.cfi_def_cfa_offset 16
 752              		.cfi_offset 3, -16
 753              		.cfi_offset 4, -12
 754              		.cfi_offset 5, -8
 755              		.cfi_offset 14, -4
 756              		.loc 1 1456 0
 757 0002 30F04073 		bics	r3, r0, #50331648
 758              		.loc 1 1454 0
 759 0006 0446     		mov	r4, r0
 760 0008 0D46     		mov	r5, r1
 761              		.loc 1 1456 0
 762 000a 11D1     		bne	.L89
 763              		.loc 1 1456 0 is_stmt 0 discriminator 1
 764 000c 0030     		adds	r0, r0, #0
 765              	.LVL28:
 766 000e 18BF     		it	ne
 767 0010 0120     		movne	r0, #1
 768              	.L86:
 769              		.loc 1 1456 0 discriminator 6
 770 0012 FFF7FEFF 		bl	assert_param
 771              	.LVL29:
 772              		.loc 1 1457 0 is_stmt 1 discriminator 6
 773 0016 012D     		cmp	r5, #1
 774 0018 8CBF     		ite	hi
 775 001a 0020     		movhi	r0, #0
 776 001c 0120     		movls	r0, #1
 777 001e FFF7FEFF 		bl	assert_param
 778              	.LVL30:
 779              		.loc 1 1462 0 discriminator 6
 780 0022 064A     		ldr	r2, .L92
 781 0024 1369     		ldr	r3, [r2, #16]
 782              		.loc 1 1459 0 discriminator 6
 783 0026 2DB9     		cbnz	r5, .L91
 784              		.loc 1 1467 0
 785 0028 23EA0404 		bic	r4, r3, r4
 786              	.LVL31:
 787 002c 1461     		str	r4, [r2, #16]
 788 002e 38BD     		pop	{r3, r4, r5, pc}
 789              	.LVL32:
 790              	.L89:
 791              		.loc 1 1456 0
 792 0030 0020     		movs	r0, #0
 793              	.LVL33:
 794 0032 EEE7     		b	.L86
 795              	.LVL34:
 796              	.L91:
 797              		.loc 1 1462 0
 798 0034 1C43     		orrs	r4, r4, r3
ARM GAS  /var/folders/m4/4md61f0s1_g0rzfghffqnxvr0000gn/T//ccsS3EJ9.s 			page 15


 799              	.LVL35:
 800 0036 1461     		str	r4, [r2, #16]
 801 0038 38BD     		pop	{r3, r4, r5, pc}
 802              	.L93:
 803 003a 00BF     		.align	2
 804              	.L92:
 805 003c 003C0240 		.word	1073888256
 806              		.cfi_endproc
 807              	.LFE158:
 808              		.size	FLASH_ITConfig, .-FLASH_ITConfig
 809              		.section	.text.FLASH_GetFlagStatus,"ax",%progbits
 810              		.align	2
 811              		.p2align 4,,15
 812              		.global	FLASH_GetFlagStatus
 813              		.thumb
 814              		.thumb_func
 815              		.type	FLASH_GetFlagStatus, %function
 816              	FLASH_GetFlagStatus:
 817              	.LFB159:
 818              		.loc 1 1486 0
 819              		.cfi_startproc
 820              		@ args = 0, pretend = 0, frame = 0
 821              		@ frame_needed = 0, uses_anonymous_args = 0
 822              	.LVL36:
 823              		.loc 1 1489 0
 824 0000 431E     		subs	r3, r0, #1
 825 0002 012B     		cmp	r3, #1
 826              		.loc 1 1486 0
 827 0004 10B5     		push	{r4, lr}
 828              		.cfi_def_cfa_offset 8
 829              		.cfi_offset 4, -8
 830              		.cfi_offset 14, -4
 831              		.loc 1 1486 0
 832 0006 0446     		mov	r4, r0
 833              		.loc 1 1489 0
 834 0008 10D9     		bls	.L101
 835              		.loc 1 1489 0 is_stmt 0 discriminator 2
 836 000a 1028     		cmp	r0, #16
 837 000c 0ED0     		beq	.L101
 838              		.loc 1 1489 0 discriminator 4
 839 000e 2028     		cmp	r0, #32
 840 0010 0CD0     		beq	.L101
 841              		.loc 1 1489 0 discriminator 6
 842 0012 4028     		cmp	r0, #64
 843 0014 0AD0     		beq	.L101
 844              		.loc 1 1489 0 discriminator 8
 845 0016 8028     		cmp	r0, #128
 846 0018 08D0     		beq	.L101
 847              		.loc 1 1489 0 discriminator 10
 848 001a B0F5803F 		cmp	r0, #65536
 849 001e 05D0     		beq	.L101
 850              		.loc 1 1489 0 discriminator 12
 851 0020 A0F58070 		sub	r0, r0, #256
 852              	.LVL37:
 853 0024 B0FA80F0 		clz	r0, r0
 854 0028 4009     		lsrs	r0, r0, #5
 855 002a 00E0     		b	.L95
ARM GAS  /var/folders/m4/4md61f0s1_g0rzfghffqnxvr0000gn/T//ccsS3EJ9.s 			page 16


 856              	.LVL38:
 857              	.L101:
 858              		.loc 1 1489 0
 859 002c 0120     		movs	r0, #1
 860              	.LVL39:
 861              	.L95:
 862              		.loc 1 1489 0 discriminator 16
 863 002e FFF7FEFF 		bl	assert_param
 864              	.LVL40:
 865              		.loc 1 1491 0 is_stmt 1 discriminator 16
 866 0032 034B     		ldr	r3, .L103
 867 0034 DB68     		ldr	r3, [r3, #12]
 868              	.LVL41:
 869 0036 1C42     		tst	r4, r3
 870              		.loc 1 1501 0 discriminator 16
 871 0038 14BF     		ite	ne
 872 003a 0120     		movne	r0, #1
 873 003c 0020     		moveq	r0, #0
 874 003e 10BD     		pop	{r4, pc}
 875              	.LVL42:
 876              	.L104:
 877              		.align	2
 878              	.L103:
 879 0040 003C0240 		.word	1073888256
 880              		.cfi_endproc
 881              	.LFE159:
 882              		.size	FLASH_GetFlagStatus, .-FLASH_GetFlagStatus
 883              		.section	.text.FLASH_ClearFlag,"ax",%progbits
 884              		.align	2
 885              		.p2align 4,,15
 886              		.global	FLASH_ClearFlag
 887              		.thumb
 888              		.thumb_func
 889              		.type	FLASH_ClearFlag, %function
 890              	FLASH_ClearFlag:
 891              	.LFB160:
 892              		.loc 1 1517 0
 893              		.cfi_startproc
 894              		@ args = 0, pretend = 0, frame = 0
 895              		@ frame_needed = 0, uses_anonymous_args = 0
 896              	.LVL43:
 897              		.loc 1 1519 0
 898 0000 20F4F973 		bic	r3, r0, #498
 899 0004 23F00103 		bic	r3, r3, #1
 900              		.loc 1 1517 0
 901 0008 10B5     		push	{r4, lr}
 902              		.cfi_def_cfa_offset 8
 903              		.cfi_offset 4, -8
 904              		.cfi_offset 14, -4
 905              		.loc 1 1517 0
 906 000a 0446     		mov	r4, r0
 907              		.loc 1 1519 0
 908 000c 3BB9     		cbnz	r3, .L107
 909              		.loc 1 1519 0 is_stmt 0 discriminator 1
 910 000e 0030     		adds	r0, r0, #0
 911              	.LVL44:
 912 0010 18BF     		it	ne
ARM GAS  /var/folders/m4/4md61f0s1_g0rzfghffqnxvr0000gn/T//ccsS3EJ9.s 			page 17


 913 0012 0120     		movne	r0, #1
 914 0014 FFF7FEFF 		bl	assert_param
 915              	.LVL45:
 916              		.loc 1 1522 0 is_stmt 1 discriminator 1
 917 0018 044B     		ldr	r3, .L109
 918 001a DC60     		str	r4, [r3, #12]
 919 001c 10BD     		pop	{r4, pc}
 920              	.LVL46:
 921              	.L107:
 922              		.loc 1 1519 0
 923 001e 0020     		movs	r0, #0
 924              	.LVL47:
 925 0020 FFF7FEFF 		bl	assert_param
 926              	.LVL48:
 927              		.loc 1 1522 0
 928 0024 014B     		ldr	r3, .L109
 929 0026 DC60     		str	r4, [r3, #12]
 930 0028 10BD     		pop	{r4, pc}
 931              	.LVL49:
 932              	.L110:
 933 002a 00BF     		.align	2
 934              	.L109:
 935 002c 003C0240 		.word	1073888256
 936              		.cfi_endproc
 937              	.LFE160:
 938              		.size	FLASH_ClearFlag, .-FLASH_ClearFlag
 939              		.section	.text.FLASH_GetStatus,"ax",%progbits
 940              		.align	2
 941              		.p2align 4,,15
 942              		.global	FLASH_GetStatus
 943              		.thumb
 944              		.thumb_func
 945              		.type	FLASH_GetStatus, %function
 946              	FLASH_GetStatus:
 947              	.LFB161:
 948              		.loc 1 1532 0
 949              		.cfi_startproc
 950              		@ args = 0, pretend = 0, frame = 0
 951              		@ frame_needed = 0, uses_anonymous_args = 0
 952              		@ link register save eliminated.
 953              	.LVL50:
 954              		.loc 1 1535 0
 955 0000 0E4B     		ldr	r3, .L121
 956 0002 DA68     		ldr	r2, [r3, #12]
 957 0004 D203     		lsls	r2, r2, #15
 958 0006 09D4     		bmi	.L113
 959              		.loc 1 1541 0
 960 0008 DA68     		ldr	r2, [r3, #12]
 961 000a D106     		lsls	r1, r2, #27
 962 000c 01D5     		bpl	.L118
 963              		.loc 1 1543 0
 964 000e 0620     		movs	r0, #6
 965 0010 7047     		bx	lr
 966              	.L118:
 967              		.loc 1 1547 0
 968 0012 DA68     		ldr	r2, [r3, #12]
 969 0014 D205     		lsls	r2, r2, #23
ARM GAS  /var/folders/m4/4md61f0s1_g0rzfghffqnxvr0000gn/T//ccsS3EJ9.s 			page 18


 970 0016 03D5     		bpl	.L119
 971              		.loc 1 1549 0
 972 0018 0220     		movs	r0, #2
 973 001a 7047     		bx	lr
 974              	.L113:
 975              		.loc 1 1537 0
 976 001c 0120     		movs	r0, #1
 977 001e 7047     		bx	lr
 978              	.L119:
 979              		.loc 1 1553 0
 980 0020 DA68     		ldr	r2, [r3, #12]
 981 0022 12F0E00F 		tst	r2, #224
 982 0026 01D0     		beq	.L120
 983              		.loc 1 1555 0
 984 0028 0720     		movs	r0, #7
 985              	.LVL51:
 986              		.loc 1 1573 0
 987 002a 7047     		bx	lr
 988              	.LVL52:
 989              	.L120:
 990              	.LBB4:
 991              	.LBB5:
 992              		.loc 1 1559 0
 993 002c DB68     		ldr	r3, [r3, #12]
 994 002e 13F0020F 		tst	r3, #2
 995              		.loc 1 1565 0
 996 0032 14BF     		ite	ne
 997 0034 0820     		movne	r0, #8
 998 0036 0920     		moveq	r0, #9
 999 0038 7047     		bx	lr
 1000              	.L122:
 1001 003a 00BF     		.align	2
 1002              	.L121:
 1003 003c 003C0240 		.word	1073888256
 1004              	.LBE5:
 1005              	.LBE4:
 1006              		.cfi_endproc
 1007              	.LFE161:
 1008              		.size	FLASH_GetStatus, .-FLASH_GetStatus
 1009              		.section	.text.FLASH_WaitForLastOperation,"ax",%progbits
 1010              		.align	2
 1011              		.p2align 4,,15
 1012              		.global	FLASH_WaitForLastOperation
 1013              		.thumb
 1014              		.thumb_func
 1015              		.type	FLASH_WaitForLastOperation, %function
 1016              	FLASH_WaitForLastOperation:
 1017              	.LFB162:
 1018              		.loc 1 1582 0
 1019              		.cfi_startproc
 1020              		@ args = 0, pretend = 0, frame = 8
 1021              		@ frame_needed = 0, uses_anonymous_args = 0
 1022 0000 00B5     		push	{lr}
 1023              		.cfi_def_cfa_offset 4
 1024              		.cfi_offset 14, -4
 1025 0002 83B0     		sub	sp, sp, #12
 1026              		.cfi_def_cfa_offset 16
ARM GAS  /var/folders/m4/4md61f0s1_g0rzfghffqnxvr0000gn/T//ccsS3EJ9.s 			page 19


 1027              		.loc 1 1583 0
 1028 0004 0923     		movs	r3, #9
 1029 0006 8DF80730 		strb	r3, [sp, #7]
 1030              	.L132:
 1031              		.loc 1 1586 0
 1032 000a FFF7FEFF 		bl	FLASH_GetStatus
 1033              	.LVL53:
 1034 000e 8DF80700 		strb	r0, [sp, #7]
 1035              		.loc 1 1591 0
 1036 0012 9DF80730 		ldrb	r3, [sp, #7]	@ zero_extendqisi2
 1037 0016 012B     		cmp	r3, #1
 1038 0018 F7D0     		beq	.L132
 1039              		.loc 1 1596 0
 1040 001a 9DF80700 		ldrb	r0, [sp, #7]	@ zero_extendqisi2
 1041 001e C0B2     		uxtb	r0, r0
 1042              		.loc 1 1597 0
 1043 0020 03B0     		add	sp, sp, #12
 1044              		.cfi_def_cfa_offset 4
 1045              		@ sp needed
 1046 0022 5DF804FB 		ldr	pc, [sp], #4
 1047              		.cfi_endproc
 1048              	.LFE162:
 1049              		.size	FLASH_WaitForLastOperation, .-FLASH_WaitForLastOperation
 1050 0026 00BF     		.section	.text.FLASH_EraseSector,"ax",%progbits
 1051              		.align	2
 1052              		.p2align 4,,15
 1053              		.global	FLASH_EraseSector
 1054              		.thumb
 1055              		.thumb_func
 1056              		.type	FLASH_EraseSector, %function
 1057              	FLASH_EraseSector:
 1058              	.LFB131:
 1059              		.loc 1 473 0
 1060              		.cfi_startproc
 1061              		@ args = 0, pretend = 0, frame = 0
 1062              		@ frame_needed = 0, uses_anonymous_args = 0
 1063              	.LVL54:
 1064 0000 70B5     		push	{r4, r5, r6, lr}
 1065              		.cfi_def_cfa_offset 16
 1066              		.cfi_offset 4, -16
 1067              		.cfi_offset 5, -12
 1068              		.cfi_offset 6, -8
 1069              		.cfi_offset 14, -4
 1070              		.loc 1 473 0
 1071 0002 0546     		mov	r5, r0
 1072              		.loc 1 478 0
 1073 0004 35F01803 		bics	r3, r5, #24
 1074              		.loc 1 473 0
 1075 0008 0C46     		mov	r4, r1
 1076              		.loc 1 478 0
 1077 000a 20F00800 		bic	r0, r0, #8
 1078              	.LVL55:
 1079 000e 0ED0     		beq	.L142
 1080              		.loc 1 478 0 is_stmt 0 discriminator 8
 1081 0010 202B     		cmp	r3, #32
 1082 0012 0CD0     		beq	.L142
 1083              		.loc 1 478 0 discriminator 16
ARM GAS  /var/folders/m4/4md61f0s1_g0rzfghffqnxvr0000gn/T//ccsS3EJ9.s 			page 20


 1084 0014 402B     		cmp	r3, #64
 1085 0016 0AD0     		beq	.L142
 1086              		.loc 1 478 0 discriminator 24
 1087 0018 802B     		cmp	r3, #128
 1088 001a 08D0     		beq	.L142
 1089              		.loc 1 478 0 discriminator 32
 1090 001c A02B     		cmp	r3, #160
 1091 001e 06D0     		beq	.L142
 1092              		.loc 1 478 0 discriminator 40
 1093 0020 C028     		cmp	r0, #192
 1094 0022 04D0     		beq	.L142
 1095              		.loc 1 478 0 discriminator 44
 1096 0024 A0F1D003 		sub	r3, r0, #208
 1097 0028 5842     		rsbs	r0, r3, #0
 1098 002a 5841     		adcs	r0, r0, r3
 1099 002c 00E0     		b	.L134
 1100              	.L142:
 1101              		.loc 1 478 0
 1102 002e 0120     		movs	r0, #1
 1103              	.L134:
 1104              		.loc 1 478 0 discriminator 50
 1105 0030 FFF7FEFF 		bl	assert_param
 1106              	.LVL56:
 1107              		.loc 1 479 0 is_stmt 1 discriminator 50
 1108 0034 032C     		cmp	r4, #3
 1109 0036 8CBF     		ite	hi
 1110 0038 0020     		movhi	r0, #0
 1111 003a 0120     		movls	r0, #1
 1112 003c FFF7FEFF 		bl	assert_param
 1113              	.LVL57:
 1114              		.loc 1 481 0 discriminator 50
 1115 0040 3CB1     		cbz	r4, .L135
 1116              		.loc 1 485 0
 1117 0042 012C     		cmp	r4, #1
 1118 0044 0AD0     		beq	.L144
 1119              		.loc 1 489 0
 1120 0046 022C     		cmp	r4, #2
 1121              		.loc 1 495 0
 1122 0048 0CBF     		ite	eq
 1123 004a 4FF40074 		moveq	r4, #512
 1124 004e 4FF44074 		movne	r4, #768
 1125              	.L135:
 1126              	.LVL58:
 1127              		.loc 1 498 0
 1128 0052 FFF7FEFF 		bl	FLASH_WaitForLastOperation
 1129              	.LVL59:
 1130              		.loc 1 500 0
 1131 0056 0928     		cmp	r0, #9
 1132 0058 06D0     		beq	.L147
 1133              	.L136:
 1134              		.loc 1 518 0
 1135 005a 70BD     		pop	{r4, r5, r6, pc}
 1136              	.LVL60:
 1137              	.L144:
 1138              		.loc 1 498 0
 1139 005c FFF7FEFF 		bl	FLASH_WaitForLastOperation
 1140              	.LVL61:
ARM GAS  /var/folders/m4/4md61f0s1_g0rzfghffqnxvr0000gn/T//ccsS3EJ9.s 			page 21


 1141              		.loc 1 500 0
 1142 0060 0928     		cmp	r0, #9
 1143              		.loc 1 487 0
 1144 0062 4FF48074 		mov	r4, #256
 1145              	.LVL62:
 1146              		.loc 1 500 0
 1147 0066 F8D1     		bne	.L136
 1148              	.L147:
 1149              		.loc 1 503 0
 1150 0068 0F4E     		ldr	r6, .L148
 1151 006a 3369     		ldr	r3, [r6, #16]
 1152 006c 23F44073 		bic	r3, r3, #768
 1153 0070 3361     		str	r3, [r6, #16]
 1154              		.loc 1 504 0
 1155 0072 3169     		ldr	r1, [r6, #16]
 1156 0074 0C43     		orrs	r4, r4, r1
 1157              	.LVL63:
 1158 0076 3461     		str	r4, [r6, #16]
 1159              		.loc 1 505 0
 1160 0078 3369     		ldr	r3, [r6, #16]
 1161 007a 23F0F803 		bic	r3, r3, #248
 1162 007e 3361     		str	r3, [r6, #16]
 1163              		.loc 1 506 0
 1164 0080 3369     		ldr	r3, [r6, #16]
 1165 0082 43F00203 		orr	r3, r3, #2
 1166 0086 1D43     		orrs	r5, r5, r3
 1167              	.LVL64:
 1168 0088 3561     		str	r5, [r6, #16]
 1169              		.loc 1 507 0
 1170 008a 3369     		ldr	r3, [r6, #16]
 1171 008c 43F48033 		orr	r3, r3, #65536
 1172 0090 3361     		str	r3, [r6, #16]
 1173              		.loc 1 510 0
 1174 0092 FFF7FEFF 		bl	FLASH_WaitForLastOperation
 1175              	.LVL65:
 1176              		.loc 1 513 0
 1177 0096 3369     		ldr	r3, [r6, #16]
 1178 0098 23F00203 		bic	r3, r3, #2
 1179 009c 3361     		str	r3, [r6, #16]
 1180              		.loc 1 514 0
 1181 009e 3369     		ldr	r3, [r6, #16]
 1182 00a0 23F0F803 		bic	r3, r3, #248
 1183 00a4 3361     		str	r3, [r6, #16]
 1184              		.loc 1 518 0
 1185 00a6 70BD     		pop	{r4, r5, r6, pc}
 1186              	.L149:
 1187              		.align	2
 1188              	.L148:
 1189 00a8 003C0240 		.word	1073888256
 1190              		.cfi_endproc
 1191              	.LFE131:
 1192              		.size	FLASH_EraseSector, .-FLASH_EraseSector
 1193              		.section	.text.FLASH_EraseAllSectors,"ax",%progbits
 1194              		.align	2
 1195              		.p2align 4,,15
 1196              		.global	FLASH_EraseAllSectors
 1197              		.thumb
ARM GAS  /var/folders/m4/4md61f0s1_g0rzfghffqnxvr0000gn/T//ccsS3EJ9.s 			page 22


 1198              		.thumb_func
 1199              		.type	FLASH_EraseAllSectors, %function
 1200              	FLASH_EraseAllSectors:
 1201              	.LFB132:
 1202              		.loc 1 541 0
 1203              		.cfi_startproc
 1204              		@ args = 0, pretend = 0, frame = 0
 1205              		@ frame_needed = 0, uses_anonymous_args = 0
 1206              	.LVL66:
 1207 0000 70B5     		push	{r4, r5, r6, lr}
 1208              		.cfi_def_cfa_offset 16
 1209              		.cfi_offset 4, -16
 1210              		.cfi_offset 5, -12
 1211              		.cfi_offset 6, -8
 1212              		.cfi_offset 14, -4
 1213              		.loc 1 541 0
 1214 0002 0446     		mov	r4, r0
 1215              		.loc 1 546 0
 1216 0004 FFF7FEFF 		bl	FLASH_WaitForLastOperation
 1217              	.LVL67:
 1218              		.loc 1 547 0
 1219 0008 032C     		cmp	r4, #3
 1220              		.loc 1 546 0
 1221 000a 0546     		mov	r5, r0
 1222              	.LVL68:
 1223              		.loc 1 547 0
 1224 000c 8CBF     		ite	hi
 1225 000e 0020     		movhi	r0, #0
 1226 0010 0120     		movls	r0, #1
 1227 0012 FFF7FEFF 		bl	assert_param
 1228              	.LVL69:
 1229              		.loc 1 549 0
 1230 0016 3CB1     		cbz	r4, .L151
 1231              		.loc 1 553 0
 1232 0018 012C     		cmp	r4, #1
 1233 001a 09D0     		beq	.L154
 1234              		.loc 1 557 0
 1235 001c 022C     		cmp	r4, #2
 1236              		.loc 1 563 0
 1237 001e 0CBF     		ite	eq
 1238 0020 4FF40074 		moveq	r4, #512
 1239 0024 4FF44074 		movne	r4, #768
 1240              	.L151:
 1241              	.LVL70:
 1242              		.loc 1 565 0
 1243 0028 092D     		cmp	r5, #9
 1244 002a 05D0     		beq	.L157
 1245              	.L152:
 1246              		.loc 1 597 0
 1247 002c 2846     		mov	r0, r5
 1248 002e 70BD     		pop	{r4, r5, r6, pc}
 1249              	.LVL71:
 1250              	.L154:
 1251              		.loc 1 565 0
 1252 0030 092D     		cmp	r5, #9
 1253              		.loc 1 555 0
 1254 0032 4FF48074 		mov	r4, #256
ARM GAS  /var/folders/m4/4md61f0s1_g0rzfghffqnxvr0000gn/T//ccsS3EJ9.s 			page 23


 1255              	.LVL72:
 1256              		.loc 1 565 0
 1257 0036 F9D1     		bne	.L152
 1258              	.L157:
 1259              		.loc 1 582 0
 1260 0038 0C4E     		ldr	r6, .L158
 1261 003a 3369     		ldr	r3, [r6, #16]
 1262 003c 23F44073 		bic	r3, r3, #768
 1263 0040 3361     		str	r3, [r6, #16]
 1264              		.loc 1 583 0
 1265 0042 3369     		ldr	r3, [r6, #16]
 1266 0044 1C43     		orrs	r4, r4, r3
 1267              	.LVL73:
 1268 0046 3461     		str	r4, [r6, #16]
 1269              		.loc 1 584 0
 1270 0048 3369     		ldr	r3, [r6, #16]
 1271 004a 43F00403 		orr	r3, r3, #4
 1272 004e 3361     		str	r3, [r6, #16]
 1273              		.loc 1 585 0
 1274 0050 3369     		ldr	r3, [r6, #16]
 1275 0052 43F48033 		orr	r3, r3, #65536
 1276 0056 3361     		str	r3, [r6, #16]
 1277              		.loc 1 588 0
 1278 0058 FFF7FEFF 		bl	FLASH_WaitForLastOperation
 1279              	.LVL74:
 1280              		.loc 1 591 0
 1281 005c 3369     		ldr	r3, [r6, #16]
 1282              		.loc 1 588 0
 1283 005e 0546     		mov	r5, r0
 1284              	.LVL75:
 1285              		.loc 1 591 0
 1286 0060 23F00403 		bic	r3, r3, #4
 1287 0064 3361     		str	r3, [r6, #16]
 1288              		.loc 1 597 0
 1289 0066 2846     		mov	r0, r5
 1290 0068 70BD     		pop	{r4, r5, r6, pc}
 1291              	.LVL76:
 1292              	.L159:
 1293 006a 00BF     		.align	2
 1294              	.L158:
 1295 006c 003C0240 		.word	1073888256
 1296              		.cfi_endproc
 1297              	.LFE132:
 1298              		.size	FLASH_EraseAllSectors, .-FLASH_EraseAllSectors
 1299              		.section	.text.FLASH_EraseAllBank1Sectors,"ax",%progbits
 1300              		.align	2
 1301              		.p2align 4,,15
 1302              		.global	FLASH_EraseAllBank1Sectors
 1303              		.thumb
 1304              		.thumb_func
 1305              		.type	FLASH_EraseAllBank1Sectors, %function
 1306              	FLASH_EraseAllBank1Sectors:
 1307              	.LFB133:
 1308              		.loc 1 622 0
 1309              		.cfi_startproc
 1310              		@ args = 0, pretend = 0, frame = 0
 1311              		@ frame_needed = 0, uses_anonymous_args = 0
ARM GAS  /var/folders/m4/4md61f0s1_g0rzfghffqnxvr0000gn/T//ccsS3EJ9.s 			page 24


 1312              	.LVL77:
 1313 0000 70B5     		push	{r4, r5, r6, lr}
 1314              		.cfi_def_cfa_offset 16
 1315              		.cfi_offset 4, -16
 1316              		.cfi_offset 5, -12
 1317              		.cfi_offset 6, -8
 1318              		.cfi_offset 14, -4
 1319              		.loc 1 622 0
 1320 0002 0446     		mov	r4, r0
 1321              		.loc 1 627 0
 1322 0004 FFF7FEFF 		bl	FLASH_WaitForLastOperation
 1323              	.LVL78:
 1324              		.loc 1 628 0
 1325 0008 032C     		cmp	r4, #3
 1326              		.loc 1 627 0
 1327 000a 0546     		mov	r5, r0
 1328              	.LVL79:
 1329              		.loc 1 628 0
 1330 000c 8CBF     		ite	hi
 1331 000e 0020     		movhi	r0, #0
 1332 0010 0120     		movls	r0, #1
 1333 0012 FFF7FEFF 		bl	assert_param
 1334              	.LVL80:
 1335              		.loc 1 630 0
 1336 0016 3CB1     		cbz	r4, .L161
 1337              		.loc 1 634 0
 1338 0018 012C     		cmp	r4, #1
 1339 001a 09D0     		beq	.L164
 1340              		.loc 1 638 0
 1341 001c 022C     		cmp	r4, #2
 1342              		.loc 1 644 0
 1343 001e 0CBF     		ite	eq
 1344 0020 4FF40074 		moveq	r4, #512
 1345 0024 4FF44074 		movne	r4, #768
 1346              	.L161:
 1347              	.LVL81:
 1348              		.loc 1 646 0
 1349 0028 092D     		cmp	r5, #9
 1350 002a 05D0     		beq	.L167
 1351              	.L162:
 1352              		.loc 1 663 0
 1353 002c 2846     		mov	r0, r5
 1354 002e 70BD     		pop	{r4, r5, r6, pc}
 1355              	.LVL82:
 1356              	.L164:
 1357              		.loc 1 646 0
 1358 0030 092D     		cmp	r5, #9
 1359              		.loc 1 636 0
 1360 0032 4FF48074 		mov	r4, #256
 1361              	.LVL83:
 1362              		.loc 1 646 0
 1363 0036 F9D1     		bne	.L162
 1364              	.L167:
 1365              		.loc 1 649 0
 1366 0038 0C4E     		ldr	r6, .L168
 1367 003a 3369     		ldr	r3, [r6, #16]
 1368 003c 23F44073 		bic	r3, r3, #768
ARM GAS  /var/folders/m4/4md61f0s1_g0rzfghffqnxvr0000gn/T//ccsS3EJ9.s 			page 25


 1369 0040 3361     		str	r3, [r6, #16]
 1370              		.loc 1 650 0
 1371 0042 3369     		ldr	r3, [r6, #16]
 1372 0044 1C43     		orrs	r4, r4, r3
 1373              	.LVL84:
 1374 0046 3461     		str	r4, [r6, #16]
 1375              		.loc 1 651 0
 1376 0048 3369     		ldr	r3, [r6, #16]
 1377 004a 43F00403 		orr	r3, r3, #4
 1378 004e 3361     		str	r3, [r6, #16]
 1379              		.loc 1 652 0
 1380 0050 3369     		ldr	r3, [r6, #16]
 1381 0052 43F48033 		orr	r3, r3, #65536
 1382 0056 3361     		str	r3, [r6, #16]
 1383              		.loc 1 655 0
 1384 0058 FFF7FEFF 		bl	FLASH_WaitForLastOperation
 1385              	.LVL85:
 1386              		.loc 1 658 0
 1387 005c 3369     		ldr	r3, [r6, #16]
 1388              		.loc 1 655 0
 1389 005e 0546     		mov	r5, r0
 1390              	.LVL86:
 1391              		.loc 1 658 0
 1392 0060 23F00403 		bic	r3, r3, #4
 1393 0064 3361     		str	r3, [r6, #16]
 1394              		.loc 1 663 0
 1395 0066 2846     		mov	r0, r5
 1396 0068 70BD     		pop	{r4, r5, r6, pc}
 1397              	.LVL87:
 1398              	.L169:
 1399 006a 00BF     		.align	2
 1400              	.L168:
 1401 006c 003C0240 		.word	1073888256
 1402              		.cfi_endproc
 1403              	.LFE133:
 1404              		.size	FLASH_EraseAllBank1Sectors, .-FLASH_EraseAllBank1Sectors
 1405              		.section	.text.FLASH_EraseAllBank2Sectors,"ax",%progbits
 1406              		.align	2
 1407              		.p2align 4,,15
 1408              		.global	FLASH_EraseAllBank2Sectors
 1409              		.thumb
 1410              		.thumb_func
 1411              		.type	FLASH_EraseAllBank2Sectors, %function
 1412              	FLASH_EraseAllBank2Sectors:
 1413              	.LFB134:
 1414              		.loc 1 689 0
 1415              		.cfi_startproc
 1416              		@ args = 0, pretend = 0, frame = 0
 1417              		@ frame_needed = 0, uses_anonymous_args = 0
 1418              	.LVL88:
 1419 0000 70B5     		push	{r4, r5, r6, lr}
 1420              		.cfi_def_cfa_offset 16
 1421              		.cfi_offset 4, -16
 1422              		.cfi_offset 5, -12
 1423              		.cfi_offset 6, -8
 1424              		.cfi_offset 14, -4
 1425              		.loc 1 689 0
ARM GAS  /var/folders/m4/4md61f0s1_g0rzfghffqnxvr0000gn/T//ccsS3EJ9.s 			page 26


 1426 0002 0446     		mov	r4, r0
 1427              		.loc 1 694 0
 1428 0004 FFF7FEFF 		bl	FLASH_WaitForLastOperation
 1429              	.LVL89:
 1430              		.loc 1 695 0
 1431 0008 032C     		cmp	r4, #3
 1432              		.loc 1 694 0
 1433 000a 0546     		mov	r5, r0
 1434              	.LVL90:
 1435              		.loc 1 695 0
 1436 000c 8CBF     		ite	hi
 1437 000e 0020     		movhi	r0, #0
 1438 0010 0120     		movls	r0, #1
 1439 0012 FFF7FEFF 		bl	assert_param
 1440              	.LVL91:
 1441              		.loc 1 697 0
 1442 0016 3CB1     		cbz	r4, .L171
 1443              		.loc 1 701 0
 1444 0018 012C     		cmp	r4, #1
 1445 001a 09D0     		beq	.L174
 1446              		.loc 1 705 0
 1447 001c 022C     		cmp	r4, #2
 1448              		.loc 1 711 0
 1449 001e 0CBF     		ite	eq
 1450 0020 4FF40074 		moveq	r4, #512
 1451 0024 4FF44074 		movne	r4, #768
 1452              	.L171:
 1453              	.LVL92:
 1454              		.loc 1 713 0
 1455 0028 092D     		cmp	r5, #9
 1456 002a 05D0     		beq	.L177
 1457              	.L172:
 1458              		.loc 1 730 0
 1459 002c 2846     		mov	r0, r5
 1460 002e 70BD     		pop	{r4, r5, r6, pc}
 1461              	.LVL93:
 1462              	.L174:
 1463              		.loc 1 713 0
 1464 0030 092D     		cmp	r5, #9
 1465              		.loc 1 703 0
 1466 0032 4FF48074 		mov	r4, #256
 1467              	.LVL94:
 1468              		.loc 1 713 0
 1469 0036 F9D1     		bne	.L172
 1470              	.L177:
 1471              		.loc 1 716 0
 1472 0038 0C4E     		ldr	r6, .L178
 1473 003a 3369     		ldr	r3, [r6, #16]
 1474 003c 23F44073 		bic	r3, r3, #768
 1475 0040 3361     		str	r3, [r6, #16]
 1476              		.loc 1 717 0
 1477 0042 3369     		ldr	r3, [r6, #16]
 1478 0044 1C43     		orrs	r4, r4, r3
 1479              	.LVL95:
 1480 0046 3461     		str	r4, [r6, #16]
 1481              		.loc 1 718 0
 1482 0048 3369     		ldr	r3, [r6, #16]
ARM GAS  /var/folders/m4/4md61f0s1_g0rzfghffqnxvr0000gn/T//ccsS3EJ9.s 			page 27


 1483 004a 43F40043 		orr	r3, r3, #32768
 1484 004e 3361     		str	r3, [r6, #16]
 1485              		.loc 1 719 0
 1486 0050 3369     		ldr	r3, [r6, #16]
 1487 0052 43F48033 		orr	r3, r3, #65536
 1488 0056 3361     		str	r3, [r6, #16]
 1489              		.loc 1 722 0
 1490 0058 FFF7FEFF 		bl	FLASH_WaitForLastOperation
 1491              	.LVL96:
 1492              		.loc 1 725 0
 1493 005c 3369     		ldr	r3, [r6, #16]
 1494              		.loc 1 722 0
 1495 005e 0546     		mov	r5, r0
 1496              	.LVL97:
 1497              		.loc 1 725 0
 1498 0060 23F40043 		bic	r3, r3, #32768
 1499 0064 3361     		str	r3, [r6, #16]
 1500              		.loc 1 730 0
 1501 0066 2846     		mov	r0, r5
 1502 0068 70BD     		pop	{r4, r5, r6, pc}
 1503              	.LVL98:
 1504              	.L179:
 1505 006a 00BF     		.align	2
 1506              	.L178:
 1507 006c 003C0240 		.word	1073888256
 1508              		.cfi_endproc
 1509              	.LFE134:
 1510              		.size	FLASH_EraseAllBank2Sectors, .-FLASH_EraseAllBank2Sectors
 1511              		.section	.text.FLASH_ProgramDoubleWord,"ax",%progbits
 1512              		.align	2
 1513              		.p2align 4,,15
 1514              		.global	FLASH_ProgramDoubleWord
 1515              		.thumb
 1516              		.thumb_func
 1517              		.type	FLASH_ProgramDoubleWord, %function
 1518              	FLASH_ProgramDoubleWord:
 1519              	.LFB135:
 1520              		.loc 1 746 0
 1521              		.cfi_startproc
 1522              		@ args = 0, pretend = 0, frame = 0
 1523              		@ frame_needed = 0, uses_anonymous_args = 0
 1524              	.LVL99:
 1525              		.loc 1 750 0
 1526 0000 00F17841 		add	r1, r0, #-134217728
 1527 0004 B1F5002F 		cmp	r1, #524288
 1528              		.loc 1 746 0
 1529 0008 F8B5     		push	{r3, r4, r5, r6, r7, lr}
 1530              		.cfi_def_cfa_offset 24
 1531              		.cfi_offset 3, -24
 1532              		.cfi_offset 4, -20
 1533              		.cfi_offset 5, -16
 1534              		.cfi_offset 6, -12
 1535              		.cfi_offset 7, -8
 1536              		.cfi_offset 14, -4
 1537              		.loc 1 746 0
 1538 000a 0646     		mov	r6, r0
 1539 000c 1446     		mov	r4, r2
ARM GAS  /var/folders/m4/4md61f0s1_g0rzfghffqnxvr0000gn/T//ccsS3EJ9.s 			page 28


 1540 000e 1D46     		mov	r5, r3
 1541              		.loc 1 750 0
 1542 0010 0FD3     		bcc	.L183
 1543              		.loc 1 750 0 is_stmt 0 discriminator 2
 1544 0012 00F16040 		add	r0, r0, #-536870912
 1545              	.LVL100:
 1546 0016 00F50840 		add	r0, r0, #34816
 1547 001a B0F5047F 		cmp	r0, #528
 1548 001e 2CBF     		ite	cs
 1549 0020 0020     		movcs	r0, #0
 1550 0022 0120     		movcc	r0, #1
 1551 0024 FFF7FEFF 		bl	assert_param
 1552              	.LVL101:
 1553              		.loc 1 753 0 is_stmt 1 discriminator 2
 1554 0028 FFF7FEFF 		bl	FLASH_WaitForLastOperation
 1555              	.LVL102:
 1556              		.loc 1 755 0 discriminator 2
 1557 002c 0928     		cmp	r0, #9
 1558 002e 07D0     		beq	.L185
 1559              	.L182:
 1560              		.loc 1 772 0
 1561 0030 F8BD     		pop	{r3, r4, r5, r6, r7, pc}
 1562              	.LVL103:
 1563              	.L183:
 1564              		.loc 1 750 0
 1565 0032 0120     		movs	r0, #1
 1566              	.LVL104:
 1567 0034 FFF7FEFF 		bl	assert_param
 1568              	.LVL105:
 1569              		.loc 1 753 0
 1570 0038 FFF7FEFF 		bl	FLASH_WaitForLastOperation
 1571              	.LVL106:
 1572              		.loc 1 755 0
 1573 003c 0928     		cmp	r0, #9
 1574 003e F7D1     		bne	.L182
 1575              	.L185:
 1576              		.loc 1 758 0
 1577 0040 0A4F     		ldr	r7, .L186
 1578 0042 3B69     		ldr	r3, [r7, #16]
 1579 0044 23F44073 		bic	r3, r3, #768
 1580 0048 3B61     		str	r3, [r7, #16]
 1581              		.loc 1 759 0
 1582 004a 3B69     		ldr	r3, [r7, #16]
 1583 004c 43F44073 		orr	r3, r3, #768
 1584 0050 3B61     		str	r3, [r7, #16]
 1585              		.loc 1 760 0
 1586 0052 3B69     		ldr	r3, [r7, #16]
 1587 0054 43F00103 		orr	r3, r3, #1
 1588 0058 3B61     		str	r3, [r7, #16]
 1589              		.loc 1 762 0
 1590 005a C6E90045 		strd	r4, [r6]
 1591              		.loc 1 765 0
 1592 005e FFF7FEFF 		bl	FLASH_WaitForLastOperation
 1593              	.LVL107:
 1594              		.loc 1 768 0
 1595 0062 3B69     		ldr	r3, [r7, #16]
 1596 0064 23F00103 		bic	r3, r3, #1
ARM GAS  /var/folders/m4/4md61f0s1_g0rzfghffqnxvr0000gn/T//ccsS3EJ9.s 			page 29


 1597 0068 3B61     		str	r3, [r7, #16]
 1598              		.loc 1 772 0
 1599 006a F8BD     		pop	{r3, r4, r5, r6, r7, pc}
 1600              	.LVL108:
 1601              	.L187:
 1602              		.align	2
 1603              	.L186:
 1604 006c 003C0240 		.word	1073888256
 1605              		.cfi_endproc
 1606              	.LFE135:
 1607              		.size	FLASH_ProgramDoubleWord, .-FLASH_ProgramDoubleWord
 1608              		.section	.text.FLASH_ProgramWord,"ax",%progbits
 1609              		.align	2
 1610              		.p2align 4,,15
 1611              		.global	FLASH_ProgramWord
 1612              		.thumb
 1613              		.thumb_func
 1614              		.type	FLASH_ProgramWord, %function
 1615              	FLASH_ProgramWord:
 1616              	.LFB136:
 1617              		.loc 1 789 0
 1618              		.cfi_startproc
 1619              		@ args = 0, pretend = 0, frame = 0
 1620              		@ frame_needed = 0, uses_anonymous_args = 0
 1621              	.LVL109:
 1622              		.loc 1 793 0
 1623 0000 00F17843 		add	r3, r0, #-134217728
 1624 0004 B3F5002F 		cmp	r3, #524288
 1625              		.loc 1 789 0
 1626 0008 70B5     		push	{r4, r5, r6, lr}
 1627              		.cfi_def_cfa_offset 16
 1628              		.cfi_offset 4, -16
 1629              		.cfi_offset 5, -12
 1630              		.cfi_offset 6, -8
 1631              		.cfi_offset 14, -4
 1632              		.loc 1 789 0
 1633 000a 0446     		mov	r4, r0
 1634 000c 0E46     		mov	r6, r1
 1635              		.loc 1 793 0
 1636 000e 0FD3     		bcc	.L191
 1637              		.loc 1 793 0 is_stmt 0 discriminator 2
 1638 0010 00F16040 		add	r0, r0, #-536870912
 1639              	.LVL110:
 1640 0014 00F50840 		add	r0, r0, #34816
 1641 0018 B0F5047F 		cmp	r0, #528
 1642 001c 2CBF     		ite	cs
 1643 001e 0020     		movcs	r0, #0
 1644 0020 0120     		movcc	r0, #1
 1645 0022 FFF7FEFF 		bl	assert_param
 1646              	.LVL111:
 1647              		.loc 1 796 0 is_stmt 1 discriminator 2
 1648 0026 FFF7FEFF 		bl	FLASH_WaitForLastOperation
 1649              	.LVL112:
 1650              		.loc 1 798 0 discriminator 2
 1651 002a 0928     		cmp	r0, #9
 1652 002c 07D0     		beq	.L193
 1653              	.L190:
ARM GAS  /var/folders/m4/4md61f0s1_g0rzfghffqnxvr0000gn/T//ccsS3EJ9.s 			page 30


 1654              		.loc 1 815 0
 1655 002e 70BD     		pop	{r4, r5, r6, pc}
 1656              	.LVL113:
 1657              	.L191:
 1658              		.loc 1 793 0
 1659 0030 0120     		movs	r0, #1
 1660              	.LVL114:
 1661 0032 FFF7FEFF 		bl	assert_param
 1662              	.LVL115:
 1663              		.loc 1 796 0
 1664 0036 FFF7FEFF 		bl	FLASH_WaitForLastOperation
 1665              	.LVL116:
 1666              		.loc 1 798 0
 1667 003a 0928     		cmp	r0, #9
 1668 003c F7D1     		bne	.L190
 1669              	.L193:
 1670              		.loc 1 801 0
 1671 003e 0A4D     		ldr	r5, .L194
 1672 0040 2B69     		ldr	r3, [r5, #16]
 1673 0042 23F44073 		bic	r3, r3, #768
 1674 0046 2B61     		str	r3, [r5, #16]
 1675              		.loc 1 802 0
 1676 0048 2B69     		ldr	r3, [r5, #16]
 1677 004a 43F40073 		orr	r3, r3, #512
 1678 004e 2B61     		str	r3, [r5, #16]
 1679              		.loc 1 803 0
 1680 0050 2B69     		ldr	r3, [r5, #16]
 1681 0052 43F00103 		orr	r3, r3, #1
 1682 0056 2B61     		str	r3, [r5, #16]
 1683              		.loc 1 805 0
 1684 0058 2660     		str	r6, [r4]
 1685              		.loc 1 808 0
 1686 005a FFF7FEFF 		bl	FLASH_WaitForLastOperation
 1687              	.LVL117:
 1688              		.loc 1 811 0
 1689 005e 2B69     		ldr	r3, [r5, #16]
 1690 0060 23F00103 		bic	r3, r3, #1
 1691 0064 2B61     		str	r3, [r5, #16]
 1692              		.loc 1 815 0
 1693 0066 70BD     		pop	{r4, r5, r6, pc}
 1694              	.LVL118:
 1695              	.L195:
 1696              		.align	2
 1697              	.L194:
 1698 0068 003C0240 		.word	1073888256
 1699              		.cfi_endproc
 1700              	.LFE136:
 1701              		.size	FLASH_ProgramWord, .-FLASH_ProgramWord
 1702              		.section	.text.FLASH_ProgramHalfWord,"ax",%progbits
 1703              		.align	2
 1704              		.p2align 4,,15
 1705              		.global	FLASH_ProgramHalfWord
 1706              		.thumb
 1707              		.thumb_func
 1708              		.type	FLASH_ProgramHalfWord, %function
 1709              	FLASH_ProgramHalfWord:
 1710              	.LFB137:
ARM GAS  /var/folders/m4/4md61f0s1_g0rzfghffqnxvr0000gn/T//ccsS3EJ9.s 			page 31


 1711              		.loc 1 831 0
 1712              		.cfi_startproc
 1713              		@ args = 0, pretend = 0, frame = 0
 1714              		@ frame_needed = 0, uses_anonymous_args = 0
 1715              	.LVL119:
 1716              		.loc 1 835 0
 1717 0000 00F17843 		add	r3, r0, #-134217728
 1718 0004 B3F5002F 		cmp	r3, #524288
 1719              		.loc 1 831 0
 1720 0008 70B5     		push	{r4, r5, r6, lr}
 1721              		.cfi_def_cfa_offset 16
 1722              		.cfi_offset 4, -16
 1723              		.cfi_offset 5, -12
 1724              		.cfi_offset 6, -8
 1725              		.cfi_offset 14, -4
 1726              		.loc 1 831 0
 1727 000a 0446     		mov	r4, r0
 1728 000c 0E46     		mov	r6, r1
 1729              		.loc 1 835 0
 1730 000e 0FD3     		bcc	.L199
 1731              		.loc 1 835 0 is_stmt 0 discriminator 2
 1732 0010 00F16040 		add	r0, r0, #-536870912
 1733              	.LVL120:
 1734 0014 00F50840 		add	r0, r0, #34816
 1735 0018 B0F5047F 		cmp	r0, #528
 1736 001c 2CBF     		ite	cs
 1737 001e 0020     		movcs	r0, #0
 1738 0020 0120     		movcc	r0, #1
 1739 0022 FFF7FEFF 		bl	assert_param
 1740              	.LVL121:
 1741              		.loc 1 838 0 is_stmt 1 discriminator 2
 1742 0026 FFF7FEFF 		bl	FLASH_WaitForLastOperation
 1743              	.LVL122:
 1744              		.loc 1 840 0 discriminator 2
 1745 002a 0928     		cmp	r0, #9
 1746 002c 07D0     		beq	.L201
 1747              	.L198:
 1748              		.loc 1 857 0
 1749 002e 70BD     		pop	{r4, r5, r6, pc}
 1750              	.LVL123:
 1751              	.L199:
 1752              		.loc 1 835 0
 1753 0030 0120     		movs	r0, #1
 1754              	.LVL124:
 1755 0032 FFF7FEFF 		bl	assert_param
 1756              	.LVL125:
 1757              		.loc 1 838 0
 1758 0036 FFF7FEFF 		bl	FLASH_WaitForLastOperation
 1759              	.LVL126:
 1760              		.loc 1 840 0
 1761 003a 0928     		cmp	r0, #9
 1762 003c F7D1     		bne	.L198
 1763              	.L201:
 1764              		.loc 1 843 0
 1765 003e 0A4D     		ldr	r5, .L202
 1766 0040 2B69     		ldr	r3, [r5, #16]
 1767 0042 23F44073 		bic	r3, r3, #768
ARM GAS  /var/folders/m4/4md61f0s1_g0rzfghffqnxvr0000gn/T//ccsS3EJ9.s 			page 32


 1768 0046 2B61     		str	r3, [r5, #16]
 1769              		.loc 1 844 0
 1770 0048 2B69     		ldr	r3, [r5, #16]
 1771 004a 43F48073 		orr	r3, r3, #256
 1772 004e 2B61     		str	r3, [r5, #16]
 1773              		.loc 1 845 0
 1774 0050 2B69     		ldr	r3, [r5, #16]
 1775 0052 43F00103 		orr	r3, r3, #1
 1776 0056 2B61     		str	r3, [r5, #16]
 1777              		.loc 1 847 0
 1778 0058 2680     		strh	r6, [r4]	@ movhi
 1779              		.loc 1 850 0
 1780 005a FFF7FEFF 		bl	FLASH_WaitForLastOperation
 1781              	.LVL127:
 1782              		.loc 1 853 0
 1783 005e 2B69     		ldr	r3, [r5, #16]
 1784 0060 23F00103 		bic	r3, r3, #1
 1785 0064 2B61     		str	r3, [r5, #16]
 1786              		.loc 1 857 0
 1787 0066 70BD     		pop	{r4, r5, r6, pc}
 1788              	.LVL128:
 1789              	.L203:
 1790              		.align	2
 1791              	.L202:
 1792 0068 003C0240 		.word	1073888256
 1793              		.cfi_endproc
 1794              	.LFE137:
 1795              		.size	FLASH_ProgramHalfWord, .-FLASH_ProgramHalfWord
 1796              		.section	.text.FLASH_ProgramByte,"ax",%progbits
 1797              		.align	2
 1798              		.p2align 4,,15
 1799              		.global	FLASH_ProgramByte
 1800              		.thumb
 1801              		.thumb_func
 1802              		.type	FLASH_ProgramByte, %function
 1803              	FLASH_ProgramByte:
 1804              	.LFB138:
 1805              		.loc 1 873 0
 1806              		.cfi_startproc
 1807              		@ args = 0, pretend = 0, frame = 0
 1808              		@ frame_needed = 0, uses_anonymous_args = 0
 1809              	.LVL129:
 1810              		.loc 1 877 0
 1811 0000 00F17843 		add	r3, r0, #-134217728
 1812 0004 B3F5002F 		cmp	r3, #524288
 1813              		.loc 1 873 0
 1814 0008 70B5     		push	{r4, r5, r6, lr}
 1815              		.cfi_def_cfa_offset 16
 1816              		.cfi_offset 4, -16
 1817              		.cfi_offset 5, -12
 1818              		.cfi_offset 6, -8
 1819              		.cfi_offset 14, -4
 1820              		.loc 1 873 0
 1821 000a 0446     		mov	r4, r0
 1822 000c 0E46     		mov	r6, r1
 1823              		.loc 1 877 0
 1824 000e 0FD3     		bcc	.L207
ARM GAS  /var/folders/m4/4md61f0s1_g0rzfghffqnxvr0000gn/T//ccsS3EJ9.s 			page 33


 1825              		.loc 1 877 0 is_stmt 0 discriminator 2
 1826 0010 00F16040 		add	r0, r0, #-536870912
 1827              	.LVL130:
 1828 0014 00F50840 		add	r0, r0, #34816
 1829 0018 B0F5047F 		cmp	r0, #528
 1830 001c 2CBF     		ite	cs
 1831 001e 0020     		movcs	r0, #0
 1832 0020 0120     		movcc	r0, #1
 1833 0022 FFF7FEFF 		bl	assert_param
 1834              	.LVL131:
 1835              		.loc 1 880 0 is_stmt 1 discriminator 2
 1836 0026 FFF7FEFF 		bl	FLASH_WaitForLastOperation
 1837              	.LVL132:
 1838              		.loc 1 882 0 discriminator 2
 1839 002a 0928     		cmp	r0, #9
 1840 002c 07D0     		beq	.L209
 1841              	.L206:
 1842              		.loc 1 900 0
 1843 002e 70BD     		pop	{r4, r5, r6, pc}
 1844              	.LVL133:
 1845              	.L207:
 1846              		.loc 1 877 0
 1847 0030 0120     		movs	r0, #1
 1848              	.LVL134:
 1849 0032 FFF7FEFF 		bl	assert_param
 1850              	.LVL135:
 1851              		.loc 1 880 0
 1852 0036 FFF7FEFF 		bl	FLASH_WaitForLastOperation
 1853              	.LVL136:
 1854              		.loc 1 882 0
 1855 003a 0928     		cmp	r0, #9
 1856 003c F7D1     		bne	.L206
 1857              	.L209:
 1858              		.loc 1 885 0
 1859 003e 094D     		ldr	r5, .L210
 1860 0040 2B69     		ldr	r3, [r5, #16]
 1861 0042 23F44073 		bic	r3, r3, #768
 1862 0046 2B61     		str	r3, [r5, #16]
 1863              		.loc 1 886 0
 1864 0048 2B69     		ldr	r3, [r5, #16]
 1865 004a 2B61     		str	r3, [r5, #16]
 1866              		.loc 1 887 0
 1867 004c 2B69     		ldr	r3, [r5, #16]
 1868 004e 43F00103 		orr	r3, r3, #1
 1869 0052 2B61     		str	r3, [r5, #16]
 1870              		.loc 1 889 0
 1871 0054 2670     		strb	r6, [r4]
 1872              		.loc 1 892 0
 1873 0056 FFF7FEFF 		bl	FLASH_WaitForLastOperation
 1874              	.LVL137:
 1875              		.loc 1 895 0
 1876 005a 2B69     		ldr	r3, [r5, #16]
 1877 005c 23F00103 		bic	r3, r3, #1
 1878 0060 2B61     		str	r3, [r5, #16]
 1879              		.loc 1 900 0
 1880 0062 70BD     		pop	{r4, r5, r6, pc}
 1881              	.LVL138:
ARM GAS  /var/folders/m4/4md61f0s1_g0rzfghffqnxvr0000gn/T//ccsS3EJ9.s 			page 34


 1882              	.L211:
 1883              		.align	2
 1884              	.L210:
 1885 0064 003C0240 		.word	1073888256
 1886              		.cfi_endproc
 1887              	.LFE138:
 1888              		.size	FLASH_ProgramByte, .-FLASH_ProgramByte
 1889              		.section	.text.FLASH_OB_WRPConfig,"ax",%progbits
 1890              		.align	2
 1891              		.p2align 4,,15
 1892              		.global	FLASH_OB_WRPConfig
 1893              		.thumb
 1894              		.thumb_func
 1895              		.type	FLASH_OB_WRPConfig, %function
 1896              	FLASH_OB_WRPConfig:
 1897              	.LFB141:
 1898              		.loc 1 1010 0
 1899              		.cfi_startproc
 1900              		@ args = 0, pretend = 0, frame = 0
 1901              		@ frame_needed = 0, uses_anonymous_args = 0
 1902              	.LVL139:
 1903 0000 38B5     		push	{r3, r4, r5, lr}
 1904              		.cfi_def_cfa_offset 16
 1905              		.cfi_offset 3, -16
 1906              		.cfi_offset 4, -12
 1907              		.cfi_offset 5, -8
 1908              		.cfi_offset 14, -4
 1909              		.loc 1 1014 0
 1910 0002 20F47F63 		bic	r3, r0, #4080
 1911 0006 23F00F03 		bic	r3, r3, #15
 1912              		.loc 1 1010 0
 1913 000a 0446     		mov	r4, r0
 1914 000c 0D46     		mov	r5, r1
 1915              		.loc 1 1014 0
 1916 000e 7BB9     		cbnz	r3, .L216
 1917              		.loc 1 1014 0 is_stmt 0 discriminator 1
 1918 0010 0030     		adds	r0, r0, #0
 1919              	.LVL140:
 1920 0012 18BF     		it	ne
 1921 0014 0120     		movne	r0, #1
 1922              	.L213:
 1923              		.loc 1 1014 0 discriminator 6
 1924 0016 FFF7FEFF 		bl	assert_param
 1925              	.LVL141:
 1926              		.loc 1 1015 0 is_stmt 1 discriminator 6
 1927 001a 012D     		cmp	r5, #1
 1928 001c 8CBF     		ite	hi
 1929 001e 0020     		movhi	r0, #0
 1930 0020 0120     		movls	r0, #1
 1931 0022 FFF7FEFF 		bl	assert_param
 1932              	.LVL142:
 1933              		.loc 1 1017 0 discriminator 6
 1934 0026 FFF7FEFF 		bl	FLASH_WaitForLastOperation
 1935              	.LVL143:
 1936              		.loc 1 1019 0 discriminator 6
 1937 002a 0928     		cmp	r0, #9
 1938 002c 02D0     		beq	.L218
ARM GAS  /var/folders/m4/4md61f0s1_g0rzfghffqnxvr0000gn/T//ccsS3EJ9.s 			page 35


 1939 002e 38BD     		pop	{r3, r4, r5, pc}
 1940              	.LVL144:
 1941              	.L216:
 1942              		.loc 1 1014 0
 1943 0030 0020     		movs	r0, #0
 1944              	.LVL145:
 1945 0032 F0E7     		b	.L213
 1946              	.LVL146:
 1947              	.L218:
 1948              		.loc 1 1023 0
 1949 0034 054A     		ldr	r2, .L220
 1950 0036 1388     		ldrh	r3, [r2]
 1951              		.loc 1 1021 0
 1952 0038 1DB9     		cbnz	r5, .L219
 1953              		.loc 1 1027 0
 1954 003a 1C43     		orrs	r4, r4, r3
 1955              	.LVL147:
 1956 003c A4B2     		uxth	r4, r4
 1957 003e 1480     		strh	r4, [r2]	@ movhi
 1958 0040 38BD     		pop	{r3, r4, r5, pc}
 1959              	.LVL148:
 1960              	.L219:
 1961              		.loc 1 1023 0
 1962 0042 9BB2     		uxth	r3, r3
 1963 0044 23EA0404 		bic	r4, r3, r4
 1964              	.LVL149:
 1965 0048 1480     		strh	r4, [r2]	@ movhi
 1966 004a 38BD     		pop	{r3, r4, r5, pc}
 1967              	.L221:
 1968              		.align	2
 1969              	.L220:
 1970 004c 163C0240 		.word	1073888278
 1971              		.cfi_endproc
 1972              	.LFE141:
 1973              		.size	FLASH_OB_WRPConfig, .-FLASH_OB_WRPConfig
 1974              		.section	.text.FLASH_OB_WRP1Config,"ax",%progbits
 1975              		.align	2
 1976              		.p2align 4,,15
 1977              		.global	FLASH_OB_WRP1Config
 1978              		.thumb
 1979              		.thumb_func
 1980              		.type	FLASH_OB_WRP1Config, %function
 1981              	FLASH_OB_WRP1Config:
 1982              	.LFB142:
 1983              		.loc 1 1052 0
 1984              		.cfi_startproc
 1985              		@ args = 0, pretend = 0, frame = 0
 1986              		@ frame_needed = 0, uses_anonymous_args = 0
 1987              	.LVL150:
 1988 0000 38B5     		push	{r3, r4, r5, lr}
 1989              		.cfi_def_cfa_offset 16
 1990              		.cfi_offset 3, -16
 1991              		.cfi_offset 4, -12
 1992              		.cfi_offset 5, -8
 1993              		.cfi_offset 14, -4
 1994              		.loc 1 1056 0
 1995 0002 20F47F63 		bic	r3, r0, #4080
ARM GAS  /var/folders/m4/4md61f0s1_g0rzfghffqnxvr0000gn/T//ccsS3EJ9.s 			page 36


 1996 0006 23F00F03 		bic	r3, r3, #15
 1997              		.loc 1 1052 0
 1998 000a 0446     		mov	r4, r0
 1999 000c 0D46     		mov	r5, r1
 2000              		.loc 1 1056 0
 2001 000e 7BB9     		cbnz	r3, .L226
 2002              		.loc 1 1056 0 is_stmt 0 discriminator 1
 2003 0010 0030     		adds	r0, r0, #0
 2004              	.LVL151:
 2005 0012 18BF     		it	ne
 2006 0014 0120     		movne	r0, #1
 2007              	.L223:
 2008              		.loc 1 1056 0 discriminator 6
 2009 0016 FFF7FEFF 		bl	assert_param
 2010              	.LVL152:
 2011              		.loc 1 1057 0 is_stmt 1 discriminator 6
 2012 001a 012D     		cmp	r5, #1
 2013 001c 8CBF     		ite	hi
 2014 001e 0020     		movhi	r0, #0
 2015 0020 0120     		movls	r0, #1
 2016 0022 FFF7FEFF 		bl	assert_param
 2017              	.LVL153:
 2018              		.loc 1 1059 0 discriminator 6
 2019 0026 FFF7FEFF 		bl	FLASH_WaitForLastOperation
 2020              	.LVL154:
 2021              		.loc 1 1061 0 discriminator 6
 2022 002a 0928     		cmp	r0, #9
 2023 002c 02D0     		beq	.L228
 2024 002e 38BD     		pop	{r3, r4, r5, pc}
 2025              	.LVL155:
 2026              	.L226:
 2027              		.loc 1 1056 0
 2028 0030 0020     		movs	r0, #0
 2029              	.LVL156:
 2030 0032 F0E7     		b	.L223
 2031              	.LVL157:
 2032              	.L228:
 2033              		.loc 1 1065 0
 2034 0034 054A     		ldr	r2, .L230
 2035 0036 1388     		ldrh	r3, [r2]
 2036              		.loc 1 1063 0
 2037 0038 1DB9     		cbnz	r5, .L229
 2038              		.loc 1 1069 0
 2039 003a 1C43     		orrs	r4, r4, r3
 2040              	.LVL158:
 2041 003c A4B2     		uxth	r4, r4
 2042 003e 1480     		strh	r4, [r2]	@ movhi
 2043 0040 38BD     		pop	{r3, r4, r5, pc}
 2044              	.LVL159:
 2045              	.L229:
 2046              		.loc 1 1065 0
 2047 0042 9BB2     		uxth	r3, r3
 2048 0044 23EA0404 		bic	r4, r3, r4
 2049              	.LVL160:
 2050 0048 1480     		strh	r4, [r2]	@ movhi
 2051 004a 38BD     		pop	{r3, r4, r5, pc}
 2052              	.L231:
ARM GAS  /var/folders/m4/4md61f0s1_g0rzfghffqnxvr0000gn/T//ccsS3EJ9.s 			page 37


 2053              		.align	2
 2054              	.L230:
 2055 004c 1A3C0240 		.word	1073888282
 2056              		.cfi_endproc
 2057              	.LFE142:
 2058              		.size	FLASH_OB_WRP1Config, .-FLASH_OB_WRP1Config
 2059              		.section	.text.FLASH_OB_PCROPConfig,"ax",%progbits
 2060              		.align	2
 2061              		.p2align 4,,15
 2062              		.global	FLASH_OB_PCROPConfig
 2063              		.thumb
 2064              		.thumb_func
 2065              		.type	FLASH_OB_PCROPConfig, %function
 2066              	FLASH_OB_PCROPConfig:
 2067              	.LFB144:
 2068              		.loc 1 1132 0
 2069              		.cfi_startproc
 2070              		@ args = 0, pretend = 0, frame = 0
 2071              		@ frame_needed = 0, uses_anonymous_args = 0
 2072              	.LVL161:
 2073 0000 38B5     		push	{r3, r4, r5, lr}
 2074              		.cfi_def_cfa_offset 16
 2075              		.cfi_offset 3, -16
 2076              		.cfi_offset 4, -12
 2077              		.cfi_offset 5, -8
 2078              		.cfi_offset 14, -4
 2079              		.loc 1 1136 0
 2080 0002 20F47F63 		bic	r3, r0, #4080
 2081 0006 23F00F03 		bic	r3, r3, #15
 2082              		.loc 1 1132 0
 2083 000a 0446     		mov	r4, r0
 2084 000c 0D46     		mov	r5, r1
 2085              		.loc 1 1136 0
 2086 000e 7BB9     		cbnz	r3, .L236
 2087              		.loc 1 1136 0 is_stmt 0 discriminator 1
 2088 0010 0030     		adds	r0, r0, #0
 2089              	.LVL162:
 2090 0012 18BF     		it	ne
 2091 0014 0120     		movne	r0, #1
 2092              	.L233:
 2093              		.loc 1 1136 0 discriminator 6
 2094 0016 FFF7FEFF 		bl	assert_param
 2095              	.LVL163:
 2096              		.loc 1 1137 0 is_stmt 1 discriminator 6
 2097 001a 012D     		cmp	r5, #1
 2098 001c 8CBF     		ite	hi
 2099 001e 0020     		movhi	r0, #0
 2100 0020 0120     		movls	r0, #1
 2101 0022 FFF7FEFF 		bl	assert_param
 2102              	.LVL164:
 2103              		.loc 1 1139 0 discriminator 6
 2104 0026 FFF7FEFF 		bl	FLASH_WaitForLastOperation
 2105              	.LVL165:
 2106              		.loc 1 1141 0 discriminator 6
 2107 002a 0928     		cmp	r0, #9
 2108 002c 02D0     		beq	.L238
 2109 002e 38BD     		pop	{r3, r4, r5, pc}
ARM GAS  /var/folders/m4/4md61f0s1_g0rzfghffqnxvr0000gn/T//ccsS3EJ9.s 			page 38


 2110              	.LVL166:
 2111              	.L236:
 2112              		.loc 1 1136 0
 2113 0030 0020     		movs	r0, #0
 2114              	.LVL167:
 2115 0032 F0E7     		b	.L233
 2116              	.LVL168:
 2117              	.L238:
 2118              		.loc 1 1145 0
 2119 0034 054A     		ldr	r2, .L240
 2120 0036 1388     		ldrh	r3, [r2]
 2121              		.loc 1 1143 0
 2122 0038 25B9     		cbnz	r5, .L239
 2123              		.loc 1 1149 0
 2124 003a 9BB2     		uxth	r3, r3
 2125 003c 23EA0404 		bic	r4, r3, r4
 2126              	.LVL169:
 2127 0040 1480     		strh	r4, [r2]	@ movhi
 2128 0042 38BD     		pop	{r3, r4, r5, pc}
 2129              	.LVL170:
 2130              	.L239:
 2131              		.loc 1 1145 0
 2132 0044 1C43     		orrs	r4, r4, r3
 2133              	.LVL171:
 2134 0046 A4B2     		uxth	r4, r4
 2135 0048 1480     		strh	r4, [r2]	@ movhi
 2136 004a 38BD     		pop	{r3, r4, r5, pc}
 2137              	.L241:
 2138              		.align	2
 2139              	.L240:
 2140 004c 163C0240 		.word	1073888278
 2141              		.cfi_endproc
 2142              	.LFE144:
 2143              		.size	FLASH_OB_PCROPConfig, .-FLASH_OB_PCROPConfig
 2144              		.section	.text.FLASH_OB_PCROP1Config,"ax",%progbits
 2145              		.align	2
 2146              		.p2align 4,,15
 2147              		.global	FLASH_OB_PCROP1Config
 2148              		.thumb
 2149              		.thumb_func
 2150              		.type	FLASH_OB_PCROP1Config, %function
 2151              	FLASH_OB_PCROP1Config:
 2152              	.LFB145:
 2153              		.loc 1 1169 0
 2154              		.cfi_startproc
 2155              		@ args = 0, pretend = 0, frame = 0
 2156              		@ frame_needed = 0, uses_anonymous_args = 0
 2157              	.LVL172:
 2158 0000 38B5     		push	{r3, r4, r5, lr}
 2159              		.cfi_def_cfa_offset 16
 2160              		.cfi_offset 3, -16
 2161              		.cfi_offset 4, -12
 2162              		.cfi_offset 5, -8
 2163              		.cfi_offset 14, -4
 2164              		.loc 1 1173 0
 2165 0002 20F47F63 		bic	r3, r0, #4080
 2166 0006 23F00F03 		bic	r3, r3, #15
ARM GAS  /var/folders/m4/4md61f0s1_g0rzfghffqnxvr0000gn/T//ccsS3EJ9.s 			page 39


 2167              		.loc 1 1169 0
 2168 000a 0446     		mov	r4, r0
 2169 000c 0D46     		mov	r5, r1
 2170              		.loc 1 1173 0
 2171 000e 7BB9     		cbnz	r3, .L246
 2172              		.loc 1 1173 0 is_stmt 0 discriminator 1
 2173 0010 0030     		adds	r0, r0, #0
 2174              	.LVL173:
 2175 0012 18BF     		it	ne
 2176 0014 0120     		movne	r0, #1
 2177              	.L243:
 2178              		.loc 1 1173 0 discriminator 6
 2179 0016 FFF7FEFF 		bl	assert_param
 2180              	.LVL174:
 2181              		.loc 1 1174 0 is_stmt 1 discriminator 6
 2182 001a 012D     		cmp	r5, #1
 2183 001c 8CBF     		ite	hi
 2184 001e 0020     		movhi	r0, #0
 2185 0020 0120     		movls	r0, #1
 2186 0022 FFF7FEFF 		bl	assert_param
 2187              	.LVL175:
 2188              		.loc 1 1176 0 discriminator 6
 2189 0026 FFF7FEFF 		bl	FLASH_WaitForLastOperation
 2190              	.LVL176:
 2191              		.loc 1 1178 0 discriminator 6
 2192 002a 0928     		cmp	r0, #9
 2193 002c 02D0     		beq	.L248
 2194 002e 38BD     		pop	{r3, r4, r5, pc}
 2195              	.LVL177:
 2196              	.L246:
 2197              		.loc 1 1173 0
 2198 0030 0020     		movs	r0, #0
 2199              	.LVL178:
 2200 0032 F0E7     		b	.L243
 2201              	.LVL179:
 2202              	.L248:
 2203              		.loc 1 1182 0
 2204 0034 054A     		ldr	r2, .L250
 2205 0036 1388     		ldrh	r3, [r2]
 2206              		.loc 1 1180 0
 2207 0038 25B9     		cbnz	r5, .L249
 2208              		.loc 1 1186 0
 2209 003a 9BB2     		uxth	r3, r3
 2210 003c 23EA0404 		bic	r4, r3, r4
 2211              	.LVL180:
 2212 0040 1480     		strh	r4, [r2]	@ movhi
 2213 0042 38BD     		pop	{r3, r4, r5, pc}
 2214              	.LVL181:
 2215              	.L249:
 2216              		.loc 1 1182 0
 2217 0044 1C43     		orrs	r4, r4, r3
 2218              	.LVL182:
 2219 0046 A4B2     		uxth	r4, r4
 2220 0048 1480     		strh	r4, [r2]	@ movhi
 2221 004a 38BD     		pop	{r3, r4, r5, pc}
 2222              	.L251:
 2223              		.align	2
ARM GAS  /var/folders/m4/4md61f0s1_g0rzfghffqnxvr0000gn/T//ccsS3EJ9.s 			page 40


 2224              	.L250:
 2225 004c 1A3C0240 		.word	1073888282
 2226              		.cfi_endproc
 2227              	.LFE145:
 2228              		.size	FLASH_OB_PCROP1Config, .-FLASH_OB_PCROP1Config
 2229              		.section	.text.FLASH_OB_RDPConfig,"ax",%progbits
 2230              		.align	2
 2231              		.p2align 4,,15
 2232              		.global	FLASH_OB_RDPConfig
 2233              		.thumb
 2234              		.thumb_func
 2235              		.type	FLASH_OB_RDPConfig, %function
 2236              	FLASH_OB_RDPConfig:
 2237              	.LFB146:
 2238              		.loc 1 1205 0
 2239              		.cfi_startproc
 2240              		@ args = 0, pretend = 0, frame = 0
 2241              		@ frame_needed = 0, uses_anonymous_args = 0
 2242              	.LVL183:
 2243              		.loc 1 1209 0
 2244 0000 AA28     		cmp	r0, #170
 2245              		.loc 1 1205 0
 2246 0002 10B5     		push	{r4, lr}
 2247              		.cfi_def_cfa_offset 8
 2248              		.cfi_offset 4, -8
 2249              		.cfi_offset 14, -4
 2250              		.loc 1 1205 0
 2251 0004 0446     		mov	r4, r0
 2252              		.loc 1 1209 0
 2253 0006 17BF     		itett	ne
 2254 0008 5538     		subne	r0, #85
 2255              	.LVL184:
 2256 000a 0120     		moveq	r0, #1
 2257 000c B0FA80F0 		clzne	r0, r0
 2258 0010 4009     		lsrne	r0, r0, #5
 2259 0012 FFF7FEFF 		bl	assert_param
 2260              	.LVL185:
 2261              		.loc 1 1211 0
 2262 0016 FFF7FEFF 		bl	FLASH_WaitForLastOperation
 2263              	.LVL186:
 2264              		.loc 1 1213 0
 2265 001a 0928     		cmp	r0, #9
 2266              		.loc 1 1215 0
 2267 001c 04BF     		itt	eq
 2268 001e 014B     		ldreq	r3, .L257
 2269 0020 1C70     		strbeq	r4, [r3]
 2270 0022 10BD     		pop	{r4, pc}
 2271              	.L258:
 2272              		.align	2
 2273              	.L257:
 2274 0024 153C0240 		.word	1073888277
 2275              		.cfi_endproc
 2276              	.LFE146:
 2277              		.size	FLASH_OB_RDPConfig, .-FLASH_OB_RDPConfig
 2278              		.section	.text.FLASH_OB_UserConfig,"ax",%progbits
 2279              		.align	2
 2280              		.p2align 4,,15
ARM GAS  /var/folders/m4/4md61f0s1_g0rzfghffqnxvr0000gn/T//ccsS3EJ9.s 			page 41


 2281              		.global	FLASH_OB_UserConfig
 2282              		.thumb
 2283              		.thumb_func
 2284              		.type	FLASH_OB_UserConfig, %function
 2285              	FLASH_OB_UserConfig:
 2286              	.LFB147:
 2287              		.loc 1 1237 0
 2288              		.cfi_startproc
 2289              		@ args = 0, pretend = 0, frame = 0
 2290              		@ frame_needed = 0, uses_anonymous_args = 0
 2291              	.LVL187:
 2292              		.loc 1 1242 0
 2293 0000 10F0DF0F 		tst	r0, #223
 2294              		.loc 1 1237 0
 2295 0004 70B5     		push	{r4, r5, r6, lr}
 2296              		.cfi_def_cfa_offset 16
 2297              		.cfi_offset 4, -16
 2298              		.cfi_offset 5, -12
 2299              		.cfi_offset 6, -8
 2300              		.cfi_offset 14, -4
 2301              		.loc 1 1237 0
 2302 0006 0D46     		mov	r5, r1
 2303 0008 0446     		mov	r4, r0
 2304              		.loc 1 1242 0
 2305 000a 0CBF     		ite	eq
 2306 000c 0120     		moveq	r0, #1
 2307              	.LVL188:
 2308 000e 0020     		movne	r0, #0
 2309              		.loc 1 1237 0
 2310 0010 1646     		mov	r6, r2
 2311              		.loc 1 1242 0
 2312 0012 FFF7FEFF 		bl	assert_param
 2313              	.LVL189:
 2314              		.loc 1 1243 0
 2315 0016 15F0BF0F 		tst	r5, #191
 2316 001a 0CBF     		ite	eq
 2317 001c 0120     		moveq	r0, #1
 2318 001e 0020     		movne	r0, #0
 2319 0020 FFF7FEFF 		bl	assert_param
 2320              	.LVL190:
 2321              		.loc 1 1244 0
 2322 0024 16F07F0F 		tst	r6, #127
 2323 0028 0CBF     		ite	eq
 2324 002a 0120     		moveq	r0, #1
 2325 002c 0020     		movne	r0, #0
 2326 002e FFF7FEFF 		bl	assert_param
 2327              	.LVL191:
 2328              		.loc 1 1247 0
 2329 0032 FFF7FEFF 		bl	FLASH_WaitForLastOperation
 2330              	.LVL192:
 2331              		.loc 1 1249 0
 2332 0036 0928     		cmp	r0, #9
 2333 0038 07D1     		bne	.L259
 2334              		.loc 1 1258 0
 2335 003a 044B     		ldr	r3, .L262
 2336 003c 1878     		ldrb	r0, [r3]	@ zero_extendqisi2
 2337              	.LVL193:
ARM GAS  /var/folders/m4/4md61f0s1_g0rzfghffqnxvr0000gn/T//ccsS3EJ9.s 			page 42


 2338 003e 00F00F00 		and	r0, r0, #15
 2339              	.LVL194:
 2340 0042 3043     		orrs	r0, r0, r6
 2341              		.loc 1 1262 0
 2342 0044 2843     		orrs	r0, r0, r5
 2343 0046 2043     		orrs	r0, r0, r4
 2344 0048 1870     		strb	r0, [r3]
 2345              	.L259:
 2346 004a 70BD     		pop	{r4, r5, r6, pc}
 2347              	.L263:
 2348              		.align	2
 2349              	.L262:
 2350 004c 143C0240 		.word	1073888276
 2351              		.cfi_endproc
 2352              	.LFE147:
 2353              		.size	FLASH_OB_UserConfig, .-FLASH_OB_UserConfig
 2354              		.section	.text.FLASH_OB_Launch,"ax",%progbits
 2355              		.align	2
 2356              		.p2align 4,,15
 2357              		.global	FLASH_OB_Launch
 2358              		.thumb
 2359              		.thumb_func
 2360              		.type	FLASH_OB_Launch, %function
 2361              	FLASH_OB_Launch:
 2362              	.LFB150:
 2363              		.loc 1 1316 0
 2364              		.cfi_startproc
 2365              		@ args = 0, pretend = 0, frame = 0
 2366              		@ frame_needed = 0, uses_anonymous_args = 0
 2367              		@ link register save eliminated.
 2368              	.LVL195:
 2369              		.loc 1 1320 0
 2370 0000 034A     		ldr	r2, .L265
 2371 0002 1378     		ldrb	r3, [r2]	@ zero_extendqisi2
 2372 0004 43F00203 		orr	r3, r3, #2
 2373 0008 1370     		strb	r3, [r2]
 2374              		.loc 1 1323 0
 2375 000a FFF7FEBF 		b	FLASH_WaitForLastOperation
 2376              	.LVL196:
 2377              	.L266:
 2378 000e 00BF     		.align	2
 2379              	.L265:
 2380 0010 143C0240 		.word	1073888276
 2381              		.cfi_endproc
 2382              	.LFE150:
 2383              		.size	FLASH_OB_Launch, .-FLASH_OB_Launch
 2384              		.text
 2385              	.Letext0:
 2386              		.file 2 "/usr/local/Cellar/gcc-arm-none-eabi-49/20150609/arm-none-eabi/include/machine/_default_ty
 2387              		.file 3 "/usr/local/Cellar/gcc-arm-none-eabi-49/20150609/arm-none-eabi/include/sys/_stdint.h"
 2388              		.file 4 "ChibiOS_16.1.4/os/ext/CMSIS/ST/STM32F4xx/stm32f446xx.h"
 2389              		.file 5 "ChibiOS_16.1.4/os/ext/CMSIS/ST/STM32F4xx/stm32f4xx.h"
 2390              		.file 6 "ChibiOS_16.1.4/ext/stdperiph_stm32f4/inc/stm32f4xx_flash.h"
 2391              		.file 7 "ChibiOS_16.1.4/os/ext/CMSIS/include/core_cm4.h"