ARM GAS  /var/folders/m4/4md61f0s1_g0rzfghffqnxvr0000gn/T//ccNSbQRa.s 			page 1


   1              		.syntax unified
   2              		.cpu cortex-m4
   3              		.eabi_attribute 27, 1
   4              		.eabi_attribute 28, 1
   5              		.fpu fpv4-sp-d16
   6              		.eabi_attribute 20, 1
   7              		.eabi_attribute 21, 1
   8              		.eabi_attribute 23, 3
   9              		.eabi_attribute 24, 1
  10              		.eabi_attribute 25, 1
  11              		.eabi_attribute 26, 1
  12              		.eabi_attribute 30, 2
  13              		.eabi_attribute 34, 1
  14              		.eabi_attribute 18, 4
  15              		.thumb
  16              		.file	"stm32f4xx_exti.c"
  17              		.text
  18              	.Ltext0:
  19              		.cfi_sections	.debug_frame
  20              		.section	.text.EXTI_DeInit,"ax",%progbits
  21              		.align	2
  22              		.p2align 4,,15
  23              		.global	EXTI_DeInit
  24              		.thumb
  25              		.thumb_func
  26              		.type	EXTI_DeInit, %function
  27              	EXTI_DeInit:
  28              	.LFB123:
  29              		.file 1 "ChibiOS_16.1.4/ext/stdperiph_stm32f4/src/stm32f4xx_exti.c"
  30              		.loc 1 111 0
  31              		.cfi_startproc
  32              		@ args = 0, pretend = 0, frame = 0
  33              		@ frame_needed = 0, uses_anonymous_args = 0
  34              		@ link register save eliminated.
  35              		.loc 1 112 0
  36 0000 044B     		ldr	r3, .L2
  37              		.loc 1 116 0
  38 0002 0549     		ldr	r1, .L2+4
  39              		.loc 1 112 0
  40 0004 0022     		movs	r2, #0
  41 0006 1A60     		str	r2, [r3]
  42              		.loc 1 113 0
  43 0008 5A60     		str	r2, [r3, #4]
  44              		.loc 1 114 0
  45 000a 9A60     		str	r2, [r3, #8]
  46              		.loc 1 115 0
  47 000c DA60     		str	r2, [r3, #12]
  48              		.loc 1 116 0
  49 000e 5961     		str	r1, [r3, #20]
  50 0010 7047     		bx	lr
  51              	.L3:
  52 0012 00BF     		.align	2
  53              	.L2:
  54 0014 003C0140 		.word	1073822720
  55 0018 FFFF7F00 		.word	8388607
  56              		.cfi_endproc
  57              	.LFE123:
ARM GAS  /var/folders/m4/4md61f0s1_g0rzfghffqnxvr0000gn/T//ccNSbQRa.s 			page 2


  58              		.size	EXTI_DeInit, .-EXTI_DeInit
  59              		.section	.text.EXTI_Init,"ax",%progbits
  60              		.align	2
  61              		.p2align 4,,15
  62              		.global	EXTI_Init
  63              		.thumb
  64              		.thumb_func
  65              		.type	EXTI_Init, %function
  66              	EXTI_Init:
  67              	.LFB124:
  68              		.loc 1 127 0
  69              		.cfi_startproc
  70              		@ args = 0, pretend = 0, frame = 0
  71              		@ frame_needed = 0, uses_anonymous_args = 0
  72              	.LVL0:
  73 0000 F8B5     		push	{r3, r4, r5, r6, r7, lr}
  74              		.cfi_def_cfa_offset 24
  75              		.cfi_offset 3, -24
  76              		.cfi_offset 4, -20
  77              		.cfi_offset 5, -16
  78              		.cfi_offset 6, -12
  79              		.cfi_offset 7, -8
  80              		.cfi_offset 14, -4
  81              		.loc 1 131 0
  82 0002 0379     		ldrb	r3, [r0, #4]	@ zero_extendqisi2
  83              		.loc 1 127 0
  84 0004 0446     		mov	r4, r0
  85              		.loc 1 131 0
  86 0006 13F0FB0F 		tst	r3, #251
  87 000a 0CBF     		ite	eq
  88 000c 0120     		moveq	r0, #1
  89              	.LVL1:
  90 000e 0020     		movne	r0, #0
  91 0010 FFF7FEFF 		bl	assert_param
  92              	.LVL2:
  93              		.loc 1 132 0
  94 0014 6079     		ldrb	r0, [r4, #5]	@ zero_extendqisi2
  95 0016 00F0FB03 		and	r3, r0, #251
  96 001a 082B     		cmp	r3, #8
  97 001c 17BF     		itett	ne
  98 001e 1038     		subne	r0, #16
  99 0020 0120     		moveq	r0, #1
 100 0022 B0FA80F0 		clzne	r0, r0
 101 0026 4009     		lsrne	r0, r0, #5
 102 0028 FFF7FEFF 		bl	assert_param
 103              	.LVL3:
 104              		.loc 1 133 0
 105 002c 2068     		ldr	r0, [r4]
 106 002e C30D     		lsrs	r3, r0, #23
 107 0030 DB05     		lsls	r3, r3, #23
 108 0032 002B     		cmp	r3, #0
 109 0034 32D1     		bne	.L11
 110              		.loc 1 133 0 is_stmt 0 discriminator 1
 111 0036 0030     		adds	r0, r0, #0
 112 0038 18BF     		it	ne
 113 003a 0120     		movne	r0, #1
 114              	.L6:
ARM GAS  /var/folders/m4/4md61f0s1_g0rzfghffqnxvr0000gn/T//ccNSbQRa.s 			page 3


 115              		.loc 1 133 0 discriminator 6
 116 003c FFF7FEFF 		bl	assert_param
 117              	.LVL4:
 118              		.loc 1 134 0 is_stmt 1 discriminator 6
 119 0040 A079     		ldrb	r0, [r4, #6]	@ zero_extendqisi2
 120 0042 0128     		cmp	r0, #1
 121 0044 8CBF     		ite	hi
 122 0046 0020     		movhi	r0, #0
 123 0048 0120     		movls	r0, #1
 124 004a FFF7FEFF 		bl	assert_param
 125              	.LVL5:
 126              		.loc 1 138 0 discriminator 6
 127 004e A379     		ldrb	r3, [r4, #6]	@ zero_extendqisi2
 128 0050 33B3     		cbz	r3, .L7
 129              		.loc 1 141 0
 130 0052 1C4B     		ldr	r3, .L15
 131 0054 2068     		ldr	r0, [r4]
 132 0056 1E68     		ldr	r6, [r3]
 133              		.loc 1 144 0
 134 0058 2279     		ldrb	r2, [r4, #4]	@ zero_extendqisi2
 135              		.loc 1 153 0
 136 005a 6179     		ldrb	r1, [r4, #5]	@ zero_extendqisi2
 137              		.loc 1 141 0
 138 005c C743     		mvns	r7, r0
 139 005e 3E40     		ands	r6, r6, r7
 140 0060 1E60     		str	r6, [r3]
 141              		.loc 1 142 0
 142 0062 5D68     		ldr	r5, [r3, #4]
 143              		.loc 1 144 0
 144 0064 02F18042 		add	r2, r2, #1073741824
 145 0068 02F59E32 		add	r2, r2, #80896
 146              		.loc 1 142 0
 147 006c 3D40     		ands	r5, r5, r7
 148 006e 5D60     		str	r5, [r3, #4]
 149              	.LVL6:
 150              		.loc 1 146 0
 151 0070 1568     		ldr	r5, [r2]
 152 0072 2843     		orrs	r0, r0, r5
 153 0074 1060     		str	r0, [r2]
 154              	.LVL7:
 155              		.loc 1 149 0
 156 0076 2268     		ldr	r2, [r4]
 157 0078 9C68     		ldr	r4, [r3, #8]
 158              	.LVL8:
 159 007a D543     		mvns	r5, r2
 160 007c 2C40     		ands	r4, r4, r5
 161 007e 9C60     		str	r4, [r3, #8]
 162              		.loc 1 150 0
 163 0080 D868     		ldr	r0, [r3, #12]
 164              		.loc 1 153 0
 165 0082 1029     		cmp	r1, #16
 166              		.loc 1 150 0
 167 0084 00EA0500 		and	r0, r0, r5
 168 0088 D860     		str	r0, [r3, #12]
 169              		.loc 1 153 0
 170 008a 14D0     		beq	.L14
 171              	.LVL9:
ARM GAS  /var/folders/m4/4md61f0s1_g0rzfghffqnxvr0000gn/T//ccNSbQRa.s 			page 4


 172              		.loc 1 162 0
 173 008c 01F18043 		add	r3, r1, #1073741824
 174 0090 03F59E33 		add	r3, r3, #80896
 175              		.loc 1 164 0
 176 0094 1968     		ldr	r1, [r3]
 177              	.LVL10:
 178 0096 0A43     		orrs	r2, r2, r1
 179 0098 1A60     		str	r2, [r3]
 180 009a F8BD     		pop	{r3, r4, r5, r6, r7, pc}
 181              	.LVL11:
 182              	.L11:
 183              		.loc 1 133 0
 184 009c 0020     		movs	r0, #0
 185 009e CDE7     		b	.L6
 186              	.LVL12:
 187              	.L7:
 188              		.loc 1 169 0
 189 00a0 2379     		ldrb	r3, [r4, #4]	@ zero_extendqisi2
 190              		.loc 1 172 0
 191 00a2 2168     		ldr	r1, [r4]
 192              		.loc 1 169 0
 193 00a4 03F18043 		add	r3, r3, #1073741824
 194 00a8 03F59E33 		add	r3, r3, #80896
 195              		.loc 1 172 0
 196 00ac 1A68     		ldr	r2, [r3]
 197 00ae 22EA0102 		bic	r2, r2, r1
 198 00b2 1A60     		str	r2, [r3]
 199              	.LVL13:
 200 00b4 F8BD     		pop	{r3, r4, r5, r6, r7, pc}
 201              	.LVL14:
 202              	.L14:
 203              		.loc 1 156 0
 204 00b6 9968     		ldr	r1, [r3, #8]
 205 00b8 1143     		orrs	r1, r1, r2
 206 00ba 9960     		str	r1, [r3, #8]
 207              		.loc 1 157 0
 208 00bc D968     		ldr	r1, [r3, #12]
 209 00be 0A43     		orrs	r2, r2, r1
 210 00c0 DA60     		str	r2, [r3, #12]
 211 00c2 F8BD     		pop	{r3, r4, r5, r6, r7, pc}
 212              	.L16:
 213              		.align	2
 214              	.L15:
 215 00c4 003C0140 		.word	1073822720
 216              		.cfi_endproc
 217              	.LFE124:
 218              		.size	EXTI_Init, .-EXTI_Init
 219              		.section	.text.EXTI_StructInit,"ax",%progbits
 220              		.align	2
 221              		.p2align 4,,15
 222              		.global	EXTI_StructInit
 223              		.thumb
 224              		.thumb_func
 225              		.type	EXTI_StructInit, %function
 226              	EXTI_StructInit:
 227              	.LFB125:
 228              		.loc 1 183 0
ARM GAS  /var/folders/m4/4md61f0s1_g0rzfghffqnxvr0000gn/T//ccNSbQRa.s 			page 5


 229              		.cfi_startproc
 230              		@ args = 0, pretend = 0, frame = 0
 231              		@ frame_needed = 0, uses_anonymous_args = 0
 232              		@ link register save eliminated.
 233              	.LVL15:
 234              		.loc 1 184 0
 235 0000 0023     		movs	r3, #0
 236              		.loc 1 186 0
 237 0002 0C22     		movs	r2, #12
 238 0004 4271     		strb	r2, [r0, #5]
 239              		.loc 1 184 0
 240 0006 0360     		str	r3, [r0]
 241              		.loc 1 185 0
 242 0008 0371     		strb	r3, [r0, #4]
 243              		.loc 1 187 0
 244 000a 8371     		strb	r3, [r0, #6]
 245 000c 7047     		bx	lr
 246              		.cfi_endproc
 247              	.LFE125:
 248              		.size	EXTI_StructInit, .-EXTI_StructInit
 249 000e 00BF     		.section	.text.EXTI_GenerateSWInterrupt,"ax",%progbits
 250              		.align	2
 251              		.p2align 4,,15
 252              		.global	EXTI_GenerateSWInterrupt
 253              		.thumb
 254              		.thumb_func
 255              		.type	EXTI_GenerateSWInterrupt, %function
 256              	EXTI_GenerateSWInterrupt:
 257              	.LFB126:
 258              		.loc 1 198 0
 259              		.cfi_startproc
 260              		@ args = 0, pretend = 0, frame = 0
 261              		@ frame_needed = 0, uses_anonymous_args = 0
 262              	.LVL16:
 263              		.loc 1 200 0
 264 0000 C30D     		lsrs	r3, r0, #23
 265 0002 DB05     		lsls	r3, r3, #23
 266              		.loc 1 198 0
 267 0004 10B5     		push	{r4, lr}
 268              		.cfi_def_cfa_offset 8
 269              		.cfi_offset 4, -8
 270              		.cfi_offset 14, -4
 271              		.loc 1 198 0
 272 0006 0446     		mov	r4, r0
 273              		.loc 1 200 0
 274 0008 4BB9     		cbnz	r3, .L20
 275              		.loc 1 200 0 is_stmt 0 discriminator 1
 276 000a 0030     		adds	r0, r0, #0
 277              	.LVL17:
 278 000c 18BF     		it	ne
 279 000e 0120     		movne	r0, #1
 280              	.L19:
 281              		.loc 1 200 0 discriminator 6
 282 0010 FFF7FEFF 		bl	assert_param
 283              	.LVL18:
 284              		.loc 1 202 0 is_stmt 1 discriminator 6
 285 0014 034B     		ldr	r3, .L22
ARM GAS  /var/folders/m4/4md61f0s1_g0rzfghffqnxvr0000gn/T//ccNSbQRa.s 			page 6


 286 0016 1869     		ldr	r0, [r3, #16]
 287 0018 2043     		orrs	r0, r0, r4
 288 001a 1861     		str	r0, [r3, #16]
 289 001c 10BD     		pop	{r4, pc}
 290              	.LVL19:
 291              	.L20:
 292              		.loc 1 200 0
 293 001e 0020     		movs	r0, #0
 294              	.LVL20:
 295 0020 F6E7     		b	.L19
 296              	.L23:
 297 0022 00BF     		.align	2
 298              	.L22:
 299 0024 003C0140 		.word	1073822720
 300              		.cfi_endproc
 301              	.LFE126:
 302              		.size	EXTI_GenerateSWInterrupt, .-EXTI_GenerateSWInterrupt
 303              		.section	.text.EXTI_GetFlagStatus,"ax",%progbits
 304              		.align	2
 305              		.p2align 4,,15
 306              		.global	EXTI_GetFlagStatus
 307              		.thumb
 308              		.thumb_func
 309              		.type	EXTI_GetFlagStatus, %function
 310              	EXTI_GetFlagStatus:
 311              	.LFB127:
 312              		.loc 1 228 0
 313              		.cfi_startproc
 314              		@ args = 0, pretend = 0, frame = 0
 315              		@ frame_needed = 0, uses_anonymous_args = 0
 316              	.LVL21:
 317              		.loc 1 231 0
 318 0000 431E     		subs	r3, r0, #1
 319 0002 012B     		cmp	r3, #1
 320              		.loc 1 228 0
 321 0004 10B5     		push	{r4, lr}
 322              		.cfi_def_cfa_offset 8
 323              		.cfi_offset 4, -8
 324              		.cfi_offset 14, -4
 325              		.loc 1 228 0
 326 0006 0446     		mov	r4, r0
 327              		.loc 1 231 0
 328 0008 3DD9     		bls	.L47
 329              		.loc 1 231 0 is_stmt 0 discriminator 2
 330 000a 0428     		cmp	r0, #4
 331 000c 3BD0     		beq	.L47
 332              		.loc 1 231 0 discriminator 4
 333 000e 0828     		cmp	r0, #8
 334 0010 39D0     		beq	.L47
 335              		.loc 1 231 0 discriminator 6
 336 0012 1028     		cmp	r0, #16
 337 0014 37D0     		beq	.L47
 338              		.loc 1 231 0 discriminator 8
 339 0016 2028     		cmp	r0, #32
 340 0018 35D0     		beq	.L47
 341              		.loc 1 231 0 discriminator 10
 342 001a 4028     		cmp	r0, #64
ARM GAS  /var/folders/m4/4md61f0s1_g0rzfghffqnxvr0000gn/T//ccNSbQRa.s 			page 7


 343 001c 33D0     		beq	.L47
 344              		.loc 1 231 0 discriminator 12
 345 001e 8028     		cmp	r0, #128
 346 0020 31D0     		beq	.L47
 347              		.loc 1 231 0 discriminator 14
 348 0022 B0F5807F 		cmp	r0, #256
 349 0026 2ED0     		beq	.L47
 350              		.loc 1 231 0 discriminator 16
 351 0028 B0F5007F 		cmp	r0, #512
 352 002c 2BD0     		beq	.L47
 353              		.loc 1 231 0 discriminator 18
 354 002e B0F5806F 		cmp	r0, #1024
 355 0032 28D0     		beq	.L47
 356              		.loc 1 231 0 discriminator 20
 357 0034 B0F5006F 		cmp	r0, #2048
 358 0038 25D0     		beq	.L47
 359              		.loc 1 231 0 discriminator 22
 360 003a B0F5805F 		cmp	r0, #4096
 361 003e 22D0     		beq	.L47
 362              		.loc 1 231 0 discriminator 24
 363 0040 B0F5005F 		cmp	r0, #8192
 364 0044 1FD0     		beq	.L47
 365              		.loc 1 231 0 discriminator 26
 366 0046 B0F5804F 		cmp	r0, #16384
 367 004a 1CD0     		beq	.L47
 368              		.loc 1 231 0 discriminator 28
 369 004c B0F5004F 		cmp	r0, #32768
 370 0050 19D0     		beq	.L47
 371              		.loc 1 231 0 discriminator 30
 372 0052 B0F5803F 		cmp	r0, #65536
 373 0056 16D0     		beq	.L47
 374              		.loc 1 231 0 discriminator 32
 375 0058 B0F5003F 		cmp	r0, #131072
 376 005c 13D0     		beq	.L47
 377              		.loc 1 231 0 discriminator 34
 378 005e B0F5802F 		cmp	r0, #262144
 379 0062 10D0     		beq	.L47
 380              		.loc 1 231 0 discriminator 36
 381 0064 B0F5002F 		cmp	r0, #524288
 382 0068 0DD0     		beq	.L47
 383              		.loc 1 231 0 discriminator 38
 384 006a B0F5801F 		cmp	r0, #1048576
 385 006e 0AD0     		beq	.L47
 386              		.loc 1 231 0 discriminator 40
 387 0070 B0F5001F 		cmp	r0, #2097152
 388 0074 07D0     		beq	.L47
 389              		.loc 1 231 0 discriminator 42
 390 0076 B0F5800F 		cmp	r0, #4194304
 391 007a 04D0     		beq	.L47
 392              		.loc 1 231 0 discriminator 44
 393 007c A0F50003 		sub	r3, r0, #8388608
 394 0080 5842     		rsbs	r0, r3, #0
 395              	.LVL22:
 396 0082 5841     		adcs	r0, r0, r3
 397 0084 00E0     		b	.L25
 398              	.LVL23:
 399              	.L47:
ARM GAS  /var/folders/m4/4md61f0s1_g0rzfghffqnxvr0000gn/T//ccNSbQRa.s 			page 8


 400              		.loc 1 231 0
 401 0086 0120     		movs	r0, #1
 402              	.LVL24:
 403              	.L25:
 404              		.loc 1 231 0 discriminator 48
 405 0088 FFF7FEFF 		bl	assert_param
 406              	.LVL25:
 407              		.loc 1 233 0 is_stmt 1 discriminator 48
 408 008c 034B     		ldr	r3, .L49
 409 008e 5B69     		ldr	r3, [r3, #20]
 410              	.LVL26:
 411 0090 1C42     		tst	r4, r3
 412              		.loc 1 242 0 discriminator 48
 413 0092 14BF     		ite	ne
 414 0094 0120     		movne	r0, #1
 415 0096 0020     		moveq	r0, #0
 416 0098 10BD     		pop	{r4, pc}
 417              	.LVL27:
 418              	.L50:
 419 009a 00BF     		.align	2
 420              	.L49:
 421 009c 003C0140 		.word	1073822720
 422              		.cfi_endproc
 423              	.LFE127:
 424              		.size	EXTI_GetFlagStatus, .-EXTI_GetFlagStatus
 425              		.section	.text.EXTI_ClearFlag,"ax",%progbits
 426              		.align	2
 427              		.p2align 4,,15
 428              		.global	EXTI_ClearFlag
 429              		.thumb
 430              		.thumb_func
 431              		.type	EXTI_ClearFlag, %function
 432              	EXTI_ClearFlag:
 433              	.LFB128:
 434              		.loc 1 251 0
 435              		.cfi_startproc
 436              		@ args = 0, pretend = 0, frame = 0
 437              		@ frame_needed = 0, uses_anonymous_args = 0
 438              	.LVL28:
 439              		.loc 1 253 0
 440 0000 C30D     		lsrs	r3, r0, #23
 441 0002 DB05     		lsls	r3, r3, #23
 442              		.loc 1 251 0
 443 0004 10B5     		push	{r4, lr}
 444              		.cfi_def_cfa_offset 8
 445              		.cfi_offset 4, -8
 446              		.cfi_offset 14, -4
 447              		.loc 1 251 0
 448 0006 0446     		mov	r4, r0
 449              		.loc 1 253 0
 450 0008 3BB9     		cbnz	r3, .L53
 451              		.loc 1 253 0 is_stmt 0 discriminator 1
 452 000a 0030     		adds	r0, r0, #0
 453              	.LVL29:
 454 000c 18BF     		it	ne
 455 000e 0120     		movne	r0, #1
 456 0010 FFF7FEFF 		bl	assert_param
ARM GAS  /var/folders/m4/4md61f0s1_g0rzfghffqnxvr0000gn/T//ccNSbQRa.s 			page 9


 457              	.LVL30:
 458              		.loc 1 255 0 is_stmt 1 discriminator 1
 459 0014 044B     		ldr	r3, .L55
 460 0016 5C61     		str	r4, [r3, #20]
 461 0018 10BD     		pop	{r4, pc}
 462              	.LVL31:
 463              	.L53:
 464              		.loc 1 253 0
 465 001a 0020     		movs	r0, #0
 466              	.LVL32:
 467 001c FFF7FEFF 		bl	assert_param
 468              	.LVL33:
 469              		.loc 1 255 0
 470 0020 014B     		ldr	r3, .L55
 471 0022 5C61     		str	r4, [r3, #20]
 472 0024 10BD     		pop	{r4, pc}
 473              	.LVL34:
 474              	.L56:
 475 0026 00BF     		.align	2
 476              	.L55:
 477 0028 003C0140 		.word	1073822720
 478              		.cfi_endproc
 479              	.LFE128:
 480              		.size	EXTI_ClearFlag, .-EXTI_ClearFlag
 481              		.section	.text.EXTI_GetITStatus,"ax",%progbits
 482              		.align	2
 483              		.p2align 4,,15
 484              		.global	EXTI_GetITStatus
 485              		.thumb
 486              		.thumb_func
 487              		.type	EXTI_GetITStatus, %function
 488              	EXTI_GetITStatus:
 489              	.LFB129:
 490              		.loc 1 265 0
 491              		.cfi_startproc
 492              		@ args = 0, pretend = 0, frame = 0
 493              		@ frame_needed = 0, uses_anonymous_args = 0
 494              	.LVL35:
 495              		.loc 1 268 0
 496 0000 431E     		subs	r3, r0, #1
 497 0002 012B     		cmp	r3, #1
 498              		.loc 1 265 0
 499 0004 10B5     		push	{r4, lr}
 500              		.cfi_def_cfa_offset 8
 501              		.cfi_offset 4, -8
 502              		.cfi_offset 14, -4
 503              		.loc 1 265 0
 504 0006 0446     		mov	r4, r0
 505              		.loc 1 268 0
 506 0008 3DD9     		bls	.L80
 507              		.loc 1 268 0 is_stmt 0 discriminator 2
 508 000a 0428     		cmp	r0, #4
 509 000c 3BD0     		beq	.L80
 510              		.loc 1 268 0 discriminator 4
 511 000e 0828     		cmp	r0, #8
 512 0010 39D0     		beq	.L80
 513              		.loc 1 268 0 discriminator 6
ARM GAS  /var/folders/m4/4md61f0s1_g0rzfghffqnxvr0000gn/T//ccNSbQRa.s 			page 10


 514 0012 1028     		cmp	r0, #16
 515 0014 37D0     		beq	.L80
 516              		.loc 1 268 0 discriminator 8
 517 0016 2028     		cmp	r0, #32
 518 0018 35D0     		beq	.L80
 519              		.loc 1 268 0 discriminator 10
 520 001a 4028     		cmp	r0, #64
 521 001c 33D0     		beq	.L80
 522              		.loc 1 268 0 discriminator 12
 523 001e 8028     		cmp	r0, #128
 524 0020 31D0     		beq	.L80
 525              		.loc 1 268 0 discriminator 14
 526 0022 B0F5807F 		cmp	r0, #256
 527 0026 2ED0     		beq	.L80
 528              		.loc 1 268 0 discriminator 16
 529 0028 B0F5007F 		cmp	r0, #512
 530 002c 2BD0     		beq	.L80
 531              		.loc 1 268 0 discriminator 18
 532 002e B0F5806F 		cmp	r0, #1024
 533 0032 28D0     		beq	.L80
 534              		.loc 1 268 0 discriminator 20
 535 0034 B0F5006F 		cmp	r0, #2048
 536 0038 25D0     		beq	.L80
 537              		.loc 1 268 0 discriminator 22
 538 003a B0F5805F 		cmp	r0, #4096
 539 003e 22D0     		beq	.L80
 540              		.loc 1 268 0 discriminator 24
 541 0040 B0F5005F 		cmp	r0, #8192
 542 0044 1FD0     		beq	.L80
 543              		.loc 1 268 0 discriminator 26
 544 0046 B0F5804F 		cmp	r0, #16384
 545 004a 1CD0     		beq	.L80
 546              		.loc 1 268 0 discriminator 28
 547 004c B0F5004F 		cmp	r0, #32768
 548 0050 19D0     		beq	.L80
 549              		.loc 1 268 0 discriminator 30
 550 0052 B0F5803F 		cmp	r0, #65536
 551 0056 16D0     		beq	.L80
 552              		.loc 1 268 0 discriminator 32
 553 0058 B0F5003F 		cmp	r0, #131072
 554 005c 13D0     		beq	.L80
 555              		.loc 1 268 0 discriminator 34
 556 005e B0F5802F 		cmp	r0, #262144
 557 0062 10D0     		beq	.L80
 558              		.loc 1 268 0 discriminator 36
 559 0064 B0F5002F 		cmp	r0, #524288
 560 0068 0DD0     		beq	.L80
 561              		.loc 1 268 0 discriminator 38
 562 006a B0F5801F 		cmp	r0, #1048576
 563 006e 0AD0     		beq	.L80
 564              		.loc 1 268 0 discriminator 40
 565 0070 B0F5001F 		cmp	r0, #2097152
 566 0074 07D0     		beq	.L80
 567              		.loc 1 268 0 discriminator 42
 568 0076 B0F5800F 		cmp	r0, #4194304
 569 007a 04D0     		beq	.L80
 570              		.loc 1 268 0 discriminator 44
ARM GAS  /var/folders/m4/4md61f0s1_g0rzfghffqnxvr0000gn/T//ccNSbQRa.s 			page 11


 571 007c A0F50003 		sub	r3, r0, #8388608
 572 0080 5842     		rsbs	r0, r3, #0
 573              	.LVL36:
 574 0082 5841     		adcs	r0, r0, r3
 575 0084 00E0     		b	.L58
 576              	.LVL37:
 577              	.L80:
 578              		.loc 1 268 0
 579 0086 0120     		movs	r0, #1
 580              	.LVL38:
 581              	.L58:
 582              		.loc 1 268 0 discriminator 48
 583 0088 FFF7FEFF 		bl	assert_param
 584              	.LVL39:
 585              		.loc 1 270 0 is_stmt 1 discriminator 48
 586 008c 034B     		ldr	r3, .L82
 587 008e 5B69     		ldr	r3, [r3, #20]
 588              	.LVL40:
 589 0090 1C42     		tst	r4, r3
 590              		.loc 1 280 0 discriminator 48
 591 0092 14BF     		ite	ne
 592 0094 0120     		movne	r0, #1
 593 0096 0020     		moveq	r0, #0
 594 0098 10BD     		pop	{r4, pc}
 595              	.LVL41:
 596              	.L83:
 597 009a 00BF     		.align	2
 598              	.L82:
 599 009c 003C0140 		.word	1073822720
 600              		.cfi_endproc
 601              	.LFE129:
 602              		.size	EXTI_GetITStatus, .-EXTI_GetITStatus
 603              		.section	.text.EXTI_ClearITPendingBit,"ax",%progbits
 604              		.align	2
 605              		.p2align 4,,15
 606              		.global	EXTI_ClearITPendingBit
 607              		.thumb
 608              		.thumb_func
 609              		.type	EXTI_ClearITPendingBit, %function
 610              	EXTI_ClearITPendingBit:
 611              	.LFB130:
 612              		.loc 1 289 0
 613              		.cfi_startproc
 614              		@ args = 0, pretend = 0, frame = 0
 615              		@ frame_needed = 0, uses_anonymous_args = 0
 616              	.LVL42:
 617              		.loc 1 291 0
 618 0000 C30D     		lsrs	r3, r0, #23
 619 0002 DB05     		lsls	r3, r3, #23
 620              		.loc 1 289 0
 621 0004 10B5     		push	{r4, lr}
 622              		.cfi_def_cfa_offset 8
 623              		.cfi_offset 4, -8
 624              		.cfi_offset 14, -4
 625              		.loc 1 289 0
 626 0006 0446     		mov	r4, r0
 627              		.loc 1 291 0
ARM GAS  /var/folders/m4/4md61f0s1_g0rzfghffqnxvr0000gn/T//ccNSbQRa.s 			page 12


 628 0008 3BB9     		cbnz	r3, .L86
 629              		.loc 1 291 0 is_stmt 0 discriminator 1
 630 000a 0030     		adds	r0, r0, #0
 631              	.LVL43:
 632 000c 18BF     		it	ne
 633 000e 0120     		movne	r0, #1
 634 0010 FFF7FEFF 		bl	assert_param
 635              	.LVL44:
 636              		.loc 1 293 0 is_stmt 1 discriminator 1
 637 0014 044B     		ldr	r3, .L88
 638 0016 5C61     		str	r4, [r3, #20]
 639 0018 10BD     		pop	{r4, pc}
 640              	.LVL45:
 641              	.L86:
 642              		.loc 1 291 0
 643 001a 0020     		movs	r0, #0
 644              	.LVL46:
 645 001c FFF7FEFF 		bl	assert_param
 646              	.LVL47:
 647              		.loc 1 293 0
 648 0020 014B     		ldr	r3, .L88
 649 0022 5C61     		str	r4, [r3, #20]
 650 0024 10BD     		pop	{r4, pc}
 651              	.LVL48:
 652              	.L89:
 653 0026 00BF     		.align	2
 654              	.L88:
 655 0028 003C0140 		.word	1073822720
 656              		.cfi_endproc
 657              	.LFE130:
 658              		.size	EXTI_ClearITPendingBit, .-EXTI_ClearITPendingBit
 659              		.text
 660              	.Letext0:
 661              		.file 2 "/usr/local/Cellar/gcc-arm-none-eabi-49/20150609/arm-none-eabi/include/machine/_default_ty
 662              		.file 3 "/usr/local/Cellar/gcc-arm-none-eabi-49/20150609/arm-none-eabi/include/sys/_stdint.h"
 663              		.file 4 "ChibiOS_16.1.4/os/ext/CMSIS/ST/STM32F4xx/stm32f446xx.h"
 664              		.file 5 "ChibiOS_16.1.4/os/ext/CMSIS/ST/STM32F4xx/stm32f4xx.h"
 665              		.file 6 "ChibiOS_16.1.4/ext/stdperiph_stm32f4/inc/stm32f4xx_exti.h"
 666              		.file 7 "ChibiOS_16.1.4/os/ext/CMSIS/include/core_cm4.h"
 667              		.section	.debug_info,"",%progbits
 668              	.Ldebug_info0:
 669 0000 5D040000 		.4byte	0x45d
 670 0004 0400     		.2byte	0x4
 671 0006 00000000 		.4byte	.Ldebug_abbrev0
 672 000a 04       		.byte	0x4
 673 000b 01       		.uleb128 0x1
 674 000c BE020000 		.4byte	.LASF48
 675 0010 01       		.byte	0x1
 676 0011 45020000 		.4byte	.LASF49
 677 0015 89020000 		.4byte	.LASF50
 678 0019 00000000 		.4byte	.Ldebug_ranges0+0
 679 001d 00000000 		.4byte	0
 680 0021 00000000 		.4byte	.Ldebug_line0
 681 0025 02       		.uleb128 0x2
 682 0026 01       		.byte	0x1
 683 0027 06       		.byte	0x6
 684 0028 DD010000 		.4byte	.LASF0
ARM GAS  /var/folders/m4/4md61f0s1_g0rzfghffqnxvr0000gn/T//ccNSbQRa.s 			page 13


 685 002c 02       		.uleb128 0x2
 686 002d 01       		.byte	0x1
 687 002e 08       		.byte	0x8
 688 002f E6000000 		.4byte	.LASF1
 689 0033 02       		.uleb128 0x2
 690 0034 02       		.byte	0x2
 691 0035 05       		.byte	0x5
 692 0036 7F020000 		.4byte	.LASF2
 693 003a 03       		.uleb128 0x3
 694 003b 56010000 		.4byte	.LASF4
 695 003f 02       		.byte	0x2
 696 0040 2B       		.byte	0x2b
 697 0041 45000000 		.4byte	0x45
 698 0045 02       		.uleb128 0x2
 699 0046 02       		.byte	0x2
 700 0047 07       		.byte	0x7
 701 0048 64000000 		.4byte	.LASF3
 702 004c 03       		.uleb128 0x3
 703 004d 3A000000 		.4byte	.LASF5
 704 0051 02       		.byte	0x2
 705 0052 3F       		.byte	0x3f
 706 0053 57000000 		.4byte	0x57
 707 0057 02       		.uleb128 0x2
 708 0058 04       		.byte	0x4
 709 0059 05       		.byte	0x5
 710 005a F5030000 		.4byte	.LASF6
 711 005e 03       		.uleb128 0x3
 712 005f 61010000 		.4byte	.LASF7
 713 0063 02       		.byte	0x2
 714 0064 41       		.byte	0x41
 715 0065 69000000 		.4byte	0x69
 716 0069 02       		.uleb128 0x2
 717 006a 04       		.byte	0x4
 718 006b 07       		.byte	0x7
 719 006c 0E010000 		.4byte	.LASF8
 720 0070 02       		.uleb128 0x2
 721 0071 08       		.byte	0x8
 722 0072 05       		.byte	0x5
 723 0073 26020000 		.4byte	.LASF9
 724 0077 02       		.uleb128 0x2
 725 0078 08       		.byte	0x8
 726 0079 07       		.byte	0x7
 727 007a C6010000 		.4byte	.LASF10
 728 007e 04       		.uleb128 0x4
 729 007f 04       		.byte	0x4
 730 0080 05       		.byte	0x5
 731 0081 696E7400 		.ascii	"int\000"
 732 0085 02       		.uleb128 0x2
 733 0086 04       		.byte	0x4
 734 0087 07       		.byte	0x7
 735 0088 9C010000 		.4byte	.LASF11
 736 008c 03       		.uleb128 0x3
 737 008d B5020000 		.4byte	.LASF12
 738 0091 03       		.byte	0x3
 739 0092 1A       		.byte	0x1a
 740 0093 3A000000 		.4byte	0x3a
 741 0097 03       		.uleb128 0x3
ARM GAS  /var/folders/m4/4md61f0s1_g0rzfghffqnxvr0000gn/T//ccNSbQRa.s 			page 14


 742 0098 FE010000 		.4byte	.LASF13
 743 009c 03       		.byte	0x3
 744 009d 1F       		.byte	0x1f
 745 009e 4C000000 		.4byte	0x4c
 746 00a2 03       		.uleb128 0x3
 747 00a3 EC030000 		.4byte	.LASF14
 748 00a7 03       		.byte	0x3
 749 00a8 20       		.byte	0x20
 750 00a9 5E000000 		.4byte	0x5e
 751 00ad 02       		.uleb128 0x2
 752 00ae 04       		.byte	0x4
 753 00af 07       		.byte	0x7
 754 00b0 06020000 		.4byte	.LASF15
 755 00b4 05       		.uleb128 0x5
 756 00b5 A2000000 		.4byte	0xa2
 757 00b9 06       		.uleb128 0x6
 758 00ba 18       		.byte	0x18
 759 00bb 04       		.byte	0x4
 760 00bc 9401     		.2byte	0x194
 761 00be 10010000 		.4byte	0x110
 762 00c2 07       		.uleb128 0x7
 763 00c3 494D5200 		.ascii	"IMR\000"
 764 00c7 04       		.byte	0x4
 765 00c8 9601     		.2byte	0x196
 766 00ca B4000000 		.4byte	0xb4
 767 00ce 00       		.byte	0
 768 00cf 07       		.uleb128 0x7
 769 00d0 454D5200 		.ascii	"EMR\000"
 770 00d4 04       		.byte	0x4
 771 00d5 9701     		.2byte	0x197
 772 00d7 B4000000 		.4byte	0xb4
 773 00db 04       		.byte	0x4
 774 00dc 08       		.uleb128 0x8
 775 00dd 51010000 		.4byte	.LASF16
 776 00e1 04       		.byte	0x4
 777 00e2 9801     		.2byte	0x198
 778 00e4 B4000000 		.4byte	0xb4
 779 00e8 08       		.byte	0x8
 780 00e9 08       		.uleb128 0x8
 781 00ea 2C040000 		.4byte	.LASF17
 782 00ee 04       		.byte	0x4
 783 00ef 9901     		.2byte	0x199
 784 00f1 B4000000 		.4byte	0xb4
 785 00f5 0C       		.byte	0xc
 786 00f6 08       		.uleb128 0x8
 787 00f7 1A040000 		.4byte	.LASF18
 788 00fb 04       		.byte	0x4
 789 00fc 9A01     		.2byte	0x19a
 790 00fe B4000000 		.4byte	0xb4
 791 0102 10       		.byte	0x10
 792 0103 07       		.uleb128 0x7
 793 0104 505200   		.ascii	"PR\000"
 794 0107 04       		.byte	0x4
 795 0108 9B01     		.2byte	0x19b
 796 010a B4000000 		.4byte	0xb4
 797 010e 14       		.byte	0x14
 798 010f 00       		.byte	0
ARM GAS  /var/folders/m4/4md61f0s1_g0rzfghffqnxvr0000gn/T//ccNSbQRa.s 			page 15


 799 0110 09       		.uleb128 0x9
 800 0111 37010000 		.4byte	.LASF19
 801 0115 04       		.byte	0x4
 802 0116 9C01     		.2byte	0x19c
 803 0118 B9000000 		.4byte	0xb9
 804 011c 0A       		.uleb128 0xa
 805 011d 01       		.byte	0x1
 806 011e 05       		.byte	0x5
 807 011f B8       		.byte	0xb8
 808 0120 31010000 		.4byte	0x131
 809 0124 0B       		.uleb128 0xb
 810 0125 20010000 		.4byte	.LASF20
 811 0129 00       		.sleb128 0
 812 012a 0C       		.uleb128 0xc
 813 012b 53455400 		.ascii	"SET\000"
 814 012f 01       		.sleb128 1
 815 0130 00       		.byte	0
 816 0131 03       		.uleb128 0x3
 817 0132 F4000000 		.4byte	.LASF21
 818 0136 05       		.byte	0x5
 819 0137 BB       		.byte	0xbb
 820 0138 1C010000 		.4byte	0x11c
 821 013c 03       		.uleb128 0x3
 822 013d 17000000 		.4byte	.LASF22
 823 0141 05       		.byte	0x5
 824 0142 BB       		.byte	0xbb
 825 0143 1C010000 		.4byte	0x11c
 826 0147 0A       		.uleb128 0xa
 827 0148 01       		.byte	0x1
 828 0149 05       		.byte	0x5
 829 014a BE       		.byte	0xbe
 830 014b 5C010000 		.4byte	0x15c
 831 014f 0B       		.uleb128 0xb
 832 0150 FE030000 		.4byte	.LASF23
 833 0154 00       		.sleb128 0
 834 0155 0B       		.uleb128 0xb
 835 0156 CB000000 		.4byte	.LASF24
 836 015a 01       		.sleb128 1
 837 015b 00       		.byte	0
 838 015c 03       		.uleb128 0x3
 839 015d 77000000 		.4byte	.LASF25
 840 0161 05       		.byte	0x5
 841 0162 C1       		.byte	0xc1
 842 0163 47010000 		.4byte	0x147
 843 0167 0A       		.uleb128 0xa
 844 0168 01       		.byte	0x1
 845 0169 06       		.byte	0x6
 846 016a 37       		.byte	0x37
 847 016b 7C010000 		.4byte	0x17c
 848 016f 0B       		.uleb128 0xb
 849 0170 D2000000 		.4byte	.LASF26
 850 0174 00       		.sleb128 0
 851 0175 0B       		.uleb128 0xb
 852 0176 54000000 		.4byte	.LASF27
 853 017a 04       		.sleb128 4
 854 017b 00       		.byte	0
 855 017c 03       		.uleb128 0x3
ARM GAS  /var/folders/m4/4md61f0s1_g0rzfghffqnxvr0000gn/T//ccNSbQRa.s 			page 16


 856 017d 26010000 		.4byte	.LASF28
 857 0181 06       		.byte	0x6
 858 0182 3A       		.byte	0x3a
 859 0183 67010000 		.4byte	0x167
 860 0187 0A       		.uleb128 0xa
 861 0188 01       		.byte	0x1
 862 0189 06       		.byte	0x6
 863 018a 43       		.byte	0x43
 864 018b A2010000 		.4byte	0x1a2
 865 018f 0B       		.uleb128 0xb
 866 0190 6C010000 		.4byte	.LASF29
 867 0194 08       		.sleb128 8
 868 0195 0B       		.uleb128 0xb
 869 0196 E9010000 		.4byte	.LASF30
 870 019a 0C       		.sleb128 12
 871 019b 0B       		.uleb128 0xb
 872 019c 80010000 		.4byte	.LASF31
 873 01a0 10       		.sleb128 16
 874 01a1 00       		.byte	0
 875 01a2 03       		.uleb128 0x3
 876 01a3 06040000 		.4byte	.LASF32
 877 01a7 06       		.byte	0x6
 878 01a8 47       		.byte	0x47
 879 01a9 87010000 		.4byte	0x187
 880 01ad 0D       		.uleb128 0xd
 881 01ae 08       		.byte	0x8
 882 01af 06       		.byte	0x6
 883 01b0 50       		.byte	0x50
 884 01b1 E6010000 		.4byte	0x1e6
 885 01b5 0E       		.uleb128 0xe
 886 01b6 00000000 		.4byte	.LASF33
 887 01ba 06       		.byte	0x6
 888 01bb 52       		.byte	0x52
 889 01bc A2000000 		.4byte	0xa2
 890 01c0 00       		.byte	0
 891 01c1 0E       		.uleb128 0xe
 892 01c2 E2030000 		.4byte	.LASF34
 893 01c6 06       		.byte	0x6
 894 01c7 55       		.byte	0x55
 895 01c8 7C010000 		.4byte	0x17c
 896 01cc 04       		.byte	0x4
 897 01cd 0E       		.uleb128 0xe
 898 01ce 2D000000 		.4byte	.LASF35
 899 01d2 06       		.byte	0x6
 900 01d3 58       		.byte	0x58
 901 01d4 A2010000 		.4byte	0x1a2
 902 01d8 05       		.byte	0x5
 903 01d9 0E       		.uleb128 0xe
 904 01da 20000000 		.4byte	.LASF36
 905 01de 06       		.byte	0x6
 906 01df 5B       		.byte	0x5b
 907 01e0 5C010000 		.4byte	0x15c
 908 01e4 06       		.byte	0x6
 909 01e5 00       		.byte	0
 910 01e6 03       		.uleb128 0x3
 911 01e7 AA000000 		.4byte	.LASF37
 912 01eb 06       		.byte	0x6
ARM GAS  /var/folders/m4/4md61f0s1_g0rzfghffqnxvr0000gn/T//ccNSbQRa.s 			page 17


 913 01ec 5D       		.byte	0x5d
 914 01ed AD010000 		.4byte	0x1ad
 915 01f1 0F       		.uleb128 0xf
 916 01f2 20040000 		.4byte	.LASF51
 917 01f6 01       		.byte	0x1
 918 01f7 6E       		.byte	0x6e
 919 01f8 00000000 		.4byte	.LFB123
 920 01fc 1C000000 		.4byte	.LFE123-.LFB123
 921 0200 01       		.uleb128 0x1
 922 0201 9C       		.byte	0x9c
 923 0202 10       		.uleb128 0x10
 924 0203 A9010000 		.4byte	.LASF38
 925 0207 01       		.byte	0x1
 926 0208 7E       		.byte	0x7e
 927 0209 00000000 		.4byte	.LFB124
 928 020d C8000000 		.4byte	.LFE124-.LFB124
 929 0211 01       		.uleb128 0x1
 930 0212 9C       		.byte	0x9c
 931 0213 6B020000 		.4byte	0x26b
 932 0217 11       		.uleb128 0x11
 933 0218 BB000000 		.4byte	.LASF40
 934 021c 01       		.byte	0x1
 935 021d 7E       		.byte	0x7e
 936 021e 6B020000 		.4byte	0x26b
 937 0222 00000000 		.4byte	.LLST0
 938 0226 12       		.uleb128 0x12
 939 0227 746D7000 		.ascii	"tmp\000"
 940 022b 01       		.byte	0x1
 941 022c 80       		.byte	0x80
 942 022d A2000000 		.4byte	0xa2
 943 0231 45000000 		.4byte	.LLST1
 944 0235 13       		.uleb128 0x13
 945 0236 0A000000 		.4byte	.LASF42
 946 023a 01       		.byte	0x1
 947 023b 83       		.byte	0x83
 948 023c 7E000000 		.4byte	0x7e
 949 0240 46020000 		.4byte	0x246
 950 0244 14       		.uleb128 0x14
 951 0245 00       		.byte	0
 952 0246 15       		.uleb128 0x15
 953 0247 14000000 		.4byte	.LVL2
 954 024b 53040000 		.4byte	0x453
 955 024f 15       		.uleb128 0x15
 956 0250 2C000000 		.4byte	.LVL3
 957 0254 53040000 		.4byte	0x453
 958 0258 15       		.uleb128 0x15
 959 0259 40000000 		.4byte	.LVL4
 960 025d 53040000 		.4byte	0x453
 961 0261 15       		.uleb128 0x15
 962 0262 4E000000 		.4byte	.LVL5
 963 0266 53040000 		.4byte	0x453
 964 026a 00       		.byte	0
 965 026b 16       		.uleb128 0x16
 966 026c 04       		.byte	0x4
 967 026d E6010000 		.4byte	0x1e6
 968 0271 10       		.uleb128 0x10
 969 0272 44000000 		.4byte	.LASF39
ARM GAS  /var/folders/m4/4md61f0s1_g0rzfghffqnxvr0000gn/T//ccNSbQRa.s 			page 18


 970 0276 01       		.byte	0x1
 971 0277 B6       		.byte	0xb6
 972 0278 00000000 		.4byte	.LFB125
 973 027c 0E000000 		.4byte	.LFE125-.LFB125
 974 0280 01       		.uleb128 0x1
 975 0281 9C       		.byte	0x9c
 976 0282 94020000 		.4byte	0x294
 977 0286 17       		.uleb128 0x17
 978 0287 BB000000 		.4byte	.LASF40
 979 028b 01       		.byte	0x1
 980 028c B6       		.byte	0xb6
 981 028d 6B020000 		.4byte	0x26b
 982 0291 01       		.uleb128 0x1
 983 0292 50       		.byte	0x50
 984 0293 00       		.byte	0
 985 0294 10       		.uleb128 0x10
 986 0295 91000000 		.4byte	.LASF41
 987 0299 01       		.byte	0x1
 988 029a C5       		.byte	0xc5
 989 029b 00000000 		.4byte	.LFB126
 990 029f 28000000 		.4byte	.LFE126-.LFB126
 991 02a3 01       		.uleb128 0x1
 992 02a4 9C       		.byte	0x9c
 993 02a5 D3020000 		.4byte	0x2d3
 994 02a9 11       		.uleb128 0x11
 995 02aa 00000000 		.4byte	.LASF33
 996 02ae 01       		.byte	0x1
 997 02af C5       		.byte	0xc5
 998 02b0 A2000000 		.4byte	0xa2
 999 02b4 EF000000 		.4byte	.LLST2
 1000 02b8 13       		.uleb128 0x13
 1001 02b9 0A000000 		.4byte	.LASF42
 1002 02bd 01       		.byte	0x1
 1003 02be 83       		.byte	0x83
 1004 02bf 7E000000 		.4byte	0x7e
 1005 02c3 C9020000 		.4byte	0x2c9
 1006 02c7 14       		.uleb128 0x14
 1007 02c8 00       		.byte	0
 1008 02c9 15       		.uleb128 0x15
 1009 02ca 14000000 		.4byte	.LVL18
 1010 02ce 53040000 		.4byte	0x453
 1011 02d2 00       		.byte	0
 1012 02d3 18       		.uleb128 0x18
 1013 02d4 B3010000 		.4byte	.LASF45
 1014 02d8 01       		.byte	0x1
 1015 02d9 E3       		.byte	0xe3
 1016 02da 31010000 		.4byte	0x131
 1017 02de 00000000 		.4byte	.LFB127
 1018 02e2 A0000000 		.4byte	.LFE127-.LFB127
 1019 02e6 01       		.uleb128 0x1
 1020 02e7 9C       		.byte	0x9c
 1021 02e8 25030000 		.4byte	0x325
 1022 02ec 11       		.uleb128 0x11
 1023 02ed 00000000 		.4byte	.LASF33
 1024 02f1 01       		.byte	0x1
 1025 02f2 E3       		.byte	0xe3
 1026 02f3 A2000000 		.4byte	0xa2
ARM GAS  /var/folders/m4/4md61f0s1_g0rzfghffqnxvr0000gn/T//ccNSbQRa.s 			page 19


 1027 02f7 23010000 		.4byte	.LLST3
 1028 02fb 19       		.uleb128 0x19
 1029 02fc 87000000 		.4byte	.LASF43
 1030 0300 01       		.byte	0x1
 1031 0301 E5       		.byte	0xe5
 1032 0302 31010000 		.4byte	0x131
 1033 0306 65010000 		.4byte	.LLST4
 1034 030a 13       		.uleb128 0x13
 1035 030b 0A000000 		.4byte	.LASF42
 1036 030f 01       		.byte	0x1
 1037 0310 83       		.byte	0x83
 1038 0311 7E000000 		.4byte	0x7e
 1039 0315 1B030000 		.4byte	0x31b
 1040 0319 14       		.uleb128 0x14
 1041 031a 00       		.byte	0
 1042 031b 15       		.uleb128 0x15
 1043 031c 8C000000 		.4byte	.LVL25
 1044 0320 53040000 		.4byte	0x453
 1045 0324 00       		.byte	0
 1046 0325 10       		.uleb128 0x10
 1047 0326 FF000000 		.4byte	.LASF44
 1048 032a 01       		.byte	0x1
 1049 032b FA       		.byte	0xfa
 1050 032c 00000000 		.4byte	.LFB128
 1051 0330 2C000000 		.4byte	.LFE128-.LFB128
 1052 0334 01       		.uleb128 0x1
 1053 0335 9C       		.byte	0x9c
 1054 0336 88030000 		.4byte	0x388
 1055 033a 11       		.uleb128 0x11
 1056 033b 00000000 		.4byte	.LASF33
 1057 033f 01       		.byte	0x1
 1058 0340 FA       		.byte	0xfa
 1059 0341 A2000000 		.4byte	0xa2
 1060 0345 9E010000 		.4byte	.LLST5
 1061 0349 13       		.uleb128 0x13
 1062 034a 0A000000 		.4byte	.LASF42
 1063 034e 01       		.byte	0x1
 1064 034f 83       		.byte	0x83
 1065 0350 7E000000 		.4byte	0x7e
 1066 0354 5A030000 		.4byte	0x35a
 1067 0358 14       		.uleb128 0x14
 1068 0359 00       		.byte	0
 1069 035a 1A       		.uleb128 0x1a
 1070 035b 14000000 		.4byte	.LVL30
 1071 035f 53040000 		.4byte	0x453
 1072 0363 78030000 		.4byte	0x378
 1073 0367 1B       		.uleb128 0x1b
 1074 0368 01       		.uleb128 0x1
 1075 0369 50       		.byte	0x50
 1076 036a 0C       		.uleb128 0xc
 1077 036b 31       		.byte	0x31
 1078 036c 74       		.byte	0x74
 1079 036d 00       		.sleb128 0
 1080 036e 74       		.byte	0x74
 1081 036f 00       		.sleb128 0
 1082 0370 30       		.byte	0x30
 1083 0371 2E       		.byte	0x2e
ARM GAS  /var/folders/m4/4md61f0s1_g0rzfghffqnxvr0000gn/T//ccNSbQRa.s 			page 20


 1084 0372 28       		.byte	0x28
 1085 0373 0100     		.2byte	0x1
 1086 0375 16       		.byte	0x16
 1087 0376 13       		.byte	0x13
 1088 0377 00       		.byte	0
 1089 0378 1C       		.uleb128 0x1c
 1090 0379 20000000 		.4byte	.LVL33
 1091 037d 53040000 		.4byte	0x453
 1092 0381 1B       		.uleb128 0x1b
 1093 0382 01       		.uleb128 0x1
 1094 0383 50       		.byte	0x50
 1095 0384 01       		.uleb128 0x1
 1096 0385 30       		.byte	0x30
 1097 0386 00       		.byte	0
 1098 0387 00       		.byte	0
 1099 0388 1D       		.uleb128 0x1d
 1100 0389 34020000 		.4byte	.LASF46
 1101 038d 01       		.byte	0x1
 1102 038e 0801     		.2byte	0x108
 1103 0390 3C010000 		.4byte	0x13c
 1104 0394 00000000 		.4byte	.LFB129
 1105 0398 A0000000 		.4byte	.LFE129-.LFB129
 1106 039c 01       		.uleb128 0x1
 1107 039d 9C       		.byte	0x9c
 1108 039e DD030000 		.4byte	0x3dd
 1109 03a2 1E       		.uleb128 0x1e
 1110 03a3 00000000 		.4byte	.LASF33
 1111 03a7 01       		.byte	0x1
 1112 03a8 0801     		.2byte	0x108
 1113 03aa A2000000 		.4byte	0xa2
 1114 03ae DE010000 		.4byte	.LLST6
 1115 03b2 1F       		.uleb128 0x1f
 1116 03b3 87000000 		.4byte	.LASF43
 1117 03b7 01       		.byte	0x1
 1118 03b8 0A01     		.2byte	0x10a
 1119 03ba 31010000 		.4byte	0x131
 1120 03be 20020000 		.4byte	.LLST7
 1121 03c2 13       		.uleb128 0x13
 1122 03c3 0A000000 		.4byte	.LASF42
 1123 03c7 01       		.byte	0x1
 1124 03c8 83       		.byte	0x83
 1125 03c9 7E000000 		.4byte	0x7e
 1126 03cd D3030000 		.4byte	0x3d3
 1127 03d1 14       		.uleb128 0x14
 1128 03d2 00       		.byte	0
 1129 03d3 15       		.uleb128 0x15
 1130 03d4 8C000000 		.4byte	.LVL39
 1131 03d8 53040000 		.4byte	0x453
 1132 03dc 00       		.byte	0
 1133 03dd 20       		.uleb128 0x20
 1134 03de 0F020000 		.4byte	.LASF47
 1135 03e2 01       		.byte	0x1
 1136 03e3 2001     		.2byte	0x120
 1137 03e5 00000000 		.4byte	.LFB130
 1138 03e9 2C000000 		.4byte	.LFE130-.LFB130
 1139 03ed 01       		.uleb128 0x1
 1140 03ee 9C       		.byte	0x9c
ARM GAS  /var/folders/m4/4md61f0s1_g0rzfghffqnxvr0000gn/T//ccNSbQRa.s 			page 21


 1141 03ef 42040000 		.4byte	0x442
 1142 03f3 1E       		.uleb128 0x1e
 1143 03f4 00000000 		.4byte	.LASF33
 1144 03f8 01       		.byte	0x1
 1145 03f9 2001     		.2byte	0x120
 1146 03fb A2000000 		.4byte	0xa2
 1147 03ff 59020000 		.4byte	.LLST8
 1148 0403 13       		.uleb128 0x13
 1149 0404 0A000000 		.4byte	.LASF42
 1150 0408 01       		.byte	0x1
 1151 0409 83       		.byte	0x83
 1152 040a 7E000000 		.4byte	0x7e
 1153 040e 14040000 		.4byte	0x414
 1154 0412 14       		.uleb128 0x14
 1155 0413 00       		.byte	0
 1156 0414 1A       		.uleb128 0x1a
 1157 0415 14000000 		.4byte	.LVL44
 1158 0419 53040000 		.4byte	0x453
 1159 041d 32040000 		.4byte	0x432
 1160 0421 1B       		.uleb128 0x1b
 1161 0422 01       		.uleb128 0x1
 1162 0423 50       		.byte	0x50
 1163 0424 0C       		.uleb128 0xc
 1164 0425 31       		.byte	0x31
 1165 0426 74       		.byte	0x74
 1166 0427 00       		.sleb128 0
 1167 0428 74       		.byte	0x74
 1168 0429 00       		.sleb128 0
 1169 042a 30       		.byte	0x30
 1170 042b 2E       		.byte	0x2e
 1171 042c 28       		.byte	0x28
 1172 042d 0100     		.2byte	0x1
 1173 042f 16       		.byte	0x16
 1174 0430 13       		.byte	0x13
 1175 0431 00       		.byte	0
 1176 0432 1C       		.uleb128 0x1c
 1177 0433 20000000 		.4byte	.LVL47
 1178 0437 53040000 		.4byte	0x453
 1179 043b 1B       		.uleb128 0x1b
 1180 043c 01       		.uleb128 0x1
 1181 043d 50       		.byte	0x50
 1182 043e 01       		.uleb128 0x1
 1183 043f 30       		.byte	0x30
 1184 0440 00       		.byte	0
 1185 0441 00       		.byte	0
 1186 0442 21       		.uleb128 0x21
 1187 0443 44010000 		.4byte	.LASF52
 1188 0447 07       		.byte	0x7
 1189 0448 FA06     		.2byte	0x6fa
 1190 044a 4E040000 		.4byte	0x44e
 1191 044e 05       		.uleb128 0x5
 1192 044f 97000000 		.4byte	0x97
 1193 0453 22       		.uleb128 0x22
 1194 0454 0A000000 		.4byte	.LASF42
 1195 0458 01       		.byte	0x1
 1196 0459 83       		.byte	0x83
 1197 045a 7E000000 		.4byte	0x7e
ARM GAS  /var/folders/m4/4md61f0s1_g0rzfghffqnxvr0000gn/T//ccNSbQRa.s 			page 22


 1198 045e 14       		.uleb128 0x14
 1199 045f 00       		.byte	0
 1200 0460 00       		.byte	0
 1201              		.section	.debug_abbrev,"",%progbits
 1202              	.Ldebug_abbrev0:
 1203 0000 01       		.uleb128 0x1
 1204 0001 11       		.uleb128 0x11
 1205 0002 01       		.byte	0x1
 1206 0003 25       		.uleb128 0x25
 1207 0004 0E       		.uleb128 0xe
 1208 0005 13       		.uleb128 0x13
 1209 0006 0B       		.uleb128 0xb
 1210 0007 03       		.uleb128 0x3
 1211 0008 0E       		.uleb128 0xe
 1212 0009 1B       		.uleb128 0x1b
 1213 000a 0E       		.uleb128 0xe
 1214 000b 55       		.uleb128 0x55
 1215 000c 17       		.uleb128 0x17
 1216 000d 11       		.uleb128 0x11
 1217 000e 01       		.uleb128 0x1
 1218 000f 10       		.uleb128 0x10
 1219 0010 17       		.uleb128 0x17
 1220 0011 00       		.byte	0
 1221 0012 00       		.byte	0
 1222 0013 02       		.uleb128 0x2
 1223 0014 24       		.uleb128 0x24
 1224 0015 00       		.byte	0
 1225 0016 0B       		.uleb128 0xb
 1226 0017 0B       		.uleb128 0xb
 1227 0018 3E       		.uleb128 0x3e
 1228 0019 0B       		.uleb128 0xb
 1229 001a 03       		.uleb128 0x3
 1230 001b 0E       		.uleb128 0xe
 1231 001c 00       		.byte	0
 1232 001d 00       		.byte	0
 1233 001e 03       		.uleb128 0x3
 1234 001f 16       		.uleb128 0x16
 1235 0020 00       		.byte	0
 1236 0021 03       		.uleb128 0x3
 1237 0022 0E       		.uleb128 0xe
 1238 0023 3A       		.uleb128 0x3a
 1239 0024 0B       		.uleb128 0xb
 1240 0025 3B       		.uleb128 0x3b
 1241 0026 0B       		.uleb128 0xb
 1242 0027 49       		.uleb128 0x49
 1243 0028 13       		.uleb128 0x13
 1244 0029 00       		.byte	0
 1245 002a 00       		.byte	0
 1246 002b 04       		.uleb128 0x4
 1247 002c 24       		.uleb128 0x24
 1248 002d 00       		.byte	0
 1249 002e 0B       		.uleb128 0xb
 1250 002f 0B       		.uleb128 0xb
 1251 0030 3E       		.uleb128 0x3e
 1252 0031 0B       		.uleb128 0xb
 1253 0032 03       		.uleb128 0x3
 1254 0033 08       		.uleb128 0x8
ARM GAS  /var/folders/m4/4md61f0s1_g0rzfghffqnxvr0000gn/T//ccNSbQRa.s 			page 23


 1255 0034 00       		.byte	0
 1256 0035 00       		.byte	0
 1257 0036 05       		.uleb128 0x5
 1258 0037 35       		.uleb128 0x35
 1259 0038 00       		.byte	0
 1260 0039 49       		.uleb128 0x49
 1261 003a 13       		.uleb128 0x13
 1262 003b 00       		.byte	0
 1263 003c 00       		.byte	0
 1264 003d 06       		.uleb128 0x6
 1265 003e 13       		.uleb128 0x13
 1266 003f 01       		.byte	0x1
 1267 0040 0B       		.uleb128 0xb
 1268 0041 0B       		.uleb128 0xb
 1269 0042 3A       		.uleb128 0x3a
 1270 0043 0B       		.uleb128 0xb
 1271 0044 3B       		.uleb128 0x3b
 1272 0045 05       		.uleb128 0x5
 1273 0046 01       		.uleb128 0x1
 1274 0047 13       		.uleb128 0x13
 1275 0048 00       		.byte	0
 1276 0049 00       		.byte	0
 1277 004a 07       		.uleb128 0x7
 1278 004b 0D       		.uleb128 0xd
 1279 004c 00       		.byte	0
 1280 004d 03       		.uleb128 0x3
 1281 004e 08       		.uleb128 0x8
 1282 004f 3A       		.uleb128 0x3a
 1283 0050 0B       		.uleb128 0xb
 1284 0051 3B       		.uleb128 0x3b
 1285 0052 05       		.uleb128 0x5
 1286 0053 49       		.uleb128 0x49
 1287 0054 13       		.uleb128 0x13
 1288 0055 38       		.uleb128 0x38
 1289 0056 0B       		.uleb128 0xb
 1290 0057 00       		.byte	0
 1291 0058 00       		.byte	0
 1292 0059 08       		.uleb128 0x8
 1293 005a 0D       		.uleb128 0xd
 1294 005b 00       		.byte	0
 1295 005c 03       		.uleb128 0x3
 1296 005d 0E       		.uleb128 0xe
 1297 005e 3A       		.uleb128 0x3a
 1298 005f 0B       		.uleb128 0xb
 1299 0060 3B       		.uleb128 0x3b
 1300 0061 05       		.uleb128 0x5
 1301 0062 49       		.uleb128 0x49
 1302 0063 13       		.uleb128 0x13
 1303 0064 38       		.uleb128 0x38
 1304 0065 0B       		.uleb128 0xb
 1305 0066 00       		.byte	0
 1306 0067 00       		.byte	0
 1307 0068 09       		.uleb128 0x9
 1308 0069 16       		.uleb128 0x16
 1309 006a 00       		.byte	0
 1310 006b 03       		.uleb128 0x3
 1311 006c 0E       		.uleb128 0xe
ARM GAS  /var/folders/m4/4md61f0s1_g0rzfghffqnxvr0000gn/T//ccNSbQRa.s 			page 24


 1312 006d 3A       		.uleb128 0x3a
 1313 006e 0B       		.uleb128 0xb
 1314 006f 3B       		.uleb128 0x3b
 1315 0070 05       		.uleb128 0x5
 1316 0071 49       		.uleb128 0x49
 1317 0072 13       		.uleb128 0x13
 1318 0073 00       		.byte	0
 1319 0074 00       		.byte	0
 1320 0075 0A       		.uleb128 0xa
 1321 0076 04       		.uleb128 0x4
 1322 0077 01       		.byte	0x1
 1323 0078 0B       		.uleb128 0xb
 1324 0079 0B       		.uleb128 0xb
 1325 007a 3A       		.uleb128 0x3a
 1326 007b 0B       		.uleb128 0xb
 1327 007c 3B       		.uleb128 0x3b
 1328 007d 0B       		.uleb128 0xb
 1329 007e 01       		.uleb128 0x1
 1330 007f 13       		.uleb128 0x13
 1331 0080 00       		.byte	0
 1332 0081 00       		.byte	0
 1333 0082 0B       		.uleb128 0xb
 1334 0083 28       		.uleb128 0x28
 1335 0084 00       		.byte	0
 1336 0085 03       		.uleb128 0x3
 1337 0086 0E       		.uleb128 0xe
 1338 0087 1C       		.uleb128 0x1c
 1339 0088 0D       		.uleb128 0xd
 1340 0089 00       		.byte	0
 1341 008a 00       		.byte	0
 1342 008b 0C       		.uleb128 0xc
 1343 008c 28       		.uleb128 0x28
 1344 008d 00       		.byte	0
 1345 008e 03       		.uleb128 0x3
 1346 008f 08       		.uleb128 0x8
 1347 0090 1C       		.uleb128 0x1c
 1348 0091 0D       		.uleb128 0xd
 1349 0092 00       		.byte	0
 1350 0093 00       		.byte	0
 1351 0094 0D       		.uleb128 0xd
 1352 0095 13       		.uleb128 0x13
 1353 0096 01       		.byte	0x1
 1354 0097 0B       		.uleb128 0xb
 1355 0098 0B       		.uleb128 0xb
 1356 0099 3A       		.uleb128 0x3a
 1357 009a 0B       		.uleb128 0xb
 1358 009b 3B       		.uleb128 0x3b
 1359 009c 0B       		.uleb128 0xb
 1360 009d 01       		.uleb128 0x1
 1361 009e 13       		.uleb128 0x13
 1362 009f 00       		.byte	0
 1363 00a0 00       		.byte	0
 1364 00a1 0E       		.uleb128 0xe
 1365 00a2 0D       		.uleb128 0xd
 1366 00a3 00       		.byte	0
 1367 00a4 03       		.uleb128 0x3
 1368 00a5 0E       		.uleb128 0xe
ARM GAS  /var/folders/m4/4md61f0s1_g0rzfghffqnxvr0000gn/T//ccNSbQRa.s 			page 25


 1369 00a6 3A       		.uleb128 0x3a
 1370 00a7 0B       		.uleb128 0xb
 1371 00a8 3B       		.uleb128 0x3b
 1372 00a9 0B       		.uleb128 0xb
 1373 00aa 49       		.uleb128 0x49
 1374 00ab 13       		.uleb128 0x13
 1375 00ac 38       		.uleb128 0x38
 1376 00ad 0B       		.uleb128 0xb
 1377 00ae 00       		.byte	0
 1378 00af 00       		.byte	0
 1379 00b0 0F       		.uleb128 0xf
 1380 00b1 2E       		.uleb128 0x2e
 1381 00b2 00       		.byte	0
 1382 00b3 3F       		.uleb128 0x3f
 1383 00b4 19       		.uleb128 0x19
 1384 00b5 03       		.uleb128 0x3
 1385 00b6 0E       		.uleb128 0xe
 1386 00b7 3A       		.uleb128 0x3a
 1387 00b8 0B       		.uleb128 0xb
 1388 00b9 3B       		.uleb128 0x3b
 1389 00ba 0B       		.uleb128 0xb
 1390 00bb 27       		.uleb128 0x27
 1391 00bc 19       		.uleb128 0x19
 1392 00bd 11       		.uleb128 0x11
 1393 00be 01       		.uleb128 0x1
 1394 00bf 12       		.uleb128 0x12
 1395 00c0 06       		.uleb128 0x6
 1396 00c1 40       		.uleb128 0x40
 1397 00c2 18       		.uleb128 0x18
 1398 00c3 9742     		.uleb128 0x2117
 1399 00c5 19       		.uleb128 0x19
 1400 00c6 00       		.byte	0
 1401 00c7 00       		.byte	0
 1402 00c8 10       		.uleb128 0x10
 1403 00c9 2E       		.uleb128 0x2e
 1404 00ca 01       		.byte	0x1
 1405 00cb 3F       		.uleb128 0x3f
 1406 00cc 19       		.uleb128 0x19
 1407 00cd 03       		.uleb128 0x3
 1408 00ce 0E       		.uleb128 0xe
 1409 00cf 3A       		.uleb128 0x3a
 1410 00d0 0B       		.uleb128 0xb
 1411 00d1 3B       		.uleb128 0x3b
 1412 00d2 0B       		.uleb128 0xb
 1413 00d3 27       		.uleb128 0x27
 1414 00d4 19       		.uleb128 0x19
 1415 00d5 11       		.uleb128 0x11
 1416 00d6 01       		.uleb128 0x1
 1417 00d7 12       		.uleb128 0x12
 1418 00d8 06       		.uleb128 0x6
 1419 00d9 40       		.uleb128 0x40
 1420 00da 18       		.uleb128 0x18
 1421 00db 9742     		.uleb128 0x2117
 1422 00dd 19       		.uleb128 0x19
 1423 00de 01       		.uleb128 0x1
 1424 00df 13       		.uleb128 0x13
 1425 00e0 00       		.byte	0
ARM GAS  /var/folders/m4/4md61f0s1_g0rzfghffqnxvr0000gn/T//ccNSbQRa.s 			page 26


 1426 00e1 00       		.byte	0
 1427 00e2 11       		.uleb128 0x11
 1428 00e3 05       		.uleb128 0x5
 1429 00e4 00       		.byte	0
 1430 00e5 03       		.uleb128 0x3
 1431 00e6 0E       		.uleb128 0xe
 1432 00e7 3A       		.uleb128 0x3a
 1433 00e8 0B       		.uleb128 0xb
 1434 00e9 3B       		.uleb128 0x3b
 1435 00ea 0B       		.uleb128 0xb
 1436 00eb 49       		.uleb128 0x49
 1437 00ec 13       		.uleb128 0x13
 1438 00ed 02       		.uleb128 0x2
 1439 00ee 17       		.uleb128 0x17
 1440 00ef 00       		.byte	0
 1441 00f0 00       		.byte	0
 1442 00f1 12       		.uleb128 0x12
 1443 00f2 34       		.uleb128 0x34
 1444 00f3 00       		.byte	0
 1445 00f4 03       		.uleb128 0x3
 1446 00f5 08       		.uleb128 0x8
 1447 00f6 3A       		.uleb128 0x3a
 1448 00f7 0B       		.uleb128 0xb
 1449 00f8 3B       		.uleb128 0x3b
 1450 00f9 0B       		.uleb128 0xb
 1451 00fa 49       		.uleb128 0x49
 1452 00fb 13       		.uleb128 0x13
 1453 00fc 02       		.uleb128 0x2
 1454 00fd 17       		.uleb128 0x17
 1455 00fe 00       		.byte	0
 1456 00ff 00       		.byte	0
 1457 0100 13       		.uleb128 0x13
 1458 0101 2E       		.uleb128 0x2e
 1459 0102 01       		.byte	0x1
 1460 0103 3F       		.uleb128 0x3f
 1461 0104 19       		.uleb128 0x19
 1462 0105 03       		.uleb128 0x3
 1463 0106 0E       		.uleb128 0xe
 1464 0107 3A       		.uleb128 0x3a
 1465 0108 0B       		.uleb128 0xb
 1466 0109 3B       		.uleb128 0x3b
 1467 010a 0B       		.uleb128 0xb
 1468 010b 49       		.uleb128 0x49
 1469 010c 13       		.uleb128 0x13
 1470 010d 3C       		.uleb128 0x3c
 1471 010e 19       		.uleb128 0x19
 1472 010f 01       		.uleb128 0x1
 1473 0110 13       		.uleb128 0x13
 1474 0111 00       		.byte	0
 1475 0112 00       		.byte	0
 1476 0113 14       		.uleb128 0x14
 1477 0114 18       		.uleb128 0x18
 1478 0115 00       		.byte	0
 1479 0116 00       		.byte	0
 1480 0117 00       		.byte	0
 1481 0118 15       		.uleb128 0x15
 1482 0119 898201   		.uleb128 0x4109
ARM GAS  /var/folders/m4/4md61f0s1_g0rzfghffqnxvr0000gn/T//ccNSbQRa.s 			page 27


 1483 011c 00       		.byte	0
 1484 011d 11       		.uleb128 0x11
 1485 011e 01       		.uleb128 0x1
 1486 011f 31       		.uleb128 0x31
 1487 0120 13       		.uleb128 0x13
 1488 0121 00       		.byte	0
 1489 0122 00       		.byte	0
 1490 0123 16       		.uleb128 0x16
 1491 0124 0F       		.uleb128 0xf
 1492 0125 00       		.byte	0
 1493 0126 0B       		.uleb128 0xb
 1494 0127 0B       		.uleb128 0xb
 1495 0128 49       		.uleb128 0x49
 1496 0129 13       		.uleb128 0x13
 1497 012a 00       		.byte	0
 1498 012b 00       		.byte	0
 1499 012c 17       		.uleb128 0x17
 1500 012d 05       		.uleb128 0x5
 1501 012e 00       		.byte	0
 1502 012f 03       		.uleb128 0x3
 1503 0130 0E       		.uleb128 0xe
 1504 0131 3A       		.uleb128 0x3a
 1505 0132 0B       		.uleb128 0xb
 1506 0133 3B       		.uleb128 0x3b
 1507 0134 0B       		.uleb128 0xb
 1508 0135 49       		.uleb128 0x49
 1509 0136 13       		.uleb128 0x13
 1510 0137 02       		.uleb128 0x2
 1511 0138 18       		.uleb128 0x18
 1512 0139 00       		.byte	0
 1513 013a 00       		.byte	0
 1514 013b 18       		.uleb128 0x18
 1515 013c 2E       		.uleb128 0x2e
 1516 013d 01       		.byte	0x1
 1517 013e 3F       		.uleb128 0x3f
 1518 013f 19       		.uleb128 0x19
 1519 0140 03       		.uleb128 0x3
 1520 0141 0E       		.uleb128 0xe
 1521 0142 3A       		.uleb128 0x3a
 1522 0143 0B       		.uleb128 0xb
 1523 0144 3B       		.uleb128 0x3b
 1524 0145 0B       		.uleb128 0xb
 1525 0146 27       		.uleb128 0x27
 1526 0147 19       		.uleb128 0x19
 1527 0148 49       		.uleb128 0x49
 1528 0149 13       		.uleb128 0x13
 1529 014a 11       		.uleb128 0x11
 1530 014b 01       		.uleb128 0x1
 1531 014c 12       		.uleb128 0x12
 1532 014d 06       		.uleb128 0x6
 1533 014e 40       		.uleb128 0x40
 1534 014f 18       		.uleb128 0x18
 1535 0150 9742     		.uleb128 0x2117
 1536 0152 19       		.uleb128 0x19
 1537 0153 01       		.uleb128 0x1
 1538 0154 13       		.uleb128 0x13
 1539 0155 00       		.byte	0
ARM GAS  /var/folders/m4/4md61f0s1_g0rzfghffqnxvr0000gn/T//ccNSbQRa.s 			page 28


 1540 0156 00       		.byte	0
 1541 0157 19       		.uleb128 0x19
 1542 0158 34       		.uleb128 0x34
 1543 0159 00       		.byte	0
 1544 015a 03       		.uleb128 0x3
 1545 015b 0E       		.uleb128 0xe
 1546 015c 3A       		.uleb128 0x3a
 1547 015d 0B       		.uleb128 0xb
 1548 015e 3B       		.uleb128 0x3b
 1549 015f 0B       		.uleb128 0xb
 1550 0160 49       		.uleb128 0x49
 1551 0161 13       		.uleb128 0x13
 1552 0162 02       		.uleb128 0x2
 1553 0163 17       		.uleb128 0x17
 1554 0164 00       		.byte	0
 1555 0165 00       		.byte	0
 1556 0166 1A       		.uleb128 0x1a
 1557 0167 898201   		.uleb128 0x4109
 1558 016a 01       		.byte	0x1
 1559 016b 11       		.uleb128 0x11
 1560 016c 01       		.uleb128 0x1
 1561 016d 31       		.uleb128 0x31
 1562 016e 13       		.uleb128 0x13
 1563 016f 01       		.uleb128 0x1
 1564 0170 13       		.uleb128 0x13
 1565 0171 00       		.byte	0
 1566 0172 00       		.byte	0
 1567 0173 1B       		.uleb128 0x1b
 1568 0174 8A8201   		.uleb128 0x410a
 1569 0177 00       		.byte	0
 1570 0178 02       		.uleb128 0x2
 1571 0179 18       		.uleb128 0x18
 1572 017a 9142     		.uleb128 0x2111
 1573 017c 18       		.uleb128 0x18
 1574 017d 00       		.byte	0
 1575 017e 00       		.byte	0
 1576 017f 1C       		.uleb128 0x1c
 1577 0180 898201   		.uleb128 0x4109
 1578 0183 01       		.byte	0x1
 1579 0184 11       		.uleb128 0x11
 1580 0185 01       		.uleb128 0x1
 1581 0186 31       		.uleb128 0x31
 1582 0187 13       		.uleb128 0x13
 1583 0188 00       		.byte	0
 1584 0189 00       		.byte	0
 1585 018a 1D       		.uleb128 0x1d
 1586 018b 2E       		.uleb128 0x2e
 1587 018c 01       		.byte	0x1
 1588 018d 3F       		.uleb128 0x3f
 1589 018e 19       		.uleb128 0x19
 1590 018f 03       		.uleb128 0x3
 1591 0190 0E       		.uleb128 0xe
 1592 0191 3A       		.uleb128 0x3a
 1593 0192 0B       		.uleb128 0xb
 1594 0193 3B       		.uleb128 0x3b
 1595 0194 05       		.uleb128 0x5
 1596 0195 27       		.uleb128 0x27
ARM GAS  /var/folders/m4/4md61f0s1_g0rzfghffqnxvr0000gn/T//ccNSbQRa.s 			page 29


 1597 0196 19       		.uleb128 0x19
 1598 0197 49       		.uleb128 0x49
 1599 0198 13       		.uleb128 0x13
 1600 0199 11       		.uleb128 0x11
 1601 019a 01       		.uleb128 0x1
 1602 019b 12       		.uleb128 0x12
 1603 019c 06       		.uleb128 0x6
 1604 019d 40       		.uleb128 0x40
 1605 019e 18       		.uleb128 0x18
 1606 019f 9742     		.uleb128 0x2117
 1607 01a1 19       		.uleb128 0x19
 1608 01a2 01       		.uleb128 0x1
 1609 01a3 13       		.uleb128 0x13
 1610 01a4 00       		.byte	0
 1611 01a5 00       		.byte	0
 1612 01a6 1E       		.uleb128 0x1e
 1613 01a7 05       		.uleb128 0x5
 1614 01a8 00       		.byte	0
 1615 01a9 03       		.uleb128 0x3
 1616 01aa 0E       		.uleb128 0xe
 1617 01ab 3A       		.uleb128 0x3a
 1618 01ac 0B       		.uleb128 0xb
 1619 01ad 3B       		.uleb128 0x3b
 1620 01ae 05       		.uleb128 0x5
 1621 01af 49       		.uleb128 0x49
 1622 01b0 13       		.uleb128 0x13
 1623 01b1 02       		.uleb128 0x2
 1624 01b2 17       		.uleb128 0x17
 1625 01b3 00       		.byte	0
 1626 01b4 00       		.byte	0
 1627 01b5 1F       		.uleb128 0x1f
 1628 01b6 34       		.uleb128 0x34
 1629 01b7 00       		.byte	0
 1630 01b8 03       		.uleb128 0x3
 1631 01b9 0E       		.uleb128 0xe
 1632 01ba 3A       		.uleb128 0x3a
 1633 01bb 0B       		.uleb128 0xb
 1634 01bc 3B       		.uleb128 0x3b
 1635 01bd 05       		.uleb128 0x5
 1636 01be 49       		.uleb128 0x49
 1637 01bf 13       		.uleb128 0x13
 1638 01c0 02       		.uleb128 0x2
 1639 01c1 17       		.uleb128 0x17
 1640 01c2 00       		.byte	0
 1641 01c3 00       		.byte	0
 1642 01c4 20       		.uleb128 0x20
 1643 01c5 2E       		.uleb128 0x2e
 1644 01c6 01       		.byte	0x1
 1645 01c7 3F       		.uleb128 0x3f
 1646 01c8 19       		.uleb128 0x19
 1647 01c9 03       		.uleb128 0x3
 1648 01ca 0E       		.uleb128 0xe
 1649 01cb 3A       		.uleb128 0x3a
 1650 01cc 0B       		.uleb128 0xb
 1651 01cd 3B       		.uleb128 0x3b
 1652 01ce 05       		.uleb128 0x5
 1653 01cf 27       		.uleb128 0x27
ARM GAS  /var/folders/m4/4md61f0s1_g0rzfghffqnxvr0000gn/T//ccNSbQRa.s 			page 30


 1654 01d0 19       		.uleb128 0x19
 1655 01d1 11       		.uleb128 0x11
 1656 01d2 01       		.uleb128 0x1
 1657 01d3 12       		.uleb128 0x12
 1658 01d4 06       		.uleb128 0x6
 1659 01d5 40       		.uleb128 0x40
 1660 01d6 18       		.uleb128 0x18
 1661 01d7 9742     		.uleb128 0x2117
 1662 01d9 19       		.uleb128 0x19
 1663 01da 01       		.uleb128 0x1
 1664 01db 13       		.uleb128 0x13
 1665 01dc 00       		.byte	0
 1666 01dd 00       		.byte	0
 1667 01de 21       		.uleb128 0x21
 1668 01df 34       		.uleb128 0x34
 1669 01e0 00       		.byte	0
 1670 01e1 03       		.uleb128 0x3
 1671 01e2 0E       		.uleb128 0xe
 1672 01e3 3A       		.uleb128 0x3a
 1673 01e4 0B       		.uleb128 0xb
 1674 01e5 3B       		.uleb128 0x3b
 1675 01e6 05       		.uleb128 0x5
 1676 01e7 49       		.uleb128 0x49
 1677 01e8 13       		.uleb128 0x13
 1678 01e9 3F       		.uleb128 0x3f
 1679 01ea 19       		.uleb128 0x19
 1680 01eb 3C       		.uleb128 0x3c
 1681 01ec 19       		.uleb128 0x19
 1682 01ed 00       		.byte	0
 1683 01ee 00       		.byte	0
 1684 01ef 22       		.uleb128 0x22
 1685 01f0 2E       		.uleb128 0x2e
 1686 01f1 01       		.byte	0x1
 1687 01f2 3F       		.uleb128 0x3f
 1688 01f3 19       		.uleb128 0x19
 1689 01f4 03       		.uleb128 0x3
 1690 01f5 0E       		.uleb128 0xe
 1691 01f6 3A       		.uleb128 0x3a
 1692 01f7 0B       		.uleb128 0xb
 1693 01f8 3B       		.uleb128 0x3b
 1694 01f9 0B       		.uleb128 0xb
 1695 01fa 49       		.uleb128 0x49
 1696 01fb 13       		.uleb128 0x13
 1697 01fc 3C       		.uleb128 0x3c
 1698 01fd 19       		.uleb128 0x19
 1699 01fe 00       		.byte	0
 1700 01ff 00       		.byte	0
 1701 0200 00       		.byte	0
 1702              		.section	.debug_loc,"",%progbits
 1703              	.Ldebug_loc0:
 1704              	.LLST0:
 1705 0000 00000000 		.4byte	.LVL0
 1706 0004 0E000000 		.4byte	.LVL1
 1707 0008 0100     		.2byte	0x1
 1708 000a 50       		.byte	0x50
 1709 000b 0E000000 		.4byte	.LVL1
 1710 000f 7A000000 		.4byte	.LVL8
ARM GAS  /var/folders/m4/4md61f0s1_g0rzfghffqnxvr0000gn/T//ccNSbQRa.s 			page 31


 1711 0013 0100     		.2byte	0x1
 1712 0015 54       		.byte	0x54
 1713 0016 7A000000 		.4byte	.LVL8
 1714 001a 9C000000 		.4byte	.LVL11
 1715 001e 0400     		.2byte	0x4
 1716 0020 F3       		.byte	0xf3
 1717 0021 01       		.uleb128 0x1
 1718 0022 50       		.byte	0x50
 1719 0023 9F       		.byte	0x9f
 1720 0024 9C000000 		.4byte	.LVL11
 1721 0028 B6000000 		.4byte	.LVL14
 1722 002c 0100     		.2byte	0x1
 1723 002e 54       		.byte	0x54
 1724 002f B6000000 		.4byte	.LVL14
 1725 0033 C8000000 		.4byte	.LFE124
 1726 0037 0400     		.2byte	0x4
 1727 0039 F3       		.byte	0xf3
 1728 003a 01       		.uleb128 0x1
 1729 003b 50       		.byte	0x50
 1730 003c 9F       		.byte	0x9f
 1731 003d 00000000 		.4byte	0
 1732 0041 00000000 		.4byte	0
 1733              	.LLST1:
 1734 0045 00000000 		.4byte	.LVL0
 1735 0049 4E000000 		.4byte	.LVL5
 1736 004d 0200     		.2byte	0x2
 1737 004f 30       		.byte	0x30
 1738 0050 9F       		.byte	0x9f
 1739 0051 4E000000 		.4byte	.LVL5
 1740 0055 70000000 		.4byte	.LVL6
 1741 0059 0600     		.2byte	0x6
 1742 005b 0C       		.byte	0xc
 1743 005c 003C0140 		.4byte	0x40013c00
 1744 0060 9F       		.byte	0x9f
 1745 0061 70000000 		.4byte	.LVL6
 1746 0065 76000000 		.4byte	.LVL7
 1747 0069 0E00     		.2byte	0xe
 1748 006b 74       		.byte	0x74
 1749 006c 04       		.sleb128 4
 1750 006d 94       		.byte	0x94
 1751 006e 01       		.byte	0x1
 1752 006f 08       		.byte	0x8
 1753 0070 FF       		.byte	0xff
 1754 0071 1A       		.byte	0x1a
 1755 0072 23       		.byte	0x23
 1756 0073 80F88480 		.uleb128 0x40013c00
 1756      04
 1757 0078 9F       		.byte	0x9f
 1758 0079 8C000000 		.4byte	.LVL9
 1759 007d 96000000 		.4byte	.LVL10
 1760 0081 0C00     		.2byte	0xc
 1761 0083 71       		.byte	0x71
 1762 0084 00       		.sleb128 0
 1763 0085 08       		.byte	0x8
 1764 0086 FF       		.byte	0xff
 1765 0087 1A       		.byte	0x1a
 1766 0088 23       		.byte	0x23
ARM GAS  /var/folders/m4/4md61f0s1_g0rzfghffqnxvr0000gn/T//ccNSbQRa.s 			page 32


 1767 0089 80F88480 		.uleb128 0x40013c00
 1767      04
 1768 008e 9F       		.byte	0x9f
 1769 008f 96000000 		.4byte	.LVL10
 1770 0093 9C000000 		.4byte	.LVL11
 1771 0097 1000     		.2byte	0x10
 1772 0099 73       		.byte	0x73
 1773 009a 8088FBFF 		.sleb128 -1073822720
 1773      7B
 1774 009f 08       		.byte	0x8
 1775 00a0 FF       		.byte	0xff
 1776 00a1 1A       		.byte	0x1a
 1777 00a2 23       		.byte	0x23
 1778 00a3 80F88480 		.uleb128 0x40013c00
 1778      04
 1779 00a8 9F       		.byte	0x9f
 1780 00a9 9C000000 		.4byte	.LVL11
 1781 00ad A0000000 		.4byte	.LVL12
 1782 00b1 0200     		.2byte	0x2
 1783 00b3 30       		.byte	0x30
 1784 00b4 9F       		.byte	0x9f
 1785 00b5 A0000000 		.4byte	.LVL12
 1786 00b9 B4000000 		.4byte	.LVL13
 1787 00bd 0E00     		.2byte	0xe
 1788 00bf 74       		.byte	0x74
 1789 00c0 04       		.sleb128 4
 1790 00c1 94       		.byte	0x94
 1791 00c2 01       		.byte	0x1
 1792 00c3 08       		.byte	0x8
 1793 00c4 FF       		.byte	0xff
 1794 00c5 1A       		.byte	0x1a
 1795 00c6 23       		.byte	0x23
 1796 00c7 80F88480 		.uleb128 0x40013c00
 1796      04
 1797 00cc 9F       		.byte	0x9f
 1798 00cd B4000000 		.4byte	.LVL13
 1799 00d1 B6000000 		.4byte	.LVL14
 1800 00d5 1000     		.2byte	0x10
 1801 00d7 73       		.byte	0x73
 1802 00d8 8088FBFF 		.sleb128 -1073822720
 1802      7B
 1803 00dd 08       		.byte	0x8
 1804 00de FF       		.byte	0xff
 1805 00df 1A       		.byte	0x1a
 1806 00e0 23       		.byte	0x23
 1807 00e1 80F88480 		.uleb128 0x40013c00
 1807      04
 1808 00e6 9F       		.byte	0x9f
 1809 00e7 00000000 		.4byte	0
 1810 00eb 00000000 		.4byte	0
 1811              	.LLST2:
 1812 00ef 00000000 		.4byte	.LVL16
 1813 00f3 0C000000 		.4byte	.LVL17
 1814 00f7 0100     		.2byte	0x1
 1815 00f9 50       		.byte	0x50
 1816 00fa 0C000000 		.4byte	.LVL17
 1817 00fe 1E000000 		.4byte	.LVL19
ARM GAS  /var/folders/m4/4md61f0s1_g0rzfghffqnxvr0000gn/T//ccNSbQRa.s 			page 33


 1818 0102 0100     		.2byte	0x1
 1819 0104 54       		.byte	0x54
 1820 0105 1E000000 		.4byte	.LVL19
 1821 0109 20000000 		.4byte	.LVL20
 1822 010d 0100     		.2byte	0x1
 1823 010f 50       		.byte	0x50
 1824 0110 20000000 		.4byte	.LVL20
 1825 0114 28000000 		.4byte	.LFE126
 1826 0118 0100     		.2byte	0x1
 1827 011a 54       		.byte	0x54
 1828 011b 00000000 		.4byte	0
 1829 011f 00000000 		.4byte	0
 1830              	.LLST3:
 1831 0123 00000000 		.4byte	.LVL21
 1832 0127 82000000 		.4byte	.LVL22
 1833 012b 0100     		.2byte	0x1
 1834 012d 50       		.byte	0x50
 1835 012e 82000000 		.4byte	.LVL22
 1836 0132 86000000 		.4byte	.LVL23
 1837 0136 0100     		.2byte	0x1
 1838 0138 54       		.byte	0x54
 1839 0139 86000000 		.4byte	.LVL23
 1840 013d 88000000 		.4byte	.LVL24
 1841 0141 0100     		.2byte	0x1
 1842 0143 50       		.byte	0x50
 1843 0144 88000000 		.4byte	.LVL24
 1844 0148 9A000000 		.4byte	.LVL27
 1845 014c 0100     		.2byte	0x1
 1846 014e 54       		.byte	0x54
 1847 014f 9A000000 		.4byte	.LVL27
 1848 0153 A0000000 		.4byte	.LFE127
 1849 0157 0400     		.2byte	0x4
 1850 0159 F3       		.byte	0xf3
 1851 015a 01       		.uleb128 0x1
 1852 015b 50       		.byte	0x50
 1853 015c 9F       		.byte	0x9f
 1854 015d 00000000 		.4byte	0
 1855 0161 00000000 		.4byte	0
 1856              	.LLST4:
 1857 0165 00000000 		.4byte	.LVL21
 1858 0169 90000000 		.4byte	.LVL26
 1859 016d 0200     		.2byte	0x2
 1860 016f 30       		.byte	0x30
 1861 0170 9F       		.byte	0x9f
 1862 0171 90000000 		.4byte	.LVL26
 1863 0175 9A000000 		.4byte	.LVL27
 1864 0179 0800     		.2byte	0x8
 1865 017b 74       		.byte	0x74
 1866 017c 00       		.sleb128 0
 1867 017d 73       		.byte	0x73
 1868 017e 00       		.sleb128 0
 1869 017f 1A       		.byte	0x1a
 1870 0180 30       		.byte	0x30
 1871 0181 2E       		.byte	0x2e
 1872 0182 9F       		.byte	0x9f
 1873 0183 9A000000 		.4byte	.LVL27
 1874 0187 A0000000 		.4byte	.LFE127
ARM GAS  /var/folders/m4/4md61f0s1_g0rzfghffqnxvr0000gn/T//ccNSbQRa.s 			page 34


 1875 018b 0900     		.2byte	0x9
 1876 018d F3       		.byte	0xf3
 1877 018e 01       		.uleb128 0x1
 1878 018f 50       		.byte	0x50
 1879 0190 73       		.byte	0x73
 1880 0191 00       		.sleb128 0
 1881 0192 1A       		.byte	0x1a
 1882 0193 30       		.byte	0x30
 1883 0194 2E       		.byte	0x2e
 1884 0195 9F       		.byte	0x9f
 1885 0196 00000000 		.4byte	0
 1886 019a 00000000 		.4byte	0
 1887              	.LLST5:
 1888 019e 00000000 		.4byte	.LVL28
 1889 01a2 0C000000 		.4byte	.LVL29
 1890 01a6 0100     		.2byte	0x1
 1891 01a8 50       		.byte	0x50
 1892 01a9 0C000000 		.4byte	.LVL29
 1893 01ad 1A000000 		.4byte	.LVL31
 1894 01b1 0100     		.2byte	0x1
 1895 01b3 54       		.byte	0x54
 1896 01b4 1A000000 		.4byte	.LVL31
 1897 01b8 1C000000 		.4byte	.LVL32
 1898 01bc 0100     		.2byte	0x1
 1899 01be 50       		.byte	0x50
 1900 01bf 1C000000 		.4byte	.LVL32
 1901 01c3 26000000 		.4byte	.LVL34
 1902 01c7 0100     		.2byte	0x1
 1903 01c9 54       		.byte	0x54
 1904 01ca 26000000 		.4byte	.LVL34
 1905 01ce 2C000000 		.4byte	.LFE128
 1906 01d2 0200     		.2byte	0x2
 1907 01d4 73       		.byte	0x73
 1908 01d5 14       		.sleb128 20
 1909 01d6 00000000 		.4byte	0
 1910 01da 00000000 		.4byte	0
 1911              	.LLST6:
 1912 01de 00000000 		.4byte	.LVL35
 1913 01e2 82000000 		.4byte	.LVL36
 1914 01e6 0100     		.2byte	0x1
 1915 01e8 50       		.byte	0x50
 1916 01e9 82000000 		.4byte	.LVL36
 1917 01ed 86000000 		.4byte	.LVL37
 1918 01f1 0100     		.2byte	0x1
 1919 01f3 54       		.byte	0x54
 1920 01f4 86000000 		.4byte	.LVL37
 1921 01f8 88000000 		.4byte	.LVL38
 1922 01fc 0100     		.2byte	0x1
 1923 01fe 50       		.byte	0x50
 1924 01ff 88000000 		.4byte	.LVL38
 1925 0203 9A000000 		.4byte	.LVL41
 1926 0207 0100     		.2byte	0x1
 1927 0209 54       		.byte	0x54
 1928 020a 9A000000 		.4byte	.LVL41
 1929 020e A0000000 		.4byte	.LFE129
 1930 0212 0400     		.2byte	0x4
 1931 0214 F3       		.byte	0xf3
ARM GAS  /var/folders/m4/4md61f0s1_g0rzfghffqnxvr0000gn/T//ccNSbQRa.s 			page 35


 1932 0215 01       		.uleb128 0x1
 1933 0216 50       		.byte	0x50
 1934 0217 9F       		.byte	0x9f
 1935 0218 00000000 		.4byte	0
 1936 021c 00000000 		.4byte	0
 1937              	.LLST7:
 1938 0220 00000000 		.4byte	.LVL35
 1939 0224 90000000 		.4byte	.LVL40
 1940 0228 0200     		.2byte	0x2
 1941 022a 30       		.byte	0x30
 1942 022b 9F       		.byte	0x9f
 1943 022c 90000000 		.4byte	.LVL40
 1944 0230 9A000000 		.4byte	.LVL41
 1945 0234 0800     		.2byte	0x8
 1946 0236 74       		.byte	0x74
 1947 0237 00       		.sleb128 0
 1948 0238 73       		.byte	0x73
 1949 0239 00       		.sleb128 0
 1950 023a 1A       		.byte	0x1a
 1951 023b 30       		.byte	0x30
 1952 023c 2E       		.byte	0x2e
 1953 023d 9F       		.byte	0x9f
 1954 023e 9A000000 		.4byte	.LVL41
 1955 0242 A0000000 		.4byte	.LFE129
 1956 0246 0900     		.2byte	0x9
 1957 0248 F3       		.byte	0xf3
 1958 0249 01       		.uleb128 0x1
 1959 024a 50       		.byte	0x50
 1960 024b 73       		.byte	0x73
 1961 024c 00       		.sleb128 0
 1962 024d 1A       		.byte	0x1a
 1963 024e 30       		.byte	0x30
 1964 024f 2E       		.byte	0x2e
 1965 0250 9F       		.byte	0x9f
 1966 0251 00000000 		.4byte	0
 1967 0255 00000000 		.4byte	0
 1968              	.LLST8:
 1969 0259 00000000 		.4byte	.LVL42
 1970 025d 0C000000 		.4byte	.LVL43
 1971 0261 0100     		.2byte	0x1
 1972 0263 50       		.byte	0x50
 1973 0264 0C000000 		.4byte	.LVL43
 1974 0268 1A000000 		.4byte	.LVL45
 1975 026c 0100     		.2byte	0x1
 1976 026e 54       		.byte	0x54
 1977 026f 1A000000 		.4byte	.LVL45
 1978 0273 1C000000 		.4byte	.LVL46
 1979 0277 0100     		.2byte	0x1
 1980 0279 50       		.byte	0x50
 1981 027a 1C000000 		.4byte	.LVL46
 1982 027e 26000000 		.4byte	.LVL48
 1983 0282 0100     		.2byte	0x1
 1984 0284 54       		.byte	0x54
 1985 0285 26000000 		.4byte	.LVL48
 1986 0289 2C000000 		.4byte	.LFE130
 1987 028d 0200     		.2byte	0x2
 1988 028f 73       		.byte	0x73
ARM GAS  /var/folders/m4/4md61f0s1_g0rzfghffqnxvr0000gn/T//ccNSbQRa.s 			page 36


 1989 0290 14       		.sleb128 20
 1990 0291 00000000 		.4byte	0
 1991 0295 00000000 		.4byte	0
 1992              		.section	.debug_aranges,"",%progbits
 1993 0000 54000000 		.4byte	0x54
 1994 0004 0200     		.2byte	0x2
 1995 0006 00000000 		.4byte	.Ldebug_info0
 1996 000a 04       		.byte	0x4
 1997 000b 00       		.byte	0
 1998 000c 0000     		.2byte	0
 1999 000e 0000     		.2byte	0
 2000 0010 00000000 		.4byte	.LFB123
 2001 0014 1C000000 		.4byte	.LFE123-.LFB123
 2002 0018 00000000 		.4byte	.LFB124
 2003 001c C8000000 		.4byte	.LFE124-.LFB124
 2004 0020 00000000 		.4byte	.LFB125
 2005 0024 0E000000 		.4byte	.LFE125-.LFB125
 2006 0028 00000000 		.4byte	.LFB126
 2007 002c 28000000 		.4byte	.LFE126-.LFB126
 2008 0030 00000000 		.4byte	.LFB127
 2009 0034 A0000000 		.4byte	.LFE127-.LFB127
 2010 0038 00000000 		.4byte	.LFB128
 2011 003c 2C000000 		.4byte	.LFE128-.LFB128
 2012 0040 00000000 		.4byte	.LFB129
 2013 0044 A0000000 		.4byte	.LFE129-.LFB129
 2014 0048 00000000 		.4byte	.LFB130
 2015 004c 2C000000 		.4byte	.LFE130-.LFB130
 2016 0050 00000000 		.4byte	0
 2017 0054 00000000 		.4byte	0
 2018              		.section	.debug_ranges,"",%progbits
 2019              	.Ldebug_ranges0:
 2020 0000 00000000 		.4byte	.LFB123
 2021 0004 1C000000 		.4byte	.LFE123
 2022 0008 00000000 		.4byte	.LFB124
 2023 000c C8000000 		.4byte	.LFE124
 2024 0010 00000000 		.4byte	.LFB125
 2025 0014 0E000000 		.4byte	.LFE125
 2026 0018 00000000 		.4byte	.LFB126
 2027 001c 28000000 		.4byte	.LFE126
 2028 0020 00000000 		.4byte	.LFB127
 2029 0024 A0000000 		.4byte	.LFE127
 2030 0028 00000000 		.4byte	.LFB128
 2031 002c 2C000000 		.4byte	.LFE128
 2032 0030 00000000 		.4byte	.LFB129
 2033 0034 A0000000 		.4byte	.LFE129
 2034 0038 00000000 		.4byte	.LFB130
 2035 003c 2C000000 		.4byte	.LFE130
 2036 0040 00000000 		.4byte	0
 2037 0044 00000000 		.4byte	0
 2038              		.section	.debug_line,"",%progbits
 2039              	.Ldebug_line0:
 2040 0000 D6030000 		.section	.debug_str,"MS",%progbits,1
 2040      0200C101 
 2040      00000201 
 2040      FB0E0D00 
 2040      01010101 
 2041              	.LASF33:
ARM GAS  /var/folders/m4/4md61f0s1_g0rzfghffqnxvr0000gn/T//ccNSbQRa.s 			page 37


 2042 0000 45585449 		.ascii	"EXTI_Line\000"
 2042      5F4C696E 
 2042      6500
 2043              	.LASF42:
 2044 000a 61737365 		.ascii	"assert_param\000"
 2044      72745F70 
 2044      6172616D 
 2044      00
 2045              	.LASF22:
 2046 0017 49545374 		.ascii	"ITStatus\000"
 2046      61747573 
 2046      00
 2047              	.LASF36:
 2048 0020 45585449 		.ascii	"EXTI_LineCmd\000"
 2048      5F4C696E 
 2048      65436D64 
 2048      00
 2049              	.LASF35:
 2050 002d 45585449 		.ascii	"EXTI_Trigger\000"
 2050      5F547269 
 2050      67676572 
 2050      00
 2051              	.LASF5:
 2052 003a 5F5F696E 		.ascii	"__int32_t\000"
 2052      7433325F 
 2052      7400
 2053              	.LASF39:
 2054 0044 45585449 		.ascii	"EXTI_StructInit\000"
 2054      5F537472 
 2054      75637449 
 2054      6E697400 
 2055              	.LASF27:
 2056 0054 45585449 		.ascii	"EXTI_Mode_Event\000"
 2056      5F4D6F64 
 2056      655F4576 
 2056      656E7400 
 2057              	.LASF3:
 2058 0064 73686F72 		.ascii	"short unsigned int\000"
 2058      7420756E 
 2058      7369676E 
 2058      65642069 
 2058      6E7400
 2059              	.LASF25:
 2060 0077 46756E63 		.ascii	"FunctionalState\000"
 2060      74696F6E 
 2060      616C5374 
 2060      61746500 
 2061              	.LASF43:
 2062 0087 62697473 		.ascii	"bitstatus\000"
 2062      74617475 
 2062      7300
 2063              	.LASF41:
 2064 0091 45585449 		.ascii	"EXTI_GenerateSWInterrupt\000"
 2064      5F47656E 
 2064      65726174 
 2064      65535749 
 2064      6E746572 
ARM GAS  /var/folders/m4/4md61f0s1_g0rzfghffqnxvr0000gn/T//ccNSbQRa.s 			page 38


 2065              	.LASF37:
 2066 00aa 45585449 		.ascii	"EXTI_InitTypeDef\000"
 2066      5F496E69 
 2066      74547970 
 2066      65446566 
 2066      00
 2067              	.LASF40:
 2068 00bb 45585449 		.ascii	"EXTI_InitStruct\000"
 2068      5F496E69 
 2068      74537472 
 2068      75637400 
 2069              	.LASF24:
 2070 00cb 454E4142 		.ascii	"ENABLE\000"
 2070      4C4500
 2071              	.LASF26:
 2072 00d2 45585449 		.ascii	"EXTI_Mode_Interrupt\000"
 2072      5F4D6F64 
 2072      655F496E 
 2072      74657272 
 2072      75707400 
 2073              	.LASF1:
 2074 00e6 756E7369 		.ascii	"unsigned char\000"
 2074      676E6564 
 2074      20636861 
 2074      7200
 2075              	.LASF21:
 2076 00f4 466C6167 		.ascii	"FlagStatus\000"
 2076      53746174 
 2076      757300
 2077              	.LASF44:
 2078 00ff 45585449 		.ascii	"EXTI_ClearFlag\000"
 2078      5F436C65 
 2078      6172466C 
 2078      616700
 2079              	.LASF8:
 2080 010e 6C6F6E67 		.ascii	"long unsigned int\000"
 2080      20756E73 
 2080      69676E65 
 2080      6420696E 
 2080      7400
 2081              	.LASF20:
 2082 0120 52455345 		.ascii	"RESET\000"
 2082      5400
 2083              	.LASF28:
 2084 0126 45585449 		.ascii	"EXTIMode_TypeDef\000"
 2084      4D6F6465 
 2084      5F547970 
 2084      65446566 
 2084      00
 2085              	.LASF19:
 2086 0137 45585449 		.ascii	"EXTI_TypeDef\000"
 2086      5F547970 
 2086      65446566 
 2086      00
 2087              	.LASF52:
 2088 0144 49544D5F 		.ascii	"ITM_RxBuffer\000"
 2088      52784275 
ARM GAS  /var/folders/m4/4md61f0s1_g0rzfghffqnxvr0000gn/T//ccNSbQRa.s 			page 39


 2088      66666572 
 2088      00
 2089              	.LASF16:
 2090 0151 52545352 		.ascii	"RTSR\000"
 2090      00
 2091              	.LASF4:
 2092 0156 5F5F7569 		.ascii	"__uint16_t\000"
 2092      6E743136 
 2092      5F7400
 2093              	.LASF7:
 2094 0161 5F5F7569 		.ascii	"__uint32_t\000"
 2094      6E743332 
 2094      5F7400
 2095              	.LASF29:
 2096 016c 45585449 		.ascii	"EXTI_Trigger_Rising\000"
 2096      5F547269 
 2096      67676572 
 2096      5F526973 
 2096      696E6700 
 2097              	.LASF31:
 2098 0180 45585449 		.ascii	"EXTI_Trigger_Rising_Falling\000"
 2098      5F547269 
 2098      67676572 
 2098      5F526973 
 2098      696E675F 
 2099              	.LASF11:
 2100 019c 756E7369 		.ascii	"unsigned int\000"
 2100      676E6564 
 2100      20696E74 
 2100      00
 2101              	.LASF38:
 2102 01a9 45585449 		.ascii	"EXTI_Init\000"
 2102      5F496E69 
 2102      7400
 2103              	.LASF45:
 2104 01b3 45585449 		.ascii	"EXTI_GetFlagStatus\000"
 2104      5F476574 
 2104      466C6167 
 2104      53746174 
 2104      757300
 2105              	.LASF10:
 2106 01c6 6C6F6E67 		.ascii	"long long unsigned int\000"
 2106      206C6F6E 
 2106      6720756E 
 2106      7369676E 
 2106      65642069 
 2107              	.LASF0:
 2108 01dd 7369676E 		.ascii	"signed char\000"
 2108      65642063 
 2108      68617200 
 2109              	.LASF30:
 2110 01e9 45585449 		.ascii	"EXTI_Trigger_Falling\000"
 2110      5F547269 
 2110      67676572 
 2110      5F46616C 
 2110      6C696E67 
 2111              	.LASF13:
ARM GAS  /var/folders/m4/4md61f0s1_g0rzfghffqnxvr0000gn/T//ccNSbQRa.s 			page 40


 2112 01fe 696E7433 		.ascii	"int32_t\000"
 2112      325F7400 
 2113              	.LASF15:
 2114 0206 73697A65 		.ascii	"sizetype\000"
 2114      74797065 
 2114      00
 2115              	.LASF47:
 2116 020f 45585449 		.ascii	"EXTI_ClearITPendingBit\000"
 2116      5F436C65 
 2116      61724954 
 2116      50656E64 
 2116      696E6742 
 2117              	.LASF9:
 2118 0226 6C6F6E67 		.ascii	"long long int\000"
 2118      206C6F6E 
 2118      6720696E 
 2118      7400
 2119              	.LASF46:
 2120 0234 45585449 		.ascii	"EXTI_GetITStatus\000"
 2120      5F476574 
 2120      49545374 
 2120      61747573 
 2120      00
 2121              	.LASF49:
 2122 0245 43686962 		.ascii	"ChibiOS_16.1.4/ext/stdperiph_stm32f4/src/stm32f4xx_"
 2122      694F535F 
 2122      31362E31 
 2122      2E342F65 
 2122      78742F73 
 2123 0278 65787469 		.ascii	"exti.c\000"
 2123      2E6300
 2124              	.LASF2:
 2125 027f 73686F72 		.ascii	"short int\000"
 2125      7420696E 
 2125      7400
 2126              	.LASF50:
 2127 0289 2F557365 		.ascii	"/Users/raphael/Documents/pcb-quadrotor/code\000"
 2127      72732F72 
 2127      61706861 
 2127      656C2F44 
 2127      6F63756D 
 2128              	.LASF12:
 2129 02b5 75696E74 		.ascii	"uint16_t\000"
 2129      31365F74 
 2129      00
 2130              	.LASF48:
 2131 02be 474E5520 		.ascii	"GNU C 4.9.3 20150529 (release) [ARM/embedded-4_9-br"
 2131      4320342E 
 2131      392E3320 
 2131      32303135 
 2131      30353239 
 2132 02f1 616E6368 		.ascii	"anch revision 224288] -mcpu=cortex-m4 -mfloat-abi=h"
 2132      20726576 
 2132      6973696F 
 2132      6E203232 
 2132      34323838 
 2133 0324 61726420 		.ascii	"ard -mfpu=fpv4-sp-d16 -mno-thumb-interwork -mthumb "
ARM GAS  /var/folders/m4/4md61f0s1_g0rzfghffqnxvr0000gn/T//ccNSbQRa.s 			page 41


 2133      2D6D6670 
 2133      753D6670 
 2133      76342D73 
 2133      702D6431 
 2134 0357 2D676764 		.ascii	"-ggdb -O2 -std=gnu99 -fomit-frame-pointer -falign-f"
 2134      62202D4F 
 2134      32202D73 
 2134      74643D67 
 2134      6E753939 
 2135 038a 756E6374 		.ascii	"unctions=16 -ffunction-sections -fdata-sections -fn"
 2135      696F6E73 
 2135      3D313620 
 2135      2D666675 
 2135      6E637469 
 2136 03bd 6F2D636F 		.ascii	"o-common -fsingle-precision-constant\000"
 2136      6D6D6F6E 
 2136      202D6673 
 2136      696E676C 
 2136      652D7072 
 2137              	.LASF34:
 2138 03e2 45585449 		.ascii	"EXTI_Mode\000"
 2138      5F4D6F64 
 2138      6500
 2139              	.LASF14:
 2140 03ec 75696E74 		.ascii	"uint32_t\000"
 2140      33325F74 
 2140      00
 2141              	.LASF6:
 2142 03f5 6C6F6E67 		.ascii	"long int\000"
 2142      20696E74 
 2142      00
 2143              	.LASF23:
 2144 03fe 44495341 		.ascii	"DISABLE\000"
 2144      424C4500 
 2145              	.LASF32:
 2146 0406 45585449 		.ascii	"EXTITrigger_TypeDef\000"
 2146      54726967 
 2146      6765725F 
 2146      54797065 
 2146      44656600 
 2147              	.LASF18:
 2148 041a 53574945 		.ascii	"SWIER\000"
 2148      5200
 2149              	.LASF51:
 2150 0420 45585449 		.ascii	"EXTI_DeInit\000"
 2150      5F446549 
 2150      6E697400 
 2151              	.LASF17:
 2152 042c 46545352 		.ascii	"FTSR\000"
 2152      00
 2153              		.ident	"GCC: (GNU Tools for ARM Embedded Processors) 4.9.3 20150529 (release) [ARM/embedded-4_9-br
ARM GAS  /var/folders/m4/4md61f0s1_g0rzfghffqnxvr0000gn/T//ccNSbQRa.s 			page 42


DEFINED SYMBOLS
                            *ABS*:0000000000000000 stm32f4xx_exti.c
/var/folders/m4/4md61f0s1_g0rzfghffqnxvr0000gn/T//ccNSbQRa.s:21     .text.EXTI_DeInit:0000000000000000 $t
/var/folders/m4/4md61f0s1_g0rzfghffqnxvr0000gn/T//ccNSbQRa.s:27     .text.EXTI_DeInit:0000000000000000 EXTI_DeInit
/var/folders/m4/4md61f0s1_g0rzfghffqnxvr0000gn/T//ccNSbQRa.s:54     .text.EXTI_DeInit:0000000000000014 $d
/var/folders/m4/4md61f0s1_g0rzfghffqnxvr0000gn/T//ccNSbQRa.s:60     .text.EXTI_Init:0000000000000000 $t
/var/folders/m4/4md61f0s1_g0rzfghffqnxvr0000gn/T//ccNSbQRa.s:66     .text.EXTI_Init:0000000000000000 EXTI_Init
/var/folders/m4/4md61f0s1_g0rzfghffqnxvr0000gn/T//ccNSbQRa.s:215    .text.EXTI_Init:00000000000000c4 $d
/var/folders/m4/4md61f0s1_g0rzfghffqnxvr0000gn/T//ccNSbQRa.s:220    .text.EXTI_StructInit:0000000000000000 $t
/var/folders/m4/4md61f0s1_g0rzfghffqnxvr0000gn/T//ccNSbQRa.s:226    .text.EXTI_StructInit:0000000000000000 EXTI_StructInit
/var/folders/m4/4md61f0s1_g0rzfghffqnxvr0000gn/T//ccNSbQRa.s:250    .text.EXTI_GenerateSWInterrupt:0000000000000000 $t
/var/folders/m4/4md61f0s1_g0rzfghffqnxvr0000gn/T//ccNSbQRa.s:256    .text.EXTI_GenerateSWInterrupt:0000000000000000 EXTI_GenerateSWInterrupt
/var/folders/m4/4md61f0s1_g0rzfghffqnxvr0000gn/T//ccNSbQRa.s:299    .text.EXTI_GenerateSWInterrupt:0000000000000024 $d
/var/folders/m4/4md61f0s1_g0rzfghffqnxvr0000gn/T//ccNSbQRa.s:304    .text.EXTI_GetFlagStatus:0000000000000000 $t
/var/folders/m4/4md61f0s1_g0rzfghffqnxvr0000gn/T//ccNSbQRa.s:310    .text.EXTI_GetFlagStatus:0000000000000000 EXTI_GetFlagStatus
/var/folders/m4/4md61f0s1_g0rzfghffqnxvr0000gn/T//ccNSbQRa.s:421    .text.EXTI_GetFlagStatus:000000000000009c $d
/var/folders/m4/4md61f0s1_g0rzfghffqnxvr0000gn/T//ccNSbQRa.s:426    .text.EXTI_ClearFlag:0000000000000000 $t
/var/folders/m4/4md61f0s1_g0rzfghffqnxvr0000gn/T//ccNSbQRa.s:432    .text.EXTI_ClearFlag:0000000000000000 EXTI_ClearFlag
/var/folders/m4/4md61f0s1_g0rzfghffqnxvr0000gn/T//ccNSbQRa.s:477    .text.EXTI_ClearFlag:0000000000000028 $d
/var/folders/m4/4md61f0s1_g0rzfghffqnxvr0000gn/T//ccNSbQRa.s:482    .text.EXTI_GetITStatus:0000000000000000 $t
/var/folders/m4/4md61f0s1_g0rzfghffqnxvr0000gn/T//ccNSbQRa.s:488    .text.EXTI_GetITStatus:0000000000000000 EXTI_GetITStatus
/var/folders/m4/4md61f0s1_g0rzfghffqnxvr0000gn/T//ccNSbQRa.s:599    .text.EXTI_GetITStatus:000000000000009c $d
/var/folders/m4/4md61f0s1_g0rzfghffqnxvr0000gn/T//ccNSbQRa.s:604    .text.EXTI_ClearITPendingBit:0000000000000000 $t
/var/folders/m4/4md61f0s1_g0rzfghffqnxvr0000gn/T//ccNSbQRa.s:610    .text.EXTI_ClearITPendingBit:0000000000000000 EXTI_ClearITPendingBit
/var/folders/m4/4md61f0s1_g0rzfghffqnxvr0000gn/T//ccNSbQRa.s:655    .text.EXTI_ClearITPendingBit:0000000000000028 $d
                     .debug_frame:0000000000000010 $d

UNDEFINED SYMBOLS
assert_param
