ARM GAS  /var/folders/m4/4md61f0s1_g0rzfghffqnxvr0000gn/T//ccERMEff.s 			page 1


   1              		.syntax unified
   2              		.cpu cortex-m4
   3              		.eabi_attribute 27, 1
   4              		.eabi_attribute 28, 1
   5              		.fpu fpv4-sp-d16
   6              		.eabi_attribute 20, 1
   7              		.eabi_attribute 21, 1
   8              		.eabi_attribute 23, 3
   9              		.eabi_attribute 24, 1
  10              		.eabi_attribute 25, 1
  11              		.eabi_attribute 26, 1
  12              		.eabi_attribute 30, 2
  13              		.eabi_attribute 34, 1
  14              		.eabi_attribute 18, 4
  15              		.thumb
  16              		.syntax unified
  17              		.file	"stm32f4xx_syscfg.c"
  18              		.text
  19              	.Ltext0:
  20              		.cfi_sections	.debug_frame
  21              		.section	.text.SYSCFG_DeInit,"ax",%progbits
  22              		.align	2
  23              		.p2align 4,,15
  24              		.global	SYSCFG_DeInit
  25              		.thumb
  26              		.thumb_func
  27              		.type	SYSCFG_DeInit, %function
  28              	SYSCFG_DeInit:
  29              	.LFB123:
  30              		.file 1 "ChibiOS_16.1.4/ext/stdperiph_stm32f4/src/stm32f4xx_syscfg.c"
  31              		.loc 1 100 0
  32              		.cfi_startproc
  33              		@ args = 0, pretend = 0, frame = 0
  34              		@ frame_needed = 0, uses_anonymous_args = 0
  35 0000 08B5     		push	{r3, lr}
  36              		.cfi_def_cfa_offset 8
  37              		.cfi_offset 3, -8
  38              		.cfi_offset 14, -4
  39              		.loc 1 101 0
  40 0002 0121     		movs	r1, #1
  41 0004 4FF48040 		mov	r0, #16384
  42 0008 FFF7FEFF 		bl	RCC_APB2PeriphResetCmd
  43              	.LVL0:
  44              		.loc 1 102 0
  45 000c 0021     		movs	r1, #0
  46 000e 4FF48040 		mov	r0, #16384
  47              		.loc 1 103 0
  48 0012 BDE80840 		pop	{r3, lr}
  49              		.cfi_restore 14
  50              		.cfi_restore 3
  51              		.cfi_def_cfa_offset 0
  52              		.loc 1 102 0
  53 0016 FFF7FEBF 		b	RCC_APB2PeriphResetCmd
  54              	.LVL1:
  55              		.cfi_endproc
  56              	.LFE123:
  57              		.size	SYSCFG_DeInit, .-SYSCFG_DeInit
ARM GAS  /var/folders/m4/4md61f0s1_g0rzfghffqnxvr0000gn/T//ccERMEff.s 			page 2


  58 001a 00BF     		.section	.text.SYSCFG_MemoryRemapConfig,"ax",%progbits
  59              		.align	2
  60              		.p2align 4,,15
  61              		.global	SYSCFG_MemoryRemapConfig
  62              		.thumb
  63              		.thumb_func
  64              		.type	SYSCFG_MemoryRemapConfig, %function
  65              	SYSCFG_MemoryRemapConfig:
  66              	.LFB124:
  67              		.loc 1 119 0
  68              		.cfi_startproc
  69              		@ args = 0, pretend = 0, frame = 0
  70              		@ frame_needed = 0, uses_anonymous_args = 0
  71              	.LVL2:
  72 0000 10B5     		push	{r4, lr}
  73              		.cfi_def_cfa_offset 8
  74              		.cfi_offset 4, -8
  75              		.cfi_offset 14, -4
  76              		.loc 1 121 0
  77 0002 0428     		cmp	r0, #4
  78              		.loc 1 119 0
  79 0004 0446     		mov	r4, r0
  80              		.loc 1 121 0
  81 0006 8CBF     		ite	hi
  82 0008 0020     		movhi	r0, #0
  83              	.LVL3:
  84 000a 0120     		movls	r0, #1
  85 000c FFF7FEFF 		bl	assert_param
  86              	.LVL4:
  87              		.loc 1 123 0
  88 0010 014B     		ldr	r3, .L5
  89 0012 1C60     		str	r4, [r3]
  90 0014 10BD     		pop	{r4, pc}
  91              	.L6:
  92 0016 00BF     		.align	2
  93              	.L5:
  94 0018 00380140 		.word	1073821696
  95              		.cfi_endproc
  96              	.LFE124:
  97              		.size	SYSCFG_MemoryRemapConfig, .-SYSCFG_MemoryRemapConfig
  98              		.section	.text.SYSCFG_MemorySwappingBank,"ax",%progbits
  99              		.align	2
 100              		.p2align 4,,15
 101              		.global	SYSCFG_MemorySwappingBank
 102              		.thumb
 103              		.thumb_func
 104              		.type	SYSCFG_MemorySwappingBank, %function
 105              	SYSCFG_MemorySwappingBank:
 106              	.LFB125:
 107              		.loc 1 140 0
 108              		.cfi_startproc
 109              		@ args = 0, pretend = 0, frame = 0
 110              		@ frame_needed = 0, uses_anonymous_args = 0
 111              	.LVL5:
 112 0000 10B5     		push	{r4, lr}
 113              		.cfi_def_cfa_offset 8
 114              		.cfi_offset 4, -8
ARM GAS  /var/folders/m4/4md61f0s1_g0rzfghffqnxvr0000gn/T//ccERMEff.s 			page 3


 115              		.cfi_offset 14, -4
 116              		.loc 1 142 0
 117 0002 0128     		cmp	r0, #1
 118              		.loc 1 140 0
 119 0004 0446     		mov	r4, r0
 120              		.loc 1 142 0
 121 0006 8CBF     		ite	hi
 122 0008 0020     		movhi	r0, #0
 123              	.LVL6:
 124 000a 0120     		movls	r0, #1
 125 000c FFF7FEFF 		bl	assert_param
 126              	.LVL7:
 127              		.loc 1 144 0
 128 0010 014B     		ldr	r3, .L9
 129 0012 1C60     		str	r4, [r3]
 130 0014 10BD     		pop	{r4, pc}
 131              	.L10:
 132 0016 00BF     		.align	2
 133              	.L9:
 134 0018 20002742 		.word	1109852192
 135              		.cfi_endproc
 136              	.LFE125:
 137              		.size	SYSCFG_MemorySwappingBank, .-SYSCFG_MemorySwappingBank
 138              		.section	.text.SYSCFG_EXTILineConfig,"ax",%progbits
 139              		.align	2
 140              		.p2align 4,,15
 141              		.global	SYSCFG_EXTILineConfig
 142              		.thumb
 143              		.thumb_func
 144              		.type	SYSCFG_EXTILineConfig, %function
 145              	SYSCFG_EXTILineConfig:
 146              	.LFB126:
 147              		.loc 1 163 0
 148              		.cfi_startproc
 149              		@ args = 0, pretend = 0, frame = 0
 150              		@ frame_needed = 0, uses_anonymous_args = 0
 151              	.LVL8:
 152              		.loc 1 167 0
 153 0000 0A28     		cmp	r0, #10
 154              		.loc 1 163 0
 155 0002 38B5     		push	{r3, r4, r5, lr}
 156              		.cfi_def_cfa_offset 16
 157              		.cfi_offset 3, -16
 158              		.cfi_offset 4, -12
 159              		.cfi_offset 5, -8
 160              		.cfi_offset 14, -4
 161              		.loc 1 163 0
 162 0004 0C46     		mov	r4, r1
 163 0006 0546     		mov	r5, r0
 164              		.loc 1 167 0
 165 0008 8CBF     		ite	hi
 166 000a 0020     		movhi	r0, #0
 167              	.LVL9:
 168 000c 0120     		movls	r0, #1
 169 000e FFF7FEFF 		bl	assert_param
 170              	.LVL10:
 171              		.loc 1 168 0
ARM GAS  /var/folders/m4/4md61f0s1_g0rzfghffqnxvr0000gn/T//ccERMEff.s 			page 4


 172 0012 0F2C     		cmp	r4, #15
 173 0014 8CBF     		ite	hi
 174 0016 0020     		movhi	r0, #0
 175 0018 0120     		movls	r0, #1
 176 001a FFF7FEFF 		bl	assert_param
 177              	.LVL11:
 178 001e 04F0FC03 		and	r3, r4, #252
 179 0022 03F18043 		add	r3, r3, #1073741824
 180 0026 03F59C33 		add	r3, r3, #79872
 181              		.loc 1 170 0
 182 002a 04F00304 		and	r4, r4, #3
 183              		.loc 1 171 0
 184 002e 9968     		ldr	r1, [r3, #8]
 185              		.loc 1 170 0
 186 0030 A400     		lsls	r4, r4, #2
 187              	.LVL12:
 188              		.loc 1 171 0
 189 0032 0F22     		movs	r2, #15
 190 0034 A240     		lsls	r2, r2, r4
 191              	.LVL13:
 192 0036 21EA0202 		bic	r2, r1, r2
 193              	.LVL14:
 194 003a 9A60     		str	r2, [r3, #8]
 195              		.loc 1 172 0
 196 003c 9A68     		ldr	r2, [r3, #8]
 197 003e 05FA04F4 		lsl	r4, r5, r4
 198              	.LVL15:
 199 0042 1443     		orrs	r4, r4, r2
 200 0044 9C60     		str	r4, [r3, #8]
 201 0046 38BD     		pop	{r3, r4, r5, pc}
 202              		.cfi_endproc
 203              	.LFE126:
 204              		.size	SYSCFG_EXTILineConfig, .-SYSCFG_EXTILineConfig
 205              		.section	.text.SYSCFG_ETH_MediaInterfaceConfig,"ax",%progbits
 206              		.align	2
 207              		.p2align 4,,15
 208              		.global	SYSCFG_ETH_MediaInterfaceConfig
 209              		.thumb
 210              		.thumb_func
 211              		.type	SYSCFG_ETH_MediaInterfaceConfig, %function
 212              	SYSCFG_ETH_MediaInterfaceConfig:
 213              	.LFB127:
 214              		.loc 1 184 0
 215              		.cfi_startproc
 216              		@ args = 0, pretend = 0, frame = 0
 217              		@ frame_needed = 0, uses_anonymous_args = 0
 218              	.LVL16:
 219 0000 10B5     		push	{r4, lr}
 220              		.cfi_def_cfa_offset 8
 221              		.cfi_offset 4, -8
 222              		.cfi_offset 14, -4
 223              		.loc 1 185 0
 224 0002 0128     		cmp	r0, #1
 225              		.loc 1 184 0
 226 0004 0446     		mov	r4, r0
 227              		.loc 1 185 0
 228 0006 8CBF     		ite	hi
ARM GAS  /var/folders/m4/4md61f0s1_g0rzfghffqnxvr0000gn/T//ccERMEff.s 			page 5


 229 0008 0020     		movhi	r0, #0
 230              	.LVL17:
 231 000a 0120     		movls	r0, #1
 232 000c FFF7FEFF 		bl	assert_param
 233              	.LVL18:
 234              		.loc 1 187 0
 235 0010 014B     		ldr	r3, .L15
 236 0012 1C60     		str	r4, [r3]
 237 0014 10BD     		pop	{r4, pc}
 238              	.LVL19:
 239              	.L16:
 240 0016 00BF     		.align	2
 241              	.L15:
 242 0018 DC002742 		.word	1109852380
 243              		.cfi_endproc
 244              	.LFE127:
 245              		.size	SYSCFG_ETH_MediaInterfaceConfig, .-SYSCFG_ETH_MediaInterfaceConfig
 246              		.section	.text.SYSCFG_CompensationCellCmd,"ax",%progbits
 247              		.align	2
 248              		.p2align 4,,15
 249              		.global	SYSCFG_CompensationCellCmd
 250              		.thumb
 251              		.thumb_func
 252              		.type	SYSCFG_CompensationCellCmd, %function
 253              	SYSCFG_CompensationCellCmd:
 254              	.LFB128:
 255              		.loc 1 201 0
 256              		.cfi_startproc
 257              		@ args = 0, pretend = 0, frame = 0
 258              		@ frame_needed = 0, uses_anonymous_args = 0
 259              	.LVL20:
 260 0000 10B5     		push	{r4, lr}
 261              		.cfi_def_cfa_offset 8
 262              		.cfi_offset 4, -8
 263              		.cfi_offset 14, -4
 264              		.loc 1 203 0
 265 0002 0128     		cmp	r0, #1
 266              		.loc 1 201 0
 267 0004 0446     		mov	r4, r0
 268              		.loc 1 203 0
 269 0006 8CBF     		ite	hi
 270 0008 0020     		movhi	r0, #0
 271              	.LVL21:
 272 000a 0120     		movls	r0, #1
 273 000c FFF7FEFF 		bl	assert_param
 274              	.LVL22:
 275              		.loc 1 205 0
 276 0010 014B     		ldr	r3, .L19
 277 0012 1C60     		str	r4, [r3]
 278 0014 10BD     		pop	{r4, pc}
 279              	.L20:
 280 0016 00BF     		.align	2
 281              	.L19:
 282 0018 00042742 		.word	1109853184
 283              		.cfi_endproc
 284              	.LFE128:
 285              		.size	SYSCFG_CompensationCellCmd, .-SYSCFG_CompensationCellCmd
ARM GAS  /var/folders/m4/4md61f0s1_g0rzfghffqnxvr0000gn/T//ccERMEff.s 			page 6


 286              		.section	.text.SYSCFG_GetCompensationCellStatus,"ax",%progbits
 287              		.align	2
 288              		.p2align 4,,15
 289              		.global	SYSCFG_GetCompensationCellStatus
 290              		.thumb
 291              		.thumb_func
 292              		.type	SYSCFG_GetCompensationCellStatus, %function
 293              	SYSCFG_GetCompensationCellStatus:
 294              	.LFB129:
 295              		.loc 1 214 0
 296              		.cfi_startproc
 297              		@ args = 0, pretend = 0, frame = 0
 298              		@ frame_needed = 0, uses_anonymous_args = 0
 299              		@ link register save eliminated.
 300              	.LVL23:
 301              		.loc 1 217 0
 302 0000 024B     		ldr	r3, .L22
 303 0002 186A     		ldr	r0, [r3, #32]
 304              	.LVL24:
 305              		.loc 1 226 0
 306 0004 C0F30020 		ubfx	r0, r0, #8, #1
 307              	.LVL25:
 308 0008 7047     		bx	lr
 309              	.L23:
 310 000a 00BF     		.align	2
 311              	.L22:
 312 000c 00380140 		.word	1073821696
 313              		.cfi_endproc
 314              	.LFE129:
 315              		.size	SYSCFG_GetCompensationCellStatus, .-SYSCFG_GetCompensationCellStatus
 316              		.text
 317              	.Letext0:
 318              		.file 2 "/opt/homebrew-cask/Caskroom/gcc-arm-embedded/5_2-2015q4,20151219/gcc-arm-none-eabi-5_2-20
 319              		.file 3 "/opt/homebrew-cask/Caskroom/gcc-arm-embedded/5_2-2015q4,20151219/gcc-arm-none-eabi-5_2-20
 320              		.file 4 "ChibiOS_16.1.4/os/ext/CMSIS/ST/STM32F4xx/stm32f446xx.h"
 321              		.file 5 "ChibiOS_16.1.4/os/ext/CMSIS/ST/STM32F4xx/stm32f4xx.h"
 322              		.file 6 "ChibiOS_16.1.4/ext/stdperiph_stm32f4/inc/stm32f4xx_rcc.h"
 323              		.file 7 "ChibiOS_16.1.4/os/ext/CMSIS/include/core_cm4.h"
 324              		.section	.debug_info,"",%progbits
 325              	.Ldebug_info0:
 326 0000 68040000 		.4byte	0x468
 327 0004 0400     		.2byte	0x4
 328 0006 00000000 		.4byte	.Ldebug_abbrev0
 329 000a 04       		.byte	0x4
 330 000b 01       		.uleb128 0x1
 331 000c AD020000 		.4byte	.LASF42
 332 0010 0C       		.byte	0xc
 333 0011 FF010000 		.4byte	.LASF43
 334 0015 29010000 		.4byte	.LASF44
 335 0019 00000000 		.4byte	.Ldebug_ranges0+0
 336 001d 00000000 		.4byte	0
 337 0021 00000000 		.4byte	.Ldebug_line0
 338 0025 02       		.uleb128 0x2
 339 0026 01       		.byte	0x1
 340 0027 06       		.byte	0x6
 341 0028 D4010000 		.4byte	.LASF0
 342 002c 03       		.uleb128 0x3
ARM GAS  /var/folders/m4/4md61f0s1_g0rzfghffqnxvr0000gn/T//ccERMEff.s 			page 7


 343 002d 00000000 		.4byte	.LASF4
 344 0031 02       		.byte	0x2
 345 0032 1D       		.byte	0x1d
 346 0033 37000000 		.4byte	0x37
 347 0037 02       		.uleb128 0x2
 348 0038 01       		.byte	0x1
 349 0039 08       		.byte	0x8
 350 003a F7000000 		.4byte	.LASF1
 351 003e 02       		.uleb128 0x2
 352 003f 02       		.byte	0x2
 353 0040 05       		.byte	0x5
 354 0041 4E020000 		.4byte	.LASF2
 355 0045 02       		.uleb128 0x2
 356 0046 02       		.byte	0x2
 357 0047 07       		.byte	0x7
 358 0048 61000000 		.4byte	.LASF3
 359 004c 03       		.uleb128 0x3
 360 004d 3C000000 		.4byte	.LASF5
 361 0051 02       		.byte	0x2
 362 0052 3F       		.byte	0x3f
 363 0053 57000000 		.4byte	0x57
 364 0057 02       		.uleb128 0x2
 365 0058 04       		.byte	0x4
 366 0059 05       		.byte	0x5
 367 005a 9C020000 		.4byte	.LASF6
 368 005e 03       		.uleb128 0x3
 369 005f C9000000 		.4byte	.LASF7
 370 0063 02       		.byte	0x2
 371 0064 41       		.byte	0x41
 372 0065 69000000 		.4byte	0x69
 373 0069 02       		.uleb128 0x2
 374 006a 04       		.byte	0x4
 375 006b 07       		.byte	0x7
 376 006c 10010000 		.4byte	.LASF8
 377 0070 02       		.uleb128 0x2
 378 0071 08       		.byte	0x8
 379 0072 05       		.byte	0x5
 380 0073 F1010000 		.4byte	.LASF9
 381 0077 02       		.uleb128 0x2
 382 0078 08       		.byte	0x8
 383 0079 07       		.byte	0x7
 384 007a B5010000 		.4byte	.LASF10
 385 007e 04       		.uleb128 0x4
 386 007f 04       		.byte	0x4
 387 0080 05       		.byte	0x5
 388 0081 696E7400 		.ascii	"int\000"
 389 0085 02       		.uleb128 0x2
 390 0086 04       		.byte	0x4
 391 0087 07       		.byte	0x7
 392 0088 A2010000 		.4byte	.LASF11
 393 008c 03       		.uleb128 0x3
 394 008d CC010000 		.4byte	.LASF12
 395 0091 03       		.byte	0x3
 396 0092 14       		.byte	0x14
 397 0093 2C000000 		.4byte	0x2c
 398 0097 03       		.uleb128 0x3
 399 0098 E0010000 		.4byte	.LASF13
ARM GAS  /var/folders/m4/4md61f0s1_g0rzfghffqnxvr0000gn/T//ccERMEff.s 			page 8


 400 009c 03       		.byte	0x3
 401 009d 1F       		.byte	0x1f
 402 009e 4C000000 		.4byte	0x4c
 403 00a2 03       		.uleb128 0x3
 404 00a3 93020000 		.4byte	.LASF14
 405 00a7 03       		.byte	0x3
 406 00a8 20       		.byte	0x20
 407 00a9 5E000000 		.4byte	0x5e
 408 00ad 02       		.uleb128 0x2
 409 00ae 04       		.byte	0x4
 410 00af 07       		.byte	0x7
 411 00b0 E8010000 		.4byte	.LASF15
 412 00b4 05       		.uleb128 0x5
 413 00b5 A2000000 		.4byte	0xa2
 414 00b9 06       		.uleb128 0x6
 415 00ba A2000000 		.4byte	0xa2
 416 00be C9000000 		.4byte	0xc9
 417 00c2 07       		.uleb128 0x7
 418 00c3 AD000000 		.4byte	0xad
 419 00c7 01       		.byte	0x1
 420 00c8 00       		.byte	0
 421 00c9 06       		.uleb128 0x6
 422 00ca A2000000 		.4byte	0xa2
 423 00ce D9000000 		.4byte	0xd9
 424 00d2 07       		.uleb128 0x7
 425 00d3 AD000000 		.4byte	0xad
 426 00d7 03       		.byte	0x3
 427 00d8 00       		.byte	0
 428 00d9 08       		.uleb128 0x8
 429 00da 30       		.byte	0x30
 430 00db 04       		.byte	0x4
 431 00dc EF01     		.2byte	0x1ef
 432 00de 3E010000 		.4byte	0x13e
 433 00e2 09       		.uleb128 0x9
 434 00e3 22010000 		.4byte	.LASF16
 435 00e7 04       		.byte	0x4
 436 00e8 F101     		.2byte	0x1f1
 437 00ea B4000000 		.4byte	0xb4
 438 00ee 00       		.byte	0
 439 00ef 0A       		.uleb128 0xa
 440 00f0 504D4300 		.ascii	"PMC\000"
 441 00f4 04       		.byte	0x4
 442 00f5 F201     		.2byte	0x1f2
 443 00f7 B4000000 		.4byte	0xb4
 444 00fb 04       		.byte	0x4
 445 00fc 09       		.uleb128 0x9
 446 00fd 9B010000 		.4byte	.LASF17
 447 0101 04       		.byte	0x4
 448 0102 F301     		.2byte	0x1f3
 449 0104 3E010000 		.4byte	0x13e
 450 0108 08       		.byte	0x8
 451 0109 09       		.uleb128 0x9
 452 010a 92010000 		.4byte	.LASF18
 453 010e 04       		.byte	0x4
 454 010f F401     		.2byte	0x1f4
 455 0111 B9000000 		.4byte	0xb9
 456 0115 18       		.byte	0x18
ARM GAS  /var/folders/m4/4md61f0s1_g0rzfghffqnxvr0000gn/T//ccERMEff.s 			page 9


 457 0116 09       		.uleb128 0x9
 458 0117 F1000000 		.4byte	.LASF19
 459 011b 04       		.byte	0x4
 460 011c F501     		.2byte	0x1f5
 461 011e B4000000 		.4byte	0xb4
 462 0122 20       		.byte	0x20
 463 0123 09       		.uleb128 0x9
 464 0124 A5000000 		.4byte	.LASF20
 465 0128 04       		.byte	0x4
 466 0129 F601     		.2byte	0x1f6
 467 012b B9000000 		.4byte	0xb9
 468 012f 24       		.byte	0x24
 469 0130 09       		.uleb128 0x9
 470 0131 0A000000 		.4byte	.LASF21
 471 0135 04       		.byte	0x4
 472 0136 F701     		.2byte	0x1f7
 473 0138 B4000000 		.4byte	0xb4
 474 013c 2C       		.byte	0x2c
 475 013d 00       		.byte	0
 476 013e 05       		.uleb128 0x5
 477 013f C9000000 		.4byte	0xc9
 478 0143 0B       		.uleb128 0xb
 479 0144 61020000 		.4byte	.LASF22
 480 0148 04       		.byte	0x4
 481 0149 F801     		.2byte	0x1f8
 482 014b D9000000 		.4byte	0xd9
 483 014f 0C       		.uleb128 0xc
 484 0150 01       		.byte	0x1
 485 0151 37000000 		.4byte	0x37
 486 0155 05       		.byte	0x5
 487 0156 B8       		.byte	0xb8
 488 0157 68010000 		.4byte	0x168
 489 015b 0D       		.uleb128 0xd
 490 015c AF010000 		.4byte	.LASF23
 491 0160 00       		.byte	0
 492 0161 0E       		.uleb128 0xe
 493 0162 53455400 		.ascii	"SET\000"
 494 0166 01       		.byte	0x1
 495 0167 00       		.byte	0
 496 0168 03       		.uleb128 0x3
 497 0169 05010000 		.4byte	.LASF24
 498 016d 05       		.byte	0x5
 499 016e BB       		.byte	0xbb
 500 016f 4F010000 		.4byte	0x14f
 501 0173 0C       		.uleb128 0xc
 502 0174 01       		.byte	0x1
 503 0175 37000000 		.4byte	0x37
 504 0179 05       		.byte	0x5
 505 017a BE       		.byte	0xbe
 506 017b 8C010000 		.4byte	0x18c
 507 017f 0D       		.uleb128 0xd
 508 0180 A5020000 		.4byte	.LASF25
 509 0184 00       		.byte	0
 510 0185 0D       		.uleb128 0xd
 511 0186 D4000000 		.4byte	.LASF26
 512 018a 01       		.byte	0x1
 513 018b 00       		.byte	0
ARM GAS  /var/folders/m4/4md61f0s1_g0rzfghffqnxvr0000gn/T//ccERMEff.s 			page 10


 514 018c 03       		.uleb128 0x3
 515 018d 95000000 		.4byte	.LASF27
 516 0191 05       		.byte	0x5
 517 0192 C1       		.byte	0xc1
 518 0193 73010000 		.4byte	0x173
 519 0197 0F       		.uleb128 0xf
 520 0198 85020000 		.4byte	.LASF28
 521 019c 01       		.byte	0x1
 522 019d 63       		.byte	0x63
 523 019e 00000000 		.4byte	.LFB123
 524 01a2 1A000000 		.4byte	.LFE123-.LFB123
 525 01a6 01       		.uleb128 0x1
 526 01a7 9C       		.byte	0x9c
 527 01a8 DD010000 		.4byte	0x1dd
 528 01ac 10       		.uleb128 0x10
 529 01ad 0C000000 		.4byte	.LVL0
 530 01b1 54040000 		.4byte	0x454
 531 01b5 C6010000 		.4byte	0x1c6
 532 01b9 11       		.uleb128 0x11
 533 01ba 01       		.uleb128 0x1
 534 01bb 50       		.byte	0x50
 535 01bc 03       		.uleb128 0x3
 536 01bd 0A       		.byte	0xa
 537 01be 0040     		.2byte	0x4000
 538 01c0 11       		.uleb128 0x11
 539 01c1 01       		.uleb128 0x1
 540 01c2 51       		.byte	0x51
 541 01c3 01       		.uleb128 0x1
 542 01c4 31       		.byte	0x31
 543 01c5 00       		.byte	0
 544 01c6 12       		.uleb128 0x12
 545 01c7 1A000000 		.4byte	.LVL1
 546 01cb 54040000 		.4byte	0x454
 547 01cf 11       		.uleb128 0x11
 548 01d0 01       		.uleb128 0x1
 549 01d1 50       		.byte	0x50
 550 01d2 03       		.uleb128 0x3
 551 01d3 0A       		.byte	0xa
 552 01d4 0040     		.2byte	0x4000
 553 01d6 11       		.uleb128 0x11
 554 01d7 01       		.uleb128 0x1
 555 01d8 51       		.byte	0x51
 556 01d9 01       		.uleb128 0x1
 557 01da 30       		.byte	0x30
 558 01db 00       		.byte	0
 559 01dc 00       		.byte	0
 560 01dd 0F       		.uleb128 0xf
 561 01de D7030000 		.4byte	.LASF29
 562 01e2 01       		.byte	0x1
 563 01e3 76       		.byte	0x76
 564 01e4 00000000 		.4byte	.LFB124
 565 01e8 1C000000 		.4byte	.LFE124-.LFB124
 566 01ec 01       		.uleb128 0x1
 567 01ed 9C       		.byte	0x9c
 568 01ee 47020000 		.4byte	0x247
 569 01f2 13       		.uleb128 0x13
 570 01f3 3B020000 		.4byte	.LASF31
ARM GAS  /var/folders/m4/4md61f0s1_g0rzfghffqnxvr0000gn/T//ccERMEff.s 			page 11


 571 01f7 01       		.byte	0x1
 572 01f8 76       		.byte	0x76
 573 01f9 8C000000 		.4byte	0x8c
 574 01fd 00000000 		.4byte	.LLST0
 575 0201 14       		.uleb128 0x14
 576 0202 0F000000 		.4byte	.LASF33
 577 0206 01       		.byte	0x1
 578 0207 79       		.byte	0x79
 579 0208 7E000000 		.4byte	0x7e
 580 020c 12020000 		.4byte	0x212
 581 0210 15       		.uleb128 0x15
 582 0211 00       		.byte	0
 583 0212 16       		.uleb128 0x16
 584 0213 10000000 		.4byte	.LVL4
 585 0217 60040000 		.4byte	0x460
 586 021b 11       		.uleb128 0x11
 587 021c 01       		.uleb128 0x1
 588 021d 50       		.byte	0x50
 589 021e 26       		.uleb128 0x26
 590 021f 31       		.byte	0x31
 591 0220 30       		.byte	0x30
 592 0221 74       		.byte	0x74
 593 0222 00       		.sleb128 0
 594 0223 74       		.byte	0x74
 595 0224 00       		.sleb128 0
 596 0225 40       		.byte	0x40
 597 0226 4B       		.byte	0x4b
 598 0227 24       		.byte	0x24
 599 0228 22       		.byte	0x22
 600 0229 0C       		.byte	0xc
 601 022a 04000080 		.4byte	0x80000004
 602 022e 2B       		.byte	0x2b
 603 022f 28       		.byte	0x28
 604 0230 0100     		.2byte	0x1
 605 0232 16       		.byte	0x16
 606 0233 13       		.byte	0x13
 607 0234 74       		.byte	0x74
 608 0235 00       		.sleb128 0
 609 0236 40       		.byte	0x40
 610 0237 4B       		.byte	0x4b
 611 0238 24       		.byte	0x24
 612 0239 22       		.byte	0x22
 613 023a 0C       		.byte	0xc
 614 023b 04000080 		.4byte	0x80000004
 615 023f 2C       		.byte	0x2c
 616 0240 28       		.byte	0x28
 617 0241 0100     		.2byte	0x1
 618 0243 16       		.byte	0x16
 619 0244 13       		.byte	0x13
 620 0245 00       		.byte	0
 621 0246 00       		.byte	0
 622 0247 0F       		.uleb128 0xf
 623 0248 BD030000 		.4byte	.LASF30
 624 024c 01       		.byte	0x1
 625 024d 8B       		.byte	0x8b
 626 024e 00000000 		.4byte	.LFB125
 627 0252 1C000000 		.4byte	.LFE125-.LFB125
ARM GAS  /var/folders/m4/4md61f0s1_g0rzfghffqnxvr0000gn/T//ccERMEff.s 			page 12


 628 0256 01       		.uleb128 0x1
 629 0257 9C       		.byte	0x9c
 630 0258 B1020000 		.4byte	0x2b1
 631 025c 13       		.uleb128 0x13
 632 025d 58020000 		.4byte	.LASF32
 633 0261 01       		.byte	0x1
 634 0262 8B       		.byte	0x8b
 635 0263 8C010000 		.4byte	0x18c
 636 0267 21000000 		.4byte	.LLST1
 637 026b 14       		.uleb128 0x14
 638 026c 0F000000 		.4byte	.LASF33
 639 0270 01       		.byte	0x1
 640 0271 79       		.byte	0x79
 641 0272 7E000000 		.4byte	0x7e
 642 0276 7C020000 		.4byte	0x27c
 643 027a 15       		.uleb128 0x15
 644 027b 00       		.byte	0
 645 027c 16       		.uleb128 0x16
 646 027d 10000000 		.4byte	.LVL7
 647 0281 60040000 		.4byte	0x460
 648 0285 11       		.uleb128 0x11
 649 0286 01       		.uleb128 0x1
 650 0287 50       		.byte	0x50
 651 0288 26       		.uleb128 0x26
 652 0289 31       		.byte	0x31
 653 028a 30       		.byte	0x30
 654 028b 74       		.byte	0x74
 655 028c 00       		.sleb128 0
 656 028d 74       		.byte	0x74
 657 028e 00       		.sleb128 0
 658 028f 40       		.byte	0x40
 659 0290 4B       		.byte	0x4b
 660 0291 24       		.byte	0x24
 661 0292 22       		.byte	0x22
 662 0293 0C       		.byte	0xc
 663 0294 01000080 		.4byte	0x80000001
 664 0298 2B       		.byte	0x2b
 665 0299 28       		.byte	0x28
 666 029a 0100     		.2byte	0x1
 667 029c 16       		.byte	0x16
 668 029d 13       		.byte	0x13
 669 029e 74       		.byte	0x74
 670 029f 00       		.sleb128 0
 671 02a0 40       		.byte	0x40
 672 02a1 4B       		.byte	0x4b
 673 02a2 24       		.byte	0x24
 674 02a3 22       		.byte	0x22
 675 02a4 0C       		.byte	0xc
 676 02a5 01000080 		.4byte	0x80000001
 677 02a9 2C       		.byte	0x2c
 678 02aa 28       		.byte	0x28
 679 02ab 0100     		.2byte	0x1
 680 02ad 16       		.byte	0x16
 681 02ae 13       		.byte	0x13
 682 02af 00       		.byte	0
 683 02b0 00       		.byte	0
 684 02b1 0F       		.uleb128 0xf
ARM GAS  /var/folders/m4/4md61f0s1_g0rzfghffqnxvr0000gn/T//ccERMEff.s 			page 13


 685 02b2 DB000000 		.4byte	.LASF34
 686 02b6 01       		.byte	0x1
 687 02b7 A2       		.byte	0xa2
 688 02b8 00000000 		.4byte	.LFB126
 689 02bc 48000000 		.4byte	.LFE126-.LFB126
 690 02c0 01       		.uleb128 0x1
 691 02c1 9C       		.byte	0x9c
 692 02c2 46030000 		.4byte	0x346
 693 02c6 13       		.uleb128 0x13
 694 02c7 70020000 		.4byte	.LASF35
 695 02cb 01       		.byte	0x1
 696 02cc A2       		.byte	0xa2
 697 02cd 8C000000 		.4byte	0x8c
 698 02d1 42000000 		.4byte	.LLST2
 699 02d5 13       		.uleb128 0x13
 700 02d6 82010000 		.4byte	.LASF36
 701 02da 01       		.byte	0x1
 702 02db A2       		.byte	0xa2
 703 02dc 8C000000 		.4byte	0x8c
 704 02e0 63000000 		.4byte	.LLST3
 705 02e4 17       		.uleb128 0x17
 706 02e5 746D7000 		.ascii	"tmp\000"
 707 02e9 01       		.byte	0x1
 708 02ea A4       		.byte	0xa4
 709 02eb A2000000 		.4byte	0xa2
 710 02ef 84000000 		.4byte	.LLST4
 711 02f3 14       		.uleb128 0x14
 712 02f4 0F000000 		.4byte	.LASF33
 713 02f8 01       		.byte	0x1
 714 02f9 79       		.byte	0x79
 715 02fa 7E000000 		.4byte	0x7e
 716 02fe 04030000 		.4byte	0x304
 717 0302 15       		.uleb128 0x15
 718 0303 00       		.byte	0
 719 0304 10       		.uleb128 0x10
 720 0305 12000000 		.4byte	.LVL10
 721 0309 60040000 		.4byte	0x460
 722 030d 3C030000 		.4byte	0x33c
 723 0311 11       		.uleb128 0x11
 724 0312 01       		.uleb128 0x1
 725 0313 50       		.byte	0x50
 726 0314 26       		.uleb128 0x26
 727 0315 31       		.byte	0x31
 728 0316 30       		.byte	0x30
 729 0317 75       		.byte	0x75
 730 0318 00       		.sleb128 0
 731 0319 75       		.byte	0x75
 732 031a 00       		.sleb128 0
 733 031b 40       		.byte	0x40
 734 031c 4B       		.byte	0x4b
 735 031d 24       		.byte	0x24
 736 031e 22       		.byte	0x22
 737 031f 0C       		.byte	0xc
 738 0320 0A000080 		.4byte	0x8000000a
 739 0324 2B       		.byte	0x2b
 740 0325 28       		.byte	0x28
 741 0326 0100     		.2byte	0x1
ARM GAS  /var/folders/m4/4md61f0s1_g0rzfghffqnxvr0000gn/T//ccERMEff.s 			page 14


 742 0328 16       		.byte	0x16
 743 0329 13       		.byte	0x13
 744 032a 75       		.byte	0x75
 745 032b 00       		.sleb128 0
 746 032c 40       		.byte	0x40
 747 032d 4B       		.byte	0x4b
 748 032e 24       		.byte	0x24
 749 032f 22       		.byte	0x22
 750 0330 0C       		.byte	0xc
 751 0331 0A000080 		.4byte	0x8000000a
 752 0335 2C       		.byte	0x2c
 753 0336 28       		.byte	0x28
 754 0337 0100     		.2byte	0x1
 755 0339 16       		.byte	0x16
 756 033a 13       		.byte	0x13
 757 033b 00       		.byte	0
 758 033c 18       		.uleb128 0x18
 759 033d 1E000000 		.4byte	.LVL11
 760 0341 60040000 		.4byte	0x460
 761 0345 00       		.byte	0
 762 0346 0F       		.uleb128 0xf
 763 0347 1C000000 		.4byte	.LASF37
 764 034b 01       		.byte	0x1
 765 034c B7       		.byte	0xb7
 766 034d 00000000 		.4byte	.LFB127
 767 0351 1C000000 		.4byte	.LFE127-.LFB127
 768 0355 01       		.uleb128 0x1
 769 0356 9C       		.byte	0x9c
 770 0357 B0030000 		.4byte	0x3b0
 771 035b 13       		.uleb128 0x13
 772 035c AF000000 		.4byte	.LASF38
 773 0360 01       		.byte	0x1
 774 0361 B7       		.byte	0xb7
 775 0362 A2000000 		.4byte	0xa2
 776 0366 C1000000 		.4byte	.LLST5
 777 036a 14       		.uleb128 0x14
 778 036b 0F000000 		.4byte	.LASF33
 779 036f 01       		.byte	0x1
 780 0370 79       		.byte	0x79
 781 0371 7E000000 		.4byte	0x7e
 782 0375 7B030000 		.4byte	0x37b
 783 0379 15       		.uleb128 0x15
 784 037a 00       		.byte	0
 785 037b 16       		.uleb128 0x16
 786 037c 10000000 		.4byte	.LVL18
 787 0380 60040000 		.4byte	0x460
 788 0384 11       		.uleb128 0x11
 789 0385 01       		.uleb128 0x1
 790 0386 50       		.byte	0x50
 791 0387 26       		.uleb128 0x26
 792 0388 31       		.byte	0x31
 793 0389 30       		.byte	0x30
 794 038a 74       		.byte	0x74
 795 038b 00       		.sleb128 0
 796 038c 74       		.byte	0x74
 797 038d 00       		.sleb128 0
 798 038e 40       		.byte	0x40
ARM GAS  /var/folders/m4/4md61f0s1_g0rzfghffqnxvr0000gn/T//ccERMEff.s 			page 15


 799 038f 4B       		.byte	0x4b
 800 0390 24       		.byte	0x24
 801 0391 22       		.byte	0x22
 802 0392 0C       		.byte	0xc
 803 0393 01000080 		.4byte	0x80000001
 804 0397 2B       		.byte	0x2b
 805 0398 28       		.byte	0x28
 806 0399 0100     		.2byte	0x1
 807 039b 16       		.byte	0x16
 808 039c 13       		.byte	0x13
 809 039d 74       		.byte	0x74
 810 039e 00       		.sleb128 0
 811 039f 40       		.byte	0x40
 812 03a0 4B       		.byte	0x4b
 813 03a1 24       		.byte	0x24
 814 03a2 22       		.byte	0x22
 815 03a3 0C       		.byte	0xc
 816 03a4 01000080 		.4byte	0x80000001
 817 03a8 2C       		.byte	0x2c
 818 03a9 28       		.byte	0x28
 819 03aa 0100     		.2byte	0x1
 820 03ac 16       		.byte	0x16
 821 03ad 13       		.byte	0x13
 822 03ae 00       		.byte	0
 823 03af 00       		.byte	0
 824 03b0 0F       		.uleb128 0xf
 825 03b1 46000000 		.4byte	.LASF39
 826 03b5 01       		.byte	0x1
 827 03b6 C8       		.byte	0xc8
 828 03b7 00000000 		.4byte	.LFB128
 829 03bb 1C000000 		.4byte	.LFE128-.LFB128
 830 03bf 01       		.uleb128 0x1
 831 03c0 9C       		.byte	0x9c
 832 03c1 1A040000 		.4byte	0x41a
 833 03c5 13       		.uleb128 0x13
 834 03c6 58020000 		.4byte	.LASF32
 835 03ca 01       		.byte	0x1
 836 03cb C8       		.byte	0xc8
 837 03cc 8C010000 		.4byte	0x18c
 838 03d0 EB000000 		.4byte	.LLST6
 839 03d4 14       		.uleb128 0x14
 840 03d5 0F000000 		.4byte	.LASF33
 841 03d9 01       		.byte	0x1
 842 03da 79       		.byte	0x79
 843 03db 7E000000 		.4byte	0x7e
 844 03df E5030000 		.4byte	0x3e5
 845 03e3 15       		.uleb128 0x15
 846 03e4 00       		.byte	0
 847 03e5 16       		.uleb128 0x16
 848 03e6 10000000 		.4byte	.LVL22
 849 03ea 60040000 		.4byte	0x460
 850 03ee 11       		.uleb128 0x11
 851 03ef 01       		.uleb128 0x1
 852 03f0 50       		.byte	0x50
 853 03f1 26       		.uleb128 0x26
 854 03f2 31       		.byte	0x31
 855 03f3 30       		.byte	0x30
ARM GAS  /var/folders/m4/4md61f0s1_g0rzfghffqnxvr0000gn/T//ccERMEff.s 			page 16


 856 03f4 74       		.byte	0x74
 857 03f5 00       		.sleb128 0
 858 03f6 74       		.byte	0x74
 859 03f7 00       		.sleb128 0
 860 03f8 40       		.byte	0x40
 861 03f9 4B       		.byte	0x4b
 862 03fa 24       		.byte	0x24
 863 03fb 22       		.byte	0x22
 864 03fc 0C       		.byte	0xc
 865 03fd 01000080 		.4byte	0x80000001
 866 0401 2B       		.byte	0x2b
 867 0402 28       		.byte	0x28
 868 0403 0100     		.2byte	0x1
 869 0405 16       		.byte	0x16
 870 0406 13       		.byte	0x13
 871 0407 74       		.byte	0x74
 872 0408 00       		.sleb128 0
 873 0409 40       		.byte	0x40
 874 040a 4B       		.byte	0x4b
 875 040b 24       		.byte	0x24
 876 040c 22       		.byte	0x22
 877 040d 0C       		.byte	0xc
 878 040e 01000080 		.4byte	0x80000001
 879 0412 2C       		.byte	0x2c
 880 0413 28       		.byte	0x28
 881 0414 0100     		.2byte	0x1
 882 0416 16       		.byte	0x16
 883 0417 13       		.byte	0x13
 884 0418 00       		.byte	0
 885 0419 00       		.byte	0
 886 041a 19       		.uleb128 0x19
 887 041b 74000000 		.4byte	.LASF45
 888 041f 01       		.byte	0x1
 889 0420 D5       		.byte	0xd5
 890 0421 68010000 		.4byte	0x168
 891 0425 00000000 		.4byte	.LFB129
 892 0429 10000000 		.4byte	.LFE129-.LFB129
 893 042d 01       		.uleb128 0x1
 894 042e 9C       		.byte	0x9c
 895 042f 43040000 		.4byte	0x443
 896 0433 1A       		.uleb128 0x1a
 897 0434 B3030000 		.4byte	.LASF40
 898 0438 01       		.byte	0x1
 899 0439 D7       		.byte	0xd7
 900 043a 68010000 		.4byte	0x168
 901 043e 0C010000 		.4byte	.LLST7
 902 0442 00       		.byte	0
 903 0443 1B       		.uleb128 0x1b
 904 0444 75010000 		.4byte	.LASF46
 905 0448 07       		.byte	0x7
 906 0449 FA06     		.2byte	0x6fa
 907 044b 4F040000 		.4byte	0x44f
 908 044f 05       		.uleb128 0x5
 909 0450 97000000 		.4byte	0x97
 910 0454 1C       		.uleb128 0x1c
 911 0455 5E010000 		.4byte	.LASF41
 912 0459 5E010000 		.4byte	.LASF41
ARM GAS  /var/folders/m4/4md61f0s1_g0rzfghffqnxvr0000gn/T//ccERMEff.s 			page 17


 913 045d 06       		.byte	0x6
 914 045e 6203     		.2byte	0x362
 915 0460 1D       		.uleb128 0x1d
 916 0461 0F000000 		.4byte	.LASF33
 917 0465 0F000000 		.4byte	.LASF33
 918 0469 01       		.byte	0x1
 919 046a 79       		.byte	0x79
 920 046b 00       		.byte	0
 921              		.section	.debug_abbrev,"",%progbits
 922              	.Ldebug_abbrev0:
 923 0000 01       		.uleb128 0x1
 924 0001 11       		.uleb128 0x11
 925 0002 01       		.byte	0x1
 926 0003 25       		.uleb128 0x25
 927 0004 0E       		.uleb128 0xe
 928 0005 13       		.uleb128 0x13
 929 0006 0B       		.uleb128 0xb
 930 0007 03       		.uleb128 0x3
 931 0008 0E       		.uleb128 0xe
 932 0009 1B       		.uleb128 0x1b
 933 000a 0E       		.uleb128 0xe
 934 000b 55       		.uleb128 0x55
 935 000c 17       		.uleb128 0x17
 936 000d 11       		.uleb128 0x11
 937 000e 01       		.uleb128 0x1
 938 000f 10       		.uleb128 0x10
 939 0010 17       		.uleb128 0x17
 940 0011 00       		.byte	0
 941 0012 00       		.byte	0
 942 0013 02       		.uleb128 0x2
 943 0014 24       		.uleb128 0x24
 944 0015 00       		.byte	0
 945 0016 0B       		.uleb128 0xb
 946 0017 0B       		.uleb128 0xb
 947 0018 3E       		.uleb128 0x3e
 948 0019 0B       		.uleb128 0xb
 949 001a 03       		.uleb128 0x3
 950 001b 0E       		.uleb128 0xe
 951 001c 00       		.byte	0
 952 001d 00       		.byte	0
 953 001e 03       		.uleb128 0x3
 954 001f 16       		.uleb128 0x16
 955 0020 00       		.byte	0
 956 0021 03       		.uleb128 0x3
 957 0022 0E       		.uleb128 0xe
 958 0023 3A       		.uleb128 0x3a
 959 0024 0B       		.uleb128 0xb
 960 0025 3B       		.uleb128 0x3b
 961 0026 0B       		.uleb128 0xb
 962 0027 49       		.uleb128 0x49
 963 0028 13       		.uleb128 0x13
 964 0029 00       		.byte	0
 965 002a 00       		.byte	0
 966 002b 04       		.uleb128 0x4
 967 002c 24       		.uleb128 0x24
 968 002d 00       		.byte	0
 969 002e 0B       		.uleb128 0xb
ARM GAS  /var/folders/m4/4md61f0s1_g0rzfghffqnxvr0000gn/T//ccERMEff.s 			page 18


 970 002f 0B       		.uleb128 0xb
 971 0030 3E       		.uleb128 0x3e
 972 0031 0B       		.uleb128 0xb
 973 0032 03       		.uleb128 0x3
 974 0033 08       		.uleb128 0x8
 975 0034 00       		.byte	0
 976 0035 00       		.byte	0
 977 0036 05       		.uleb128 0x5
 978 0037 35       		.uleb128 0x35
 979 0038 00       		.byte	0
 980 0039 49       		.uleb128 0x49
 981 003a 13       		.uleb128 0x13
 982 003b 00       		.byte	0
 983 003c 00       		.byte	0
 984 003d 06       		.uleb128 0x6
 985 003e 01       		.uleb128 0x1
 986 003f 01       		.byte	0x1
 987 0040 49       		.uleb128 0x49
 988 0041 13       		.uleb128 0x13
 989 0042 01       		.uleb128 0x1
 990 0043 13       		.uleb128 0x13
 991 0044 00       		.byte	0
 992 0045 00       		.byte	0
 993 0046 07       		.uleb128 0x7
 994 0047 21       		.uleb128 0x21
 995 0048 00       		.byte	0
 996 0049 49       		.uleb128 0x49
 997 004a 13       		.uleb128 0x13
 998 004b 2F       		.uleb128 0x2f
 999 004c 0B       		.uleb128 0xb
 1000 004d 00       		.byte	0
 1001 004e 00       		.byte	0
 1002 004f 08       		.uleb128 0x8
 1003 0050 13       		.uleb128 0x13
 1004 0051 01       		.byte	0x1
 1005 0052 0B       		.uleb128 0xb
 1006 0053 0B       		.uleb128 0xb
 1007 0054 3A       		.uleb128 0x3a
 1008 0055 0B       		.uleb128 0xb
 1009 0056 3B       		.uleb128 0x3b
 1010 0057 05       		.uleb128 0x5
 1011 0058 01       		.uleb128 0x1
 1012 0059 13       		.uleb128 0x13
 1013 005a 00       		.byte	0
 1014 005b 00       		.byte	0
 1015 005c 09       		.uleb128 0x9
 1016 005d 0D       		.uleb128 0xd
 1017 005e 00       		.byte	0
 1018 005f 03       		.uleb128 0x3
 1019 0060 0E       		.uleb128 0xe
 1020 0061 3A       		.uleb128 0x3a
 1021 0062 0B       		.uleb128 0xb
 1022 0063 3B       		.uleb128 0x3b
 1023 0064 05       		.uleb128 0x5
 1024 0065 49       		.uleb128 0x49
 1025 0066 13       		.uleb128 0x13
 1026 0067 38       		.uleb128 0x38
ARM GAS  /var/folders/m4/4md61f0s1_g0rzfghffqnxvr0000gn/T//ccERMEff.s 			page 19


 1027 0068 0B       		.uleb128 0xb
 1028 0069 00       		.byte	0
 1029 006a 00       		.byte	0
 1030 006b 0A       		.uleb128 0xa
 1031 006c 0D       		.uleb128 0xd
 1032 006d 00       		.byte	0
 1033 006e 03       		.uleb128 0x3
 1034 006f 08       		.uleb128 0x8
 1035 0070 3A       		.uleb128 0x3a
 1036 0071 0B       		.uleb128 0xb
 1037 0072 3B       		.uleb128 0x3b
 1038 0073 05       		.uleb128 0x5
 1039 0074 49       		.uleb128 0x49
 1040 0075 13       		.uleb128 0x13
 1041 0076 38       		.uleb128 0x38
 1042 0077 0B       		.uleb128 0xb
 1043 0078 00       		.byte	0
 1044 0079 00       		.byte	0
 1045 007a 0B       		.uleb128 0xb
 1046 007b 16       		.uleb128 0x16
 1047 007c 00       		.byte	0
 1048 007d 03       		.uleb128 0x3
 1049 007e 0E       		.uleb128 0xe
 1050 007f 3A       		.uleb128 0x3a
 1051 0080 0B       		.uleb128 0xb
 1052 0081 3B       		.uleb128 0x3b
 1053 0082 05       		.uleb128 0x5
 1054 0083 49       		.uleb128 0x49
 1055 0084 13       		.uleb128 0x13
 1056 0085 00       		.byte	0
 1057 0086 00       		.byte	0
 1058 0087 0C       		.uleb128 0xc
 1059 0088 04       		.uleb128 0x4
 1060 0089 01       		.byte	0x1
 1061 008a 0B       		.uleb128 0xb
 1062 008b 0B       		.uleb128 0xb
 1063 008c 49       		.uleb128 0x49
 1064 008d 13       		.uleb128 0x13
 1065 008e 3A       		.uleb128 0x3a
 1066 008f 0B       		.uleb128 0xb
 1067 0090 3B       		.uleb128 0x3b
 1068 0091 0B       		.uleb128 0xb
 1069 0092 01       		.uleb128 0x1
 1070 0093 13       		.uleb128 0x13
 1071 0094 00       		.byte	0
 1072 0095 00       		.byte	0
 1073 0096 0D       		.uleb128 0xd
 1074 0097 28       		.uleb128 0x28
 1075 0098 00       		.byte	0
 1076 0099 03       		.uleb128 0x3
 1077 009a 0E       		.uleb128 0xe
 1078 009b 1C       		.uleb128 0x1c
 1079 009c 0B       		.uleb128 0xb
 1080 009d 00       		.byte	0
 1081 009e 00       		.byte	0
 1082 009f 0E       		.uleb128 0xe
 1083 00a0 28       		.uleb128 0x28
ARM GAS  /var/folders/m4/4md61f0s1_g0rzfghffqnxvr0000gn/T//ccERMEff.s 			page 20


 1084 00a1 00       		.byte	0
 1085 00a2 03       		.uleb128 0x3
 1086 00a3 08       		.uleb128 0x8
 1087 00a4 1C       		.uleb128 0x1c
 1088 00a5 0B       		.uleb128 0xb
 1089 00a6 00       		.byte	0
 1090 00a7 00       		.byte	0
 1091 00a8 0F       		.uleb128 0xf
 1092 00a9 2E       		.uleb128 0x2e
 1093 00aa 01       		.byte	0x1
 1094 00ab 3F       		.uleb128 0x3f
 1095 00ac 19       		.uleb128 0x19
 1096 00ad 03       		.uleb128 0x3
 1097 00ae 0E       		.uleb128 0xe
 1098 00af 3A       		.uleb128 0x3a
 1099 00b0 0B       		.uleb128 0xb
 1100 00b1 3B       		.uleb128 0x3b
 1101 00b2 0B       		.uleb128 0xb
 1102 00b3 27       		.uleb128 0x27
 1103 00b4 19       		.uleb128 0x19
 1104 00b5 11       		.uleb128 0x11
 1105 00b6 01       		.uleb128 0x1
 1106 00b7 12       		.uleb128 0x12
 1107 00b8 06       		.uleb128 0x6
 1108 00b9 40       		.uleb128 0x40
 1109 00ba 18       		.uleb128 0x18
 1110 00bb 9742     		.uleb128 0x2117
 1111 00bd 19       		.uleb128 0x19
 1112 00be 01       		.uleb128 0x1
 1113 00bf 13       		.uleb128 0x13
 1114 00c0 00       		.byte	0
 1115 00c1 00       		.byte	0
 1116 00c2 10       		.uleb128 0x10
 1117 00c3 898201   		.uleb128 0x4109
 1118 00c6 01       		.byte	0x1
 1119 00c7 11       		.uleb128 0x11
 1120 00c8 01       		.uleb128 0x1
 1121 00c9 31       		.uleb128 0x31
 1122 00ca 13       		.uleb128 0x13
 1123 00cb 01       		.uleb128 0x1
 1124 00cc 13       		.uleb128 0x13
 1125 00cd 00       		.byte	0
 1126 00ce 00       		.byte	0
 1127 00cf 11       		.uleb128 0x11
 1128 00d0 8A8201   		.uleb128 0x410a
 1129 00d3 00       		.byte	0
 1130 00d4 02       		.uleb128 0x2
 1131 00d5 18       		.uleb128 0x18
 1132 00d6 9142     		.uleb128 0x2111
 1133 00d8 18       		.uleb128 0x18
 1134 00d9 00       		.byte	0
 1135 00da 00       		.byte	0
 1136 00db 12       		.uleb128 0x12
 1137 00dc 898201   		.uleb128 0x4109
 1138 00df 01       		.byte	0x1
 1139 00e0 11       		.uleb128 0x11
 1140 00e1 01       		.uleb128 0x1
ARM GAS  /var/folders/m4/4md61f0s1_g0rzfghffqnxvr0000gn/T//ccERMEff.s 			page 21


 1141 00e2 9542     		.uleb128 0x2115
 1142 00e4 19       		.uleb128 0x19
 1143 00e5 31       		.uleb128 0x31
 1144 00e6 13       		.uleb128 0x13
 1145 00e7 00       		.byte	0
 1146 00e8 00       		.byte	0
 1147 00e9 13       		.uleb128 0x13
 1148 00ea 05       		.uleb128 0x5
 1149 00eb 00       		.byte	0
 1150 00ec 03       		.uleb128 0x3
 1151 00ed 0E       		.uleb128 0xe
 1152 00ee 3A       		.uleb128 0x3a
 1153 00ef 0B       		.uleb128 0xb
 1154 00f0 3B       		.uleb128 0x3b
 1155 00f1 0B       		.uleb128 0xb
 1156 00f2 49       		.uleb128 0x49
 1157 00f3 13       		.uleb128 0x13
 1158 00f4 02       		.uleb128 0x2
 1159 00f5 17       		.uleb128 0x17
 1160 00f6 00       		.byte	0
 1161 00f7 00       		.byte	0
 1162 00f8 14       		.uleb128 0x14
 1163 00f9 2E       		.uleb128 0x2e
 1164 00fa 01       		.byte	0x1
 1165 00fb 3F       		.uleb128 0x3f
 1166 00fc 19       		.uleb128 0x19
 1167 00fd 03       		.uleb128 0x3
 1168 00fe 0E       		.uleb128 0xe
 1169 00ff 3A       		.uleb128 0x3a
 1170 0100 0B       		.uleb128 0xb
 1171 0101 3B       		.uleb128 0x3b
 1172 0102 0B       		.uleb128 0xb
 1173 0103 49       		.uleb128 0x49
 1174 0104 13       		.uleb128 0x13
 1175 0105 3C       		.uleb128 0x3c
 1176 0106 19       		.uleb128 0x19
 1177 0107 01       		.uleb128 0x1
 1178 0108 13       		.uleb128 0x13
 1179 0109 00       		.byte	0
 1180 010a 00       		.byte	0
 1181 010b 15       		.uleb128 0x15
 1182 010c 18       		.uleb128 0x18
 1183 010d 00       		.byte	0
 1184 010e 00       		.byte	0
 1185 010f 00       		.byte	0
 1186 0110 16       		.uleb128 0x16
 1187 0111 898201   		.uleb128 0x4109
 1188 0114 01       		.byte	0x1
 1189 0115 11       		.uleb128 0x11
 1190 0116 01       		.uleb128 0x1
 1191 0117 31       		.uleb128 0x31
 1192 0118 13       		.uleb128 0x13
 1193 0119 00       		.byte	0
 1194 011a 00       		.byte	0
 1195 011b 17       		.uleb128 0x17
 1196 011c 34       		.uleb128 0x34
 1197 011d 00       		.byte	0
ARM GAS  /var/folders/m4/4md61f0s1_g0rzfghffqnxvr0000gn/T//ccERMEff.s 			page 22


 1198 011e 03       		.uleb128 0x3
 1199 011f 08       		.uleb128 0x8
 1200 0120 3A       		.uleb128 0x3a
 1201 0121 0B       		.uleb128 0xb
 1202 0122 3B       		.uleb128 0x3b
 1203 0123 0B       		.uleb128 0xb
 1204 0124 49       		.uleb128 0x49
 1205 0125 13       		.uleb128 0x13
 1206 0126 02       		.uleb128 0x2
 1207 0127 17       		.uleb128 0x17
 1208 0128 00       		.byte	0
 1209 0129 00       		.byte	0
 1210 012a 18       		.uleb128 0x18
 1211 012b 898201   		.uleb128 0x4109
 1212 012e 00       		.byte	0
 1213 012f 11       		.uleb128 0x11
 1214 0130 01       		.uleb128 0x1
 1215 0131 31       		.uleb128 0x31
 1216 0132 13       		.uleb128 0x13
 1217 0133 00       		.byte	0
 1218 0134 00       		.byte	0
 1219 0135 19       		.uleb128 0x19
 1220 0136 2E       		.uleb128 0x2e
 1221 0137 01       		.byte	0x1
 1222 0138 3F       		.uleb128 0x3f
 1223 0139 19       		.uleb128 0x19
 1224 013a 03       		.uleb128 0x3
 1225 013b 0E       		.uleb128 0xe
 1226 013c 3A       		.uleb128 0x3a
 1227 013d 0B       		.uleb128 0xb
 1228 013e 3B       		.uleb128 0x3b
 1229 013f 0B       		.uleb128 0xb
 1230 0140 27       		.uleb128 0x27
 1231 0141 19       		.uleb128 0x19
 1232 0142 49       		.uleb128 0x49
 1233 0143 13       		.uleb128 0x13
 1234 0144 11       		.uleb128 0x11
 1235 0145 01       		.uleb128 0x1
 1236 0146 12       		.uleb128 0x12
 1237 0147 06       		.uleb128 0x6
 1238 0148 40       		.uleb128 0x40
 1239 0149 18       		.uleb128 0x18
 1240 014a 9742     		.uleb128 0x2117
 1241 014c 19       		.uleb128 0x19
 1242 014d 01       		.uleb128 0x1
 1243 014e 13       		.uleb128 0x13
 1244 014f 00       		.byte	0
 1245 0150 00       		.byte	0
 1246 0151 1A       		.uleb128 0x1a
 1247 0152 34       		.uleb128 0x34
 1248 0153 00       		.byte	0
 1249 0154 03       		.uleb128 0x3
 1250 0155 0E       		.uleb128 0xe
 1251 0156 3A       		.uleb128 0x3a
 1252 0157 0B       		.uleb128 0xb
 1253 0158 3B       		.uleb128 0x3b
 1254 0159 0B       		.uleb128 0xb
ARM GAS  /var/folders/m4/4md61f0s1_g0rzfghffqnxvr0000gn/T//ccERMEff.s 			page 23


 1255 015a 49       		.uleb128 0x49
 1256 015b 13       		.uleb128 0x13
 1257 015c 02       		.uleb128 0x2
 1258 015d 17       		.uleb128 0x17
 1259 015e 00       		.byte	0
 1260 015f 00       		.byte	0
 1261 0160 1B       		.uleb128 0x1b
 1262 0161 34       		.uleb128 0x34
 1263 0162 00       		.byte	0
 1264 0163 03       		.uleb128 0x3
 1265 0164 0E       		.uleb128 0xe
 1266 0165 3A       		.uleb128 0x3a
 1267 0166 0B       		.uleb128 0xb
 1268 0167 3B       		.uleb128 0x3b
 1269 0168 05       		.uleb128 0x5
 1270 0169 49       		.uleb128 0x49
 1271 016a 13       		.uleb128 0x13
 1272 016b 3F       		.uleb128 0x3f
 1273 016c 19       		.uleb128 0x19
 1274 016d 3C       		.uleb128 0x3c
 1275 016e 19       		.uleb128 0x19
 1276 016f 00       		.byte	0
 1277 0170 00       		.byte	0
 1278 0171 1C       		.uleb128 0x1c
 1279 0172 2E       		.uleb128 0x2e
 1280 0173 00       		.byte	0
 1281 0174 3F       		.uleb128 0x3f
 1282 0175 19       		.uleb128 0x19
 1283 0176 3C       		.uleb128 0x3c
 1284 0177 19       		.uleb128 0x19
 1285 0178 6E       		.uleb128 0x6e
 1286 0179 0E       		.uleb128 0xe
 1287 017a 03       		.uleb128 0x3
 1288 017b 0E       		.uleb128 0xe
 1289 017c 3A       		.uleb128 0x3a
 1290 017d 0B       		.uleb128 0xb
 1291 017e 3B       		.uleb128 0x3b
 1292 017f 05       		.uleb128 0x5
 1293 0180 00       		.byte	0
 1294 0181 00       		.byte	0
 1295 0182 1D       		.uleb128 0x1d
 1296 0183 2E       		.uleb128 0x2e
 1297 0184 00       		.byte	0
 1298 0185 3F       		.uleb128 0x3f
 1299 0186 19       		.uleb128 0x19
 1300 0187 3C       		.uleb128 0x3c
 1301 0188 19       		.uleb128 0x19
 1302 0189 6E       		.uleb128 0x6e
 1303 018a 0E       		.uleb128 0xe
 1304 018b 03       		.uleb128 0x3
 1305 018c 0E       		.uleb128 0xe
 1306 018d 3A       		.uleb128 0x3a
 1307 018e 0B       		.uleb128 0xb
 1308 018f 3B       		.uleb128 0x3b
 1309 0190 0B       		.uleb128 0xb
 1310 0191 00       		.byte	0
 1311 0192 00       		.byte	0
ARM GAS  /var/folders/m4/4md61f0s1_g0rzfghffqnxvr0000gn/T//ccERMEff.s 			page 24


 1312 0193 00       		.byte	0
 1313              		.section	.debug_loc,"",%progbits
 1314              	.Ldebug_loc0:
 1315              	.LLST0:
 1316 0000 00000000 		.4byte	.LVL2
 1317 0004 0A000000 		.4byte	.LVL3
 1318 0008 0100     		.2byte	0x1
 1319 000a 50       		.byte	0x50
 1320 000b 0A000000 		.4byte	.LVL3
 1321 000f 1C000000 		.4byte	.LFE124
 1322 0013 0400     		.2byte	0x4
 1323 0015 F3       		.byte	0xf3
 1324 0016 01       		.uleb128 0x1
 1325 0017 50       		.byte	0x50
 1326 0018 9F       		.byte	0x9f
 1327 0019 00000000 		.4byte	0
 1328 001d 00000000 		.4byte	0
 1329              	.LLST1:
 1330 0021 00000000 		.4byte	.LVL5
 1331 0025 0A000000 		.4byte	.LVL6
 1332 0029 0100     		.2byte	0x1
 1333 002b 50       		.byte	0x50
 1334 002c 0A000000 		.4byte	.LVL6
 1335 0030 1C000000 		.4byte	.LFE125
 1336 0034 0400     		.2byte	0x4
 1337 0036 F3       		.byte	0xf3
 1338 0037 01       		.uleb128 0x1
 1339 0038 50       		.byte	0x50
 1340 0039 9F       		.byte	0x9f
 1341 003a 00000000 		.4byte	0
 1342 003e 00000000 		.4byte	0
 1343              	.LLST2:
 1344 0042 00000000 		.4byte	.LVL8
 1345 0046 0C000000 		.4byte	.LVL9
 1346 004a 0100     		.2byte	0x1
 1347 004c 50       		.byte	0x50
 1348 004d 0C000000 		.4byte	.LVL9
 1349 0051 48000000 		.4byte	.LFE126
 1350 0055 0400     		.2byte	0x4
 1351 0057 F3       		.byte	0xf3
 1352 0058 01       		.uleb128 0x1
 1353 0059 50       		.byte	0x50
 1354 005a 9F       		.byte	0x9f
 1355 005b 00000000 		.4byte	0
 1356 005f 00000000 		.4byte	0
 1357              	.LLST3:
 1358 0063 00000000 		.4byte	.LVL8
 1359 0067 11000000 		.4byte	.LVL10-1
 1360 006b 0100     		.2byte	0x1
 1361 006d 51       		.byte	0x51
 1362 006e 11000000 		.4byte	.LVL10-1
 1363 0072 48000000 		.4byte	.LFE126
 1364 0076 0400     		.2byte	0x4
 1365 0078 F3       		.byte	0xf3
 1366 0079 01       		.uleb128 0x1
 1367 007a 51       		.byte	0x51
 1368 007b 9F       		.byte	0x9f
ARM GAS  /var/folders/m4/4md61f0s1_g0rzfghffqnxvr0000gn/T//ccERMEff.s 			page 25


 1369 007c 00000000 		.4byte	0
 1370 0080 00000000 		.4byte	0
 1371              	.LLST4:
 1372 0084 00000000 		.4byte	.LVL8
 1373 0088 32000000 		.4byte	.LVL12
 1374 008c 0200     		.2byte	0x2
 1375 008e 30       		.byte	0x30
 1376 008f 9F       		.byte	0x9f
 1377 0090 32000000 		.4byte	.LVL12
 1378 0094 36000000 		.4byte	.LVL13
 1379 0098 0500     		.2byte	0x5
 1380 009a 3F       		.byte	0x3f
 1381 009b 74       		.byte	0x74
 1382 009c 00       		.sleb128 0
 1383 009d 24       		.byte	0x24
 1384 009e 9F       		.byte	0x9f
 1385 009f 36000000 		.4byte	.LVL13
 1386 00a3 3A000000 		.4byte	.LVL14
 1387 00a7 0100     		.2byte	0x1
 1388 00a9 52       		.byte	0x52
 1389 00aa 3A000000 		.4byte	.LVL14
 1390 00ae 42000000 		.4byte	.LVL15
 1391 00b2 0500     		.2byte	0x5
 1392 00b4 3F       		.byte	0x3f
 1393 00b5 74       		.byte	0x74
 1394 00b6 00       		.sleb128 0
 1395 00b7 24       		.byte	0x24
 1396 00b8 9F       		.byte	0x9f
 1397 00b9 00000000 		.4byte	0
 1398 00bd 00000000 		.4byte	0
 1399              	.LLST5:
 1400 00c1 00000000 		.4byte	.LVL16
 1401 00c5 0A000000 		.4byte	.LVL17
 1402 00c9 0100     		.2byte	0x1
 1403 00cb 50       		.byte	0x50
 1404 00cc 0A000000 		.4byte	.LVL17
 1405 00d0 16000000 		.4byte	.LVL19
 1406 00d4 0100     		.2byte	0x1
 1407 00d6 54       		.byte	0x54
 1408 00d7 16000000 		.4byte	.LVL19
 1409 00db 1C000000 		.4byte	.LFE127
 1410 00df 0200     		.2byte	0x2
 1411 00e1 73       		.byte	0x73
 1412 00e2 00       		.sleb128 0
 1413 00e3 00000000 		.4byte	0
 1414 00e7 00000000 		.4byte	0
 1415              	.LLST6:
 1416 00eb 00000000 		.4byte	.LVL20
 1417 00ef 0A000000 		.4byte	.LVL21
 1418 00f3 0100     		.2byte	0x1
 1419 00f5 50       		.byte	0x50
 1420 00f6 0A000000 		.4byte	.LVL21
 1421 00fa 1C000000 		.4byte	.LFE128
 1422 00fe 0400     		.2byte	0x4
 1423 0100 F3       		.byte	0xf3
 1424 0101 01       		.uleb128 0x1
 1425 0102 50       		.byte	0x50
ARM GAS  /var/folders/m4/4md61f0s1_g0rzfghffqnxvr0000gn/T//ccERMEff.s 			page 26


 1426 0103 9F       		.byte	0x9f
 1427 0104 00000000 		.4byte	0
 1428 0108 00000000 		.4byte	0
 1429              	.LLST7:
 1430 010c 00000000 		.4byte	.LVL23
 1431 0110 04000000 		.4byte	.LVL24
 1432 0114 0200     		.2byte	0x2
 1433 0116 30       		.byte	0x30
 1434 0117 9F       		.byte	0x9f
 1435 0118 04000000 		.4byte	.LVL24
 1436 011c 08000000 		.4byte	.LVL25
 1437 0120 0900     		.2byte	0x9
 1438 0122 70       		.byte	0x70
 1439 0123 00       		.sleb128 0
 1440 0124 0A       		.byte	0xa
 1441 0125 0001     		.2byte	0x100
 1442 0127 1A       		.byte	0x1a
 1443 0128 30       		.byte	0x30
 1444 0129 2E       		.byte	0x2e
 1445 012a 9F       		.byte	0x9f
 1446 012b 00000000 		.4byte	0
 1447 012f 00000000 		.4byte	0
 1448              		.section	.debug_aranges,"",%progbits
 1449 0000 4C000000 		.4byte	0x4c
 1450 0004 0200     		.2byte	0x2
 1451 0006 00000000 		.4byte	.Ldebug_info0
 1452 000a 04       		.byte	0x4
 1453 000b 00       		.byte	0
 1454 000c 0000     		.2byte	0
 1455 000e 0000     		.2byte	0
 1456 0010 00000000 		.4byte	.LFB123
 1457 0014 1A000000 		.4byte	.LFE123-.LFB123
 1458 0018 00000000 		.4byte	.LFB124
 1459 001c 1C000000 		.4byte	.LFE124-.LFB124
 1460 0020 00000000 		.4byte	.LFB125
 1461 0024 1C000000 		.4byte	.LFE125-.LFB125
 1462 0028 00000000 		.4byte	.LFB126
 1463 002c 48000000 		.4byte	.LFE126-.LFB126
 1464 0030 00000000 		.4byte	.LFB127
 1465 0034 1C000000 		.4byte	.LFE127-.LFB127
 1466 0038 00000000 		.4byte	.LFB128
 1467 003c 1C000000 		.4byte	.LFE128-.LFB128
 1468 0040 00000000 		.4byte	.LFB129
 1469 0044 10000000 		.4byte	.LFE129-.LFB129
 1470 0048 00000000 		.4byte	0
 1471 004c 00000000 		.4byte	0
 1472              		.section	.debug_ranges,"",%progbits
 1473              	.Ldebug_ranges0:
 1474 0000 00000000 		.4byte	.LFB123
 1475 0004 1A000000 		.4byte	.LFE123
 1476 0008 00000000 		.4byte	.LFB124
 1477 000c 1C000000 		.4byte	.LFE124
 1478 0010 00000000 		.4byte	.LFB125
 1479 0014 1C000000 		.4byte	.LFE125
 1480 0018 00000000 		.4byte	.LFB126
 1481 001c 48000000 		.4byte	.LFE126
 1482 0020 00000000 		.4byte	.LFB127
ARM GAS  /var/folders/m4/4md61f0s1_g0rzfghffqnxvr0000gn/T//ccERMEff.s 			page 27


 1483 0024 1C000000 		.4byte	.LFE127
 1484 0028 00000000 		.4byte	.LFB128
 1485 002c 1C000000 		.4byte	.LFE128
 1486 0030 00000000 		.4byte	.LFB129
 1487 0034 10000000 		.4byte	.LFE129
 1488 0038 00000000 		.4byte	0
 1489 003c 00000000 		.4byte	0
 1490              		.section	.debug_line,"",%progbits
 1491              	.Ldebug_line0:
 1492 0000 B6020000 		.section	.debug_str,"MS",%progbits,1
 1492      02001E02 
 1492      00000201 
 1492      FB0E0D00 
 1492      01010101 
 1493              	.LASF4:
 1494 0000 5F5F7569 		.ascii	"__uint8_t\000"
 1494      6E74385F 
 1494      7400
 1495              	.LASF21:
 1496 000a 43464752 		.ascii	"CFGR\000"
 1496      00
 1497              	.LASF33:
 1498 000f 61737365 		.ascii	"assert_param\000"
 1498      72745F70 
 1498      6172616D 
 1498      00
 1499              	.LASF37:
 1500 001c 53595343 		.ascii	"SYSCFG_ETH_MediaInterfaceConfig\000"
 1500      46475F45 
 1500      54485F4D 
 1500      65646961 
 1500      496E7465 
 1501              	.LASF5:
 1502 003c 5F5F696E 		.ascii	"__int32_t\000"
 1502      7433325F 
 1502      7400
 1503              	.LASF39:
 1504 0046 53595343 		.ascii	"SYSCFG_CompensationCellCmd\000"
 1504      46475F43 
 1504      6F6D7065 
 1504      6E736174 
 1504      696F6E43 
 1505              	.LASF3:
 1506 0061 73686F72 		.ascii	"short unsigned int\000"
 1506      7420756E 
 1506      7369676E 
 1506      65642069 
 1506      6E7400
 1507              	.LASF45:
 1508 0074 53595343 		.ascii	"SYSCFG_GetCompensationCellStatus\000"
 1508      46475F47 
 1508      6574436F 
 1508      6D70656E 
 1508      73617469 
 1509              	.LASF27:
 1510 0095 46756E63 		.ascii	"FunctionalState\000"
 1510      74696F6E 
ARM GAS  /var/folders/m4/4md61f0s1_g0rzfghffqnxvr0000gn/T//ccERMEff.s 			page 28


 1510      616C5374 
 1510      61746500 
 1511              	.LASF20:
 1512 00a5 52455345 		.ascii	"RESERVED1\000"
 1512      52564544 
 1512      3100
 1513              	.LASF38:
 1514 00af 53595343 		.ascii	"SYSCFG_ETH_MediaInterface\000"
 1514      46475F45 
 1514      54485F4D 
 1514      65646961 
 1514      496E7465 
 1515              	.LASF7:
 1516 00c9 5F5F7569 		.ascii	"__uint32_t\000"
 1516      6E743332 
 1516      5F7400
 1517              	.LASF26:
 1518 00d4 454E4142 		.ascii	"ENABLE\000"
 1518      4C4500
 1519              	.LASF34:
 1520 00db 53595343 		.ascii	"SYSCFG_EXTILineConfig\000"
 1520      46475F45 
 1520      5854494C 
 1520      696E6543 
 1520      6F6E6669 
 1521              	.LASF19:
 1522 00f1 434D5043 		.ascii	"CMPCR\000"
 1522      5200
 1523              	.LASF1:
 1524 00f7 756E7369 		.ascii	"unsigned char\000"
 1524      676E6564 
 1524      20636861 
 1524      7200
 1525              	.LASF24:
 1526 0105 466C6167 		.ascii	"FlagStatus\000"
 1526      53746174 
 1526      757300
 1527              	.LASF8:
 1528 0110 6C6F6E67 		.ascii	"long unsigned int\000"
 1528      20756E73 
 1528      69676E65 
 1528      6420696E 
 1528      7400
 1529              	.LASF16:
 1530 0122 4D454D52 		.ascii	"MEMRMP\000"
 1530      4D5000
 1531              	.LASF44:
 1532 0129 2F557365 		.ascii	"/Users/raphael/Documents/Projects/pcb-quadrotor/cod"
 1532      72732F72 
 1532      61706861 
 1532      656C2F44 
 1532      6F63756D 
 1533 015c 6500     		.ascii	"e\000"
 1534              	.LASF41:
 1535 015e 5243435F 		.ascii	"RCC_APB2PeriphResetCmd\000"
 1535      41504232 
 1535      50657269 
ARM GAS  /var/folders/m4/4md61f0s1_g0rzfghffqnxvr0000gn/T//ccERMEff.s 			page 29


 1535      70685265 
 1535      73657443 
 1536              	.LASF46:
 1537 0175 49544D5F 		.ascii	"ITM_RxBuffer\000"
 1537      52784275 
 1537      66666572 
 1537      00
 1538              	.LASF36:
 1539 0182 45585449 		.ascii	"EXTI_PinSourcex\000"
 1539      5F50696E 
 1539      536F7572 
 1539      63657800 
 1540              	.LASF18:
 1541 0192 52455345 		.ascii	"RESERVED\000"
 1541      52564544 
 1541      00
 1542              	.LASF17:
 1543 019b 45585449 		.ascii	"EXTICR\000"
 1543      435200
 1544              	.LASF11:
 1545 01a2 756E7369 		.ascii	"unsigned int\000"
 1545      676E6564 
 1545      20696E74 
 1545      00
 1546              	.LASF23:
 1547 01af 52455345 		.ascii	"RESET\000"
 1547      5400
 1548              	.LASF10:
 1549 01b5 6C6F6E67 		.ascii	"long long unsigned int\000"
 1549      206C6F6E 
 1549      6720756E 
 1549      7369676E 
 1549      65642069 
 1550              	.LASF12:
 1551 01cc 75696E74 		.ascii	"uint8_t\000"
 1551      385F7400 
 1552              	.LASF0:
 1553 01d4 7369676E 		.ascii	"signed char\000"
 1553      65642063 
 1553      68617200 
 1554              	.LASF13:
 1555 01e0 696E7433 		.ascii	"int32_t\000"
 1555      325F7400 
 1556              	.LASF15:
 1557 01e8 73697A65 		.ascii	"sizetype\000"
 1557      74797065 
 1557      00
 1558              	.LASF9:
 1559 01f1 6C6F6E67 		.ascii	"long long int\000"
 1559      206C6F6E 
 1559      6720696E 
 1559      7400
 1560              	.LASF43:
 1561 01ff 43686962 		.ascii	"ChibiOS_16.1.4/ext/stdperiph_stm32f4/src/stm32f4xx_"
 1561      694F535F 
 1561      31362E31 
 1561      2E342F65 
ARM GAS  /var/folders/m4/4md61f0s1_g0rzfghffqnxvr0000gn/T//ccERMEff.s 			page 30


 1561      78742F73 
 1562 0232 73797363 		.ascii	"syscfg.c\000"
 1562      66672E63 
 1562      00
 1563              	.LASF31:
 1564 023b 53595343 		.ascii	"SYSCFG_MemoryRemap\000"
 1564      46475F4D 
 1564      656D6F72 
 1564      7952656D 
 1564      617000
 1565              	.LASF2:
 1566 024e 73686F72 		.ascii	"short int\000"
 1566      7420696E 
 1566      7400
 1567              	.LASF32:
 1568 0258 4E657753 		.ascii	"NewState\000"
 1568      74617465 
 1568      00
 1569              	.LASF22:
 1570 0261 53595343 		.ascii	"SYSCFG_TypeDef\000"
 1570      46475F54 
 1570      79706544 
 1570      656600
 1571              	.LASF35:
 1572 0270 45585449 		.ascii	"EXTI_PortSourceGPIOx\000"
 1572      5F506F72 
 1572      74536F75 
 1572      72636547 
 1572      50494F78 
 1573              	.LASF28:
 1574 0285 53595343 		.ascii	"SYSCFG_DeInit\000"
 1574      46475F44 
 1574      65496E69 
 1574      7400
 1575              	.LASF14:
 1576 0293 75696E74 		.ascii	"uint32_t\000"
 1576      33325F74 
 1576      00
 1577              	.LASF6:
 1578 029c 6C6F6E67 		.ascii	"long int\000"
 1578      20696E74 
 1578      00
 1579              	.LASF25:
 1580 02a5 44495341 		.ascii	"DISABLE\000"
 1580      424C4500 
 1581              	.LASF42:
 1582 02ad 474E5520 		.ascii	"GNU C99 5.2.1 20151202 (release) [ARM/embedded-5-br"
 1582      43393920 
 1582      352E322E 
 1582      31203230 
 1582      31353132 
 1583 02e0 616E6368 		.ascii	"anch revision 231848] -mcpu=cortex-m4 -mfloat-abi=h"
 1583      20726576 
 1583      6973696F 
 1583      6E203233 
 1583      31383438 
 1584 0313 61726420 		.ascii	"ard -mfpu=fpv4-sp-d16 -mno-thumb-interwork -mthumb "
ARM GAS  /var/folders/m4/4md61f0s1_g0rzfghffqnxvr0000gn/T//ccERMEff.s 			page 31


 1584      2D6D6670 
 1584      753D6670 
 1584      76342D73 
 1584      702D6431 
 1585 0346 2D676764 		.ascii	"-ggdb -O2 -std=c99 -fomit-frame-pointer -falign-fun"
 1585      62202D4F 
 1585      32202D73 
 1585      74643D63 
 1585      3939202D 
 1586 0379 6374696F 		.ascii	"ctions=16 -ffunction-sections -fdata-sections -fno-"
 1586      6E733D31 
 1586      36202D66 
 1586      66756E63 
 1586      74696F6E 
 1587 03ac 636F6D6D 		.ascii	"common\000"
 1587      6F6E00
 1588              	.LASF40:
 1589 03b3 62697473 		.ascii	"bitstatus\000"
 1589      74617475 
 1589      7300
 1590              	.LASF30:
 1591 03bd 53595343 		.ascii	"SYSCFG_MemorySwappingBank\000"
 1591      46475F4D 
 1591      656D6F72 
 1591      79537761 
 1591      7070696E 
 1592              	.LASF29:
 1593 03d7 53595343 		.ascii	"SYSCFG_MemoryRemapConfig\000"
 1593      46475F4D 
 1593      656D6F72 
 1593      7952656D 
 1593      6170436F 
 1594              		.ident	"GCC: (GNU Tools for ARM Embedded Processors) 5.2.1 20151202 (release) [ARM/embedded-5-bran
ARM GAS  /var/folders/m4/4md61f0s1_g0rzfghffqnxvr0000gn/T//ccERMEff.s 			page 32


DEFINED SYMBOLS
                            *ABS*:0000000000000000 stm32f4xx_syscfg.c
/var/folders/m4/4md61f0s1_g0rzfghffqnxvr0000gn/T//ccERMEff.s:22     .text.SYSCFG_DeInit:0000000000000000 $t
/var/folders/m4/4md61f0s1_g0rzfghffqnxvr0000gn/T//ccERMEff.s:28     .text.SYSCFG_DeInit:0000000000000000 SYSCFG_DeInit
/var/folders/m4/4md61f0s1_g0rzfghffqnxvr0000gn/T//ccERMEff.s:59     .text.SYSCFG_MemoryRemapConfig:0000000000000000 $t
/var/folders/m4/4md61f0s1_g0rzfghffqnxvr0000gn/T//ccERMEff.s:65     .text.SYSCFG_MemoryRemapConfig:0000000000000000 SYSCFG_MemoryRemapConfig
/var/folders/m4/4md61f0s1_g0rzfghffqnxvr0000gn/T//ccERMEff.s:94     .text.SYSCFG_MemoryRemapConfig:0000000000000018 $d
/var/folders/m4/4md61f0s1_g0rzfghffqnxvr0000gn/T//ccERMEff.s:99     .text.SYSCFG_MemorySwappingBank:0000000000000000 $t
/var/folders/m4/4md61f0s1_g0rzfghffqnxvr0000gn/T//ccERMEff.s:105    .text.SYSCFG_MemorySwappingBank:0000000000000000 SYSCFG_MemorySwappingBank
/var/folders/m4/4md61f0s1_g0rzfghffqnxvr0000gn/T//ccERMEff.s:134    .text.SYSCFG_MemorySwappingBank:0000000000000018 $d
/var/folders/m4/4md61f0s1_g0rzfghffqnxvr0000gn/T//ccERMEff.s:139    .text.SYSCFG_EXTILineConfig:0000000000000000 $t
/var/folders/m4/4md61f0s1_g0rzfghffqnxvr0000gn/T//ccERMEff.s:145    .text.SYSCFG_EXTILineConfig:0000000000000000 SYSCFG_EXTILineConfig
/var/folders/m4/4md61f0s1_g0rzfghffqnxvr0000gn/T//ccERMEff.s:206    .text.SYSCFG_ETH_MediaInterfaceConfig:0000000000000000 $t
/var/folders/m4/4md61f0s1_g0rzfghffqnxvr0000gn/T//ccERMEff.s:212    .text.SYSCFG_ETH_MediaInterfaceConfig:0000000000000000 SYSCFG_ETH_MediaInterfaceConfig
/var/folders/m4/4md61f0s1_g0rzfghffqnxvr0000gn/T//ccERMEff.s:242    .text.SYSCFG_ETH_MediaInterfaceConfig:0000000000000018 $d
/var/folders/m4/4md61f0s1_g0rzfghffqnxvr0000gn/T//ccERMEff.s:247    .text.SYSCFG_CompensationCellCmd:0000000000000000 $t
/var/folders/m4/4md61f0s1_g0rzfghffqnxvr0000gn/T//ccERMEff.s:253    .text.SYSCFG_CompensationCellCmd:0000000000000000 SYSCFG_CompensationCellCmd
/var/folders/m4/4md61f0s1_g0rzfghffqnxvr0000gn/T//ccERMEff.s:282    .text.SYSCFG_CompensationCellCmd:0000000000000018 $d
/var/folders/m4/4md61f0s1_g0rzfghffqnxvr0000gn/T//ccERMEff.s:287    .text.SYSCFG_GetCompensationCellStatus:0000000000000000 $t
/var/folders/m4/4md61f0s1_g0rzfghffqnxvr0000gn/T//ccERMEff.s:293    .text.SYSCFG_GetCompensationCellStatus:0000000000000000 SYSCFG_GetCompensationCellStatus
/var/folders/m4/4md61f0s1_g0rzfghffqnxvr0000gn/T//ccERMEff.s:312    .text.SYSCFG_GetCompensationCellStatus:000000000000000c $d
                     .debug_frame:0000000000000010 $d

UNDEFINED SYMBOLS
RCC_APB2PeriphResetCmd
assert_param
