ARM GAS  /var/folders/m4/4md61f0s1_g0rzfghffqnxvr0000gn/T//cce2qWbc.s 			page 1


   1              		.syntax unified
   2              		.cpu cortex-m4
   3              		.eabi_attribute 27, 1
   4              		.eabi_attribute 28, 1
   5              		.fpu fpv4-sp-d16
   6              		.eabi_attribute 20, 1
   7              		.eabi_attribute 21, 1
   8              		.eabi_attribute 23, 3
   9              		.eabi_attribute 24, 1
  10              		.eabi_attribute 25, 1
  11              		.eabi_attribute 26, 1
  12              		.eabi_attribute 30, 2
  13              		.eabi_attribute 34, 1
  14              		.eabi_attribute 18, 4
  15              		.thumb
  16              		.syntax unified
  17              		.file	"stm32_dma.c"
  18              		.text
  19              	.Ltext0:
  20              		.cfi_sections	.debug_frame
  21              		.section	.text.Vector6C,"ax",%progbits
  22              		.align	2
  23              		.p2align 4,,15
  24              		.global	Vector6C
  25              		.thumb
  26              		.thumb_func
  27              		.type	Vector6C, %function
  28              	Vector6C:
  29              	.LFB268:
  30              		.file 1 "ChibiOS_16.1.4/os/hal/ports/STM32/LLD/DMAv2/stm32_dma.c"
  31              		.loc 1 117 0
  32              		.cfi_startproc
  33              		@ args = 0, pretend = 0, frame = 0
  34              		@ frame_needed = 0, uses_anonymous_args = 0
  35 0000 08B5     		push	{r3, lr}
  36              		.cfi_def_cfa_offset 8
  37              		.cfi_offset 3, -8
  38              		.cfi_offset 14, -4
  39              		.loc 1 122 0
  40 0002 074B     		ldr	r3, .L8
  41              		.loc 1 124 0
  42 0004 074A     		ldr	r2, .L8+4
  43              		.loc 1 122 0
  44 0006 1968     		ldr	r1, [r3]
  45 0008 01F03D01 		and	r1, r1, #61
  46              	.LVL0:
  47              		.loc 1 123 0
  48 000c 9960     		str	r1, [r3, #8]
  49              		.loc 1 124 0
  50 000e 1368     		ldr	r3, [r2]
  51 0010 0BB1     		cbz	r3, .L2
  52              		.loc 1 125 0
  53 0012 5068     		ldr	r0, [r2, #4]
  54 0014 9847     		blx	r3
  55              	.LVL1:
  56              	.L2:
  57              		.loc 1 128 0
ARM GAS  /var/folders/m4/4md61f0s1_g0rzfghffqnxvr0000gn/T//cce2qWbc.s 			page 2


  58 0016 BDE80840 		pop	{r3, lr}
  59              		.cfi_restore 14
  60              		.cfi_restore 3
  61              		.cfi_def_cfa_offset 0
  62              		.loc 1 127 0
  63 001a FFF7FEBF 		b	_port_irq_epilogue
  64              	.LVL2:
  65              	.L9:
  66 001e 00BF     		.align	2
  67              	.L8:
  68 0020 00600240 		.word	1073897472
  69 0024 00000000 		.word	.LANCHOR0
  70              		.cfi_endproc
  71              	.LFE268:
  72              		.size	Vector6C, .-Vector6C
  73              		.section	.text.Vector70,"ax",%progbits
  74              		.align	2
  75              		.p2align 4,,15
  76              		.global	Vector70
  77              		.thumb
  78              		.thumb_func
  79              		.type	Vector70, %function
  80              	Vector70:
  81              	.LFB269:
  82              		.loc 1 135 0
  83              		.cfi_startproc
  84              		@ args = 0, pretend = 0, frame = 0
  85              		@ frame_needed = 0, uses_anonymous_args = 0
  86              		.loc 1 140 0
  87 0000 084B     		ldr	r3, .L16
  88              		.loc 1 142 0
  89 0002 0948     		ldr	r0, .L16+4
  90              		.loc 1 140 0
  91 0004 1968     		ldr	r1, [r3]
  92              		.loc 1 142 0
  93 0006 8268     		ldr	r2, [r0, #8]
  94              		.loc 1 140 0
  95 0008 8909     		lsrs	r1, r1, #6
  96 000a 01F03D01 		and	r1, r1, #61
  97              	.LVL3:
  98              		.loc 1 135 0
  99 000e 10B5     		push	{r4, lr}
 100              		.cfi_def_cfa_offset 8
 101              		.cfi_offset 4, -8
 102              		.cfi_offset 14, -4
 103              		.loc 1 141 0
 104 0010 8C01     		lsls	r4, r1, #6
 105 0012 9C60     		str	r4, [r3, #8]
 106              		.loc 1 142 0
 107 0014 0AB1     		cbz	r2, .L11
 108              		.loc 1 143 0
 109 0016 C068     		ldr	r0, [r0, #12]
 110 0018 9047     		blx	r2
 111              	.LVL4:
 112              	.L11:
 113              		.loc 1 146 0
 114 001a BDE81040 		pop	{r4, lr}
ARM GAS  /var/folders/m4/4md61f0s1_g0rzfghffqnxvr0000gn/T//cce2qWbc.s 			page 3


 115              		.cfi_restore 14
 116              		.cfi_restore 4
 117              		.cfi_def_cfa_offset 0
 118              		.loc 1 145 0
 119 001e FFF7FEBF 		b	_port_irq_epilogue
 120              	.LVL5:
 121              	.L17:
 122 0022 00BF     		.align	2
 123              	.L16:
 124 0024 00600240 		.word	1073897472
 125 0028 00000000 		.word	.LANCHOR0
 126              		.cfi_endproc
 127              	.LFE269:
 128              		.size	Vector70, .-Vector70
 129              		.section	.text.Vector74,"ax",%progbits
 130              		.align	2
 131              		.p2align 4,,15
 132              		.global	Vector74
 133              		.thumb
 134              		.thumb_func
 135              		.type	Vector74, %function
 136              	Vector74:
 137              	.LFB270:
 138              		.loc 1 153 0
 139              		.cfi_startproc
 140              		@ args = 0, pretend = 0, frame = 0
 141              		@ frame_needed = 0, uses_anonymous_args = 0
 142              		.loc 1 158 0
 143 0000 084B     		ldr	r3, .L24
 144              		.loc 1 160 0
 145 0002 0948     		ldr	r0, .L24+4
 146              		.loc 1 158 0
 147 0004 1968     		ldr	r1, [r3]
 148              		.loc 1 160 0
 149 0006 0269     		ldr	r2, [r0, #16]
 150              		.loc 1 158 0
 151 0008 090C     		lsrs	r1, r1, #16
 152 000a 01F03D01 		and	r1, r1, #61
 153              	.LVL6:
 154              		.loc 1 153 0
 155 000e 10B5     		push	{r4, lr}
 156              		.cfi_def_cfa_offset 8
 157              		.cfi_offset 4, -8
 158              		.cfi_offset 14, -4
 159              		.loc 1 159 0
 160 0010 0C04     		lsls	r4, r1, #16
 161 0012 9C60     		str	r4, [r3, #8]
 162              		.loc 1 160 0
 163 0014 0AB1     		cbz	r2, .L19
 164              		.loc 1 161 0
 165 0016 4069     		ldr	r0, [r0, #20]
 166 0018 9047     		blx	r2
 167              	.LVL7:
 168              	.L19:
 169              		.loc 1 164 0
 170 001a BDE81040 		pop	{r4, lr}
 171              		.cfi_restore 14
ARM GAS  /var/folders/m4/4md61f0s1_g0rzfghffqnxvr0000gn/T//cce2qWbc.s 			page 4


 172              		.cfi_restore 4
 173              		.cfi_def_cfa_offset 0
 174              		.loc 1 163 0
 175 001e FFF7FEBF 		b	_port_irq_epilogue
 176              	.LVL8:
 177              	.L25:
 178 0022 00BF     		.align	2
 179              	.L24:
 180 0024 00600240 		.word	1073897472
 181 0028 00000000 		.word	.LANCHOR0
 182              		.cfi_endproc
 183              	.LFE270:
 184              		.size	Vector74, .-Vector74
 185              		.section	.text.Vector78,"ax",%progbits
 186              		.align	2
 187              		.p2align 4,,15
 188              		.global	Vector78
 189              		.thumb
 190              		.thumb_func
 191              		.type	Vector78, %function
 192              	Vector78:
 193              	.LFB271:
 194              		.loc 1 171 0
 195              		.cfi_startproc
 196              		@ args = 0, pretend = 0, frame = 0
 197              		@ frame_needed = 0, uses_anonymous_args = 0
 198              		.loc 1 176 0
 199 0000 084B     		ldr	r3, .L32
 200              		.loc 1 178 0
 201 0002 0948     		ldr	r0, .L32+4
 202              		.loc 1 176 0
 203 0004 1968     		ldr	r1, [r3]
 204              		.loc 1 178 0
 205 0006 8269     		ldr	r2, [r0, #24]
 206              		.loc 1 176 0
 207 0008 890D     		lsrs	r1, r1, #22
 208 000a 01F03D01 		and	r1, r1, #61
 209              	.LVL9:
 210              		.loc 1 171 0
 211 000e 10B5     		push	{r4, lr}
 212              		.cfi_def_cfa_offset 8
 213              		.cfi_offset 4, -8
 214              		.cfi_offset 14, -4
 215              		.loc 1 177 0
 216 0010 8C05     		lsls	r4, r1, #22
 217 0012 9C60     		str	r4, [r3, #8]
 218              		.loc 1 178 0
 219 0014 0AB1     		cbz	r2, .L27
 220              		.loc 1 179 0
 221 0016 C069     		ldr	r0, [r0, #28]
 222 0018 9047     		blx	r2
 223              	.LVL10:
 224              	.L27:
 225              		.loc 1 182 0
 226 001a BDE81040 		pop	{r4, lr}
 227              		.cfi_restore 14
 228              		.cfi_restore 4
ARM GAS  /var/folders/m4/4md61f0s1_g0rzfghffqnxvr0000gn/T//cce2qWbc.s 			page 5


 229              		.cfi_def_cfa_offset 0
 230              		.loc 1 181 0
 231 001e FFF7FEBF 		b	_port_irq_epilogue
 232              	.LVL11:
 233              	.L33:
 234 0022 00BF     		.align	2
 235              	.L32:
 236 0024 00600240 		.word	1073897472
 237 0028 00000000 		.word	.LANCHOR0
 238              		.cfi_endproc
 239              	.LFE271:
 240              		.size	Vector78, .-Vector78
 241              		.section	.text.Vector7C,"ax",%progbits
 242              		.align	2
 243              		.p2align 4,,15
 244              		.global	Vector7C
 245              		.thumb
 246              		.thumb_func
 247              		.type	Vector7C, %function
 248              	Vector7C:
 249              	.LFB272:
 250              		.loc 1 189 0
 251              		.cfi_startproc
 252              		@ args = 0, pretend = 0, frame = 0
 253              		@ frame_needed = 0, uses_anonymous_args = 0
 254 0000 08B5     		push	{r3, lr}
 255              		.cfi_def_cfa_offset 8
 256              		.cfi_offset 3, -8
 257              		.cfi_offset 14, -4
 258              		.loc 1 194 0
 259 0002 074B     		ldr	r3, .L40
 260              		.loc 1 196 0
 261 0004 0748     		ldr	r0, .L40+4
 262              		.loc 1 194 0
 263 0006 5968     		ldr	r1, [r3, #4]
 264              		.loc 1 196 0
 265 0008 026A     		ldr	r2, [r0, #32]
 266              		.loc 1 194 0
 267 000a 01F03D01 		and	r1, r1, #61
 268              	.LVL12:
 269              		.loc 1 195 0
 270 000e D960     		str	r1, [r3, #12]
 271              		.loc 1 196 0
 272 0010 0AB1     		cbz	r2, .L35
 273              		.loc 1 197 0
 274 0012 406A     		ldr	r0, [r0, #36]
 275 0014 9047     		blx	r2
 276              	.LVL13:
 277              	.L35:
 278              		.loc 1 200 0
 279 0016 BDE80840 		pop	{r3, lr}
 280              		.cfi_restore 14
 281              		.cfi_restore 3
 282              		.cfi_def_cfa_offset 0
 283              		.loc 1 199 0
 284 001a FFF7FEBF 		b	_port_irq_epilogue
 285              	.LVL14:
ARM GAS  /var/folders/m4/4md61f0s1_g0rzfghffqnxvr0000gn/T//cce2qWbc.s 			page 6


 286              	.L41:
 287 001e 00BF     		.align	2
 288              	.L40:
 289 0020 00600240 		.word	1073897472
 290 0024 00000000 		.word	.LANCHOR0
 291              		.cfi_endproc
 292              	.LFE272:
 293              		.size	Vector7C, .-Vector7C
 294              		.section	.text.Vector80,"ax",%progbits
 295              		.align	2
 296              		.p2align 4,,15
 297              		.global	Vector80
 298              		.thumb
 299              		.thumb_func
 300              		.type	Vector80, %function
 301              	Vector80:
 302              	.LFB273:
 303              		.loc 1 207 0
 304              		.cfi_startproc
 305              		@ args = 0, pretend = 0, frame = 0
 306              		@ frame_needed = 0, uses_anonymous_args = 0
 307              		.loc 1 212 0
 308 0000 084B     		ldr	r3, .L48
 309              		.loc 1 214 0
 310 0002 0948     		ldr	r0, .L48+4
 311              		.loc 1 212 0
 312 0004 5968     		ldr	r1, [r3, #4]
 313              		.loc 1 214 0
 314 0006 826A     		ldr	r2, [r0, #40]
 315              		.loc 1 212 0
 316 0008 8909     		lsrs	r1, r1, #6
 317 000a 01F03D01 		and	r1, r1, #61
 318              	.LVL15:
 319              		.loc 1 207 0
 320 000e 10B5     		push	{r4, lr}
 321              		.cfi_def_cfa_offset 8
 322              		.cfi_offset 4, -8
 323              		.cfi_offset 14, -4
 324              		.loc 1 213 0
 325 0010 8C01     		lsls	r4, r1, #6
 326 0012 DC60     		str	r4, [r3, #12]
 327              		.loc 1 214 0
 328 0014 0AB1     		cbz	r2, .L43
 329              		.loc 1 215 0
 330 0016 C06A     		ldr	r0, [r0, #44]
 331 0018 9047     		blx	r2
 332              	.LVL16:
 333              	.L43:
 334              		.loc 1 218 0
 335 001a BDE81040 		pop	{r4, lr}
 336              		.cfi_restore 14
 337              		.cfi_restore 4
 338              		.cfi_def_cfa_offset 0
 339              		.loc 1 217 0
 340 001e FFF7FEBF 		b	_port_irq_epilogue
 341              	.LVL17:
 342              	.L49:
ARM GAS  /var/folders/m4/4md61f0s1_g0rzfghffqnxvr0000gn/T//cce2qWbc.s 			page 7


 343 0022 00BF     		.align	2
 344              	.L48:
 345 0024 00600240 		.word	1073897472
 346 0028 00000000 		.word	.LANCHOR0
 347              		.cfi_endproc
 348              	.LFE273:
 349              		.size	Vector80, .-Vector80
 350              		.section	.text.Vector84,"ax",%progbits
 351              		.align	2
 352              		.p2align 4,,15
 353              		.global	Vector84
 354              		.thumb
 355              		.thumb_func
 356              		.type	Vector84, %function
 357              	Vector84:
 358              	.LFB274:
 359              		.loc 1 225 0
 360              		.cfi_startproc
 361              		@ args = 0, pretend = 0, frame = 0
 362              		@ frame_needed = 0, uses_anonymous_args = 0
 363              		.loc 1 230 0
 364 0000 084B     		ldr	r3, .L56
 365              		.loc 1 232 0
 366 0002 0948     		ldr	r0, .L56+4
 367              		.loc 1 230 0
 368 0004 5968     		ldr	r1, [r3, #4]
 369              		.loc 1 232 0
 370 0006 026B     		ldr	r2, [r0, #48]
 371              		.loc 1 230 0
 372 0008 090C     		lsrs	r1, r1, #16
 373 000a 01F03D01 		and	r1, r1, #61
 374              	.LVL18:
 375              		.loc 1 225 0
 376 000e 10B5     		push	{r4, lr}
 377              		.cfi_def_cfa_offset 8
 378              		.cfi_offset 4, -8
 379              		.cfi_offset 14, -4
 380              		.loc 1 231 0
 381 0010 0C04     		lsls	r4, r1, #16
 382 0012 DC60     		str	r4, [r3, #12]
 383              		.loc 1 232 0
 384 0014 0AB1     		cbz	r2, .L51
 385              		.loc 1 233 0
 386 0016 406B     		ldr	r0, [r0, #52]
 387 0018 9047     		blx	r2
 388              	.LVL19:
 389              	.L51:
 390              		.loc 1 236 0
 391 001a BDE81040 		pop	{r4, lr}
 392              		.cfi_restore 14
 393              		.cfi_restore 4
 394              		.cfi_def_cfa_offset 0
 395              		.loc 1 235 0
 396 001e FFF7FEBF 		b	_port_irq_epilogue
 397              	.LVL20:
 398              	.L57:
 399 0022 00BF     		.align	2
ARM GAS  /var/folders/m4/4md61f0s1_g0rzfghffqnxvr0000gn/T//cce2qWbc.s 			page 8


 400              	.L56:
 401 0024 00600240 		.word	1073897472
 402 0028 00000000 		.word	.LANCHOR0
 403              		.cfi_endproc
 404              	.LFE274:
 405              		.size	Vector84, .-Vector84
 406              		.section	.text.VectorFC,"ax",%progbits
 407              		.align	2
 408              		.p2align 4,,15
 409              		.global	VectorFC
 410              		.thumb
 411              		.thumb_func
 412              		.type	VectorFC, %function
 413              	VectorFC:
 414              	.LFB275:
 415              		.loc 1 243 0
 416              		.cfi_startproc
 417              		@ args = 0, pretend = 0, frame = 0
 418              		@ frame_needed = 0, uses_anonymous_args = 0
 419              		.loc 1 248 0
 420 0000 084B     		ldr	r3, .L64
 421              		.loc 1 250 0
 422 0002 0948     		ldr	r0, .L64+4
 423              		.loc 1 248 0
 424 0004 5968     		ldr	r1, [r3, #4]
 425              		.loc 1 250 0
 426 0006 826B     		ldr	r2, [r0, #56]
 427              		.loc 1 248 0
 428 0008 890D     		lsrs	r1, r1, #22
 429 000a 01F03D01 		and	r1, r1, #61
 430              	.LVL21:
 431              		.loc 1 243 0
 432 000e 10B5     		push	{r4, lr}
 433              		.cfi_def_cfa_offset 8
 434              		.cfi_offset 4, -8
 435              		.cfi_offset 14, -4
 436              		.loc 1 249 0
 437 0010 8C05     		lsls	r4, r1, #22
 438 0012 DC60     		str	r4, [r3, #12]
 439              		.loc 1 250 0
 440 0014 0AB1     		cbz	r2, .L59
 441              		.loc 1 251 0
 442 0016 C06B     		ldr	r0, [r0, #60]
 443 0018 9047     		blx	r2
 444              	.LVL22:
 445              	.L59:
 446              		.loc 1 254 0
 447 001a BDE81040 		pop	{r4, lr}
 448              		.cfi_restore 14
 449              		.cfi_restore 4
 450              		.cfi_def_cfa_offset 0
 451              		.loc 1 253 0
 452 001e FFF7FEBF 		b	_port_irq_epilogue
 453              	.LVL23:
 454              	.L65:
 455 0022 00BF     		.align	2
 456              	.L64:
ARM GAS  /var/folders/m4/4md61f0s1_g0rzfghffqnxvr0000gn/T//cce2qWbc.s 			page 9


 457 0024 00600240 		.word	1073897472
 458 0028 00000000 		.word	.LANCHOR0
 459              		.cfi_endproc
 460              	.LFE275:
 461              		.size	VectorFC, .-VectorFC
 462              		.section	.text.Vector120,"ax",%progbits
 463              		.align	2
 464              		.p2align 4,,15
 465              		.global	Vector120
 466              		.thumb
 467              		.thumb_func
 468              		.type	Vector120, %function
 469              	Vector120:
 470              	.LFB276:
 471              		.loc 1 261 0
 472              		.cfi_startproc
 473              		@ args = 0, pretend = 0, frame = 0
 474              		@ frame_needed = 0, uses_anonymous_args = 0
 475 0000 08B5     		push	{r3, lr}
 476              		.cfi_def_cfa_offset 8
 477              		.cfi_offset 3, -8
 478              		.cfi_offset 14, -4
 479              		.loc 1 266 0
 480 0002 074B     		ldr	r3, .L72
 481              		.loc 1 268 0
 482 0004 0748     		ldr	r0, .L72+4
 483              		.loc 1 266 0
 484 0006 1968     		ldr	r1, [r3]
 485              		.loc 1 268 0
 486 0008 026C     		ldr	r2, [r0, #64]
 487              		.loc 1 266 0
 488 000a 01F03D01 		and	r1, r1, #61
 489              	.LVL24:
 490              		.loc 1 267 0
 491 000e 9960     		str	r1, [r3, #8]
 492              		.loc 1 268 0
 493 0010 0AB1     		cbz	r2, .L67
 494              		.loc 1 269 0
 495 0012 406C     		ldr	r0, [r0, #68]
 496 0014 9047     		blx	r2
 497              	.LVL25:
 498              	.L67:
 499              		.loc 1 272 0
 500 0016 BDE80840 		pop	{r3, lr}
 501              		.cfi_restore 14
 502              		.cfi_restore 3
 503              		.cfi_def_cfa_offset 0
 504              		.loc 1 271 0
 505 001a FFF7FEBF 		b	_port_irq_epilogue
 506              	.LVL26:
 507              	.L73:
 508 001e 00BF     		.align	2
 509              	.L72:
 510 0020 00640240 		.word	1073898496
 511 0024 00000000 		.word	.LANCHOR0
 512              		.cfi_endproc
 513              	.LFE276:
ARM GAS  /var/folders/m4/4md61f0s1_g0rzfghffqnxvr0000gn/T//cce2qWbc.s 			page 10


 514              		.size	Vector120, .-Vector120
 515              		.section	.text.Vector124,"ax",%progbits
 516              		.align	2
 517              		.p2align 4,,15
 518              		.global	Vector124
 519              		.thumb
 520              		.thumb_func
 521              		.type	Vector124, %function
 522              	Vector124:
 523              	.LFB277:
 524              		.loc 1 279 0
 525              		.cfi_startproc
 526              		@ args = 0, pretend = 0, frame = 0
 527              		@ frame_needed = 0, uses_anonymous_args = 0
 528              		.loc 1 284 0
 529 0000 084B     		ldr	r3, .L80
 530              		.loc 1 286 0
 531 0002 0948     		ldr	r0, .L80+4
 532              		.loc 1 284 0
 533 0004 1968     		ldr	r1, [r3]
 534              		.loc 1 286 0
 535 0006 826C     		ldr	r2, [r0, #72]
 536              		.loc 1 284 0
 537 0008 8909     		lsrs	r1, r1, #6
 538 000a 01F03D01 		and	r1, r1, #61
 539              	.LVL27:
 540              		.loc 1 279 0
 541 000e 10B5     		push	{r4, lr}
 542              		.cfi_def_cfa_offset 8
 543              		.cfi_offset 4, -8
 544              		.cfi_offset 14, -4
 545              		.loc 1 285 0
 546 0010 8C01     		lsls	r4, r1, #6
 547 0012 9C60     		str	r4, [r3, #8]
 548              		.loc 1 286 0
 549 0014 0AB1     		cbz	r2, .L75
 550              		.loc 1 287 0
 551 0016 C06C     		ldr	r0, [r0, #76]
 552 0018 9047     		blx	r2
 553              	.LVL28:
 554              	.L75:
 555              		.loc 1 290 0
 556 001a BDE81040 		pop	{r4, lr}
 557              		.cfi_restore 14
 558              		.cfi_restore 4
 559              		.cfi_def_cfa_offset 0
 560              		.loc 1 289 0
 561 001e FFF7FEBF 		b	_port_irq_epilogue
 562              	.LVL29:
 563              	.L81:
 564 0022 00BF     		.align	2
 565              	.L80:
 566 0024 00640240 		.word	1073898496
 567 0028 00000000 		.word	.LANCHOR0
 568              		.cfi_endproc
 569              	.LFE277:
 570              		.size	Vector124, .-Vector124
ARM GAS  /var/folders/m4/4md61f0s1_g0rzfghffqnxvr0000gn/T//cce2qWbc.s 			page 11


 571              		.section	.text.Vector128,"ax",%progbits
 572              		.align	2
 573              		.p2align 4,,15
 574              		.global	Vector128
 575              		.thumb
 576              		.thumb_func
 577              		.type	Vector128, %function
 578              	Vector128:
 579              	.LFB278:
 580              		.loc 1 297 0
 581              		.cfi_startproc
 582              		@ args = 0, pretend = 0, frame = 0
 583              		@ frame_needed = 0, uses_anonymous_args = 0
 584              		.loc 1 302 0
 585 0000 084B     		ldr	r3, .L88
 586              		.loc 1 304 0
 587 0002 0948     		ldr	r0, .L88+4
 588              		.loc 1 302 0
 589 0004 1968     		ldr	r1, [r3]
 590              		.loc 1 304 0
 591 0006 026D     		ldr	r2, [r0, #80]
 592              		.loc 1 302 0
 593 0008 090C     		lsrs	r1, r1, #16
 594 000a 01F03D01 		and	r1, r1, #61
 595              	.LVL30:
 596              		.loc 1 297 0
 597 000e 10B5     		push	{r4, lr}
 598              		.cfi_def_cfa_offset 8
 599              		.cfi_offset 4, -8
 600              		.cfi_offset 14, -4
 601              		.loc 1 303 0
 602 0010 0C04     		lsls	r4, r1, #16
 603 0012 9C60     		str	r4, [r3, #8]
 604              		.loc 1 304 0
 605 0014 0AB1     		cbz	r2, .L83
 606              		.loc 1 305 0
 607 0016 406D     		ldr	r0, [r0, #84]
 608 0018 9047     		blx	r2
 609              	.LVL31:
 610              	.L83:
 611              		.loc 1 308 0
 612 001a BDE81040 		pop	{r4, lr}
 613              		.cfi_restore 14
 614              		.cfi_restore 4
 615              		.cfi_def_cfa_offset 0
 616              		.loc 1 307 0
 617 001e FFF7FEBF 		b	_port_irq_epilogue
 618              	.LVL32:
 619              	.L89:
 620 0022 00BF     		.align	2
 621              	.L88:
 622 0024 00640240 		.word	1073898496
 623 0028 00000000 		.word	.LANCHOR0
 624              		.cfi_endproc
 625              	.LFE278:
 626              		.size	Vector128, .-Vector128
 627              		.section	.text.Vector12C,"ax",%progbits
ARM GAS  /var/folders/m4/4md61f0s1_g0rzfghffqnxvr0000gn/T//cce2qWbc.s 			page 12


 628              		.align	2
 629              		.p2align 4,,15
 630              		.global	Vector12C
 631              		.thumb
 632              		.thumb_func
 633              		.type	Vector12C, %function
 634              	Vector12C:
 635              	.LFB279:
 636              		.loc 1 315 0
 637              		.cfi_startproc
 638              		@ args = 0, pretend = 0, frame = 0
 639              		@ frame_needed = 0, uses_anonymous_args = 0
 640              		.loc 1 320 0
 641 0000 084B     		ldr	r3, .L96
 642              		.loc 1 322 0
 643 0002 0948     		ldr	r0, .L96+4
 644              		.loc 1 320 0
 645 0004 1968     		ldr	r1, [r3]
 646              		.loc 1 322 0
 647 0006 826D     		ldr	r2, [r0, #88]
 648              		.loc 1 320 0
 649 0008 890D     		lsrs	r1, r1, #22
 650 000a 01F03D01 		and	r1, r1, #61
 651              	.LVL33:
 652              		.loc 1 315 0
 653 000e 10B5     		push	{r4, lr}
 654              		.cfi_def_cfa_offset 8
 655              		.cfi_offset 4, -8
 656              		.cfi_offset 14, -4
 657              		.loc 1 321 0
 658 0010 8C05     		lsls	r4, r1, #22
 659 0012 9C60     		str	r4, [r3, #8]
 660              		.loc 1 322 0
 661 0014 0AB1     		cbz	r2, .L91
 662              		.loc 1 323 0
 663 0016 C06D     		ldr	r0, [r0, #92]
 664 0018 9047     		blx	r2
 665              	.LVL34:
 666              	.L91:
 667              		.loc 1 326 0
 668 001a BDE81040 		pop	{r4, lr}
 669              		.cfi_restore 14
 670              		.cfi_restore 4
 671              		.cfi_def_cfa_offset 0
 672              		.loc 1 325 0
 673 001e FFF7FEBF 		b	_port_irq_epilogue
 674              	.LVL35:
 675              	.L97:
 676 0022 00BF     		.align	2
 677              	.L96:
 678 0024 00640240 		.word	1073898496
 679 0028 00000000 		.word	.LANCHOR0
 680              		.cfi_endproc
 681              	.LFE279:
 682              		.size	Vector12C, .-Vector12C
 683              		.section	.text.Vector130,"ax",%progbits
 684              		.align	2
ARM GAS  /var/folders/m4/4md61f0s1_g0rzfghffqnxvr0000gn/T//cce2qWbc.s 			page 13


 685              		.p2align 4,,15
 686              		.global	Vector130
 687              		.thumb
 688              		.thumb_func
 689              		.type	Vector130, %function
 690              	Vector130:
 691              	.LFB280:
 692              		.loc 1 333 0
 693              		.cfi_startproc
 694              		@ args = 0, pretend = 0, frame = 0
 695              		@ frame_needed = 0, uses_anonymous_args = 0
 696 0000 08B5     		push	{r3, lr}
 697              		.cfi_def_cfa_offset 8
 698              		.cfi_offset 3, -8
 699              		.cfi_offset 14, -4
 700              		.loc 1 338 0
 701 0002 074B     		ldr	r3, .L104
 702              		.loc 1 340 0
 703 0004 0748     		ldr	r0, .L104+4
 704              		.loc 1 338 0
 705 0006 5968     		ldr	r1, [r3, #4]
 706              		.loc 1 340 0
 707 0008 026E     		ldr	r2, [r0, #96]
 708              		.loc 1 338 0
 709 000a 01F03D01 		and	r1, r1, #61
 710              	.LVL36:
 711              		.loc 1 339 0
 712 000e D960     		str	r1, [r3, #12]
 713              		.loc 1 340 0
 714 0010 0AB1     		cbz	r2, .L99
 715              		.loc 1 341 0
 716 0012 406E     		ldr	r0, [r0, #100]
 717 0014 9047     		blx	r2
 718              	.LVL37:
 719              	.L99:
 720              		.loc 1 344 0
 721 0016 BDE80840 		pop	{r3, lr}
 722              		.cfi_restore 14
 723              		.cfi_restore 3
 724              		.cfi_def_cfa_offset 0
 725              		.loc 1 343 0
 726 001a FFF7FEBF 		b	_port_irq_epilogue
 727              	.LVL38:
 728              	.L105:
 729 001e 00BF     		.align	2
 730              	.L104:
 731 0020 00640240 		.word	1073898496
 732 0024 00000000 		.word	.LANCHOR0
 733              		.cfi_endproc
 734              	.LFE280:
 735              		.size	Vector130, .-Vector130
 736              		.section	.text.Vector150,"ax",%progbits
 737              		.align	2
 738              		.p2align 4,,15
 739              		.global	Vector150
 740              		.thumb
 741              		.thumb_func
ARM GAS  /var/folders/m4/4md61f0s1_g0rzfghffqnxvr0000gn/T//cce2qWbc.s 			page 14


 742              		.type	Vector150, %function
 743              	Vector150:
 744              	.LFB281:
 745              		.loc 1 351 0
 746              		.cfi_startproc
 747              		@ args = 0, pretend = 0, frame = 0
 748              		@ frame_needed = 0, uses_anonymous_args = 0
 749              		.loc 1 356 0
 750 0000 084B     		ldr	r3, .L112
 751              		.loc 1 358 0
 752 0002 0948     		ldr	r0, .L112+4
 753              		.loc 1 356 0
 754 0004 5968     		ldr	r1, [r3, #4]
 755              		.loc 1 358 0
 756 0006 826E     		ldr	r2, [r0, #104]
 757              		.loc 1 356 0
 758 0008 8909     		lsrs	r1, r1, #6
 759 000a 01F03D01 		and	r1, r1, #61
 760              	.LVL39:
 761              		.loc 1 351 0
 762 000e 10B5     		push	{r4, lr}
 763              		.cfi_def_cfa_offset 8
 764              		.cfi_offset 4, -8
 765              		.cfi_offset 14, -4
 766              		.loc 1 357 0
 767 0010 8C01     		lsls	r4, r1, #6
 768 0012 DC60     		str	r4, [r3, #12]
 769              		.loc 1 358 0
 770 0014 0AB1     		cbz	r2, .L107
 771              		.loc 1 359 0
 772 0016 C06E     		ldr	r0, [r0, #108]
 773 0018 9047     		blx	r2
 774              	.LVL40:
 775              	.L107:
 776              		.loc 1 362 0
 777 001a BDE81040 		pop	{r4, lr}
 778              		.cfi_restore 14
 779              		.cfi_restore 4
 780              		.cfi_def_cfa_offset 0
 781              		.loc 1 361 0
 782 001e FFF7FEBF 		b	_port_irq_epilogue
 783              	.LVL41:
 784              	.L113:
 785 0022 00BF     		.align	2
 786              	.L112:
 787 0024 00640240 		.word	1073898496
 788 0028 00000000 		.word	.LANCHOR0
 789              		.cfi_endproc
 790              	.LFE281:
 791              		.size	Vector150, .-Vector150
 792              		.section	.text.Vector154,"ax",%progbits
 793              		.align	2
 794              		.p2align 4,,15
 795              		.global	Vector154
 796              		.thumb
 797              		.thumb_func
 798              		.type	Vector154, %function
ARM GAS  /var/folders/m4/4md61f0s1_g0rzfghffqnxvr0000gn/T//cce2qWbc.s 			page 15


 799              	Vector154:
 800              	.LFB282:
 801              		.loc 1 369 0
 802              		.cfi_startproc
 803              		@ args = 0, pretend = 0, frame = 0
 804              		@ frame_needed = 0, uses_anonymous_args = 0
 805              		.loc 1 374 0
 806 0000 084B     		ldr	r3, .L120
 807              		.loc 1 376 0
 808 0002 0948     		ldr	r0, .L120+4
 809              		.loc 1 374 0
 810 0004 5968     		ldr	r1, [r3, #4]
 811              		.loc 1 376 0
 812 0006 026F     		ldr	r2, [r0, #112]
 813              		.loc 1 374 0
 814 0008 090C     		lsrs	r1, r1, #16
 815 000a 01F03D01 		and	r1, r1, #61
 816              	.LVL42:
 817              		.loc 1 369 0
 818 000e 10B5     		push	{r4, lr}
 819              		.cfi_def_cfa_offset 8
 820              		.cfi_offset 4, -8
 821              		.cfi_offset 14, -4
 822              		.loc 1 375 0
 823 0010 0C04     		lsls	r4, r1, #16
 824 0012 DC60     		str	r4, [r3, #12]
 825              		.loc 1 376 0
 826 0014 0AB1     		cbz	r2, .L115
 827              		.loc 1 377 0
 828 0016 406F     		ldr	r0, [r0, #116]
 829 0018 9047     		blx	r2
 830              	.LVL43:
 831              	.L115:
 832              		.loc 1 380 0
 833 001a BDE81040 		pop	{r4, lr}
 834              		.cfi_restore 14
 835              		.cfi_restore 4
 836              		.cfi_def_cfa_offset 0
 837              		.loc 1 379 0
 838 001e FFF7FEBF 		b	_port_irq_epilogue
 839              	.LVL44:
 840              	.L121:
 841 0022 00BF     		.align	2
 842              	.L120:
 843 0024 00640240 		.word	1073898496
 844 0028 00000000 		.word	.LANCHOR0
 845              		.cfi_endproc
 846              	.LFE282:
 847              		.size	Vector154, .-Vector154
 848              		.section	.text.Vector158,"ax",%progbits
 849              		.align	2
 850              		.p2align 4,,15
 851              		.global	Vector158
 852              		.thumb
 853              		.thumb_func
 854              		.type	Vector158, %function
 855              	Vector158:
ARM GAS  /var/folders/m4/4md61f0s1_g0rzfghffqnxvr0000gn/T//cce2qWbc.s 			page 16


 856              	.LFB283:
 857              		.loc 1 387 0
 858              		.cfi_startproc
 859              		@ args = 0, pretend = 0, frame = 0
 860              		@ frame_needed = 0, uses_anonymous_args = 0
 861              		.loc 1 392 0
 862 0000 084B     		ldr	r3, .L128
 863              		.loc 1 394 0
 864 0002 0948     		ldr	r0, .L128+4
 865              		.loc 1 392 0
 866 0004 5968     		ldr	r1, [r3, #4]
 867              		.loc 1 394 0
 868 0006 826F     		ldr	r2, [r0, #120]
 869              		.loc 1 392 0
 870 0008 890D     		lsrs	r1, r1, #22
 871 000a 01F03D01 		and	r1, r1, #61
 872              	.LVL45:
 873              		.loc 1 387 0
 874 000e 10B5     		push	{r4, lr}
 875              		.cfi_def_cfa_offset 8
 876              		.cfi_offset 4, -8
 877              		.cfi_offset 14, -4
 878              		.loc 1 393 0
 879 0010 8C05     		lsls	r4, r1, #22
 880 0012 DC60     		str	r4, [r3, #12]
 881              		.loc 1 394 0
 882 0014 0AB1     		cbz	r2, .L123
 883              		.loc 1 395 0
 884 0016 C06F     		ldr	r0, [r0, #124]
 885 0018 9047     		blx	r2
 886              	.LVL46:
 887              	.L123:
 888              		.loc 1 398 0
 889 001a BDE81040 		pop	{r4, lr}
 890              		.cfi_restore 14
 891              		.cfi_restore 4
 892              		.cfi_def_cfa_offset 0
 893              		.loc 1 397 0
 894 001e FFF7FEBF 		b	_port_irq_epilogue
 895              	.LVL47:
 896              	.L129:
 897 0022 00BF     		.align	2
 898              	.L128:
 899 0024 00640240 		.word	1073898496
 900 0028 00000000 		.word	.LANCHOR0
 901              		.cfi_endproc
 902              	.LFE283:
 903              		.size	Vector158, .-Vector158
 904              		.section	.text.dmaInit,"ax",%progbits
 905              		.align	2
 906              		.p2align 4,,15
 907              		.global	dmaInit
 908              		.thumb
 909              		.thumb_func
 910              		.type	dmaInit, %function
 911              	dmaInit:
 912              	.LFB284:
ARM GAS  /var/folders/m4/4md61f0s1_g0rzfghffqnxvr0000gn/T//cce2qWbc.s 			page 17


 913              		.loc 1 409 0
 914              		.cfi_startproc
 915              		@ args = 0, pretend = 0, frame = 0
 916              		@ frame_needed = 0, uses_anonymous_args = 0
 917              		@ link register save eliminated.
 918              		.loc 1 412 0
 919 0000 0E49     		ldr	r1, .L136
 920 0002 0F4A     		ldr	r2, .L136+4
 921 0004 0F48     		ldr	r0, .L136+8
 922 0006 0023     		movs	r3, #0
 923              		.loc 1 409 0
 924 0008 10B4     		push	{r4}
 925              		.cfi_def_cfa_offset 4
 926              		.cfi_offset 4, -4
 927              		.loc 1 412 0
 928 000a 0B60     		str	r3, [r1]
 929              	.LVL48:
 930 000c 0E4C     		ldr	r4, .L136+12
 931              		.loc 1 414 0
 932 000e 1946     		mov	r1, r3
 933 0010 01E0     		b	.L132
 934              	.LVL49:
 935              	.L135:
 936 0012 52F80C0C 		ldr	r0, [r2, #-12]
 937              	.LVL50:
 938              	.L132:
 939              		.loc 1 414 0 is_stmt 0 discriminator 3
 940 0016 0160     		str	r1, [r0]
 941              		.loc 1 415 0 is_stmt 1 discriminator 3
 942 0018 44F83310 		str	r1, [r4, r3, lsl #3]
 943              		.loc 1 413 0 discriminator 3
 944 001c 0133     		adds	r3, r3, #1
 945              	.LVL51:
 946 001e 102B     		cmp	r3, #16
 947 0020 02F10C02 		add	r2, r2, #12
 948 0024 F5D1     		bne	.L135
 949              		.loc 1 417 0
 950 0026 0949     		ldr	r1, .L136+16
 951              		.loc 1 419 0
 952 0028 094A     		ldr	r2, .L136+20
 953              		.loc 1 421 0
 954 002a 5DF8044B 		ldr	r4, [sp], #4
 955              		.cfi_restore 4
 956              		.cfi_def_cfa_offset 0
 957              		.loc 1 417 0
 958 002e 4FF0FF33 		mov	r3, #-1
 959              	.LVL52:
 960 0032 8B60     		str	r3, [r1, #8]
 961              		.loc 1 418 0
 962 0034 CB60     		str	r3, [r1, #12]
 963              		.loc 1 419 0
 964 0036 9360     		str	r3, [r2, #8]
 965              		.loc 1 420 0
 966 0038 D360     		str	r3, [r2, #12]
 967              		.loc 1 421 0
 968 003a 7047     		bx	lr
 969              	.L137:
ARM GAS  /var/folders/m4/4md61f0s1_g0rzfghffqnxvr0000gn/T//cce2qWbc.s 			page 18


 970              		.align	2
 971              	.L136:
 972 003c 00000000 		.word	.LANCHOR1
 973 0040 0C000000 		.word	.LANCHOR2+12
 974 0044 10600240 		.word	1073897488
 975 0048 00000000 		.word	.LANCHOR0
 976 004c 00600240 		.word	1073897472
 977 0050 00640240 		.word	1073898496
 978              		.cfi_endproc
 979              	.LFE284:
 980              		.size	dmaInit, .-dmaInit
 981              		.section	.text.dmaStreamAllocate,"ax",%progbits
 982              		.align	2
 983              		.p2align 4,,15
 984              		.global	dmaStreamAllocate
 985              		.thumb
 986              		.thumb_func
 987              		.type	dmaStreamAllocate, %function
 988              	dmaStreamAllocate:
 989              	.LFB285:
 990              		.loc 1 450 0
 991              		.cfi_startproc
 992              		@ args = 0, pretend = 0, frame = 0
 993              		@ frame_needed = 0, uses_anonymous_args = 0
 994              	.LVL53:
 995 0000 F8B5     		push	{r3, r4, r5, r6, r7, lr}
 996              		.cfi_def_cfa_offset 24
 997              		.cfi_offset 3, -24
 998              		.cfi_offset 4, -20
 999              		.cfi_offset 5, -16
 1000              		.cfi_offset 6, -12
 1001              		.cfi_offset 7, -8
 1002              		.cfi_offset 14, -4
 1003              		.loc 1 455 0
 1004 0002 1F4F     		ldr	r7, .L154
 1005 0004 467A     		ldrb	r6, [r0, #9]	@ zero_extendqisi2
 1006 0006 3D68     		ldr	r5, [r7]
 1007 0008 0124     		movs	r4, #1
 1008 000a 04FA06FE 		lsl	lr, r4, r6
 1009 000e 1EEA050F 		tst	lr, r5
 1010 0012 31D1     		bne	.L143
 1011              		.loc 1 459 0
 1012 0014 1B4C     		ldr	r4, .L154+4
 1013              		.loc 1 461 0
 1014 0016 4EEA0505 		orr	r5, lr, r5
 1015              		.loc 1 460 0
 1016 001a 04EBC60E 		add	lr, r4, r6, lsl #3
 1017              		.loc 1 464 0
 1018 001e 15F0FF0F 		tst	r5, #255
 1019              		.loc 1 461 0
 1020 0022 3D60     		str	r5, [r7]
 1021              		.loc 1 459 0
 1022 0024 44F83620 		str	r2, [r4, r6, lsl #3]
 1023              		.loc 1 460 0
 1024 0028 CEF80430 		str	r3, [lr, #4]
 1025              		.loc 1 464 0
 1026 002c 04D0     		beq	.L140
ARM GAS  /var/folders/m4/4md61f0s1_g0rzfghffqnxvr0000gn/T//cce2qWbc.s 			page 19


 1027              		.loc 1 465 0
 1028 002e 164C     		ldr	r4, .L154+8
 1029 0030 236B     		ldr	r3, [r4, #48]
 1030              	.LVL54:
 1031 0032 43F40013 		orr	r3, r3, #2097152
 1032 0036 2363     		str	r3, [r4, #48]
 1033              	.L140:
 1034              		.loc 1 467 0
 1035 0038 15F47F4F 		tst	r5, #65280
 1036 003c 16D1     		bne	.L153
 1037              	.L141:
 1038              		.loc 1 472 0
 1039 003e 0568     		ldr	r5, [r0]
 1040 0040 2B68     		ldr	r3, [r5]
 1041 0042 23F01F03 		bic	r3, r3, #31
 1042 0046 2B60     		str	r3, [r5]
 1043              	.L142:
 1044              		.loc 1 472 0 is_stmt 0 discriminator 2
 1045 0048 2B68     		ldr	r3, [r5]
 1046 004a 13F00104 		ands	r4, r3, #1
 1047 004e FBD1     		bne	.L142
 1048              		.loc 1 472 0 discriminator 3
 1049 0050 077A     		ldrb	r7, [r0, #8]	@ zero_extendqisi2
 1050 0052 4668     		ldr	r6, [r0, #4]
 1051 0054 3D23     		movs	r3, #61
 1052 0056 BB40     		lsls	r3, r3, r7
 1053              		.loc 1 474 0 is_stmt 1 discriminator 3
 1054 0058 2127     		movs	r7, #33
 1055              		.loc 1 472 0 discriminator 3
 1056 005a 3360     		str	r3, [r6]
 1057              		.loc 1 473 0 discriminator 3
 1058 005c 2C60     		str	r4, [r5]
 1059              		.loc 1 474 0 discriminator 3
 1060 005e 6F61     		str	r7, [r5, #20]
 1061              		.loc 1 477 0 discriminator 3
 1062 0060 62B1     		cbz	r2, .L144
 1063              		.loc 1 478 0
 1064 0062 807A     		ldrb	r0, [r0, #10]	@ zero_extendqisi2
 1065              	.LVL55:
 1066 0064 FFF7FEFF 		bl	nvicEnableVector
 1067              	.LVL56:
 1068              		.loc 1 481 0
 1069 0068 2046     		mov	r0, r4
 1070 006a F8BD     		pop	{r3, r4, r5, r6, r7, pc}
 1071              	.LVL57:
 1072              	.L153:
 1073              		.loc 1 468 0
 1074 006c 064C     		ldr	r4, .L154+8
 1075 006e 236B     		ldr	r3, [r4, #48]
 1076 0070 43F48003 		orr	r3, r3, #4194304
 1077 0074 2363     		str	r3, [r4, #48]
 1078 0076 E2E7     		b	.L141
 1079              	.LVL58:
 1080              	.L143:
 1081              		.loc 1 456 0
 1082 0078 2046     		mov	r0, r4
 1083              	.LVL59:
ARM GAS  /var/folders/m4/4md61f0s1_g0rzfghffqnxvr0000gn/T//cce2qWbc.s 			page 20


 1084 007a F8BD     		pop	{r3, r4, r5, r6, r7, pc}
 1085              	.LVL60:
 1086              	.L144:
 1087              		.loc 1 481 0
 1088 007c 1046     		mov	r0, r2
 1089              	.LVL61:
 1090              		.loc 1 482 0
 1091 007e F8BD     		pop	{r3, r4, r5, r6, r7, pc}
 1092              	.L155:
 1093              		.align	2
 1094              	.L154:
 1095 0080 00000000 		.word	.LANCHOR1
 1096 0084 00000000 		.word	.LANCHOR0
 1097 0088 00380240 		.word	1073887232
 1098              		.cfi_endproc
 1099              	.LFE285:
 1100              		.size	dmaStreamAllocate, .-dmaStreamAllocate
 1101              		.section	.text.dmaStreamRelease,"ax",%progbits
 1102              		.align	2
 1103              		.p2align 4,,15
 1104              		.global	dmaStreamRelease
 1105              		.thumb
 1106              		.thumb_func
 1107              		.type	dmaStreamRelease, %function
 1108              	dmaStreamRelease:
 1109              	.LFB286:
 1110              		.loc 1 497 0
 1111              		.cfi_startproc
 1112              		@ args = 0, pretend = 0, frame = 0
 1113              		@ frame_needed = 0, uses_anonymous_args = 0
 1114              	.LVL62:
 1115 0000 10B5     		push	{r4, lr}
 1116              		.cfi_def_cfa_offset 8
 1117              		.cfi_offset 4, -8
 1118              		.cfi_offset 14, -4
 1119              		.loc 1 497 0
 1120 0002 0446     		mov	r4, r0
 1121              		.loc 1 506 0
 1122 0004 807A     		ldrb	r0, [r0, #10]	@ zero_extendqisi2
 1123              	.LVL63:
 1124 0006 FFF7FEFF 		bl	nvicDisableVector
 1125              	.LVL64:
 1126              		.loc 1 509 0
 1127 000a 0C49     		ldr	r1, .L160
 1128 000c 607A     		ldrb	r0, [r4, #9]	@ zero_extendqisi2
 1129 000e 0A68     		ldr	r2, [r1]
 1130 0010 0123     		movs	r3, #1
 1131 0012 8340     		lsls	r3, r3, r0
 1132 0014 22EA0303 		bic	r3, r2, r3
 1133              		.loc 1 512 0
 1134 0018 13F0FF0F 		tst	r3, #255
 1135              		.loc 1 509 0
 1136 001c 0B60     		str	r3, [r1]
 1137              		.loc 1 512 0
 1138 001e 04D1     		bne	.L157
 1139              		.loc 1 513 0
 1140 0020 0749     		ldr	r1, .L160+4
ARM GAS  /var/folders/m4/4md61f0s1_g0rzfghffqnxvr0000gn/T//cce2qWbc.s 			page 21


 1141 0022 0A6B     		ldr	r2, [r1, #48]
 1142 0024 22F40012 		bic	r2, r2, #2097152
 1143 0028 0A63     		str	r2, [r1, #48]
 1144              	.L157:
 1145              		.loc 1 515 0
 1146 002a 13F47F4F 		tst	r3, #65280
 1147 002e 04D1     		bne	.L156
 1148              		.loc 1 516 0
 1149 0030 034A     		ldr	r2, .L160+4
 1150 0032 136B     		ldr	r3, [r2, #48]
 1151 0034 23F48003 		bic	r3, r3, #4194304
 1152 0038 1363     		str	r3, [r2, #48]
 1153              	.L156:
 1154 003a 10BD     		pop	{r4, pc}
 1155              	.LVL65:
 1156              	.L161:
 1157              		.align	2
 1158              	.L160:
 1159 003c 00000000 		.word	.LANCHOR1
 1160 0040 00380240 		.word	1073887232
 1161              		.cfi_endproc
 1162              	.LFE286:
 1163              		.size	dmaStreamRelease, .-dmaStreamRelease
 1164              		.global	_stm32_dma_streams
 1165              		.section	.bss.dma_isr_redir,"aw",%nobits
 1166              		.align	2
 1167              		.set	.LANCHOR0,. + 0
 1168              		.type	dma_isr_redir, %object
 1169              		.size	dma_isr_redir, 128
 1170              	dma_isr_redir:
 1171 0000 00000000 		.space	128
 1171      00000000 
 1171      00000000 
 1171      00000000 
 1171      00000000 
 1172              		.section	.rodata._stm32_dma_streams,"a",%progbits
 1173              		.align	2
 1174              		.set	.LANCHOR2,. + 0
 1175              		.type	_stm32_dma_streams, %object
 1176              		.size	_stm32_dma_streams, 192
 1177              	_stm32_dma_streams:
 1178 0000 10600240 		.word	1073897488
 1179 0004 08600240 		.word	1073897480
 1180 0008 00       		.byte	0
 1181 0009 00       		.byte	0
 1182 000a 0B       		.byte	11
 1183 000b 00       		.space	1
 1184 000c 28600240 		.word	1073897512
 1185 0010 08600240 		.word	1073897480
 1186 0014 06       		.byte	6
 1187 0015 01       		.byte	1
 1188 0016 0C       		.byte	12
 1189 0017 00       		.space	1
 1190 0018 40600240 		.word	1073897536
 1191 001c 08600240 		.word	1073897480
 1192 0020 10       		.byte	16
 1193 0021 02       		.byte	2
ARM GAS  /var/folders/m4/4md61f0s1_g0rzfghffqnxvr0000gn/T//cce2qWbc.s 			page 22


 1194 0022 0D       		.byte	13
 1195 0023 00       		.space	1
 1196 0024 58600240 		.word	1073897560
 1197 0028 08600240 		.word	1073897480
 1198 002c 16       		.byte	22
 1199 002d 03       		.byte	3
 1200 002e 0E       		.byte	14
 1201 002f 00       		.space	1
 1202 0030 70600240 		.word	1073897584
 1203 0034 0C600240 		.word	1073897484
 1204 0038 00       		.byte	0
 1205 0039 04       		.byte	4
 1206 003a 0F       		.byte	15
 1207 003b 00       		.space	1
 1208 003c 88600240 		.word	1073897608
 1209 0040 0C600240 		.word	1073897484
 1210 0044 06       		.byte	6
 1211 0045 05       		.byte	5
 1212 0046 10       		.byte	16
 1213 0047 00       		.space	1
 1214 0048 A0600240 		.word	1073897632
 1215 004c 0C600240 		.word	1073897484
 1216 0050 10       		.byte	16
 1217 0051 06       		.byte	6
 1218 0052 11       		.byte	17
 1219 0053 00       		.space	1
 1220 0054 B8600240 		.word	1073897656
 1221 0058 0C600240 		.word	1073897484
 1222 005c 16       		.byte	22
 1223 005d 07       		.byte	7
 1224 005e 2F       		.byte	47
 1225 005f 00       		.space	1
 1226 0060 10640240 		.word	1073898512
 1227 0064 08640240 		.word	1073898504
 1228 0068 00       		.byte	0
 1229 0069 08       		.byte	8
 1230 006a 38       		.byte	56
 1231 006b 00       		.space	1
 1232 006c 28640240 		.word	1073898536
 1233 0070 08640240 		.word	1073898504
 1234 0074 06       		.byte	6
 1235 0075 09       		.byte	9
 1236 0076 39       		.byte	57
 1237 0077 00       		.space	1
 1238 0078 40640240 		.word	1073898560
 1239 007c 08640240 		.word	1073898504
 1240 0080 10       		.byte	16
 1241 0081 0A       		.byte	10
 1242 0082 3A       		.byte	58
 1243 0083 00       		.space	1
 1244 0084 58640240 		.word	1073898584
 1245 0088 08640240 		.word	1073898504
 1246 008c 16       		.byte	22
 1247 008d 0B       		.byte	11
 1248 008e 3B       		.byte	59
 1249 008f 00       		.space	1
 1250 0090 70640240 		.word	1073898608
ARM GAS  /var/folders/m4/4md61f0s1_g0rzfghffqnxvr0000gn/T//cce2qWbc.s 			page 23


 1251 0094 0C640240 		.word	1073898508
 1252 0098 00       		.byte	0
 1253 0099 0C       		.byte	12
 1254 009a 3C       		.byte	60
 1255 009b 00       		.space	1
 1256 009c 88640240 		.word	1073898632
 1257 00a0 0C640240 		.word	1073898508
 1258 00a4 06       		.byte	6
 1259 00a5 0D       		.byte	13
 1260 00a6 44       		.byte	68
 1261 00a7 00       		.space	1
 1262 00a8 A0640240 		.word	1073898656
 1263 00ac 0C640240 		.word	1073898508
 1264 00b0 10       		.byte	16
 1265 00b1 0E       		.byte	14
 1266 00b2 45       		.byte	69
 1267 00b3 00       		.space	1
 1268 00b4 B8640240 		.word	1073898680
 1269 00b8 0C640240 		.word	1073898508
 1270 00bc 16       		.byte	22
 1271 00bd 0F       		.byte	15
 1272 00be 46       		.byte	70
 1273 00bf 00       		.space	1
 1274              		.section	.bss.dma_streams_mask,"aw",%nobits
 1275              		.align	2
 1276              		.set	.LANCHOR1,. + 0
 1277              		.type	dma_streams_mask, %object
 1278              		.size	dma_streams_mask, 4
 1279              	dma_streams_mask:
 1280 0000 00000000 		.space	4
 1281              		.text
 1282              	.Letext0:
 1283              		.file 2 "/opt/homebrew-cask/Caskroom/gcc-arm-embedded/5_2-2015q4,20151219/gcc-arm-none-eabi-5_2-20
 1284              		.file 3 "/opt/homebrew-cask/Caskroom/gcc-arm-embedded/5_2-2015q4,20151219/gcc-arm-none-eabi-5_2-20
 1285              		.file 4 "/opt/homebrew-cask/Caskroom/gcc-arm-embedded/5_2-2015q4,20151219/gcc-arm-none-eabi-5_2-20
 1286              		.file 5 "ChibiOS_16.1.4/os/rt/ports/ARMCMx/compilers/GCC/chtypes.h"
 1287              		.file 6 "ChibiOS_16.1.4/os/rt/include/chsystypes.h"
 1288              		.file 7 "ChibiOS_16.1.4/os/rt/include/chschd.h"
 1289              		.file 8 "ChibiOS_16.1.4/os/ext/CMSIS/ST/STM32F4xx/stm32f446xx.h"
 1290              		.file 9 "ChibiOS_16.1.4/os/rt/ports/ARMCMx/chcore.h"
 1291              		.file 10 "ChibiOS_16.1.4/os/rt/ports/ARMCMx/chcore_v7m.h"
 1292              		.file 11 "ChibiOS_16.1.4/os/rt/include/chtm.h"
 1293              		.file 12 "ChibiOS_16.1.4/os/rt/include/chsem.h"
 1294              		.file 13 "ChibiOS_16.1.4/os/rt/include/chmtx.h"
 1295              		.file 14 "ChibiOS_16.1.4/os/hal/ports/STM32/LLD/DMAv2/stm32_dma.h"
 1296              		.file 15 "ChibiOS_16.1.4/os/ext/CMSIS/include/core_cm4.h"
 1297              		.file 16 "ChibiOS_16.1.4/os/hal/ports/common/ARMCMx/nvic.h"
 1298              		.section	.debug_info,"",%progbits
 1299              	.Ldebug_info0:
 1300 0000 E40E0000 		.4byte	0xee4
 1301 0004 0400     		.2byte	0x4
 1302 0006 00000000 		.4byte	.Ldebug_abbrev0
 1303 000a 04       		.byte	0x4
 1304 000b 01       		.uleb128 0x1
 1305 000c 1E060000 		.4byte	.LASF188
 1306 0010 0C       		.byte	0xc
 1307 0011 55000000 		.4byte	.LASF189
ARM GAS  /var/folders/m4/4md61f0s1_g0rzfghffqnxvr0000gn/T//cce2qWbc.s 			page 24


 1308 0015 00000000 		.4byte	.LASF190
 1309 0019 00000000 		.4byte	.Ldebug_ranges0+0
 1310 001d 00000000 		.4byte	0
 1311 0021 00000000 		.4byte	.Ldebug_line0
 1312 0025 02       		.uleb128 0x2
 1313 0026 04       		.byte	0x4
 1314 0027 05       		.byte	0x5
 1315 0028 696E7400 		.ascii	"int\000"
 1316 002c 03       		.uleb128 0x3
 1317 002d 4E000000 		.4byte	.LASF2
 1318 0031 02       		.byte	0x2
 1319 0032 D8       		.byte	0xd8
 1320 0033 37000000 		.4byte	0x37
 1321 0037 04       		.uleb128 0x4
 1322 0038 04       		.byte	0x4
 1323 0039 07       		.byte	0x7
 1324 003a 64020000 		.4byte	.LASF0
 1325 003e 04       		.uleb128 0x4
 1326 003f 01       		.byte	0x1
 1327 0040 06       		.byte	0x6
 1328 0041 81010000 		.4byte	.LASF1
 1329 0045 03       		.uleb128 0x3
 1330 0046 A4000000 		.4byte	.LASF3
 1331 004a 03       		.byte	0x3
 1332 004b 1D       		.byte	0x1d
 1333 004c 50000000 		.4byte	0x50
 1334 0050 04       		.uleb128 0x4
 1335 0051 01       		.byte	0x1
 1336 0052 08       		.byte	0x8
 1337 0053 04050000 		.4byte	.LASF4
 1338 0057 04       		.uleb128 0x4
 1339 0058 02       		.byte	0x2
 1340 0059 05       		.byte	0x5
 1341 005a 1C050000 		.4byte	.LASF5
 1342 005e 04       		.uleb128 0x4
 1343 005f 02       		.byte	0x2
 1344 0060 07       		.byte	0x7
 1345 0061 05030000 		.4byte	.LASF6
 1346 0065 03       		.uleb128 0x3
 1347 0066 9D030000 		.4byte	.LASF7
 1348 006a 03       		.byte	0x3
 1349 006b 3F       		.byte	0x3f
 1350 006c 70000000 		.4byte	0x70
 1351 0070 04       		.uleb128 0x4
 1352 0071 04       		.byte	0x4
 1353 0072 05       		.byte	0x5
 1354 0073 CD010000 		.4byte	.LASF8
 1355 0077 03       		.uleb128 0x3
 1356 0078 5B070000 		.4byte	.LASF9
 1357 007c 03       		.byte	0x3
 1358 007d 41       		.byte	0x41
 1359 007e 82000000 		.4byte	0x82
 1360 0082 04       		.uleb128 0x4
 1361 0083 04       		.byte	0x4
 1362 0084 07       		.byte	0x7
 1363 0085 F6050000 		.4byte	.LASF10
 1364 0089 04       		.uleb128 0x4
ARM GAS  /var/folders/m4/4md61f0s1_g0rzfghffqnxvr0000gn/T//cce2qWbc.s 			page 25


 1365 008a 08       		.byte	0x8
 1366 008b 05       		.byte	0x5
 1367 008c 73010000 		.4byte	.LASF11
 1368 0090 03       		.uleb128 0x3
 1369 0091 61040000 		.4byte	.LASF12
 1370 0095 03       		.byte	0x3
 1371 0096 5B       		.byte	0x5b
 1372 0097 9B000000 		.4byte	0x9b
 1373 009b 04       		.uleb128 0x4
 1374 009c 08       		.byte	0x8
 1375 009d 07       		.byte	0x7
 1376 009e E2000000 		.4byte	.LASF13
 1377 00a2 03       		.uleb128 0x3
 1378 00a3 2F080000 		.4byte	.LASF14
 1379 00a7 04       		.byte	0x4
 1380 00a8 14       		.byte	0x14
 1381 00a9 45000000 		.4byte	0x45
 1382 00ad 03       		.uleb128 0x3
 1383 00ae FC040000 		.4byte	.LASF15
 1384 00b2 04       		.byte	0x4
 1385 00b3 1F       		.byte	0x1f
 1386 00b4 65000000 		.4byte	0x65
 1387 00b8 03       		.uleb128 0x3
 1388 00b9 E3070000 		.4byte	.LASF16
 1389 00bd 04       		.byte	0x4
 1390 00be 20       		.byte	0x20
 1391 00bf 77000000 		.4byte	0x77
 1392 00c3 03       		.uleb128 0x3
 1393 00c4 94000000 		.4byte	.LASF17
 1394 00c8 04       		.byte	0x4
 1395 00c9 26       		.byte	0x26
 1396 00ca 90000000 		.4byte	0x90
 1397 00ce 03       		.uleb128 0x3
 1398 00cf BC070000 		.4byte	.LASF18
 1399 00d3 05       		.byte	0x5
 1400 00d4 39       		.byte	0x39
 1401 00d5 B8000000 		.4byte	0xb8
 1402 00d9 03       		.uleb128 0x3
 1403 00da 71030000 		.4byte	.LASF19
 1404 00de 05       		.byte	0x5
 1405 00df 3C       		.byte	0x3c
 1406 00e0 A2000000 		.4byte	0xa2
 1407 00e4 03       		.uleb128 0x3
 1408 00e5 E9010000 		.4byte	.LASF20
 1409 00e9 05       		.byte	0x5
 1410 00ea 3D       		.byte	0x3d
 1411 00eb A2000000 		.4byte	0xa2
 1412 00ef 03       		.uleb128 0x3
 1413 00f0 77040000 		.4byte	.LASF21
 1414 00f4 05       		.byte	0x5
 1415 00f5 3E       		.byte	0x3e
 1416 00f6 A2000000 		.4byte	0xa2
 1417 00fa 03       		.uleb128 0x3
 1418 00fb EC050000 		.4byte	.LASF22
 1419 00ff 05       		.byte	0x5
 1420 0100 3F       		.byte	0x3f
 1421 0101 A2000000 		.4byte	0xa2
ARM GAS  /var/folders/m4/4md61f0s1_g0rzfghffqnxvr0000gn/T//cce2qWbc.s 			page 26


 1422 0105 03       		.uleb128 0x3
 1423 0106 D5040000 		.4byte	.LASF23
 1424 010a 05       		.byte	0x5
 1425 010b 40       		.byte	0x40
 1426 010c B8000000 		.4byte	0xb8
 1427 0110 03       		.uleb128 0x3
 1428 0111 38030000 		.4byte	.LASF24
 1429 0115 05       		.byte	0x5
 1430 0116 41       		.byte	0x41
 1431 0117 AD000000 		.4byte	0xad
 1432 011b 03       		.uleb128 0x3
 1433 011c 91030000 		.4byte	.LASF25
 1434 0120 05       		.byte	0x5
 1435 0121 43       		.byte	0x43
 1436 0122 B8000000 		.4byte	0xb8
 1437 0126 03       		.uleb128 0x3
 1438 0127 5E020000 		.4byte	.LASF26
 1439 012b 05       		.byte	0x5
 1440 012c 45       		.byte	0x45
 1441 012d AD000000 		.4byte	0xad
 1442 0131 03       		.uleb128 0x3
 1443 0132 3D070000 		.4byte	.LASF27
 1444 0136 06       		.byte	0x6
 1445 0137 33       		.byte	0x33
 1446 0138 B8000000 		.4byte	0xb8
 1447 013c 03       		.uleb128 0x3
 1448 013d 2D070000 		.4byte	.LASF28
 1449 0141 06       		.byte	0x6
 1450 0142 3F       		.byte	0x3f
 1451 0143 47010000 		.4byte	0x147
 1452 0147 05       		.uleb128 0x5
 1453 0148 18030000 		.4byte	.LASF50
 1454 014c 48       		.byte	0x48
 1455 014d 07       		.byte	0x7
 1456 014e C2       		.byte	0xc2
 1457 014f 4C020000 		.4byte	0x24c
 1458 0153 06       		.uleb128 0x6
 1459 0154 0A040000 		.4byte	.LASF29
 1460 0158 07       		.byte	0x7
 1461 0159 C3       		.byte	0xc3
 1462 015a 57020000 		.4byte	0x257
 1463 015e 00       		.byte	0
 1464 015f 06       		.uleb128 0x6
 1465 0160 B1040000 		.4byte	.LASF30
 1466 0164 07       		.byte	0x7
 1467 0165 C5       		.byte	0xc5
 1468 0166 57020000 		.4byte	0x257
 1469 016a 04       		.byte	0x4
 1470 016b 06       		.uleb128 0x6
 1471 016c 53010000 		.4byte	.LASF31
 1472 0170 07       		.byte	0x7
 1473 0171 C7       		.byte	0xc7
 1474 0172 05010000 		.4byte	0x105
 1475 0176 08       		.byte	0x8
 1476 0177 06       		.uleb128 0x6
 1477 0178 B4080000 		.4byte	.LASF32
 1478 017c 07       		.byte	0x7
ARM GAS  /var/folders/m4/4md61f0s1_g0rzfghffqnxvr0000gn/T//cce2qWbc.s 			page 27


 1479 017d C8       		.byte	0xc8
 1480 017e 18070000 		.4byte	0x718
 1481 0182 0C       		.byte	0xc
 1482 0183 06       		.uleb128 0x6
 1483 0184 F7010000 		.4byte	.LASF33
 1484 0188 07       		.byte	0x7
 1485 0189 CA       		.byte	0xca
 1486 018a 57020000 		.4byte	0x257
 1487 018e 10       		.byte	0x10
 1488 018f 06       		.uleb128 0x6
 1489 0190 17040000 		.4byte	.LASF34
 1490 0194 07       		.byte	0x7
 1491 0195 CB       		.byte	0xcb
 1492 0196 57020000 		.4byte	0x257
 1493 019a 14       		.byte	0x14
 1494 019b 06       		.uleb128 0x6
 1495 019c 52080000 		.4byte	.LASF35
 1496 01a0 07       		.byte	0x7
 1497 01a1 D2       		.byte	0xd2
 1498 01a2 66090000 		.4byte	0x966
 1499 01a6 18       		.byte	0x18
 1500 01a7 06       		.uleb128 0x6
 1501 01a8 26050000 		.4byte	.LASF36
 1502 01ac 07       		.byte	0x7
 1503 01ad DD       		.byte	0xdd
 1504 01ae E4000000 		.4byte	0xe4
 1505 01b2 1C       		.byte	0x1c
 1506 01b3 06       		.uleb128 0x6
 1507 01b4 50050000 		.4byte	.LASF37
 1508 01b8 07       		.byte	0x7
 1509 01b9 E1       		.byte	0xe1
 1510 01ba D9000000 		.4byte	0xd9
 1511 01be 1D       		.byte	0x1d
 1512 01bf 06       		.uleb128 0x6
 1513 01c0 14080000 		.4byte	.LASF38
 1514 01c4 07       		.byte	0x7
 1515 01c5 E6       		.byte	0xe6
 1516 01c6 EF000000 		.4byte	0xef
 1517 01ca 1E       		.byte	0x1e
 1518 01cb 06       		.uleb128 0x6
 1519 01cc 2E050000 		.4byte	.LASF39
 1520 01d0 07       		.byte	0x7
 1521 01d1 EC       		.byte	0xec
 1522 01d2 FA000000 		.4byte	0xfa
 1523 01d6 1F       		.byte	0x1f
 1524 01d7 06       		.uleb128 0x6
 1525 01d8 95020000 		.4byte	.LASF40
 1526 01dc 07       		.byte	0x7
 1527 01dd F3       		.byte	0xf3
 1528 01de 78090000 		.4byte	0x978
 1529 01e2 20       		.byte	0x20
 1530 01e3 07       		.uleb128 0x7
 1531 01e4 705F7500 		.ascii	"p_u\000"
 1532 01e8 07       		.byte	0x7
 1533 01e9 3101     		.2byte	0x131
 1534 01eb A1080000 		.4byte	0x8a1
 1535 01ef 24       		.byte	0x24
ARM GAS  /var/folders/m4/4md61f0s1_g0rzfghffqnxvr0000gn/T//cce2qWbc.s 			page 28


 1536 01f0 08       		.uleb128 0x8
 1537 01f1 C2080000 		.4byte	.LASF41
 1538 01f5 07       		.byte	0x7
 1539 01f6 3601     		.2byte	0x136
 1540 01f8 5D020000 		.4byte	0x25d
 1541 01fc 28       		.byte	0x28
 1542 01fd 08       		.uleb128 0x8
 1543 01fe D0020000 		.4byte	.LASF42
 1544 0202 07       		.byte	0x7
 1545 0203 3C01     		.2byte	0x13c
 1546 0205 81020000 		.4byte	0x281
 1547 0209 2C       		.byte	0x2c
 1548 020a 08       		.uleb128 0x8
 1549 020b 84080000 		.4byte	.LASF43
 1550 020f 07       		.byte	0x7
 1551 0210 4001     		.2byte	0x140
 1552 0212 10010000 		.4byte	0x110
 1553 0216 34       		.byte	0x34
 1554 0217 08       		.uleb128 0x8
 1555 0218 87050000 		.4byte	.LASF44
 1556 021c 07       		.byte	0x7
 1557 021d 4601     		.2byte	0x146
 1558 021f 1B010000 		.4byte	0x11b
 1559 0223 38       		.byte	0x38
 1560 0224 08       		.uleb128 0x8
 1561 0225 12050000 		.4byte	.LASF45
 1562 0229 07       		.byte	0x7
 1563 022a 4D01     		.2byte	0x14d
 1564 022c 60090000 		.4byte	0x960
 1565 0230 3C       		.byte	0x3c
 1566 0231 08       		.uleb128 0x8
 1567 0232 47070000 		.4byte	.LASF46
 1568 0236 07       		.byte	0x7
 1569 0237 5101     		.2byte	0x151
 1570 0239 05010000 		.4byte	0x105
 1571 023d 40       		.byte	0x40
 1572 023e 08       		.uleb128 0x8
 1573 023f 9F010000 		.4byte	.LASF47
 1574 0243 07       		.byte	0x7
 1575 0244 5801     		.2byte	0x158
 1576 0246 34030000 		.4byte	0x334
 1577 024a 44       		.byte	0x44
 1578 024b 00       		.byte	0
 1579 024c 03       		.uleb128 0x3
 1580 024d E0030000 		.4byte	.LASF48
 1581 0251 06       		.byte	0x6
 1582 0252 44       		.byte	0x44
 1583 0253 57020000 		.4byte	0x257
 1584 0257 09       		.uleb128 0x9
 1585 0258 04       		.byte	0x4
 1586 0259 3C010000 		.4byte	0x13c
 1587 025d 03       		.uleb128 0x3
 1588 025e B2030000 		.4byte	.LASF49
 1589 0262 06       		.byte	0x6
 1590 0263 49       		.byte	0x49
 1591 0264 68020000 		.4byte	0x268
 1592 0268 05       		.uleb128 0x5
ARM GAS  /var/folders/m4/4md61f0s1_g0rzfghffqnxvr0000gn/T//cce2qWbc.s 			page 29


 1593 0269 CC050000 		.4byte	.LASF51
 1594 026d 04       		.byte	0x4
 1595 026e 07       		.byte	0x7
 1596 026f B0       		.byte	0xb0
 1597 0270 81020000 		.4byte	0x281
 1598 0274 06       		.uleb128 0x6
 1599 0275 0A040000 		.4byte	.LASF29
 1600 0279 07       		.byte	0x7
 1601 027a B1       		.byte	0xb1
 1602 027b 57020000 		.4byte	0x257
 1603 027f 00       		.byte	0
 1604 0280 00       		.byte	0
 1605 0281 03       		.uleb128 0x3
 1606 0282 FB070000 		.4byte	.LASF52
 1607 0286 06       		.byte	0x6
 1608 0287 50       		.byte	0x50
 1609 0288 8C020000 		.4byte	0x28c
 1610 028c 05       		.uleb128 0x5
 1611 028d 38010000 		.4byte	.LASF53
 1612 0291 08       		.byte	0x8
 1613 0292 07       		.byte	0x7
 1614 0293 B7       		.byte	0xb7
 1615 0294 B1020000 		.4byte	0x2b1
 1616 0298 06       		.uleb128 0x6
 1617 0299 0A040000 		.4byte	.LASF29
 1618 029d 07       		.byte	0x7
 1619 029e B8       		.byte	0xb8
 1620 029f 57020000 		.4byte	0x257
 1621 02a3 00       		.byte	0
 1622 02a4 06       		.uleb128 0x6
 1623 02a5 B1040000 		.4byte	.LASF30
 1624 02a9 07       		.byte	0x7
 1625 02aa B9       		.byte	0xb9
 1626 02ab 57020000 		.4byte	0x257
 1627 02af 04       		.byte	0x4
 1628 02b0 00       		.byte	0
 1629 02b1 03       		.uleb128 0x3
 1630 02b2 3C000000 		.4byte	.LASF54
 1631 02b6 06       		.byte	0x6
 1632 02b7 57       		.byte	0x57
 1633 02b8 BC020000 		.4byte	0x2bc
 1634 02bc 0A       		.uleb128 0xa
 1635 02bd 83030000 		.4byte	.LASF55
 1636 02c1 1C       		.byte	0x1c
 1637 02c2 07       		.byte	0x7
 1638 02c3 9001     		.2byte	0x190
 1639 02c5 18030000 		.4byte	0x318
 1640 02c9 08       		.uleb128 0x8
 1641 02ca C4050000 		.4byte	.LASF56
 1642 02ce 07       		.byte	0x7
 1643 02cf 9101     		.2byte	0x191
 1644 02d1 81020000 		.4byte	0x281
 1645 02d5 00       		.byte	0
 1646 02d6 08       		.uleb128 0x8
 1647 02d7 42050000 		.4byte	.LASF57
 1648 02db 07       		.byte	0x7
 1649 02dc 9201     		.2byte	0x192
ARM GAS  /var/folders/m4/4md61f0s1_g0rzfghffqnxvr0000gn/T//cce2qWbc.s 			page 30


 1650 02de 05010000 		.4byte	0x105
 1651 02e2 08       		.byte	0x8
 1652 02e3 08       		.uleb128 0x8
 1653 02e4 1F040000 		.4byte	.LASF58
 1654 02e8 07       		.byte	0x7
 1655 02e9 9401     		.2byte	0x194
 1656 02eb 18070000 		.4byte	0x718
 1657 02ef 0C       		.byte	0xc
 1658 02f0 08       		.uleb128 0x8
 1659 02f1 1A020000 		.4byte	.LASF59
 1660 02f5 07       		.byte	0x7
 1661 02f6 9701     		.2byte	0x197
 1662 02f8 57020000 		.4byte	0x257
 1663 02fc 10       		.byte	0x10
 1664 02fd 08       		.uleb128 0x8
 1665 02fe DA000000 		.4byte	.LASF60
 1666 0302 07       		.byte	0x7
 1667 0303 9801     		.2byte	0x198
 1668 0305 57020000 		.4byte	0x257
 1669 0309 14       		.byte	0x14
 1670 030a 08       		.uleb128 0x8
 1671 030b 49040000 		.4byte	.LASF61
 1672 030f 07       		.byte	0x7
 1673 0310 9B01     		.2byte	0x19b
 1674 0312 57020000 		.4byte	0x257
 1675 0316 18       		.byte	0x18
 1676 0317 00       		.byte	0
 1677 0318 03       		.uleb128 0x3
 1678 0319 52070000 		.4byte	.LASF62
 1679 031d 06       		.byte	0x6
 1680 031e 5C       		.byte	0x5c
 1681 031f 23030000 		.4byte	0x323
 1682 0323 09       		.uleb128 0x9
 1683 0324 04       		.byte	0x4
 1684 0325 29030000 		.4byte	0x329
 1685 0329 0B       		.uleb128 0xb
 1686 032a 34030000 		.4byte	0x334
 1687 032e 0C       		.uleb128 0xc
 1688 032f 34030000 		.4byte	0x334
 1689 0333 00       		.byte	0
 1690 0334 0D       		.uleb128 0xd
 1691 0335 04       		.byte	0x4
 1692 0336 03       		.uleb128 0x3
 1693 0337 C1030000 		.4byte	.LASF63
 1694 033b 06       		.byte	0x6
 1695 033c 61       		.byte	0x61
 1696 033d 41030000 		.4byte	0x341
 1697 0341 0A       		.uleb128 0xa
 1698 0342 69050000 		.4byte	.LASF64
 1699 0346 14       		.byte	0x14
 1700 0347 07       		.byte	0x7
 1701 0348 6B01     		.2byte	0x16b
 1702 034a 90030000 		.4byte	0x390
 1703 034e 08       		.uleb128 0x8
 1704 034f 7B020000 		.4byte	.LASF65
 1705 0353 07       		.byte	0x7
 1706 0354 6C01     		.2byte	0x16c
ARM GAS  /var/folders/m4/4md61f0s1_g0rzfghffqnxvr0000gn/T//cce2qWbc.s 			page 31


 1707 0356 7D090000 		.4byte	0x97d
 1708 035a 00       		.byte	0
 1709 035b 08       		.uleb128 0x8
 1710 035c 2B020000 		.4byte	.LASF66
 1711 0360 07       		.byte	0x7
 1712 0361 6D01     		.2byte	0x16d
 1713 0363 7D090000 		.4byte	0x97d
 1714 0367 04       		.byte	0x4
 1715 0368 08       		.uleb128 0x8
 1716 0369 B8020000 		.4byte	.LASF67
 1717 036d 07       		.byte	0x7
 1718 036e 6E01     		.2byte	0x16e
 1719 0370 31010000 		.4byte	0x131
 1720 0374 08       		.byte	0x8
 1721 0375 08       		.uleb128 0x8
 1722 0376 BA080000 		.4byte	.LASF68
 1723 037a 07       		.byte	0x7
 1724 037b 6F01     		.2byte	0x16f
 1725 037d 18030000 		.4byte	0x318
 1726 0381 0C       		.byte	0xc
 1727 0382 08       		.uleb128 0x8
 1728 0383 D3070000 		.4byte	.LASF69
 1729 0387 07       		.byte	0x7
 1730 0388 7101     		.2byte	0x171
 1731 038a 34030000 		.4byte	0x334
 1732 038e 10       		.byte	0x10
 1733 038f 00       		.byte	0
 1734 0390 03       		.uleb128 0x3
 1735 0391 15010000 		.4byte	.LASF70
 1736 0395 06       		.byte	0x6
 1737 0396 66       		.byte	0x66
 1738 0397 9B030000 		.4byte	0x39b
 1739 039b 0A       		.uleb128 0xa
 1740 039c F3030000 		.4byte	.LASF71
 1741 03a0 10       		.byte	0x10
 1742 03a1 07       		.byte	0x7
 1743 03a2 7B01     		.2byte	0x17b
 1744 03a4 DD030000 		.4byte	0x3dd
 1745 03a8 08       		.uleb128 0x8
 1746 03a9 7B020000 		.4byte	.LASF65
 1747 03ad 07       		.byte	0x7
 1748 03ae 7C01     		.2byte	0x17c
 1749 03b0 7D090000 		.4byte	0x97d
 1750 03b4 00       		.byte	0
 1751 03b5 08       		.uleb128 0x8
 1752 03b6 2B020000 		.4byte	.LASF66
 1753 03ba 07       		.byte	0x7
 1754 03bb 7E01     		.2byte	0x17e
 1755 03bd 7D090000 		.4byte	0x97d
 1756 03c1 04       		.byte	0x4
 1757 03c2 08       		.uleb128 0x8
 1758 03c3 B8020000 		.4byte	.LASF67
 1759 03c7 07       		.byte	0x7
 1760 03c8 8001     		.2byte	0x180
 1761 03ca 31010000 		.4byte	0x131
 1762 03ce 08       		.byte	0x8
 1763 03cf 08       		.uleb128 0x8
ARM GAS  /var/folders/m4/4md61f0s1_g0rzfghffqnxvr0000gn/T//cce2qWbc.s 			page 32


 1764 03d0 A3020000 		.4byte	.LASF72
 1765 03d4 07       		.byte	0x7
 1766 03d5 8201     		.2byte	0x182
 1767 03d7 78090000 		.4byte	0x978
 1768 03db 0C       		.byte	0xc
 1769 03dc 00       		.byte	0
 1770 03dd 03       		.uleb128 0x3
 1771 03de BA000000 		.4byte	.LASF73
 1772 03e2 06       		.byte	0x6
 1773 03e3 6B       		.byte	0x6b
 1774 03e4 E8030000 		.4byte	0x3e8
 1775 03e8 0A       		.uleb128 0xa
 1776 03e9 E6040000 		.4byte	.LASF74
 1777 03ed 04       		.byte	0x4
 1778 03ee 07       		.byte	0x7
 1779 03ef A201     		.2byte	0x1a2
 1780 03f1 03040000 		.4byte	0x403
 1781 03f5 08       		.uleb128 0x8
 1782 03f6 6B070000 		.4byte	.LASF75
 1783 03fa 07       		.byte	0x7
 1784 03fb AA01     		.2byte	0x1aa
 1785 03fd 83090000 		.4byte	0x983
 1786 0401 00       		.byte	0
 1787 0402 00       		.byte	0
 1788 0403 03       		.uleb128 0x3
 1789 0404 B0070000 		.4byte	.LASF76
 1790 0408 06       		.byte	0x6
 1791 0409 70       		.byte	0x70
 1792 040a 0E040000 		.4byte	0x40e
 1793 040e 0E       		.uleb128 0xe
 1794 040f C3010000 		.4byte	.LASF77
 1795 0413 5802     		.2byte	0x258
 1796 0415 07       		.byte	0x7
 1797 0416 C201     		.2byte	0x1c2
 1798 0418 6A040000 		.4byte	0x46a
 1799 041c 08       		.uleb128 0x8
 1800 041d 29080000 		.4byte	.LASF78
 1801 0421 07       		.byte	0x7
 1802 0422 C601     		.2byte	0x1c6
 1803 0424 B1020000 		.4byte	0x2b1
 1804 0428 00       		.byte	0
 1805 0429 08       		.uleb128 0x8
 1806 042a AF010000 		.4byte	.LASF79
 1807 042e 07       		.byte	0x7
 1808 042f CA01     		.2byte	0x1ca
 1809 0431 90030000 		.4byte	0x390
 1810 0435 1C       		.byte	0x1c
 1811 0436 07       		.uleb128 0x7
 1812 0437 64626700 		.ascii	"dbg\000"
 1813 043b 07       		.byte	0x7
 1814 043c CE01     		.2byte	0x1ce
 1815 043e DD030000 		.4byte	0x3dd
 1816 0442 2C       		.byte	0x2c
 1817 0443 08       		.uleb128 0x8
 1818 0444 2D030000 		.4byte	.LASF80
 1819 0448 07       		.byte	0x7
 1820 0449 D201     		.2byte	0x1d2
ARM GAS  /var/folders/m4/4md61f0s1_g0rzfghffqnxvr0000gn/T//cce2qWbc.s 			page 33


 1821 044b 3C010000 		.4byte	0x13c
 1822 044f 30       		.byte	0x30
 1823 0450 07       		.uleb128 0x7
 1824 0451 746D00   		.ascii	"tm\000"
 1825 0454 07       		.byte	0x7
 1826 0455 D701     		.2byte	0x1d7
 1827 0457 96080000 		.4byte	0x896
 1828 045b 78       		.byte	0x78
 1829 045c 08       		.uleb128 0x8
 1830 045d 43020000 		.4byte	.LASF81
 1831 0461 07       		.byte	0x7
 1832 0462 E301     		.2byte	0x1e3
 1833 0464 88090000 		.4byte	0x988
 1834 0468 80       		.byte	0x80
 1835 0469 00       		.byte	0
 1836 046a 04       		.uleb128 0x4
 1837 046b 04       		.byte	0x4
 1838 046c 07       		.byte	0x7
 1839 046d D7030000 		.4byte	.LASF82
 1840 0471 0F       		.uleb128 0xf
 1841 0472 B8000000 		.4byte	0xb8
 1842 0476 10       		.uleb128 0x10
 1843 0477 B8000000 		.4byte	0xb8
 1844 047b 86040000 		.4byte	0x486
 1845 047f 11       		.uleb128 0x11
 1846 0480 6A040000 		.4byte	0x46a
 1847 0484 01       		.byte	0x1
 1848 0485 00       		.byte	0
 1849 0486 12       		.uleb128 0x12
 1850 0487 18       		.byte	0x18
 1851 0488 08       		.byte	0x8
 1852 0489 7D01     		.2byte	0x17d
 1853 048b DD040000 		.4byte	0x4dd
 1854 048f 07       		.uleb128 0x7
 1855 0490 435200   		.ascii	"CR\000"
 1856 0493 08       		.byte	0x8
 1857 0494 7F01     		.2byte	0x17f
 1858 0496 71040000 		.4byte	0x471
 1859 049a 00       		.byte	0
 1860 049b 08       		.uleb128 0x8
 1861 049c 66070000 		.4byte	.LASF83
 1862 04a0 08       		.byte	0x8
 1863 04a1 8001     		.2byte	0x180
 1864 04a3 71040000 		.4byte	0x471
 1865 04a7 04       		.byte	0x4
 1866 04a8 07       		.uleb128 0x7
 1867 04a9 50415200 		.ascii	"PAR\000"
 1868 04ad 08       		.byte	0x8
 1869 04ae 8101     		.2byte	0x181
 1870 04b0 71040000 		.4byte	0x471
 1871 04b4 08       		.byte	0x8
 1872 04b5 08       		.uleb128 0x8
 1873 04b6 49000000 		.4byte	.LASF84
 1874 04ba 08       		.byte	0x8
 1875 04bb 8201     		.2byte	0x182
 1876 04bd 71040000 		.4byte	0x471
 1877 04c1 0C       		.byte	0xc
ARM GAS  /var/folders/m4/4md61f0s1_g0rzfghffqnxvr0000gn/T//cce2qWbc.s 			page 34


 1878 04c2 08       		.uleb128 0x8
 1879 04c3 C4070000 		.4byte	.LASF85
 1880 04c7 08       		.byte	0x8
 1881 04c8 8301     		.2byte	0x183
 1882 04ca 71040000 		.4byte	0x471
 1883 04ce 10       		.byte	0x10
 1884 04cf 07       		.uleb128 0x7
 1885 04d0 46435200 		.ascii	"FCR\000"
 1886 04d4 08       		.byte	0x8
 1887 04d5 8401     		.2byte	0x184
 1888 04d7 71040000 		.4byte	0x471
 1889 04db 14       		.byte	0x14
 1890 04dc 00       		.byte	0
 1891 04dd 13       		.uleb128 0x13
 1892 04de 7C070000 		.4byte	.LASF86
 1893 04e2 08       		.byte	0x8
 1894 04e3 8501     		.2byte	0x185
 1895 04e5 86040000 		.4byte	0x486
 1896 04e9 12       		.uleb128 0x12
 1897 04ea 10       		.byte	0x10
 1898 04eb 08       		.byte	0x8
 1899 04ec 8701     		.2byte	0x187
 1900 04ee 27050000 		.4byte	0x527
 1901 04f2 08       		.uleb128 0x8
 1902 04f3 5C040000 		.4byte	.LASF87
 1903 04f7 08       		.byte	0x8
 1904 04f8 8901     		.2byte	0x189
 1905 04fa 71040000 		.4byte	0x471
 1906 04fe 00       		.byte	0
 1907 04ff 08       		.uleb128 0x8
 1908 0500 6C030000 		.4byte	.LASF88
 1909 0504 08       		.byte	0x8
 1910 0505 8A01     		.2byte	0x18a
 1911 0507 71040000 		.4byte	0x471
 1912 050b 04       		.byte	0x4
 1913 050c 08       		.uleb128 0x8
 1914 050d D1030000 		.4byte	.LASF89
 1915 0511 08       		.byte	0x8
 1916 0512 8B01     		.2byte	0x18b
 1917 0514 71040000 		.4byte	0x471
 1918 0518 08       		.byte	0x8
 1919 0519 08       		.uleb128 0x8
 1920 051a 94080000 		.4byte	.LASF90
 1921 051e 08       		.byte	0x8
 1922 051f 8C01     		.2byte	0x18c
 1923 0521 71040000 		.4byte	0x471
 1924 0525 0C       		.byte	0xc
 1925 0526 00       		.byte	0
 1926 0527 13       		.uleb128 0x13
 1927 0528 52020000 		.4byte	.LASF91
 1928 052c 08       		.byte	0x8
 1929 052d 8D01     		.2byte	0x18d
 1930 052f E9040000 		.4byte	0x4e9
 1931 0533 12       		.uleb128 0x12
 1932 0534 98       		.byte	0x98
 1933 0535 08       		.byte	0x8
 1934 0536 3902     		.2byte	0x239
ARM GAS  /var/folders/m4/4md61f0s1_g0rzfghffqnxvr0000gn/T//cce2qWbc.s 			page 35


 1935 0538 F6060000 		.4byte	0x6f6
 1936 053c 07       		.uleb128 0x7
 1937 053d 435200   		.ascii	"CR\000"
 1938 0540 08       		.byte	0x8
 1939 0541 3B02     		.2byte	0x23b
 1940 0543 71040000 		.4byte	0x471
 1941 0547 00       		.byte	0
 1942 0548 08       		.uleb128 0x8
 1943 0549 FF010000 		.4byte	.LASF92
 1944 054d 08       		.byte	0x8
 1945 054e 3C02     		.2byte	0x23c
 1946 0550 71040000 		.4byte	0x471
 1947 0554 04       		.byte	0x4
 1948 0555 08       		.uleb128 0x8
 1949 0556 63080000 		.4byte	.LASF93
 1950 055a 08       		.byte	0x8
 1951 055b 3D02     		.2byte	0x23d
 1952 055d 71040000 		.4byte	0x471
 1953 0561 08       		.byte	0x8
 1954 0562 07       		.uleb128 0x7
 1955 0563 43495200 		.ascii	"CIR\000"
 1956 0567 08       		.byte	0x8
 1957 0568 3E02     		.2byte	0x23e
 1958 056a 71040000 		.4byte	0x471
 1959 056e 0C       		.byte	0xc
 1960 056f 08       		.uleb128 0x8
 1961 0570 8D010000 		.4byte	.LASF94
 1962 0574 08       		.byte	0x8
 1963 0575 3F02     		.2byte	0x23f
 1964 0577 71040000 		.4byte	0x471
 1965 057b 10       		.byte	0x10
 1966 057c 08       		.uleb128 0x8
 1967 057d 24070000 		.4byte	.LASF95
 1968 0581 08       		.byte	0x8
 1969 0582 4002     		.2byte	0x240
 1970 0584 71040000 		.4byte	0x471
 1971 0588 14       		.byte	0x14
 1972 0589 08       		.uleb128 0x8
 1973 058a 3E030000 		.4byte	.LASF96
 1974 058e 08       		.byte	0x8
 1975 058f 4102     		.2byte	0x241
 1976 0591 71040000 		.4byte	0x471
 1977 0595 18       		.byte	0x18
 1978 0596 08       		.uleb128 0x8
 1979 0597 7F040000 		.4byte	.LASF97
 1980 059b 08       		.byte	0x8
 1981 059c 4202     		.2byte	0x242
 1982 059e B8000000 		.4byte	0xb8
 1983 05a2 1C       		.byte	0x1c
 1984 05a3 08       		.uleb128 0x8
 1985 05a4 53040000 		.4byte	.LASF98
 1986 05a8 08       		.byte	0x8
 1987 05a9 4302     		.2byte	0x243
 1988 05ab 71040000 		.4byte	0x471
 1989 05af 20       		.byte	0x20
 1990 05b0 08       		.uleb128 0x8
 1991 05b1 D6010000 		.4byte	.LASF99
ARM GAS  /var/folders/m4/4md61f0s1_g0rzfghffqnxvr0000gn/T//cce2qWbc.s 			page 36


 1992 05b5 08       		.byte	0x8
 1993 05b6 4402     		.2byte	0x244
 1994 05b8 71040000 		.4byte	0x471
 1995 05bc 24       		.byte	0x24
 1996 05bd 08       		.uleb128 0x8
 1997 05be 89040000 		.4byte	.LASF100
 1998 05c2 08       		.byte	0x8
 1999 05c3 4502     		.2byte	0x245
 2000 05c5 76040000 		.4byte	0x476
 2001 05c9 28       		.byte	0x28
 2002 05ca 08       		.uleb128 0x8
 2003 05cb 3B020000 		.4byte	.LASF101
 2004 05cf 08       		.byte	0x8
 2005 05d0 4602     		.2byte	0x246
 2006 05d2 71040000 		.4byte	0x471
 2007 05d6 30       		.byte	0x30
 2008 05d7 08       		.uleb128 0x8
 2009 05d8 8F070000 		.4byte	.LASF102
 2010 05dc 08       		.byte	0x8
 2011 05dd 4702     		.2byte	0x247
 2012 05df 71040000 		.4byte	0x471
 2013 05e3 34       		.byte	0x34
 2014 05e4 08       		.uleb128 0x8
 2015 05e5 DB020000 		.4byte	.LASF103
 2016 05e9 08       		.byte	0x8
 2017 05ea 4802     		.2byte	0x248
 2018 05ec 71040000 		.4byte	0x471
 2019 05f0 38       		.byte	0x38
 2020 05f1 08       		.uleb128 0x8
 2021 05f2 93040000 		.4byte	.LASF104
 2022 05f6 08       		.byte	0x8
 2023 05f7 4902     		.2byte	0x249
 2024 05f9 B8000000 		.4byte	0xb8
 2025 05fd 3C       		.byte	0x3c
 2026 05fe 08       		.uleb128 0x8
 2027 05ff DC050000 		.4byte	.LASF105
 2028 0603 08       		.byte	0x8
 2029 0604 4A02     		.2byte	0x24a
 2030 0606 71040000 		.4byte	0x471
 2031 060a 40       		.byte	0x40
 2032 060b 08       		.uleb128 0x8
 2033 060c 61050000 		.4byte	.LASF106
 2034 0610 08       		.byte	0x8
 2035 0611 4B02     		.2byte	0x24b
 2036 0613 71040000 		.4byte	0x471
 2037 0617 44       		.byte	0x44
 2038 0618 08       		.uleb128 0x8
 2039 0619 9D040000 		.4byte	.LASF107
 2040 061d 08       		.byte	0x8
 2041 061e 4C02     		.2byte	0x24c
 2042 0620 76040000 		.4byte	0x476
 2043 0624 48       		.byte	0x48
 2044 0625 08       		.uleb128 0x8
 2045 0626 49010000 		.4byte	.LASF108
 2046 062a 08       		.byte	0x8
 2047 062b 4D02     		.2byte	0x24d
 2048 062d 71040000 		.4byte	0x471
ARM GAS  /var/folders/m4/4md61f0s1_g0rzfghffqnxvr0000gn/T//cce2qWbc.s 			page 37


 2049 0631 50       		.byte	0x50
 2050 0632 08       		.uleb128 0x8
 2051 0633 25040000 		.4byte	.LASF109
 2052 0637 08       		.byte	0x8
 2053 0638 4E02     		.2byte	0x24e
 2054 063a 71040000 		.4byte	0x471
 2055 063e 54       		.byte	0x54
 2056 063f 08       		.uleb128 0x8
 2057 0640 38050000 		.4byte	.LASF110
 2058 0644 08       		.byte	0x8
 2059 0645 4F02     		.2byte	0x24f
 2060 0647 71040000 		.4byte	0x471
 2061 064b 58       		.byte	0x58
 2062 064c 08       		.uleb128 0x8
 2063 064d A7040000 		.4byte	.LASF111
 2064 0651 08       		.byte	0x8
 2065 0652 5002     		.2byte	0x250
 2066 0654 B8000000 		.4byte	0xb8
 2067 0658 5C       		.byte	0x5c
 2068 0659 08       		.uleb128 0x8
 2069 065a DF010000 		.4byte	.LASF112
 2070 065e 08       		.byte	0x8
 2071 065f 5102     		.2byte	0x251
 2072 0661 71040000 		.4byte	0x471
 2073 0665 60       		.byte	0x60
 2074 0666 08       		.uleb128 0x8
 2075 0667 79030000 		.4byte	.LASF113
 2076 066b 08       		.byte	0x8
 2077 066c 5202     		.2byte	0x252
 2078 066e 71040000 		.4byte	0x471
 2079 0672 64       		.byte	0x64
 2080 0673 08       		.uleb128 0x8
 2081 0674 A0050000 		.4byte	.LASF114
 2082 0678 08       		.byte	0x8
 2083 0679 5302     		.2byte	0x253
 2084 067b 76040000 		.4byte	0x476
 2085 067f 68       		.byte	0x68
 2086 0680 08       		.uleb128 0x8
 2087 0681 24080000 		.4byte	.LASF115
 2088 0685 08       		.byte	0x8
 2089 0686 5402     		.2byte	0x254
 2090 0688 71040000 		.4byte	0x471
 2091 068c 70       		.byte	0x70
 2092 068d 07       		.uleb128 0x7
 2093 068e 43535200 		.ascii	"CSR\000"
 2094 0692 08       		.byte	0x8
 2095 0693 5502     		.2byte	0x255
 2096 0695 71040000 		.4byte	0x471
 2097 0699 74       		.byte	0x74
 2098 069a 08       		.uleb128 0x8
 2099 069b B8040000 		.4byte	.LASF116
 2100 069f 08       		.byte	0x8
 2101 06a0 5602     		.2byte	0x256
 2102 06a2 76040000 		.4byte	0x476
 2103 06a6 78       		.byte	0x78
 2104 06a7 08       		.uleb128 0x8
 2105 06a8 EC070000 		.4byte	.LASF117
ARM GAS  /var/folders/m4/4md61f0s1_g0rzfghffqnxvr0000gn/T//cce2qWbc.s 			page 38


 2106 06ac 08       		.byte	0x8
 2107 06ad 5702     		.2byte	0x257
 2108 06af 71040000 		.4byte	0x471
 2109 06b3 80       		.byte	0x80
 2110 06b4 08       		.uleb128 0x8
 2111 06b5 22030000 		.4byte	.LASF118
 2112 06b9 08       		.byte	0x8
 2113 06ba 5802     		.2byte	0x258
 2114 06bc 71040000 		.4byte	0x471
 2115 06c0 84       		.byte	0x84
 2116 06c1 08       		.uleb128 0x8
 2117 06c2 6C040000 		.4byte	.LASF119
 2118 06c6 08       		.byte	0x8
 2119 06c7 5902     		.2byte	0x259
 2120 06c9 71040000 		.4byte	0x471
 2121 06cd 88       		.byte	0x88
 2122 06ce 08       		.uleb128 0x8
 2123 06cf 6B010000 		.4byte	.LASF120
 2124 06d3 08       		.byte	0x8
 2125 06d4 5A02     		.2byte	0x25a
 2126 06d6 71040000 		.4byte	0x471
 2127 06da 8C       		.byte	0x8c
 2128 06db 08       		.uleb128 0x8
 2129 06dc 1B080000 		.4byte	.LASF121
 2130 06e0 08       		.byte	0x8
 2131 06e1 5B02     		.2byte	0x25b
 2132 06e3 71040000 		.4byte	0x471
 2133 06e7 90       		.byte	0x90
 2134 06e8 08       		.uleb128 0x8
 2135 06e9 96010000 		.4byte	.LASF122
 2136 06ed 08       		.byte	0x8
 2137 06ee 5C02     		.2byte	0x25c
 2138 06f0 71040000 		.4byte	0x471
 2139 06f4 94       		.byte	0x94
 2140 06f5 00       		.byte	0
 2141 06f6 13       		.uleb128 0x13
 2142 06f7 E3020000 		.4byte	.LASF123
 2143 06fb 08       		.byte	0x8
 2144 06fc 5D02     		.2byte	0x25d
 2145 06fe 33050000 		.4byte	0x533
 2146 0702 03       		.uleb128 0x3
 2147 0703 22020000 		.4byte	.LASF124
 2148 0707 09       		.byte	0x9
 2149 0708 65       		.byte	0x65
 2150 0709 34030000 		.4byte	0x334
 2151 070d 03       		.uleb128 0x3
 2152 070e A7030000 		.4byte	.LASF125
 2153 0712 09       		.byte	0x9
 2154 0713 6D       		.byte	0x6d
 2155 0714 C3000000 		.4byte	0xc3
 2156 0718 05       		.uleb128 0x5
 2157 0719 97070000 		.4byte	.LASF126
 2158 071d 04       		.byte	0x4
 2159 071e 09       		.byte	0x9
 2160 071f 89       		.byte	0x89
 2161 0720 31070000 		.4byte	0x731
 2162 0724 14       		.uleb128 0x14
ARM GAS  /var/folders/m4/4md61f0s1_g0rzfghffqnxvr0000gn/T//cce2qWbc.s 			page 39


 2163 0725 72313300 		.ascii	"r13\000"
 2164 0729 09       		.byte	0x9
 2165 072a 8A       		.byte	0x8a
 2166 072b 7B080000 		.4byte	0x87b
 2167 072f 00       		.byte	0
 2168 0730 00       		.byte	0
 2169 0731 05       		.uleb128 0x5
 2170 0732 AE000000 		.4byte	.LASF127
 2171 0736 64       		.byte	0x64
 2172 0737 0A       		.byte	0xa
 2173 0738 FD       		.byte	0xfd
 2174 0739 7B080000 		.4byte	0x87b
 2175 073d 14       		.uleb128 0x14
 2176 073e 73313600 		.ascii	"s16\000"
 2177 0742 0A       		.byte	0xa
 2178 0743 FF       		.byte	0xff
 2179 0744 02070000 		.4byte	0x702
 2180 0748 00       		.byte	0
 2181 0749 07       		.uleb128 0x7
 2182 074a 73313700 		.ascii	"s17\000"
 2183 074e 0A       		.byte	0xa
 2184 074f 0001     		.2byte	0x100
 2185 0751 02070000 		.4byte	0x702
 2186 0755 04       		.byte	0x4
 2187 0756 07       		.uleb128 0x7
 2188 0757 73313800 		.ascii	"s18\000"
 2189 075b 0A       		.byte	0xa
 2190 075c 0101     		.2byte	0x101
 2191 075e 02070000 		.4byte	0x702
 2192 0762 08       		.byte	0x8
 2193 0763 07       		.uleb128 0x7
 2194 0764 73313900 		.ascii	"s19\000"
 2195 0768 0A       		.byte	0xa
 2196 0769 0201     		.2byte	0x102
 2197 076b 02070000 		.4byte	0x702
 2198 076f 0C       		.byte	0xc
 2199 0770 07       		.uleb128 0x7
 2200 0771 73323000 		.ascii	"s20\000"
 2201 0775 0A       		.byte	0xa
 2202 0776 0301     		.2byte	0x103
 2203 0778 02070000 		.4byte	0x702
 2204 077c 10       		.byte	0x10
 2205 077d 07       		.uleb128 0x7
 2206 077e 73323100 		.ascii	"s21\000"
 2207 0782 0A       		.byte	0xa
 2208 0783 0401     		.2byte	0x104
 2209 0785 02070000 		.4byte	0x702
 2210 0789 14       		.byte	0x14
 2211 078a 07       		.uleb128 0x7
 2212 078b 73323200 		.ascii	"s22\000"
 2213 078f 0A       		.byte	0xa
 2214 0790 0501     		.2byte	0x105
 2215 0792 02070000 		.4byte	0x702
 2216 0796 18       		.byte	0x18
 2217 0797 07       		.uleb128 0x7
 2218 0798 73323300 		.ascii	"s23\000"
 2219 079c 0A       		.byte	0xa
ARM GAS  /var/folders/m4/4md61f0s1_g0rzfghffqnxvr0000gn/T//cce2qWbc.s 			page 40


 2220 079d 0601     		.2byte	0x106
 2221 079f 02070000 		.4byte	0x702
 2222 07a3 1C       		.byte	0x1c
 2223 07a4 07       		.uleb128 0x7
 2224 07a5 73323400 		.ascii	"s24\000"
 2225 07a9 0A       		.byte	0xa
 2226 07aa 0701     		.2byte	0x107
 2227 07ac 02070000 		.4byte	0x702
 2228 07b0 20       		.byte	0x20
 2229 07b1 07       		.uleb128 0x7
 2230 07b2 73323500 		.ascii	"s25\000"
 2231 07b6 0A       		.byte	0xa
 2232 07b7 0801     		.2byte	0x108
 2233 07b9 02070000 		.4byte	0x702
 2234 07bd 24       		.byte	0x24
 2235 07be 07       		.uleb128 0x7
 2236 07bf 73323600 		.ascii	"s26\000"
 2237 07c3 0A       		.byte	0xa
 2238 07c4 0901     		.2byte	0x109
 2239 07c6 02070000 		.4byte	0x702
 2240 07ca 28       		.byte	0x28
 2241 07cb 07       		.uleb128 0x7
 2242 07cc 73323700 		.ascii	"s27\000"
 2243 07d0 0A       		.byte	0xa
 2244 07d1 0A01     		.2byte	0x10a
 2245 07d3 02070000 		.4byte	0x702
 2246 07d7 2C       		.byte	0x2c
 2247 07d8 07       		.uleb128 0x7
 2248 07d9 73323800 		.ascii	"s28\000"
 2249 07dd 0A       		.byte	0xa
 2250 07de 0B01     		.2byte	0x10b
 2251 07e0 02070000 		.4byte	0x702
 2252 07e4 30       		.byte	0x30
 2253 07e5 07       		.uleb128 0x7
 2254 07e6 73323900 		.ascii	"s29\000"
 2255 07ea 0A       		.byte	0xa
 2256 07eb 0C01     		.2byte	0x10c
 2257 07ed 02070000 		.4byte	0x702
 2258 07f1 34       		.byte	0x34
 2259 07f2 07       		.uleb128 0x7
 2260 07f3 73333000 		.ascii	"s30\000"
 2261 07f7 0A       		.byte	0xa
 2262 07f8 0D01     		.2byte	0x10d
 2263 07fa 02070000 		.4byte	0x702
 2264 07fe 38       		.byte	0x38
 2265 07ff 07       		.uleb128 0x7
 2266 0800 73333100 		.ascii	"s31\000"
 2267 0804 0A       		.byte	0xa
 2268 0805 0E01     		.2byte	0x10e
 2269 0807 02070000 		.4byte	0x702
 2270 080b 3C       		.byte	0x3c
 2271 080c 07       		.uleb128 0x7
 2272 080d 723400   		.ascii	"r4\000"
 2273 0810 0A       		.byte	0xa
 2274 0811 1001     		.2byte	0x110
 2275 0813 02070000 		.4byte	0x702
 2276 0817 40       		.byte	0x40
ARM GAS  /var/folders/m4/4md61f0s1_g0rzfghffqnxvr0000gn/T//cce2qWbc.s 			page 41


 2277 0818 07       		.uleb128 0x7
 2278 0819 723500   		.ascii	"r5\000"
 2279 081c 0A       		.byte	0xa
 2280 081d 1101     		.2byte	0x111
 2281 081f 02070000 		.4byte	0x702
 2282 0823 44       		.byte	0x44
 2283 0824 07       		.uleb128 0x7
 2284 0825 723600   		.ascii	"r6\000"
 2285 0828 0A       		.byte	0xa
 2286 0829 1201     		.2byte	0x112
 2287 082b 02070000 		.4byte	0x702
 2288 082f 48       		.byte	0x48
 2289 0830 07       		.uleb128 0x7
 2290 0831 723700   		.ascii	"r7\000"
 2291 0834 0A       		.byte	0xa
 2292 0835 1301     		.2byte	0x113
 2293 0837 02070000 		.4byte	0x702
 2294 083b 4C       		.byte	0x4c
 2295 083c 07       		.uleb128 0x7
 2296 083d 723800   		.ascii	"r8\000"
 2297 0840 0A       		.byte	0xa
 2298 0841 1401     		.2byte	0x114
 2299 0843 02070000 		.4byte	0x702
 2300 0847 50       		.byte	0x50
 2301 0848 07       		.uleb128 0x7
 2302 0849 723900   		.ascii	"r9\000"
 2303 084c 0A       		.byte	0xa
 2304 084d 1501     		.2byte	0x115
 2305 084f 02070000 		.4byte	0x702
 2306 0853 54       		.byte	0x54
 2307 0854 07       		.uleb128 0x7
 2308 0855 72313000 		.ascii	"r10\000"
 2309 0859 0A       		.byte	0xa
 2310 085a 1601     		.2byte	0x116
 2311 085c 02070000 		.4byte	0x702
 2312 0860 58       		.byte	0x58
 2313 0861 07       		.uleb128 0x7
 2314 0862 72313100 		.ascii	"r11\000"
 2315 0866 0A       		.byte	0xa
 2316 0867 1701     		.2byte	0x117
 2317 0869 02070000 		.4byte	0x702
 2318 086d 5C       		.byte	0x5c
 2319 086e 07       		.uleb128 0x7
 2320 086f 6C7200   		.ascii	"lr\000"
 2321 0872 0A       		.byte	0xa
 2322 0873 1801     		.2byte	0x118
 2323 0875 02070000 		.4byte	0x702
 2324 0879 60       		.byte	0x60
 2325 087a 00       		.byte	0
 2326 087b 09       		.uleb128 0x9
 2327 087c 04       		.byte	0x4
 2328 087d 31070000 		.4byte	0x731
 2329 0881 15       		.uleb128 0x15
 2330 0882 04       		.byte	0x4
 2331 0883 0B       		.byte	0xb
 2332 0884 38       		.byte	0x38
 2333 0885 96080000 		.4byte	0x896
ARM GAS  /var/folders/m4/4md61f0s1_g0rzfghffqnxvr0000gn/T//cce2qWbc.s 			page 42


 2334 0889 06       		.uleb128 0x6
 2335 088a 75070000 		.4byte	.LASF128
 2336 088e 0B       		.byte	0xb
 2337 088f 3C       		.byte	0x3c
 2338 0890 CE000000 		.4byte	0xce
 2339 0894 00       		.byte	0
 2340 0895 00       		.byte	0
 2341 0896 03       		.uleb128 0x3
 2342 0897 38040000 		.4byte	.LASF129
 2343 089b 0B       		.byte	0xb
 2344 089c 3D       		.byte	0x3d
 2345 089d 81080000 		.4byte	0x881
 2346 08a1 16       		.uleb128 0x16
 2347 08a2 04       		.byte	0x4
 2348 08a3 07       		.byte	0x7
 2349 08a4 FA       		.byte	0xfa
 2350 08a5 FE080000 		.4byte	0x8fe
 2351 08a9 17       		.uleb128 0x17
 2352 08aa 8D000000 		.4byte	.LASF130
 2353 08ae 07       		.byte	0x7
 2354 08af 0101     		.2byte	0x101
 2355 08b1 10010000 		.4byte	0x110
 2356 08b5 17       		.uleb128 0x17
 2357 08b6 F9000000 		.4byte	.LASF131
 2358 08ba 07       		.byte	0x7
 2359 08bb 0801     		.2byte	0x108
 2360 08bd 10010000 		.4byte	0x110
 2361 08c1 17       		.uleb128 0x17
 2362 08c2 4B080000 		.4byte	.LASF132
 2363 08c6 07       		.byte	0x7
 2364 08c7 0F01     		.2byte	0x10f
 2365 08c9 34030000 		.4byte	0x334
 2366 08cd 17       		.uleb128 0x17
 2367 08ce BD010000 		.4byte	.LASF133
 2368 08d2 07       		.byte	0x7
 2369 08d3 1601     		.2byte	0x116
 2370 08d5 FE080000 		.4byte	0x8fe
 2371 08d9 17       		.uleb128 0x17
 2372 08da 9C020000 		.4byte	.LASF134
 2373 08de 07       		.byte	0x7
 2374 08df 1E01     		.2byte	0x11e
 2375 08e1 29090000 		.4byte	0x929
 2376 08e5 17       		.uleb128 0x17
 2377 08e6 BD050000 		.4byte	.LASF135
 2378 08ea 07       		.byte	0x7
 2379 08eb 2701     		.2byte	0x127
 2380 08ed 60090000 		.4byte	0x960
 2381 08f1 17       		.uleb128 0x17
 2382 08f2 49050000 		.4byte	.LASF136
 2383 08f6 07       		.byte	0x7
 2384 08f7 2F01     		.2byte	0x12f
 2385 08f9 1B010000 		.4byte	0x11b
 2386 08fd 00       		.byte	0
 2387 08fe 09       		.uleb128 0x9
 2388 08ff 04       		.byte	0x4
 2389 0900 4C020000 		.4byte	0x24c
 2390 0904 05       		.uleb128 0x5
ARM GAS  /var/folders/m4/4md61f0s1_g0rzfghffqnxvr0000gn/T//cce2qWbc.s 			page 43


 2391 0905 7A050000 		.4byte	.LASF137
 2392 0909 0C       		.byte	0xc
 2393 090a 0C       		.byte	0xc
 2394 090b 34       		.byte	0x34
 2395 090c 29090000 		.4byte	0x929
 2396 0910 06       		.uleb128 0x6
 2397 0911 72080000 		.4byte	.LASF138
 2398 0915 0C       		.byte	0xc
 2399 0916 35       		.byte	0x35
 2400 0917 81020000 		.4byte	0x281
 2401 091b 00       		.byte	0
 2402 091c 06       		.uleb128 0x6
 2403 091d FF020000 		.4byte	.LASF139
 2404 0921 0C       		.byte	0xc
 2405 0922 37       		.byte	0x37
 2406 0923 26010000 		.4byte	0x126
 2407 0927 08       		.byte	0x8
 2408 0928 00       		.byte	0
 2409 0929 09       		.uleb128 0x9
 2410 092a 04       		.byte	0x4
 2411 092b 04090000 		.4byte	0x904
 2412 092f 05       		.uleb128 0x5
 2413 0930 0B080000 		.4byte	.LASF140
 2414 0934 10       		.byte	0x10
 2415 0935 0D       		.byte	0xd
 2416 0936 39       		.byte	0x39
 2417 0937 60090000 		.4byte	0x960
 2418 093b 06       		.uleb128 0x6
 2419 093c A7010000 		.4byte	.LASF141
 2420 0940 0D       		.byte	0xd
 2421 0941 3A       		.byte	0x3a
 2422 0942 81020000 		.4byte	0x281
 2423 0946 00       		.byte	0
 2424 0947 06       		.uleb128 0x6
 2425 0948 9A080000 		.4byte	.LASF142
 2426 094c 0D       		.byte	0xd
 2427 094d 3C       		.byte	0x3c
 2428 094e 57020000 		.4byte	0x257
 2429 0952 08       		.byte	0x8
 2430 0953 06       		.uleb128 0x6
 2431 0954 36070000 		.4byte	.LASF143
 2432 0958 0D       		.byte	0xd
 2433 0959 3E       		.byte	0x3e
 2434 095a A3090000 		.4byte	0x9a3
 2435 095e 0C       		.byte	0xc
 2436 095f 00       		.byte	0
 2437 0960 09       		.uleb128 0x9
 2438 0961 04       		.byte	0x4
 2439 0962 2F090000 		.4byte	0x92f
 2440 0966 09       		.uleb128 0x9
 2441 0967 04       		.byte	0x4
 2442 0968 73090000 		.4byte	0x973
 2443 096c 04       		.uleb128 0x4
 2444 096d 01       		.byte	0x1
 2445 096e 08       		.byte	0x8
 2446 096f 08060000 		.4byte	.LASF144
 2447 0973 18       		.uleb128 0x18
ARM GAS  /var/folders/m4/4md61f0s1_g0rzfghffqnxvr0000gn/T//cce2qWbc.s 			page 44


 2448 0974 6C090000 		.4byte	0x96c
 2449 0978 0F       		.uleb128 0xf
 2450 0979 31010000 		.4byte	0x131
 2451 097d 09       		.uleb128 0x9
 2452 097e 04       		.byte	0x4
 2453 097f 36030000 		.4byte	0x336
 2454 0983 0F       		.uleb128 0xf
 2455 0984 66090000 		.4byte	0x966
 2456 0988 10       		.uleb128 0x10
 2457 0989 0D070000 		.4byte	0x70d
 2458 098d 98090000 		.4byte	0x998
 2459 0991 11       		.uleb128 0x11
 2460 0992 6A040000 		.4byte	0x46a
 2461 0996 3A       		.byte	0x3a
 2462 0997 00       		.byte	0
 2463 0998 03       		.uleb128 0x3
 2464 0999 33020000 		.4byte	.LASF145
 2465 099d 0D       		.byte	0xd
 2466 099e 34       		.byte	0x34
 2467 099f 2F090000 		.4byte	0x92f
 2468 09a3 09       		.uleb128 0x9
 2469 09a4 04       		.byte	0x4
 2470 09a5 98090000 		.4byte	0x998
 2471 09a9 12       		.uleb128 0x12
 2472 09aa 0C       		.byte	0xc
 2473 09ab 0E       		.byte	0xe
 2474 09ac 6D01     		.2byte	0x16d
 2475 09ae F4090000 		.4byte	0x9f4
 2476 09b2 08       		.uleb128 0x8
 2477 09b3 D3000000 		.4byte	.LASF146
 2478 09b7 0E       		.byte	0xe
 2479 09b8 6E01     		.2byte	0x16e
 2480 09ba F4090000 		.4byte	0x9f4
 2481 09be 00       		.byte	0
 2482 09bf 08       		.uleb128 0x8
 2483 09c0 92050000 		.4byte	.LASF147
 2484 09c4 0E       		.byte	0xe
 2485 09c5 6F01     		.2byte	0x16f
 2486 09c7 FA090000 		.4byte	0x9fa
 2487 09cb 04       		.byte	0x4
 2488 09cc 08       		.uleb128 0x8
 2489 09cd EF020000 		.4byte	.LASF148
 2490 09d1 0E       		.byte	0xe
 2491 09d2 7001     		.2byte	0x170
 2492 09d4 A2000000 		.4byte	0xa2
 2493 09d8 08       		.byte	0x8
 2494 09d9 08       		.uleb128 0x8
 2495 09da C9070000 		.4byte	.LASF149
 2496 09de 0E       		.byte	0xe
 2497 09df 7201     		.2byte	0x172
 2498 09e1 A2000000 		.4byte	0xa2
 2499 09e5 09       		.byte	0x9
 2500 09e6 08       		.uleb128 0x8
 2501 09e7 9D000000 		.4byte	.LASF150
 2502 09eb 0E       		.byte	0xe
 2503 09ec 7301     		.2byte	0x173
 2504 09ee A2000000 		.4byte	0xa2
ARM GAS  /var/folders/m4/4md61f0s1_g0rzfghffqnxvr0000gn/T//cce2qWbc.s 			page 45


 2505 09f2 0A       		.byte	0xa
 2506 09f3 00       		.byte	0
 2507 09f4 09       		.uleb128 0x9
 2508 09f5 04       		.byte	0x4
 2509 09f6 DD040000 		.4byte	0x4dd
 2510 09fa 09       		.uleb128 0x9
 2511 09fb 04       		.byte	0x4
 2512 09fc 71040000 		.4byte	0x471
 2513 0a00 13       		.uleb128 0x13
 2514 0a01 C2040000 		.4byte	.LASF151
 2515 0a05 0E       		.byte	0xe
 2516 0a06 7401     		.2byte	0x174
 2517 0a08 A9090000 		.4byte	0x9a9
 2518 0a0c 13       		.uleb128 0x13
 2519 0a0d C1020000 		.4byte	.LASF152
 2520 0a11 0E       		.byte	0xe
 2521 0a12 7D01     		.2byte	0x17d
 2522 0a14 180A0000 		.4byte	0xa18
 2523 0a18 09       		.uleb128 0x9
 2524 0a19 04       		.byte	0x4
 2525 0a1a 1E0A0000 		.4byte	0xa1e
 2526 0a1e 0B       		.uleb128 0xb
 2527 0a1f 2E0A0000 		.4byte	0xa2e
 2528 0a23 0C       		.uleb128 0xc
 2529 0a24 34030000 		.4byte	0x334
 2530 0a28 0C       		.uleb128 0xc
 2531 0a29 B8000000 		.4byte	0xb8
 2532 0a2d 00       		.byte	0
 2533 0a2e 04       		.uleb128 0x4
 2534 0a2f 01       		.byte	0x1
 2535 0a30 02       		.byte	0x2
 2536 0a31 F6040000 		.4byte	.LASF153
 2537 0a35 09       		.uleb128 0x9
 2538 0a36 04       		.byte	0x4
 2539 0a37 3B0A0000 		.4byte	0xa3b
 2540 0a3b 18       		.uleb128 0x18
 2541 0a3c 000A0000 		.4byte	0xa00
 2542 0a40 15       		.uleb128 0x15
 2543 0a41 08       		.byte	0x8
 2544 0a42 01       		.byte	0x1
 2545 0a43 59       		.byte	0x59
 2546 0a44 610A0000 		.4byte	0xa61
 2547 0a48 06       		.uleb128 0x6
 2548 0a49 2F040000 		.4byte	.LASF154
 2549 0a4d 01       		.byte	0x1
 2550 0a4e 5A       		.byte	0x5a
 2551 0a4f 0C0A0000 		.4byte	0xa0c
 2552 0a53 00       		.byte	0
 2553 0a54 06       		.uleb128 0x6
 2554 0a55 07020000 		.4byte	.LASF155
 2555 0a59 01       		.byte	0x1
 2556 0a5a 5B       		.byte	0x5b
 2557 0a5b 34030000 		.4byte	0x334
 2558 0a5f 04       		.byte	0x4
 2559 0a60 00       		.byte	0
 2560 0a61 03       		.uleb128 0x3
 2561 0a62 2C000000 		.4byte	.LASF156
ARM GAS  /var/folders/m4/4md61f0s1_g0rzfghffqnxvr0000gn/T//cce2qWbc.s 			page 46


 2562 0a66 01       		.byte	0x1
 2563 0a67 5C       		.byte	0x5c
 2564 0a68 400A0000 		.4byte	0xa40
 2565 0a6c 19       		.uleb128 0x19
 2566 0a6d DD040000 		.4byte	.LASF157
 2567 0a71 01       		.byte	0x1
 2568 0a72 75       		.byte	0x75
 2569 0a73 00000000 		.4byte	.LFB268
 2570 0a77 28000000 		.4byte	.LFE268-.LFB268
 2571 0a7b 01       		.uleb128 0x1
 2572 0a7c 9C       		.byte	0x9c
 2573 0a7d 9A0A0000 		.4byte	0xa9a
 2574 0a81 1A       		.uleb128 0x1a
 2575 0a82 37080000 		.4byte	.LASF159
 2576 0a86 01       		.byte	0x1
 2577 0a87 76       		.byte	0x76
 2578 0a88 B8000000 		.4byte	0xb8
 2579 0a8c 00000000 		.4byte	.LLST0
 2580 0a90 1B       		.uleb128 0x1b
 2581 0a91 1E000000 		.4byte	.LVL2
 2582 0a95 C50E0000 		.4byte	0xec5
 2583 0a99 00       		.byte	0
 2584 0a9a 19       		.uleb128 0x19
 2585 0a9b 97050000 		.4byte	.LASF158
 2586 0a9f 01       		.byte	0x1
 2587 0aa0 87       		.byte	0x87
 2588 0aa1 00000000 		.4byte	.LFB269
 2589 0aa5 2C000000 		.4byte	.LFE269-.LFB269
 2590 0aa9 01       		.uleb128 0x1
 2591 0aaa 9C       		.byte	0x9c
 2592 0aab C80A0000 		.4byte	0xac8
 2593 0aaf 1A       		.uleb128 0x1a
 2594 0ab0 37080000 		.4byte	.LASF159
 2595 0ab4 01       		.byte	0x1
 2596 0ab5 88       		.byte	0x88
 2597 0ab6 B8000000 		.4byte	0xb8
 2598 0aba 13000000 		.4byte	.LLST1
 2599 0abe 1B       		.uleb128 0x1b
 2600 0abf 22000000 		.4byte	.LVL5
 2601 0ac3 C50E0000 		.4byte	0xec5
 2602 0ac7 00       		.byte	0
 2603 0ac8 19       		.uleb128 0x19
 2604 0ac9 B4050000 		.4byte	.LASF160
 2605 0acd 01       		.byte	0x1
 2606 0ace 99       		.byte	0x99
 2607 0acf 00000000 		.4byte	.LFB270
 2608 0ad3 2C000000 		.4byte	.LFE270-.LFB270
 2609 0ad7 01       		.uleb128 0x1
 2610 0ad8 9C       		.byte	0x9c
 2611 0ad9 F60A0000 		.4byte	0xaf6
 2612 0add 1A       		.uleb128 0x1a
 2613 0ade 37080000 		.4byte	.LASF159
 2614 0ae2 01       		.byte	0x1
 2615 0ae3 9A       		.byte	0x9a
 2616 0ae4 B8000000 		.4byte	0xb8
 2617 0ae8 26000000 		.4byte	.LLST2
 2618 0aec 1B       		.uleb128 0x1b
ARM GAS  /var/folders/m4/4md61f0s1_g0rzfghffqnxvr0000gn/T//cce2qWbc.s 			page 47


 2619 0aed 22000000 		.4byte	.LVL8
 2620 0af1 C50E0000 		.4byte	0xec5
 2621 0af5 00       		.byte	0
 2622 0af6 19       		.uleb128 0x19
 2623 0af7 F6020000 		.4byte	.LASF161
 2624 0afb 01       		.byte	0x1
 2625 0afc AB       		.byte	0xab
 2626 0afd 00000000 		.4byte	.LFB271
 2627 0b01 2C000000 		.4byte	.LFE271-.LFB271
 2628 0b05 01       		.uleb128 0x1
 2629 0b06 9C       		.byte	0x9c
 2630 0b07 240B0000 		.4byte	0xb24
 2631 0b0b 1A       		.uleb128 0x1a
 2632 0b0c 37080000 		.4byte	.LASF159
 2633 0b10 01       		.byte	0x1
 2634 0b11 AC       		.byte	0xac
 2635 0b12 B8000000 		.4byte	0xb8
 2636 0b16 39000000 		.4byte	.LLST3
 2637 0b1a 1B       		.uleb128 0x1b
 2638 0b1b 22000000 		.4byte	.LVL11
 2639 0b1f C50E0000 		.4byte	0xec5
 2640 0b23 00       		.byte	0
 2641 0b24 19       		.uleb128 0x19
 2642 0b25 47030000 		.4byte	.LASF162
 2643 0b29 01       		.byte	0x1
 2644 0b2a BD       		.byte	0xbd
 2645 0b2b 00000000 		.4byte	.LFB272
 2646 0b2f 28000000 		.4byte	.LFE272-.LFB272
 2647 0b33 01       		.uleb128 0x1
 2648 0b34 9C       		.byte	0x9c
 2649 0b35 520B0000 		.4byte	0xb52
 2650 0b39 1A       		.uleb128 0x1a
 2651 0b3a 37080000 		.4byte	.LASF159
 2652 0b3e 01       		.byte	0x1
 2653 0b3f BE       		.byte	0xbe
 2654 0b40 B8000000 		.4byte	0xb8
 2655 0b44 4C000000 		.4byte	.LLST4
 2656 0b48 1B       		.uleb128 0x1b
 2657 0b49 1E000000 		.4byte	.LVL14
 2658 0b4d C50E0000 		.4byte	0xec5
 2659 0b51 00       		.byte	0
 2660 0b52 19       		.uleb128 0x19
 2661 0b53 DA070000 		.4byte	.LASF163
 2662 0b57 01       		.byte	0x1
 2663 0b58 CF       		.byte	0xcf
 2664 0b59 00000000 		.4byte	.LFB273
 2665 0b5d 2C000000 		.4byte	.LFE273-.LFB273
 2666 0b61 01       		.uleb128 0x1
 2667 0b62 9C       		.byte	0x9c
 2668 0b63 800B0000 		.4byte	0xb80
 2669 0b67 1A       		.uleb128 0x1a
 2670 0b68 37080000 		.4byte	.LASF159
 2671 0b6c 01       		.byte	0x1
 2672 0b6d D0       		.byte	0xd0
 2673 0b6e B8000000 		.4byte	0xb8
 2674 0b72 5F000000 		.4byte	.LLST5
 2675 0b76 1B       		.uleb128 0x1b
ARM GAS  /var/folders/m4/4md61f0s1_g0rzfghffqnxvr0000gn/T//cce2qWbc.s 			page 48


 2676 0b77 22000000 		.4byte	.LVL17
 2677 0b7b C50E0000 		.4byte	0xec5
 2678 0b7f 00       		.byte	0
 2679 0b80 19       		.uleb128 0x19
 2680 0b81 F2070000 		.4byte	.LASF164
 2681 0b85 01       		.byte	0x1
 2682 0b86 E1       		.byte	0xe1
 2683 0b87 00000000 		.4byte	.LFB274
 2684 0b8b 2C000000 		.4byte	.LFE274-.LFB274
 2685 0b8f 01       		.uleb128 0x1
 2686 0b90 9C       		.byte	0x9c
 2687 0b91 AE0B0000 		.4byte	0xbae
 2688 0b95 1A       		.uleb128 0x1a
 2689 0b96 37080000 		.4byte	.LASF159
 2690 0b9a 01       		.byte	0x1
 2691 0b9b E2       		.byte	0xe2
 2692 0b9c B8000000 		.4byte	0xb8
 2693 0ba0 72000000 		.4byte	.LLST6
 2694 0ba4 1B       		.uleb128 0x1b
 2695 0ba5 22000000 		.4byte	.LVL20
 2696 0ba9 C50E0000 		.4byte	0xec5
 2697 0bad 00       		.byte	0
 2698 0bae 19       		.uleb128 0x19
 2699 0baf 11020000 		.4byte	.LASF165
 2700 0bb3 01       		.byte	0x1
 2701 0bb4 F3       		.byte	0xf3
 2702 0bb5 00000000 		.4byte	.LFB275
 2703 0bb9 2C000000 		.4byte	.LFE275-.LFB275
 2704 0bbd 01       		.uleb128 0x1
 2705 0bbe 9C       		.byte	0x9c
 2706 0bbf DC0B0000 		.4byte	0xbdc
 2707 0bc3 1A       		.uleb128 0x1a
 2708 0bc4 37080000 		.4byte	.LASF159
 2709 0bc8 01       		.byte	0x1
 2710 0bc9 F4       		.byte	0xf4
 2711 0bca B8000000 		.4byte	0xb8
 2712 0bce 85000000 		.4byte	.LLST7
 2713 0bd2 1B       		.uleb128 0x1b
 2714 0bd3 22000000 		.4byte	.LVL23
 2715 0bd7 C50E0000 		.4byte	0xec5
 2716 0bdb 00       		.byte	0
 2717 0bdc 1C       		.uleb128 0x1c
 2718 0bdd 59080000 		.4byte	.LASF166
 2719 0be1 01       		.byte	0x1
 2720 0be2 0501     		.2byte	0x105
 2721 0be4 00000000 		.4byte	.LFB276
 2722 0be8 28000000 		.4byte	.LFE276-.LFB276
 2723 0bec 01       		.uleb128 0x1
 2724 0bed 9C       		.byte	0x9c
 2725 0bee 0C0C0000 		.4byte	0xc0c
 2726 0bf2 1D       		.uleb128 0x1d
 2727 0bf3 37080000 		.4byte	.LASF159
 2728 0bf7 01       		.byte	0x1
 2729 0bf8 0601     		.2byte	0x106
 2730 0bfa B8000000 		.4byte	0xb8
 2731 0bfe 98000000 		.4byte	.LLST8
 2732 0c02 1B       		.uleb128 0x1b
ARM GAS  /var/folders/m4/4md61f0s1_g0rzfghffqnxvr0000gn/T//cce2qWbc.s 			page 49


 2733 0c03 1E000000 		.4byte	.LVL26
 2734 0c07 C50E0000 		.4byte	0xec5
 2735 0c0b 00       		.byte	0
 2736 0c0c 1C       		.uleb128 0x1c
 2737 0c0d 68080000 		.4byte	.LASF167
 2738 0c11 01       		.byte	0x1
 2739 0c12 1701     		.2byte	0x117
 2740 0c14 00000000 		.4byte	.LFB277
 2741 0c18 2C000000 		.4byte	.LFE277-.LFB277
 2742 0c1c 01       		.uleb128 0x1
 2743 0c1d 9C       		.byte	0x9c
 2744 0c1e 3C0C0000 		.4byte	0xc3c
 2745 0c22 1D       		.uleb128 0x1d
 2746 0c23 37080000 		.4byte	.LASF159
 2747 0c27 01       		.byte	0x1
 2748 0c28 1801     		.2byte	0x118
 2749 0c2a B8000000 		.4byte	0xb8
 2750 0c2e AB000000 		.4byte	.LLST9
 2751 0c32 1B       		.uleb128 0x1b
 2752 0c33 22000000 		.4byte	.LVL29
 2753 0c37 C50E0000 		.4byte	0xec5
 2754 0c3b 00       		.byte	0
 2755 0c3c 1C       		.uleb128 0x1c
 2756 0c3d 7A080000 		.4byte	.LASF168
 2757 0c41 01       		.byte	0x1
 2758 0c42 2901     		.2byte	0x129
 2759 0c44 00000000 		.4byte	.LFB278
 2760 0c48 2C000000 		.4byte	.LFE278-.LFB278
 2761 0c4c 01       		.uleb128 0x1
 2762 0c4d 9C       		.byte	0x9c
 2763 0c4e 6C0C0000 		.4byte	0xc6c
 2764 0c52 1D       		.uleb128 0x1d
 2765 0c53 37080000 		.4byte	.LASF159
 2766 0c57 01       		.byte	0x1
 2767 0c58 2A01     		.2byte	0x12a
 2768 0c5a B8000000 		.4byte	0xb8
 2769 0c5e BE000000 		.4byte	.LLST10
 2770 0c62 1B       		.uleb128 0x1b
 2771 0c63 22000000 		.4byte	.LVL32
 2772 0c67 C50E0000 		.4byte	0xec5
 2773 0c6b 00       		.byte	0
 2774 0c6c 1C       		.uleb128 0x1c
 2775 0c6d 8A080000 		.4byte	.LASF169
 2776 0c71 01       		.byte	0x1
 2777 0c72 3B01     		.2byte	0x13b
 2778 0c74 00000000 		.4byte	.LFB279
 2779 0c78 2C000000 		.4byte	.LFE279-.LFB279
 2780 0c7c 01       		.uleb128 0x1
 2781 0c7d 9C       		.byte	0x9c
 2782 0c7e 9C0C0000 		.4byte	0xc9c
 2783 0c82 1D       		.uleb128 0x1d
 2784 0c83 37080000 		.4byte	.LASF159
 2785 0c87 01       		.byte	0x1
 2786 0c88 3C01     		.2byte	0x13c
 2787 0c8a B8000000 		.4byte	0xb8
 2788 0c8e D1000000 		.4byte	.LLST11
 2789 0c92 1B       		.uleb128 0x1b
ARM GAS  /var/folders/m4/4md61f0s1_g0rzfghffqnxvr0000gn/T//cce2qWbc.s 			page 50


 2790 0c93 22000000 		.4byte	.LVL35
 2791 0c97 C50E0000 		.4byte	0xec5
 2792 0c9b 00       		.byte	0
 2793 0c9c 1C       		.uleb128 0x1c
 2794 0c9d C9000000 		.4byte	.LASF170
 2795 0ca1 01       		.byte	0x1
 2796 0ca2 4D01     		.2byte	0x14d
 2797 0ca4 00000000 		.4byte	.LFB280
 2798 0ca8 28000000 		.4byte	.LFE280-.LFB280
 2799 0cac 01       		.uleb128 0x1
 2800 0cad 9C       		.byte	0x9c
 2801 0cae CC0C0000 		.4byte	0xccc
 2802 0cb2 1D       		.uleb128 0x1d
 2803 0cb3 37080000 		.4byte	.LASF159
 2804 0cb7 01       		.byte	0x1
 2805 0cb8 4E01     		.2byte	0x14e
 2806 0cba B8000000 		.4byte	0xb8
 2807 0cbe E4000000 		.4byte	.LLST12
 2808 0cc2 1B       		.uleb128 0x1b
 2809 0cc3 1E000000 		.4byte	.LVL38
 2810 0cc7 C50E0000 		.4byte	0xec5
 2811 0ccb 00       		.byte	0
 2812 0ccc 1C       		.uleb128 0x1c
 2813 0ccd 71020000 		.4byte	.LASF171
 2814 0cd1 01       		.byte	0x1
 2815 0cd2 5F01     		.2byte	0x15f
 2816 0cd4 00000000 		.4byte	.LFB281
 2817 0cd8 2C000000 		.4byte	.LFE281-.LFB281
 2818 0cdc 01       		.uleb128 0x1
 2819 0cdd 9C       		.byte	0x9c
 2820 0cde FC0C0000 		.4byte	0xcfc
 2821 0ce2 1D       		.uleb128 0x1d
 2822 0ce3 37080000 		.4byte	.LASF159
 2823 0ce7 01       		.byte	0x1
 2824 0ce8 6001     		.2byte	0x160
 2825 0cea B8000000 		.4byte	0xb8
 2826 0cee F7000000 		.4byte	.LLST13
 2827 0cf2 1B       		.uleb128 0x1b
 2828 0cf3 22000000 		.4byte	.LVL41
 2829 0cf7 C50E0000 		.4byte	0xec5
 2830 0cfb 00       		.byte	0
 2831 0cfc 1C       		.uleb128 0x1c
 2832 0cfd AA050000 		.4byte	.LASF172
 2833 0d01 01       		.byte	0x1
 2834 0d02 7101     		.2byte	0x171
 2835 0d04 00000000 		.4byte	.LFB282
 2836 0d08 2C000000 		.4byte	.LFE282-.LFB282
 2837 0d0c 01       		.uleb128 0x1
 2838 0d0d 9C       		.byte	0x9c
 2839 0d0e 2C0D0000 		.4byte	0xd2c
 2840 0d12 1D       		.uleb128 0x1d
 2841 0d13 37080000 		.4byte	.LASF159
 2842 0d17 01       		.byte	0x1
 2843 0d18 7201     		.2byte	0x172
 2844 0d1a B8000000 		.4byte	0xb8
 2845 0d1e 0A010000 		.4byte	.LLST14
 2846 0d22 1B       		.uleb128 0x1b
ARM GAS  /var/folders/m4/4md61f0s1_g0rzfghffqnxvr0000gn/T//cce2qWbc.s 			page 51


 2847 0d23 22000000 		.4byte	.LVL44
 2848 0d27 C50E0000 		.4byte	0xec5
 2849 0d2b 00       		.byte	0
 2850 0d2c 1C       		.uleb128 0x1c
 2851 0d2d AE020000 		.4byte	.LASF173
 2852 0d31 01       		.byte	0x1
 2853 0d32 8301     		.2byte	0x183
 2854 0d34 00000000 		.4byte	.LFB283
 2855 0d38 2C000000 		.4byte	.LFE283-.LFB283
 2856 0d3c 01       		.uleb128 0x1
 2857 0d3d 9C       		.byte	0x9c
 2858 0d3e 5C0D0000 		.4byte	0xd5c
 2859 0d42 1D       		.uleb128 0x1d
 2860 0d43 37080000 		.4byte	.LASF159
 2861 0d47 01       		.byte	0x1
 2862 0d48 8401     		.2byte	0x184
 2863 0d4a B8000000 		.4byte	0xb8
 2864 0d4e 1D010000 		.4byte	.LLST15
 2865 0d52 1B       		.uleb128 0x1b
 2866 0d53 22000000 		.4byte	.LVL47
 2867 0d57 C50E0000 		.4byte	0xec5
 2868 0d5b 00       		.byte	0
 2869 0d5c 1E       		.uleb128 0x1e
 2870 0d5d E4050000 		.4byte	.LASF174
 2871 0d61 01       		.byte	0x1
 2872 0d62 9901     		.2byte	0x199
 2873 0d64 00000000 		.4byte	.LFB284
 2874 0d68 54000000 		.4byte	.LFE284-.LFB284
 2875 0d6c 01       		.uleb128 0x1
 2876 0d6d 9C       		.byte	0x9c
 2877 0d6e 810D0000 		.4byte	0xd81
 2878 0d72 1F       		.uleb128 0x1f
 2879 0d73 6900     		.ascii	"i\000"
 2880 0d75 01       		.byte	0x1
 2881 0d76 9A01     		.2byte	0x19a
 2882 0d78 37000000 		.4byte	0x37
 2883 0d7c 30010000 		.4byte	.LLST16
 2884 0d80 00       		.byte	0
 2885 0d81 20       		.uleb128 0x20
 2886 0d82 A2080000 		.4byte	.LASF191
 2887 0d86 01       		.byte	0x1
 2888 0d87 BF01     		.2byte	0x1bf
 2889 0d89 2E0A0000 		.4byte	0xa2e
 2890 0d8d 00000000 		.4byte	.LFB285
 2891 0d91 8C000000 		.4byte	.LFE285-.LFB285
 2892 0d95 01       		.uleb128 0x1
 2893 0d96 9C       		.byte	0x9c
 2894 0d97 EE0D0000 		.4byte	0xdee
 2895 0d9b 21       		.uleb128 0x21
 2896 0d9c B6010000 		.4byte	.LASF175
 2897 0da0 01       		.byte	0x1
 2898 0da1 BF01     		.2byte	0x1bf
 2899 0da3 350A0000 		.4byte	0xa35
 2900 0da7 4F010000 		.4byte	.LLST17
 2901 0dab 21       		.uleb128 0x21
 2902 0dac 63030000 		.4byte	.LASF176
 2903 0db0 01       		.byte	0x1
ARM GAS  /var/folders/m4/4md61f0s1_g0rzfghffqnxvr0000gn/T//cce2qWbc.s 			page 52


 2904 0db1 C001     		.2byte	0x1c0
 2905 0db3 B8000000 		.4byte	0xb8
 2906 0db7 A2010000 		.4byte	.LLST18
 2907 0dbb 21       		.uleb128 0x21
 2908 0dbc F2010000 		.4byte	.LASF177
 2909 0dc0 01       		.byte	0x1
 2910 0dc1 C101     		.2byte	0x1c1
 2911 0dc3 0C0A0000 		.4byte	0xa0c
 2912 0dc7 CE010000 		.4byte	.LLST19
 2913 0dcb 21       		.uleb128 0x21
 2914 0dcc 11040000 		.4byte	.LASF178
 2915 0dd0 01       		.byte	0x1
 2916 0dd1 C201     		.2byte	0x1c2
 2917 0dd3 34030000 		.4byte	0x334
 2918 0dd7 FA010000 		.4byte	.LLST20
 2919 0ddb 22       		.uleb128 0x22
 2920 0ddc 58050000 		.4byte	.LASF180
 2921 0de0 FE0D0000 		.4byte	0xdfe
 2922 0de4 23       		.uleb128 0x23
 2923 0de5 68000000 		.4byte	.LVL56
 2924 0de9 D10E0000 		.4byte	0xed1
 2925 0ded 00       		.byte	0
 2926 0dee 10       		.uleb128 0x10
 2927 0def 6C090000 		.4byte	0x96c
 2928 0df3 FE0D0000 		.4byte	0xdfe
 2929 0df7 11       		.uleb128 0x11
 2930 0df8 6A040000 		.4byte	0x46a
 2931 0dfc 11       		.byte	0x11
 2932 0dfd 00       		.byte	0
 2933 0dfe 18       		.uleb128 0x18
 2934 0dff EE0D0000 		.4byte	0xdee
 2935 0e03 1E       		.uleb128 0x1e
 2936 0e04 0D060000 		.4byte	.LASF179
 2937 0e08 01       		.byte	0x1
 2938 0e09 F101     		.2byte	0x1f1
 2939 0e0b 00000000 		.4byte	.LFB286
 2940 0e0f 44000000 		.4byte	.LFE286-.LFB286
 2941 0e13 01       		.uleb128 0x1
 2942 0e14 9C       		.byte	0x9c
 2943 0e15 3C0E0000 		.4byte	0xe3c
 2944 0e19 21       		.uleb128 0x21
 2945 0e1a B6010000 		.4byte	.LASF175
 2946 0e1e 01       		.byte	0x1
 2947 0e1f F101     		.2byte	0x1f1
 2948 0e21 350A0000 		.4byte	0xa35
 2949 0e25 4A020000 		.4byte	.LLST21
 2950 0e29 22       		.uleb128 0x22
 2951 0e2a 58050000 		.4byte	.LASF180
 2952 0e2e 4C0E0000 		.4byte	0xe4c
 2953 0e32 23       		.uleb128 0x23
 2954 0e33 0A000000 		.4byte	.LVL64
 2955 0e37 DC0E0000 		.4byte	0xedc
 2956 0e3b 00       		.byte	0
 2957 0e3c 10       		.uleb128 0x10
 2958 0e3d 6C090000 		.4byte	0x96c
 2959 0e41 4C0E0000 		.4byte	0xe4c
 2960 0e45 11       		.uleb128 0x11
ARM GAS  /var/folders/m4/4md61f0s1_g0rzfghffqnxvr0000gn/T//cce2qWbc.s 			page 53


 2961 0e46 6A040000 		.4byte	0x46a
 2962 0e4a 10       		.byte	0x10
 2963 0e4b 00       		.byte	0
 2964 0e4c 18       		.uleb128 0x18
 2965 0e4d 3C0E0000 		.4byte	0xe3c
 2966 0e51 24       		.uleb128 0x24
 2967 0e52 9F070000 		.4byte	.LASF181
 2968 0e56 01       		.byte	0x1
 2969 0e57 61       		.byte	0x61
 2970 0e58 B8000000 		.4byte	0xb8
 2971 0e5c 05       		.uleb128 0x5
 2972 0e5d 03       		.byte	0x3
 2973 0e5e 00000000 		.4byte	dma_streams_mask
 2974 0e62 10       		.uleb128 0x10
 2975 0e63 610A0000 		.4byte	0xa61
 2976 0e67 720E0000 		.4byte	0xe72
 2977 0e6b 11       		.uleb128 0x11
 2978 0e6c 6A040000 		.4byte	0x46a
 2979 0e70 0F       		.byte	0xf
 2980 0e71 00       		.byte	0
 2981 0e72 24       		.uleb128 0x24
 2982 0e73 3D080000 		.4byte	.LASF182
 2983 0e77 01       		.byte	0x1
 2984 0e78 66       		.byte	0x66
 2985 0e79 620E0000 		.4byte	0xe62
 2986 0e7d 05       		.uleb128 0x5
 2987 0e7e 03       		.byte	0x3
 2988 0e7f 00000000 		.4byte	dma_isr_redir
 2989 0e83 25       		.uleb128 0x25
 2990 0e84 2B010000 		.4byte	.LASF183
 2991 0e88 0F       		.byte	0xf
 2992 0e89 FA06     		.2byte	0x6fa
 2993 0e8b 8F0E0000 		.4byte	0xe8f
 2994 0e8f 0F       		.uleb128 0xf
 2995 0e90 AD000000 		.4byte	0xad
 2996 0e94 26       		.uleb128 0x26
 2997 0e95 636800   		.ascii	"ch\000"
 2998 0e98 07       		.byte	0x7
 2999 0e99 0902     		.2byte	0x209
 3000 0e9b 03040000 		.4byte	0x403
 3001 0e9f 10       		.uleb128 0x10
 3002 0ea0 000A0000 		.4byte	0xa00
 3003 0ea4 AF0E0000 		.4byte	0xeaf
 3004 0ea8 11       		.uleb128 0x11
 3005 0ea9 6A040000 		.4byte	0x46a
 3006 0ead 0F       		.byte	0xf
 3007 0eae 00       		.byte	0
 3008 0eaf 27       		.uleb128 0x27
 3009 0eb0 02010000 		.4byte	.LASF184
 3010 0eb4 01       		.byte	0x1
 3011 0eb5 3F       		.byte	0x3f
 3012 0eb6 C00E0000 		.4byte	0xec0
 3013 0eba 05       		.uleb128 0x5
 3014 0ebb 03       		.byte	0x3
 3015 0ebc 00000000 		.4byte	_stm32_dma_streams
 3016 0ec0 18       		.uleb128 0x18
 3017 0ec1 9F0E0000 		.4byte	0xe9f
ARM GAS  /var/folders/m4/4md61f0s1_g0rzfghffqnxvr0000gn/T//cce2qWbc.s 			page 54


 3018 0ec5 28       		.uleb128 0x28
 3019 0ec6 50030000 		.4byte	.LASF185
 3020 0eca 50030000 		.4byte	.LASF185
 3021 0ece 0A       		.byte	0xa
 3022 0ecf 6F01     		.2byte	0x16f
 3023 0ed1 29       		.uleb128 0x29
 3024 0ed2 5A010000 		.4byte	.LASF186
 3025 0ed6 5A010000 		.4byte	.LASF186
 3026 0eda 10       		.byte	0x10
 3027 0edb 4E       		.byte	0x4e
 3028 0edc 29       		.uleb128 0x29
 3029 0edd 83020000 		.4byte	.LASF187
 3030 0ee1 83020000 		.4byte	.LASF187
 3031 0ee5 10       		.byte	0x10
 3032 0ee6 4F       		.byte	0x4f
 3033 0ee7 00       		.byte	0
 3034              		.section	.debug_abbrev,"",%progbits
 3035              	.Ldebug_abbrev0:
 3036 0000 01       		.uleb128 0x1
 3037 0001 11       		.uleb128 0x11
 3038 0002 01       		.byte	0x1
 3039 0003 25       		.uleb128 0x25
 3040 0004 0E       		.uleb128 0xe
 3041 0005 13       		.uleb128 0x13
 3042 0006 0B       		.uleb128 0xb
 3043 0007 03       		.uleb128 0x3
 3044 0008 0E       		.uleb128 0xe
 3045 0009 1B       		.uleb128 0x1b
 3046 000a 0E       		.uleb128 0xe
 3047 000b 55       		.uleb128 0x55
 3048 000c 17       		.uleb128 0x17
 3049 000d 11       		.uleb128 0x11
 3050 000e 01       		.uleb128 0x1
 3051 000f 10       		.uleb128 0x10
 3052 0010 17       		.uleb128 0x17
 3053 0011 00       		.byte	0
 3054 0012 00       		.byte	0
 3055 0013 02       		.uleb128 0x2
 3056 0014 24       		.uleb128 0x24
 3057 0015 00       		.byte	0
 3058 0016 0B       		.uleb128 0xb
 3059 0017 0B       		.uleb128 0xb
 3060 0018 3E       		.uleb128 0x3e
 3061 0019 0B       		.uleb128 0xb
 3062 001a 03       		.uleb128 0x3
 3063 001b 08       		.uleb128 0x8
 3064 001c 00       		.byte	0
 3065 001d 00       		.byte	0
 3066 001e 03       		.uleb128 0x3
 3067 001f 16       		.uleb128 0x16
 3068 0020 00       		.byte	0
 3069 0021 03       		.uleb128 0x3
 3070 0022 0E       		.uleb128 0xe
 3071 0023 3A       		.uleb128 0x3a
 3072 0024 0B       		.uleb128 0xb
 3073 0025 3B       		.uleb128 0x3b
 3074 0026 0B       		.uleb128 0xb
ARM GAS  /var/folders/m4/4md61f0s1_g0rzfghffqnxvr0000gn/T//cce2qWbc.s 			page 55


 3075 0027 49       		.uleb128 0x49
 3076 0028 13       		.uleb128 0x13
 3077 0029 00       		.byte	0
 3078 002a 00       		.byte	0
 3079 002b 04       		.uleb128 0x4
 3080 002c 24       		.uleb128 0x24
 3081 002d 00       		.byte	0
 3082 002e 0B       		.uleb128 0xb
 3083 002f 0B       		.uleb128 0xb
 3084 0030 3E       		.uleb128 0x3e
 3085 0031 0B       		.uleb128 0xb
 3086 0032 03       		.uleb128 0x3
 3087 0033 0E       		.uleb128 0xe
 3088 0034 00       		.byte	0
 3089 0035 00       		.byte	0
 3090 0036 05       		.uleb128 0x5
 3091 0037 13       		.uleb128 0x13
 3092 0038 01       		.byte	0x1
 3093 0039 03       		.uleb128 0x3
 3094 003a 0E       		.uleb128 0xe
 3095 003b 0B       		.uleb128 0xb
 3096 003c 0B       		.uleb128 0xb
 3097 003d 3A       		.uleb128 0x3a
 3098 003e 0B       		.uleb128 0xb
 3099 003f 3B       		.uleb128 0x3b
 3100 0040 0B       		.uleb128 0xb
 3101 0041 01       		.uleb128 0x1
 3102 0042 13       		.uleb128 0x13
 3103 0043 00       		.byte	0
 3104 0044 00       		.byte	0
 3105 0045 06       		.uleb128 0x6
 3106 0046 0D       		.uleb128 0xd
 3107 0047 00       		.byte	0
 3108 0048 03       		.uleb128 0x3
 3109 0049 0E       		.uleb128 0xe
 3110 004a 3A       		.uleb128 0x3a
 3111 004b 0B       		.uleb128 0xb
 3112 004c 3B       		.uleb128 0x3b
 3113 004d 0B       		.uleb128 0xb
 3114 004e 49       		.uleb128 0x49
 3115 004f 13       		.uleb128 0x13
 3116 0050 38       		.uleb128 0x38
 3117 0051 0B       		.uleb128 0xb
 3118 0052 00       		.byte	0
 3119 0053 00       		.byte	0
 3120 0054 07       		.uleb128 0x7
 3121 0055 0D       		.uleb128 0xd
 3122 0056 00       		.byte	0
 3123 0057 03       		.uleb128 0x3
 3124 0058 08       		.uleb128 0x8
 3125 0059 3A       		.uleb128 0x3a
 3126 005a 0B       		.uleb128 0xb
 3127 005b 3B       		.uleb128 0x3b
 3128 005c 05       		.uleb128 0x5
 3129 005d 49       		.uleb128 0x49
 3130 005e 13       		.uleb128 0x13
 3131 005f 38       		.uleb128 0x38
ARM GAS  /var/folders/m4/4md61f0s1_g0rzfghffqnxvr0000gn/T//cce2qWbc.s 			page 56


 3132 0060 0B       		.uleb128 0xb
 3133 0061 00       		.byte	0
 3134 0062 00       		.byte	0
 3135 0063 08       		.uleb128 0x8
 3136 0064 0D       		.uleb128 0xd
 3137 0065 00       		.byte	0
 3138 0066 03       		.uleb128 0x3
 3139 0067 0E       		.uleb128 0xe
 3140 0068 3A       		.uleb128 0x3a
 3141 0069 0B       		.uleb128 0xb
 3142 006a 3B       		.uleb128 0x3b
 3143 006b 05       		.uleb128 0x5
 3144 006c 49       		.uleb128 0x49
 3145 006d 13       		.uleb128 0x13
 3146 006e 38       		.uleb128 0x38
 3147 006f 0B       		.uleb128 0xb
 3148 0070 00       		.byte	0
 3149 0071 00       		.byte	0
 3150 0072 09       		.uleb128 0x9
 3151 0073 0F       		.uleb128 0xf
 3152 0074 00       		.byte	0
 3153 0075 0B       		.uleb128 0xb
 3154 0076 0B       		.uleb128 0xb
 3155 0077 49       		.uleb128 0x49
 3156 0078 13       		.uleb128 0x13
 3157 0079 00       		.byte	0
 3158 007a 00       		.byte	0
 3159 007b 0A       		.uleb128 0xa
 3160 007c 13       		.uleb128 0x13
 3161 007d 01       		.byte	0x1
 3162 007e 03       		.uleb128 0x3
 3163 007f 0E       		.uleb128 0xe
 3164 0080 0B       		.uleb128 0xb
 3165 0081 0B       		.uleb128 0xb
 3166 0082 3A       		.uleb128 0x3a
 3167 0083 0B       		.uleb128 0xb
 3168 0084 3B       		.uleb128 0x3b
 3169 0085 05       		.uleb128 0x5
 3170 0086 01       		.uleb128 0x1
 3171 0087 13       		.uleb128 0x13
 3172 0088 00       		.byte	0
 3173 0089 00       		.byte	0
 3174 008a 0B       		.uleb128 0xb
 3175 008b 15       		.uleb128 0x15
 3176 008c 01       		.byte	0x1
 3177 008d 27       		.uleb128 0x27
 3178 008e 19       		.uleb128 0x19
 3179 008f 01       		.uleb128 0x1
 3180 0090 13       		.uleb128 0x13
 3181 0091 00       		.byte	0
 3182 0092 00       		.byte	0
 3183 0093 0C       		.uleb128 0xc
 3184 0094 05       		.uleb128 0x5
 3185 0095 00       		.byte	0
 3186 0096 49       		.uleb128 0x49
 3187 0097 13       		.uleb128 0x13
 3188 0098 00       		.byte	0
ARM GAS  /var/folders/m4/4md61f0s1_g0rzfghffqnxvr0000gn/T//cce2qWbc.s 			page 57


 3189 0099 00       		.byte	0
 3190 009a 0D       		.uleb128 0xd
 3191 009b 0F       		.uleb128 0xf
 3192 009c 00       		.byte	0
 3193 009d 0B       		.uleb128 0xb
 3194 009e 0B       		.uleb128 0xb
 3195 009f 00       		.byte	0
 3196 00a0 00       		.byte	0
 3197 00a1 0E       		.uleb128 0xe
 3198 00a2 13       		.uleb128 0x13
 3199 00a3 01       		.byte	0x1
 3200 00a4 03       		.uleb128 0x3
 3201 00a5 0E       		.uleb128 0xe
 3202 00a6 0B       		.uleb128 0xb
 3203 00a7 05       		.uleb128 0x5
 3204 00a8 3A       		.uleb128 0x3a
 3205 00a9 0B       		.uleb128 0xb
 3206 00aa 3B       		.uleb128 0x3b
 3207 00ab 05       		.uleb128 0x5
 3208 00ac 01       		.uleb128 0x1
 3209 00ad 13       		.uleb128 0x13
 3210 00ae 00       		.byte	0
 3211 00af 00       		.byte	0
 3212 00b0 0F       		.uleb128 0xf
 3213 00b1 35       		.uleb128 0x35
 3214 00b2 00       		.byte	0
 3215 00b3 49       		.uleb128 0x49
 3216 00b4 13       		.uleb128 0x13
 3217 00b5 00       		.byte	0
 3218 00b6 00       		.byte	0
 3219 00b7 10       		.uleb128 0x10
 3220 00b8 01       		.uleb128 0x1
 3221 00b9 01       		.byte	0x1
 3222 00ba 49       		.uleb128 0x49
 3223 00bb 13       		.uleb128 0x13
 3224 00bc 01       		.uleb128 0x1
 3225 00bd 13       		.uleb128 0x13
 3226 00be 00       		.byte	0
 3227 00bf 00       		.byte	0
 3228 00c0 11       		.uleb128 0x11
 3229 00c1 21       		.uleb128 0x21
 3230 00c2 00       		.byte	0
 3231 00c3 49       		.uleb128 0x49
 3232 00c4 13       		.uleb128 0x13
 3233 00c5 2F       		.uleb128 0x2f
 3234 00c6 0B       		.uleb128 0xb
 3235 00c7 00       		.byte	0
 3236 00c8 00       		.byte	0
 3237 00c9 12       		.uleb128 0x12
 3238 00ca 13       		.uleb128 0x13
 3239 00cb 01       		.byte	0x1
 3240 00cc 0B       		.uleb128 0xb
 3241 00cd 0B       		.uleb128 0xb
 3242 00ce 3A       		.uleb128 0x3a
 3243 00cf 0B       		.uleb128 0xb
 3244 00d0 3B       		.uleb128 0x3b
 3245 00d1 05       		.uleb128 0x5
ARM GAS  /var/folders/m4/4md61f0s1_g0rzfghffqnxvr0000gn/T//cce2qWbc.s 			page 58


 3246 00d2 01       		.uleb128 0x1
 3247 00d3 13       		.uleb128 0x13
 3248 00d4 00       		.byte	0
 3249 00d5 00       		.byte	0
 3250 00d6 13       		.uleb128 0x13
 3251 00d7 16       		.uleb128 0x16
 3252 00d8 00       		.byte	0
 3253 00d9 03       		.uleb128 0x3
 3254 00da 0E       		.uleb128 0xe
 3255 00db 3A       		.uleb128 0x3a
 3256 00dc 0B       		.uleb128 0xb
 3257 00dd 3B       		.uleb128 0x3b
 3258 00de 05       		.uleb128 0x5
 3259 00df 49       		.uleb128 0x49
 3260 00e0 13       		.uleb128 0x13
 3261 00e1 00       		.byte	0
 3262 00e2 00       		.byte	0
 3263 00e3 14       		.uleb128 0x14
 3264 00e4 0D       		.uleb128 0xd
 3265 00e5 00       		.byte	0
 3266 00e6 03       		.uleb128 0x3
 3267 00e7 08       		.uleb128 0x8
 3268 00e8 3A       		.uleb128 0x3a
 3269 00e9 0B       		.uleb128 0xb
 3270 00ea 3B       		.uleb128 0x3b
 3271 00eb 0B       		.uleb128 0xb
 3272 00ec 49       		.uleb128 0x49
 3273 00ed 13       		.uleb128 0x13
 3274 00ee 38       		.uleb128 0x38
 3275 00ef 0B       		.uleb128 0xb
 3276 00f0 00       		.byte	0
 3277 00f1 00       		.byte	0
 3278 00f2 15       		.uleb128 0x15
 3279 00f3 13       		.uleb128 0x13
 3280 00f4 01       		.byte	0x1
 3281 00f5 0B       		.uleb128 0xb
 3282 00f6 0B       		.uleb128 0xb
 3283 00f7 3A       		.uleb128 0x3a
 3284 00f8 0B       		.uleb128 0xb
 3285 00f9 3B       		.uleb128 0x3b
 3286 00fa 0B       		.uleb128 0xb
 3287 00fb 01       		.uleb128 0x1
 3288 00fc 13       		.uleb128 0x13
 3289 00fd 00       		.byte	0
 3290 00fe 00       		.byte	0
 3291 00ff 16       		.uleb128 0x16
 3292 0100 17       		.uleb128 0x17
 3293 0101 01       		.byte	0x1
 3294 0102 0B       		.uleb128 0xb
 3295 0103 0B       		.uleb128 0xb
 3296 0104 3A       		.uleb128 0x3a
 3297 0105 0B       		.uleb128 0xb
 3298 0106 3B       		.uleb128 0x3b
 3299 0107 0B       		.uleb128 0xb
 3300 0108 01       		.uleb128 0x1
 3301 0109 13       		.uleb128 0x13
 3302 010a 00       		.byte	0
ARM GAS  /var/folders/m4/4md61f0s1_g0rzfghffqnxvr0000gn/T//cce2qWbc.s 			page 59


 3303 010b 00       		.byte	0
 3304 010c 17       		.uleb128 0x17
 3305 010d 0D       		.uleb128 0xd
 3306 010e 00       		.byte	0
 3307 010f 03       		.uleb128 0x3
 3308 0110 0E       		.uleb128 0xe
 3309 0111 3A       		.uleb128 0x3a
 3310 0112 0B       		.uleb128 0xb
 3311 0113 3B       		.uleb128 0x3b
 3312 0114 05       		.uleb128 0x5
 3313 0115 49       		.uleb128 0x49
 3314 0116 13       		.uleb128 0x13
 3315 0117 00       		.byte	0
 3316 0118 00       		.byte	0
 3317 0119 18       		.uleb128 0x18
 3318 011a 26       		.uleb128 0x26
 3319 011b 00       		.byte	0
 3320 011c 49       		.uleb128 0x49
 3321 011d 13       		.uleb128 0x13
 3322 011e 00       		.byte	0
 3323 011f 00       		.byte	0
 3324 0120 19       		.uleb128 0x19
 3325 0121 2E       		.uleb128 0x2e
 3326 0122 01       		.byte	0x1
 3327 0123 3F       		.uleb128 0x3f
 3328 0124 19       		.uleb128 0x19
 3329 0125 03       		.uleb128 0x3
 3330 0126 0E       		.uleb128 0xe
 3331 0127 3A       		.uleb128 0x3a
 3332 0128 0B       		.uleb128 0xb
 3333 0129 3B       		.uleb128 0x3b
 3334 012a 0B       		.uleb128 0xb
 3335 012b 27       		.uleb128 0x27
 3336 012c 19       		.uleb128 0x19
 3337 012d 11       		.uleb128 0x11
 3338 012e 01       		.uleb128 0x1
 3339 012f 12       		.uleb128 0x12
 3340 0130 06       		.uleb128 0x6
 3341 0131 40       		.uleb128 0x40
 3342 0132 18       		.uleb128 0x18
 3343 0133 9642     		.uleb128 0x2116
 3344 0135 19       		.uleb128 0x19
 3345 0136 01       		.uleb128 0x1
 3346 0137 13       		.uleb128 0x13
 3347 0138 00       		.byte	0
 3348 0139 00       		.byte	0
 3349 013a 1A       		.uleb128 0x1a
 3350 013b 34       		.uleb128 0x34
 3351 013c 00       		.byte	0
 3352 013d 03       		.uleb128 0x3
 3353 013e 0E       		.uleb128 0xe
 3354 013f 3A       		.uleb128 0x3a
 3355 0140 0B       		.uleb128 0xb
 3356 0141 3B       		.uleb128 0x3b
 3357 0142 0B       		.uleb128 0xb
 3358 0143 49       		.uleb128 0x49
 3359 0144 13       		.uleb128 0x13
ARM GAS  /var/folders/m4/4md61f0s1_g0rzfghffqnxvr0000gn/T//cce2qWbc.s 			page 60


 3360 0145 02       		.uleb128 0x2
 3361 0146 17       		.uleb128 0x17
 3362 0147 00       		.byte	0
 3363 0148 00       		.byte	0
 3364 0149 1B       		.uleb128 0x1b
 3365 014a 898201   		.uleb128 0x4109
 3366 014d 00       		.byte	0
 3367 014e 11       		.uleb128 0x11
 3368 014f 01       		.uleb128 0x1
 3369 0150 9542     		.uleb128 0x2115
 3370 0152 19       		.uleb128 0x19
 3371 0153 31       		.uleb128 0x31
 3372 0154 13       		.uleb128 0x13
 3373 0155 00       		.byte	0
 3374 0156 00       		.byte	0
 3375 0157 1C       		.uleb128 0x1c
 3376 0158 2E       		.uleb128 0x2e
 3377 0159 01       		.byte	0x1
 3378 015a 3F       		.uleb128 0x3f
 3379 015b 19       		.uleb128 0x19
 3380 015c 03       		.uleb128 0x3
 3381 015d 0E       		.uleb128 0xe
 3382 015e 3A       		.uleb128 0x3a
 3383 015f 0B       		.uleb128 0xb
 3384 0160 3B       		.uleb128 0x3b
 3385 0161 05       		.uleb128 0x5
 3386 0162 27       		.uleb128 0x27
 3387 0163 19       		.uleb128 0x19
 3388 0164 11       		.uleb128 0x11
 3389 0165 01       		.uleb128 0x1
 3390 0166 12       		.uleb128 0x12
 3391 0167 06       		.uleb128 0x6
 3392 0168 40       		.uleb128 0x40
 3393 0169 18       		.uleb128 0x18
 3394 016a 9642     		.uleb128 0x2116
 3395 016c 19       		.uleb128 0x19
 3396 016d 01       		.uleb128 0x1
 3397 016e 13       		.uleb128 0x13
 3398 016f 00       		.byte	0
 3399 0170 00       		.byte	0
 3400 0171 1D       		.uleb128 0x1d
 3401 0172 34       		.uleb128 0x34
 3402 0173 00       		.byte	0
 3403 0174 03       		.uleb128 0x3
 3404 0175 0E       		.uleb128 0xe
 3405 0176 3A       		.uleb128 0x3a
 3406 0177 0B       		.uleb128 0xb
 3407 0178 3B       		.uleb128 0x3b
 3408 0179 05       		.uleb128 0x5
 3409 017a 49       		.uleb128 0x49
 3410 017b 13       		.uleb128 0x13
 3411 017c 02       		.uleb128 0x2
 3412 017d 17       		.uleb128 0x17
 3413 017e 00       		.byte	0
 3414 017f 00       		.byte	0
 3415 0180 1E       		.uleb128 0x1e
 3416 0181 2E       		.uleb128 0x2e
ARM GAS  /var/folders/m4/4md61f0s1_g0rzfghffqnxvr0000gn/T//cce2qWbc.s 			page 61


 3417 0182 01       		.byte	0x1
 3418 0183 3F       		.uleb128 0x3f
 3419 0184 19       		.uleb128 0x19
 3420 0185 03       		.uleb128 0x3
 3421 0186 0E       		.uleb128 0xe
 3422 0187 3A       		.uleb128 0x3a
 3423 0188 0B       		.uleb128 0xb
 3424 0189 3B       		.uleb128 0x3b
 3425 018a 05       		.uleb128 0x5
 3426 018b 27       		.uleb128 0x27
 3427 018c 19       		.uleb128 0x19
 3428 018d 11       		.uleb128 0x11
 3429 018e 01       		.uleb128 0x1
 3430 018f 12       		.uleb128 0x12
 3431 0190 06       		.uleb128 0x6
 3432 0191 40       		.uleb128 0x40
 3433 0192 18       		.uleb128 0x18
 3434 0193 9742     		.uleb128 0x2117
 3435 0195 19       		.uleb128 0x19
 3436 0196 01       		.uleb128 0x1
 3437 0197 13       		.uleb128 0x13
 3438 0198 00       		.byte	0
 3439 0199 00       		.byte	0
 3440 019a 1F       		.uleb128 0x1f
 3441 019b 34       		.uleb128 0x34
 3442 019c 00       		.byte	0
 3443 019d 03       		.uleb128 0x3
 3444 019e 08       		.uleb128 0x8
 3445 019f 3A       		.uleb128 0x3a
 3446 01a0 0B       		.uleb128 0xb
 3447 01a1 3B       		.uleb128 0x3b
 3448 01a2 05       		.uleb128 0x5
 3449 01a3 49       		.uleb128 0x49
 3450 01a4 13       		.uleb128 0x13
 3451 01a5 02       		.uleb128 0x2
 3452 01a6 17       		.uleb128 0x17
 3453 01a7 00       		.byte	0
 3454 01a8 00       		.byte	0
 3455 01a9 20       		.uleb128 0x20
 3456 01aa 2E       		.uleb128 0x2e
 3457 01ab 01       		.byte	0x1
 3458 01ac 3F       		.uleb128 0x3f
 3459 01ad 19       		.uleb128 0x19
 3460 01ae 03       		.uleb128 0x3
 3461 01af 0E       		.uleb128 0xe
 3462 01b0 3A       		.uleb128 0x3a
 3463 01b1 0B       		.uleb128 0xb
 3464 01b2 3B       		.uleb128 0x3b
 3465 01b3 05       		.uleb128 0x5
 3466 01b4 27       		.uleb128 0x27
 3467 01b5 19       		.uleb128 0x19
 3468 01b6 49       		.uleb128 0x49
 3469 01b7 13       		.uleb128 0x13
 3470 01b8 11       		.uleb128 0x11
 3471 01b9 01       		.uleb128 0x1
 3472 01ba 12       		.uleb128 0x12
 3473 01bb 06       		.uleb128 0x6
ARM GAS  /var/folders/m4/4md61f0s1_g0rzfghffqnxvr0000gn/T//cce2qWbc.s 			page 62


 3474 01bc 40       		.uleb128 0x40
 3475 01bd 18       		.uleb128 0x18
 3476 01be 9742     		.uleb128 0x2117
 3477 01c0 19       		.uleb128 0x19
 3478 01c1 01       		.uleb128 0x1
 3479 01c2 13       		.uleb128 0x13
 3480 01c3 00       		.byte	0
 3481 01c4 00       		.byte	0
 3482 01c5 21       		.uleb128 0x21
 3483 01c6 05       		.uleb128 0x5
 3484 01c7 00       		.byte	0
 3485 01c8 03       		.uleb128 0x3
 3486 01c9 0E       		.uleb128 0xe
 3487 01ca 3A       		.uleb128 0x3a
 3488 01cb 0B       		.uleb128 0xb
 3489 01cc 3B       		.uleb128 0x3b
 3490 01cd 05       		.uleb128 0x5
 3491 01ce 49       		.uleb128 0x49
 3492 01cf 13       		.uleb128 0x13
 3493 01d0 02       		.uleb128 0x2
 3494 01d1 17       		.uleb128 0x17
 3495 01d2 00       		.byte	0
 3496 01d3 00       		.byte	0
 3497 01d4 22       		.uleb128 0x22
 3498 01d5 34       		.uleb128 0x34
 3499 01d6 00       		.byte	0
 3500 01d7 03       		.uleb128 0x3
 3501 01d8 0E       		.uleb128 0xe
 3502 01d9 49       		.uleb128 0x49
 3503 01da 13       		.uleb128 0x13
 3504 01db 34       		.uleb128 0x34
 3505 01dc 19       		.uleb128 0x19
 3506 01dd 00       		.byte	0
 3507 01de 00       		.byte	0
 3508 01df 23       		.uleb128 0x23
 3509 01e0 898201   		.uleb128 0x4109
 3510 01e3 00       		.byte	0
 3511 01e4 11       		.uleb128 0x11
 3512 01e5 01       		.uleb128 0x1
 3513 01e6 31       		.uleb128 0x31
 3514 01e7 13       		.uleb128 0x13
 3515 01e8 00       		.byte	0
 3516 01e9 00       		.byte	0
 3517 01ea 24       		.uleb128 0x24
 3518 01eb 34       		.uleb128 0x34
 3519 01ec 00       		.byte	0
 3520 01ed 03       		.uleb128 0x3
 3521 01ee 0E       		.uleb128 0xe
 3522 01ef 3A       		.uleb128 0x3a
 3523 01f0 0B       		.uleb128 0xb
 3524 01f1 3B       		.uleb128 0x3b
 3525 01f2 0B       		.uleb128 0xb
 3526 01f3 49       		.uleb128 0x49
 3527 01f4 13       		.uleb128 0x13
 3528 01f5 02       		.uleb128 0x2
 3529 01f6 18       		.uleb128 0x18
 3530 01f7 00       		.byte	0
ARM GAS  /var/folders/m4/4md61f0s1_g0rzfghffqnxvr0000gn/T//cce2qWbc.s 			page 63


 3531 01f8 00       		.byte	0
 3532 01f9 25       		.uleb128 0x25
 3533 01fa 34       		.uleb128 0x34
 3534 01fb 00       		.byte	0
 3535 01fc 03       		.uleb128 0x3
 3536 01fd 0E       		.uleb128 0xe
 3537 01fe 3A       		.uleb128 0x3a
 3538 01ff 0B       		.uleb128 0xb
 3539 0200 3B       		.uleb128 0x3b
 3540 0201 05       		.uleb128 0x5
 3541 0202 49       		.uleb128 0x49
 3542 0203 13       		.uleb128 0x13
 3543 0204 3F       		.uleb128 0x3f
 3544 0205 19       		.uleb128 0x19
 3545 0206 3C       		.uleb128 0x3c
 3546 0207 19       		.uleb128 0x19
 3547 0208 00       		.byte	0
 3548 0209 00       		.byte	0
 3549 020a 26       		.uleb128 0x26
 3550 020b 34       		.uleb128 0x34
 3551 020c 00       		.byte	0
 3552 020d 03       		.uleb128 0x3
 3553 020e 08       		.uleb128 0x8
 3554 020f 3A       		.uleb128 0x3a
 3555 0210 0B       		.uleb128 0xb
 3556 0211 3B       		.uleb128 0x3b
 3557 0212 05       		.uleb128 0x5
 3558 0213 49       		.uleb128 0x49
 3559 0214 13       		.uleb128 0x13
 3560 0215 3F       		.uleb128 0x3f
 3561 0216 19       		.uleb128 0x19
 3562 0217 3C       		.uleb128 0x3c
 3563 0218 19       		.uleb128 0x19
 3564 0219 00       		.byte	0
 3565 021a 00       		.byte	0
 3566 021b 27       		.uleb128 0x27
 3567 021c 34       		.uleb128 0x34
 3568 021d 00       		.byte	0
 3569 021e 03       		.uleb128 0x3
 3570 021f 0E       		.uleb128 0xe
 3571 0220 3A       		.uleb128 0x3a
 3572 0221 0B       		.uleb128 0xb
 3573 0222 3B       		.uleb128 0x3b
 3574 0223 0B       		.uleb128 0xb
 3575 0224 49       		.uleb128 0x49
 3576 0225 13       		.uleb128 0x13
 3577 0226 3F       		.uleb128 0x3f
 3578 0227 19       		.uleb128 0x19
 3579 0228 02       		.uleb128 0x2
 3580 0229 18       		.uleb128 0x18
 3581 022a 00       		.byte	0
 3582 022b 00       		.byte	0
 3583 022c 28       		.uleb128 0x28
 3584 022d 2E       		.uleb128 0x2e
 3585 022e 00       		.byte	0
 3586 022f 3F       		.uleb128 0x3f
 3587 0230 19       		.uleb128 0x19
ARM GAS  /var/folders/m4/4md61f0s1_g0rzfghffqnxvr0000gn/T//cce2qWbc.s 			page 64


 3588 0231 3C       		.uleb128 0x3c
 3589 0232 19       		.uleb128 0x19
 3590 0233 6E       		.uleb128 0x6e
 3591 0234 0E       		.uleb128 0xe
 3592 0235 03       		.uleb128 0x3
 3593 0236 0E       		.uleb128 0xe
 3594 0237 3A       		.uleb128 0x3a
 3595 0238 0B       		.uleb128 0xb
 3596 0239 3B       		.uleb128 0x3b
 3597 023a 05       		.uleb128 0x5
 3598 023b 00       		.byte	0
 3599 023c 00       		.byte	0
 3600 023d 29       		.uleb128 0x29
 3601 023e 2E       		.uleb128 0x2e
 3602 023f 00       		.byte	0
 3603 0240 3F       		.uleb128 0x3f
 3604 0241 19       		.uleb128 0x19
 3605 0242 3C       		.uleb128 0x3c
 3606 0243 19       		.uleb128 0x19
 3607 0244 6E       		.uleb128 0x6e
 3608 0245 0E       		.uleb128 0xe
 3609 0246 03       		.uleb128 0x3
 3610 0247 0E       		.uleb128 0xe
 3611 0248 3A       		.uleb128 0x3a
 3612 0249 0B       		.uleb128 0xb
 3613 024a 3B       		.uleb128 0x3b
 3614 024b 0B       		.uleb128 0xb
 3615 024c 00       		.byte	0
 3616 024d 00       		.byte	0
 3617 024e 00       		.byte	0
 3618              		.section	.debug_loc,"",%progbits
 3619              	.Ldebug_loc0:
 3620              	.LLST0:
 3621 0000 0C000000 		.4byte	.LVL0
 3622 0004 15000000 		.4byte	.LVL1-1
 3623 0008 0100     		.2byte	0x1
 3624 000a 51       		.byte	0x51
 3625 000b 00000000 		.4byte	0
 3626 000f 00000000 		.4byte	0
 3627              	.LLST1:
 3628 0013 0E000000 		.4byte	.LVL3
 3629 0017 19000000 		.4byte	.LVL4-1
 3630 001b 0100     		.2byte	0x1
 3631 001d 51       		.byte	0x51
 3632 001e 00000000 		.4byte	0
 3633 0022 00000000 		.4byte	0
 3634              	.LLST2:
 3635 0026 0E000000 		.4byte	.LVL6
 3636 002a 19000000 		.4byte	.LVL7-1
 3637 002e 0100     		.2byte	0x1
 3638 0030 51       		.byte	0x51
 3639 0031 00000000 		.4byte	0
 3640 0035 00000000 		.4byte	0
 3641              	.LLST3:
 3642 0039 0E000000 		.4byte	.LVL9
 3643 003d 19000000 		.4byte	.LVL10-1
 3644 0041 0100     		.2byte	0x1
ARM GAS  /var/folders/m4/4md61f0s1_g0rzfghffqnxvr0000gn/T//cce2qWbc.s 			page 65


 3645 0043 51       		.byte	0x51
 3646 0044 00000000 		.4byte	0
 3647 0048 00000000 		.4byte	0
 3648              	.LLST4:
 3649 004c 0E000000 		.4byte	.LVL12
 3650 0050 15000000 		.4byte	.LVL13-1
 3651 0054 0100     		.2byte	0x1
 3652 0056 51       		.byte	0x51
 3653 0057 00000000 		.4byte	0
 3654 005b 00000000 		.4byte	0
 3655              	.LLST5:
 3656 005f 0E000000 		.4byte	.LVL15
 3657 0063 19000000 		.4byte	.LVL16-1
 3658 0067 0100     		.2byte	0x1
 3659 0069 51       		.byte	0x51
 3660 006a 00000000 		.4byte	0
 3661 006e 00000000 		.4byte	0
 3662              	.LLST6:
 3663 0072 0E000000 		.4byte	.LVL18
 3664 0076 19000000 		.4byte	.LVL19-1
 3665 007a 0100     		.2byte	0x1
 3666 007c 51       		.byte	0x51
 3667 007d 00000000 		.4byte	0
 3668 0081 00000000 		.4byte	0
 3669              	.LLST7:
 3670 0085 0E000000 		.4byte	.LVL21
 3671 0089 19000000 		.4byte	.LVL22-1
 3672 008d 0100     		.2byte	0x1
 3673 008f 51       		.byte	0x51
 3674 0090 00000000 		.4byte	0
 3675 0094 00000000 		.4byte	0
 3676              	.LLST8:
 3677 0098 0E000000 		.4byte	.LVL24
 3678 009c 15000000 		.4byte	.LVL25-1
 3679 00a0 0100     		.2byte	0x1
 3680 00a2 51       		.byte	0x51
 3681 00a3 00000000 		.4byte	0
 3682 00a7 00000000 		.4byte	0
 3683              	.LLST9:
 3684 00ab 0E000000 		.4byte	.LVL27
 3685 00af 19000000 		.4byte	.LVL28-1
 3686 00b3 0100     		.2byte	0x1
 3687 00b5 51       		.byte	0x51
 3688 00b6 00000000 		.4byte	0
 3689 00ba 00000000 		.4byte	0
 3690              	.LLST10:
 3691 00be 0E000000 		.4byte	.LVL30
 3692 00c2 19000000 		.4byte	.LVL31-1
 3693 00c6 0100     		.2byte	0x1
 3694 00c8 51       		.byte	0x51
 3695 00c9 00000000 		.4byte	0
 3696 00cd 00000000 		.4byte	0
 3697              	.LLST11:
 3698 00d1 0E000000 		.4byte	.LVL33
 3699 00d5 19000000 		.4byte	.LVL34-1
 3700 00d9 0100     		.2byte	0x1
 3701 00db 51       		.byte	0x51
ARM GAS  /var/folders/m4/4md61f0s1_g0rzfghffqnxvr0000gn/T//cce2qWbc.s 			page 66


 3702 00dc 00000000 		.4byte	0
 3703 00e0 00000000 		.4byte	0
 3704              	.LLST12:
 3705 00e4 0E000000 		.4byte	.LVL36
 3706 00e8 15000000 		.4byte	.LVL37-1
 3707 00ec 0100     		.2byte	0x1
 3708 00ee 51       		.byte	0x51
 3709 00ef 00000000 		.4byte	0
 3710 00f3 00000000 		.4byte	0
 3711              	.LLST13:
 3712 00f7 0E000000 		.4byte	.LVL39
 3713 00fb 19000000 		.4byte	.LVL40-1
 3714 00ff 0100     		.2byte	0x1
 3715 0101 51       		.byte	0x51
 3716 0102 00000000 		.4byte	0
 3717 0106 00000000 		.4byte	0
 3718              	.LLST14:
 3719 010a 0E000000 		.4byte	.LVL42
 3720 010e 19000000 		.4byte	.LVL43-1
 3721 0112 0100     		.2byte	0x1
 3722 0114 51       		.byte	0x51
 3723 0115 00000000 		.4byte	0
 3724 0119 00000000 		.4byte	0
 3725              	.LLST15:
 3726 011d 0E000000 		.4byte	.LVL45
 3727 0121 19000000 		.4byte	.LVL46-1
 3728 0125 0100     		.2byte	0x1
 3729 0127 51       		.byte	0x51
 3730 0128 00000000 		.4byte	0
 3731 012c 00000000 		.4byte	0
 3732              	.LLST16:
 3733 0130 0C000000 		.4byte	.LVL48
 3734 0134 12000000 		.4byte	.LVL49
 3735 0138 0200     		.2byte	0x2
 3736 013a 30       		.byte	0x30
 3737 013b 9F       		.byte	0x9f
 3738 013c 12000000 		.4byte	.LVL49
 3739 0140 32000000 		.4byte	.LVL52
 3740 0144 0100     		.2byte	0x1
 3741 0146 53       		.byte	0x53
 3742 0147 00000000 		.4byte	0
 3743 014b 00000000 		.4byte	0
 3744              	.LLST17:
 3745 014f 00000000 		.4byte	.LVL53
 3746 0153 64000000 		.4byte	.LVL55
 3747 0157 0100     		.2byte	0x1
 3748 0159 50       		.byte	0x50
 3749 015a 64000000 		.4byte	.LVL55
 3750 015e 6C000000 		.4byte	.LVL57
 3751 0162 0400     		.2byte	0x4
 3752 0164 F3       		.byte	0xf3
 3753 0165 01       		.uleb128 0x1
 3754 0166 50       		.byte	0x50
 3755 0167 9F       		.byte	0x9f
 3756 0168 6C000000 		.4byte	.LVL57
 3757 016c 7A000000 		.4byte	.LVL59
 3758 0170 0100     		.2byte	0x1
ARM GAS  /var/folders/m4/4md61f0s1_g0rzfghffqnxvr0000gn/T//cce2qWbc.s 			page 67


 3759 0172 50       		.byte	0x50
 3760 0173 7A000000 		.4byte	.LVL59
 3761 0177 7C000000 		.4byte	.LVL60
 3762 017b 0400     		.2byte	0x4
 3763 017d F3       		.byte	0xf3
 3764 017e 01       		.uleb128 0x1
 3765 017f 50       		.byte	0x50
 3766 0180 9F       		.byte	0x9f
 3767 0181 7C000000 		.4byte	.LVL60
 3768 0185 7E000000 		.4byte	.LVL61
 3769 0189 0100     		.2byte	0x1
 3770 018b 50       		.byte	0x50
 3771 018c 7E000000 		.4byte	.LVL61
 3772 0190 8C000000 		.4byte	.LFE285
 3773 0194 0400     		.2byte	0x4
 3774 0196 F3       		.byte	0xf3
 3775 0197 01       		.uleb128 0x1
 3776 0198 50       		.byte	0x50
 3777 0199 9F       		.byte	0x9f
 3778 019a 00000000 		.4byte	0
 3779 019e 00000000 		.4byte	0
 3780              	.LLST18:
 3781 01a2 00000000 		.4byte	.LVL53
 3782 01a6 67000000 		.4byte	.LVL56-1
 3783 01aa 0100     		.2byte	0x1
 3784 01ac 51       		.byte	0x51
 3785 01ad 67000000 		.4byte	.LVL56-1
 3786 01b1 6C000000 		.4byte	.LVL57
 3787 01b5 0400     		.2byte	0x4
 3788 01b7 F3       		.byte	0xf3
 3789 01b8 01       		.uleb128 0x1
 3790 01b9 51       		.byte	0x51
 3791 01ba 9F       		.byte	0x9f
 3792 01bb 6C000000 		.4byte	.LVL57
 3793 01bf 8C000000 		.4byte	.LFE285
 3794 01c3 0100     		.2byte	0x1
 3795 01c5 51       		.byte	0x51
 3796 01c6 00000000 		.4byte	0
 3797 01ca 00000000 		.4byte	0
 3798              	.LLST19:
 3799 01ce 00000000 		.4byte	.LVL53
 3800 01d2 67000000 		.4byte	.LVL56-1
 3801 01d6 0100     		.2byte	0x1
 3802 01d8 52       		.byte	0x52
 3803 01d9 67000000 		.4byte	.LVL56-1
 3804 01dd 6C000000 		.4byte	.LVL57
 3805 01e1 0400     		.2byte	0x4
 3806 01e3 F3       		.byte	0xf3
 3807 01e4 01       		.uleb128 0x1
 3808 01e5 52       		.byte	0x52
 3809 01e6 9F       		.byte	0x9f
 3810 01e7 6C000000 		.4byte	.LVL57
 3811 01eb 8C000000 		.4byte	.LFE285
 3812 01ef 0100     		.2byte	0x1
 3813 01f1 52       		.byte	0x52
 3814 01f2 00000000 		.4byte	0
 3815 01f6 00000000 		.4byte	0
ARM GAS  /var/folders/m4/4md61f0s1_g0rzfghffqnxvr0000gn/T//cce2qWbc.s 			page 68


 3816              	.LLST20:
 3817 01fa 00000000 		.4byte	.LVL53
 3818 01fe 32000000 		.4byte	.LVL54
 3819 0202 0100     		.2byte	0x1
 3820 0204 53       		.byte	0x53
 3821 0205 32000000 		.4byte	.LVL54
 3822 0209 67000000 		.4byte	.LVL56-1
 3823 020d 0200     		.2byte	0x2
 3824 020f 7E       		.byte	0x7e
 3825 0210 04       		.sleb128 4
 3826 0211 67000000 		.4byte	.LVL56-1
 3827 0215 6C000000 		.4byte	.LVL57
 3828 0219 0400     		.2byte	0x4
 3829 021b F3       		.byte	0xf3
 3830 021c 01       		.uleb128 0x1
 3831 021d 53       		.byte	0x53
 3832 021e 9F       		.byte	0x9f
 3833 021f 6C000000 		.4byte	.LVL57
 3834 0223 78000000 		.4byte	.LVL58
 3835 0227 0200     		.2byte	0x2
 3836 0229 7E       		.byte	0x7e
 3837 022a 04       		.sleb128 4
 3838 022b 78000000 		.4byte	.LVL58
 3839 022f 7C000000 		.4byte	.LVL60
 3840 0233 0100     		.2byte	0x1
 3841 0235 53       		.byte	0x53
 3842 0236 7C000000 		.4byte	.LVL60
 3843 023a 8C000000 		.4byte	.LFE285
 3844 023e 0200     		.2byte	0x2
 3845 0240 7E       		.byte	0x7e
 3846 0241 04       		.sleb128 4
 3847 0242 00000000 		.4byte	0
 3848 0246 00000000 		.4byte	0
 3849              	.LLST21:
 3850 024a 00000000 		.4byte	.LVL62
 3851 024e 06000000 		.4byte	.LVL63
 3852 0252 0100     		.2byte	0x1
 3853 0254 50       		.byte	0x50
 3854 0255 06000000 		.4byte	.LVL63
 3855 0259 3C000000 		.4byte	.LVL65
 3856 025d 0100     		.2byte	0x1
 3857 025f 54       		.byte	0x54
 3858 0260 3C000000 		.4byte	.LVL65
 3859 0264 44000000 		.4byte	.LFE286
 3860 0268 0400     		.2byte	0x4
 3861 026a F3       		.byte	0xf3
 3862 026b 01       		.uleb128 0x1
 3863 026c 50       		.byte	0x50
 3864 026d 9F       		.byte	0x9f
 3865 026e 00000000 		.4byte	0
 3866 0272 00000000 		.4byte	0
 3867              		.section	.debug_aranges,"",%progbits
 3868 0000 AC000000 		.4byte	0xac
 3869 0004 0200     		.2byte	0x2
 3870 0006 00000000 		.4byte	.Ldebug_info0
 3871 000a 04       		.byte	0x4
 3872 000b 00       		.byte	0
ARM GAS  /var/folders/m4/4md61f0s1_g0rzfghffqnxvr0000gn/T//cce2qWbc.s 			page 69


 3873 000c 0000     		.2byte	0
 3874 000e 0000     		.2byte	0
 3875 0010 00000000 		.4byte	.LFB268
 3876 0014 28000000 		.4byte	.LFE268-.LFB268
 3877 0018 00000000 		.4byte	.LFB269
 3878 001c 2C000000 		.4byte	.LFE269-.LFB269
 3879 0020 00000000 		.4byte	.LFB270
 3880 0024 2C000000 		.4byte	.LFE270-.LFB270
 3881 0028 00000000 		.4byte	.LFB271
 3882 002c 2C000000 		.4byte	.LFE271-.LFB271
 3883 0030 00000000 		.4byte	.LFB272
 3884 0034 28000000 		.4byte	.LFE272-.LFB272
 3885 0038 00000000 		.4byte	.LFB273
 3886 003c 2C000000 		.4byte	.LFE273-.LFB273
 3887 0040 00000000 		.4byte	.LFB274
 3888 0044 2C000000 		.4byte	.LFE274-.LFB274
 3889 0048 00000000 		.4byte	.LFB275
 3890 004c 2C000000 		.4byte	.LFE275-.LFB275
 3891 0050 00000000 		.4byte	.LFB276
 3892 0054 28000000 		.4byte	.LFE276-.LFB276
 3893 0058 00000000 		.4byte	.LFB277
 3894 005c 2C000000 		.4byte	.LFE277-.LFB277
 3895 0060 00000000 		.4byte	.LFB278
 3896 0064 2C000000 		.4byte	.LFE278-.LFB278
 3897 0068 00000000 		.4byte	.LFB279
 3898 006c 2C000000 		.4byte	.LFE279-.LFB279
 3899 0070 00000000 		.4byte	.LFB280
 3900 0074 28000000 		.4byte	.LFE280-.LFB280
 3901 0078 00000000 		.4byte	.LFB281
 3902 007c 2C000000 		.4byte	.LFE281-.LFB281
 3903 0080 00000000 		.4byte	.LFB282
 3904 0084 2C000000 		.4byte	.LFE282-.LFB282
 3905 0088 00000000 		.4byte	.LFB283
 3906 008c 2C000000 		.4byte	.LFE283-.LFB283
 3907 0090 00000000 		.4byte	.LFB284
 3908 0094 54000000 		.4byte	.LFE284-.LFB284
 3909 0098 00000000 		.4byte	.LFB285
 3910 009c 8C000000 		.4byte	.LFE285-.LFB285
 3911 00a0 00000000 		.4byte	.LFB286
 3912 00a4 44000000 		.4byte	.LFE286-.LFB286
 3913 00a8 00000000 		.4byte	0
 3914 00ac 00000000 		.4byte	0
 3915              		.section	.debug_ranges,"",%progbits
 3916              	.Ldebug_ranges0:
 3917 0000 00000000 		.4byte	.LFB268
 3918 0004 28000000 		.4byte	.LFE268
 3919 0008 00000000 		.4byte	.LFB269
 3920 000c 2C000000 		.4byte	.LFE269
 3921 0010 00000000 		.4byte	.LFB270
 3922 0014 2C000000 		.4byte	.LFE270
 3923 0018 00000000 		.4byte	.LFB271
 3924 001c 2C000000 		.4byte	.LFE271
 3925 0020 00000000 		.4byte	.LFB272
 3926 0024 28000000 		.4byte	.LFE272
 3927 0028 00000000 		.4byte	.LFB273
 3928 002c 2C000000 		.4byte	.LFE273
 3929 0030 00000000 		.4byte	.LFB274
ARM GAS  /var/folders/m4/4md61f0s1_g0rzfghffqnxvr0000gn/T//cce2qWbc.s 			page 70


 3930 0034 2C000000 		.4byte	.LFE274
 3931 0038 00000000 		.4byte	.LFB275
 3932 003c 2C000000 		.4byte	.LFE275
 3933 0040 00000000 		.4byte	.LFB276
 3934 0044 28000000 		.4byte	.LFE276
 3935 0048 00000000 		.4byte	.LFB277
 3936 004c 2C000000 		.4byte	.LFE277
 3937 0050 00000000 		.4byte	.LFB278
 3938 0054 2C000000 		.4byte	.LFE278
 3939 0058 00000000 		.4byte	.LFB279
 3940 005c 2C000000 		.4byte	.LFE279
 3941 0060 00000000 		.4byte	.LFB280
 3942 0064 28000000 		.4byte	.LFE280
 3943 0068 00000000 		.4byte	.LFB281
 3944 006c 2C000000 		.4byte	.LFE281
 3945 0070 00000000 		.4byte	.LFB282
 3946 0074 2C000000 		.4byte	.LFE282
 3947 0078 00000000 		.4byte	.LFB283
 3948 007c 2C000000 		.4byte	.LFE283
 3949 0080 00000000 		.4byte	.LFB284
 3950 0084 54000000 		.4byte	.LFE284
 3951 0088 00000000 		.4byte	.LFB285
 3952 008c 8C000000 		.4byte	.LFE285
 3953 0090 00000000 		.4byte	.LFB286
 3954 0094 44000000 		.4byte	.LFE286
 3955 0098 00000000 		.4byte	0
 3956 009c 00000000 		.4byte	0
 3957              		.section	.debug_line,"",%progbits
 3958              	.Ldebug_line0:
 3959 0000 B9050000 		.section	.debug_str,"MS",%progbits,1
 3959      02007403 
 3959      00000201 
 3959      FB0E0D00 
 3959      01010101 
 3960              	.LASF190:
 3961 0000 2F557365 		.ascii	"/Users/raphael/Documents/pcb-quadrotor/code\000"
 3961      72732F72 
 3961      61706861 
 3961      656C2F44 
 3961      6F63756D 
 3962              	.LASF156:
 3963 002c 646D615F 		.ascii	"dma_isr_redir_t\000"
 3963      6973725F 
 3963      72656469 
 3963      725F7400 
 3964              	.LASF54:
 3965 003c 72656164 		.ascii	"ready_list_t\000"
 3965      795F6C69 
 3965      73745F74 
 3965      00
 3966              	.LASF84:
 3967 0049 4D304152 		.ascii	"M0AR\000"
 3967      00
 3968              	.LASF2:
 3969 004e 73697A65 		.ascii	"size_t\000"
 3969      5F7400
 3970              	.LASF189:
ARM GAS  /var/folders/m4/4md61f0s1_g0rzfghffqnxvr0000gn/T//cce2qWbc.s 			page 71


 3971 0055 43686962 		.ascii	"ChibiOS_16.1.4/os/hal/ports/STM32/LLD/DMAv2/stm32_d"
 3971      694F535F 
 3971      31362E31 
 3971      2E342F6F 
 3971      732F6861 
 3972 0088 6D612E63 		.ascii	"ma.c\000"
 3972      00
 3973              	.LASF130:
 3974 008d 7264796D 		.ascii	"rdymsg\000"
 3974      736700
 3975              	.LASF17:
 3976 0094 75696E74 		.ascii	"uint64_t\000"
 3976      36345F74 
 3976      00
 3977              	.LASF150:
 3978 009d 76656374 		.ascii	"vector\000"
 3978      6F7200
 3979              	.LASF3:
 3980 00a4 5F5F7569 		.ascii	"__uint8_t\000"
 3980      6E74385F 
 3980      7400
 3981              	.LASF127:
 3982 00ae 706F7274 		.ascii	"port_intctx\000"
 3982      5F696E74 
 3982      63747800 
 3983              	.LASF73:
 3984 00ba 73797374 		.ascii	"system_debug_t\000"
 3984      656D5F64 
 3984      65627567 
 3984      5F7400
 3985              	.LASF170:
 3986 00c9 56656374 		.ascii	"Vector130\000"
 3986      6F723133 
 3986      3000
 3987              	.LASF146:
 3988 00d3 73747265 		.ascii	"stream\000"
 3988      616D00
 3989              	.LASF60:
 3990 00da 725F6F6C 		.ascii	"r_older\000"
 3990      64657200 
 3991              	.LASF13:
 3992 00e2 6C6F6E67 		.ascii	"long long unsigned int\000"
 3992      206C6F6E 
 3992      6720756E 
 3992      7369676E 
 3992      65642069 
 3993              	.LASF131:
 3994 00f9 65786974 		.ascii	"exitcode\000"
 3994      636F6465 
 3994      00
 3995              	.LASF184:
 3996 0102 5F73746D 		.ascii	"_stm32_dma_streams\000"
 3996      33325F64 
 3996      6D615F73 
 3996      74726561 
 3996      6D7300
 3997              	.LASF70:
ARM GAS  /var/folders/m4/4md61f0s1_g0rzfghffqnxvr0000gn/T//cce2qWbc.s 			page 72


 3998 0115 76697274 		.ascii	"virtual_timers_list_t\000"
 3998      75616C5F 
 3998      74696D65 
 3998      72735F6C 
 3998      6973745F 
 3999              	.LASF183:
 4000 012b 49544D5F 		.ascii	"ITM_RxBuffer\000"
 4000      52784275 
 4000      66666572 
 4000      00
 4001              	.LASF53:
 4002 0138 63685F74 		.ascii	"ch_threads_queue\000"
 4002      68726561 
 4002      64735F71 
 4002      75657565 
 4002      00
 4003              	.LASF108:
 4004 0149 41484231 		.ascii	"AHB1LPENR\000"
 4004      4C50454E 
 4004      5200
 4005              	.LASF31:
 4006 0153 705F7072 		.ascii	"p_prio\000"
 4006      696F00
 4007              	.LASF186:
 4008 015a 6E766963 		.ascii	"nvicEnableVector\000"
 4008      456E6162 
 4008      6C655665 
 4008      63746F72 
 4008      00
 4009              	.LASF120:
 4010 016b 44434B43 		.ascii	"DCKCFGR\000"
 4010      46475200 
 4011              	.LASF11:
 4012 0173 6C6F6E67 		.ascii	"long long int\000"
 4012      206C6F6E 
 4012      6720696E 
 4012      7400
 4013              	.LASF1:
 4014 0181 7369676E 		.ascii	"signed char\000"
 4014      65642063 
 4014      68617200 
 4015              	.LASF94:
 4016 018d 41484231 		.ascii	"AHB1RSTR\000"
 4016      52535452 
 4016      00
 4017              	.LASF122:
 4018 0196 44434B43 		.ascii	"DCKCFGR2\000"
 4018      46475232 
 4018      00
 4019              	.LASF47:
 4020 019f 705F6D70 		.ascii	"p_mpool\000"
 4020      6F6F6C00 
 4021              	.LASF141:
 4022 01a7 6D5F7175 		.ascii	"m_queue\000"
 4022      65756500 
 4023              	.LASF79:
 4024 01af 76746C69 		.ascii	"vtlist\000"
ARM GAS  /var/folders/m4/4md61f0s1_g0rzfghffqnxvr0000gn/T//cce2qWbc.s 			page 73


 4024      737400
 4025              	.LASF175:
 4026 01b6 646D6173 		.ascii	"dmastp\000"
 4026      747000
 4027              	.LASF133:
 4028 01bd 77747472 		.ascii	"wttrp\000"
 4028      7000
 4029              	.LASF77:
 4030 01c3 63685F73 		.ascii	"ch_system\000"
 4030      79737465 
 4030      6D00
 4031              	.LASF8:
 4032 01cd 6C6F6E67 		.ascii	"long int\000"
 4032      20696E74 
 4032      00
 4033              	.LASF99:
 4034 01d6 41504232 		.ascii	"APB2RSTR\000"
 4034      52535452 
 4034      00
 4035              	.LASF112:
 4036 01df 41504231 		.ascii	"APB1LPENR\000"
 4036      4C50454E 
 4036      5200
 4037              	.LASF20:
 4038 01e9 74737461 		.ascii	"tstate_t\000"
 4038      74655F74 
 4038      00
 4039              	.LASF177:
 4040 01f2 66756E63 		.ascii	"func\000"
 4040      00
 4041              	.LASF33:
 4042 01f7 705F6E65 		.ascii	"p_newer\000"
 4042      77657200 
 4043              	.LASF92:
 4044 01ff 504C4C43 		.ascii	"PLLCFGR\000"
 4044      46475200 
 4045              	.LASF155:
 4046 0207 646D615F 		.ascii	"dma_param\000"
 4046      70617261 
 4046      6D00
 4047              	.LASF165:
 4048 0211 56656374 		.ascii	"VectorFC\000"
 4048      6F724643 
 4048      00
 4049              	.LASF59:
 4050 021a 725F6E65 		.ascii	"r_newer\000"
 4050      77657200 
 4051              	.LASF124:
 4052 0222 72656761 		.ascii	"regarm_t\000"
 4052      726D5F74 
 4052      00
 4053              	.LASF66:
 4054 022b 76745F70 		.ascii	"vt_prev\000"
 4054      72657600 
 4055              	.LASF145:
 4056 0233 6D757465 		.ascii	"mutex_t\000"
 4056      785F7400 
ARM GAS  /var/folders/m4/4md61f0s1_g0rzfghffqnxvr0000gn/T//cce2qWbc.s 			page 74


 4057              	.LASF101:
 4058 023b 41484231 		.ascii	"AHB1ENR\000"
 4058      454E5200 
 4059              	.LASF81:
 4060 0243 69646C65 		.ascii	"idle_thread_wa\000"
 4060      5F746872 
 4060      6561645F 
 4060      776100
 4061              	.LASF91:
 4062 0252 444D415F 		.ascii	"DMA_TypeDef\000"
 4062      54797065 
 4062      44656600 
 4063              	.LASF26:
 4064 025e 636E745F 		.ascii	"cnt_t\000"
 4064      7400
 4065              	.LASF0:
 4066 0264 756E7369 		.ascii	"unsigned int\000"
 4066      676E6564 
 4066      20696E74 
 4066      00
 4067              	.LASF171:
 4068 0271 56656374 		.ascii	"Vector150\000"
 4068      6F723135 
 4068      3000
 4069              	.LASF65:
 4070 027b 76745F6E 		.ascii	"vt_next\000"
 4070      65787400 
 4071              	.LASF187:
 4072 0283 6E766963 		.ascii	"nvicDisableVector\000"
 4072      44697361 
 4072      626C6556 
 4072      6563746F 
 4072      7200
 4073              	.LASF40:
 4074 0295 705F7469 		.ascii	"p_time\000"
 4074      6D6500
 4075              	.LASF134:
 4076 029c 77747365 		.ascii	"wtsemp\000"
 4076      6D7000
 4077              	.LASF72:
 4078 02a3 76745F73 		.ascii	"vt_systime\000"
 4078      79737469 
 4078      6D6500
 4079              	.LASF173:
 4080 02ae 56656374 		.ascii	"Vector158\000"
 4080      6F723135 
 4080      3800
 4081              	.LASF67:
 4082 02b8 76745F64 		.ascii	"vt_delta\000"
 4082      656C7461 
 4082      00
 4083              	.LASF152:
 4084 02c1 73746D33 		.ascii	"stm32_dmaisr_t\000"
 4084      325F646D 
 4084      61697372 
 4084      5F7400
 4085              	.LASF42:
ARM GAS  /var/folders/m4/4md61f0s1_g0rzfghffqnxvr0000gn/T//cce2qWbc.s 			page 75


 4086 02d0 705F6D73 		.ascii	"p_msgqueue\000"
 4086      67717565 
 4086      756500
 4087              	.LASF103:
 4088 02db 41484233 		.ascii	"AHB3ENR\000"
 4088      454E5200 
 4089              	.LASF123:
 4090 02e3 5243435F 		.ascii	"RCC_TypeDef\000"
 4090      54797065 
 4090      44656600 
 4091              	.LASF148:
 4092 02ef 69736869 		.ascii	"ishift\000"
 4092      667400
 4093              	.LASF161:
 4094 02f6 56656374 		.ascii	"Vector78\000"
 4094      6F723738 
 4094      00
 4095              	.LASF139:
 4096 02ff 735F636E 		.ascii	"s_cnt\000"
 4096      7400
 4097              	.LASF6:
 4098 0305 73686F72 		.ascii	"short unsigned int\000"
 4098      7420756E 
 4098      7369676E 
 4098      65642069 
 4098      6E7400
 4099              	.LASF50:
 4100 0318 63685F74 		.ascii	"ch_thread\000"
 4100      68726561 
 4100      6400
 4101              	.LASF118:
 4102 0322 504C4C49 		.ascii	"PLLI2SCFGR\000"
 4102      32534346 
 4102      475200
 4103              	.LASF80:
 4104 032d 6D61696E 		.ascii	"mainthread\000"
 4104      74687265 
 4104      616400
 4105              	.LASF24:
 4106 0338 6D73675F 		.ascii	"msg_t\000"
 4106      7400
 4107              	.LASF96:
 4108 033e 41484233 		.ascii	"AHB3RSTR\000"
 4108      52535452 
 4108      00
 4109              	.LASF162:
 4110 0347 56656374 		.ascii	"Vector7C\000"
 4110      6F723743 
 4110      00
 4111              	.LASF185:
 4112 0350 5F706F72 		.ascii	"_port_irq_epilogue\000"
 4112      745F6972 
 4112      715F6570 
 4112      696C6F67 
 4112      756500
 4113              	.LASF176:
 4114 0363 7072696F 		.ascii	"priority\000"
ARM GAS  /var/folders/m4/4md61f0s1_g0rzfghffqnxvr0000gn/T//cce2qWbc.s 			page 76


 4114      72697479 
 4114      00
 4115              	.LASF88:
 4116 036c 48495352 		.ascii	"HISR\000"
 4116      00
 4117              	.LASF19:
 4118 0371 746D6F64 		.ascii	"tmode_t\000"
 4118      655F7400 
 4119              	.LASF113:
 4120 0379 41504232 		.ascii	"APB2LPENR\000"
 4120      4C50454E 
 4120      5200
 4121              	.LASF55:
 4122 0383 63685F72 		.ascii	"ch_ready_list\000"
 4122      65616479 
 4122      5F6C6973 
 4122      7400
 4123              	.LASF25:
 4124 0391 6576656E 		.ascii	"eventmask_t\000"
 4124      746D6173 
 4124      6B5F7400 
 4125              	.LASF7:
 4126 039d 5F5F696E 		.ascii	"__int32_t\000"
 4126      7433325F 
 4126      7400
 4127              	.LASF125:
 4128 03a7 73746B61 		.ascii	"stkalign_t\000"
 4128      6C69676E 
 4128      5F7400
 4129              	.LASF49:
 4130 03b2 74687265 		.ascii	"threads_list_t\000"
 4130      6164735F 
 4130      6C697374 
 4130      5F7400
 4131              	.LASF63:
 4132 03c1 76697274 		.ascii	"virtual_timer_t\000"
 4132      75616C5F 
 4132      74696D65 
 4132      725F7400 
 4133              	.LASF89:
 4134 03d1 4C494643 		.ascii	"LIFCR\000"
 4134      5200
 4135              	.LASF82:
 4136 03d7 73697A65 		.ascii	"sizetype\000"
 4136      74797065 
 4136      00
 4137              	.LASF48:
 4138 03e0 74687265 		.ascii	"thread_reference_t\000"
 4138      61645F72 
 4138      65666572 
 4138      656E6365 
 4138      5F7400
 4139              	.LASF71:
 4140 03f3 63685F76 		.ascii	"ch_virtual_timers_list\000"
 4140      69727475 
 4140      616C5F74 
 4140      696D6572 
ARM GAS  /var/folders/m4/4md61f0s1_g0rzfghffqnxvr0000gn/T//cce2qWbc.s 			page 77


 4140      735F6C69 
 4141              	.LASF29:
 4142 040a 705F6E65 		.ascii	"p_next\000"
 4142      787400
 4143              	.LASF178:
 4144 0411 70617261 		.ascii	"param\000"
 4144      6D00
 4145              	.LASF34:
 4146 0417 705F6F6C 		.ascii	"p_older\000"
 4146      64657200 
 4147              	.LASF58:
 4148 041f 725F6374 		.ascii	"r_ctx\000"
 4148      7800
 4149              	.LASF109:
 4150 0425 41484232 		.ascii	"AHB2LPENR\000"
 4150      4C50454E 
 4150      5200
 4151              	.LASF154:
 4152 042f 646D615F 		.ascii	"dma_func\000"
 4152      66756E63 
 4152      00
 4153              	.LASF129:
 4154 0438 746D5F63 		.ascii	"tm_calibration_t\000"
 4154      616C6962 
 4154      72617469 
 4154      6F6E5F74 
 4154      00
 4155              	.LASF61:
 4156 0449 725F6375 		.ascii	"r_current\000"
 4156      7272656E 
 4156      7400
 4157              	.LASF98:
 4158 0453 41504231 		.ascii	"APB1RSTR\000"
 4158      52535452 
 4158      00
 4159              	.LASF87:
 4160 045c 4C495352 		.ascii	"LISR\000"
 4160      00
 4161              	.LASF12:
 4162 0461 5F5F7569 		.ascii	"__uint64_t\000"
 4162      6E743634 
 4162      5F7400
 4163              	.LASF119:
 4164 046c 504C4C53 		.ascii	"PLLSAICFGR\000"
 4164      41494346 
 4164      475200
 4165              	.LASF21:
 4166 0477 74726566 		.ascii	"trefs_t\000"
 4166      735F7400 
 4167              	.LASF97:
 4168 047f 52455345 		.ascii	"RESERVED0\000"
 4168      52564544 
 4168      3000
 4169              	.LASF100:
 4170 0489 52455345 		.ascii	"RESERVED1\000"
 4170      52564544 
 4170      3100
ARM GAS  /var/folders/m4/4md61f0s1_g0rzfghffqnxvr0000gn/T//cce2qWbc.s 			page 78


 4171              	.LASF104:
 4172 0493 52455345 		.ascii	"RESERVED2\000"
 4172      52564544 
 4172      3200
 4173              	.LASF107:
 4174 049d 52455345 		.ascii	"RESERVED3\000"
 4174      52564544 
 4174      3300
 4175              	.LASF111:
 4176 04a7 52455345 		.ascii	"RESERVED4\000"
 4176      52564544 
 4176      3400
 4177              	.LASF30:
 4178 04b1 705F7072 		.ascii	"p_prev\000"
 4178      657600
 4179              	.LASF116:
 4180 04b8 52455345 		.ascii	"RESERVED6\000"
 4180      52564544 
 4180      3600
 4181              	.LASF151:
 4182 04c2 73746D33 		.ascii	"stm32_dma_stream_t\000"
 4182      325F646D 
 4182      615F7374 
 4182      7265616D 
 4182      5F7400
 4183              	.LASF23:
 4184 04d5 74707269 		.ascii	"tprio_t\000"
 4184      6F5F7400 
 4185              	.LASF157:
 4186 04dd 56656374 		.ascii	"Vector6C\000"
 4186      6F723643 
 4186      00
 4187              	.LASF74:
 4188 04e6 63685F73 		.ascii	"ch_system_debug\000"
 4188      79737465 
 4188      6D5F6465 
 4188      62756700 
 4189              	.LASF153:
 4190 04f6 5F426F6F 		.ascii	"_Bool\000"
 4190      6C00
 4191              	.LASF15:
 4192 04fc 696E7433 		.ascii	"int32_t\000"
 4192      325F7400 
 4193              	.LASF4:
 4194 0504 756E7369 		.ascii	"unsigned char\000"
 4194      676E6564 
 4194      20636861 
 4194      7200
 4195              	.LASF45:
 4196 0512 705F6D74 		.ascii	"p_mtxlist\000"
 4196      786C6973 
 4196      7400
 4197              	.LASF5:
 4198 051c 73686F72 		.ascii	"short int\000"
 4198      7420696E 
 4198      7400
 4199              	.LASF36:
ARM GAS  /var/folders/m4/4md61f0s1_g0rzfghffqnxvr0000gn/T//cce2qWbc.s 			page 79


 4200 0526 705F7374 		.ascii	"p_state\000"
 4200      61746500 
 4201              	.LASF39:
 4202 052e 705F7072 		.ascii	"p_preempt\000"
 4202      65656D70 
 4202      7400
 4203              	.LASF110:
 4204 0538 41484233 		.ascii	"AHB3LPENR\000"
 4204      4C50454E 
 4204      5200
 4205              	.LASF57:
 4206 0542 725F7072 		.ascii	"r_prio\000"
 4206      696F00
 4207              	.LASF136:
 4208 0549 65776D61 		.ascii	"ewmask\000"
 4208      736B00
 4209              	.LASF37:
 4210 0550 705F666C 		.ascii	"p_flags\000"
 4210      61677300 
 4211              	.LASF180:
 4212 0558 5F5F6675 		.ascii	"__func__\000"
 4212      6E635F5F 
 4212      00
 4213              	.LASF106:
 4214 0561 41504232 		.ascii	"APB2ENR\000"
 4214      454E5200 
 4215              	.LASF64:
 4216 0569 63685F76 		.ascii	"ch_virtual_timer\000"
 4216      69727475 
 4216      616C5F74 
 4216      696D6572 
 4216      00
 4217              	.LASF137:
 4218 057a 63685F73 		.ascii	"ch_semaphore\000"
 4218      656D6170 
 4218      686F7265 
 4218      00
 4219              	.LASF44:
 4220 0587 705F6570 		.ascii	"p_epending\000"
 4220      656E6469 
 4220      6E6700
 4221              	.LASF147:
 4222 0592 69666372 		.ascii	"ifcr\000"
 4222      00
 4223              	.LASF158:
 4224 0597 56656374 		.ascii	"Vector70\000"
 4224      6F723730 
 4224      00
 4225              	.LASF114:
 4226 05a0 52455345 		.ascii	"RESERVED5\000"
 4226      52564544 
 4226      3500
 4227              	.LASF172:
 4228 05aa 56656374 		.ascii	"Vector154\000"
 4228      6F723135 
 4228      3400
 4229              	.LASF160:
ARM GAS  /var/folders/m4/4md61f0s1_g0rzfghffqnxvr0000gn/T//cce2qWbc.s 			page 80


 4230 05b4 56656374 		.ascii	"Vector74\000"
 4230      6F723734 
 4230      00
 4231              	.LASF135:
 4232 05bd 77746D74 		.ascii	"wtmtxp\000"
 4232      787000
 4233              	.LASF56:
 4234 05c4 725F7175 		.ascii	"r_queue\000"
 4234      65756500 
 4235              	.LASF51:
 4236 05cc 63685F74 		.ascii	"ch_threads_list\000"
 4236      68726561 
 4236      64735F6C 
 4236      69737400 
 4237              	.LASF105:
 4238 05dc 41504231 		.ascii	"APB1ENR\000"
 4238      454E5200 
 4239              	.LASF174:
 4240 05e4 646D6149 		.ascii	"dmaInit\000"
 4240      6E697400 
 4241              	.LASF22:
 4242 05ec 74736C69 		.ascii	"tslices_t\000"
 4242      6365735F 
 4242      7400
 4243              	.LASF10:
 4244 05f6 6C6F6E67 		.ascii	"long unsigned int\000"
 4244      20756E73 
 4244      69676E65 
 4244      6420696E 
 4244      7400
 4245              	.LASF144:
 4246 0608 63686172 		.ascii	"char\000"
 4246      00
 4247              	.LASF179:
 4248 060d 646D6153 		.ascii	"dmaStreamRelease\000"
 4248      74726561 
 4248      6D52656C 
 4248      65617365 
 4248      00
 4249              	.LASF188:
 4250 061e 474E5520 		.ascii	"GNU C99 5.2.1 20151202 (release) [ARM/embedded-5-br"
 4250      43393920 
 4250      352E322E 
 4250      31203230 
 4250      31353132 
 4251 0651 616E6368 		.ascii	"anch revision 231848] -mcpu=cortex-m4 -mfloat-abi=h"
 4251      20726576 
 4251      6973696F 
 4251      6E203233 
 4251      31383438 
 4252 0684 61726420 		.ascii	"ard -mfpu=fpv4-sp-d16 -mno-thumb-interwork -mthumb "
 4252      2D6D6670 
 4252      753D6670 
 4252      76342D73 
 4252      702D6431 
 4253 06b7 2D676764 		.ascii	"-ggdb -O2 -std=c99 -fomit-frame-pointer -falign-fun"
 4253      62202D4F 
ARM GAS  /var/folders/m4/4md61f0s1_g0rzfghffqnxvr0000gn/T//cce2qWbc.s 			page 81


 4253      32202D73 
 4253      74643D63 
 4253      3939202D 
 4254 06ea 6374696F 		.ascii	"ctions=16 -ffunction-sections -fdata-sections -fno-"
 4254      6E733D31 
 4254      36202D66 
 4254      66756E63 
 4254      74696F6E 
 4255 071d 636F6D6D 		.ascii	"common\000"
 4255      6F6E00
 4256              	.LASF95:
 4257 0724 41484232 		.ascii	"AHB2RSTR\000"
 4257      52535452 
 4257      00
 4258              	.LASF28:
 4259 072d 74687265 		.ascii	"thread_t\000"
 4259      61645F74 
 4259      00
 4260              	.LASF143:
 4261 0736 6D5F6E65 		.ascii	"m_next\000"
 4261      787400
 4262              	.LASF27:
 4263 073d 73797374 		.ascii	"systime_t\000"
 4263      696D655F 
 4263      7400
 4264              	.LASF46:
 4265 0747 705F7265 		.ascii	"p_realprio\000"
 4265      616C7072 
 4265      696F00
 4266              	.LASF62:
 4267 0752 76746675 		.ascii	"vtfunc_t\000"
 4267      6E635F74 
 4267      00
 4268              	.LASF9:
 4269 075b 5F5F7569 		.ascii	"__uint32_t\000"
 4269      6E743332 
 4269      5F7400
 4270              	.LASF83:
 4271 0766 4E445452 		.ascii	"NDTR\000"
 4271      00
 4272              	.LASF75:
 4273 076b 70616E69 		.ascii	"panic_msg\000"
 4273      635F6D73 
 4273      6700
 4274              	.LASF128:
 4275 0775 6F666673 		.ascii	"offset\000"
 4275      657400
 4276              	.LASF86:
 4277 077c 444D415F 		.ascii	"DMA_Stream_TypeDef\000"
 4277      53747265 
 4277      616D5F54 
 4277      79706544 
 4277      656600
 4278              	.LASF102:
 4279 078f 41484232 		.ascii	"AHB2ENR\000"
 4279      454E5200 
 4280              	.LASF126:
ARM GAS  /var/folders/m4/4md61f0s1_g0rzfghffqnxvr0000gn/T//cce2qWbc.s 			page 82


 4281 0797 636F6E74 		.ascii	"context\000"
 4281      65787400 
 4282              	.LASF181:
 4283 079f 646D615F 		.ascii	"dma_streams_mask\000"
 4283      73747265 
 4283      616D735F 
 4283      6D61736B 
 4283      00
 4284              	.LASF76:
 4285 07b0 63685F73 		.ascii	"ch_system_t\000"
 4285      79737465 
 4285      6D5F7400 
 4286              	.LASF18:
 4287 07bc 7274636E 		.ascii	"rtcnt_t\000"
 4287      745F7400 
 4288              	.LASF85:
 4289 07c4 4D314152 		.ascii	"M1AR\000"
 4289      00
 4290              	.LASF149:
 4291 07c9 73656C66 		.ascii	"selfindex\000"
 4291      696E6465 
 4291      7800
 4292              	.LASF69:
 4293 07d3 76745F70 		.ascii	"vt_par\000"
 4293      617200
 4294              	.LASF163:
 4295 07da 56656374 		.ascii	"Vector80\000"
 4295      6F723830 
 4295      00
 4296              	.LASF16:
 4297 07e3 75696E74 		.ascii	"uint32_t\000"
 4297      33325F74 
 4297      00
 4298              	.LASF117:
 4299 07ec 53534347 		.ascii	"SSCGR\000"
 4299      5200
 4300              	.LASF164:
 4301 07f2 56656374 		.ascii	"Vector84\000"
 4301      6F723834 
 4301      00
 4302              	.LASF52:
 4303 07fb 74687265 		.ascii	"threads_queue_t\000"
 4303      6164735F 
 4303      71756575 
 4303      655F7400 
 4304              	.LASF140:
 4305 080b 63685F6D 		.ascii	"ch_mutex\000"
 4305      75746578 
 4305      00
 4306              	.LASF38:
 4307 0814 705F7265 		.ascii	"p_refs\000"
 4307      667300
 4308              	.LASF121:
 4309 081b 434B4741 		.ascii	"CKGATENR\000"
 4309      54454E52 
 4309      00
 4310              	.LASF115:
ARM GAS  /var/folders/m4/4md61f0s1_g0rzfghffqnxvr0000gn/T//cce2qWbc.s 			page 83


 4311 0824 42444352 		.ascii	"BDCR\000"
 4311      00
 4312              	.LASF78:
 4313 0829 726C6973 		.ascii	"rlist\000"
 4313      7400
 4314              	.LASF14:
 4315 082f 75696E74 		.ascii	"uint8_t\000"
 4315      385F7400 
 4316              	.LASF159:
 4317 0837 666C6167 		.ascii	"flags\000"
 4317      7300
 4318              	.LASF182:
 4319 083d 646D615F 		.ascii	"dma_isr_redir\000"
 4319      6973725F 
 4319      72656469 
 4319      7200
 4320              	.LASF132:
 4321 084b 77746F62 		.ascii	"wtobjp\000"
 4321      6A7000
 4322              	.LASF35:
 4323 0852 705F6E61 		.ascii	"p_name\000"
 4323      6D6500
 4324              	.LASF166:
 4325 0859 56656374 		.ascii	"Vector120\000"
 4325      6F723132 
 4325      3000
 4326              	.LASF93:
 4327 0863 43464752 		.ascii	"CFGR\000"
 4327      00
 4328              	.LASF167:
 4329 0868 56656374 		.ascii	"Vector124\000"
 4329      6F723132 
 4329      3400
 4330              	.LASF138:
 4331 0872 735F7175 		.ascii	"s_queue\000"
 4331      65756500 
 4332              	.LASF168:
 4333 087a 56656374 		.ascii	"Vector128\000"
 4333      6F723132 
 4333      3800
 4334              	.LASF43:
 4335 0884 705F6D73 		.ascii	"p_msg\000"
 4335      6700
 4336              	.LASF169:
 4337 088a 56656374 		.ascii	"Vector12C\000"
 4337      6F723132 
 4337      4300
 4338              	.LASF90:
 4339 0894 48494643 		.ascii	"HIFCR\000"
 4339      5200
 4340              	.LASF142:
 4341 089a 6D5F6F77 		.ascii	"m_owner\000"
 4341      6E657200 
 4342              	.LASF191:
 4343 08a2 646D6153 		.ascii	"dmaStreamAllocate\000"
 4343      74726561 
 4343      6D416C6C 
ARM GAS  /var/folders/m4/4md61f0s1_g0rzfghffqnxvr0000gn/T//cce2qWbc.s 			page 84


 4343      6F636174 
 4343      6500
 4344              	.LASF32:
 4345 08b4 705F6374 		.ascii	"p_ctx\000"
 4345      7800
 4346              	.LASF68:
 4347 08ba 76745F66 		.ascii	"vt_func\000"
 4347      756E6300 
 4348              	.LASF41:
 4349 08c2 705F7761 		.ascii	"p_waiting\000"
 4349      6974696E 
 4349      6700
 4350              		.ident	"GCC: (GNU Tools for ARM Embedded Processors) 5.2.1 20151202 (release) [ARM/embedded-5-bran
ARM GAS  /var/folders/m4/4md61f0s1_g0rzfghffqnxvr0000gn/T//cce2qWbc.s 			page 85


DEFINED SYMBOLS
                            *ABS*:0000000000000000 stm32_dma.c
/var/folders/m4/4md61f0s1_g0rzfghffqnxvr0000gn/T//cce2qWbc.s:22     .text.Vector6C:0000000000000000 $t
/var/folders/m4/4md61f0s1_g0rzfghffqnxvr0000gn/T//cce2qWbc.s:28     .text.Vector6C:0000000000000000 Vector6C
/var/folders/m4/4md61f0s1_g0rzfghffqnxvr0000gn/T//cce2qWbc.s:68     .text.Vector6C:0000000000000020 $d
/var/folders/m4/4md61f0s1_g0rzfghffqnxvr0000gn/T//cce2qWbc.s:74     .text.Vector70:0000000000000000 $t
/var/folders/m4/4md61f0s1_g0rzfghffqnxvr0000gn/T//cce2qWbc.s:80     .text.Vector70:0000000000000000 Vector70
/var/folders/m4/4md61f0s1_g0rzfghffqnxvr0000gn/T//cce2qWbc.s:124    .text.Vector70:0000000000000024 $d
/var/folders/m4/4md61f0s1_g0rzfghffqnxvr0000gn/T//cce2qWbc.s:130    .text.Vector74:0000000000000000 $t
/var/folders/m4/4md61f0s1_g0rzfghffqnxvr0000gn/T//cce2qWbc.s:136    .text.Vector74:0000000000000000 Vector74
/var/folders/m4/4md61f0s1_g0rzfghffqnxvr0000gn/T//cce2qWbc.s:180    .text.Vector74:0000000000000024 $d
/var/folders/m4/4md61f0s1_g0rzfghffqnxvr0000gn/T//cce2qWbc.s:186    .text.Vector78:0000000000000000 $t
/var/folders/m4/4md61f0s1_g0rzfghffqnxvr0000gn/T//cce2qWbc.s:192    .text.Vector78:0000000000000000 Vector78
/var/folders/m4/4md61f0s1_g0rzfghffqnxvr0000gn/T//cce2qWbc.s:236    .text.Vector78:0000000000000024 $d
/var/folders/m4/4md61f0s1_g0rzfghffqnxvr0000gn/T//cce2qWbc.s:242    .text.Vector7C:0000000000000000 $t
/var/folders/m4/4md61f0s1_g0rzfghffqnxvr0000gn/T//cce2qWbc.s:248    .text.Vector7C:0000000000000000 Vector7C
/var/folders/m4/4md61f0s1_g0rzfghffqnxvr0000gn/T//cce2qWbc.s:289    .text.Vector7C:0000000000000020 $d
/var/folders/m4/4md61f0s1_g0rzfghffqnxvr0000gn/T//cce2qWbc.s:295    .text.Vector80:0000000000000000 $t
/var/folders/m4/4md61f0s1_g0rzfghffqnxvr0000gn/T//cce2qWbc.s:301    .text.Vector80:0000000000000000 Vector80
/var/folders/m4/4md61f0s1_g0rzfghffqnxvr0000gn/T//cce2qWbc.s:345    .text.Vector80:0000000000000024 $d
/var/folders/m4/4md61f0s1_g0rzfghffqnxvr0000gn/T//cce2qWbc.s:351    .text.Vector84:0000000000000000 $t
/var/folders/m4/4md61f0s1_g0rzfghffqnxvr0000gn/T//cce2qWbc.s:357    .text.Vector84:0000000000000000 Vector84
/var/folders/m4/4md61f0s1_g0rzfghffqnxvr0000gn/T//cce2qWbc.s:401    .text.Vector84:0000000000000024 $d
/var/folders/m4/4md61f0s1_g0rzfghffqnxvr0000gn/T//cce2qWbc.s:407    .text.VectorFC:0000000000000000 $t
/var/folders/m4/4md61f0s1_g0rzfghffqnxvr0000gn/T//cce2qWbc.s:413    .text.VectorFC:0000000000000000 VectorFC
/var/folders/m4/4md61f0s1_g0rzfghffqnxvr0000gn/T//cce2qWbc.s:457    .text.VectorFC:0000000000000024 $d
/var/folders/m4/4md61f0s1_g0rzfghffqnxvr0000gn/T//cce2qWbc.s:463    .text.Vector120:0000000000000000 $t
/var/folders/m4/4md61f0s1_g0rzfghffqnxvr0000gn/T//cce2qWbc.s:469    .text.Vector120:0000000000000000 Vector120
/var/folders/m4/4md61f0s1_g0rzfghffqnxvr0000gn/T//cce2qWbc.s:510    .text.Vector120:0000000000000020 $d
/var/folders/m4/4md61f0s1_g0rzfghffqnxvr0000gn/T//cce2qWbc.s:516    .text.Vector124:0000000000000000 $t
/var/folders/m4/4md61f0s1_g0rzfghffqnxvr0000gn/T//cce2qWbc.s:522    .text.Vector124:0000000000000000 Vector124
/var/folders/m4/4md61f0s1_g0rzfghffqnxvr0000gn/T//cce2qWbc.s:566    .text.Vector124:0000000000000024 $d
/var/folders/m4/4md61f0s1_g0rzfghffqnxvr0000gn/T//cce2qWbc.s:572    .text.Vector128:0000000000000000 $t
/var/folders/m4/4md61f0s1_g0rzfghffqnxvr0000gn/T//cce2qWbc.s:578    .text.Vector128:0000000000000000 Vector128
/var/folders/m4/4md61f0s1_g0rzfghffqnxvr0000gn/T//cce2qWbc.s:622    .text.Vector128:0000000000000024 $d
/var/folders/m4/4md61f0s1_g0rzfghffqnxvr0000gn/T//cce2qWbc.s:628    .text.Vector12C:0000000000000000 $t
/var/folders/m4/4md61f0s1_g0rzfghffqnxvr0000gn/T//cce2qWbc.s:634    .text.Vector12C:0000000000000000 Vector12C
/var/folders/m4/4md61f0s1_g0rzfghffqnxvr0000gn/T//cce2qWbc.s:678    .text.Vector12C:0000000000000024 $d
/var/folders/m4/4md61f0s1_g0rzfghffqnxvr0000gn/T//cce2qWbc.s:684    .text.Vector130:0000000000000000 $t
/var/folders/m4/4md61f0s1_g0rzfghffqnxvr0000gn/T//cce2qWbc.s:690    .text.Vector130:0000000000000000 Vector130
/var/folders/m4/4md61f0s1_g0rzfghffqnxvr0000gn/T//cce2qWbc.s:731    .text.Vector130:0000000000000020 $d
/var/folders/m4/4md61f0s1_g0rzfghffqnxvr0000gn/T//cce2qWbc.s:737    .text.Vector150:0000000000000000 $t
/var/folders/m4/4md61f0s1_g0rzfghffqnxvr0000gn/T//cce2qWbc.s:743    .text.Vector150:0000000000000000 Vector150
/var/folders/m4/4md61f0s1_g0rzfghffqnxvr0000gn/T//cce2qWbc.s:787    .text.Vector150:0000000000000024 $d
/var/folders/m4/4md61f0s1_g0rzfghffqnxvr0000gn/T//cce2qWbc.s:793    .text.Vector154:0000000000000000 $t
/var/folders/m4/4md61f0s1_g0rzfghffqnxvr0000gn/T//cce2qWbc.s:799    .text.Vector154:0000000000000000 Vector154
/var/folders/m4/4md61f0s1_g0rzfghffqnxvr0000gn/T//cce2qWbc.s:843    .text.Vector154:0000000000000024 $d
/var/folders/m4/4md61f0s1_g0rzfghffqnxvr0000gn/T//cce2qWbc.s:849    .text.Vector158:0000000000000000 $t
/var/folders/m4/4md61f0s1_g0rzfghffqnxvr0000gn/T//cce2qWbc.s:855    .text.Vector158:0000000000000000 Vector158
/var/folders/m4/4md61f0s1_g0rzfghffqnxvr0000gn/T//cce2qWbc.s:899    .text.Vector158:0000000000000024 $d
/var/folders/m4/4md61f0s1_g0rzfghffqnxvr0000gn/T//cce2qWbc.s:905    .text.dmaInit:0000000000000000 $t
/var/folders/m4/4md61f0s1_g0rzfghffqnxvr0000gn/T//cce2qWbc.s:911    .text.dmaInit:0000000000000000 dmaInit
/var/folders/m4/4md61f0s1_g0rzfghffqnxvr0000gn/T//cce2qWbc.s:972    .text.dmaInit:000000000000003c $d
/var/folders/m4/4md61f0s1_g0rzfghffqnxvr0000gn/T//cce2qWbc.s:982    .text.dmaStreamAllocate:0000000000000000 $t
/var/folders/m4/4md61f0s1_g0rzfghffqnxvr0000gn/T//cce2qWbc.s:988    .text.dmaStreamAllocate:0000000000000000 dmaStreamAllocate
/var/folders/m4/4md61f0s1_g0rzfghffqnxvr0000gn/T//cce2qWbc.s:1095   .text.dmaStreamAllocate:0000000000000080 $d
/var/folders/m4/4md61f0s1_g0rzfghffqnxvr0000gn/T//cce2qWbc.s:1102   .text.dmaStreamRelease:0000000000000000 $t
ARM GAS  /var/folders/m4/4md61f0s1_g0rzfghffqnxvr0000gn/T//cce2qWbc.s 			page 86


/var/folders/m4/4md61f0s1_g0rzfghffqnxvr0000gn/T//cce2qWbc.s:1108   .text.dmaStreamRelease:0000000000000000 dmaStreamRelease
/var/folders/m4/4md61f0s1_g0rzfghffqnxvr0000gn/T//cce2qWbc.s:1159   .text.dmaStreamRelease:000000000000003c $d
/var/folders/m4/4md61f0s1_g0rzfghffqnxvr0000gn/T//cce2qWbc.s:1177   .rodata._stm32_dma_streams:0000000000000000 _stm32_dma_streams
/var/folders/m4/4md61f0s1_g0rzfghffqnxvr0000gn/T//cce2qWbc.s:1166   .bss.dma_isr_redir:0000000000000000 $d
/var/folders/m4/4md61f0s1_g0rzfghffqnxvr0000gn/T//cce2qWbc.s:1170   .bss.dma_isr_redir:0000000000000000 dma_isr_redir
/var/folders/m4/4md61f0s1_g0rzfghffqnxvr0000gn/T//cce2qWbc.s:1173   .rodata._stm32_dma_streams:0000000000000000 $d
/var/folders/m4/4md61f0s1_g0rzfghffqnxvr0000gn/T//cce2qWbc.s:1275   .bss.dma_streams_mask:0000000000000000 $d
/var/folders/m4/4md61f0s1_g0rzfghffqnxvr0000gn/T//cce2qWbc.s:1279   .bss.dma_streams_mask:0000000000000000 dma_streams_mask
                     .debug_frame:0000000000000010 $d

UNDEFINED SYMBOLS
_port_irq_epilogue
nvicEnableVector
nvicDisableVector
