ARM GAS  /var/folders/m4/4md61f0s1_g0rzfghffqnxvr0000gn/T//cce2qWbc.s 			page 1


   1              		.syntax unified
   2              		.cpu cortex-m4
   3              		.eabi_attribute 27, 1
   4              		.eabi_attribute 28, 1
   5              		.fpu fpv4-sp-d16
   6              		.eabi_attribute 20, 1
   7              		.eabi_attribute 21, 1
   8              		.eabi_attribute 23, 3
   9              		.eabi_attribute 24, 1
  10              		.eabi_attribute 25, 1
  11              		.eabi_attribute 26, 1
  12              		.eabi_attribute 30, 2
  13              		.eabi_attribute 34, 1
  14              		.eabi_attribute 18, 4
  15              		.thumb
  16              		.syntax unified
  17              		.file	"stm32_dma.c"
  18              		.text
  19              	.Ltext0:
  20              		.cfi_sections	.debug_frame
  21              		.section	.text.Vector6C,"ax",%progbits
  22              		.align	2
  23              		.p2align 4,,15
  24              		.global	Vector6C
  25              		.thumb
  26              		.thumb_func
  27              		.type	Vector6C, %function
  28              	Vector6C:
  29              	.LFB268:
  30              		.file 1 "ChibiOS_16.1.4/os/hal/ports/STM32/LLD/DMAv2/stm32_dma.c"
  31              		.loc 1 117 0
  32              		.cfi_startproc
  33              		@ args = 0, pretend = 0, frame = 0
  34              		@ frame_needed = 0, uses_anonymous_args = 0
  35 0000 08B5     		push	{r3, lr}
  36              		.cfi_def_cfa_offset 8
  37              		.cfi_offset 3, -8
  38              		.cfi_offset 14, -4
  39              		.loc 1 122 0
  40 0002 074B     		ldr	r3, .L8
  41              		.loc 1 124 0
  42 0004 074A     		ldr	r2, .L8+4
  43              		.loc 1 122 0
  44 0006 1968     		ldr	r1, [r3]
  45 0008 01F03D01 		and	r1, r1, #61
  46              	.LVL0:
  47              		.loc 1 123 0
  48 000c 9960     		str	r1, [r3, #8]
  49              		.loc 1 124 0
  50 000e 1368     		ldr	r3, [r2]
  51 0010 0BB1     		cbz	r3, .L2
  52              		.loc 1 125 0
  53 0012 5068     		ldr	r0, [r2, #4]
  54 0014 9847     		blx	r3
  55              	.LVL1:
  56              	.L2:
  57              		.loc 1 128 0
ARM GAS  /var/folders/m4/4md61f0s1_g0rzfghffqnxvr0000gn/T//cce2qWbc.s 			page 2


  58 0016 BDE80840 		pop	{r3, lr}
  59              		.cfi_restore 14
  60              		.cfi_restore 3
  61              		.cfi_def_cfa_offset 0
  62              		.loc 1 127 0
  63 001a FFF7FEBF 		b	_port_irq_epilogue
  64              	.LVL2:
  65              	.L9:
  66 001e 00BF     		.align	2
  67              	.L8:
  68 0020 00600240 		.word	1073897472
  69 0024 00000000 		.word	.LANCHOR0
  70              		.cfi_endproc
  71              	.LFE268:
  72              		.size	Vector6C, .-Vector6C
  73              		.section	.text.Vector70,"ax",%progbits
  74              		.align	2
  75              		.p2align 4,,15
  76              		.global	Vector70
  77              		.thumb
  78              		.thumb_func
  79              		.type	Vector70, %function
  80              	Vector70:
  81              	.LFB269:
  82              		.loc 1 135 0
  83              		.cfi_startproc
  84              		@ args = 0, pretend = 0, frame = 0
  85              		@ frame_needed = 0, uses_anonymous_args = 0
  86              		.loc 1 140 0
  87 0000 084B     		ldr	r3, .L16
  88              		.loc 1 142 0
  89 0002 0948     		ldr	r0, .L16+4
  90              		.loc 1 140 0
  91 0004 1968     		ldr	r1, [r3]
  92              		.loc 1 142 0
  93 0006 8268     		ldr	r2, [r0, #8]
  94              		.loc 1 140 0
  95 0008 8909     		lsrs	r1, r1, #6
  96 000a 01F03D01 		and	r1, r1, #61
  97              	.LVL3:
  98              		.loc 1 135 0
  99 000e 10B5     		push	{r4, lr}
 100              		.cfi_def_cfa_offset 8
 101              		.cfi_offset 4, -8
 102              		.cfi_offset 14, -4
 103              		.loc 1 141 0
 104 0010 8C01     		lsls	r4, r1, #6
 105 0012 9C60     		str	r4, [r3, #8]
 106              		.loc 1 142 0
 107 0014 0AB1     		cbz	r2, .L11
 108              		.loc 1 143 0
 109 0016 C068     		ldr	r0, [r0, #12]
 110 0018 9047     		blx	r2
 111              	.LVL4:
 112              	.L11:
 113              		.loc 1 146 0
 114 001a BDE81040 		pop	{r4, lr}
ARM GAS  /var/folders/m4/4md61f0s1_g0rzfghffqnxvr0000gn/T//cce2qWbc.s 			page 3


 115              		.cfi_restore 14
 116              		.cfi_restore 4
 117              		.cfi_def_cfa_offset 0
 118              		.loc 1 145 0
 119 001e FFF7FEBF 		b	_port_irq_epilogue
 120              	.LVL5:
 121              	.L17:
 122 0022 00BF     		.align	2
 123              	.L16:
 124 0024 00600240 		.word	1073897472
 125 0028 00000000 		.word	.LANCHOR0
 126              		.cfi_endproc
 127              	.LFE269:
 128              		.size	Vector70, .-Vector70
 129              		.section	.text.Vector74,"ax",%progbits
 130              		.align	2
 131              		.p2align 4,,15
 132              		.global	Vector74
 133              		.thumb
 134              		.thumb_func
 135              		.type	Vector74, %function
 136              	Vector74:
 137              	.LFB270:
 138              		.loc 1 153 0
 139              		.cfi_startproc
 140              		@ args = 0, pretend = 0, frame = 0
 141              		@ frame_needed = 0, uses_anonymous_args = 0
 142              		.loc 1 158 0
 143 0000 084B     		ldr	r3, .L24
 144              		.loc 1 160 0
 145 0002 0948     		ldr	r0, .L24+4
 146              		.loc 1 158 0
 147 0004 1968     		ldr	r1, [r3]
 148              		.loc 1 160 0
 149 0006 0269     		ldr	r2, [r0, #16]
 150              		.loc 1 158 0
 151 0008 090C     		lsrs	r1, r1, #16
 152 000a 01F03D01 		and	r1, r1, #61
 153              	.LVL6:
 154              		.loc 1 153 0
 155 000e 10B5     		push	{r4, lr}
 156              		.cfi_def_cfa_offset 8
 157              		.cfi_offset 4, -8
 158              		.cfi_offset 14, -4
 159              		.loc 1 159 0
 160 0010 0C04     		lsls	r4, r1, #16
 161 0012 9C60     		str	r4, [r3, #8]
 162              		.loc 1 160 0
 163 0014 0AB1     		cbz	r2, .L19
 164              		.loc 1 161 0
 165 0016 4069     		ldr	r0, [r0, #20]
 166 0018 9047     		blx	r2
 167              	.LVL7:
 168              	.L19:
 169              		.loc 1 164 0
 170 001a BDE81040 		pop	{r4, lr}
 171              		.cfi_restore 14
ARM GAS  /var/folders/m4/4md61f0s1_g0rzfghffqnxvr0000gn/T//cce2qWbc.s 			page 4


 172              		.cfi_restore 4
 173              		.cfi_def_cfa_offset 0
 174              		.loc 1 163 0
 175 001e FFF7FEBF 		b	_port_irq_epilogue
 176              	.LVL8:
 177              	.L25:
 178 0022 00BF     		.align	2
 179              	.L24:
 180 0024 00600240 		.word	1073897472
 181 0028 00000000 		.word	.LANCHOR0
 182              		.cfi_endproc
 183              	.LFE270:
 184              		.size	Vector74, .-Vector74
 185              		.section	.text.Vector78,"ax",%progbits
 186              		.align	2
 187              		.p2align 4,,15
 188              		.global	Vector78
 189              		.thumb
 190              		.thumb_func
 191              		.type	Vector78, %function
 192              	Vector78:
 193              	.LFB271:
 194              		.loc 1 171 0
 195              		.cfi_startproc
 196              		@ args = 0, pretend = 0, frame = 0
 197              		@ frame_needed = 0, uses_anonymous_args = 0
 198              		.loc 1 176 0
 199 0000 084B     		ldr	r3, .L32
 200              		.loc 1 178 0
 201 0002 0948     		ldr	r0, .L32+4
 202              		.loc 1 176 0
 203 0004 1968     		ldr	r1, [r3]
 204              		.loc 1 178 0
 205 0006 8269     		ldr	r2, [r0, #24]
 206              		.loc 1 176 0
 207 0008 890D     		lsrs	r1, r1, #22
 208 000a 01F03D01 		and	r1, r1, #61
 209              	.LVL9:
 210              		.loc 1 171 0
 211 000e 10B5     		push	{r4, lr}
 212              		.cfi_def_cfa_offset 8
 213              		.cfi_offset 4, -8
 214              		.cfi_offset 14, -4
 215              		.loc 1 177 0
 216 0010 8C05     		lsls	r4, r1, #22
 217 0012 9C60     		str	r4, [r3, #8]
 218              		.loc 1 178 0
 219 0014 0AB1     		cbz	r2, .L27
 220              		.loc 1 179 0
 221 0016 C069     		ldr	r0, [r0, #28]
 222 0018 9047     		blx	r2
 223              	.LVL10:
 224              	.L27:
 225              		.loc 1 182 0
 226 001a BDE81040 		pop	{r4, lr}
 227              		.cfi_restore 14
 228              		.cfi_restore 4
ARM GAS  /var/folders/m4/4md61f0s1_g0rzfghffqnxvr0000gn/T//cce2qWbc.s 			page 5


 229              		.cfi_def_cfa_offset 0
 230              		.loc 1 181 0
 231 001e FFF7FEBF 		b	_port_irq_epilogue
 232              	.LVL11:
 233              	.L33:
 234 0022 00BF     		.align	2
 235              	.L32:
 236 0024 00600240 		.word	1073897472
 237 0028 00000000 		.word	.LANCHOR0
 238              		.cfi_endproc
 239              	.LFE271:
 240              		.size	Vector78, .-Vector78
 241              		.section	.text.Vector7C,"ax",%progbits
 242              		.align	2
 243              		.p2align 4,,15
 244              		.global	Vector7C
 245              		.thumb
 246              		.thumb_func
 247              		.type	Vector7C, %function
 248              	Vector7C:
 249              	.LFB272:
 250              		.loc 1 189 0
 251              		.cfi_startproc
 252              		@ args = 0, pretend = 0, frame = 0
 253              		@ frame_needed = 0, uses_anonymous_args = 0
 254 0000 08B5     		push	{r3, lr}
 255              		.cfi_def_cfa_offset 8
 256              		.cfi_offset 3, -8
 257              		.cfi_offset 14, -4
 258              		.loc 1 194 0
 259 0002 074B     		ldr	r3, .L40
 260              		.loc 1 196 0
 261 0004 0748     		ldr	r0, .L40+4
 262              		.loc 1 194 0
 263 0006 5968     		ldr	r1, [r3, #4]
 264              		.loc 1 196 0
 265 0008 026A     		ldr	r2, [r0, #32]
 266              		.loc 1 194 0
 267 000a 01F03D01 		and	r1, r1, #61
 268              	.LVL12:
 269              		.loc 1 195 0
 270 000e D960     		str	r1, [r3, #12]
 271              		.loc 1 196 0
 272 0010 0AB1     		cbz	r2, .L35
 273              		.loc 1 197 0
 274 0012 406A     		ldr	r0, [r0, #36]
 275 0014 9047     		blx	r2
 276              	.LVL13:
 277              	.L35:
 278              		.loc 1 200 0
 279 0016 BDE80840 		pop	{r3, lr}
 280              		.cfi_restore 14
 281              		.cfi_restore 3
 282              		.cfi_def_cfa_offset 0
 283              		.loc 1 199 0
 284 001a FFF7FEBF 		b	_port_irq_epilogue
 285              	.LVL14:
ARM GAS  /var/folders/m4/4md61f0s1_g0rzfghffqnxvr0000gn/T//cce2qWbc.s 			page 6


 286              	.L41:
 287 001e 00BF     		.align	2
 288              	.L40:
 289 0020 00600240 		.word	1073897472
 290 0024 00000000 		.word	.LANCHOR0
 291              		.cfi_endproc
 292              	.LFE272:
 293              		.size	Vector7C, .-Vector7C
 294              		.section	.text.Vector80,"ax",%progbits
 295              		.align	2
 296              		.p2align 4,,15
 297              		.global	Vector80
 298              		.thumb
 299              		.thumb_func
 300              		.type	Vector80, %function
 301              	Vector80:
 302              	.LFB273:
 303              		.loc 1 207 0
 304              		.cfi_startproc
 305              		@ args = 0, pretend = 0, frame = 0
 306              		@ frame_needed = 0, uses_anonymous_args = 0
 307              		.loc 1 212 0
 308 0000 084B     		ldr	r3, .L48
 309              		.loc 1 214 0
 310 0002 0948     		ldr	r0, .L48+4
 311              		.loc 1 212 0
 312 0004 5968     		ldr	r1, [r3, #4]
 313              		.loc 1 214 0
 314 0006 826A     		ldr	r2, [r0, #40]
 315              		.loc 1 212 0
 316 0008 8909     		lsrs	r1, r1, #6
 317 000a 01F03D01 		and	r1, r1, #61
 318              	.LVL15:
 319              		.loc 1 207 0
 320 000e 10B5     		push	{r4, lr}
 321              		.cfi_def_cfa_offset 8
 322              		.cfi_offset 4, -8
 323              		.cfi_offset 14, -4
 324              		.loc 1 213 0
 325 0010 8C01     		lsls	r4, r1, #6
 326 0012 DC60     		str	r4, [r3, #12]
 327              		.loc 1 214 0
 328 0014 0AB1     		cbz	r2, .L43
 329              		.loc 1 215 0
 330 0016 C06A     		ldr	r0, [r0, #44]
 331 0018 9047     		blx	r2
 332              	.LVL16:
 333              	.L43:
 334              		.loc 1 218 0
 335 001a BDE81040 		pop	{r4, lr}
 336              		.cfi_restore 14
 337              		.cfi_restore 4
 338              		.cfi_def_cfa_offset 0
 339              		.loc 1 217 0
 340 001e FFF7FEBF 		b	_port_irq_epilogue
 341              	.LVL17:
 342              	.L49:
ARM GAS  /var/folders/m4/4md61f0s1_g0rzfghffqnxvr0000gn/T//cce2qWbc.s 			page 7


 343 0022 00BF     		.align	2
 344              	.L48:
 345 0024 00600240 		.word	1073897472
 346 0028 00000000 		.word	.LANCHOR0
 347              		.cfi_endproc
 348              	.LFE273:
 349              		.size	Vector80, .-Vector80
 350              		.section	.text.Vector84,"ax",%progbits
 351              		.align	2
 352              		.p2align 4,,15
 353              		.global	Vector84
 354              		.thumb
 355              		.thumb_func
 356              		.type	Vector84, %function
 357              	Vector84:
 358              	.LFB274:
 359              		.loc 1 225 0
 360              		.cfi_startproc
 361              		@ args = 0, pretend = 0, frame = 0
 362              		@ frame_needed = 0, uses_anonymous_args = 0
 363              		.loc 1 230 0
 364 0000 084B     		ldr	r3, .L56
 365              		.loc 1 232 0
 366 0002 0948     		ldr	r0, .L56+4
 367              		.loc 1 230 0
 368 0004 5968     		ldr	r1, [r3, #4]
 369              		.loc 1 232 0
 370 0006 026B     		ldr	r2, [r0, #48]
 371              		.loc 1 230 0
 372 0008 090C     		lsrs	r1, r1, #16
 373 000a 01F03D01 		and	r1, r1, #61
 374              	.LVL18:
 375              		.loc 1 225 0
 376 000e 10B5     		push	{r4, lr}
 377              		.cfi_def_cfa_offset 8
 378              		.cfi_offset 4, -8
 379              		.cfi_offset 14, -4
 380              		.loc 1 231 0
 381 0010 0C04     		lsls	r4, r1, #16
 382 0012 DC60     		str	r4, [r3, #12]
 383              		.loc 1 232 0
 384 0014 0AB1     		cbz	r2, .L51
 385              		.loc 1 233 0
 386 0016 406B     		ldr	r0, [r0, #52]
 387 0018 9047     		blx	r2
 388              	.LVL19:
 389              	.L51:
 390              		.loc 1 236 0
 391 001a BDE81040 		pop	{r4, lr}
 392              		.cfi_restore 14
 393              		.cfi_restore 4
 394              		.cfi_def_cfa_offset 0
 395              		.loc 1 235 0
 396 001e FFF7FEBF 		b	_port_irq_epilogue
 397              	.LVL20:
 398              	.L57:
 399 0022 00BF     		.align	2
ARM GAS  /var/folders/m4/4md61f0s1_g0rzfghffqnxvr0000gn/T//cce2qWbc.s 			page 8


 400              	.L56:
 401 0024 00600240 		.word	1073897472
 402 0028 00000000 		.word	.LANCHOR0
 403              		.cfi_endproc
 404              	.LFE274:
 405              		.size	Vector84, .-Vector84
 406              		.section	.text.VectorFC,"ax",%progbits
 407              		.align	2
 408              		.p2align 4,,15
 409              		.global	VectorFC
 410              		.thumb
 411              		.thumb_func
 412              		.type	VectorFC, %function
 413              	VectorFC:
 414              	.LFB275:
 415              		.loc 1 243 0
 416              		.cfi_startproc
 417              		@ args = 0, pretend = 0, frame = 0
 418              		@ frame_needed = 0, uses_anonymous_args = 0
 419              		.loc 1 248 0
 420 0000 084B     		ldr	r3, .L64
 421              		.loc 1 250 0
 422 0002 0948     		ldr	r0, .L64+4
 423              		.loc 1 248 0
 424 0004 5968     		ldr	r1, [r3, #4]
 425              		.loc 1 250 0
 426 0006 826B     		ldr	r2, [r0, #56]
 427              		.loc 1 248 0
 428 0008 890D     		lsrs	r1, r1, #22
 429 000a 01F03D01 		and	r1, r1, #61
 430              	.LVL21:
 431              		.loc 1 243 0
 432 000e 10B5     		push	{r4, lr}
 433              		.cfi_def_cfa_offset 8
 434              		.cfi_offset 4, -8
 435              		.cfi_offset 14, -4
 436              		.loc 1 249 0
 437 0010 8C05     		lsls	r4, r1, #22
 438 0012 DC60     		str	r4, [r3, #12]
 439              		.loc 1 250 0
 440 0014 0AB1     		cbz	r2, .L59
 441              		.loc 1 251 0
 442 0016 C06B     		ldr	r0, [r0, #60]
 443 0018 9047     		blx	r2
 444              	.LVL22:
 445              	.L59:
 446              		.loc 1 254 0
 447 001a BDE81040 		pop	{r4, lr}
 448              		.cfi_restore 14
 449              		.cfi_restore 4
 450              		.cfi_def_cfa_offset 0
 451              		.loc 1 253 0
 452 001e FFF7FEBF 		b	_port_irq_epilogue
 453              	.LVL23:
 454              	.L65:
 455 0022 00BF     		.align	2
 456              	.L64:
ARM GAS  /var/folders/m4/4md61f0s1_g0rzfghffqnxvr0000gn/T//cce2qWbc.s 			page 9


 457 0024 00600240 		.word	1073897472
 458 0028 00000000 		.word	.LANCHOR0
 459              		.cfi_endproc
 460              	.LFE275:
 461              		.size	VectorFC, .-VectorFC
 462              		.section	.text.Vector120,"ax",%progbits
 463              		.align	2
 464              		.p2align 4,,15
 465              		.global	Vector120
 466              		.thumb
 467              		.thumb_func
 468              		.type	Vector120, %function
 469              	Vector120:
 470              	.LFB276:
 471              		.loc 1 261 0
 472              		.cfi_startproc
 473              		@ args = 0, pretend = 0, frame = 0
 474              		@ frame_needed = 0, uses_anonymous_args = 0
 475 0000 08B5     		push	{r3, lr}
 476              		.cfi_def_cfa_offset 8
 477              		.cfi_offset 3, -8
 478              		.cfi_offset 14, -4
 479              		.loc 1 266 0
 480 0002 074B     		ldr	r3, .L72
 481              		.loc 1 268 0
 482 0004 0748     		ldr	r0, .L72+4
 483              		.loc 1 266 0
 484 0006 1968     		ldr	r1, [r3]
 485              		.loc 1 268 0
 486 0008 026C     		ldr	r2, [r0, #64]
 487              		.loc 1 266 0
 488 000a 01F03D01 		and	r1, r1, #61
 489              	.LVL24:
 490              		.loc 1 267 0
 491 000e 9960     		str	r1, [r3, #8]
 492              		.loc 1 268 0
 493 0010 0AB1     		cbz	r2, .L67
 494              		.loc 1 269 0
 495 0012 406C     		ldr	r0, [r0, #68]
 496 0014 9047     		blx	r2
 497              	.LVL25:
 498              	.L67:
 499              		.loc 1 272 0
 500 0016 BDE80840 		pop	{r3, lr}
 501              		.cfi_restore 14
 502              		.cfi_restore 3
 503              		.cfi_def_cfa_offset 0
 504              		.loc 1 271 0
 505 001a FFF7FEBF 		b	_port_irq_epilogue
 506              	.LVL26:
 507              	.L73:
 508 001e 00BF     		.align	2
 509              	.L72:
 510 0020 00640240 		.word	1073898496
 511 0024 00000000 		.word	.LANCHOR0
 512              		.cfi_endproc
 513              	.LFE276:
ARM GAS  /var/folders/m4/4md61f0s1_g0rzfghffqnxvr0000gn/T//cce2qWbc.s 			page 10


 514              		.size	Vector120, .-Vector120
 515              		.section	.text.Vector124,"ax",%progbits
 516              		.align	2
 517              		.p2align 4,,15
 518              		.global	Vector124
 519              		.thumb
 520              		.thumb_func
 521              		.type	Vector124, %function
 522              	Vector124:
 523              	.LFB277:
 524              		.loc 1 279 0
 525              		.cfi_startproc
 526              		@ args = 0, pretend = 0, frame = 0
 527              		@ frame_needed = 0, uses_anonymous_args = 0
 528              		.loc 1 284 0
 529 0000 084B     		ldr	r3, .L80
 530              		.loc 1 286 0
 531 0002 0948     		ldr	r0, .L80+4
 532              		.loc 1 284 0
 533 0004 1968     		ldr	r1, [r3]
 534              		.loc 1 286 0
 535 0006 826C     		ldr	r2, [r0, #72]
 536              		.loc 1 284 0
 537 0008 8909     		lsrs	r1, r1, #6
 538 000a 01F03D01 		and	r1, r1, #61
 539              	.LVL27:
 540              		.loc 1 279 0
 541 000e 10B5     		push	{r4, lr}
 542              		.cfi_def_cfa_offset 8
 543              		.cfi_offset 4, -8
 544              		.cfi_offset 14, -4
 545              		.loc 1 285 0
 546 0010 8C01     		lsls	r4, r1, #6
 547 0012 9C60     		str	r4, [r3, #8]
 548              		.loc 1 286 0
 549 0014 0AB1     		cbz	r2, .L75
 550              		.loc 1 287 0
 551 0016 C06C     		ldr	r0, [r0, #76]
 552 0018 9047     		blx	r2
 553              	.LVL28:
 554              	.L75:
 555              		.loc 1 290 0
 556 001a BDE81040 		pop	{r4, lr}
 557              		.cfi_restore 14
 558              		.cfi_restore 4
 559              		.cfi_def_cfa_offset 0
 560              		.loc 1 289 0
 561 001e FFF7FEBF 		b	_port_irq_epilogue
 562              	.LVL29:
 563              	.L81:
 564 0022 00BF     		.align	2
 565              	.L80:
 566 0024 00640240 		.word	1073898496
 567 0028 00000000 		.word	.LANCHOR0
 568              		.cfi_endproc
 569              	.LFE277:
 570              		.size	Vector124, .-Vector124
ARM GAS  /var/folders/m4/4md61f0s1_g0rzfghffqnxvr0000gn/T//cce2qWbc.s 			page 11


 571              		.section	.text.Vector128,"ax",%progbits
 572              		.align	2
 573              		.p2align 4,,15
 574              		.global	Vector128
 575              		.thumb
 576              		.thumb_func
 577              		.type	Vector128, %function
 578              	Vector128:
 579              	.LFB278:
 580              		.loc 1 297 0
 581              		.cfi_startproc
 582              		@ args = 0, pretend = 0, frame = 0
 583              		@ frame_needed = 0, uses_anonymous_args = 0
 584              		.loc 1 302 0
 585 0000 084B     		ldr	r3, .L88
 586              		.loc 1 304 0
 587 0002 0948     		ldr	r0, .L88+4
 588              		.loc 1 302 0
 589 0004 1968     		ldr	r1, [r3]
 590              		.loc 1 304 0
 591 0006 026D     		ldr	r2, [r0, #80]
 592              		.loc 1 302 0
 593 0008 090C     		lsrs	r1, r1, #16
 594 000a 01F03D01 		and	r1, r1, #61
 595              	.LVL30:
 596              		.loc 1 297 0
 597 000e 10B5     		push	{r4, lr}
 598              		.cfi_def_cfa_offset 8
 599              		.cfi_offset 4, -8
 600              		.cfi_offset 14, -4
 601              		.loc 1 303 0
 602 0010 0C04     		lsls	r4, r1, #16
 603 0012 9C60     		str	r4, [r3, #8]
 604              		.loc 1 304 0
 605 0014 0AB1     		cbz	r2, .L83
 606              		.loc 1 305 0
 607 0016 406D     		ldr	r0, [r0, #84]
 608 0018 9047     		blx	r2
 609              	.LVL31:
 610              	.L83:
 611              		.loc 1 308 0
 612 001a BDE81040 		pop	{r4, lr}
 613              		.cfi_restore 14
 614              		.cfi_restore 4
 615              		.cfi_def_cfa_offset 0
 616              		.loc 1 307 0
 617 001e FFF7FEBF 		b	_port_irq_epilogue
 618              	.LVL32:
 619              	.L89:
 620 0022 00BF     		.align	2
 621              	.L88:
 622 0024 00640240 		.word	1073898496
 623 0028 00000000 		.word	.LANCHOR0
 624              		.cfi_endproc
 625              	.LFE278:
 626              		.size	Vector128, .-Vector128
 627              		.section	.text.Vector12C,"ax",%progbits
ARM GAS  /var/folders/m4/4md61f0s1_g0rzfghffqnxvr0000gn/T//cce2qWbc.s 			page 12


 628              		.align	2
 629              		.p2align 4,,15
 630              		.global	Vector12C
 631              		.thumb
 632              		.thumb_func
 633              		.type	Vector12C, %function
 634              	Vector12C:
 635              	.LFB279:
 636              		.loc 1 315 0
 637              		.cfi_startproc
 638              		@ args = 0, pretend = 0, frame = 0
 639              		@ frame_needed = 0, uses_anonymous_args = 0
 640              		.loc 1 320 0
 641 0000 084B     		ldr	r3, .L96
 642              		.loc 1 322 0
 643 0002 0948     		ldr	r0, .L96+4
 644              		.loc 1 320 0
 645 0004 1968     		ldr	r1, [r3]
 646              		.loc 1 322 0
 647 0006 826D     		ldr	r2, [r0, #88]
 648              		.loc 1 320 0
 649 0008 890D     		lsrs	r1, r1, #22
 650 000a 01F03D01 		and	r1, r1, #61
 651              	.LVL33:
 652              		.loc 1 315 0
 653 000e 10B5     		push	{r4, lr}
 654              		.cfi_def_cfa_offset 8
 655              		.cfi_offset 4, -8
 656              		.cfi_offset 14, -4
 657              		.loc 1 321 0
 658 0010 8C05     		lsls	r4, r1, #22
 659 0012 9C60     		str	r4, [r3, #8]
 660              		.loc 1 322 0
 661 0014 0AB1     		cbz	r2, .L91
 662              		.loc 1 323 0
 663 0016 C06D     		ldr	r0, [r0, #92]
 664 0018 9047     		blx	r2
 665              	.LVL34:
 666              	.L91:
 667              		.loc 1 326 0
 668 001a BDE81040 		pop	{r4, lr}
 669              		.cfi_restore 14
 670              		.cfi_restore 4
 671              		.cfi_def_cfa_offset 0
 672              		.loc 1 325 0
 673 001e FFF7FEBF 		b	_port_irq_epilogue
 674              	.LVL35:
 675              	.L97:
 676 0022 00BF     		.align	2
 677              	.L96:
 678 0024 00640240 		.word	1073898496
 679 0028 00000000 		.word	.LANCHOR0
 680              		.cfi_endproc
 681              	.LFE279:
 682              		.size	Vector12C, .-Vector12C
 683              		.section	.text.Vector130,"ax",%progbits
 684              		.align	2
ARM GAS  /var/folders/m4/4md61f0s1_g0rzfghffqnxvr0000gn/T//cce2qWbc.s 			page 13


 685              		.p2align 4,,15
 686              		.global	Vector130
 687              		.thumb
 688              		.thumb_func
 689              		.type	Vector130, %function
 690              	Vector130:
 691              	.LFB280:
 692              		.loc 1 333 0
 693              		.cfi_startproc
 694              		@ args = 0, pretend = 0, frame = 0
 695              		@ frame_needed = 0, uses_anonymous_args = 0
 696 0000 08B5     		push	{r3, lr}
 697              		.cfi_def_cfa_offset 8
 698              		.cfi_offset 3, -8
 699              		.cfi_offset 14, -4
 700              		.loc 1 338 0
 701 0002 074B     		ldr	r3, .L104
 702              		.loc 1 340 0
 703 0004 0748     		ldr	r0, .L104+4
 704              		.loc 1 338 0
 705 0006 5968     		ldr	r1, [r3, #4]
 706              		.loc 1 340 0
 707 0008 026E     		ldr	r2, [r0, #96]
 708              		.loc 1 338 0
 709 000a 01F03D01 		and	r1, r1, #61
 710              	.LVL36:
 711              		.loc 1 339 0
 712 000e D960     		str	r1, [r3, #12]
 713              		.loc 1 340 0
 714 0010 0AB1     		cbz	r2, .L99
 715              		.loc 1 341 0
 716 0012 406E     		ldr	r0, [r0, #100]
 717 0014 9047     		blx	r2
 718              	.LVL37:
 719              	.L99:
 720              		.loc 1 344 0
 721 0016 BDE80840 		pop	{r3, lr}
 722              		.cfi_restore 14
 723              		.cfi_restore 3
 724              		.cfi_def_cfa_offset 0
 725              		.loc 1 343 0
 726 001a FFF7FEBF 		b	_port_irq_epilogue
 727              	.LVL38:
 728              	.L105:
 729 001e 00BF     		.align	2
 730              	.L104:
 731 0020 00640240 		.word	1073898496
 732 0024 00000000 		.word	.LANCHOR0
 733              		.cfi_endproc
 734              	.LFE280:
 735              		.size	Vector130, .-Vector130
 736              		.section	.text.Vector150,"ax",%progbits
 737              		.align	2
 738              		.p2align 4,,15
 739              		.global	Vector150
 740              		.thumb
 741              		.thumb_func
ARM GAS  /var/folders/m4/4md61f0s1_g0rzfghffqnxvr0000gn/T//cce2qWbc.s 			page 14


 742              		.type	Vector150, %function
 743              	Vector150:
 744              	.LFB281:
 745              		.loc 1 351 0
 746              		.cfi_startproc
 747              		@ args = 0, pretend = 0, frame = 0
 748              		@ frame_needed = 0, uses_anonymous_args = 0
 749              		.loc 1 356 0
 750 0000 084B     		ldr	r3, .L112
 751              		.loc 1 358 0
 752 0002 0948     		ldr	r0, .L112+4
 753              		.loc 1 356 0
 754 0004 5968     		ldr	r1, [r3, #4]
 755              		.loc 1 358 0
 756 0006 826E     		ldr	r2, [r0, #104]
 757              		.loc 1 356 0
 758 0008 8909     		lsrs	r1, r1, #6
 759 000a 01F03D01 		and	r1, r1, #61
 760              	.LVL39:
 761              		.loc 1 351 0
 762 000e 10B5     		push	{r4, lr}
 763              		.cfi_def_cfa_offset 8
 764              		.cfi_offset 4, -8
 765              		.cfi_offset 14, -4
 766              		.loc 1 357 0
 767 0010 8C01     		lsls	r4, r1, #6
 768 0012 DC60     		str	r4, [r3, #12]
 769              		.loc 1 358 0
 770 0014 0AB1     		cbz	r2, .L107
 771              		.loc 1 359 0
 772 0016 C06E     		ldr	r0, [r0, #108]
 773 0018 9047     		blx	r2
 774              	.LVL40:
 775              	.L107:
 776              		.loc 1 362 0
 777 001a BDE81040 		pop	{r4, lr}
 778              		.cfi_restore 14
 779              		.cfi_restore 4
 780              		.cfi_def_cfa_offset 0
 781              		.loc 1 361 0
 782 001e FFF7FEBF 		b	_port_irq_epilogue
 783              	.LVL41:
 784              	.L113:
 785 0022 00BF     		.align	2
 786              	.L112:
 787 0024 00640240 		.word	1073898496
 788 0028 00000000 		.word	.LANCHOR0
 789              		.cfi_endproc
 790              	.LFE281:
 791              		.size	Vector150, .-Vector150
 792              		.section	.text.Vector154,"ax",%progbits
 793              		.align	2
 794              		.p2align 4,,15
 795              		.global	Vector154
 796              		.thumb
 797              		.thumb_func
 798              		.type	Vector154, %function
ARM GAS  /var/folders/m4/4md61f0s1_g0rzfghffqnxvr0000gn/T//cce2qWbc.s 			page 15


 799              	Vector154:
 800              	.LFB282:
 801              		.loc 1 369 0
 802              		.cfi_startproc
 803              		@ args = 0, pretend = 0, frame = 0
 804              		@ frame_needed = 0, uses_anonymous_args = 0
 805              		.loc 1 374 0
 806 0000 084B     		ldr	r3, .L120
 807              		.loc 1 376 0
 808 0002 0948     		ldr	r0, .L120+4
 809              		.loc 1 374 0
 810 0004 5968     		ldr	r1, [r3, #4]
 811              		.loc 1 376 0
 812 0006 026F     		ldr	r2, [r0, #112]
 813              		.loc 1 374 0
 814 0008 090C     		lsrs	r1, r1, #16
 815 000a 01F03D01 		and	r1, r1, #61
 816              	.LVL42:
 817              		.loc 1 369 0
 818 000e 10B5     		push	{r4, lr}
 819              		.cfi_def_cfa_offset 8
 820              		.cfi_offset 4, -8
 821              		.cfi_offset 14, -4
 822              		.loc 1 375 0
 823 0010 0C04     		lsls	r4, r1, #16
 824 0012 DC60     		str	r4, [r3, #12]
 825              		.loc 1 376 0
 826 0014 0AB1     		cbz	r2, .L115
 827              		.loc 1 377 0
 828 0016 406F     		ldr	r0, [r0, #116]
 829 0018 9047     		blx	r2
 830              	.LVL43:
 831              	.L115:
 832              		.loc 1 380 0
 833 001a BDE81040 		pop	{r4, lr}
 834              		.cfi_restore 14
 835              		.cfi_restore 4
 836              		.cfi_def_cfa_offset 0
 837              		.loc 1 379 0
 838 001e FFF7FEBF 		b	_port_irq_epilogue
 839              	.LVL44:
 840              	.L121:
 841 0022 00BF     		.align	2
 842              	.L120:
 843 0024 00640240 		.word	1073898496
 844 0028 00000000 		.word	.LANCHOR0
 845              		.cfi_endproc
 846              	.LFE282:
 847              		.size	Vector154, .-Vector154
 848              		.section	.text.Vector158,"ax",%progbits
 849              		.align	2
 850              		.p2align 4,,15
 851              		.global	Vector158
 852              		.thumb
 853              		.thumb_func
 854              		.type	Vector158, %function
 855              	Vector158:
ARM GAS  /var/folders/m4/4md61f0s1_g0rzfghffqnxvr0000gn/T//cce2qWbc.s 			page 16


 856              	.LFB283:
 857              		.loc 1 387 0
 858              		.cfi_startproc
 859              		@ args = 0, pretend = 0, frame = 0
 860              		@ frame_needed = 0, uses_anonymous_args = 0
 861              		.loc 1 392 0
 862 0000 084B     		ldr	r3, .L128
 863              		.loc 1 394 0
 864 0002 0948     		ldr	r0, .L128+4
 865              		.loc 1 392 0
 866 0004 5968     		ldr	r1, [r3, #4]
 867              		.loc 1 394 0
 868 0006 826F     		ldr	r2, [r0, #120]
 869              		.loc 1 392 0
 870 0008 890D     		lsrs	r1, r1, #22
 871 000a 01F03D01 		and	r1, r1, #61
 872              	.LVL45:
 873              		.loc 1 387 0
 874 000e 10B5     		push	{r4, lr}
 875              		.cfi_def_cfa_offset 8
 876              		.cfi_offset 4, -8
 877              		.cfi_offset 14, -4
 878              		.loc 1 393 0
 879 0010 8C05     		lsls	r4, r1, #22
 880 0012 DC60     		str	r4, [r3, #12]
 881              		.loc 1 394 0
 882 0014 0AB1     		cbz	r2, .L123
 883              		.loc 1 395 0
 884 0016 C06F     		ldr	r0, [r0, #124]
 885 0018 9047     		blx	r2
 886              	.LVL46:
 887              	.L123:
 888              		.loc 1 398 0
 889 001a BDE81040 		pop	{r4, lr}
 890              		.cfi_restore 14
 891              		.cfi_restore 4
 892              		.cfi_def_cfa_offset 0
 893              		.loc 1 397 0
 894 001e FFF7FEBF 		b	_port_irq_epilogue
 895              	.LVL47:
 896              	.L129:
 897 0022 00BF     		.align	2
 898              	.L128:
 899 0024 00640240 		.word	1073898496
 900 0028 00000000 		.word	.LANCHOR0
 901              		.cfi_endproc
 902              	.LFE283:
 903              		.size	Vector158, .-Vector158
 904              		.section	.text.dmaInit,"ax",%progbits
 905              		.align	2
 906              		.p2align 4,,15
 907              		.global	dmaInit
 908              		.thumb
 909              		.thumb_func
 910              		.type	dmaInit, %function
 911              	dmaInit:
 912              	.LFB284:
ARM GAS  /var/folders/m4/4md61f0s1_g0rzfghffqnxvr0000gn/T//cce2qWbc.s 			page 17


 913              		.loc 1 409 0
 914              		.cfi_startproc
 915              		@ args = 0, pretend = 0, frame = 0
 916              		@ frame_needed = 0, uses_anonymous_args = 0
 917              		@ link register save eliminated.
 918              		.loc 1 412 0
 919 0000 0E49     		ldr	r1, .L136
 920 0002 0F4A     		ldr	r2, .L136+4
 921 0004 0F48     		ldr	r0, .L136+8
 922 0006 0023     		movs	r3, #0
 923              		.loc 1 409 0
 924 0008 10B4     		push	{r4}
 925              		.cfi_def_cfa_offset 4
 926              		.cfi_offset 4, -4
 927              		.loc 1 412 0
 928 000a 0B60     		str	r3, [r1]
 929              	.LVL48:
 930 000c 0E4C     		ldr	r4, .L136+12
 931              		.loc 1 414 0
 932 000e 1946     		mov	r1, r3
 933 0010 01E0     		b	.L132
 934              	.LVL49:
 935              	.L135:
 936 0012 52F80C0C 		ldr	r0, [r2, #-12]
 937              	.LVL50:
 938              	.L132:
 939              		.loc 1 414 0 is_stmt 0 discriminator 3
 940 0016 0160     		str	r1, [r0]
 941              		.loc 1 415 0 is_stmt 1 discriminator 3
 942 0018 44F83310 		str	r1, [r4, r3, lsl #3]
 943              		.loc 1 413 0 discriminator 3
 944 001c 0133     		adds	r3, r3, #1
 945              	.LVL51:
 946 001e 102B     		cmp	r3, #16
 947 0020 02F10C02 		add	r2, r2, #12
 948 0024 F5D1     		bne	.L135
 949              		.loc 1 417 0
 950 0026 0949     		ldr	r1, .L136+16
 951              		.loc 1 419 0
 952 0028 094A     		ldr	r2, .L136+20
 953              		.loc 1 421 0
 954 002a 5DF8044B 		ldr	r4, [sp], #4
 955              		.cfi_restore 4
 956              		.cfi_def_cfa_offset 0
 957              		.loc 1 417 0
 958 002e 4FF0FF33 		mov	r3, #-1
 959              	.LVL52:
 960 0032 8B60     		str	r3, [r1, #8]
 961              		.loc 1 418 0
 962 0034 CB60     		str	r3, [r1, #12]
 963              		.loc 1 419 0
 964 0036 9360     		str	r3, [r2, #8]
 965              		.loc 1 420 0
 966 0038 D360     		str	r3, [r2, #12]
 967              		.loc 1 421 0
 968 003a 7047     		bx	lr
 969              	.L137:
ARM GAS  /var/folders/m4/4md61f0s1_g0rzfghffqnxvr0000gn/T//cce2qWbc.s 			page 18


 970              		.align	2
 971              	.L136:
 972 003c 00000000 		.word	.LANCHOR1
 973 0040 0C000000 		.word	.LANCHOR2+12
 974 0044 10600240 		.word	1073897488
 975 0048 00000000 		.word	.LANCHOR0
 976 004c 00600240 		.word	1073897472
 977 0050 00640240 		.word	1073898496
 978              		.cfi_endproc
 979              	.LFE284:
 980              		.size	dmaInit, .-dmaInit
 981              		.section	.text.dmaStreamAllocate,"ax",%progbits
 982              		.align	2
 983              		.p2align 4,,15
 984              		.global	dmaStreamAllocate
 985              		.thumb
 986              		.thumb_func
 987              		.type	dmaStreamAllocate, %function
 988              	dmaStreamAllocate:
 989              	.LFB285:
 990              		.loc 1 450 0
 991              		.cfi_startproc
 992              		@ args = 0, pretend = 0, frame = 0
 993              		@ frame_needed = 0, uses_anonymous_args = 0
 994              	.LVL53:
 995 0000 F8B5     		push	{r3, r4, r5, r6, r7, lr}
 996              		.cfi_def_cfa_offset 24
 997              		.cfi_offset 3, -24
 998              		.cfi_offset 4, -20
 999              		.cfi_offset 5, -16
 1000              		.cfi_offset 6, -12
 1001              		.cfi_offset 7, -8
 1002              		.cfi_offset 14, -4
 1003              		.loc 1 455 0
 1004 0002 1F4F     		ldr	r7, .L154
 1005 0004 467A     		ldrb	r6, [r0, #9]	@ zero_extendqisi2
 1006 0006 3D68     		ldr	r5, [r7]
 1007 0008 0124     		movs	r4, #1
 1008 000a 04FA06FE 		lsl	lr, r4, r6
 1009 000e 1EEA050F 		tst	lr, r5
 1010 0012 31D1     		bne	.L143
 1011              		.loc 1 459 0
 1012 0014 1B4C     		ldr	r4, .L154+4
 1013              		.loc 1 461 0
 1014 0016 4EEA0505 		orr	r5, lr, r5
 1015              		.loc 1 460 0
 1016 001a 04EBC60E 		add	lr, r4, r6, lsl #3
 1017              		.loc 1 464 0
 1018 001e 15F0FF0F 		tst	r5, #255
 1019              		.loc 1 461 0
 1020 0022 3D60     		str	r5, [r7]
 1021              		.loc 1 459 0
 1022 0024 44F83620 		str	r2, [r4, r6, lsl #3]
 1023              		.loc 1 460 0
 1024 0028 CEF80430 		str	r3, [lr, #4]
 1025              		.loc 1 464 0
 1026 002c 04D0     		beq	.L140
ARM GAS  /var/folders/m4/4md61f0s1_g0rzfghffqnxvr0000gn/T//cce2qWbc.s 			page 19


 1027              		.loc 1 465 0
 1028 002e 164C     		ldr	r4, .L154+8
 1029 0030 236B     		ldr	r3, [r4, #48]
 1030              	.LVL54:
 1031 0032 43F40013 		orr	r3, r3, #2097152
 1032 0036 2363     		str	r3, [r4, #48]
 1033              	.L140:
 1034              		.loc 1 467 0
 1035 0038 15F47F4F 		tst	r5, #65280
 1036 003c 16D1     		bne	.L153
 1037              	.L141:
 1038              		.loc 1 472 0
 1039 003e 0568     		ldr	r5, [r0]
 1040 0040 2B68     		ldr	r3, [r5]
 1041 0042 23F01F03 		bic	r3, r3, #31
 1042 0046 2B60     		str	r3, [r5]
 1043              	.L142:
 1044              		.loc 1 472 0 is_stmt 0 discriminator 2
 1045 0048 2B68     		ldr	r3, [r5]
 1046 004a 13F00104 		ands	r4, r3, #1
 1047 004e FBD1     		bne	.L142
 1048              		.loc 1 472 0 discriminator 3
 1049 0050 077A     		ldrb	r7, [r0, #8]	@ zero_extendqisi2
 1050 0052 4668     		ldr	r6, [r0, #4]
 1051 0054 3D23     		movs	r3, #61
 1052 0056 BB40     		lsls	r3, r3, r7
 1053              		.loc 1 474 0 is_stmt 1 discriminator 3
 1054 0058 2127     		movs	r7, #33
 1055              		.loc 1 472 0 discriminator 3
 1056 005a 3360     		str	r3, [r6]
 1057              		.loc 1 473 0 discriminator 3
 1058 005c 2C60     		str	r4, [r5]
 1059              		.loc 1 474 0 discriminator 3
 1060 005e 6F61     		str	r7, [r5, #20]
 1061              		.loc 1 477 0 discriminator 3
 1062 0060 62B1     		cbz	r2, .L144
 1063              		.loc 1 478 0
 1064 0062 807A     		ldrb	r0, [r0, #10]	@ zero_extendqisi2
 1065              	.LVL55:
 1066 0064 FFF7FEFF 		bl	nvicEnableVector
 1067              	.LVL56:
 1068              		.loc 1 481 0
 1069 0068 2046     		mov	r0, r4
 1070 006a F8BD     		pop	{r3, r4, r5, r6, r7, pc}
 1071              	.LVL57:
 1072              	.L153:
 1073              		.loc 1 468 0
 1074 006c 064C     		ldr	r4, .L154+8
 1075 006e 236B     		ldr	r3, [r4, #48]
 1076 0070 43F48003 		orr	r3, r3, #4194304
 1077 0074 2363     		str	r3, [r4, #48]
 1078 0076 E2E7     		b	.L141
 1079              	.LVL58:
 1080              	.L143:
 1081              		.loc 1 456 0
 1082 0078 2046     		mov	r0, r4
 1083              	.LVL59:
ARM GAS  /var/folders/m4/4md61f0s1_g0rzfghffqnxvr0000gn/T//cce2qWbc.s 			page 20


 1084 007a F8BD     		pop	{r3, r4, r5, r6, r7, pc}
 1085              	.LVL60:
 1086              	.L144:
 1087              		.loc 1 481 0
 1088 007c 1046     		mov	r0, r2
 1089              	.LVL61:
 1090              		.loc 1 482 0
 1091 007e F8BD     		pop	{r3, r4, r5, r6, r7, pc}
 1092              	.L155:
 1093              		.align	2
 1094              	.L154:
 1095 0080 00000000 		.word	.LANCHOR1
 1096 0084 00000000 		.word	.LANCHOR0
 1097 0088 00380240 		.word	1073887232
 1098              		.cfi_endproc
 1099              	.LFE285:
 1100              		.size	dmaStreamAllocate, .-dmaStreamAllocate
 1101              		.section	.text.dmaStreamRelease,"ax",%progbits
 1102              		.align	2
 1103              		.p2align 4,,15
 1104              		.global	dmaStreamRelease
 1105              		.thumb
 1106              		.thumb_func
 1107              		.type	dmaStreamRelease, %function
 1108              	dmaStreamRelease:
 1109              	.LFB286:
 1110              		.loc 1 497 0
 1111              		.cfi_startproc
 1112              		@ args = 0, pretend = 0, frame = 0
 1113              		@ frame_needed = 0, uses_anonymous_args = 0
 1114              	.LVL62:
 1115 0000 10B5     		push	{r4, lr}
 1116              		.cfi_def_cfa_offset 8
 1117              		.cfi_offset 4, -8
 1118              		.cfi_offset 14, -4
 1119              		.loc 1 497 0
 1120 0002 0446     		mov	r4, r0
 1121              		.loc 1 506 0
 1122 0004 807A     		ldrb	r0, [r0, #10]	@ zero_extendqisi2
 1123              	.LVL63:
 1124 0006 FFF7FEFF 		bl	nvicDisableVector
 1125              	.LVL64:
 1126              		.loc 1 509 0
 1127 000a 0C49     		ldr	r1, .L160
 1128 000c 607A     		ldrb	r0, [r4, #9]	@ zero_extendqisi2
 1129 000e 0A68     		ldr	r2, [r1]
 1130 0010 0123     		movs	r3, #1
 1131 0012 8340     		lsls	r3, r3, r0
 1132 0014 22EA0303 		bic	r3, r2, r3
 1133              		.loc 1 512 0
 1134 0018 13F0FF0F 		tst	r3, #255
 1135              		.loc 1 509 0
 1136 001c 0B60     		str	r3, [r1]
 1137              		.loc 1 512 0
 1138 001e 04D1     		bne	.L157
 1139              		.loc 1 513 0
 1140 0020 0749     		ldr	r1, .L160+4
ARM GAS  /var/folders/m4/4md61f0s1_g0rzfghffqnxvr0000gn/T//cce2qWbc.s 			page 21


 1141 0022 0A6B     		ldr	r2, [r1, #48]
 1142 0024 22F40012 		bic	r2, r2, #2097152
 1143 0028 0A63     		str	r2, [r1, #48]
 1144              	.L157:
 1145              		.loc 1 515 0
 1146 002a 13F47F4F 		tst	r3, #65280
 1147 002e 04D1     		bne	.L156
 1148              		.loc 1 516 0
 1149 0030 034A     		ldr	r2, .L160+4
 1150 0032 136B     		ldr	r3, [r2, #48]
 1151 0034 23F48003 		bic	r3, r3, #4194304
 1152 0038 1363     		str	r3, [r2, #48]
 1153              	.L156:
 1154 003a 10BD     		pop	{r4, pc}
 1155              	.LVL65:
 1156              	.L161:
 1157              		.align	2
 1158              	.L160:
 1159 003c 00000000 		.word	.LANCHOR1
 1160 0040 00380240 		.word	1073887232
 1161              		.cfi_endproc
 1162              	.LFE286:
 1163              		.size	dmaStreamRelease, .-dmaStreamRelease
 1164              		.global	_stm32_dma_streams
 1165              		.section	.bss.dma_isr_redir,"aw",%nobits
 1166              		.align	2
 1167              		.set	.LANCHOR0,. + 0
 1168              		.type	dma_isr_redir, %object
 1169              		.size	dma_isr_redir, 128
 1170              	dma_isr_redir:
 1171 0000 00000000 		.space	128
 1171      00000000 
 1171      00000000 
 1171      00000000 
 1171      00000000 
 1172              		.section	.rodata._stm32_dma_streams,"a",%progbits
 1173              		.align	2
 1174              		.set	.LANCHOR2,. + 0
 1175              		.type	_stm32_dma_streams, %object
 1176              		.size	_stm32_dma_streams, 192
 1177              	_stm32_dma_streams:
 1178 0000 10600240 		.word	1073897488
 1179 0004 08600240 		.word	1073897480
 1180 0008 00       		.byte	0
 1181 0009 00       		.byte	0
 1182 000a 0B       		.byte	11
 1183 000b 00       		.space	1
 1184 000c 28600240 		.word	1073897512
 1185 0010 08600240 		.word	1073897480
 1186 0014 06       		.byte	6
 1187 0015 01       		.byte	1
 1188 0016 0C       		.byte	12
 1189 0017 00       		.space	1
 1190 0018 40600240 		.word	1073897536
 1191 001c 08600240 		.word	1073897480
 1192 0020 10       		.byte	16
 1193 0021 02       		.byte	2
ARM GAS  /var/folders/m4/4md61f0s1_g0rzfghffqnxvr0000gn/T//cce2qWbc.s 			page 22


 1194 0022 0D       		.byte	13
 1195 0023 00       		.space	1
 1196 0024 58600240 		.word	1073897560
 1197 0028 08600240 		.word	1073897480
 1198 002c 16       		.byte	22
 1199 002d 03       		.byte	3
 1200 002e 0E       		.byte	14
 1201 002f 00       		.space	1
 1202 0030 70600240 		.word	1073897584
 1203 0034 0C600240 		.word	1073897484
 1204 0038 00       		.byte	0
 1205 0039 04       		.byte	4
 1206 003a 0F       		.byte	15
 1207 003b 00       		.space	1
 1208 003c 88600240 		.word	1073897608
 1209 0040 0C600240 		.word	1073897484
 1210 0044 06       		.byte	6
 1211 0045 05       		.byte	5
 1212 0046 10       		.byte	16
 1213 0047 00       		.space	1
 1214 0048 A0600240 		.word	1073897632
 1215 004c 0C600240 		.word	1073897484
 1216 0050 10       		.byte	16
 1217 0051 06       		.byte	6
 1218 0052 11       		.byte	17
 1219 0053 00       		.space	1
 1220 0054 B8600240 		.word	1073897656
 1221 0058 0C600240 		.word	1073897484
 1222 005c 16       		.byte	22
 1223 005d 07       		.byte	7
 1224 005e 2F       		.byte	47
 1225 005f 00       		.space	1
 1226 0060 10640240 		.word	1073898512
 1227 0064 08640240 		.word	1073898504
 1228 0068 00       		.byte	0
 1229 0069 08       		.byte	8
 1230 006a 38       		.byte	56
 1231 006b 00       		.space	1
 1232 006c 28640240 		.word	1073898536
 1233 0070 08640240 		.word	1073898504
 1234 0074 06       		.byte	6
 1235 0075 09       		.byte	9
 1236 0076 39       		.byte	57
 1237 0077 00       		.space	1
 1238 0078 40640240 		.word	1073898560
 1239 007c 08640240 		.word	1073898504
 1240 0080 10       		.byte	16
 1241 0081 0A       		.byte	10
 1242 0082 3A       		.byte	58
 1243 0083 00       		.space	1
 1244 0084 58640240 		.word	1073898584
 1245 0088 08640240 		.word	1073898504
 1246 008c 16       		.byte	22
 1247 008d 0B       		.byte	11
 1248 008e 3B       		.byte	59
 1249 008f 00       		.space	1
 1250 0090 70640240 		.word	1073898608
ARM GAS  /var/folders/m4/4md61f0s1_g0rzfghffqnxvr0000gn/T//cce2qWbc.s 			page 23


 1251 0094 0C640240 		.word	1073898508
 1252 0098 00       		.byte	0
 1253 0099 0C       		.byte	12
 1254 009a 3C       		.byte	60
 1255 009b 00       		.space	1
 1256 009c 88640240 		.word	1073898632
 1257 00a0 0C640240 		.word	1073898508
 1258 00a4 06       		.byte	6
 1259 00a5 0D       		.byte	13
 1260 00a6 44       		.byte	68
 1261 00a7 00       		.space	1
 1262 00a8 A0640240 		.word	1073898656
 1263 00ac 0C640240 		.word	1073898508
 1264 00b0 10       		.byte	16
 1265 00b1 0E       		.byte	14
 1266 00b2 45       		.byte	69
 1267 00b3 00       		.space	1
 1268 00b4 B8640240 		.word	1073898680
 1269 00b8 0C640240 		.word	1073898508
 1270 00bc 16       		.byte	22
 1271 00bd 0F       		.byte	15
 1272 00be 46       		.byte	70
 1273 00bf 00       		.space	1
 1274              		.section	.bss.dma_streams_mask,"aw",%nobits
 1275              		.align	2
 1276              		.set	.LANCHOR1,. + 0
 1277              		.type	dma_streams_mask, %object
 1278              		.size	dma_streams_mask, 4
 1279              	dma_streams_mask:
 1280 0000 00000000 		.space	4
 1281              		.text
 1282              	.Letext0:
 1283              		.file 2 "/opt/homebrew-cask/Caskroom/gcc-arm-embedded/5_2-2015q4,20151219/gcc-arm-none-eabi-5_2-20
 1284              		.file 3 "/opt/homebrew-cask/Caskroom/gcc-arm-embedded/5_2-2015q4,20151219/gcc-arm-none-eabi-5_2-20
 1285              		.file 4 "/opt/homebrew-cask/Caskroom/gcc-arm-embedded/5_2-2015q4,20151219/gcc-arm-none-eabi-5_2-20
 1286              		.file 5 "ChibiOS_16.1.4/os/rt/ports/ARMCMx/compilers/GCC/chtypes.h"
 1287              		.file 6 "ChibiOS_16.1.4/os/rt/include/chsystypes.h"
 1288              		.file 7 "ChibiOS_16.1.4/os/rt/include/chschd.h"
 1289              		.file 8 "ChibiOS_16.1.4/os/ext/CMSIS/ST/STM32F4xx/stm32f446xx.h"
 1290              		.file 9 "ChibiOS_16.1.4/os/rt/ports/ARMCMx/chcore.h"
 1291              		.file 10 "ChibiOS_16.1.4/os/rt/ports/ARMCMx/chcore_v7m.h"
 1292              		.file 11 "ChibiOS_16.1.4/os/rt/include/chtm.h"
 1293              		.file 12 "ChibiOS_16.1.4/os/rt/include/chsem.h"
 1294              		.file 13 "ChibiOS_16.1.4/os/rt/include/chmtx.h"
 1295              		.file 14 "ChibiOS_16.1.4/os/hal/ports/STM32/LLD/DMAv2/stm32_dma.h"
 1296              		.file 15 "ChibiOS_16.1.4/os/ext/CMSIS/include/core_cm4.h"
 1297              		.file 16 "ChibiOS_16.1.4/os/hal/ports/common/ARMCMx/nvic.h"