ARM GAS  /var/folders/m4/4md61f0s1_g0rzfghffqnxvr0000gn/T//ccTIFpbg.s 			page 1


   1              		.syntax unified
   2              		.cpu cortex-m4
   3              		.eabi_attribute 27, 1
   4              		.eabi_attribute 28, 1
   5              		.fpu fpv4-sp-d16
   6              		.eabi_attribute 20, 1
   7              		.eabi_attribute 21, 1
   8              		.eabi_attribute 23, 3
   9              		.eabi_attribute 24, 1
  10              		.eabi_attribute 25, 1
  11              		.eabi_attribute 26, 1
  12              		.eabi_attribute 30, 2
  13              		.eabi_attribute 34, 1
  14              		.eabi_attribute 18, 4
  15              		.thumb
  16              		.file	"stm32f4xx_adc.c"
  17              		.text
  18              	.Ltext0:
  19              		.cfi_sections	.debug_frame
  20              		.section	.text.ADC_DeInit,"ax",%progbits
  21              		.align	2
  22              		.p2align 4,,15
  23              		.global	ADC_DeInit
  24              		.thumb
  25              		.thumb_func
  26              		.type	ADC_DeInit, %function
  27              	ADC_DeInit:
  28              	.LFB123:
  29              		.file 1 "ChibiOS_16.1.4/ext/stdperiph_stm32f4/src/stm32f4xx_adc.c"
  30              		.loc 1 214 0
  31              		.cfi_startproc
  32              		@ args = 0, pretend = 0, frame = 0
  33              		@ frame_needed = 0, uses_anonymous_args = 0
  34 0000 08B5     		push	{r3, lr}
  35              		.cfi_def_cfa_offset 8
  36              		.cfi_offset 3, -8
  37              		.cfi_offset 14, -4
  38              		.loc 1 216 0
  39 0002 4FF48070 		mov	r0, #256
  40 0006 0121     		movs	r1, #1
  41 0008 FFF7FEFF 		bl	RCC_APB2PeriphResetCmd
  42              	.LVL0:
  43              		.loc 1 219 0
  44 000c 4FF48070 		mov	r0, #256
  45 0010 0021     		movs	r1, #0
  46              		.loc 1 220 0
  47 0012 BDE80840 		pop	{r3, lr}
  48              		.cfi_restore 14
  49              		.cfi_restore 3
  50              		.cfi_def_cfa_offset 0
  51              		.loc 1 219 0
  52 0016 FFF7FEBF 		b	RCC_APB2PeriphResetCmd
  53              	.LVL1:
  54              		.cfi_endproc
  55              	.LFE123:
  56              		.size	ADC_DeInit, .-ADC_DeInit
  57 001a 00BF     		.section	.text.ADC_Init,"ax",%progbits
ARM GAS  /var/folders/m4/4md61f0s1_g0rzfghffqnxvr0000gn/T//ccTIFpbg.s 			page 2


  58              		.align	2
  59              		.p2align 4,,15
  60              		.global	ADC_Init
  61              		.thumb
  62              		.thumb_func
  63              		.type	ADC_Init, %function
  64              	ADC_Init:
  65              	.LFB124:
  66              		.loc 1 236 0
  67              		.cfi_startproc
  68              		@ args = 0, pretend = 0, frame = 0
  69              		@ frame_needed = 0, uses_anonymous_args = 0
  70              	.LVL2:
  71 0000 F8B5     		push	{r3, r4, r5, r6, r7, lr}
  72              		.cfi_def_cfa_offset 24
  73              		.cfi_offset 3, -24
  74              		.cfi_offset 4, -20
  75              		.cfi_offset 5, -16
  76              		.cfi_offset 6, -12
  77              		.cfi_offset 7, -8
  78              		.cfi_offset 14, -4
  79              		.loc 1 240 0
  80 0002 434B     		ldr	r3, .L23
  81 0004 9842     		cmp	r0, r3
  82              		.loc 1 236 0
  83 0006 0546     		mov	r5, r0
  84 0008 0C46     		mov	r4, r1
  85              		.loc 1 240 0
  86 000a 6FD0     		beq	.L10
  87              		.loc 1 240 0 is_stmt 0 discriminator 2
  88 000c 03F58073 		add	r3, r3, #256
  89 0010 9842     		cmp	r0, r3
  90 0012 6BD0     		beq	.L10
  91              		.loc 1 240 0 discriminator 4
  92 0014 3F48     		ldr	r0, .L23+4
  93              	.LVL3:
  94 0016 281A     		subs	r0, r5, r0
  95 0018 B0FA80F0 		clz	r0, r0
  96 001c 4009     		lsrs	r0, r0, #5
  97              	.L4:
  98              		.loc 1 240 0 discriminator 8
  99 001e FFF7FEFF 		bl	assert_param
 100              	.LVL4:
 101              		.loc 1 241 0 is_stmt 1 discriminator 8
 102 0022 2068     		ldr	r0, [r4]
 103 0024 30F08070 		bics	r0, r0, #16777216
 104 0028 17BF     		itett	ne
 105 002a A0F10070 		subne	r0, r0, #33554432
 106 002e 0120     		moveq	r0, #1
 107 0030 B0FA80F0 		clzne	r0, r0
 108 0034 4009     		lsrne	r0, r0, #5
 109 0036 FFF7FEFF 		bl	assert_param
 110              	.LVL5:
 111              		.loc 1 242 0 discriminator 8
 112 003a 2079     		ldrb	r0, [r4, #4]	@ zero_extendqisi2
 113 003c 0128     		cmp	r0, #1
 114 003e 8CBF     		ite	hi
ARM GAS  /var/folders/m4/4md61f0s1_g0rzfghffqnxvr0000gn/T//ccTIFpbg.s 			page 3


 115 0040 0020     		movhi	r0, #0
 116 0042 0120     		movls	r0, #1
 117 0044 FFF7FEFF 		bl	assert_param
 118              	.LVL6:
 119              		.loc 1 243 0 discriminator 8
 120 0048 6079     		ldrb	r0, [r4, #5]	@ zero_extendqisi2
 121 004a 0128     		cmp	r0, #1
 122 004c 8CBF     		ite	hi
 123 004e 0020     		movhi	r0, #0
 124 0050 0120     		movls	r0, #1
 125 0052 FFF7FEFF 		bl	assert_param
 126              	.LVL7:
 127              		.loc 1 244 0 discriminator 8
 128 0056 A068     		ldr	r0, [r4, #8]
 129 0058 30F08050 		bics	r0, r0, #268435456
 130 005c 44D0     		beq	.L12
 131              		.loc 1 244 0 is_stmt 0 discriminator 4
 132 005e A0F10050 		sub	r0, r0, #536870912
 133 0062 B0FA80F0 		clz	r0, r0
 134 0066 4009     		lsrs	r0, r0, #5
 135              	.L6:
 136              		.loc 1 244 0
 137 0068 FFF7FEFF 		bl	assert_param
 138              	.LVL8:
 139              		.loc 1 245 0 is_stmt 1
 140 006c E368     		ldr	r3, [r4, #12]
 141 006e 23F08070 		bic	r0, r3, #16777216
 142 0072 33F04073 		bics	r3, r3, #50331648
 143 0076 3BD1     		bne	.L22
 144              	.L16:
 145 0078 0120     		movs	r0, #1
 146              	.L7:
 147              		.loc 1 245 0 is_stmt 0 discriminator 34
 148 007a FFF7FEFF 		bl	assert_param
 149              	.LVL9:
 150              		.loc 1 246 0 is_stmt 1 discriminator 34
 151 007e 2369     		ldr	r3, [r4, #16]
 152 0080 33F40063 		bics	r3, r3, #2048
 153 0084 0CBF     		ite	eq
 154 0086 0120     		moveq	r0, #1
 155 0088 0020     		movne	r0, #0
 156 008a FFF7FEFF 		bl	assert_param
 157              	.LVL10:
 158              		.loc 1 247 0 discriminator 34
 159 008e 207D     		ldrb	r0, [r4, #20]	@ zero_extendqisi2
 160 0090 0138     		subs	r0, r0, #1
 161 0092 0F28     		cmp	r0, #15
 162 0094 8CBF     		ite	hi
 163 0096 0020     		movhi	r0, #0
 164 0098 0120     		movls	r0, #1
 165 009a FFF7FEFF 		bl	assert_param
 166              	.LVL11:
 167              		.loc 1 251 0 discriminator 34
 168 009e 6968     		ldr	r1, [r5, #4]
 169              	.LVL12:
 170 00a0 2268     		ldr	r2, [r4]
 171              		.loc 1 259 0 discriminator 34
ARM GAS  /var/folders/m4/4md61f0s1_g0rzfghffqnxvr0000gn/T//ccTIFpbg.s 			page 4


 172 00a2 94F804C0 		ldrb	ip, [r4, #4]	@ zero_extendqisi2
 173 00a6 D4F80CE0 		ldr	lr, [r4, #12]
 174 00aa 2669     		ldr	r6, [r4, #16]
 175 00ac A068     		ldr	r0, [r4, #8]
 176              		.loc 1 279 0 discriminator 34
 177 00ae 6779     		ldrb	r7, [r4, #5]	@ zero_extendqisi2
 178              		.loc 1 268 0 discriminator 34
 179 00b0 194B     		ldr	r3, .L23+8
 180              		.loc 1 254 0 discriminator 34
 181 00b2 21F04071 		bic	r1, r1, #50331648
 182              	.LVL13:
 183 00b6 21F48071 		bic	r1, r1, #256
 184 00ba 0A43     		orrs	r2, r2, r1
 185              		.loc 1 259 0 discriminator 34
 186 00bc 42EA0C22 		orr	r2, r2, ip, lsl #8
 187              	.LVL14:
 188              		.loc 1 262 0 discriminator 34
 189 00c0 6A60     		str	r2, [r5, #4]
 190              		.loc 1 265 0 discriminator 34
 191 00c2 A968     		ldr	r1, [r5, #8]
 192              	.LVL15:
 193 00c4 4EEA0602 		orr	r2, lr, r6
 194 00c8 0243     		orrs	r2, r2, r0
 195              		.loc 1 268 0 discriminator 34
 196 00ca 0B40     		ands	r3, r3, r1
 197              	.LVL16:
 198 00cc 1343     		orrs	r3, r3, r2
 199              	.LVL17:
 200              		.loc 1 276 0 discriminator 34
 201 00ce 43EA4703 		orr	r3, r3, r7, lsl #1
 202              	.LVL18:
 203              		.loc 1 282 0 discriminator 34
 204 00d2 AB60     		str	r3, [r5, #8]
 205              		.loc 1 292 0 discriminator 34
 206 00d4 227D     		ldrb	r2, [r4, #20]	@ zero_extendqisi2
 207              		.loc 1 285 0 discriminator 34
 208 00d6 EB6A     		ldr	r3, [r5, #44]
 209              	.LVL19:
 210              		.loc 1 292 0 discriminator 34
 211 00d8 013A     		subs	r2, r2, #1
 212              		.loc 1 293 0 discriminator 34
 213 00da D2B2     		uxtb	r2, r2
 214              		.loc 1 288 0 discriminator 34
 215 00dc 23F47003 		bic	r3, r3, #15728640
 216              	.LVL20:
 217              		.loc 1 293 0 discriminator 34
 218 00e0 43EA0253 		orr	r3, r3, r2, lsl #20
 219              	.LVL21:
 220              		.loc 1 296 0 discriminator 34
 221 00e4 EB62     		str	r3, [r5, #44]
 222              	.LVL22:
 223 00e6 F8BD     		pop	{r3, r4, r5, r6, r7, pc}
 224              	.LVL23:
 225              	.L12:
 226              		.loc 1 244 0
 227 00e8 0120     		movs	r0, #1
 228 00ea BDE7     		b	.L6
ARM GAS  /var/folders/m4/4md61f0s1_g0rzfghffqnxvr0000gn/T//ccTIFpbg.s 			page 5


 229              	.LVL24:
 230              	.L10:
 231              		.loc 1 240 0
 232 00ec 0120     		movs	r0, #1
 233              	.LVL25:
 234 00ee 96E7     		b	.L4
 235              	.LVL26:
 236              	.L22:
 237              		.loc 1 245 0 discriminator 8
 238 00f0 B3F1806F 		cmp	r3, #67108864
 239 00f4 C0D0     		beq	.L16
 240              		.loc 1 245 0 is_stmt 0 discriminator 16
 241 00f6 B3F1006F 		cmp	r3, #134217728
 242 00fa BDD0     		beq	.L16
 243              		.loc 1 245 0 discriminator 24
 244 00fc B0F1406F 		cmp	r0, #201326592
 245 0100 BAD0     		beq	.L16
 246              		.loc 1 245 0 discriminator 28
 247 0102 A0F16060 		sub	r0, r0, #234881024
 248 0106 B0FA80F0 		clz	r0, r0
 249 010a 4009     		lsrs	r0, r0, #5
 250 010c B5E7     		b	.L7
 251              	.L24:
 252 010e 00BF     		.align	2
 253              	.L23:
 254 0110 00200140 		.word	1073815552
 255 0114 00220140 		.word	1073816064
 256 0118 FDF7FFC0 		.word	-1056966659
 257              		.cfi_endproc
 258              	.LFE124:
 259              		.size	ADC_Init, .-ADC_Init
 260              		.section	.text.ADC_StructInit,"ax",%progbits
 261              		.align	2
 262              		.p2align 4,,15
 263              		.global	ADC_StructInit
 264              		.thumb
 265              		.thumb_func
 266              		.type	ADC_StructInit, %function
 267              	ADC_StructInit:
 268              	.LFB125:
 269              		.loc 1 311 0 is_stmt 1
 270              		.cfi_startproc
 271              		@ args = 0, pretend = 0, frame = 0
 272              		@ frame_needed = 0, uses_anonymous_args = 0
 273              		@ link register save eliminated.
 274              	.LVL27:
 275              		.loc 1 313 0
 276 0000 0023     		movs	r3, #0
 277              		.loc 1 331 0
 278 0002 0122     		movs	r2, #1
 279 0004 0275     		strb	r2, [r0, #20]
 280              		.loc 1 313 0
 281 0006 0360     		str	r3, [r0]
 282              		.loc 1 316 0
 283 0008 0371     		strb	r3, [r0, #4]
 284              		.loc 1 319 0
 285 000a 4371     		strb	r3, [r0, #5]
ARM GAS  /var/folders/m4/4md61f0s1_g0rzfghffqnxvr0000gn/T//ccTIFpbg.s 			page 6


 286              		.loc 1 322 0
 287 000c 8360     		str	r3, [r0, #8]
 288              		.loc 1 325 0
 289 000e C360     		str	r3, [r0, #12]
 290              		.loc 1 328 0
 291 0010 0361     		str	r3, [r0, #16]
 292 0012 7047     		bx	lr
 293              		.cfi_endproc
 294              	.LFE125:
 295              		.size	ADC_StructInit, .-ADC_StructInit
 296              		.section	.text.ADC_CommonInit,"ax",%progbits
 297              		.align	2
 298              		.p2align 4,,15
 299              		.global	ADC_CommonInit
 300              		.thumb
 301              		.thumb_func
 302              		.type	ADC_CommonInit, %function
 303              	ADC_CommonInit:
 304              	.LFB126:
 305              		.loc 1 342 0
 306              		.cfi_startproc
 307              		@ args = 0, pretend = 0, frame = 0
 308              		@ frame_needed = 0, uses_anonymous_args = 0
 309              	.LVL28:
 310 0000 70B5     		push	{r4, r5, r6, lr}
 311              		.cfi_def_cfa_offset 16
 312              		.cfi_offset 4, -16
 313              		.cfi_offset 5, -12
 314              		.cfi_offset 6, -8
 315              		.cfi_offset 14, -4
 316              		.loc 1 342 0
 317 0002 0446     		mov	r4, r0
 318              		.loc 1 345 0
 319 0004 0068     		ldr	r0, [r0]
 320              	.LVL29:
 321 0006 0228     		cmp	r0, #2
 322 0008 0CD9     		bls	.L34
 323              		.loc 1 345 0 is_stmt 0 discriminator 2
 324 000a 20F01003 		bic	r3, r0, #16
 325 000e 5A1F     		subs	r2, r3, #5
 326 0010 022A     		cmp	r2, #2
 327 0012 07D9     		bls	.L34
 328              		.loc 1 345 0 discriminator 8
 329 0014 092B     		cmp	r3, #9
 330 0016 05D0     		beq	.L34
 331              		.loc 1 345 0 discriminator 10
 332 0018 1138     		subs	r0, r0, #17
 333 001a 0128     		cmp	r0, #1
 334 001c 8CBF     		ite	hi
 335 001e 0020     		movhi	r0, #0
 336 0020 0120     		movls	r0, #1
 337 0022 00E0     		b	.L27
 338              	.L34:
 339              		.loc 1 345 0
 340 0024 0120     		movs	r0, #1
 341              	.L27:
 342              		.loc 1 345 0 discriminator 24
ARM GAS  /var/folders/m4/4md61f0s1_g0rzfghffqnxvr0000gn/T//ccTIFpbg.s 			page 7


 343 0026 FFF7FEFF 		bl	assert_param
 344              	.LVL30:
 345              		.loc 1 346 0 is_stmt 1 discriminator 24
 346 002a 6068     		ldr	r0, [r4, #4]
 347 002c 30F48030 		bics	r0, r0, #65536
 348 0030 17BF     		itett	ne
 349 0032 A0F50030 		subne	r0, r0, #131072
 350 0036 0120     		moveq	r0, #1
 351 0038 B0FA80F0 		clzne	r0, r0
 352 003c 4009     		lsrne	r0, r0, #5
 353 003e FFF7FEFF 		bl	assert_param
 354              	.LVL31:
 355              		.loc 1 347 0 discriminator 24
 356 0042 A068     		ldr	r0, [r4, #8]
 357 0044 30F48040 		bics	r0, r0, #16384
 358 0048 1BD0     		beq	.L36
 359              		.loc 1 347 0 is_stmt 0 discriminator 4
 360 004a A0F50040 		sub	r0, r0, #32768
 361 004e B0FA80F0 		clz	r0, r0
 362 0052 4009     		lsrs	r0, r0, #5
 363              	.L29:
 364              		.loc 1 347 0
 365 0054 FFF7FEFF 		bl	assert_param
 366              	.LVL32:
 367              		.loc 1 348 0 is_stmt 1
 368 0058 E368     		ldr	r3, [r4, #12]
 369 005a 23F48070 		bic	r0, r3, #256
 370 005e 33F44073 		bics	r3, r3, #768
 371 0062 10D0     		beq	.L40
 372              		.loc 1 348 0 is_stmt 0 discriminator 8
 373 0064 B3F5806F 		cmp	r3, #1024
 374 0068 0DD0     		beq	.L40
 375              		.loc 1 348 0 discriminator 16
 376 006a B3F5006F 		cmp	r3, #2048
 377 006e 0AD0     		beq	.L40
 378              		.loc 1 348 0 discriminator 24
 379 0070 B0F5406F 		cmp	r0, #3072
 380 0074 07D0     		beq	.L40
 381              		.loc 1 348 0 discriminator 28
 382 0076 A0F56060 		sub	r0, r0, #3584
 383 007a B0FA80F0 		clz	r0, r0
 384 007e 4009     		lsrs	r0, r0, #5
 385 0080 02E0     		b	.L30
 386              	.L36:
 387              		.loc 1 347 0 is_stmt 1
 388 0082 0120     		movs	r0, #1
 389 0084 E6E7     		b	.L29
 390              	.L40:
 391              		.loc 1 348 0
 392 0086 0120     		movs	r0, #1
 393              	.L30:
 394              		.loc 1 348 0 is_stmt 0 discriminator 34
 395 0088 FFF7FEFF 		bl	assert_param
 396              	.LVL33:
 397              		.loc 1 362 0 is_stmt 1 discriminator 34
 398 008c 94E84400 		ldmia	r4, {r2, r6}
 399              		.loc 1 351 0 discriminator 34
ARM GAS  /var/folders/m4/4md61f0s1_g0rzfghffqnxvr0000gn/T//ccTIFpbg.s 			page 8


 400 0090 054D     		ldr	r5, .L44
 401              		.loc 1 363 0 discriminator 34
 402 0092 A068     		ldr	r0, [r4, #8]
 403              		.loc 1 362 0 discriminator 34
 404 0094 E168     		ldr	r1, [r4, #12]
 405              		.loc 1 354 0 discriminator 34
 406 0096 054B     		ldr	r3, .L44+4
 407              		.loc 1 351 0 discriminator 34
 408 0098 6C68     		ldr	r4, [r5, #4]
 409              	.LVL34:
 410              		.loc 1 362 0 discriminator 34
 411 009a 3243     		orrs	r2, r2, r6
 412              		.loc 1 363 0 discriminator 34
 413 009c 0243     		orrs	r2, r2, r0
 414              		.loc 1 362 0 discriminator 34
 415 009e 0A43     		orrs	r2, r2, r1
 416              		.loc 1 354 0 discriminator 34
 417 00a0 2340     		ands	r3, r3, r4
 418              	.LVL35:
 419              		.loc 1 362 0 discriminator 34
 420 00a2 1343     		orrs	r3, r3, r2
 421              	.LVL36:
 422              		.loc 1 368 0 discriminator 34
 423 00a4 6B60     		str	r3, [r5, #4]
 424 00a6 70BD     		pop	{r4, r5, r6, pc}
 425              	.L45:
 426              		.align	2
 427              	.L44:
 428 00a8 00230140 		.word	1073816320
 429 00ac E030FCFF 		.word	-249632
 430              		.cfi_endproc
 431              	.LFE126:
 432              		.size	ADC_CommonInit, .-ADC_CommonInit
 433              		.section	.text.ADC_CommonStructInit,"ax",%progbits
 434              		.align	2
 435              		.p2align 4,,15
 436              		.global	ADC_CommonStructInit
 437              		.thumb
 438              		.thumb_func
 439              		.type	ADC_CommonStructInit, %function
 440              	ADC_CommonStructInit:
 441              	.LFB127:
 442              		.loc 1 378 0
 443              		.cfi_startproc
 444              		@ args = 0, pretend = 0, frame = 0
 445              		@ frame_needed = 0, uses_anonymous_args = 0
 446              		@ link register save eliminated.
 447              	.LVL37:
 448              		.loc 1 380 0
 449 0000 0023     		movs	r3, #0
 450 0002 0360     		str	r3, [r0]
 451              		.loc 1 383 0
 452 0004 4360     		str	r3, [r0, #4]
 453              		.loc 1 386 0
 454 0006 8360     		str	r3, [r0, #8]
 455              		.loc 1 389 0
 456 0008 C360     		str	r3, [r0, #12]
ARM GAS  /var/folders/m4/4md61f0s1_g0rzfghffqnxvr0000gn/T//ccTIFpbg.s 			page 9


 457 000a 7047     		bx	lr
 458              		.cfi_endproc
 459              	.LFE127:
 460              		.size	ADC_CommonStructInit, .-ADC_CommonStructInit
 461              		.section	.text.ADC_Cmd,"ax",%progbits
 462              		.align	2
 463              		.p2align 4,,15
 464              		.global	ADC_Cmd
 465              		.thumb
 466              		.thumb_func
 467              		.type	ADC_Cmd, %function
 468              	ADC_Cmd:
 469              	.LFB128:
 470              		.loc 1 400 0
 471              		.cfi_startproc
 472              		@ args = 0, pretend = 0, frame = 0
 473              		@ frame_needed = 0, uses_anonymous_args = 0
 474              	.LVL38:
 475 0000 38B5     		push	{r3, r4, r5, lr}
 476              		.cfi_def_cfa_offset 16
 477              		.cfi_offset 3, -16
 478              		.cfi_offset 4, -12
 479              		.cfi_offset 5, -8
 480              		.cfi_offset 14, -4
 481              		.loc 1 402 0
 482 0002 114B     		ldr	r3, .L55
 483 0004 9842     		cmp	r0, r3
 484              		.loc 1 400 0
 485 0006 0446     		mov	r4, r0
 486 0008 0D46     		mov	r5, r1
 487              		.loc 1 402 0
 488 000a 1AD0     		beq	.L52
 489              		.loc 1 402 0 is_stmt 0 discriminator 2
 490 000c 03F58073 		add	r3, r3, #256
 491 0010 9842     		cmp	r0, r3
 492 0012 16D0     		beq	.L52
 493              		.loc 1 402 0 discriminator 4
 494 0014 0D48     		ldr	r0, .L55+4
 495              	.LVL39:
 496 0016 201A     		subs	r0, r4, r0
 497 0018 B0FA80F0 		clz	r0, r0
 498 001c 4009     		lsrs	r0, r0, #5
 499              	.L48:
 500              		.loc 1 402 0 discriminator 8
 501 001e FFF7FEFF 		bl	assert_param
 502              	.LVL40:
 503              		.loc 1 403 0 is_stmt 1 discriminator 8
 504 0022 012D     		cmp	r5, #1
 505 0024 8CBF     		ite	hi
 506 0026 0020     		movhi	r0, #0
 507 0028 0120     		movls	r0, #1
 508 002a FFF7FEFF 		bl	assert_param
 509              	.LVL41:
 510              		.loc 1 407 0 discriminator 8
 511 002e A368     		ldr	r3, [r4, #8]
 512              		.loc 1 404 0 discriminator 8
 513 0030 1DB9     		cbnz	r5, .L54
ARM GAS  /var/folders/m4/4md61f0s1_g0rzfghffqnxvr0000gn/T//ccTIFpbg.s 			page 10


 514              		.loc 1 412 0
 515 0032 23F00103 		bic	r3, r3, #1
 516 0036 A360     		str	r3, [r4, #8]
 517 0038 38BD     		pop	{r3, r4, r5, pc}
 518              	.LVL42:
 519              	.L54:
 520              		.loc 1 407 0
 521 003a 43F00103 		orr	r3, r3, #1
 522 003e A360     		str	r3, [r4, #8]
 523 0040 38BD     		pop	{r3, r4, r5, pc}
 524              	.LVL43:
 525              	.L52:
 526              		.loc 1 402 0
 527 0042 0120     		movs	r0, #1
 528              	.LVL44:
 529 0044 EBE7     		b	.L48
 530              	.L56:
 531 0046 00BF     		.align	2
 532              	.L55:
 533 0048 00200140 		.word	1073815552
 534 004c 00220140 		.word	1073816064
 535              		.cfi_endproc
 536              	.LFE128:
 537              		.size	ADC_Cmd, .-ADC_Cmd
 538              		.section	.text.ADC_AnalogWatchdogCmd,"ax",%progbits
 539              		.align	2
 540              		.p2align 4,,15
 541              		.global	ADC_AnalogWatchdogCmd
 542              		.thumb
 543              		.thumb_func
 544              		.type	ADC_AnalogWatchdogCmd, %function
 545              	ADC_AnalogWatchdogCmd:
 546              	.LFB129:
 547              		.loc 1 456 0
 548              		.cfi_startproc
 549              		@ args = 0, pretend = 0, frame = 0
 550              		@ frame_needed = 0, uses_anonymous_args = 0
 551              	.LVL45:
 552 0000 38B5     		push	{r3, r4, r5, lr}
 553              		.cfi_def_cfa_offset 16
 554              		.cfi_offset 3, -16
 555              		.cfi_offset 4, -12
 556              		.cfi_offset 5, -8
 557              		.cfi_offset 14, -4
 558              		.loc 1 459 0
 559 0002 184B     		ldr	r3, .L66
 560 0004 9842     		cmp	r0, r3
 561              		.loc 1 456 0
 562 0006 0446     		mov	r4, r0
 563 0008 0D46     		mov	r5, r1
 564              		.loc 1 459 0
 565 000a 28D0     		beq	.L61
 566              		.loc 1 459 0 is_stmt 0 discriminator 2
 567 000c 03F58073 		add	r3, r3, #256
 568 0010 9842     		cmp	r0, r3
 569 0012 24D0     		beq	.L61
 570              		.loc 1 459 0 discriminator 4
ARM GAS  /var/folders/m4/4md61f0s1_g0rzfghffqnxvr0000gn/T//ccTIFpbg.s 			page 11


 571 0014 1448     		ldr	r0, .L66+4
 572              	.LVL46:
 573 0016 201A     		subs	r0, r4, r0
 574 0018 B0FA80F0 		clz	r0, r0
 575 001c 4009     		lsrs	r0, r0, #5
 576              	.L58:
 577              		.loc 1 459 0 discriminator 8
 578 001e FFF7FEFF 		bl	assert_param
 579              	.LVL47:
 580              		.loc 1 460 0 is_stmt 1 discriminator 8
 581 0022 124B     		ldr	r3, .L66+8
 582 0024 25F40002 		bic	r2, r5, #8388608
 583 0028 9A42     		cmp	r2, r3
 584 002a 16D0     		beq	.L64
 585              		.loc 1 460 0 is_stmt 0 discriminator 6
 586 002c 25F40073 		bic	r3, r5, #512
 587 0030 B3F5000F 		cmp	r3, #8388608
 588 0034 11D0     		beq	.L64
 589              		.loc 1 460 0 discriminator 10
 590 0036 B5F5400F 		cmp	r5, #12582912
 591 003a 0ED0     		beq	.L64
 592              		.loc 1 460 0 discriminator 12
 593 003c 35F48003 		bics	r3, r5, #4194304
 594 0040 0CBF     		ite	eq
 595 0042 0120     		moveq	r0, #1
 596 0044 0020     		movne	r0, #0
 597              	.L59:
 598              		.loc 1 460 0 discriminator 16
 599 0046 FFF7FEFF 		bl	assert_param
 600              	.LVL48:
 601              		.loc 1 463 0 is_stmt 1 discriminator 16
 602 004a 6268     		ldr	r2, [r4, #4]
 603              	.LVL49:
 604              		.loc 1 466 0 discriminator 16
 605 004c 22F44003 		bic	r3, r2, #12582912
 606 0050 23F40073 		bic	r3, r3, #512
 607              	.LVL50:
 608              		.loc 1 469 0 discriminator 16
 609 0054 2B43     		orrs	r3, r3, r5
 610              	.LVL51:
 611              		.loc 1 472 0 discriminator 16
 612 0056 6360     		str	r3, [r4, #4]
 613 0058 38BD     		pop	{r3, r4, r5, pc}
 614              	.LVL52:
 615              	.L64:
 616              		.loc 1 460 0
 617 005a 0120     		movs	r0, #1
 618 005c F3E7     		b	.L59
 619              	.LVL53:
 620              	.L61:
 621              		.loc 1 459 0
 622 005e 0120     		movs	r0, #1
 623              	.LVL54:
 624 0060 DDE7     		b	.L58
 625              	.L67:
 626 0062 00BF     		.align	2
 627              	.L66:
ARM GAS  /var/folders/m4/4md61f0s1_g0rzfghffqnxvr0000gn/T//ccTIFpbg.s 			page 12


 628 0064 00200140 		.word	1073815552
 629 0068 00220140 		.word	1073816064
 630 006c 00024000 		.word	4194816
 631              		.cfi_endproc
 632              	.LFE129:
 633              		.size	ADC_AnalogWatchdogCmd, .-ADC_AnalogWatchdogCmd
 634              		.section	.text.ADC_AnalogWatchdogThresholdsConfig,"ax",%progbits
 635              		.align	2
 636              		.p2align 4,,15
 637              		.global	ADC_AnalogWatchdogThresholdsConfig
 638              		.thumb
 639              		.thumb_func
 640              		.type	ADC_AnalogWatchdogThresholdsConfig, %function
 641              	ADC_AnalogWatchdogThresholdsConfig:
 642              	.LFB130:
 643              		.loc 1 486 0
 644              		.cfi_startproc
 645              		@ args = 0, pretend = 0, frame = 0
 646              		@ frame_needed = 0, uses_anonymous_args = 0
 647              	.LVL55:
 648 0000 F8B5     		push	{r3, r4, r5, r6, r7, lr}
 649              		.cfi_def_cfa_offset 24
 650              		.cfi_offset 3, -24
 651              		.cfi_offset 4, -20
 652              		.cfi_offset 5, -16
 653              		.cfi_offset 6, -12
 654              		.cfi_offset 7, -8
 655              		.cfi_offset 14, -4
 656              		.loc 1 488 0
 657 0002 124B     		ldr	r3, .L73
 658 0004 9842     		cmp	r0, r3
 659              		.loc 1 486 0
 660 0006 0446     		mov	r4, r0
 661 0008 0E46     		mov	r6, r1
 662 000a 1546     		mov	r5, r2
 663              		.loc 1 488 0
 664 000c 1BD0     		beq	.L71
 665              		.loc 1 488 0 is_stmt 0 discriminator 2
 666 000e 03F58073 		add	r3, r3, #256
 667 0012 9842     		cmp	r0, r3
 668 0014 17D0     		beq	.L71
 669              		.loc 1 488 0 discriminator 4
 670 0016 0E48     		ldr	r0, .L73+4
 671              	.LVL56:
 672 0018 201A     		subs	r0, r4, r0
 673 001a B0FA80F0 		clz	r0, r0
 674 001e 4009     		lsrs	r0, r0, #5
 675              	.L69:
 676              		.loc 1 489 0 is_stmt 1 discriminator 8
 677 0020 40F6FF77 		movw	r7, #4095
 678              		.loc 1 488 0 discriminator 8
 679 0024 FFF7FEFF 		bl	assert_param
 680              	.LVL57:
 681              		.loc 1 489 0 discriminator 8
 682 0028 BE42     		cmp	r6, r7
 683 002a 8CBF     		ite	hi
 684 002c 0020     		movhi	r0, #0
ARM GAS  /var/folders/m4/4md61f0s1_g0rzfghffqnxvr0000gn/T//ccTIFpbg.s 			page 13


 685 002e 0120     		movls	r0, #1
 686 0030 FFF7FEFF 		bl	assert_param
 687              	.LVL58:
 688              		.loc 1 490 0 discriminator 8
 689 0034 BD42     		cmp	r5, r7
 690 0036 8CBF     		ite	hi
 691 0038 0020     		movhi	r0, #0
 692 003a 0120     		movls	r0, #1
 693 003c FFF7FEFF 		bl	assert_param
 694              	.LVL59:
 695              		.loc 1 493 0 discriminator 8
 696 0040 6662     		str	r6, [r4, #36]
 697              		.loc 1 496 0 discriminator 8
 698 0042 A562     		str	r5, [r4, #40]
 699 0044 F8BD     		pop	{r3, r4, r5, r6, r7, pc}
 700              	.LVL60:
 701              	.L71:
 702              		.loc 1 488 0
 703 0046 0120     		movs	r0, #1
 704              	.LVL61:
 705 0048 EAE7     		b	.L69
 706              	.L74:
 707 004a 00BF     		.align	2
 708              	.L73:
 709 004c 00200140 		.word	1073815552
 710 0050 00220140 		.word	1073816064
 711              		.cfi_endproc
 712              	.LFE130:
 713              		.size	ADC_AnalogWatchdogThresholdsConfig, .-ADC_AnalogWatchdogThresholdsConfig
 714              		.section	.text.ADC_AnalogWatchdogSingleChannelConfig,"ax",%progbits
 715              		.align	2
 716              		.p2align 4,,15
 717              		.global	ADC_AnalogWatchdogSingleChannelConfig
 718              		.thumb
 719              		.thumb_func
 720              		.type	ADC_AnalogWatchdogSingleChannelConfig, %function
 721              	ADC_AnalogWatchdogSingleChannelConfig:
 722              	.LFB131:
 723              		.loc 1 526 0
 724              		.cfi_startproc
 725              		@ args = 0, pretend = 0, frame = 0
 726              		@ frame_needed = 0, uses_anonymous_args = 0
 727              	.LVL62:
 728 0000 38B5     		push	{r3, r4, r5, lr}
 729              		.cfi_def_cfa_offset 16
 730              		.cfi_offset 3, -16
 731              		.cfi_offset 4, -12
 732              		.cfi_offset 5, -8
 733              		.cfi_offset 14, -4
 734              		.loc 1 529 0
 735 0002 0F4B     		ldr	r3, .L80
 736 0004 9842     		cmp	r0, r3
 737              		.loc 1 526 0
 738 0006 0446     		mov	r4, r0
 739 0008 0D46     		mov	r5, r1
 740              		.loc 1 529 0
 741 000a 16D0     		beq	.L78
ARM GAS  /var/folders/m4/4md61f0s1_g0rzfghffqnxvr0000gn/T//ccTIFpbg.s 			page 14


 742              		.loc 1 529 0 is_stmt 0 discriminator 2
 743 000c 03F58073 		add	r3, r3, #256
 744 0010 9842     		cmp	r0, r3
 745 0012 12D0     		beq	.L78
 746              		.loc 1 529 0 discriminator 4
 747 0014 0B48     		ldr	r0, .L80+4
 748              	.LVL63:
 749 0016 201A     		subs	r0, r4, r0
 750 0018 B0FA80F0 		clz	r0, r0
 751 001c 4009     		lsrs	r0, r0, #5
 752              	.L76:
 753              		.loc 1 529 0 discriminator 8
 754 001e FFF7FEFF 		bl	assert_param
 755              	.LVL64:
 756              		.loc 1 530 0 is_stmt 1 discriminator 8
 757 0022 122D     		cmp	r5, #18
 758 0024 8CBF     		ite	hi
 759 0026 0020     		movhi	r0, #0
 760 0028 0120     		movls	r0, #1
 761 002a FFF7FEFF 		bl	assert_param
 762              	.LVL65:
 763              		.loc 1 533 0 discriminator 8
 764 002e 6168     		ldr	r1, [r4, #4]
 765              	.LVL66:
 766              		.loc 1 536 0 discriminator 8
 767 0030 21F01F01 		bic	r1, r1, #31
 768              	.LVL67:
 769              		.loc 1 539 0 discriminator 8
 770 0034 2943     		orrs	r1, r1, r5
 771              	.LVL68:
 772              		.loc 1 542 0 discriminator 8
 773 0036 6160     		str	r1, [r4, #4]
 774 0038 38BD     		pop	{r3, r4, r5, pc}
 775              	.LVL69:
 776              	.L78:
 777              		.loc 1 529 0
 778 003a 0120     		movs	r0, #1
 779              	.LVL70:
 780 003c EFE7     		b	.L76
 781              	.L81:
 782 003e 00BF     		.align	2
 783              	.L80:
 784 0040 00200140 		.word	1073815552
 785 0044 00220140 		.word	1073816064
 786              		.cfi_endproc
 787              	.LFE131:
 788              		.size	ADC_AnalogWatchdogSingleChannelConfig, .-ADC_AnalogWatchdogSingleChannelConfig
 789              		.section	.text.ADC_TempSensorVrefintCmd,"ax",%progbits
 790              		.align	2
 791              		.p2align 4,,15
 792              		.global	ADC_TempSensorVrefintCmd
 793              		.thumb
 794              		.thumb_func
 795              		.type	ADC_TempSensorVrefintCmd, %function
 796              	ADC_TempSensorVrefintCmd:
 797              	.LFB132:
 798              		.loc 1 590 0
ARM GAS  /var/folders/m4/4md61f0s1_g0rzfghffqnxvr0000gn/T//ccTIFpbg.s 			page 15


 799              		.cfi_startproc
 800              		@ args = 0, pretend = 0, frame = 0
 801              		@ frame_needed = 0, uses_anonymous_args = 0
 802              	.LVL71:
 803              		.loc 1 592 0
 804 0000 0128     		cmp	r0, #1
 805              		.loc 1 590 0
 806 0002 10B5     		push	{r4, lr}
 807              		.cfi_def_cfa_offset 8
 808              		.cfi_offset 4, -8
 809              		.cfi_offset 14, -4
 810              		.loc 1 590 0
 811 0004 0446     		mov	r4, r0
 812              		.loc 1 592 0
 813 0006 8CBF     		ite	hi
 814 0008 0020     		movhi	r0, #0
 815              	.LVL72:
 816 000a 0120     		movls	r0, #1
 817 000c FFF7FEFF 		bl	assert_param
 818              	.LVL73:
 819              		.loc 1 596 0
 820 0010 054A     		ldr	r2, .L87
 821 0012 5368     		ldr	r3, [r2, #4]
 822              		.loc 1 593 0
 823 0014 1CB9     		cbnz	r4, .L86
 824              		.loc 1 601 0
 825 0016 23F40003 		bic	r3, r3, #8388608
 826 001a 5360     		str	r3, [r2, #4]
 827 001c 10BD     		pop	{r4, pc}
 828              	.L86:
 829              		.loc 1 596 0
 830 001e 43F40003 		orr	r3, r3, #8388608
 831 0022 5360     		str	r3, [r2, #4]
 832 0024 10BD     		pop	{r4, pc}
 833              	.L88:
 834 0026 00BF     		.align	2
 835              	.L87:
 836 0028 00230140 		.word	1073816320
 837              		.cfi_endproc
 838              	.LFE132:
 839              		.size	ADC_TempSensorVrefintCmd, .-ADC_TempSensorVrefintCmd
 840              		.section	.text.ADC_VBATCmd,"ax",%progbits
 841              		.align	2
 842              		.p2align 4,,15
 843              		.global	ADC_VBATCmd
 844              		.thumb
 845              		.thumb_func
 846              		.type	ADC_VBATCmd, %function
 847              	ADC_VBATCmd:
 848              	.LFB133:
 849              		.loc 1 616 0
 850              		.cfi_startproc
 851              		@ args = 0, pretend = 0, frame = 0
 852              		@ frame_needed = 0, uses_anonymous_args = 0
 853              	.LVL74:
 854              		.loc 1 618 0
 855 0000 0128     		cmp	r0, #1
ARM GAS  /var/folders/m4/4md61f0s1_g0rzfghffqnxvr0000gn/T//ccTIFpbg.s 			page 16


 856              		.loc 1 616 0
 857 0002 10B5     		push	{r4, lr}
 858              		.cfi_def_cfa_offset 8
 859              		.cfi_offset 4, -8
 860              		.cfi_offset 14, -4
 861              		.loc 1 616 0
 862 0004 0446     		mov	r4, r0
 863              		.loc 1 618 0
 864 0006 8CBF     		ite	hi
 865 0008 0020     		movhi	r0, #0
 866              	.LVL75:
 867 000a 0120     		movls	r0, #1
 868 000c FFF7FEFF 		bl	assert_param
 869              	.LVL76:
 870              		.loc 1 622 0
 871 0010 054A     		ldr	r2, .L94
 872 0012 5368     		ldr	r3, [r2, #4]
 873              		.loc 1 619 0
 874 0014 1CB9     		cbnz	r4, .L93
 875              		.loc 1 627 0
 876 0016 23F48003 		bic	r3, r3, #4194304
 877 001a 5360     		str	r3, [r2, #4]
 878 001c 10BD     		pop	{r4, pc}
 879              	.L93:
 880              		.loc 1 622 0
 881 001e 43F48003 		orr	r3, r3, #4194304
 882 0022 5360     		str	r3, [r2, #4]
 883 0024 10BD     		pop	{r4, pc}
 884              	.L95:
 885 0026 00BF     		.align	2
 886              	.L94:
 887 0028 00230140 		.word	1073816320
 888              		.cfi_endproc
 889              	.LFE133:
 890              		.size	ADC_VBATCmd, .-ADC_VBATCmd
 891              		.section	.text.ADC_RegularChannelConfig,"ax",%progbits
 892              		.align	2
 893              		.p2align 4,,15
 894              		.global	ADC_RegularChannelConfig
 895              		.thumb
 896              		.thumb_func
 897              		.type	ADC_RegularChannelConfig, %function
 898              	ADC_RegularChannelConfig:
 899              	.LFB134:
 900              		.loc 1 716 0
 901              		.cfi_startproc
 902              		@ args = 0, pretend = 0, frame = 0
 903              		@ frame_needed = 0, uses_anonymous_args = 0
 904              	.LVL77:
 905 0000 2DE9F041 		push	{r4, r5, r6, r7, r8, lr}
 906              		.cfi_def_cfa_offset 24
 907              		.cfi_offset 4, -24
 908              		.cfi_offset 5, -20
 909              		.cfi_offset 6, -16
 910              		.cfi_offset 7, -12
 911              		.cfi_offset 8, -8
 912              		.cfi_offset 14, -4
ARM GAS  /var/folders/m4/4md61f0s1_g0rzfghffqnxvr0000gn/T//ccTIFpbg.s 			page 17


 913              		.loc 1 719 0
 914 0004 DFF8E4E0 		ldr	lr, .L108+8
 915 0008 7045     		cmp	r0, lr
 916              		.loc 1 716 0
 917 000a 0646     		mov	r6, r0
 918 000c 0C46     		mov	r4, r1
 919 000e 1546     		mov	r5, r2
 920 0010 1F46     		mov	r7, r3
 921              		.loc 1 719 0
 922 0012 65D0     		beq	.L104
 923              		.loc 1 719 0 is_stmt 0 discriminator 2
 924 0014 334B     		ldr	r3, .L108
 925              	.LVL78:
 926 0016 9842     		cmp	r0, r3
 927 0018 62D0     		beq	.L104
 928              		.loc 1 719 0 discriminator 4
 929 001a 3348     		ldr	r0, .L108+4
 930              	.LVL79:
 931 001c 301A     		subs	r0, r6, r0
 932 001e B0FA80F0 		clz	r0, r0
 933 0022 4009     		lsrs	r0, r0, #5
 934              	.L97:
 935              		.loc 1 719 0 discriminator 8
 936 0024 FFF7FEFF 		bl	assert_param
 937              	.LVL80:
 938              		.loc 1 720 0 is_stmt 1 discriminator 8
 939 0028 122C     		cmp	r4, #18
 940 002a 8CBF     		ite	hi
 941 002c 0020     		movhi	r0, #0
 942 002e 0120     		movls	r0, #1
 943              		.loc 1 721 0 discriminator 8
 944 0030 05F1FF38 		add	r8, r5, #-1
 945              		.loc 1 720 0 discriminator 8
 946 0034 FFF7FEFF 		bl	assert_param
 947              	.LVL81:
 948              		.loc 1 721 0 discriminator 8
 949 0038 5FFA88F0 		uxtb	r0, r8
 950 003c 0F28     		cmp	r0, #15
 951 003e 8CBF     		ite	hi
 952 0040 0020     		movhi	r0, #0
 953 0042 0120     		movls	r0, #1
 954 0044 FFF7FEFF 		bl	assert_param
 955              	.LVL82:
 956              		.loc 1 722 0 discriminator 8
 957 0048 072F     		cmp	r7, #7
 958 004a 8CBF     		ite	hi
 959 004c 0020     		movhi	r0, #0
 960 004e 0120     		movls	r0, #1
 961 0050 FFF7FEFF 		bl	assert_param
 962              	.LVL83:
 963              		.loc 1 725 0 discriminator 8
 964 0054 092C     		cmp	r4, #9
 965 0056 1CD9     		bls	.L98
 966              		.loc 1 731 0
 967 0058 A4F10A03 		sub	r3, r4, #10
 968 005c 03EB4303 		add	r3, r3, r3, lsl #1
 969              		.loc 1 728 0
ARM GAS  /var/folders/m4/4md61f0s1_g0rzfghffqnxvr0000gn/T//ccTIFpbg.s 			page 18


 970 0060 F268     		ldr	r2, [r6, #12]
 971              	.LVL84:
 972              		.loc 1 731 0
 973 0062 0721     		movs	r1, #7
 974 0064 9940     		lsls	r1, r1, r3
 975              	.LVL85:
 976              		.loc 1 737 0
 977 0066 9F40     		lsls	r7, r7, r3
 978              		.loc 1 734 0
 979 0068 22EA0103 		bic	r3, r2, r1
 980              	.LVL86:
 981              		.loc 1 740 0
 982 006c 1F43     		orrs	r7, r7, r3
 983              	.LVL87:
 984              		.loc 1 766 0
 985 006e 062D     		cmp	r5, #6
 986              		.loc 1 743 0
 987 0070 F760     		str	r7, [r6, #12]
 988              		.loc 1 766 0
 989 0072 1AD9     		bls	.L106
 990              	.L100:
 991              		.loc 1 787 0
 992 0074 0C2D     		cmp	r5, #12
 993 0076 26D9     		bls	.L107
 994              		.loc 1 814 0
 995 0078 0D3D     		subs	r5, r5, #13
 996 007a 05EB8505 		add	r5, r5, r5, lsl #2
 997              		.loc 1 811 0
 998 007e F36A     		ldr	r3, [r6, #44]
 999              	.LVL88:
 1000              		.loc 1 814 0
 1001 0080 1F21     		movs	r1, #31
 1002 0082 A940     		lsls	r1, r1, r5
 1003              	.LVL89:
 1004              		.loc 1 820 0
 1005 0084 AC40     		lsls	r4, r4, r5
 1006              		.loc 1 817 0
 1007 0086 23EA0101 		bic	r1, r3, r1
 1008              	.LVL90:
 1009              		.loc 1 823 0
 1010 008a 0C43     		orrs	r4, r4, r1
 1011              	.LVL91:
 1012              		.loc 1 826 0
 1013 008c F462     		str	r4, [r6, #44]
 1014 008e BDE8F081 		pop	{r4, r5, r6, r7, r8, pc}
 1015              	.LVL92:
 1016              	.L98:
 1017              		.loc 1 751 0
 1018 0092 04EB4401 		add	r1, r4, r4, lsl #1
 1019              		.loc 1 748 0
 1020 0096 3269     		ldr	r2, [r6, #16]
 1021              	.LVL93:
 1022              		.loc 1 751 0
 1023 0098 0723     		movs	r3, #7
 1024 009a 8B40     		lsls	r3, r3, r1
 1025              	.LVL94:
 1026              		.loc 1 757 0
ARM GAS  /var/folders/m4/4md61f0s1_g0rzfghffqnxvr0000gn/T//ccTIFpbg.s 			page 19


 1027 009c 8F40     		lsls	r7, r7, r1
 1028              		.loc 1 754 0
 1029 009e 22EA0303 		bic	r3, r2, r3
 1030              	.LVL95:
 1031              		.loc 1 760 0
 1032 00a2 1F43     		orrs	r7, r7, r3
 1033              	.LVL96:
 1034              		.loc 1 766 0
 1035 00a4 062D     		cmp	r5, #6
 1036              		.loc 1 763 0
 1037 00a6 3761     		str	r7, [r6, #16]
 1038              		.loc 1 766 0
 1039 00a8 E4D8     		bhi	.L100
 1040              	.L106:
 1041              		.loc 1 772 0
 1042 00aa 08EB8808 		add	r8, r8, r8, lsl #2
 1043              		.loc 1 769 0
 1044 00ae 736B     		ldr	r3, [r6, #52]
 1045              	.LVL97:
 1046              		.loc 1 772 0
 1047 00b0 1F21     		movs	r1, #31
 1048 00b2 01FA08F1 		lsl	r1, r1, r8
 1049              	.LVL98:
 1050              		.loc 1 778 0
 1051 00b6 04FA08F4 		lsl	r4, r4, r8
 1052              		.loc 1 775 0
 1053 00ba 23EA0101 		bic	r1, r3, r1
 1054              	.LVL99:
 1055              		.loc 1 781 0
 1056 00be 0C43     		orrs	r4, r4, r1
 1057              	.LVL100:
 1058              		.loc 1 784 0
 1059 00c0 7463     		str	r4, [r6, #52]
 1060 00c2 BDE8F081 		pop	{r4, r5, r6, r7, r8, pc}
 1061              	.LVL101:
 1062              	.L107:
 1063              		.loc 1 793 0
 1064 00c6 073D     		subs	r5, r5, #7
 1065 00c8 05EB8505 		add	r5, r5, r5, lsl #2
 1066              		.loc 1 790 0
 1067 00cc 336B     		ldr	r3, [r6, #48]
 1068              	.LVL102:
 1069              		.loc 1 793 0
 1070 00ce 1F21     		movs	r1, #31
 1071 00d0 A940     		lsls	r1, r1, r5
 1072              	.LVL103:
 1073              		.loc 1 799 0
 1074 00d2 AC40     		lsls	r4, r4, r5
 1075              		.loc 1 796 0
 1076 00d4 23EA0101 		bic	r1, r3, r1
 1077              	.LVL104:
 1078              		.loc 1 802 0
 1079 00d8 0C43     		orrs	r4, r4, r1
 1080              	.LVL105:
 1081              		.loc 1 805 0
 1082 00da 3463     		str	r4, [r6, #48]
 1083 00dc BDE8F081 		pop	{r4, r5, r6, r7, r8, pc}
ARM GAS  /var/folders/m4/4md61f0s1_g0rzfghffqnxvr0000gn/T//ccTIFpbg.s 			page 20


 1084              	.LVL106:
 1085              	.L104:
 1086              		.loc 1 719 0
 1087 00e0 0120     		movs	r0, #1
 1088              	.LVL107:
 1089 00e2 9FE7     		b	.L97
 1090              	.L109:
 1091              		.align	2
 1092              	.L108:
 1093 00e4 00210140 		.word	1073815808
 1094 00e8 00220140 		.word	1073816064
 1095 00ec 00200140 		.word	1073815552
 1096              		.cfi_endproc
 1097              	.LFE134:
 1098              		.size	ADC_RegularChannelConfig, .-ADC_RegularChannelConfig
 1099              		.section	.text.ADC_SoftwareStartConv,"ax",%progbits
 1100              		.align	2
 1101              		.p2align 4,,15
 1102              		.global	ADC_SoftwareStartConv
 1103              		.thumb
 1104              		.thumb_func
 1105              		.type	ADC_SoftwareStartConv, %function
 1106              	ADC_SoftwareStartConv:
 1107              	.LFB135:
 1108              		.loc 1 836 0
 1109              		.cfi_startproc
 1110              		@ args = 0, pretend = 0, frame = 0
 1111              		@ frame_needed = 0, uses_anonymous_args = 0
 1112              	.LVL108:
 1113              		.loc 1 838 0
 1114 0000 0B4B     		ldr	r3, .L115
 1115 0002 9842     		cmp	r0, r3
 1116              		.loc 1 836 0
 1117 0004 10B5     		push	{r4, lr}
 1118              		.cfi_def_cfa_offset 8
 1119              		.cfi_offset 4, -8
 1120              		.cfi_offset 14, -4
 1121              		.loc 1 836 0
 1122 0006 0446     		mov	r4, r0
 1123              		.loc 1 838 0
 1124 0008 0FD0     		beq	.L113
 1125              		.loc 1 838 0 is_stmt 0 discriminator 2
 1126 000a 03F58073 		add	r3, r3, #256
 1127 000e 9842     		cmp	r0, r3
 1128 0010 0BD0     		beq	.L113
 1129              		.loc 1 838 0 discriminator 4
 1130 0012 0848     		ldr	r0, .L115+4
 1131              	.LVL109:
 1132 0014 201A     		subs	r0, r4, r0
 1133 0016 B0FA80F0 		clz	r0, r0
 1134 001a 4009     		lsrs	r0, r0, #5
 1135              	.L111:
 1136              		.loc 1 838 0 discriminator 8
 1137 001c FFF7FEFF 		bl	assert_param
 1138              	.LVL110:
 1139              		.loc 1 841 0 is_stmt 1 discriminator 8
 1140 0020 A368     		ldr	r3, [r4, #8]
ARM GAS  /var/folders/m4/4md61f0s1_g0rzfghffqnxvr0000gn/T//ccTIFpbg.s 			page 21


 1141 0022 43F08043 		orr	r3, r3, #1073741824
 1142 0026 A360     		str	r3, [r4, #8]
 1143 0028 10BD     		pop	{r4, pc}
 1144              	.LVL111:
 1145              	.L113:
 1146              		.loc 1 838 0
 1147 002a 0120     		movs	r0, #1
 1148              	.LVL112:
 1149 002c F6E7     		b	.L111
 1150              	.L116:
 1151 002e 00BF     		.align	2
 1152              	.L115:
 1153 0030 00200140 		.word	1073815552
 1154 0034 00220140 		.word	1073816064
 1155              		.cfi_endproc
 1156              	.LFE135:
 1157              		.size	ADC_SoftwareStartConv, .-ADC_SoftwareStartConv
 1158              		.section	.text.ADC_GetSoftwareStartConvStatus,"ax",%progbits
 1159              		.align	2
 1160              		.p2align 4,,15
 1161              		.global	ADC_GetSoftwareStartConvStatus
 1162              		.thumb
 1163              		.thumb_func
 1164              		.type	ADC_GetSoftwareStartConvStatus, %function
 1165              	ADC_GetSoftwareStartConvStatus:
 1166              	.LFB136:
 1167              		.loc 1 850 0
 1168              		.cfi_startproc
 1169              		@ args = 0, pretend = 0, frame = 0
 1170              		@ frame_needed = 0, uses_anonymous_args = 0
 1171              	.LVL113:
 1172              		.loc 1 853 0
 1173 0000 0D4B     		ldr	r3, .L122
 1174 0002 9842     		cmp	r0, r3
 1175              		.loc 1 850 0
 1176 0004 10B5     		push	{r4, lr}
 1177              		.cfi_def_cfa_offset 8
 1178              		.cfi_offset 4, -8
 1179              		.cfi_offset 14, -4
 1180              		.loc 1 850 0
 1181 0006 0446     		mov	r4, r0
 1182              		.loc 1 853 0
 1183 0008 0ED0     		beq	.L120
 1184              		.loc 1 853 0 is_stmt 0 discriminator 2
 1185 000a 03F58073 		add	r3, r3, #256
 1186 000e 9842     		cmp	r0, r3
 1187 0010 0AD0     		beq	.L120
 1188              		.loc 1 853 0 discriminator 4
 1189 0012 0A48     		ldr	r0, .L122+4
 1190              	.LVL114:
 1191 0014 201A     		subs	r0, r4, r0
 1192 0016 B0FA80F0 		clz	r0, r0
 1193 001a 4009     		lsrs	r0, r0, #5
 1194 001c FFF7FEFF 		bl	assert_param
 1195              	.LVL115:
 1196              		.loc 1 856 0 is_stmt 1 discriminator 4
 1197 0020 A068     		ldr	r0, [r4, #8]
ARM GAS  /var/folders/m4/4md61f0s1_g0rzfghffqnxvr0000gn/T//ccTIFpbg.s 			page 22


 1198              	.LVL116:
 1199              		.loc 1 869 0 discriminator 4
 1200 0022 C0F38070 		ubfx	r0, r0, #30, #1
 1201              	.LVL117:
 1202 0026 10BD     		pop	{r4, pc}
 1203              	.LVL118:
 1204              	.L120:
 1205              		.loc 1 853 0
 1206 0028 0120     		movs	r0, #1
 1207              	.LVL119:
 1208 002a FFF7FEFF 		bl	assert_param
 1209              	.LVL120:
 1210              		.loc 1 856 0
 1211 002e A068     		ldr	r0, [r4, #8]
 1212              	.LVL121:
 1213              		.loc 1 869 0
 1214 0030 C0F38070 		ubfx	r0, r0, #30, #1
 1215              	.LVL122:
 1216 0034 10BD     		pop	{r4, pc}
 1217              	.LVL123:
 1218              	.L123:
 1219 0036 00BF     		.align	2
 1220              	.L122:
 1221 0038 00200140 		.word	1073815552
 1222 003c 00220140 		.word	1073816064
 1223              		.cfi_endproc
 1224              	.LFE136:
 1225              		.size	ADC_GetSoftwareStartConvStatus, .-ADC_GetSoftwareStartConvStatus
 1226              		.section	.text.ADC_EOCOnEachRegularChannelCmd,"ax",%progbits
 1227              		.align	2
 1228              		.p2align 4,,15
 1229              		.global	ADC_EOCOnEachRegularChannelCmd
 1230              		.thumb
 1231              		.thumb_func
 1232              		.type	ADC_EOCOnEachRegularChannelCmd, %function
 1233              	ADC_EOCOnEachRegularChannelCmd:
 1234              	.LFB137:
 1235              		.loc 1 880 0
 1236              		.cfi_startproc
 1237              		@ args = 0, pretend = 0, frame = 0
 1238              		@ frame_needed = 0, uses_anonymous_args = 0
 1239              	.LVL124:
 1240 0000 38B5     		push	{r3, r4, r5, lr}
 1241              		.cfi_def_cfa_offset 16
 1242              		.cfi_offset 3, -16
 1243              		.cfi_offset 4, -12
 1244              		.cfi_offset 5, -8
 1245              		.cfi_offset 14, -4
 1246              		.loc 1 882 0
 1247 0002 114B     		ldr	r3, .L132
 1248 0004 9842     		cmp	r0, r3
 1249              		.loc 1 880 0
 1250 0006 0446     		mov	r4, r0
 1251 0008 0D46     		mov	r5, r1
 1252              		.loc 1 882 0
 1253 000a 1AD0     		beq	.L129
 1254              		.loc 1 882 0 is_stmt 0 discriminator 2
ARM GAS  /var/folders/m4/4md61f0s1_g0rzfghffqnxvr0000gn/T//ccTIFpbg.s 			page 23


 1255 000c 03F58073 		add	r3, r3, #256
 1256 0010 9842     		cmp	r0, r3
 1257 0012 16D0     		beq	.L129
 1258              		.loc 1 882 0 discriminator 4
 1259 0014 0D48     		ldr	r0, .L132+4
 1260              	.LVL125:
 1261 0016 201A     		subs	r0, r4, r0
 1262 0018 B0FA80F0 		clz	r0, r0
 1263 001c 4009     		lsrs	r0, r0, #5
 1264              	.L125:
 1265              		.loc 1 882 0 discriminator 8
 1266 001e FFF7FEFF 		bl	assert_param
 1267              	.LVL126:
 1268              		.loc 1 883 0 is_stmt 1 discriminator 8
 1269 0022 012D     		cmp	r5, #1
 1270 0024 8CBF     		ite	hi
 1271 0026 0020     		movhi	r0, #0
 1272 0028 0120     		movls	r0, #1
 1273 002a FFF7FEFF 		bl	assert_param
 1274              	.LVL127:
 1275              		.loc 1 888 0 discriminator 8
 1276 002e A368     		ldr	r3, [r4, #8]
 1277              		.loc 1 885 0 discriminator 8
 1278 0030 1DB9     		cbnz	r5, .L131
 1279              		.loc 1 893 0
 1280 0032 23F48063 		bic	r3, r3, #1024
 1281 0036 A360     		str	r3, [r4, #8]
 1282 0038 38BD     		pop	{r3, r4, r5, pc}
 1283              	.LVL128:
 1284              	.L131:
 1285              		.loc 1 888 0
 1286 003a 43F48063 		orr	r3, r3, #1024
 1287 003e A360     		str	r3, [r4, #8]
 1288 0040 38BD     		pop	{r3, r4, r5, pc}
 1289              	.LVL129:
 1290              	.L129:
 1291              		.loc 1 882 0
 1292 0042 0120     		movs	r0, #1
 1293              	.LVL130:
 1294 0044 EBE7     		b	.L125
 1295              	.L133:
 1296 0046 00BF     		.align	2
 1297              	.L132:
 1298 0048 00200140 		.word	1073815552
 1299 004c 00220140 		.word	1073816064
 1300              		.cfi_endproc
 1301              	.LFE137:
 1302              		.size	ADC_EOCOnEachRegularChannelCmd, .-ADC_EOCOnEachRegularChannelCmd
 1303              		.section	.text.ADC_ContinuousModeCmd,"ax",%progbits
 1304              		.align	2
 1305              		.p2align 4,,15
 1306              		.global	ADC_ContinuousModeCmd
 1307              		.thumb
 1308              		.thumb_func
 1309              		.type	ADC_ContinuousModeCmd, %function
 1310              	ADC_ContinuousModeCmd:
 1311              	.LFB138:
ARM GAS  /var/folders/m4/4md61f0s1_g0rzfghffqnxvr0000gn/T//ccTIFpbg.s 			page 24


 1312              		.loc 1 905 0
 1313              		.cfi_startproc
 1314              		@ args = 0, pretend = 0, frame = 0
 1315              		@ frame_needed = 0, uses_anonymous_args = 0
 1316              	.LVL131:
 1317 0000 38B5     		push	{r3, r4, r5, lr}
 1318              		.cfi_def_cfa_offset 16
 1319              		.cfi_offset 3, -16
 1320              		.cfi_offset 4, -12
 1321              		.cfi_offset 5, -8
 1322              		.cfi_offset 14, -4
 1323              		.loc 1 907 0
 1324 0002 114B     		ldr	r3, .L142
 1325 0004 9842     		cmp	r0, r3
 1326              		.loc 1 905 0
 1327 0006 0446     		mov	r4, r0
 1328 0008 0D46     		mov	r5, r1
 1329              		.loc 1 907 0
 1330 000a 1AD0     		beq	.L139
 1331              		.loc 1 907 0 is_stmt 0 discriminator 2
 1332 000c 03F58073 		add	r3, r3, #256
 1333 0010 9842     		cmp	r0, r3
 1334 0012 16D0     		beq	.L139
 1335              		.loc 1 907 0 discriminator 4
 1336 0014 0D48     		ldr	r0, .L142+4
 1337              	.LVL132:
 1338 0016 201A     		subs	r0, r4, r0
 1339 0018 B0FA80F0 		clz	r0, r0
 1340 001c 4009     		lsrs	r0, r0, #5
 1341              	.L135:
 1342              		.loc 1 907 0 discriminator 8
 1343 001e FFF7FEFF 		bl	assert_param
 1344              	.LVL133:
 1345              		.loc 1 908 0 is_stmt 1 discriminator 8
 1346 0022 012D     		cmp	r5, #1
 1347 0024 8CBF     		ite	hi
 1348 0026 0020     		movhi	r0, #0
 1349 0028 0120     		movls	r0, #1
 1350 002a FFF7FEFF 		bl	assert_param
 1351              	.LVL134:
 1352              		.loc 1 913 0 discriminator 8
 1353 002e A368     		ldr	r3, [r4, #8]
 1354              		.loc 1 910 0 discriminator 8
 1355 0030 1DB9     		cbnz	r5, .L141
 1356              		.loc 1 918 0
 1357 0032 23F00203 		bic	r3, r3, #2
 1358 0036 A360     		str	r3, [r4, #8]
 1359 0038 38BD     		pop	{r3, r4, r5, pc}
 1360              	.LVL135:
 1361              	.L141:
 1362              		.loc 1 913 0
 1363 003a 43F00203 		orr	r3, r3, #2
 1364 003e A360     		str	r3, [r4, #8]
 1365 0040 38BD     		pop	{r3, r4, r5, pc}
 1366              	.LVL136:
 1367              	.L139:
 1368              		.loc 1 907 0
ARM GAS  /var/folders/m4/4md61f0s1_g0rzfghffqnxvr0000gn/T//ccTIFpbg.s 			page 25


 1369 0042 0120     		movs	r0, #1
 1370              	.LVL137:
 1371 0044 EBE7     		b	.L135
 1372              	.L143:
 1373 0046 00BF     		.align	2
 1374              	.L142:
 1375 0048 00200140 		.word	1073815552
 1376 004c 00220140 		.word	1073816064
 1377              		.cfi_endproc
 1378              	.LFE138:
 1379              		.size	ADC_ContinuousModeCmd, .-ADC_ContinuousModeCmd
 1380              		.section	.text.ADC_DiscModeChannelCountConfig,"ax",%progbits
 1381              		.align	2
 1382              		.p2align 4,,15
 1383              		.global	ADC_DiscModeChannelCountConfig
 1384              		.thumb
 1385              		.thumb_func
 1386              		.type	ADC_DiscModeChannelCountConfig, %function
 1387              	ADC_DiscModeChannelCountConfig:
 1388              	.LFB139:
 1389              		.loc 1 931 0
 1390              		.cfi_startproc
 1391              		@ args = 0, pretend = 0, frame = 0
 1392              		@ frame_needed = 0, uses_anonymous_args = 0
 1393              	.LVL138:
 1394 0000 38B5     		push	{r3, r4, r5, lr}
 1395              		.cfi_def_cfa_offset 16
 1396              		.cfi_offset 3, -16
 1397              		.cfi_offset 4, -12
 1398              		.cfi_offset 5, -8
 1399              		.cfi_offset 14, -4
 1400              		.loc 1 936 0
 1401 0002 104B     		ldr	r3, .L149
 1402 0004 9842     		cmp	r0, r3
 1403              		.loc 1 931 0
 1404 0006 0446     		mov	r4, r0
 1405              		.loc 1 936 0
 1406 0008 19D0     		beq	.L147
 1407              		.loc 1 936 0 is_stmt 0 discriminator 2
 1408 000a 03F58073 		add	r3, r3, #256
 1409 000e 9842     		cmp	r0, r3
 1410 0010 15D0     		beq	.L147
 1411              		.loc 1 936 0 discriminator 4
 1412 0012 0D48     		ldr	r0, .L149+4
 1413              	.LVL139:
 1414 0014 201A     		subs	r0, r4, r0
 1415 0016 B0FA80F0 		clz	r0, r0
 1416 001a 4009     		lsrs	r0, r0, #5
 1417              	.L145:
 1418              		.loc 1 937 0 is_stmt 1 discriminator 8
 1419 001c 4D1E     		subs	r5, r1, #1
 1420              		.loc 1 936 0 discriminator 8
 1421 001e FFF7FEFF 		bl	assert_param
 1422              	.LVL140:
 1423              		.loc 1 937 0 discriminator 8
 1424 0022 E8B2     		uxtb	r0, r5
 1425 0024 0728     		cmp	r0, #7
ARM GAS  /var/folders/m4/4md61f0s1_g0rzfghffqnxvr0000gn/T//ccTIFpbg.s 			page 26


 1426 0026 8CBF     		ite	hi
 1427 0028 0020     		movhi	r0, #0
 1428 002a 0120     		movls	r0, #1
 1429 002c FFF7FEFF 		bl	assert_param
 1430              	.LVL141:
 1431              		.loc 1 940 0 discriminator 8
 1432 0030 6168     		ldr	r1, [r4, #4]
 1433              	.LVL142:
 1434              		.loc 1 943 0 discriminator 8
 1435 0032 21F46041 		bic	r1, r1, #57344
 1436              	.LVL143:
 1437              		.loc 1 947 0 discriminator 8
 1438 0036 41EA4531 		orr	r1, r1, r5, lsl #13
 1439              	.LVL144:
 1440              		.loc 1 950 0 discriminator 8
 1441 003a 6160     		str	r1, [r4, #4]
 1442 003c 38BD     		pop	{r3, r4, r5, pc}
 1443              	.LVL145:
 1444              	.L147:
 1445              		.loc 1 936 0
 1446 003e 0120     		movs	r0, #1
 1447              	.LVL146:
 1448 0040 ECE7     		b	.L145
 1449              	.L150:
 1450 0042 00BF     		.align	2
 1451              	.L149:
 1452 0044 00200140 		.word	1073815552
 1453 0048 00220140 		.word	1073816064
 1454              		.cfi_endproc
 1455              	.LFE139:
 1456              		.size	ADC_DiscModeChannelCountConfig, .-ADC_DiscModeChannelCountConfig
 1457              		.section	.text.ADC_DiscModeCmd,"ax",%progbits
 1458              		.align	2
 1459              		.p2align 4,,15
 1460              		.global	ADC_DiscModeCmd
 1461              		.thumb
 1462              		.thumb_func
 1463              		.type	ADC_DiscModeCmd, %function
 1464              	ADC_DiscModeCmd:
 1465              	.LFB140:
 1466              		.loc 1 963 0
 1467              		.cfi_startproc
 1468              		@ args = 0, pretend = 0, frame = 0
 1469              		@ frame_needed = 0, uses_anonymous_args = 0
 1470              	.LVL147:
 1471 0000 38B5     		push	{r3, r4, r5, lr}
 1472              		.cfi_def_cfa_offset 16
 1473              		.cfi_offset 3, -16
 1474              		.cfi_offset 4, -12
 1475              		.cfi_offset 5, -8
 1476              		.cfi_offset 14, -4
 1477              		.loc 1 965 0
 1478 0002 114B     		ldr	r3, .L159
 1479 0004 9842     		cmp	r0, r3
 1480              		.loc 1 963 0
 1481 0006 0446     		mov	r4, r0
 1482 0008 0D46     		mov	r5, r1
ARM GAS  /var/folders/m4/4md61f0s1_g0rzfghffqnxvr0000gn/T//ccTIFpbg.s 			page 27


 1483              		.loc 1 965 0
 1484 000a 1AD0     		beq	.L156
 1485              		.loc 1 965 0 is_stmt 0 discriminator 2
 1486 000c 03F58073 		add	r3, r3, #256
 1487 0010 9842     		cmp	r0, r3
 1488 0012 16D0     		beq	.L156
 1489              		.loc 1 965 0 discriminator 4
 1490 0014 0D48     		ldr	r0, .L159+4
 1491              	.LVL148:
 1492 0016 201A     		subs	r0, r4, r0
 1493 0018 B0FA80F0 		clz	r0, r0
 1494 001c 4009     		lsrs	r0, r0, #5
 1495              	.L152:
 1496              		.loc 1 965 0 discriminator 8
 1497 001e FFF7FEFF 		bl	assert_param
 1498              	.LVL149:
 1499              		.loc 1 966 0 is_stmt 1 discriminator 8
 1500 0022 012D     		cmp	r5, #1
 1501 0024 8CBF     		ite	hi
 1502 0026 0020     		movhi	r0, #0
 1503 0028 0120     		movls	r0, #1
 1504 002a FFF7FEFF 		bl	assert_param
 1505              	.LVL150:
 1506              		.loc 1 971 0 discriminator 8
 1507 002e 6368     		ldr	r3, [r4, #4]
 1508              		.loc 1 968 0 discriminator 8
 1509 0030 1DB9     		cbnz	r5, .L158
 1510              		.loc 1 976 0
 1511 0032 23F40063 		bic	r3, r3, #2048
 1512 0036 6360     		str	r3, [r4, #4]
 1513 0038 38BD     		pop	{r3, r4, r5, pc}
 1514              	.LVL151:
 1515              	.L158:
 1516              		.loc 1 971 0
 1517 003a 43F40063 		orr	r3, r3, #2048
 1518 003e 6360     		str	r3, [r4, #4]
 1519 0040 38BD     		pop	{r3, r4, r5, pc}
 1520              	.LVL152:
 1521              	.L156:
 1522              		.loc 1 965 0
 1523 0042 0120     		movs	r0, #1
 1524              	.LVL153:
 1525 0044 EBE7     		b	.L152
 1526              	.L160:
 1527 0046 00BF     		.align	2
 1528              	.L159:
 1529 0048 00200140 		.word	1073815552
 1530 004c 00220140 		.word	1073816064
 1531              		.cfi_endproc
 1532              	.LFE140:
 1533              		.size	ADC_DiscModeCmd, .-ADC_DiscModeCmd
 1534              		.section	.text.ADC_GetConversionValue,"ax",%progbits
 1535              		.align	2
 1536              		.p2align 4,,15
 1537              		.global	ADC_GetConversionValue
 1538              		.thumb
 1539              		.thumb_func
ARM GAS  /var/folders/m4/4md61f0s1_g0rzfghffqnxvr0000gn/T//ccTIFpbg.s 			page 28


 1540              		.type	ADC_GetConversionValue, %function
 1541              	ADC_GetConversionValue:
 1542              	.LFB141:
 1543              		.loc 1 986 0
 1544              		.cfi_startproc
 1545              		@ args = 0, pretend = 0, frame = 0
 1546              		@ frame_needed = 0, uses_anonymous_args = 0
 1547              	.LVL154:
 1548              		.loc 1 988 0
 1549 0000 0C4B     		ldr	r3, .L166
 1550 0002 9842     		cmp	r0, r3
 1551              		.loc 1 986 0
 1552 0004 10B5     		push	{r4, lr}
 1553              		.cfi_def_cfa_offset 8
 1554              		.cfi_offset 4, -8
 1555              		.cfi_offset 14, -4
 1556              		.loc 1 986 0
 1557 0006 0446     		mov	r4, r0
 1558              		.loc 1 988 0
 1559 0008 0DD0     		beq	.L164
 1560              		.loc 1 988 0 is_stmt 0 discriminator 2
 1561 000a 03F58073 		add	r3, r3, #256
 1562 000e 9842     		cmp	r0, r3
 1563 0010 09D0     		beq	.L164
 1564              		.loc 1 988 0 discriminator 4
 1565 0012 0948     		ldr	r0, .L166+4
 1566              	.LVL155:
 1567 0014 201A     		subs	r0, r4, r0
 1568 0016 B0FA80F0 		clz	r0, r0
 1569 001a 4009     		lsrs	r0, r0, #5
 1570 001c FFF7FEFF 		bl	assert_param
 1571              	.LVL156:
 1572              		.loc 1 991 0 is_stmt 1 discriminator 4
 1573 0020 E06C     		ldr	r0, [r4, #76]
 1574              		.loc 1 992 0 discriminator 4
 1575 0022 80B2     		uxth	r0, r0
 1576 0024 10BD     		pop	{r4, pc}
 1577              	.LVL157:
 1578              	.L164:
 1579              		.loc 1 988 0
 1580 0026 0120     		movs	r0, #1
 1581              	.LVL158:
 1582 0028 FFF7FEFF 		bl	assert_param
 1583              	.LVL159:
 1584              		.loc 1 991 0
 1585 002c E06C     		ldr	r0, [r4, #76]
 1586              		.loc 1 992 0
 1587 002e 80B2     		uxth	r0, r0
 1588 0030 10BD     		pop	{r4, pc}
 1589              	.LVL160:
 1590              	.L167:
 1591 0032 00BF     		.align	2
 1592              	.L166:
 1593 0034 00200140 		.word	1073815552
 1594 0038 00220140 		.word	1073816064
 1595              		.cfi_endproc
 1596              	.LFE141:
ARM GAS  /var/folders/m4/4md61f0s1_g0rzfghffqnxvr0000gn/T//ccTIFpbg.s 			page 29


 1597              		.size	ADC_GetConversionValue, .-ADC_GetConversionValue
 1598              		.section	.text.ADC_GetMultiModeConversionValue,"ax",%progbits
 1599              		.align	2
 1600              		.p2align 4,,15
 1601              		.global	ADC_GetMultiModeConversionValue
 1602              		.thumb
 1603              		.thumb_func
 1604              		.type	ADC_GetMultiModeConversionValue, %function
 1605              	ADC_GetMultiModeConversionValue:
 1606              	.LFB142:
 1607              		.loc 1 1007 0
 1608              		.cfi_startproc
 1609              		@ args = 0, pretend = 0, frame = 0
 1610              		@ frame_needed = 0, uses_anonymous_args = 0
 1611              		@ link register save eliminated.
 1612              		.loc 1 1009 0
 1613 0000 014B     		ldr	r3, .L169
 1614 0002 1868     		ldr	r0, [r3]
 1615              		.loc 1 1010 0
 1616 0004 7047     		bx	lr
 1617              	.L170:
 1618 0006 00BF     		.align	2
 1619              	.L169:
 1620 0008 08230140 		.word	1073816328
 1621              		.cfi_endproc
 1622              	.LFE142:
 1623              		.size	ADC_GetMultiModeConversionValue, .-ADC_GetMultiModeConversionValue
 1624              		.section	.text.ADC_DMACmd,"ax",%progbits
 1625              		.align	2
 1626              		.p2align 4,,15
 1627              		.global	ADC_DMACmd
 1628              		.thumb
 1629              		.thumb_func
 1630              		.type	ADC_DMACmd, %function
 1631              	ADC_DMACmd:
 1632              	.LFB143:
 1633              		.loc 1 1053 0
 1634              		.cfi_startproc
 1635              		@ args = 0, pretend = 0, frame = 0
 1636              		@ frame_needed = 0, uses_anonymous_args = 0
 1637              	.LVL161:
 1638 0000 38B5     		push	{r3, r4, r5, lr}
 1639              		.cfi_def_cfa_offset 16
 1640              		.cfi_offset 3, -16
 1641              		.cfi_offset 4, -12
 1642              		.cfi_offset 5, -8
 1643              		.cfi_offset 14, -4
 1644              		.loc 1 1055 0
 1645 0002 114B     		ldr	r3, .L179
 1646 0004 9842     		cmp	r0, r3
 1647              		.loc 1 1053 0
 1648 0006 0446     		mov	r4, r0
 1649 0008 0D46     		mov	r5, r1
 1650              		.loc 1 1055 0
 1651 000a 1AD0     		beq	.L176
 1652              		.loc 1 1055 0 is_stmt 0 discriminator 2
 1653 000c 03F58073 		add	r3, r3, #256
ARM GAS  /var/folders/m4/4md61f0s1_g0rzfghffqnxvr0000gn/T//ccTIFpbg.s 			page 30


 1654 0010 9842     		cmp	r0, r3
 1655 0012 16D0     		beq	.L176
 1656              		.loc 1 1055 0 discriminator 4
 1657 0014 0D48     		ldr	r0, .L179+4
 1658              	.LVL162:
 1659 0016 201A     		subs	r0, r4, r0
 1660 0018 B0FA80F0 		clz	r0, r0
 1661 001c 4009     		lsrs	r0, r0, #5
 1662              	.L172:
 1663              		.loc 1 1055 0 discriminator 8
 1664 001e FFF7FEFF 		bl	assert_param
 1665              	.LVL163:
 1666              		.loc 1 1056 0 is_stmt 1 discriminator 8
 1667 0022 012D     		cmp	r5, #1
 1668 0024 8CBF     		ite	hi
 1669 0026 0020     		movhi	r0, #0
 1670 0028 0120     		movls	r0, #1
 1671 002a FFF7FEFF 		bl	assert_param
 1672              	.LVL164:
 1673              		.loc 1 1060 0 discriminator 8
 1674 002e A368     		ldr	r3, [r4, #8]
 1675              		.loc 1 1057 0 discriminator 8
 1676 0030 1DB9     		cbnz	r5, .L178
 1677              		.loc 1 1065 0
 1678 0032 23F48073 		bic	r3, r3, #256
 1679 0036 A360     		str	r3, [r4, #8]
 1680 0038 38BD     		pop	{r3, r4, r5, pc}
 1681              	.LVL165:
 1682              	.L178:
 1683              		.loc 1 1060 0
 1684 003a 43F48073 		orr	r3, r3, #256
 1685 003e A360     		str	r3, [r4, #8]
 1686 0040 38BD     		pop	{r3, r4, r5, pc}
 1687              	.LVL166:
 1688              	.L176:
 1689              		.loc 1 1055 0
 1690 0042 0120     		movs	r0, #1
 1691              	.LVL167:
 1692 0044 EBE7     		b	.L172
 1693              	.L180:
 1694 0046 00BF     		.align	2
 1695              	.L179:
 1696 0048 00200140 		.word	1073815552
 1697 004c 00220140 		.word	1073816064
 1698              		.cfi_endproc
 1699              	.LFE143:
 1700              		.size	ADC_DMACmd, .-ADC_DMACmd
 1701              		.section	.text.ADC_DMARequestAfterLastTransferCmd,"ax",%progbits
 1702              		.align	2
 1703              		.p2align 4,,15
 1704              		.global	ADC_DMARequestAfterLastTransferCmd
 1705              		.thumb
 1706              		.thumb_func
 1707              		.type	ADC_DMARequestAfterLastTransferCmd, %function
 1708              	ADC_DMARequestAfterLastTransferCmd:
 1709              	.LFB144:
 1710              		.loc 1 1077 0
ARM GAS  /var/folders/m4/4md61f0s1_g0rzfghffqnxvr0000gn/T//ccTIFpbg.s 			page 31


 1711              		.cfi_startproc
 1712              		@ args = 0, pretend = 0, frame = 0
 1713              		@ frame_needed = 0, uses_anonymous_args = 0
 1714              	.LVL168:
 1715 0000 38B5     		push	{r3, r4, r5, lr}
 1716              		.cfi_def_cfa_offset 16
 1717              		.cfi_offset 3, -16
 1718              		.cfi_offset 4, -12
 1719              		.cfi_offset 5, -8
 1720              		.cfi_offset 14, -4
 1721              		.loc 1 1079 0
 1722 0002 114B     		ldr	r3, .L189
 1723 0004 9842     		cmp	r0, r3
 1724              		.loc 1 1077 0
 1725 0006 0446     		mov	r4, r0
 1726 0008 0D46     		mov	r5, r1
 1727              		.loc 1 1079 0
 1728 000a 1AD0     		beq	.L186
 1729              		.loc 1 1079 0 is_stmt 0 discriminator 2
 1730 000c 03F58073 		add	r3, r3, #256
 1731 0010 9842     		cmp	r0, r3
 1732 0012 16D0     		beq	.L186
 1733              		.loc 1 1079 0 discriminator 4
 1734 0014 0D48     		ldr	r0, .L189+4
 1735              	.LVL169:
 1736 0016 201A     		subs	r0, r4, r0
 1737 0018 B0FA80F0 		clz	r0, r0
 1738 001c 4009     		lsrs	r0, r0, #5
 1739              	.L182:
 1740              		.loc 1 1079 0 discriminator 8
 1741 001e FFF7FEFF 		bl	assert_param
 1742              	.LVL170:
 1743              		.loc 1 1080 0 is_stmt 1 discriminator 8
 1744 0022 012D     		cmp	r5, #1
 1745 0024 8CBF     		ite	hi
 1746 0026 0020     		movhi	r0, #0
 1747 0028 0120     		movls	r0, #1
 1748 002a FFF7FEFF 		bl	assert_param
 1749              	.LVL171:
 1750              		.loc 1 1084 0 discriminator 8
 1751 002e A368     		ldr	r3, [r4, #8]
 1752              		.loc 1 1081 0 discriminator 8
 1753 0030 1DB9     		cbnz	r5, .L188
 1754              		.loc 1 1089 0
 1755 0032 23F40073 		bic	r3, r3, #512
 1756 0036 A360     		str	r3, [r4, #8]
 1757 0038 38BD     		pop	{r3, r4, r5, pc}
 1758              	.LVL172:
 1759              	.L188:
 1760              		.loc 1 1084 0
 1761 003a 43F40073 		orr	r3, r3, #512
 1762 003e A360     		str	r3, [r4, #8]
 1763 0040 38BD     		pop	{r3, r4, r5, pc}
 1764              	.LVL173:
 1765              	.L186:
 1766              		.loc 1 1079 0
 1767 0042 0120     		movs	r0, #1
ARM GAS  /var/folders/m4/4md61f0s1_g0rzfghffqnxvr0000gn/T//ccTIFpbg.s 			page 32


 1768              	.LVL174:
 1769 0044 EBE7     		b	.L182
 1770              	.L190:
 1771 0046 00BF     		.align	2
 1772              	.L189:
 1773 0048 00200140 		.word	1073815552
 1774 004c 00220140 		.word	1073816064
 1775              		.cfi_endproc
 1776              	.LFE144:
 1777              		.size	ADC_DMARequestAfterLastTransferCmd, .-ADC_DMARequestAfterLastTransferCmd
 1778              		.section	.text.ADC_MultiModeDMARequestAfterLastTransferCmd,"ax",%progbits
 1779              		.align	2
 1780              		.p2align 4,,15
 1781              		.global	ADC_MultiModeDMARequestAfterLastTransferCmd
 1782              		.thumb
 1783              		.thumb_func
 1784              		.type	ADC_MultiModeDMARequestAfterLastTransferCmd, %function
 1785              	ADC_MultiModeDMARequestAfterLastTransferCmd:
 1786              	.LFB145:
 1787              		.loc 1 1104 0
 1788              		.cfi_startproc
 1789              		@ args = 0, pretend = 0, frame = 0
 1790              		@ frame_needed = 0, uses_anonymous_args = 0
 1791              	.LVL175:
 1792              		.loc 1 1106 0
 1793 0000 0128     		cmp	r0, #1
 1794              		.loc 1 1104 0
 1795 0002 10B5     		push	{r4, lr}
 1796              		.cfi_def_cfa_offset 8
 1797              		.cfi_offset 4, -8
 1798              		.cfi_offset 14, -4
 1799              		.loc 1 1104 0
 1800 0004 0446     		mov	r4, r0
 1801              		.loc 1 1106 0
 1802 0006 8CBF     		ite	hi
 1803 0008 0020     		movhi	r0, #0
 1804              	.LVL176:
 1805 000a 0120     		movls	r0, #1
 1806 000c FFF7FEFF 		bl	assert_param
 1807              	.LVL177:
 1808              		.loc 1 1110 0
 1809 0010 054A     		ldr	r2, .L196
 1810 0012 5368     		ldr	r3, [r2, #4]
 1811              		.loc 1 1107 0
 1812 0014 1CB9     		cbnz	r4, .L195
 1813              		.loc 1 1115 0
 1814 0016 23F40053 		bic	r3, r3, #8192
 1815 001a 5360     		str	r3, [r2, #4]
 1816 001c 10BD     		pop	{r4, pc}
 1817              	.L195:
 1818              		.loc 1 1110 0
 1819 001e 43F40053 		orr	r3, r3, #8192
 1820 0022 5360     		str	r3, [r2, #4]
 1821 0024 10BD     		pop	{r4, pc}
 1822              	.L197:
 1823 0026 00BF     		.align	2
 1824              	.L196:
ARM GAS  /var/folders/m4/4md61f0s1_g0rzfghffqnxvr0000gn/T//ccTIFpbg.s 			page 33


 1825 0028 00230140 		.word	1073816320
 1826              		.cfi_endproc
 1827              	.LFE145:
 1828              		.size	ADC_MultiModeDMARequestAfterLastTransferCmd, .-ADC_MultiModeDMARequestAfterLastTransferCmd
 1829              		.section	.text.ADC_InjectedChannelConfig,"ax",%progbits
 1830              		.align	2
 1831              		.p2align 4,,15
 1832              		.global	ADC_InjectedChannelConfig
 1833              		.thumb
 1834              		.thumb_func
 1835              		.type	ADC_InjectedChannelConfig, %function
 1836              	ADC_InjectedChannelConfig:
 1837              	.LFB146:
 1838              		.loc 1 1191 0
 1839              		.cfi_startproc
 1840              		@ args = 0, pretend = 0, frame = 0
 1841              		@ frame_needed = 0, uses_anonymous_args = 0
 1842              	.LVL178:
 1843 0000 F8B5     		push	{r3, r4, r5, r6, r7, lr}
 1844              		.cfi_def_cfa_offset 24
 1845              		.cfi_offset 3, -24
 1846              		.cfi_offset 4, -20
 1847              		.cfi_offset 5, -16
 1848              		.cfi_offset 6, -12
 1849              		.cfi_offset 7, -8
 1850              		.cfi_offset 14, -4
 1851              		.loc 1 1194 0
 1852 0002 DFF8A8E0 		ldr	lr, .L206+8
 1853 0006 7045     		cmp	r0, lr
 1854              		.loc 1 1191 0
 1855 0008 0646     		mov	r6, r0
 1856 000a 0D46     		mov	r5, r1
 1857 000c 1446     		mov	r4, r2
 1858 000e 1F46     		mov	r7, r3
 1859              		.loc 1 1194 0
 1860 0010 45D0     		beq	.L203
 1861              		.loc 1 1194 0 is_stmt 0 discriminator 2
 1862 0012 244B     		ldr	r3, .L206
 1863              	.LVL179:
 1864 0014 9842     		cmp	r0, r3
 1865 0016 42D0     		beq	.L203
 1866              		.loc 1 1194 0 discriminator 4
 1867 0018 2348     		ldr	r0, .L206+4
 1868              	.LVL180:
 1869 001a 301A     		subs	r0, r6, r0
 1870 001c B0FA80F0 		clz	r0, r0
 1871 0020 4009     		lsrs	r0, r0, #5
 1872              	.L199:
 1873              		.loc 1 1194 0 discriminator 8
 1874 0022 FFF7FEFF 		bl	assert_param
 1875              	.LVL181:
 1876              		.loc 1 1195 0 is_stmt 1 discriminator 8
 1877 0026 122D     		cmp	r5, #18
 1878 0028 8CBF     		ite	hi
 1879 002a 0020     		movhi	r0, #0
 1880 002c 0120     		movls	r0, #1
 1881 002e FFF7FEFF 		bl	assert_param
ARM GAS  /var/folders/m4/4md61f0s1_g0rzfghffqnxvr0000gn/T//ccTIFpbg.s 			page 34


 1882              	.LVL182:
 1883              		.loc 1 1196 0 discriminator 8
 1884 0032 601E     		subs	r0, r4, #1
 1885 0034 0328     		cmp	r0, #3
 1886 0036 8CBF     		ite	hi
 1887 0038 0020     		movhi	r0, #0
 1888 003a 0120     		movls	r0, #1
 1889 003c FFF7FEFF 		bl	assert_param
 1890              	.LVL183:
 1891              		.loc 1 1197 0 discriminator 8
 1892 0040 072F     		cmp	r7, #7
 1893 0042 8CBF     		ite	hi
 1894 0044 0020     		movhi	r0, #0
 1895 0046 0120     		movls	r0, #1
 1896 0048 FFF7FEFF 		bl	assert_param
 1897              	.LVL184:
 1898              		.loc 1 1199 0 discriminator 8
 1899 004c 092D     		cmp	r5, #9
 1900 004e 19D8     		bhi	.L205
 1901              		.loc 1 1219 0
 1902 0050 05EB4501 		add	r1, r5, r5, lsl #1
 1903              		.loc 1 1217 0
 1904 0054 3269     		ldr	r2, [r6, #16]
 1905              	.LVL185:
 1906              		.loc 1 1219 0
 1907 0056 0723     		movs	r3, #7
 1908 0058 8B40     		lsls	r3, r3, r1
 1909              	.LVL186:
 1910              		.loc 1 1223 0
 1911 005a 8F40     		lsls	r7, r7, r1
 1912              		.loc 1 1221 0
 1913 005c 22EA0303 		bic	r3, r2, r3
 1914              	.LVL187:
 1915              		.loc 1 1225 0
 1916 0060 1F43     		orrs	r7, r7, r3
 1917              	.LVL188:
 1918              		.loc 1 1227 0
 1919 0062 3761     		str	r7, [r6, #16]
 1920              	.L201:
 1921              		.loc 1 1231 0
 1922 0064 B36B     		ldr	r3, [r6, #56]
 1923              	.LVL189:
 1924 0066 0234     		adds	r4, r4, #2
 1925              		.loc 1 1233 0
 1926 0068 C3F30152 		ubfx	r2, r3, #20, #2
 1927              		.loc 1 1235 0
 1928 006c A41A     		subs	r4, r4, r2
 1929 006e E4B2     		uxtb	r4, r4
 1930 0070 04EB8404 		add	r4, r4, r4, lsl #2
 1931              	.LVL190:
 1932 0074 1F21     		movs	r1, #31
 1933 0076 A140     		lsls	r1, r1, r4
 1934              	.LVL191:
 1935              		.loc 1 1239 0
 1936 0078 A540     		lsls	r5, r5, r4
 1937              		.loc 1 1237 0
 1938 007a 23EA0103 		bic	r3, r3, r1
ARM GAS  /var/folders/m4/4md61f0s1_g0rzfghffqnxvr0000gn/T//ccTIFpbg.s 			page 35


 1939              	.LVL192:
 1940              		.loc 1 1241 0
 1941 007e 1D43     		orrs	r5, r5, r3
 1942              	.LVL193:
 1943              		.loc 1 1243 0
 1944 0080 B563     		str	r5, [r6, #56]
 1945 0082 F8BD     		pop	{r3, r4, r5, r6, r7, pc}
 1946              	.LVL194:
 1947              	.L205:
 1948              		.loc 1 1204 0
 1949 0084 A5F10A03 		sub	r3, r5, #10
 1950 0088 03EB4303 		add	r3, r3, r3, lsl #1
 1951              		.loc 1 1202 0
 1952 008c F268     		ldr	r2, [r6, #12]
 1953              	.LVL195:
 1954              		.loc 1 1204 0
 1955 008e 0721     		movs	r1, #7
 1956 0090 9940     		lsls	r1, r1, r3
 1957              	.LVL196:
 1958              		.loc 1 1208 0
 1959 0092 9F40     		lsls	r7, r7, r3
 1960              		.loc 1 1206 0
 1961 0094 22EA0103 		bic	r3, r2, r1
 1962              	.LVL197:
 1963              		.loc 1 1210 0
 1964 0098 1F43     		orrs	r7, r7, r3
 1965              	.LVL198:
 1966              		.loc 1 1212 0
 1967 009a F760     		str	r7, [r6, #12]
 1968 009c E2E7     		b	.L201
 1969              	.LVL199:
 1970              	.L203:
 1971              		.loc 1 1194 0
 1972 009e 0120     		movs	r0, #1
 1973              	.LVL200:
 1974 00a0 BFE7     		b	.L199
 1975              	.L207:
 1976 00a2 00BF     		.align	2
 1977              	.L206:
 1978 00a4 00210140 		.word	1073815808
 1979 00a8 00220140 		.word	1073816064
 1980 00ac 00200140 		.word	1073815552
 1981              		.cfi_endproc
 1982              	.LFE146:
 1983              		.size	ADC_InjectedChannelConfig, .-ADC_InjectedChannelConfig
 1984              		.section	.text.ADC_InjectedSequencerLengthConfig,"ax",%progbits
 1985              		.align	2
 1986              		.p2align 4,,15
 1987              		.global	ADC_InjectedSequencerLengthConfig
 1988              		.thumb
 1989              		.thumb_func
 1990              		.type	ADC_InjectedSequencerLengthConfig, %function
 1991              	ADC_InjectedSequencerLengthConfig:
 1992              	.LFB147:
 1993              		.loc 1 1254 0
 1994              		.cfi_startproc
 1995              		@ args = 0, pretend = 0, frame = 0
ARM GAS  /var/folders/m4/4md61f0s1_g0rzfghffqnxvr0000gn/T//ccTIFpbg.s 			page 36


 1996              		@ frame_needed = 0, uses_anonymous_args = 0
 1997              	.LVL201:
 1998 0000 38B5     		push	{r3, r4, r5, lr}
 1999              		.cfi_def_cfa_offset 16
 2000              		.cfi_offset 3, -16
 2001              		.cfi_offset 4, -12
 2002              		.cfi_offset 5, -8
 2003              		.cfi_offset 14, -4
 2004              		.loc 1 1258 0
 2005 0002 104B     		ldr	r3, .L213
 2006 0004 9842     		cmp	r0, r3
 2007              		.loc 1 1254 0
 2008 0006 0446     		mov	r4, r0
 2009              		.loc 1 1258 0
 2010 0008 19D0     		beq	.L211
 2011              		.loc 1 1258 0 is_stmt 0 discriminator 2
 2012 000a 03F58073 		add	r3, r3, #256
 2013 000e 9842     		cmp	r0, r3
 2014 0010 15D0     		beq	.L211
 2015              		.loc 1 1258 0 discriminator 4
 2016 0012 0D48     		ldr	r0, .L213+4
 2017              	.LVL202:
 2018 0014 201A     		subs	r0, r4, r0
 2019 0016 B0FA80F0 		clz	r0, r0
 2020 001a 4009     		lsrs	r0, r0, #5
 2021              	.L209:
 2022              		.loc 1 1259 0 is_stmt 1 discriminator 8
 2023 001c 4D1E     		subs	r5, r1, #1
 2024              		.loc 1 1258 0 discriminator 8
 2025 001e FFF7FEFF 		bl	assert_param
 2026              	.LVL203:
 2027              		.loc 1 1259 0 discriminator 8
 2028 0022 E8B2     		uxtb	r0, r5
 2029 0024 0328     		cmp	r0, #3
 2030 0026 8CBF     		ite	hi
 2031 0028 0020     		movhi	r0, #0
 2032 002a 0120     		movls	r0, #1
 2033 002c FFF7FEFF 		bl	assert_param
 2034              	.LVL204:
 2035              		.loc 1 1262 0 discriminator 8
 2036 0030 A16B     		ldr	r1, [r4, #56]
 2037              	.LVL205:
 2038              		.loc 1 1265 0 discriminator 8
 2039 0032 21F44011 		bic	r1, r1, #3145728
 2040              	.LVL206:
 2041              		.loc 1 1269 0 discriminator 8
 2042 0036 41EA0551 		orr	r1, r1, r5, lsl #20
 2043              	.LVL207:
 2044              		.loc 1 1272 0 discriminator 8
 2045 003a A163     		str	r1, [r4, #56]
 2046 003c 38BD     		pop	{r3, r4, r5, pc}
 2047              	.LVL208:
 2048              	.L211:
 2049              		.loc 1 1258 0
 2050 003e 0120     		movs	r0, #1
 2051              	.LVL209:
 2052 0040 ECE7     		b	.L209
ARM GAS  /var/folders/m4/4md61f0s1_g0rzfghffqnxvr0000gn/T//ccTIFpbg.s 			page 37


 2053              	.L214:
 2054 0042 00BF     		.align	2
 2055              	.L213:
 2056 0044 00200140 		.word	1073815552
 2057 0048 00220140 		.word	1073816064
 2058              		.cfi_endproc
 2059              	.LFE147:
 2060              		.size	ADC_InjectedSequencerLengthConfig, .-ADC_InjectedSequencerLengthConfig
 2061              		.section	.text.ADC_SetInjectedOffset,"ax",%progbits
 2062              		.align	2
 2063              		.p2align 4,,15
 2064              		.global	ADC_SetInjectedOffset
 2065              		.thumb
 2066              		.thumb_func
 2067              		.type	ADC_SetInjectedOffset, %function
 2068              	ADC_SetInjectedOffset:
 2069              	.LFB148:
 2070              		.loc 1 1289 0
 2071              		.cfi_startproc
 2072              		@ args = 0, pretend = 0, frame = 8
 2073              		@ frame_needed = 0, uses_anonymous_args = 0
 2074              	.LVL210:
 2075 0000 70B5     		push	{r4, r5, r6, lr}
 2076              		.cfi_def_cfa_offset 16
 2077              		.cfi_offset 4, -16
 2078              		.cfi_offset 5, -12
 2079              		.cfi_offset 6, -8
 2080              		.cfi_offset 14, -4
 2081              		.loc 1 1292 0
 2082 0002 1A4B     		ldr	r3, .L223
 2083              		.loc 1 1289 0
 2084 0004 0446     		mov	r4, r0
 2085 0006 82B0     		sub	sp, sp, #8
 2086              		.cfi_def_cfa_offset 24
 2087              		.loc 1 1290 0
 2088 0008 0020     		movs	r0, #0
 2089              	.LVL211:
 2090              		.loc 1 1292 0
 2091 000a 9C42     		cmp	r4, r3
 2092              		.loc 1 1289 0
 2093 000c 0D46     		mov	r5, r1
 2094 000e 1646     		mov	r6, r2
 2095              		.loc 1 1290 0
 2096 0010 0190     		str	r0, [sp, #4]
 2097              		.loc 1 1292 0
 2098 0012 28D0     		beq	.L219
 2099              		.loc 1 1292 0 is_stmt 0 discriminator 2
 2100 0014 03F58073 		add	r3, r3, #256
 2101 0018 9C42     		cmp	r4, r3
 2102 001a 24D0     		beq	.L219
 2103              		.loc 1 1292 0 discriminator 4
 2104 001c 1448     		ldr	r0, .L223+4
 2105 001e 201A     		subs	r0, r4, r0
 2106 0020 B0FA80F0 		clz	r0, r0
 2107 0024 4009     		lsrs	r0, r0, #5
 2108              	.L216:
 2109              		.loc 1 1292 0 discriminator 8
ARM GAS  /var/folders/m4/4md61f0s1_g0rzfghffqnxvr0000gn/T//ccTIFpbg.s 			page 38


 2110 0026 FFF7FEFF 		bl	assert_param
 2111              	.LVL212:
 2112              		.loc 1 1293 0 is_stmt 1 discriminator 8
 2113 002a 05F0F703 		and	r3, r5, #247
 2114 002e 142B     		cmp	r3, #20
 2115 0030 17D0     		beq	.L221
 2116              		.loc 1 1293 0 is_stmt 0 discriminator 2
 2117 0032 182D     		cmp	r5, #24
 2118 0034 15D0     		beq	.L221
 2119              		.loc 1 1293 0 discriminator 6
 2120 0036 A5F12000 		sub	r0, r5, #32
 2121 003a B0FA80F0 		clz	r0, r0
 2122 003e 4009     		lsrs	r0, r0, #5
 2123              	.L217:
 2124              		.loc 1 1293 0 discriminator 10
 2125 0040 FFF7FEFF 		bl	assert_param
 2126              	.LVL213:
 2127              		.loc 1 1294 0 is_stmt 1 discriminator 10
 2128 0044 B6F5805F 		cmp	r6, #4096
 2129 0048 2CBF     		ite	cs
 2130 004a 0020     		movcs	r0, #0
 2131 004c 0120     		movcc	r0, #1
 2132 004e FFF7FEFF 		bl	assert_param
 2133              	.LVL214:
 2134              		.loc 1 1296 0 discriminator 10
 2135 0052 0194     		str	r4, [sp, #4]
 2136              		.loc 1 1297 0 discriminator 10
 2137 0054 0199     		ldr	r1, [sp, #4]
 2138 0056 0D44     		add	r5, r5, r1
 2139 0058 0195     		str	r5, [sp, #4]
 2140              		.loc 1 1300 0 discriminator 10
 2141 005a 019B     		ldr	r3, [sp, #4]
 2142 005c 1E60     		str	r6, [r3]
 2143              		.loc 1 1301 0 discriminator 10
 2144 005e 02B0     		add	sp, sp, #8
 2145              		.cfi_remember_state
 2146              		.cfi_def_cfa_offset 16
 2147              		@ sp needed
 2148 0060 70BD     		pop	{r4, r5, r6, pc}
 2149              	.LVL215:
 2150              	.L221:
 2151              		.cfi_restore_state
 2152              		.loc 1 1293 0
 2153 0062 0120     		movs	r0, #1
 2154 0064 ECE7     		b	.L217
 2155              	.LVL216:
 2156              	.L219:
 2157              		.loc 1 1292 0
 2158 0066 0120     		movs	r0, #1
 2159 0068 DDE7     		b	.L216
 2160              	.L224:
 2161 006a 00BF     		.align	2
 2162              	.L223:
 2163 006c 00200140 		.word	1073815552
 2164 0070 00220140 		.word	1073816064
 2165              		.cfi_endproc
 2166              	.LFE148:
ARM GAS  /var/folders/m4/4md61f0s1_g0rzfghffqnxvr0000gn/T//ccTIFpbg.s 			page 39


 2167              		.size	ADC_SetInjectedOffset, .-ADC_SetInjectedOffset
 2168              		.section	.text.ADC_ExternalTrigInjectedConvConfig,"ax",%progbits
 2169              		.align	2
 2170              		.p2align 4,,15
 2171              		.global	ADC_ExternalTrigInjectedConvConfig
 2172              		.thumb
 2173              		.thumb_func
 2174              		.type	ADC_ExternalTrigInjectedConvConfig, %function
 2175              	ADC_ExternalTrigInjectedConvConfig:
 2176              	.LFB149:
 2177              		.loc 1 1327 0
 2178              		.cfi_startproc
 2179              		@ args = 0, pretend = 0, frame = 0
 2180              		@ frame_needed = 0, uses_anonymous_args = 0
 2181              	.LVL217:
 2182 0000 38B5     		push	{r3, r4, r5, lr}
 2183              		.cfi_def_cfa_offset 16
 2184              		.cfi_offset 3, -16
 2185              		.cfi_offset 4, -12
 2186              		.cfi_offset 5, -8
 2187              		.cfi_offset 14, -4
 2188              		.loc 1 1330 0
 2189 0002 184B     		ldr	r3, .L238
 2190 0004 9842     		cmp	r0, r3
 2191              		.loc 1 1327 0
 2192 0006 0446     		mov	r4, r0
 2193 0008 0D46     		mov	r5, r1
 2194              		.loc 1 1330 0
 2195 000a 28D0     		beq	.L230
 2196              		.loc 1 1330 0 is_stmt 0 discriminator 2
 2197 000c 03F58073 		add	r3, r3, #256
 2198 0010 9842     		cmp	r0, r3
 2199 0012 24D0     		beq	.L230
 2200              		.loc 1 1330 0 discriminator 4
 2201 0014 1448     		ldr	r0, .L238+4
 2202              	.LVL218:
 2203 0016 201A     		subs	r0, r4, r0
 2204 0018 B0FA80F0 		clz	r0, r0
 2205 001c 4009     		lsrs	r0, r0, #5
 2206              	.L226:
 2207              		.loc 1 1330 0
 2208 001e FFF7FEFF 		bl	assert_param
 2209              	.LVL219:
 2210              		.loc 1 1331 0 is_stmt 1
 2211 0022 35F44033 		bics	r3, r5, #196608
 2212 0026 25F48030 		bic	r0, r5, #65536
 2213 002a 0ED0     		beq	.L234
 2214              		.loc 1 1331 0 is_stmt 0 discriminator 8
 2215 002c B3F5802F 		cmp	r3, #262144
 2216 0030 0BD0     		beq	.L234
 2217              		.loc 1 1331 0 discriminator 16
 2218 0032 B3F5002F 		cmp	r3, #524288
 2219 0036 08D0     		beq	.L234
 2220              		.loc 1 1331 0 discriminator 24
 2221 0038 B0F5402F 		cmp	r0, #786432
 2222 003c 05D0     		beq	.L234
 2223              		.loc 1 1331 0 discriminator 28
ARM GAS  /var/folders/m4/4md61f0s1_g0rzfghffqnxvr0000gn/T//ccTIFpbg.s 			page 40


 2224 003e A0F56020 		sub	r0, r0, #917504
 2225 0042 B0FA80F0 		clz	r0, r0
 2226 0046 4009     		lsrs	r0, r0, #5
 2227 0048 00E0     		b	.L227
 2228              	.L234:
 2229              		.loc 1 1331 0
 2230 004a 0120     		movs	r0, #1
 2231              	.L227:
 2232              		.loc 1 1331 0 discriminator 34
 2233 004c FFF7FEFF 		bl	assert_param
 2234              	.LVL220:
 2235              		.loc 1 1334 0 is_stmt 1 discriminator 34
 2236 0050 A368     		ldr	r3, [r4, #8]
 2237              	.LVL221:
 2238              		.loc 1 1337 0 discriminator 34
 2239 0052 23F47023 		bic	r3, r3, #983040
 2240              	.LVL222:
 2241              		.loc 1 1340 0 discriminator 34
 2242 0056 45EA0301 		orr	r1, r5, r3
 2243              	.LVL223:
 2244              		.loc 1 1343 0 discriminator 34
 2245 005a A160     		str	r1, [r4, #8]
 2246 005c 38BD     		pop	{r3, r4, r5, pc}
 2247              	.LVL224:
 2248              	.L230:
 2249              		.loc 1 1330 0
 2250 005e 0120     		movs	r0, #1
 2251              	.LVL225:
 2252 0060 DDE7     		b	.L226
 2253              	.L239:
 2254 0062 00BF     		.align	2
 2255              	.L238:
 2256 0064 00200140 		.word	1073815552
 2257 0068 00220140 		.word	1073816064
 2258              		.cfi_endproc
 2259              	.LFE149:
 2260              		.size	ADC_ExternalTrigInjectedConvConfig, .-ADC_ExternalTrigInjectedConvConfig
 2261              		.section	.text.ADC_ExternalTrigInjectedConvEdgeConfig,"ax",%progbits
 2262              		.align	2
 2263              		.p2align 4,,15
 2264              		.global	ADC_ExternalTrigInjectedConvEdgeConfig
 2265              		.thumb
 2266              		.thumb_func
 2267              		.type	ADC_ExternalTrigInjectedConvEdgeConfig, %function
 2268              	ADC_ExternalTrigInjectedConvEdgeConfig:
 2269              	.LFB150:
 2270              		.loc 1 1361 0
 2271              		.cfi_startproc
 2272              		@ args = 0, pretend = 0, frame = 0
 2273              		@ frame_needed = 0, uses_anonymous_args = 0
 2274              	.LVL226:
 2275 0000 38B5     		push	{r3, r4, r5, lr}
 2276              		.cfi_def_cfa_offset 16
 2277              		.cfi_offset 3, -16
 2278              		.cfi_offset 4, -12
 2279              		.cfi_offset 5, -8
 2280              		.cfi_offset 14, -4
ARM GAS  /var/folders/m4/4md61f0s1_g0rzfghffqnxvr0000gn/T//ccTIFpbg.s 			page 41


 2281              		.loc 1 1364 0
 2282 0002 114B     		ldr	r3, .L247
 2283 0004 9842     		cmp	r0, r3
 2284              		.loc 1 1361 0
 2285 0006 0446     		mov	r4, r0
 2286 0008 0D46     		mov	r5, r1
 2287              		.loc 1 1364 0
 2288 000a 1BD0     		beq	.L244
 2289              		.loc 1 1364 0 is_stmt 0 discriminator 2
 2290 000c 03F58073 		add	r3, r3, #256
 2291 0010 9842     		cmp	r0, r3
 2292 0012 17D0     		beq	.L244
 2293              		.loc 1 1364 0 discriminator 4
 2294 0014 0D48     		ldr	r0, .L247+4
 2295              	.LVL227:
 2296 0016 201A     		subs	r0, r4, r0
 2297 0018 B0FA80F0 		clz	r0, r0
 2298 001c 4009     		lsrs	r0, r0, #5
 2299              	.L241:
 2300              		.loc 1 1364 0 discriminator 8
 2301 001e FFF7FEFF 		bl	assert_param
 2302              	.LVL228:
 2303              		.loc 1 1365 0 is_stmt 1 discriminator 8
 2304 0022 35F48010 		bics	r0, r5, #1048576
 2305 0026 17BF     		itett	ne
 2306 0028 A0F50010 		subne	r0, r0, #2097152
 2307 002c 0120     		moveq	r0, #1
 2308 002e B0FA80F0 		clzne	r0, r0
 2309 0032 4009     		lsrne	r0, r0, #5
 2310 0034 FFF7FEFF 		bl	assert_param
 2311              	.LVL229:
 2312              		.loc 1 1367 0 discriminator 8
 2313 0038 A168     		ldr	r1, [r4, #8]
 2314              	.LVL230:
 2315              		.loc 1 1369 0 discriminator 8
 2316 003a 21F44011 		bic	r1, r1, #3145728
 2317              	.LVL231:
 2318              		.loc 1 1371 0 discriminator 8
 2319 003e 2943     		orrs	r1, r1, r5
 2320              	.LVL232:
 2321              		.loc 1 1373 0 discriminator 8
 2322 0040 A160     		str	r1, [r4, #8]
 2323 0042 38BD     		pop	{r3, r4, r5, pc}
 2324              	.LVL233:
 2325              	.L244:
 2326              		.loc 1 1364 0
 2327 0044 0120     		movs	r0, #1
 2328              	.LVL234:
 2329 0046 EAE7     		b	.L241
 2330              	.L248:
 2331              		.align	2
 2332              	.L247:
 2333 0048 00200140 		.word	1073815552
 2334 004c 00220140 		.word	1073816064
 2335              		.cfi_endproc
 2336              	.LFE150:
 2337              		.size	ADC_ExternalTrigInjectedConvEdgeConfig, .-ADC_ExternalTrigInjectedConvEdgeConfig
ARM GAS  /var/folders/m4/4md61f0s1_g0rzfghffqnxvr0000gn/T//ccTIFpbg.s 			page 42


 2338              		.section	.text.ADC_SoftwareStartInjectedConv,"ax",%progbits
 2339              		.align	2
 2340              		.p2align 4,,15
 2341              		.global	ADC_SoftwareStartInjectedConv
 2342              		.thumb
 2343              		.thumb_func
 2344              		.type	ADC_SoftwareStartInjectedConv, %function
 2345              	ADC_SoftwareStartInjectedConv:
 2346              	.LFB151:
 2347              		.loc 1 1382 0
 2348              		.cfi_startproc
 2349              		@ args = 0, pretend = 0, frame = 0
 2350              		@ frame_needed = 0, uses_anonymous_args = 0
 2351              	.LVL235:
 2352              		.loc 1 1384 0
 2353 0000 0B4B     		ldr	r3, .L254
 2354 0002 9842     		cmp	r0, r3
 2355              		.loc 1 1382 0
 2356 0004 10B5     		push	{r4, lr}
 2357              		.cfi_def_cfa_offset 8
 2358              		.cfi_offset 4, -8
 2359              		.cfi_offset 14, -4
 2360              		.loc 1 1382 0
 2361 0006 0446     		mov	r4, r0
 2362              		.loc 1 1384 0
 2363 0008 0FD0     		beq	.L252
 2364              		.loc 1 1384 0 is_stmt 0 discriminator 2
 2365 000a 03F58073 		add	r3, r3, #256
 2366 000e 9842     		cmp	r0, r3
 2367 0010 0BD0     		beq	.L252
 2368              		.loc 1 1384 0 discriminator 4
 2369 0012 0848     		ldr	r0, .L254+4
 2370              	.LVL236:
 2371 0014 201A     		subs	r0, r4, r0
 2372 0016 B0FA80F0 		clz	r0, r0
 2373 001a 4009     		lsrs	r0, r0, #5
 2374              	.L250:
 2375              		.loc 1 1384 0 discriminator 8
 2376 001c FFF7FEFF 		bl	assert_param
 2377              	.LVL237:
 2378              		.loc 1 1386 0 is_stmt 1 discriminator 8
 2379 0020 A368     		ldr	r3, [r4, #8]
 2380 0022 43F48003 		orr	r3, r3, #4194304
 2381 0026 A360     		str	r3, [r4, #8]
 2382 0028 10BD     		pop	{r4, pc}
 2383              	.LVL238:
 2384              	.L252:
 2385              		.loc 1 1384 0
 2386 002a 0120     		movs	r0, #1
 2387              	.LVL239:
 2388 002c F6E7     		b	.L250
 2389              	.L255:
 2390 002e 00BF     		.align	2
 2391              	.L254:
 2392 0030 00200140 		.word	1073815552
 2393 0034 00220140 		.word	1073816064
 2394              		.cfi_endproc
ARM GAS  /var/folders/m4/4md61f0s1_g0rzfghffqnxvr0000gn/T//ccTIFpbg.s 			page 43


 2395              	.LFE151:
 2396              		.size	ADC_SoftwareStartInjectedConv, .-ADC_SoftwareStartInjectedConv
 2397              		.section	.text.ADC_GetSoftwareStartInjectedConvCmdStatus,"ax",%progbits
 2398              		.align	2
 2399              		.p2align 4,,15
 2400              		.global	ADC_GetSoftwareStartInjectedConvCmdStatus
 2401              		.thumb
 2402              		.thumb_func
 2403              		.type	ADC_GetSoftwareStartInjectedConvCmdStatus, %function
 2404              	ADC_GetSoftwareStartInjectedConvCmdStatus:
 2405              	.LFB152:
 2406              		.loc 1 1395 0
 2407              		.cfi_startproc
 2408              		@ args = 0, pretend = 0, frame = 0
 2409              		@ frame_needed = 0, uses_anonymous_args = 0
 2410              	.LVL240:
 2411              		.loc 1 1398 0
 2412 0000 0D4B     		ldr	r3, .L261
 2413 0002 9842     		cmp	r0, r3
 2414              		.loc 1 1395 0
 2415 0004 10B5     		push	{r4, lr}
 2416              		.cfi_def_cfa_offset 8
 2417              		.cfi_offset 4, -8
 2418              		.cfi_offset 14, -4
 2419              		.loc 1 1395 0
 2420 0006 0446     		mov	r4, r0
 2421              		.loc 1 1398 0
 2422 0008 0ED0     		beq	.L259
 2423              		.loc 1 1398 0 is_stmt 0 discriminator 2
 2424 000a 03F58073 		add	r3, r3, #256
 2425 000e 9842     		cmp	r0, r3
 2426 0010 0AD0     		beq	.L259
 2427              		.loc 1 1398 0 discriminator 4
 2428 0012 0A48     		ldr	r0, .L261+4
 2429              	.LVL241:
 2430 0014 201A     		subs	r0, r4, r0
 2431 0016 B0FA80F0 		clz	r0, r0
 2432 001a 4009     		lsrs	r0, r0, #5
 2433 001c FFF7FEFF 		bl	assert_param
 2434              	.LVL242:
 2435              		.loc 1 1401 0 is_stmt 1 discriminator 4
 2436 0020 A068     		ldr	r0, [r4, #8]
 2437              	.LVL243:
 2438              		.loc 1 1413 0 discriminator 4
 2439 0022 C0F38050 		ubfx	r0, r0, #22, #1
 2440              	.LVL244:
 2441 0026 10BD     		pop	{r4, pc}
 2442              	.LVL245:
 2443              	.L259:
 2444              		.loc 1 1398 0
 2445 0028 0120     		movs	r0, #1
 2446              	.LVL246:
 2447 002a FFF7FEFF 		bl	assert_param
 2448              	.LVL247:
 2449              		.loc 1 1401 0
 2450 002e A068     		ldr	r0, [r4, #8]
 2451              	.LVL248:
ARM GAS  /var/folders/m4/4md61f0s1_g0rzfghffqnxvr0000gn/T//ccTIFpbg.s 			page 44


 2452              		.loc 1 1413 0
 2453 0030 C0F38050 		ubfx	r0, r0, #22, #1
 2454              	.LVL249:
 2455 0034 10BD     		pop	{r4, pc}
 2456              	.LVL250:
 2457              	.L262:
 2458 0036 00BF     		.align	2
 2459              	.L261:
 2460 0038 00200140 		.word	1073815552
 2461 003c 00220140 		.word	1073816064
 2462              		.cfi_endproc
 2463              	.LFE152:
 2464              		.size	ADC_GetSoftwareStartInjectedConvCmdStatus, .-ADC_GetSoftwareStartInjectedConvCmdStatus
 2465              		.section	.text.ADC_AutoInjectedConvCmd,"ax",%progbits
 2466              		.align	2
 2467              		.p2align 4,,15
 2468              		.global	ADC_AutoInjectedConvCmd
 2469              		.thumb
 2470              		.thumb_func
 2471              		.type	ADC_AutoInjectedConvCmd, %function
 2472              	ADC_AutoInjectedConvCmd:
 2473              	.LFB153:
 2474              		.loc 1 1424 0
 2475              		.cfi_startproc
 2476              		@ args = 0, pretend = 0, frame = 0
 2477              		@ frame_needed = 0, uses_anonymous_args = 0
 2478              	.LVL251:
 2479 0000 38B5     		push	{r3, r4, r5, lr}
 2480              		.cfi_def_cfa_offset 16
 2481              		.cfi_offset 3, -16
 2482              		.cfi_offset 4, -12
 2483              		.cfi_offset 5, -8
 2484              		.cfi_offset 14, -4
 2485              		.loc 1 1426 0
 2486 0002 114B     		ldr	r3, .L271
 2487 0004 9842     		cmp	r0, r3
 2488              		.loc 1 1424 0
 2489 0006 0446     		mov	r4, r0
 2490 0008 0D46     		mov	r5, r1
 2491              		.loc 1 1426 0
 2492 000a 1AD0     		beq	.L268
 2493              		.loc 1 1426 0 is_stmt 0 discriminator 2
 2494 000c 03F58073 		add	r3, r3, #256
 2495 0010 9842     		cmp	r0, r3
 2496 0012 16D0     		beq	.L268
 2497              		.loc 1 1426 0 discriminator 4
 2498 0014 0D48     		ldr	r0, .L271+4
 2499              	.LVL252:
 2500 0016 201A     		subs	r0, r4, r0
 2501 0018 B0FA80F0 		clz	r0, r0
 2502 001c 4009     		lsrs	r0, r0, #5
 2503              	.L264:
 2504              		.loc 1 1426 0 discriminator 8
 2505 001e FFF7FEFF 		bl	assert_param
 2506              	.LVL253:
 2507              		.loc 1 1427 0 is_stmt 1 discriminator 8
 2508 0022 012D     		cmp	r5, #1
ARM GAS  /var/folders/m4/4md61f0s1_g0rzfghffqnxvr0000gn/T//ccTIFpbg.s 			page 45


 2509 0024 8CBF     		ite	hi
 2510 0026 0020     		movhi	r0, #0
 2511 0028 0120     		movls	r0, #1
 2512 002a FFF7FEFF 		bl	assert_param
 2513              	.LVL254:
 2514              		.loc 1 1431 0 discriminator 8
 2515 002e 6368     		ldr	r3, [r4, #4]
 2516              		.loc 1 1428 0 discriminator 8
 2517 0030 1DB9     		cbnz	r5, .L270
 2518              		.loc 1 1436 0
 2519 0032 23F48063 		bic	r3, r3, #1024
 2520 0036 6360     		str	r3, [r4, #4]
 2521 0038 38BD     		pop	{r3, r4, r5, pc}
 2522              	.LVL255:
 2523              	.L270:
 2524              		.loc 1 1431 0
 2525 003a 43F48063 		orr	r3, r3, #1024
 2526 003e 6360     		str	r3, [r4, #4]
 2527 0040 38BD     		pop	{r3, r4, r5, pc}
 2528              	.LVL256:
 2529              	.L268:
 2530              		.loc 1 1426 0
 2531 0042 0120     		movs	r0, #1
 2532              	.LVL257:
 2533 0044 EBE7     		b	.L264
 2534              	.L272:
 2535 0046 00BF     		.align	2
 2536              	.L271:
 2537 0048 00200140 		.word	1073815552
 2538 004c 00220140 		.word	1073816064
 2539              		.cfi_endproc
 2540              	.LFE153:
 2541              		.size	ADC_AutoInjectedConvCmd, .-ADC_AutoInjectedConvCmd
 2542              		.section	.text.ADC_InjectedDiscModeCmd,"ax",%progbits
 2543              		.align	2
 2544              		.p2align 4,,15
 2545              		.global	ADC_InjectedDiscModeCmd
 2546              		.thumb
 2547              		.thumb_func
 2548              		.type	ADC_InjectedDiscModeCmd, %function
 2549              	ADC_InjectedDiscModeCmd:
 2550              	.LFB154:
 2551              		.loc 1 1450 0
 2552              		.cfi_startproc
 2553              		@ args = 0, pretend = 0, frame = 0
 2554              		@ frame_needed = 0, uses_anonymous_args = 0
 2555              	.LVL258:
 2556 0000 38B5     		push	{r3, r4, r5, lr}
 2557              		.cfi_def_cfa_offset 16
 2558              		.cfi_offset 3, -16
 2559              		.cfi_offset 4, -12
 2560              		.cfi_offset 5, -8
 2561              		.cfi_offset 14, -4
 2562              		.loc 1 1452 0
 2563 0002 114B     		ldr	r3, .L281
 2564 0004 9842     		cmp	r0, r3
 2565              		.loc 1 1450 0
ARM GAS  /var/folders/m4/4md61f0s1_g0rzfghffqnxvr0000gn/T//ccTIFpbg.s 			page 46


 2566 0006 0446     		mov	r4, r0
 2567 0008 0D46     		mov	r5, r1
 2568              		.loc 1 1452 0
 2569 000a 1AD0     		beq	.L278
 2570              		.loc 1 1452 0 is_stmt 0 discriminator 2
 2571 000c 03F58073 		add	r3, r3, #256
 2572 0010 9842     		cmp	r0, r3
 2573 0012 16D0     		beq	.L278
 2574              		.loc 1 1452 0 discriminator 4
 2575 0014 0D48     		ldr	r0, .L281+4
 2576              	.LVL259:
 2577 0016 201A     		subs	r0, r4, r0
 2578 0018 B0FA80F0 		clz	r0, r0
 2579 001c 4009     		lsrs	r0, r0, #5
 2580              	.L274:
 2581              		.loc 1 1452 0 discriminator 8
 2582 001e FFF7FEFF 		bl	assert_param
 2583              	.LVL260:
 2584              		.loc 1 1453 0 is_stmt 1 discriminator 8
 2585 0022 012D     		cmp	r5, #1
 2586 0024 8CBF     		ite	hi
 2587 0026 0020     		movhi	r0, #0
 2588 0028 0120     		movls	r0, #1
 2589 002a FFF7FEFF 		bl	assert_param
 2590              	.LVL261:
 2591              		.loc 1 1457 0 discriminator 8
 2592 002e 6368     		ldr	r3, [r4, #4]
 2593              		.loc 1 1454 0 discriminator 8
 2594 0030 1DB9     		cbnz	r5, .L280
 2595              		.loc 1 1462 0
 2596 0032 23F48053 		bic	r3, r3, #4096
 2597 0036 6360     		str	r3, [r4, #4]
 2598 0038 38BD     		pop	{r3, r4, r5, pc}
 2599              	.LVL262:
 2600              	.L280:
 2601              		.loc 1 1457 0
 2602 003a 43F48053 		orr	r3, r3, #4096
 2603 003e 6360     		str	r3, [r4, #4]
 2604 0040 38BD     		pop	{r3, r4, r5, pc}
 2605              	.LVL263:
 2606              	.L278:
 2607              		.loc 1 1452 0
 2608 0042 0120     		movs	r0, #1
 2609              	.LVL264:
 2610 0044 EBE7     		b	.L274
 2611              	.L282:
 2612 0046 00BF     		.align	2
 2613              	.L281:
 2614 0048 00200140 		.word	1073815552
 2615 004c 00220140 		.word	1073816064
 2616              		.cfi_endproc
 2617              	.LFE154:
 2618              		.size	ADC_InjectedDiscModeCmd, .-ADC_InjectedDiscModeCmd
 2619              		.section	.text.ADC_GetInjectedConversionValue,"ax",%progbits
 2620              		.align	2
 2621              		.p2align 4,,15
 2622              		.global	ADC_GetInjectedConversionValue
ARM GAS  /var/folders/m4/4md61f0s1_g0rzfghffqnxvr0000gn/T//ccTIFpbg.s 			page 47


 2623              		.thumb
 2624              		.thumb_func
 2625              		.type	ADC_GetInjectedConversionValue, %function
 2626              	ADC_GetInjectedConversionValue:
 2627              	.LFB155:
 2628              		.loc 1 1478 0
 2629              		.cfi_startproc
 2630              		@ args = 0, pretend = 0, frame = 8
 2631              		@ frame_needed = 0, uses_anonymous_args = 0
 2632              	.LVL265:
 2633 0000 30B5     		push	{r4, r5, lr}
 2634              		.cfi_def_cfa_offset 12
 2635              		.cfi_offset 4, -12
 2636              		.cfi_offset 5, -8
 2637              		.cfi_offset 14, -4
 2638              		.loc 1 1482 0
 2639 0002 174B     		ldr	r3, .L291
 2640              		.loc 1 1478 0
 2641 0004 83B0     		sub	sp, sp, #12
 2642              		.cfi_def_cfa_offset 24
 2643              		.loc 1 1479 0
 2644 0006 0022     		movs	r2, #0
 2645              		.loc 1 1482 0
 2646 0008 9842     		cmp	r0, r3
 2647              		.loc 1 1478 0
 2648 000a 0546     		mov	r5, r0
 2649 000c 0C46     		mov	r4, r1
 2650              		.loc 1 1479 0
 2651 000e 0192     		str	r2, [sp, #4]
 2652              		.loc 1 1482 0
 2653 0010 23D0     		beq	.L287
 2654              		.loc 1 1482 0 is_stmt 0 discriminator 2
 2655 0012 03F58073 		add	r3, r3, #256
 2656 0016 9842     		cmp	r0, r3
 2657 0018 1FD0     		beq	.L287
 2658              		.loc 1 1482 0 discriminator 4
 2659 001a 1248     		ldr	r0, .L291+4
 2660              	.LVL266:
 2661 001c 281A     		subs	r0, r5, r0
 2662 001e B0FA80F0 		clz	r0, r0
 2663 0022 4009     		lsrs	r0, r0, #5
 2664              	.L284:
 2665              		.loc 1 1482 0 discriminator 8
 2666 0024 FFF7FEFF 		bl	assert_param
 2667              	.LVL267:
 2668              		.loc 1 1483 0 is_stmt 1 discriminator 8
 2669 0028 04F0F703 		and	r3, r4, #247
 2670 002c 142B     		cmp	r3, #20
 2671 002e 12D0     		beq	.L289
 2672              		.loc 1 1483 0 is_stmt 0 discriminator 2
 2673 0030 182C     		cmp	r4, #24
 2674 0032 10D0     		beq	.L289
 2675              		.loc 1 1483 0 discriminator 6
 2676 0034 A4F12000 		sub	r0, r4, #32
 2677 0038 B0FA80F0 		clz	r0, r0
 2678 003c 4009     		lsrs	r0, r0, #5
 2679              	.L285:
ARM GAS  /var/folders/m4/4md61f0s1_g0rzfghffqnxvr0000gn/T//ccTIFpbg.s 			page 48


 2680              		.loc 1 1483 0 discriminator 10
 2681 003e FFF7FEFF 		bl	assert_param
 2682              	.LVL268:
 2683              		.loc 1 1485 0 is_stmt 1 discriminator 10
 2684 0042 0195     		str	r5, [sp, #4]
 2685              		.loc 1 1486 0 discriminator 10
 2686 0044 0199     		ldr	r1, [sp, #4]
 2687 0046 2831     		adds	r1, r1, #40
 2688 0048 0C44     		add	r4, r4, r1
 2689 004a 0194     		str	r4, [sp, #4]
 2690              		.loc 1 1489 0 discriminator 10
 2691 004c 019B     		ldr	r3, [sp, #4]
 2692 004e 1868     		ldr	r0, [r3]
 2693              		.loc 1 1490 0 discriminator 10
 2694 0050 80B2     		uxth	r0, r0
 2695 0052 03B0     		add	sp, sp, #12
 2696              		.cfi_remember_state
 2697              		.cfi_def_cfa_offset 12
 2698              		@ sp needed
 2699 0054 30BD     		pop	{r4, r5, pc}
 2700              	.LVL269:
 2701              	.L289:
 2702              		.cfi_restore_state
 2703              		.loc 1 1483 0
 2704 0056 0120     		movs	r0, #1
 2705 0058 F1E7     		b	.L285
 2706              	.LVL270:
 2707              	.L287:
 2708              		.loc 1 1482 0
 2709 005a 0120     		movs	r0, #1
 2710              	.LVL271:
 2711 005c E2E7     		b	.L284
 2712              	.L292:
 2713 005e 00BF     		.align	2
 2714              	.L291:
 2715 0060 00200140 		.word	1073815552
 2716 0064 00220140 		.word	1073816064
 2717              		.cfi_endproc
 2718              	.LFE155:
 2719              		.size	ADC_GetInjectedConversionValue, .-ADC_GetInjectedConversionValue
 2720              		.section	.text.ADC_ITConfig,"ax",%progbits
 2721              		.align	2
 2722              		.p2align 4,,15
 2723              		.global	ADC_ITConfig
 2724              		.thumb
 2725              		.thumb_func
 2726              		.type	ADC_ITConfig, %function
 2727              	ADC_ITConfig:
 2728              	.LFB156:
 2729              		.loc 1 1585 0
 2730              		.cfi_startproc
 2731              		@ args = 0, pretend = 0, frame = 0
 2732              		@ frame_needed = 0, uses_anonymous_args = 0
 2733              	.LVL272:
 2734              		.loc 1 1588 0
 2735 0000 1D4B     		ldr	r3, .L305
 2736 0002 9842     		cmp	r0, r3
ARM GAS  /var/folders/m4/4md61f0s1_g0rzfghffqnxvr0000gn/T//ccTIFpbg.s 			page 49


 2737              		.loc 1 1585 0
 2738 0004 70B5     		push	{r4, r5, r6, lr}
 2739              		.cfi_def_cfa_offset 16
 2740              		.cfi_offset 4, -16
 2741              		.cfi_offset 5, -12
 2742              		.cfi_offset 6, -8
 2743              		.cfi_offset 14, -4
 2744              		.loc 1 1585 0
 2745 0006 0546     		mov	r5, r0
 2746 0008 0C46     		mov	r4, r1
 2747 000a 1646     		mov	r6, r2
 2748              		.loc 1 1588 0
 2749 000c 31D0     		beq	.L299
 2750              		.loc 1 1588 0 is_stmt 0 discriminator 2
 2751 000e 03F58073 		add	r3, r3, #256
 2752 0012 9842     		cmp	r0, r3
 2753 0014 2DD0     		beq	.L299
 2754              		.loc 1 1588 0 discriminator 4
 2755 0016 1948     		ldr	r0, .L305+4
 2756              	.LVL273:
 2757 0018 281A     		subs	r0, r5, r0
 2758 001a B0FA80F0 		clz	r0, r0
 2759 001e 4009     		lsrs	r0, r0, #5
 2760              	.L294:
 2761              		.loc 1 1588 0 discriminator 8
 2762 0020 FFF7FEFF 		bl	assert_param
 2763              	.LVL274:
 2764              		.loc 1 1589 0 is_stmt 1 discriminator 8
 2765 0024 012E     		cmp	r6, #1
 2766 0026 8CBF     		ite	hi
 2767 0028 0020     		movhi	r0, #0
 2768 002a 0120     		movls	r0, #1
 2769 002c FFF7FEFF 		bl	assert_param
 2770              	.LVL275:
 2771              		.loc 1 1590 0 discriminator 8
 2772 0030 40F20523 		movw	r3, #517
 2773 0034 9C42     		cmp	r4, r3
 2774 0036 0DD0     		beq	.L302
 2775              		.loc 1 1590 0 is_stmt 0 discriminator 2
 2776 0038 B4F5837F 		cmp	r4, #262
 2777 003c 0AD0     		beq	.L302
 2778              		.loc 1 1590 0 discriminator 4
 2779 003e 40F20743 		movw	r3, #1031
 2780 0042 9C42     		cmp	r4, r3
 2781 0044 06D0     		beq	.L302
 2782              		.loc 1 1590 0 discriminator 6
 2783 0046 42F21A00 		movw	r0, #8218
 2784 004a 201A     		subs	r0, r4, r0
 2785 004c B0FA80F0 		clz	r0, r0
 2786 0050 4009     		lsrs	r0, r0, #5
 2787 0052 00E0     		b	.L295
 2788              	.L302:
 2789              		.loc 1 1590 0
 2790 0054 0120     		movs	r0, #1
 2791              	.L295:
 2792              		.loc 1 1590 0 discriminator 10
 2793 0056 FFF7FEFF 		bl	assert_param
ARM GAS  /var/folders/m4/4md61f0s1_g0rzfghffqnxvr0000gn/T//ccTIFpbg.s 			page 50


 2794              	.LVL276:
 2795              		.loc 1 1594 0 is_stmt 1 discriminator 10
 2796 005a E4B2     		uxtb	r4, r4
 2797              	.LVL277:
 2798 005c 0123     		movs	r3, #1
 2799 005e A340     		lsls	r3, r3, r4
 2800              	.LVL278:
 2801              		.loc 1 1599 0 discriminator 10
 2802 0060 6A68     		ldr	r2, [r5, #4]
 2803              		.loc 1 1596 0 discriminator 10
 2804 0062 1EB9     		cbnz	r6, .L304
 2805              		.loc 1 1604 0
 2806 0064 22EA0303 		bic	r3, r2, r3
 2807              	.LVL279:
 2808 0068 6B60     		str	r3, [r5, #4]
 2809 006a 70BD     		pop	{r4, r5, r6, pc}
 2810              	.LVL280:
 2811              	.L304:
 2812              		.loc 1 1599 0
 2813 006c 1343     		orrs	r3, r3, r2
 2814              	.LVL281:
 2815 006e 6B60     		str	r3, [r5, #4]
 2816 0070 70BD     		pop	{r4, r5, r6, pc}
 2817              	.LVL282:
 2818              	.L299:
 2819              		.loc 1 1588 0
 2820 0072 0120     		movs	r0, #1
 2821              	.LVL283:
 2822 0074 D4E7     		b	.L294
 2823              	.L306:
 2824 0076 00BF     		.align	2
 2825              	.L305:
 2826 0078 00200140 		.word	1073815552
 2827 007c 00220140 		.word	1073816064
 2828              		.cfi_endproc
 2829              	.LFE156:
 2830              		.size	ADC_ITConfig, .-ADC_ITConfig
 2831              		.section	.text.ADC_GetFlagStatus,"ax",%progbits
 2832              		.align	2
 2833              		.p2align 4,,15
 2834              		.global	ADC_GetFlagStatus
 2835              		.thumb
 2836              		.thumb_func
 2837              		.type	ADC_GetFlagStatus, %function
 2838              	ADC_GetFlagStatus:
 2839              	.LFB157:
 2840              		.loc 1 1622 0
 2841              		.cfi_startproc
 2842              		@ args = 0, pretend = 0, frame = 0
 2843              		@ frame_needed = 0, uses_anonymous_args = 0
 2844              	.LVL284:
 2845 0000 38B5     		push	{r3, r4, r5, lr}
 2846              		.cfi_def_cfa_offset 16
 2847              		.cfi_offset 3, -16
 2848              		.cfi_offset 4, -12
 2849              		.cfi_offset 5, -8
 2850              		.cfi_offset 14, -4
ARM GAS  /var/folders/m4/4md61f0s1_g0rzfghffqnxvr0000gn/T//ccTIFpbg.s 			page 51


 2851              		.loc 1 1625 0
 2852 0002 154B     		ldr	r3, .L317
 2853 0004 9842     		cmp	r0, r3
 2854              		.loc 1 1622 0
 2855 0006 0546     		mov	r5, r0
 2856 0008 0C46     		mov	r4, r1
 2857              		.loc 1 1625 0
 2858 000a 22D0     		beq	.L311
 2859              		.loc 1 1625 0 is_stmt 0 discriminator 2
 2860 000c 03F58073 		add	r3, r3, #256
 2861 0010 9842     		cmp	r0, r3
 2862 0012 1ED0     		beq	.L311
 2863              		.loc 1 1625 0 discriminator 4
 2864 0014 1148     		ldr	r0, .L317+4
 2865              	.LVL285:
 2866 0016 281A     		subs	r0, r5, r0
 2867 0018 B0FA80F0 		clz	r0, r0
 2868 001c 4009     		lsrs	r0, r0, #5
 2869              	.L308:
 2870              		.loc 1 1625 0 discriminator 8
 2871 001e FFF7FEFF 		bl	assert_param
 2872              	.LVL286:
 2873              		.loc 1 1626 0 is_stmt 1 discriminator 8
 2874 0022 631E     		subs	r3, r4, #1
 2875 0024 012B     		cmp	r3, #1
 2876 0026 0BD9     		bls	.L315
 2877              		.loc 1 1626 0 is_stmt 0 discriminator 2
 2878 0028 042C     		cmp	r4, #4
 2879 002a 09D0     		beq	.L315
 2880              		.loc 1 1626 0 discriminator 4
 2881 002c 082C     		cmp	r4, #8
 2882 002e 07D0     		beq	.L315
 2883              		.loc 1 1626 0 discriminator 6
 2884 0030 102C     		cmp	r4, #16
 2885 0032 05D0     		beq	.L315
 2886              		.loc 1 1626 0 discriminator 8
 2887 0034 A4F12000 		sub	r0, r4, #32
 2888 0038 B0FA80F0 		clz	r0, r0
 2889 003c 4009     		lsrs	r0, r0, #5
 2890 003e 00E0     		b	.L309
 2891              	.L315:
 2892              		.loc 1 1626 0
 2893 0040 0120     		movs	r0, #1
 2894              	.L309:
 2895              		.loc 1 1626 0 discriminator 12
 2896 0042 FFF7FEFF 		bl	assert_param
 2897              	.LVL287:
 2898              		.loc 1 1629 0 is_stmt 1 discriminator 12
 2899 0046 2B68     		ldr	r3, [r5]
 2900              	.LVL288:
 2901 0048 1C42     		tst	r4, r3
 2902              		.loc 1 1641 0 discriminator 12
 2903 004a 14BF     		ite	ne
 2904 004c 0120     		movne	r0, #1
 2905 004e 0020     		moveq	r0, #0
 2906 0050 38BD     		pop	{r3, r4, r5, pc}
 2907              	.LVL289:
ARM GAS  /var/folders/m4/4md61f0s1_g0rzfghffqnxvr0000gn/T//ccTIFpbg.s 			page 52


 2908              	.L311:
 2909              		.loc 1 1625 0
 2910 0052 0120     		movs	r0, #1
 2911              	.LVL290:
 2912 0054 E3E7     		b	.L308
 2913              	.L318:
 2914 0056 00BF     		.align	2
 2915              	.L317:
 2916 0058 00200140 		.word	1073815552
 2917 005c 00220140 		.word	1073816064
 2918              		.cfi_endproc
 2919              	.LFE157:
 2920              		.size	ADC_GetFlagStatus, .-ADC_GetFlagStatus
 2921              		.section	.text.ADC_ClearFlag,"ax",%progbits
 2922              		.align	2
 2923              		.p2align 4,,15
 2924              		.global	ADC_ClearFlag
 2925              		.thumb
 2926              		.thumb_func
 2927              		.type	ADC_ClearFlag, %function
 2928              	ADC_ClearFlag:
 2929              	.LFB158:
 2930              		.loc 1 1657 0
 2931              		.cfi_startproc
 2932              		@ args = 0, pretend = 0, frame = 0
 2933              		@ frame_needed = 0, uses_anonymous_args = 0
 2934              	.LVL291:
 2935 0000 38B5     		push	{r3, r4, r5, lr}
 2936              		.cfi_def_cfa_offset 16
 2937              		.cfi_offset 3, -16
 2938              		.cfi_offset 4, -12
 2939              		.cfi_offset 5, -8
 2940              		.cfi_offset 14, -4
 2941              		.loc 1 1659 0
 2942 0002 114B     		ldr	r3, .L326
 2943 0004 9842     		cmp	r0, r3
 2944              		.loc 1 1657 0
 2945 0006 0546     		mov	r5, r0
 2946 0008 0C46     		mov	r4, r1
 2947              		.loc 1 1659 0
 2948 000a 1BD0     		beq	.L323
 2949              		.loc 1 1659 0 is_stmt 0 discriminator 2
 2950 000c 03F58073 		add	r3, r3, #256
 2951 0010 9842     		cmp	r0, r3
 2952 0012 17D0     		beq	.L323
 2953              		.loc 1 1659 0 discriminator 4
 2954 0014 0D48     		ldr	r0, .L326+4
 2955              	.LVL292:
 2956 0016 281A     		subs	r0, r5, r0
 2957 0018 B0FA80F0 		clz	r0, r0
 2958 001c 4009     		lsrs	r0, r0, #5
 2959              	.L320:
 2960              		.loc 1 1659 0 discriminator 8
 2961 001e FFF7FEFF 		bl	assert_param
 2962              	.LVL293:
 2963              		.loc 1 1660 0 is_stmt 1 discriminator 8
 2964 0022 14F0C00F 		tst	r4, #192
ARM GAS  /var/folders/m4/4md61f0s1_g0rzfghffqnxvr0000gn/T//ccTIFpbg.s 			page 53


 2965 0026 07D1     		bne	.L324
 2966              		.loc 1 1660 0 is_stmt 0 discriminator 1
 2967 0028 201C     		adds	r0, r4, #0
 2968 002a 18BF     		it	ne
 2969 002c 0120     		movne	r0, #1
 2970              		.loc 1 1663 0 is_stmt 1 discriminator 1
 2971 002e E443     		mvns	r4, r4
 2972              		.loc 1 1660 0 discriminator 1
 2973 0030 FFF7FEFF 		bl	assert_param
 2974              	.LVL294:
 2975              		.loc 1 1663 0 discriminator 1
 2976 0034 2C60     		str	r4, [r5]
 2977 0036 38BD     		pop	{r3, r4, r5, pc}
 2978              	.LVL295:
 2979              	.L324:
 2980              		.loc 1 1660 0
 2981 0038 0020     		movs	r0, #0
 2982              		.loc 1 1663 0
 2983 003a E443     		mvns	r4, r4
 2984              		.loc 1 1660 0
 2985 003c FFF7FEFF 		bl	assert_param
 2986              	.LVL296:
 2987              		.loc 1 1663 0
 2988 0040 2C60     		str	r4, [r5]
 2989 0042 38BD     		pop	{r3, r4, r5, pc}
 2990              	.LVL297:
 2991              	.L323:
 2992              		.loc 1 1659 0
 2993 0044 0120     		movs	r0, #1
 2994              	.LVL298:
 2995 0046 EAE7     		b	.L320
 2996              	.L327:
 2997              		.align	2
 2998              	.L326:
 2999 0048 00200140 		.word	1073815552
 3000 004c 00220140 		.word	1073816064
 3001              		.cfi_endproc
 3002              	.LFE158:
 3003              		.size	ADC_ClearFlag, .-ADC_ClearFlag
 3004              		.section	.text.ADC_GetITStatus,"ax",%progbits
 3005              		.align	2
 3006              		.p2align 4,,15
 3007              		.global	ADC_GetITStatus
 3008              		.thumb
 3009              		.thumb_func
 3010              		.type	ADC_GetITStatus, %function
 3011              	ADC_GetITStatus:
 3012              	.LFB159:
 3013              		.loc 1 1678 0
 3014              		.cfi_startproc
 3015              		@ args = 0, pretend = 0, frame = 0
 3016              		@ frame_needed = 0, uses_anonymous_args = 0
 3017              	.LVL299:
 3018 0000 38B5     		push	{r3, r4, r5, lr}
 3019              		.cfi_def_cfa_offset 16
 3020              		.cfi_offset 3, -16
 3021              		.cfi_offset 4, -12
ARM GAS  /var/folders/m4/4md61f0s1_g0rzfghffqnxvr0000gn/T//ccTIFpbg.s 			page 54


 3022              		.cfi_offset 5, -8
 3023              		.cfi_offset 14, -4
 3024              		.loc 1 1683 0
 3025 0002 1A4B     		ldr	r3, .L339
 3026 0004 9842     		cmp	r0, r3
 3027              		.loc 1 1678 0
 3028 0006 0546     		mov	r5, r0
 3029 0008 0C46     		mov	r4, r1
 3030              		.loc 1 1683 0
 3031 000a 2CD0     		beq	.L333
 3032              		.loc 1 1683 0 is_stmt 0 discriminator 2
 3033 000c 03F58073 		add	r3, r3, #256
 3034 0010 9842     		cmp	r0, r3
 3035 0012 28D0     		beq	.L333
 3036              		.loc 1 1683 0 discriminator 4
 3037 0014 1648     		ldr	r0, .L339+4
 3038              	.LVL300:
 3039 0016 281A     		subs	r0, r5, r0
 3040 0018 B0FA80F0 		clz	r0, r0
 3041 001c 4009     		lsrs	r0, r0, #5
 3042              	.L329:
 3043              		.loc 1 1683 0 discriminator 8
 3044 001e FFF7FEFF 		bl	assert_param
 3045              	.LVL301:
 3046              		.loc 1 1684 0 is_stmt 1 discriminator 8
 3047 0022 40F20523 		movw	r3, #517
 3048 0026 9C42     		cmp	r4, r3
 3049 0028 0DD0     		beq	.L336
 3050              		.loc 1 1684 0 is_stmt 0 discriminator 2
 3051 002a B4F5837F 		cmp	r4, #262
 3052 002e 0AD0     		beq	.L336
 3053              		.loc 1 1684 0 discriminator 4
 3054 0030 40F20743 		movw	r3, #1031
 3055 0034 9C42     		cmp	r4, r3
 3056 0036 06D0     		beq	.L336
 3057              		.loc 1 1684 0 discriminator 6
 3058 0038 42F21A00 		movw	r0, #8218
 3059 003c 201A     		subs	r0, r4, r0
 3060 003e B0FA80F0 		clz	r0, r0
 3061 0042 4009     		lsrs	r0, r0, #5
 3062 0044 00E0     		b	.L330
 3063              	.L336:
 3064              		.loc 1 1684 0
 3065 0046 0120     		movs	r0, #1
 3066              	.L330:
 3067              		.loc 1 1684 0 discriminator 10
 3068 0048 FFF7FEFF 		bl	assert_param
 3069              	.LVL302:
 3070              		.loc 1 1690 0 is_stmt 1 discriminator 10
 3071 004c 6A68     		ldr	r2, [r5, #4]
 3072              	.LVL303:
 3073              		.loc 1 1693 0 discriminator 10
 3074 004e 2868     		ldr	r0, [r5]
 3075 0050 10EA1420 		ands	r0, r0, r4, lsr #8
 3076 0054 06D0     		beq	.L331
 3077              		.loc 1 1690 0 discriminator 1
 3078 0056 E4B2     		uxtb	r4, r4
ARM GAS  /var/folders/m4/4md61f0s1_g0rzfghffqnxvr0000gn/T//ccTIFpbg.s 			page 55


 3079              	.LVL304:
 3080 0058 0123     		movs	r3, #1
 3081 005a A340     		lsls	r3, r3, r4
 3082              		.loc 1 1693 0 discriminator 1
 3083 005c 1342     		tst	r3, r2
 3084              		.loc 1 1696 0 discriminator 1
 3085 005e 14BF     		ite	ne
 3086 0060 0120     		movne	r0, #1
 3087 0062 0020     		moveq	r0, #0
 3088              	.LVL305:
 3089              	.L331:
 3090              		.loc 1 1705 0
 3091 0064 38BD     		pop	{r3, r4, r5, pc}
 3092              	.LVL306:
 3093              	.L333:
 3094              		.loc 1 1683 0
 3095 0066 0120     		movs	r0, #1
 3096              	.LVL307:
 3097 0068 D9E7     		b	.L329
 3098              	.L340:
 3099 006a 00BF     		.align	2
 3100              	.L339:
 3101 006c 00200140 		.word	1073815552
 3102 0070 00220140 		.word	1073816064
 3103              		.cfi_endproc
 3104              	.LFE159:
 3105              		.size	ADC_GetITStatus, .-ADC_GetITStatus
 3106              		.section	.text.ADC_ClearITPendingBit,"ax",%progbits
 3107              		.align	2
 3108              		.p2align 4,,15
 3109              		.global	ADC_ClearITPendingBit
 3110              		.thumb
 3111              		.thumb_func
 3112              		.type	ADC_ClearITPendingBit, %function
 3113              	ADC_ClearITPendingBit:
 3114              	.LFB160:
 3115              		.loc 1 1719 0
 3116              		.cfi_startproc
 3117              		@ args = 0, pretend = 0, frame = 0
 3118              		@ frame_needed = 0, uses_anonymous_args = 0
 3119              	.LVL308:
 3120 0000 38B5     		push	{r3, r4, r5, lr}
 3121              		.cfi_def_cfa_offset 16
 3122              		.cfi_offset 3, -16
 3123              		.cfi_offset 4, -12
 3124              		.cfi_offset 5, -8
 3125              		.cfi_offset 14, -4
 3126              		.loc 1 1722 0
 3127 0002 184B     		ldr	r3, .L350
 3128 0004 9842     		cmp	r0, r3
 3129              		.loc 1 1719 0
 3130 0006 0546     		mov	r5, r0
 3131 0008 0C46     		mov	r4, r1
 3132              		.loc 1 1722 0
 3133 000a 28D0     		beq	.L345
 3134              		.loc 1 1722 0 is_stmt 0 discriminator 2
 3135 000c 03F58073 		add	r3, r3, #256
ARM GAS  /var/folders/m4/4md61f0s1_g0rzfghffqnxvr0000gn/T//ccTIFpbg.s 			page 56


 3136 0010 9842     		cmp	r0, r3
 3137 0012 24D0     		beq	.L345
 3138              		.loc 1 1722 0 discriminator 4
 3139 0014 1448     		ldr	r0, .L350+4
 3140              	.LVL309:
 3141 0016 281A     		subs	r0, r5, r0
 3142 0018 B0FA80F0 		clz	r0, r0
 3143 001c 4009     		lsrs	r0, r0, #5
 3144              	.L342:
 3145              		.loc 1 1722 0 discriminator 8
 3146 001e FFF7FEFF 		bl	assert_param
 3147              	.LVL310:
 3148              		.loc 1 1723 0 is_stmt 1 discriminator 8
 3149 0022 40F20523 		movw	r3, #517
 3150 0026 9C42     		cmp	r4, r3
 3151 0028 12D0     		beq	.L348
 3152              		.loc 1 1723 0 is_stmt 0 discriminator 2
 3153 002a B4F5837F 		cmp	r4, #262
 3154 002e 0FD0     		beq	.L348
 3155              		.loc 1 1723 0 discriminator 4
 3156 0030 40F20743 		movw	r3, #1031
 3157 0034 9C42     		cmp	r4, r3
 3158 0036 0BD0     		beq	.L348
 3159              		.loc 1 1723 0 discriminator 6
 3160 0038 42F21A00 		movw	r0, #8218
 3161 003c 201A     		subs	r0, r4, r0
 3162              		.loc 1 1727 0 is_stmt 1 discriminator 6
 3163 003e 6FEA1424 		mvn	r4, r4, lsr #8
 3164              		.loc 1 1723 0 discriminator 6
 3165 0042 B0FA80F0 		clz	r0, r0
 3166 0046 4009     		lsrs	r0, r0, #5
 3167 0048 FFF7FEFF 		bl	assert_param
 3168              	.LVL311:
 3169              		.loc 1 1727 0 discriminator 6
 3170 004c 2C60     		str	r4, [r5]
 3171 004e 38BD     		pop	{r3, r4, r5, pc}
 3172              	.LVL312:
 3173              	.L348:
 3174              		.loc 1 1723 0
 3175 0050 0120     		movs	r0, #1
 3176              		.loc 1 1727 0
 3177 0052 6FEA1424 		mvn	r4, r4, lsr #8
 3178              		.loc 1 1723 0
 3179 0056 FFF7FEFF 		bl	assert_param
 3180              	.LVL313:
 3181              		.loc 1 1727 0
 3182 005a 2C60     		str	r4, [r5]
 3183 005c 38BD     		pop	{r3, r4, r5, pc}
 3184              	.LVL314:
 3185              	.L345:
 3186              		.loc 1 1722 0
 3187 005e 0120     		movs	r0, #1
 3188              	.LVL315:
 3189 0060 DDE7     		b	.L342
 3190              	.L351:
 3191 0062 00BF     		.align	2
 3192              	.L350:
ARM GAS  /var/folders/m4/4md61f0s1_g0rzfghffqnxvr0000gn/T//ccTIFpbg.s 			page 57


 3193 0064 00200140 		.word	1073815552
 3194 0068 00220140 		.word	1073816064
 3195              		.cfi_endproc
 3196              	.LFE160:
 3197              		.size	ADC_ClearITPendingBit, .-ADC_ClearITPendingBit
 3198              		.text
 3199              	.Letext0:
 3200              		.file 2 "/usr/local/Cellar/gcc-arm-none-eabi-49/20150609/arm-none-eabi/include/machine/_default_ty
 3201              		.file 3 "/usr/local/Cellar/gcc-arm-none-eabi-49/20150609/arm-none-eabi/include/sys/_stdint.h"
 3202              		.file 4 "ChibiOS_16.1.4/os/ext/CMSIS/ST/STM32F4xx/stm32f446xx.h"
 3203              		.file 5 "ChibiOS_16.1.4/os/ext/CMSIS/ST/STM32F4xx/stm32f4xx.h"
 3204              		.file 6 "ChibiOS_16.1.4/ext/stdperiph_stm32f4/inc/stm32f4xx_adc.h"
 3205              		.file 7 "ChibiOS_16.1.4/ext/stdperiph_stm32f4/inc/stm32f4xx_rcc.h"
 3206              		.file 8 "ChibiOS_16.1.4/os/ext/CMSIS/include/core_cm4.h"