ARM GAS  /var/folders/m4/4md61f0s1_g0rzfghffqnxvr0000gn/T//cclTd5Ut.s 			page 1


   1              		.syntax unified
   2              		.cpu cortex-m4
   3              		.eabi_attribute 27, 1
   4              		.eabi_attribute 28, 1
   5              		.fpu fpv4-sp-d16
   6              		.eabi_attribute 20, 1
   7              		.eabi_attribute 21, 1
   8              		.eabi_attribute 23, 3
   9              		.eabi_attribute 24, 1
  10              		.eabi_attribute 25, 1
  11              		.eabi_attribute 26, 1
  12              		.eabi_attribute 30, 2
  13              		.eabi_attribute 34, 1
  14              		.eabi_attribute 18, 4
  15              		.thumb
  16              		.file	"syscalls.c"
  17              		.text
  18              	.Ltext0:
  19              		.cfi_sections	.debug_frame
  20              		.section	.text._read_r,"ax",%progbits
  21              		.align	2
  22              		.p2align 4,,15
  23              		.global	_read_r
  24              		.thumb
  25              		.thumb_func
  26              		.type	_read_r, %function
  27              	_read_r:
  28              	.LFB231:
  29              		.file 1 "ChibiOS_16.1.4/os/various/syscalls.c"
  30              		.loc 1 71 0
  31              		.cfi_startproc
  32              		@ args = 0, pretend = 0, frame = 0
  33              		@ frame_needed = 0, uses_anonymous_args = 0
  34              		@ link register save eliminated.
  35              	.LVL0:
  36              		.loc 1 84 0
  37 0000 1623     		movs	r3, #22
  38              	.LVL1:
  39 0002 0360     		str	r3, [r0]
  40              		.loc 1 87 0
  41 0004 4FF0FF30 		mov	r0, #-1
  42              	.LVL2:
  43 0008 7047     		bx	lr
  44              		.cfi_endproc
  45              	.LFE231:
  46              		.size	_read_r, .-_read_r
  47 000a 00BF     		.section	.text._lseek_r,"ax",%progbits
  48              		.align	2
  49              		.p2align 4,,15
  50              		.global	_lseek_r
  51              		.thumb
  52              		.thumb_func
  53              		.type	_lseek_r, %function
  54              	_lseek_r:
  55              	.LFB232:
  56              		.loc 1 92 0
  57              		.cfi_startproc
ARM GAS  /var/folders/m4/4md61f0s1_g0rzfghffqnxvr0000gn/T//cclTd5Ut.s 			page 2


  58              		@ args = 0, pretend = 0, frame = 0
  59              		@ frame_needed = 0, uses_anonymous_args = 0
  60              		@ link register save eliminated.
  61              	.LVL3:
  62              		.loc 1 99 0
  63 0000 0020     		movs	r0, #0
  64              	.LVL4:
  65 0002 7047     		bx	lr
  66              		.cfi_endproc
  67              	.LFE232:
  68              		.size	_lseek_r, .-_lseek_r
  69              		.section	.text._write_r,"ax",%progbits
  70              		.align	2
  71              		.p2align 4,,15
  72              		.global	_write_r
  73              		.thumb
  74              		.thumb_func
  75              		.type	_write_r, %function
  76              	_write_r:
  77              	.LFB233:
  78              		.loc 1 104 0
  79              		.cfi_startproc
  80              		@ args = 0, pretend = 0, frame = 0
  81              		@ frame_needed = 0, uses_anonymous_args = 0
  82              		@ link register save eliminated.
  83              	.LVL5:
  84              		.loc 1 116 0
  85 0000 1846     		mov	r0, r3
  86              	.LVL6:
  87 0002 7047     		bx	lr
  88              		.cfi_endproc
  89              	.LFE233:
  90              		.size	_write_r, .-_write_r
  91              		.section	.text._close_r,"ax",%progbits
  92              		.align	2
  93              		.p2align 4,,15
  94              		.global	_close_r
  95              		.thumb
  96              		.thumb_func
  97              		.type	_close_r, %function
  98              	_close_r:
  99              	.LFB234:
 100              		.loc 1 121 0
 101              		.cfi_startproc
 102              		@ args = 0, pretend = 0, frame = 0
 103              		@ frame_needed = 0, uses_anonymous_args = 0
 104              		@ link register save eliminated.
 105              	.LVL7:
 106              		.loc 1 126 0
 107 0000 0020     		movs	r0, #0
 108              	.LVL8:
 109 0002 7047     		bx	lr
 110              		.cfi_endproc
 111              	.LFE234:
 112              		.size	_close_r, .-_close_r
 113              		.section	.text._sbrk_r,"ax",%progbits
 114              		.align	2
ARM GAS  /var/folders/m4/4md61f0s1_g0rzfghffqnxvr0000gn/T//cclTd5Ut.s 			page 3


 115              		.p2align 4,,15
 116              		.global	_sbrk_r
 117              		.thumb
 118              		.thumb_func
 119              		.type	_sbrk_r, %function
 120              	_sbrk_r:
 121              	.LFB235:
 122              		.loc 1 131 0
 123              		.cfi_startproc
 124              		@ args = 0, pretend = 0, frame = 0
 125              		@ frame_needed = 0, uses_anonymous_args = 0
 126              	.LVL9:
 127 0000 10B5     		push	{r4, lr}
 128              		.cfi_def_cfa_offset 8
 129              		.cfi_offset 4, -8
 130              		.cfi_offset 14, -4
 131              		.loc 1 131 0
 132 0002 0446     		mov	r4, r0
 133              		.loc 1 137 0
 134 0004 0846     		mov	r0, r1
 135              	.LVL10:
 136 0006 FFF7FEFF 		bl	chCoreAlloc
 137              	.LVL11:
 138              		.loc 1 138 0
 139 000a 00B1     		cbz	r0, .L10
 140              		.loc 1 148 0
 141 000c 10BD     		pop	{r4, pc}
 142              	.LVL12:
 143              	.L10:
 144              		.loc 1 139 0
 145 000e 0C23     		movs	r3, #12
 146 0010 2360     		str	r3, [r4]
 147              		.loc 1 140 0
 148 0012 4FF0FF30 		mov	r0, #-1
 149              	.LVL13:
 150              		.loc 1 148 0
 151 0016 10BD     		pop	{r4, pc}
 152              		.cfi_endproc
 153              	.LFE235:
 154              		.size	_sbrk_r, .-_sbrk_r
 155              		.section	.text._fstat_r,"ax",%progbits
 156              		.align	2
 157              		.p2align 4,,15
 158              		.global	_fstat_r
 159              		.thumb
 160              		.thumb_func
 161              		.type	_fstat_r, %function
 162              	_fstat_r:
 163              	.LFB236:
 164              		.loc 1 153 0
 165              		.cfi_startproc
 166              		@ args = 0, pretend = 0, frame = 0
 167              		@ frame_needed = 0, uses_anonymous_args = 0
 168              	.LVL14:
 169 0000 10B5     		push	{r4, lr}
 170              		.cfi_def_cfa_offset 8
 171              		.cfi_offset 4, -8
ARM GAS  /var/folders/m4/4md61f0s1_g0rzfghffqnxvr0000gn/T//cclTd5Ut.s 			page 4


 172              		.cfi_offset 14, -4
 173              		.loc 1 157 0
 174 0002 1046     		mov	r0, r2
 175              	.LVL15:
 176              		.loc 1 153 0
 177 0004 1446     		mov	r4, r2
 178              		.loc 1 157 0
 179 0006 0021     		movs	r1, #0
 180              	.LVL16:
 181 0008 3C22     		movs	r2, #60
 182              	.LVL17:
 183 000a FFF7FEFF 		bl	memset
 184              	.LVL18:
 185              		.loc 1 158 0
 186 000e 4FF40053 		mov	r3, #8192
 187 0012 6360     		str	r3, [r4, #4]
 188              		.loc 1 160 0
 189 0014 0020     		movs	r0, #0
 190 0016 10BD     		pop	{r4, pc}
 191              		.cfi_endproc
 192              	.LFE236:
 193              		.size	_fstat_r, .-_fstat_r
 194              		.section	.text._isatty_r,"ax",%progbits
 195              		.align	2
 196              		.p2align 4,,15
 197              		.global	_isatty_r
 198              		.thumb
 199              		.thumb_func
 200              		.type	_isatty_r, %function
 201              	_isatty_r:
 202              	.LFB237:
 203              		.loc 1 165 0
 204              		.cfi_startproc
 205              		@ args = 0, pretend = 0, frame = 0
 206              		@ frame_needed = 0, uses_anonymous_args = 0
 207              		@ link register save eliminated.
 208              	.LVL19:
 209              		.loc 1 170 0
 210 0000 0120     		movs	r0, #1
 211              	.LVL20:
 212 0002 7047     		bx	lr
 213              		.cfi_endproc
 214              	.LFE237:
 215              		.size	_isatty_r, .-_isatty_r
 216              		.text
 217              	.Letext0:
 218              		.file 2 "/usr/local/Cellar/gcc-arm-none-eabi-49/20150609/lib/gcc/arm-none-eabi/4.9.3/include/stdde
 219              		.file 3 "/usr/local/Cellar/gcc-arm-none-eabi-49/20150609/arm-none-eabi/include/machine/_default_ty
 220              		.file 4 "/usr/local/Cellar/gcc-arm-none-eabi-49/20150609/arm-none-eabi/include/sys/lock.h"
 221              		.file 5 "/usr/local/Cellar/gcc-arm-none-eabi-49/20150609/arm-none-eabi/include/sys/_types.h"
 222              		.file 6 "/usr/local/Cellar/gcc-arm-none-eabi-49/20150609/arm-none-eabi/include/sys/reent.h"
 223              		.file 7 "/usr/local/Cellar/gcc-arm-none-eabi-49/20150609/arm-none-eabi/include/sys/_stdint.h"
 224              		.file 8 "/usr/local/Cellar/gcc-arm-none-eabi-49/20150609/arm-none-eabi/include/sys/types.h"
 225              		.file 9 "/usr/local/Cellar/gcc-arm-none-eabi-49/20150609/arm-none-eabi/include/sys/stat.h"
 226              		.file 10 "ChibiOS_16.1.4/os/rt/ports/ARMCMx/compilers/GCC/chtypes.h"
 227              		.file 11 "ChibiOS_16.1.4/os/rt/include/chsystypes.h"
 228              		.file 12 "ChibiOS_16.1.4/os/rt/include/chschd.h"
ARM GAS  /var/folders/m4/4md61f0s1_g0rzfghffqnxvr0000gn/T//cclTd5Ut.s 			page 5


 229              		.file 13 "ChibiOS_16.1.4/os/rt/ports/ARMCMx/chcore.h"
 230              		.file 14 "ChibiOS_16.1.4/os/rt/ports/ARMCMx/chcore_v7m.h"
 231              		.file 15 "ChibiOS_16.1.4/os/rt/include/chtm.h"
 232              		.file 16 "ChibiOS_16.1.4/os/rt/include/chsem.h"
 233              		.file 17 "ChibiOS_16.1.4/os/rt/include/chmtx.h"
 234              		.file 18 "ChibiOS_16.1.4/os/ext/CMSIS/include/core_cm4.h"
 235              		.file 19 "ChibiOS_16.1.4/os/rt/include/chmemcore.h"