ARM GAS  /var/folders/m4/4md61f0s1_g0rzfghffqnxvr0000gn/T//cclTd5Ut.s 			page 1


   1              		.syntax unified
   2              		.cpu cortex-m4
   3              		.eabi_attribute 27, 1
   4              		.eabi_attribute 28, 1
   5              		.fpu fpv4-sp-d16
   6              		.eabi_attribute 20, 1
   7              		.eabi_attribute 21, 1
   8              		.eabi_attribute 23, 3
   9              		.eabi_attribute 24, 1
  10              		.eabi_attribute 25, 1
  11              		.eabi_attribute 26, 1
  12              		.eabi_attribute 30, 2
  13              		.eabi_attribute 34, 1
  14              		.eabi_attribute 18, 4
  15              		.thumb
  16              		.file	"syscalls.c"
  17              		.text
  18              	.Ltext0:
  19              		.cfi_sections	.debug_frame
  20              		.section	.text._read_r,"ax",%progbits
  21              		.align	2
  22              		.p2align 4,,15
  23              		.global	_read_r
  24              		.thumb
  25              		.thumb_func
  26              		.type	_read_r, %function
  27              	_read_r:
  28              	.LFB231:
  29              		.file 1 "ChibiOS_16.1.4/os/various/syscalls.c"
  30              		.loc 1 71 0
  31              		.cfi_startproc
  32              		@ args = 0, pretend = 0, frame = 0
  33              		@ frame_needed = 0, uses_anonymous_args = 0
  34              		@ link register save eliminated.
  35              	.LVL0:
  36              		.loc 1 84 0
  37 0000 1623     		movs	r3, #22
  38              	.LVL1:
  39 0002 0360     		str	r3, [r0]
  40              		.loc 1 87 0
  41 0004 4FF0FF30 		mov	r0, #-1
  42              	.LVL2:
  43 0008 7047     		bx	lr
  44              		.cfi_endproc
  45              	.LFE231:
  46              		.size	_read_r, .-_read_r
  47 000a 00BF     		.section	.text._lseek_r,"ax",%progbits
  48              		.align	2
  49              		.p2align 4,,15
  50              		.global	_lseek_r
  51              		.thumb
  52              		.thumb_func
  53              		.type	_lseek_r, %function
  54              	_lseek_r:
  55              	.LFB232:
  56              		.loc 1 92 0
  57              		.cfi_startproc
ARM GAS  /var/folders/m4/4md61f0s1_g0rzfghffqnxvr0000gn/T//cclTd5Ut.s 			page 2


  58              		@ args = 0, pretend = 0, frame = 0
  59              		@ frame_needed = 0, uses_anonymous_args = 0
  60              		@ link register save eliminated.
  61              	.LVL3:
  62              		.loc 1 99 0
  63 0000 0020     		movs	r0, #0
  64              	.LVL4:
  65 0002 7047     		bx	lr
  66              		.cfi_endproc
  67              	.LFE232:
  68              		.size	_lseek_r, .-_lseek_r
  69              		.section	.text._write_r,"ax",%progbits
  70              		.align	2
  71              		.p2align 4,,15
  72              		.global	_write_r
  73              		.thumb
  74              		.thumb_func
  75              		.type	_write_r, %function
  76              	_write_r:
  77              	.LFB233:
  78              		.loc 1 104 0
  79              		.cfi_startproc
  80              		@ args = 0, pretend = 0, frame = 0
  81              		@ frame_needed = 0, uses_anonymous_args = 0
  82              		@ link register save eliminated.
  83              	.LVL5:
  84              		.loc 1 116 0
  85 0000 1846     		mov	r0, r3
  86              	.LVL6:
  87 0002 7047     		bx	lr
  88              		.cfi_endproc
  89              	.LFE233:
  90              		.size	_write_r, .-_write_r
  91              		.section	.text._close_r,"ax",%progbits
  92              		.align	2
  93              		.p2align 4,,15
  94              		.global	_close_r
  95              		.thumb
  96              		.thumb_func
  97              		.type	_close_r, %function
  98              	_close_r:
  99              	.LFB234:
 100              		.loc 1 121 0
 101              		.cfi_startproc
 102              		@ args = 0, pretend = 0, frame = 0
 103              		@ frame_needed = 0, uses_anonymous_args = 0
 104              		@ link register save eliminated.
 105              	.LVL7:
 106              		.loc 1 126 0
 107 0000 0020     		movs	r0, #0
 108              	.LVL8:
 109 0002 7047     		bx	lr
 110              		.cfi_endproc
 111              	.LFE234:
 112              		.size	_close_r, .-_close_r
 113              		.section	.text._sbrk_r,"ax",%progbits
 114              		.align	2
ARM GAS  /var/folders/m4/4md61f0s1_g0rzfghffqnxvr0000gn/T//cclTd5Ut.s 			page 3


 115              		.p2align 4,,15
 116              		.global	_sbrk_r
 117              		.thumb
 118              		.thumb_func
 119              		.type	_sbrk_r, %function
 120              	_sbrk_r:
 121              	.LFB235:
 122              		.loc 1 131 0
 123              		.cfi_startproc
 124              		@ args = 0, pretend = 0, frame = 0
 125              		@ frame_needed = 0, uses_anonymous_args = 0
 126              	.LVL9:
 127 0000 10B5     		push	{r4, lr}
 128              		.cfi_def_cfa_offset 8
 129              		.cfi_offset 4, -8
 130              		.cfi_offset 14, -4
 131              		.loc 1 131 0
 132 0002 0446     		mov	r4, r0
 133              		.loc 1 137 0
 134 0004 0846     		mov	r0, r1
 135              	.LVL10:
 136 0006 FFF7FEFF 		bl	chCoreAlloc
 137              	.LVL11:
 138              		.loc 1 138 0
 139 000a 00B1     		cbz	r0, .L10
 140              		.loc 1 148 0
 141 000c 10BD     		pop	{r4, pc}
 142              	.LVL12:
 143              	.L10:
 144              		.loc 1 139 0
 145 000e 0C23     		movs	r3, #12
 146 0010 2360     		str	r3, [r4]
 147              		.loc 1 140 0
 148 0012 4FF0FF30 		mov	r0, #-1
 149              	.LVL13:
 150              		.loc 1 148 0
 151 0016 10BD     		pop	{r4, pc}
 152              		.cfi_endproc
 153              	.LFE235:
 154              		.size	_sbrk_r, .-_sbrk_r
 155              		.section	.text._fstat_r,"ax",%progbits
 156              		.align	2
 157              		.p2align 4,,15
 158              		.global	_fstat_r
 159              		.thumb
 160              		.thumb_func
 161              		.type	_fstat_r, %function
 162              	_fstat_r:
 163              	.LFB236:
 164              		.loc 1 153 0
 165              		.cfi_startproc
 166              		@ args = 0, pretend = 0, frame = 0
 167              		@ frame_needed = 0, uses_anonymous_args = 0
 168              	.LVL14:
 169 0000 10B5     		push	{r4, lr}
 170              		.cfi_def_cfa_offset 8
 171              		.cfi_offset 4, -8
ARM GAS  /var/folders/m4/4md61f0s1_g0rzfghffqnxvr0000gn/T//cclTd5Ut.s 			page 4


 172              		.cfi_offset 14, -4
 173              		.loc 1 157 0
 174 0002 1046     		mov	r0, r2
 175              	.LVL15:
 176              		.loc 1 153 0
 177 0004 1446     		mov	r4, r2
 178              		.loc 1 157 0
 179 0006 0021     		movs	r1, #0
 180              	.LVL16:
 181 0008 3C22     		movs	r2, #60
 182              	.LVL17:
 183 000a FFF7FEFF 		bl	memset
 184              	.LVL18:
 185              		.loc 1 158 0
 186 000e 4FF40053 		mov	r3, #8192
 187 0012 6360     		str	r3, [r4, #4]
 188              		.loc 1 160 0
 189 0014 0020     		movs	r0, #0
 190 0016 10BD     		pop	{r4, pc}
 191              		.cfi_endproc
 192              	.LFE236:
 193              		.size	_fstat_r, .-_fstat_r
 194              		.section	.text._isatty_r,"ax",%progbits
 195              		.align	2
 196              		.p2align 4,,15
 197              		.global	_isatty_r
 198              		.thumb
 199              		.thumb_func
 200              		.type	_isatty_r, %function
 201              	_isatty_r:
 202              	.LFB237:
 203              		.loc 1 165 0
 204              		.cfi_startproc
 205              		@ args = 0, pretend = 0, frame = 0
 206              		@ frame_needed = 0, uses_anonymous_args = 0
 207              		@ link register save eliminated.
 208              	.LVL19:
 209              		.loc 1 170 0
 210 0000 0120     		movs	r0, #1
 211              	.LVL20:
 212 0002 7047     		bx	lr
 213              		.cfi_endproc
 214              	.LFE237:
 215              		.size	_isatty_r, .-_isatty_r
 216              		.text
 217              	.Letext0:
 218              		.file 2 "/usr/local/Cellar/gcc-arm-none-eabi-49/20150609/lib/gcc/arm-none-eabi/4.9.3/include/stdde
 219              		.file 3 "/usr/local/Cellar/gcc-arm-none-eabi-49/20150609/arm-none-eabi/include/machine/_default_ty
 220              		.file 4 "/usr/local/Cellar/gcc-arm-none-eabi-49/20150609/arm-none-eabi/include/sys/lock.h"
 221              		.file 5 "/usr/local/Cellar/gcc-arm-none-eabi-49/20150609/arm-none-eabi/include/sys/_types.h"
 222              		.file 6 "/usr/local/Cellar/gcc-arm-none-eabi-49/20150609/arm-none-eabi/include/sys/reent.h"
 223              		.file 7 "/usr/local/Cellar/gcc-arm-none-eabi-49/20150609/arm-none-eabi/include/sys/_stdint.h"
 224              		.file 8 "/usr/local/Cellar/gcc-arm-none-eabi-49/20150609/arm-none-eabi/include/sys/types.h"
 225              		.file 9 "/usr/local/Cellar/gcc-arm-none-eabi-49/20150609/arm-none-eabi/include/sys/stat.h"
 226              		.file 10 "ChibiOS_16.1.4/os/rt/ports/ARMCMx/compilers/GCC/chtypes.h"
 227              		.file 11 "ChibiOS_16.1.4/os/rt/include/chsystypes.h"
 228              		.file 12 "ChibiOS_16.1.4/os/rt/include/chschd.h"
ARM GAS  /var/folders/m4/4md61f0s1_g0rzfghffqnxvr0000gn/T//cclTd5Ut.s 			page 5


 229              		.file 13 "ChibiOS_16.1.4/os/rt/ports/ARMCMx/chcore.h"
 230              		.file 14 "ChibiOS_16.1.4/os/rt/ports/ARMCMx/chcore_v7m.h"
 231              		.file 15 "ChibiOS_16.1.4/os/rt/include/chtm.h"
 232              		.file 16 "ChibiOS_16.1.4/os/rt/include/chsem.h"
 233              		.file 17 "ChibiOS_16.1.4/os/rt/include/chmtx.h"
 234              		.file 18 "ChibiOS_16.1.4/os/ext/CMSIS/include/core_cm4.h"
 235              		.file 19 "ChibiOS_16.1.4/os/rt/include/chmemcore.h"
 236              		.section	.debug_info,"",%progbits
 237              	.Ldebug_info0:
 238 0000 C1120000 		.4byte	0x12c1
 239 0004 0400     		.2byte	0x4
 240 0006 00000000 		.4byte	.Ldebug_abbrev0
 241 000a 04       		.byte	0x4
 242 000b 01       		.uleb128 0x1
 243 000c 86080000 		.4byte	.LASF251
 244 0010 01       		.byte	0x1
 245 0011 D3090000 		.4byte	.LASF252
 246 0015 520A0000 		.4byte	.LASF253
 247 0019 00000000 		.4byte	.Ldebug_ranges0+0
 248 001d 00000000 		.4byte	0
 249 0021 00000000 		.4byte	.Ldebug_line0
 250 0025 02       		.uleb128 0x2
 251 0026 00000000 		.4byte	.LASF2
 252 002a 02       		.byte	0x2
 253 002b D4       		.byte	0xd4
 254 002c 30000000 		.4byte	0x30
 255 0030 03       		.uleb128 0x3
 256 0031 04       		.byte	0x4
 257 0032 07       		.byte	0x7
 258 0033 24050000 		.4byte	.LASF0
 259 0037 04       		.uleb128 0x4
 260 0038 04       		.byte	0x4
 261 0039 05       		.byte	0x5
 262 003a 696E7400 		.ascii	"int\000"
 263 003e 03       		.uleb128 0x3
 264 003f 01       		.byte	0x1
 265 0040 06       		.byte	0x6
 266 0041 FC010000 		.4byte	.LASF1
 267 0045 02       		.uleb128 0x2
 268 0046 29010000 		.4byte	.LASF3
 269 004a 03       		.byte	0x3
 270 004b 1D       		.byte	0x1d
 271 004c 50000000 		.4byte	0x50
 272 0050 03       		.uleb128 0x3
 273 0051 01       		.byte	0x1
 274 0052 08       		.byte	0x8
 275 0053 59020000 		.4byte	.LASF4
 276 0057 03       		.uleb128 0x3
 277 0058 02       		.byte	0x2
 278 0059 05       		.byte	0x5
 279 005a B6070000 		.4byte	.LASF5
 280 005e 03       		.uleb128 0x3
 281 005f 02       		.byte	0x2
 282 0060 07       		.byte	0x7
 283 0061 B6090000 		.4byte	.LASF6
 284 0065 02       		.uleb128 0x2
 285 0066 150A0000 		.4byte	.LASF7
ARM GAS  /var/folders/m4/4md61f0s1_g0rzfghffqnxvr0000gn/T//cclTd5Ut.s 			page 6


 286 006a 03       		.byte	0x3
 287 006b 3F       		.byte	0x3f
 288 006c 70000000 		.4byte	0x70
 289 0070 03       		.uleb128 0x3
 290 0071 04       		.byte	0x4
 291 0072 05       		.byte	0x5
 292 0073 72010000 		.4byte	.LASF8
 293 0077 02       		.uleb128 0x2
 294 0078 6F040000 		.4byte	.LASF9
 295 007c 03       		.byte	0x3
 296 007d 41       		.byte	0x41
 297 007e 82000000 		.4byte	0x82
 298 0082 03       		.uleb128 0x3
 299 0083 04       		.byte	0x4
 300 0084 07       		.byte	0x7
 301 0085 75030000 		.4byte	.LASF10
 302 0089 03       		.uleb128 0x3
 303 008a 08       		.byte	0x8
 304 008b 05       		.byte	0x5
 305 008c 85040000 		.4byte	.LASF11
 306 0090 02       		.uleb128 0x2
 307 0091 5F030000 		.4byte	.LASF12
 308 0095 03       		.byte	0x3
 309 0096 5B       		.byte	0x5b
 310 0097 9B000000 		.4byte	0x9b
 311 009b 03       		.uleb128 0x3
 312 009c 08       		.byte	0x8
 313 009d 07       		.byte	0x7
 314 009e 90060000 		.4byte	.LASF13
 315 00a2 02       		.uleb128 0x2
 316 00a3 D7030000 		.4byte	.LASF14
 317 00a7 04       		.byte	0x4
 318 00a8 07       		.byte	0x7
 319 00a9 37000000 		.4byte	0x37
 320 00ad 02       		.uleb128 0x2
 321 00ae 7F080000 		.4byte	.LASF15
 322 00b2 05       		.byte	0x5
 323 00b3 10       		.byte	0x10
 324 00b4 70000000 		.4byte	0x70
 325 00b8 02       		.uleb128 0x2
 326 00b9 33010000 		.4byte	.LASF16
 327 00bd 05       		.byte	0x5
 328 00be 14       		.byte	0x14
 329 00bf 57000000 		.4byte	0x57
 330 00c3 02       		.uleb128 0x2
 331 00c4 3E080000 		.4byte	.LASF17
 332 00c8 05       		.byte	0x5
 333 00c9 18       		.byte	0x18
 334 00ca 5E000000 		.4byte	0x5e
 335 00ce 02       		.uleb128 0x2
 336 00cf B1000000 		.4byte	.LASF18
 337 00d3 05       		.byte	0x5
 338 00d4 1B       		.byte	0x1b
 339 00d5 5E000000 		.4byte	0x5e
 340 00d9 02       		.uleb128 0x2
 341 00da 5C060000 		.4byte	.LASF19
 342 00de 05       		.byte	0x5
ARM GAS  /var/folders/m4/4md61f0s1_g0rzfghffqnxvr0000gn/T//cclTd5Ut.s 			page 7


 343 00df 27       		.byte	0x27
 344 00e0 70000000 		.4byte	0x70
 345 00e4 05       		.uleb128 0x5
 346 00e5 53070000 		.4byte	.LASF20
 347 00e9 02       		.byte	0x2
 348 00ea 6101     		.2byte	0x161
 349 00ec 30000000 		.4byte	0x30
 350 00f0 06       		.uleb128 0x6
 351 00f1 04       		.byte	0x4
 352 00f2 05       		.byte	0x5
 353 00f3 4A       		.byte	0x4a
 354 00f4 0F010000 		.4byte	0x10f
 355 00f8 07       		.uleb128 0x7
 356 00f9 1A010000 		.4byte	.LASF21
 357 00fd 05       		.byte	0x5
 358 00fe 4C       		.byte	0x4c
 359 00ff E4000000 		.4byte	0xe4
 360 0103 07       		.uleb128 0x7
 361 0104 64060000 		.4byte	.LASF22
 362 0108 05       		.byte	0x5
 363 0109 4D       		.byte	0x4d
 364 010a 0F010000 		.4byte	0x10f
 365 010e 00       		.byte	0
 366 010f 08       		.uleb128 0x8
 367 0110 50000000 		.4byte	0x50
 368 0114 1F010000 		.4byte	0x11f
 369 0118 09       		.uleb128 0x9
 370 0119 1F010000 		.4byte	0x11f
 371 011d 03       		.byte	0x3
 372 011e 00       		.byte	0
 373 011f 03       		.uleb128 0x3
 374 0120 04       		.byte	0x4
 375 0121 07       		.byte	0x7
 376 0122 07000000 		.4byte	.LASF23
 377 0126 0A       		.uleb128 0xa
 378 0127 08       		.byte	0x8
 379 0128 05       		.byte	0x5
 380 0129 47       		.byte	0x47
 381 012a 47010000 		.4byte	0x147
 382 012e 0B       		.uleb128 0xb
 383 012f E5050000 		.4byte	.LASF24
 384 0133 05       		.byte	0x5
 385 0134 49       		.byte	0x49
 386 0135 37000000 		.4byte	0x37
 387 0139 00       		.byte	0
 388 013a 0B       		.uleb128 0xb
 389 013b 10000000 		.4byte	.LASF25
 390 013f 05       		.byte	0x5
 391 0140 4E       		.byte	0x4e
 392 0141 F0000000 		.4byte	0xf0
 393 0145 04       		.byte	0x4
 394 0146 00       		.byte	0
 395 0147 02       		.uleb128 0x2
 396 0148 3B070000 		.4byte	.LASF26
 397 014c 05       		.byte	0x5
 398 014d 4F       		.byte	0x4f
 399 014e 26010000 		.4byte	0x126
ARM GAS  /var/folders/m4/4md61f0s1_g0rzfghffqnxvr0000gn/T//cclTd5Ut.s 			page 8


 400 0152 02       		.uleb128 0x2
 401 0153 2B070000 		.4byte	.LASF27
 402 0157 05       		.byte	0x5
 403 0158 53       		.byte	0x53
 404 0159 A2000000 		.4byte	0xa2
 405 015d 0C       		.uleb128 0xc
 406 015e 04       		.byte	0x4
 407 015f 02       		.uleb128 0x2
 408 0160 66080000 		.4byte	.LASF28
 409 0164 06       		.byte	0x6
 410 0165 16       		.byte	0x16
 411 0166 82000000 		.4byte	0x82
 412 016a 0D       		.uleb128 0xd
 413 016b 2C040000 		.4byte	.LASF33
 414 016f 18       		.byte	0x18
 415 0170 06       		.byte	0x6
 416 0171 2D       		.byte	0x2d
 417 0172 BD010000 		.4byte	0x1bd
 418 0176 0B       		.uleb128 0xb
 419 0177 5A070000 		.4byte	.LASF29
 420 017b 06       		.byte	0x6
 421 017c 2F       		.byte	0x2f
 422 017d BD010000 		.4byte	0x1bd
 423 0181 00       		.byte	0
 424 0182 0E       		.uleb128 0xe
 425 0183 5F6B00   		.ascii	"_k\000"
 426 0186 06       		.byte	0x6
 427 0187 30       		.byte	0x30
 428 0188 37000000 		.4byte	0x37
 429 018c 04       		.byte	0x4
 430 018d 0B       		.uleb128 0xb
 431 018e 44040000 		.4byte	.LASF30
 432 0192 06       		.byte	0x6
 433 0193 30       		.byte	0x30
 434 0194 37000000 		.4byte	0x37
 435 0198 08       		.byte	0x8
 436 0199 0B       		.uleb128 0xb
 437 019a 05050000 		.4byte	.LASF31
 438 019e 06       		.byte	0x6
 439 019f 30       		.byte	0x30
 440 01a0 37000000 		.4byte	0x37
 441 01a4 0C       		.byte	0xc
 442 01a5 0B       		.uleb128 0xb
 443 01a6 2B030000 		.4byte	.LASF32
 444 01aa 06       		.byte	0x6
 445 01ab 30       		.byte	0x30
 446 01ac 37000000 		.4byte	0x37
 447 01b0 10       		.byte	0x10
 448 01b1 0E       		.uleb128 0xe
 449 01b2 5F7800   		.ascii	"_x\000"
 450 01b5 06       		.byte	0x6
 451 01b6 31       		.byte	0x31
 452 01b7 C3010000 		.4byte	0x1c3
 453 01bb 14       		.byte	0x14
 454 01bc 00       		.byte	0
 455 01bd 0F       		.uleb128 0xf
 456 01be 04       		.byte	0x4
ARM GAS  /var/folders/m4/4md61f0s1_g0rzfghffqnxvr0000gn/T//cclTd5Ut.s 			page 9


 457 01bf 6A010000 		.4byte	0x16a
 458 01c3 08       		.uleb128 0x8
 459 01c4 5F010000 		.4byte	0x15f
 460 01c8 D3010000 		.4byte	0x1d3
 461 01cc 09       		.uleb128 0x9
 462 01cd 1F010000 		.4byte	0x11f
 463 01d1 00       		.byte	0
 464 01d2 00       		.byte	0
 465 01d3 0D       		.uleb128 0xd
 466 01d4 C1000000 		.4byte	.LASF34
 467 01d8 24       		.byte	0x24
 468 01d9 06       		.byte	0x6
 469 01da 35       		.byte	0x35
 470 01db 4C020000 		.4byte	0x24c
 471 01df 0B       		.uleb128 0xb
 472 01e0 DD000000 		.4byte	.LASF35
 473 01e4 06       		.byte	0x6
 474 01e5 37       		.byte	0x37
 475 01e6 37000000 		.4byte	0x37
 476 01ea 00       		.byte	0
 477 01eb 0B       		.uleb128 0xb
 478 01ec 8B0A0000 		.4byte	.LASF36
 479 01f0 06       		.byte	0x6
 480 01f1 38       		.byte	0x38
 481 01f2 37000000 		.4byte	0x37
 482 01f6 04       		.byte	0x4
 483 01f7 0B       		.uleb128 0xb
 484 01f8 C9090000 		.4byte	.LASF37
 485 01fc 06       		.byte	0x6
 486 01fd 39       		.byte	0x39
 487 01fe 37000000 		.4byte	0x37
 488 0202 08       		.byte	0x8
 489 0203 0B       		.uleb128 0xb
 490 0204 76050000 		.4byte	.LASF38
 491 0208 06       		.byte	0x6
 492 0209 3A       		.byte	0x3a
 493 020a 37000000 		.4byte	0x37
 494 020e 0C       		.byte	0xc
 495 020f 0B       		.uleb128 0xb
 496 0210 D4010000 		.4byte	.LASF39
 497 0214 06       		.byte	0x6
 498 0215 3B       		.byte	0x3b
 499 0216 37000000 		.4byte	0x37
 500 021a 10       		.byte	0x10
 501 021b 0B       		.uleb128 0xb
 502 021c F2070000 		.4byte	.LASF40
 503 0220 06       		.byte	0x6
 504 0221 3C       		.byte	0x3c
 505 0222 37000000 		.4byte	0x37
 506 0226 14       		.byte	0x14
 507 0227 0B       		.uleb128 0xb
 508 0228 03060000 		.4byte	.LASF41
 509 022c 06       		.byte	0x6
 510 022d 3D       		.byte	0x3d
 511 022e 37000000 		.4byte	0x37
 512 0232 18       		.byte	0x18
 513 0233 0B       		.uleb128 0xb
ARM GAS  /var/folders/m4/4md61f0s1_g0rzfghffqnxvr0000gn/T//cclTd5Ut.s 			page 10


 514 0234 1F060000 		.4byte	.LASF42
 515 0238 06       		.byte	0x6
 516 0239 3E       		.byte	0x3e
 517 023a 37000000 		.4byte	0x37
 518 023e 1C       		.byte	0x1c
 519 023f 0B       		.uleb128 0xb
 520 0240 400A0000 		.4byte	.LASF43
 521 0244 06       		.byte	0x6
 522 0245 3F       		.byte	0x3f
 523 0246 37000000 		.4byte	0x37
 524 024a 20       		.byte	0x20
 525 024b 00       		.byte	0
 526 024c 10       		.uleb128 0x10
 527 024d 4E010000 		.4byte	.LASF44
 528 0251 0801     		.2byte	0x108
 529 0253 06       		.byte	0x6
 530 0254 48       		.byte	0x48
 531 0255 8C020000 		.4byte	0x28c
 532 0259 0B       		.uleb128 0xb
 533 025a 380A0000 		.4byte	.LASF45
 534 025e 06       		.byte	0x6
 535 025f 49       		.byte	0x49
 536 0260 8C020000 		.4byte	0x28c
 537 0264 00       		.byte	0
 538 0265 0B       		.uleb128 0xb
 539 0266 AF060000 		.4byte	.LASF46
 540 026a 06       		.byte	0x6
 541 026b 4A       		.byte	0x4a
 542 026c 8C020000 		.4byte	0x28c
 543 0270 80       		.byte	0x80
 544 0271 11       		.uleb128 0x11
 545 0272 D2070000 		.4byte	.LASF47
 546 0276 06       		.byte	0x6
 547 0277 4C       		.byte	0x4c
 548 0278 5F010000 		.4byte	0x15f
 549 027c 0001     		.2byte	0x100
 550 027e 11       		.uleb128 0x11
 551 027f 26080000 		.4byte	.LASF48
 552 0283 06       		.byte	0x6
 553 0284 4F       		.byte	0x4f
 554 0285 5F010000 		.4byte	0x15f
 555 0289 0401     		.2byte	0x104
 556 028b 00       		.byte	0
 557 028c 08       		.uleb128 0x8
 558 028d 5D010000 		.4byte	0x15d
 559 0291 9C020000 		.4byte	0x29c
 560 0295 09       		.uleb128 0x9
 561 0296 1F010000 		.4byte	0x11f
 562 029a 1F       		.byte	0x1f
 563 029b 00       		.byte	0
 564 029c 10       		.uleb128 0x10
 565 029d D6050000 		.4byte	.LASF49
 566 02a1 9001     		.2byte	0x190
 567 02a3 06       		.byte	0x6
 568 02a4 5B       		.byte	0x5b
 569 02a5 DA020000 		.4byte	0x2da
 570 02a9 0B       		.uleb128 0xb
ARM GAS  /var/folders/m4/4md61f0s1_g0rzfghffqnxvr0000gn/T//cclTd5Ut.s 			page 11


 571 02aa 5A070000 		.4byte	.LASF29
 572 02ae 06       		.byte	0x6
 573 02af 5C       		.byte	0x5c
 574 02b0 DA020000 		.4byte	0x2da
 575 02b4 00       		.byte	0
 576 02b5 0B       		.uleb128 0xb
 577 02b6 11080000 		.4byte	.LASF50
 578 02ba 06       		.byte	0x6
 579 02bb 5D       		.byte	0x5d
 580 02bc 37000000 		.4byte	0x37
 581 02c0 04       		.byte	0x4
 582 02c1 0B       		.uleb128 0xb
 583 02c2 AB020000 		.4byte	.LASF51
 584 02c6 06       		.byte	0x6
 585 02c7 5F       		.byte	0x5f
 586 02c8 E0020000 		.4byte	0x2e0
 587 02cc 08       		.byte	0x8
 588 02cd 0B       		.uleb128 0xb
 589 02ce 4E010000 		.4byte	.LASF44
 590 02d2 06       		.byte	0x6
 591 02d3 60       		.byte	0x60
 592 02d4 4C020000 		.4byte	0x24c
 593 02d8 88       		.byte	0x88
 594 02d9 00       		.byte	0
 595 02da 0F       		.uleb128 0xf
 596 02db 04       		.byte	0x4
 597 02dc 9C020000 		.4byte	0x29c
 598 02e0 08       		.uleb128 0x8
 599 02e1 F0020000 		.4byte	0x2f0
 600 02e5 F0020000 		.4byte	0x2f0
 601 02e9 09       		.uleb128 0x9
 602 02ea 1F010000 		.4byte	0x11f
 603 02ee 1F       		.byte	0x1f
 604 02ef 00       		.byte	0
 605 02f0 0F       		.uleb128 0xf
 606 02f1 04       		.byte	0x4
 607 02f2 F6020000 		.4byte	0x2f6
 608 02f6 12       		.uleb128 0x12
 609 02f7 0D       		.uleb128 0xd
 610 02f8 16080000 		.4byte	.LASF52
 611 02fc 08       		.byte	0x8
 612 02fd 06       		.byte	0x6
 613 02fe 73       		.byte	0x73
 614 02ff 1C030000 		.4byte	0x31c
 615 0303 0B       		.uleb128 0xb
 616 0304 F5060000 		.4byte	.LASF53
 617 0308 06       		.byte	0x6
 618 0309 74       		.byte	0x74
 619 030a 1C030000 		.4byte	0x31c
 620 030e 00       		.byte	0
 621 030f 0B       		.uleb128 0xb
 622 0310 8C010000 		.4byte	.LASF54
 623 0314 06       		.byte	0x6
 624 0315 75       		.byte	0x75
 625 0316 37000000 		.4byte	0x37
 626 031a 04       		.byte	0x4
 627 031b 00       		.byte	0
ARM GAS  /var/folders/m4/4md61f0s1_g0rzfghffqnxvr0000gn/T//cclTd5Ut.s 			page 12


 628 031c 0F       		.uleb128 0xf
 629 031d 04       		.byte	0x4
 630 031e 50000000 		.4byte	0x50
 631 0322 0D       		.uleb128 0xd
 632 0323 87030000 		.4byte	.LASF55
 633 0327 68       		.byte	0x68
 634 0328 06       		.byte	0x6
 635 0329 B3       		.byte	0xb3
 636 032a 4C040000 		.4byte	0x44c
 637 032e 0E       		.uleb128 0xe
 638 032f 5F7000   		.ascii	"_p\000"
 639 0332 06       		.byte	0x6
 640 0333 B4       		.byte	0xb4
 641 0334 1C030000 		.4byte	0x31c
 642 0338 00       		.byte	0
 643 0339 0E       		.uleb128 0xe
 644 033a 5F7200   		.ascii	"_r\000"
 645 033d 06       		.byte	0x6
 646 033e B5       		.byte	0xb5
 647 033f 37000000 		.4byte	0x37
 648 0343 04       		.byte	0x4
 649 0344 0E       		.uleb128 0xe
 650 0345 5F7700   		.ascii	"_w\000"
 651 0348 06       		.byte	0x6
 652 0349 B6       		.byte	0xb6
 653 034a 37000000 		.4byte	0x37
 654 034e 08       		.byte	0x8
 655 034f 0B       		.uleb128 0xb
 656 0350 B5050000 		.4byte	.LASF56
 657 0354 06       		.byte	0x6
 658 0355 B7       		.byte	0xb7
 659 0356 57000000 		.4byte	0x57
 660 035a 0C       		.byte	0xc
 661 035b 0B       		.uleb128 0xb
 662 035c 48010000 		.4byte	.LASF57
 663 0360 06       		.byte	0x6
 664 0361 B8       		.byte	0xb8
 665 0362 57000000 		.4byte	0x57
 666 0366 0E       		.byte	0xe
 667 0367 0E       		.uleb128 0xe
 668 0368 5F626600 		.ascii	"_bf\000"
 669 036c 06       		.byte	0x6
 670 036d B9       		.byte	0xb9
 671 036e F7020000 		.4byte	0x2f7
 672 0372 10       		.byte	0x10
 673 0373 0B       		.uleb128 0xb
 674 0374 FC070000 		.4byte	.LASF58
 675 0378 06       		.byte	0x6
 676 0379 BA       		.byte	0xba
 677 037a 37000000 		.4byte	0x37
 678 037e 18       		.byte	0x18
 679 037f 0B       		.uleb128 0xb
 680 0380 05030000 		.4byte	.LASF59
 681 0384 06       		.byte	0x6
 682 0385 C1       		.byte	0xc1
 683 0386 5D010000 		.4byte	0x15d
 684 038a 1C       		.byte	0x1c
ARM GAS  /var/folders/m4/4md61f0s1_g0rzfghffqnxvr0000gn/T//cclTd5Ut.s 			page 13


 685 038b 0B       		.uleb128 0xb
 686 038c 2D000000 		.4byte	.LASF60
 687 0390 06       		.byte	0x6
 688 0391 C3       		.byte	0xc3
 689 0392 AF050000 		.4byte	0x5af
 690 0396 20       		.byte	0x20
 691 0397 0B       		.uleb128 0xb
 692 0398 50000000 		.4byte	.LASF61
 693 039c 06       		.byte	0x6
 694 039d C5       		.byte	0xc5
 695 039e DE050000 		.4byte	0x5de
 696 03a2 24       		.byte	0x24
 697 03a3 0B       		.uleb128 0xb
 698 03a4 46060000 		.4byte	.LASF62
 699 03a8 06       		.byte	0x6
 700 03a9 C8       		.byte	0xc8
 701 03aa 02060000 		.4byte	0x602
 702 03ae 28       		.byte	0x28
 703 03af 0B       		.uleb128 0xb
 704 03b0 B0020000 		.4byte	.LASF63
 705 03b4 06       		.byte	0x6
 706 03b5 C9       		.byte	0xc9
 707 03b6 1C060000 		.4byte	0x61c
 708 03ba 2C       		.byte	0x2c
 709 03bb 0E       		.uleb128 0xe
 710 03bc 5F756200 		.ascii	"_ub\000"
 711 03c0 06       		.byte	0x6
 712 03c1 CC       		.byte	0xcc
 713 03c2 F7020000 		.4byte	0x2f7
 714 03c6 30       		.byte	0x30
 715 03c7 0E       		.uleb128 0xe
 716 03c8 5F757000 		.ascii	"_up\000"
 717 03cc 06       		.byte	0x6
 718 03cd CD       		.byte	0xcd
 719 03ce 1C030000 		.4byte	0x31c
 720 03d2 38       		.byte	0x38
 721 03d3 0E       		.uleb128 0xe
 722 03d4 5F757200 		.ascii	"_ur\000"
 723 03d8 06       		.byte	0x6
 724 03d9 CE       		.byte	0xce
 725 03da 37000000 		.4byte	0x37
 726 03de 3C       		.byte	0x3c
 727 03df 0B       		.uleb128 0xb
 728 03e0 85050000 		.4byte	.LASF64
 729 03e4 06       		.byte	0x6
 730 03e5 D1       		.byte	0xd1
 731 03e6 22060000 		.4byte	0x622
 732 03ea 40       		.byte	0x40
 733 03eb 0B       		.uleb128 0xb
 734 03ec D7000000 		.4byte	.LASF65
 735 03f0 06       		.byte	0x6
 736 03f1 D2       		.byte	0xd2
 737 03f2 32060000 		.4byte	0x632
 738 03f6 43       		.byte	0x43
 739 03f7 0E       		.uleb128 0xe
 740 03f8 5F6C6200 		.ascii	"_lb\000"
 741 03fc 06       		.byte	0x6
ARM GAS  /var/folders/m4/4md61f0s1_g0rzfghffqnxvr0000gn/T//cclTd5Ut.s 			page 14


 742 03fd D5       		.byte	0xd5
 743 03fe F7020000 		.4byte	0x2f7
 744 0402 44       		.byte	0x44
 745 0403 0B       		.uleb128 0xb
 746 0404 EC060000 		.4byte	.LASF66
 747 0408 06       		.byte	0x6
 748 0409 D8       		.byte	0xd8
 749 040a 37000000 		.4byte	0x37
 750 040e 4C       		.byte	0x4c
 751 040f 0B       		.uleb128 0xb
 752 0410 48030000 		.4byte	.LASF67
 753 0414 06       		.byte	0x6
 754 0415 D9       		.byte	0xd9
 755 0416 AD000000 		.4byte	0xad
 756 041a 50       		.byte	0x50
 757 041b 0B       		.uleb128 0xb
 758 041c 60070000 		.4byte	.LASF68
 759 0420 06       		.byte	0x6
 760 0421 DC       		.byte	0xdc
 761 0422 6A040000 		.4byte	0x46a
 762 0426 54       		.byte	0x54
 763 0427 0B       		.uleb128 0xb
 764 0428 F7000000 		.4byte	.LASF69
 765 042c 06       		.byte	0x6
 766 042d E0       		.byte	0xe0
 767 042e 52010000 		.4byte	0x152
 768 0432 58       		.byte	0x58
 769 0433 0B       		.uleb128 0xb
 770 0434 A1050000 		.4byte	.LASF70
 771 0438 06       		.byte	0x6
 772 0439 E2       		.byte	0xe2
 773 043a 47010000 		.4byte	0x147
 774 043e 5C       		.byte	0x5c
 775 043f 0B       		.uleb128 0xb
 776 0440 9A030000 		.4byte	.LASF71
 777 0444 06       		.byte	0x6
 778 0445 E3       		.byte	0xe3
 779 0446 37000000 		.4byte	0x37
 780 044a 64       		.byte	0x64
 781 044b 00       		.byte	0
 782 044c 13       		.uleb128 0x13
 783 044d 37000000 		.4byte	0x37
 784 0451 6A040000 		.4byte	0x46a
 785 0455 14       		.uleb128 0x14
 786 0456 6A040000 		.4byte	0x46a
 787 045a 14       		.uleb128 0x14
 788 045b 5D010000 		.4byte	0x15d
 789 045f 14       		.uleb128 0x14
 790 0460 A2050000 		.4byte	0x5a2
 791 0464 14       		.uleb128 0x14
 792 0465 37000000 		.4byte	0x37
 793 0469 00       		.byte	0
 794 046a 0F       		.uleb128 0xf
 795 046b 04       		.byte	0x4
 796 046c 70040000 		.4byte	0x470
 797 0470 15       		.uleb128 0x15
 798 0471 81020000 		.4byte	.LASF72
ARM GAS  /var/folders/m4/4md61f0s1_g0rzfghffqnxvr0000gn/T//cclTd5Ut.s 			page 15


 799 0475 2804     		.2byte	0x428
 800 0477 06       		.byte	0x6
 801 0478 3902     		.2byte	0x239
 802 047a A2050000 		.4byte	0x5a2
 803 047e 16       		.uleb128 0x16
 804 047f E9030000 		.4byte	.LASF73
 805 0483 06       		.byte	0x6
 806 0484 3B02     		.2byte	0x23b
 807 0486 37000000 		.4byte	0x37
 808 048a 00       		.byte	0
 809 048b 16       		.uleb128 0x16
 810 048c C5020000 		.4byte	.LASF74
 811 0490 06       		.byte	0x6
 812 0491 4002     		.2byte	0x240
 813 0493 89060000 		.4byte	0x689
 814 0497 04       		.byte	0x4
 815 0498 16       		.uleb128 0x16
 816 0499 DA060000 		.4byte	.LASF75
 817 049d 06       		.byte	0x6
 818 049e 4002     		.2byte	0x240
 819 04a0 89060000 		.4byte	0x689
 820 04a4 08       		.byte	0x8
 821 04a5 16       		.uleb128 0x16
 822 04a6 8B050000 		.4byte	.LASF76
 823 04aa 06       		.byte	0x6
 824 04ab 4002     		.2byte	0x240
 825 04ad 89060000 		.4byte	0x689
 826 04b1 0C       		.byte	0xc
 827 04b2 16       		.uleb128 0x16
 828 04b3 0C080000 		.4byte	.LASF77
 829 04b7 06       		.byte	0x6
 830 04b8 4202     		.2byte	0x242
 831 04ba 37000000 		.4byte	0x37
 832 04be 10       		.byte	0x10
 833 04bf 16       		.uleb128 0x16
 834 04c0 7A040000 		.4byte	.LASF78
 835 04c4 06       		.byte	0x6
 836 04c5 4302     		.2byte	0x243
 837 04c7 6B080000 		.4byte	0x86b
 838 04cb 14       		.byte	0x14
 839 04cc 16       		.uleb128 0x16
 840 04cd DD010000 		.4byte	.LASF79
 841 04d1 06       		.byte	0x6
 842 04d2 4502     		.2byte	0x245
 843 04d4 37000000 		.4byte	0x37
 844 04d8 30       		.byte	0x30
 845 04d9 16       		.uleb128 0x16
 846 04da D2040000 		.4byte	.LASF80
 847 04de 06       		.byte	0x6
 848 04df 4602     		.2byte	0x246
 849 04e1 D3050000 		.4byte	0x5d3
 850 04e5 34       		.byte	0x34
 851 04e6 16       		.uleb128 0x16
 852 04e7 8F030000 		.4byte	.LASF81
 853 04eb 06       		.byte	0x6
 854 04ec 4802     		.2byte	0x248
 855 04ee 37000000 		.4byte	0x37
ARM GAS  /var/folders/m4/4md61f0s1_g0rzfghffqnxvr0000gn/T//cclTd5Ut.s 			page 16


 856 04f2 38       		.byte	0x38
 857 04f3 16       		.uleb128 0x16
 858 04f4 4C040000 		.4byte	.LASF82
 859 04f8 06       		.byte	0x6
 860 04f9 4A02     		.2byte	0x24a
 861 04fb 86080000 		.4byte	0x886
 862 04ff 3C       		.byte	0x3c
 863 0500 16       		.uleb128 0x16
 864 0501 77080000 		.4byte	.LASF83
 865 0505 06       		.byte	0x6
 866 0506 4D02     		.2byte	0x24d
 867 0508 BD010000 		.4byte	0x1bd
 868 050c 40       		.byte	0x40
 869 050d 16       		.uleb128 0x16
 870 050e 82010000 		.4byte	.LASF84
 871 0512 06       		.byte	0x6
 872 0513 4E02     		.2byte	0x24e
 873 0515 37000000 		.4byte	0x37
 874 0519 44       		.byte	0x44
 875 051a 16       		.uleb128 0x16
 876 051b 70030000 		.4byte	.LASF85
 877 051f 06       		.byte	0x6
 878 0520 4F02     		.2byte	0x24f
 879 0522 BD010000 		.4byte	0x1bd
 880 0526 48       		.byte	0x48
 881 0527 16       		.uleb128 0x16
 882 0528 E2040000 		.4byte	.LASF86
 883 052c 06       		.byte	0x6
 884 052d 5002     		.2byte	0x250
 885 052f 8C080000 		.4byte	0x88c
 886 0533 4C       		.byte	0x4c
 887 0534 16       		.uleb128 0x16
 888 0535 72000000 		.4byte	.LASF87
 889 0539 06       		.byte	0x6
 890 053a 5302     		.2byte	0x253
 891 053c 37000000 		.4byte	0x37
 892 0540 50       		.byte	0x50
 893 0541 16       		.uleb128 0x16
 894 0542 50030000 		.4byte	.LASF88
 895 0546 06       		.byte	0x6
 896 0547 5402     		.2byte	0x254
 897 0549 A2050000 		.4byte	0x5a2
 898 054d 54       		.byte	0x54
 899 054e 16       		.uleb128 0x16
 900 054f 80050000 		.4byte	.LASF89
 901 0553 06       		.byte	0x6
 902 0554 7702     		.2byte	0x277
 903 0556 49080000 		.4byte	0x849
 904 055a 58       		.byte	0x58
 905 055b 17       		.uleb128 0x17
 906 055c D6050000 		.4byte	.LASF49
 907 0560 06       		.byte	0x6
 908 0561 7B02     		.2byte	0x27b
 909 0563 DA020000 		.4byte	0x2da
 910 0567 4801     		.2byte	0x148
 911 0569 17       		.uleb128 0x17
 912 056a 56040000 		.4byte	.LASF90
ARM GAS  /var/folders/m4/4md61f0s1_g0rzfghffqnxvr0000gn/T//cclTd5Ut.s 			page 17


 913 056e 06       		.byte	0x6
 914 056f 7C02     		.2byte	0x27c
 915 0571 9C020000 		.4byte	0x29c
 916 0575 4C01     		.2byte	0x14c
 917 0577 17       		.uleb128 0x17
 918 0578 3E030000 		.4byte	.LASF91
 919 057c 06       		.byte	0x6
 920 057d 8002     		.2byte	0x280
 921 057f 9D080000 		.4byte	0x89d
 922 0583 DC02     		.2byte	0x2dc
 923 0585 17       		.uleb128 0x17
 924 0586 AA040000 		.4byte	.LASF92
 925 058a 06       		.byte	0x6
 926 058b 8502     		.2byte	0x285
 927 058d 4E060000 		.4byte	0x64e
 928 0591 E002     		.2byte	0x2e0
 929 0593 17       		.uleb128 0x17
 930 0594 22000000 		.4byte	.LASF93
 931 0598 06       		.byte	0x6
 932 0599 8602     		.2byte	0x286
 933 059b A9080000 		.4byte	0x8a9
 934 059f EC02     		.2byte	0x2ec
 935 05a1 00       		.byte	0
 936 05a2 0F       		.uleb128 0xf
 937 05a3 04       		.byte	0x4
 938 05a4 A8050000 		.4byte	0x5a8
 939 05a8 03       		.uleb128 0x3
 940 05a9 01       		.byte	0x1
 941 05aa 08       		.byte	0x8
 942 05ab 9F020000 		.4byte	.LASF94
 943 05af 0F       		.uleb128 0xf
 944 05b0 04       		.byte	0x4
 945 05b1 4C040000 		.4byte	0x44c
 946 05b5 13       		.uleb128 0x13
 947 05b6 37000000 		.4byte	0x37
 948 05ba D3050000 		.4byte	0x5d3
 949 05be 14       		.uleb128 0x14
 950 05bf 6A040000 		.4byte	0x46a
 951 05c3 14       		.uleb128 0x14
 952 05c4 5D010000 		.4byte	0x15d
 953 05c8 14       		.uleb128 0x14
 954 05c9 D3050000 		.4byte	0x5d3
 955 05cd 14       		.uleb128 0x14
 956 05ce 37000000 		.4byte	0x37
 957 05d2 00       		.byte	0
 958 05d3 0F       		.uleb128 0xf
 959 05d4 04       		.byte	0x4
 960 05d5 D9050000 		.4byte	0x5d9
 961 05d9 18       		.uleb128 0x18
 962 05da A8050000 		.4byte	0x5a8
 963 05de 0F       		.uleb128 0xf
 964 05df 04       		.byte	0x4
 965 05e0 B5050000 		.4byte	0x5b5
 966 05e4 13       		.uleb128 0x13
 967 05e5 D9000000 		.4byte	0xd9
 968 05e9 02060000 		.4byte	0x602
 969 05ed 14       		.uleb128 0x14
ARM GAS  /var/folders/m4/4md61f0s1_g0rzfghffqnxvr0000gn/T//cclTd5Ut.s 			page 18


 970 05ee 6A040000 		.4byte	0x46a
 971 05f2 14       		.uleb128 0x14
 972 05f3 5D010000 		.4byte	0x15d
 973 05f7 14       		.uleb128 0x14
 974 05f8 D9000000 		.4byte	0xd9
 975 05fc 14       		.uleb128 0x14
 976 05fd 37000000 		.4byte	0x37
 977 0601 00       		.byte	0
 978 0602 0F       		.uleb128 0xf
 979 0603 04       		.byte	0x4
 980 0604 E4050000 		.4byte	0x5e4
 981 0608 13       		.uleb128 0x13
 982 0609 37000000 		.4byte	0x37
 983 060d 1C060000 		.4byte	0x61c
 984 0611 14       		.uleb128 0x14
 985 0612 6A040000 		.4byte	0x46a
 986 0616 14       		.uleb128 0x14
 987 0617 5D010000 		.4byte	0x15d
 988 061b 00       		.byte	0
 989 061c 0F       		.uleb128 0xf
 990 061d 04       		.byte	0x4
 991 061e 08060000 		.4byte	0x608
 992 0622 08       		.uleb128 0x8
 993 0623 50000000 		.4byte	0x50
 994 0627 32060000 		.4byte	0x632
 995 062b 09       		.uleb128 0x9
 996 062c 1F010000 		.4byte	0x11f
 997 0630 02       		.byte	0x2
 998 0631 00       		.byte	0
 999 0632 08       		.uleb128 0x8
 1000 0633 50000000 		.4byte	0x50
 1001 0637 42060000 		.4byte	0x642
 1002 063b 09       		.uleb128 0x9
 1003 063c 1F010000 		.4byte	0x11f
 1004 0640 00       		.byte	0
 1005 0641 00       		.byte	0
 1006 0642 05       		.uleb128 0x5
 1007 0643 34070000 		.4byte	.LASF95
 1008 0647 06       		.byte	0x6
 1009 0648 1D01     		.2byte	0x11d
 1010 064a 22030000 		.4byte	0x322
 1011 064e 19       		.uleb128 0x19
 1012 064f F2040000 		.4byte	.LASF96
 1013 0653 0C       		.byte	0xc
 1014 0654 06       		.byte	0x6
 1015 0655 2101     		.2byte	0x121
 1016 0657 83060000 		.4byte	0x683
 1017 065b 16       		.uleb128 0x16
 1018 065c 5A070000 		.4byte	.LASF29
 1019 0660 06       		.byte	0x6
 1020 0661 2301     		.2byte	0x123
 1021 0663 83060000 		.4byte	0x683
 1022 0667 00       		.byte	0
 1023 0668 16       		.uleb128 0x16
 1024 0669 9B040000 		.4byte	.LASF97
 1025 066d 06       		.byte	0x6
 1026 066e 2401     		.2byte	0x124
ARM GAS  /var/folders/m4/4md61f0s1_g0rzfghffqnxvr0000gn/T//cclTd5Ut.s 			page 19


 1027 0670 37000000 		.4byte	0x37
 1028 0674 04       		.byte	0x4
 1029 0675 16       		.uleb128 0x16
 1030 0676 EC040000 		.4byte	.LASF98
 1031 067a 06       		.byte	0x6
 1032 067b 2501     		.2byte	0x125
 1033 067d 89060000 		.4byte	0x689
 1034 0681 08       		.byte	0x8
 1035 0682 00       		.byte	0
 1036 0683 0F       		.uleb128 0xf
 1037 0684 04       		.byte	0x4
 1038 0685 4E060000 		.4byte	0x64e
 1039 0689 0F       		.uleb128 0xf
 1040 068a 04       		.byte	0x4
 1041 068b 42060000 		.4byte	0x642
 1042 068f 19       		.uleb128 0x19
 1043 0690 D2060000 		.4byte	.LASF99
 1044 0694 0E       		.byte	0xe
 1045 0695 06       		.byte	0x6
 1046 0696 3D01     		.2byte	0x13d
 1047 0698 C4060000 		.4byte	0x6c4
 1048 069c 16       		.uleb128 0x16
 1049 069d 40060000 		.4byte	.LASF100
 1050 06a1 06       		.byte	0x6
 1051 06a2 3E01     		.2byte	0x13e
 1052 06a4 C4060000 		.4byte	0x6c4
 1053 06a8 00       		.byte	0
 1054 06a9 16       		.uleb128 0x16
 1055 06aa FD000000 		.4byte	.LASF101
 1056 06ae 06       		.byte	0x6
 1057 06af 3F01     		.2byte	0x13f
 1058 06b1 C4060000 		.4byte	0x6c4
 1059 06b5 06       		.byte	0x6
 1060 06b6 16       		.uleb128 0x16
 1061 06b7 B1090000 		.4byte	.LASF102
 1062 06bb 06       		.byte	0x6
 1063 06bc 4001     		.2byte	0x140
 1064 06be 5E000000 		.4byte	0x5e
 1065 06c2 0C       		.byte	0xc
 1066 06c3 00       		.byte	0
 1067 06c4 08       		.uleb128 0x8
 1068 06c5 5E000000 		.4byte	0x5e
 1069 06c9 D4060000 		.4byte	0x6d4
 1070 06cd 09       		.uleb128 0x9
 1071 06ce 1F010000 		.4byte	0x11f
 1072 06d2 02       		.byte	0x2
 1073 06d3 00       		.byte	0
 1074 06d4 1A       		.uleb128 0x1a
 1075 06d5 D0       		.byte	0xd0
 1076 06d6 06       		.byte	0x6
 1077 06d7 5802     		.2byte	0x258
 1078 06d9 D5070000 		.4byte	0x7d5
 1079 06dd 16       		.uleb128 0x16
 1080 06de EF010000 		.4byte	.LASF103
 1081 06e2 06       		.byte	0x6
 1082 06e3 5A02     		.2byte	0x25a
 1083 06e5 30000000 		.4byte	0x30
ARM GAS  /var/folders/m4/4md61f0s1_g0rzfghffqnxvr0000gn/T//cclTd5Ut.s 			page 20


 1084 06e9 00       		.byte	0
 1085 06ea 16       		.uleb128 0x16
 1086 06eb 04070000 		.4byte	.LASF104
 1087 06ef 06       		.byte	0x6
 1088 06f0 5B02     		.2byte	0x25b
 1089 06f2 A2050000 		.4byte	0x5a2
 1090 06f6 04       		.byte	0x4
 1091 06f7 16       		.uleb128 0x16
 1092 06f8 65000000 		.4byte	.LASF105
 1093 06fc 06       		.byte	0x6
 1094 06fd 5C02     		.2byte	0x25c
 1095 06ff D5070000 		.4byte	0x7d5
 1096 0703 08       		.byte	0x8
 1097 0704 16       		.uleb128 0x16
 1098 0705 99010000 		.4byte	.LASF106
 1099 0709 06       		.byte	0x6
 1100 070a 5D02     		.2byte	0x25d
 1101 070c D3010000 		.4byte	0x1d3
 1102 0710 24       		.byte	0x24
 1103 0711 16       		.uleb128 0x16
 1104 0712 C3040000 		.4byte	.LASF107
 1105 0716 06       		.byte	0x6
 1106 0717 5E02     		.2byte	0x25e
 1107 0719 37000000 		.4byte	0x37
 1108 071d 48       		.byte	0x48
 1109 071e 16       		.uleb128 0x16
 1110 071f AA050000 		.4byte	.LASF108
 1111 0723 06       		.byte	0x6
 1112 0724 5F02     		.2byte	0x25f
 1113 0726 9B000000 		.4byte	0x9b
 1114 072a 50       		.byte	0x50
 1115 072b 16       		.uleb128 0x16
 1116 072c 4E070000 		.4byte	.LASF109
 1117 0730 06       		.byte	0x6
 1118 0731 6002     		.2byte	0x260
 1119 0733 8F060000 		.4byte	0x68f
 1120 0737 58       		.byte	0x58
 1121 0738 16       		.uleb128 0x16
 1122 0739 A9070000 		.4byte	.LASF110
 1123 073d 06       		.byte	0x6
 1124 073e 6102     		.2byte	0x261
 1125 0740 47010000 		.4byte	0x147
 1126 0744 68       		.byte	0x68
 1127 0745 16       		.uleb128 0x16
 1128 0746 82060000 		.4byte	.LASF111
 1129 074a 06       		.byte	0x6
 1130 074b 6202     		.2byte	0x262
 1131 074d 47010000 		.4byte	0x147
 1132 0751 70       		.byte	0x70
 1133 0752 16       		.uleb128 0x16
 1134 0753 93050000 		.4byte	.LASF112
 1135 0757 06       		.byte	0x6
 1136 0758 6302     		.2byte	0x263
 1137 075a 47010000 		.4byte	0x147
 1138 075e 78       		.byte	0x78
 1139 075f 16       		.uleb128 0x16
 1140 0760 E6000000 		.4byte	.LASF113
ARM GAS  /var/folders/m4/4md61f0s1_g0rzfghffqnxvr0000gn/T//cclTd5Ut.s 			page 21


 1141 0764 06       		.byte	0x6
 1142 0765 6402     		.2byte	0x264
 1143 0767 E5070000 		.4byte	0x7e5
 1144 076b 80       		.byte	0x80
 1145 076c 16       		.uleb128 0x16
 1146 076d 17040000 		.4byte	.LASF114
 1147 0771 06       		.byte	0x6
 1148 0772 6502     		.2byte	0x265
 1149 0774 F5070000 		.4byte	0x7f5
 1150 0778 88       		.byte	0x88
 1151 0779 16       		.uleb128 0x16
 1152 077a 940A0000 		.4byte	.LASF115
 1153 077e 06       		.byte	0x6
 1154 077f 6602     		.2byte	0x266
 1155 0781 37000000 		.4byte	0x37
 1156 0785 A0       		.byte	0xa0
 1157 0786 16       		.uleb128 0x16
 1158 0787 64010000 		.4byte	.LASF116
 1159 078b 06       		.byte	0x6
 1160 078c 6702     		.2byte	0x267
 1161 078e 47010000 		.4byte	0x147
 1162 0792 A4       		.byte	0xa4
 1163 0793 16       		.uleb128 0x16
 1164 0794 11070000 		.4byte	.LASF117
 1165 0798 06       		.byte	0x6
 1166 0799 6802     		.2byte	0x268
 1167 079b 47010000 		.4byte	0x147
 1168 079f AC       		.byte	0xac
 1169 07a0 16       		.uleb128 0x16
 1170 07a1 040A0000 		.4byte	.LASF118
 1171 07a5 06       		.byte	0x6
 1172 07a6 6902     		.2byte	0x269
 1173 07a8 47010000 		.4byte	0x147
 1174 07ac B4       		.byte	0xb4
 1175 07ad 16       		.uleb128 0x16
 1176 07ae 67050000 		.4byte	.LASF119
 1177 07b2 06       		.byte	0x6
 1178 07b3 6A02     		.2byte	0x26a
 1179 07b5 47010000 		.4byte	0x147
 1180 07b9 BC       		.byte	0xbc
 1181 07ba 16       		.uleb128 0x16
 1182 07bb C6000000 		.4byte	.LASF120
 1183 07bf 06       		.byte	0x6
 1184 07c0 6B02     		.2byte	0x26b
 1185 07c2 47010000 		.4byte	0x147
 1186 07c6 C4       		.byte	0xc4
 1187 07c7 16       		.uleb128 0x16
 1188 07c8 52050000 		.4byte	.LASF121
 1189 07cc 06       		.byte	0x6
 1190 07cd 6C02     		.2byte	0x26c
 1191 07cf 37000000 		.4byte	0x37
 1192 07d3 CC       		.byte	0xcc
 1193 07d4 00       		.byte	0
 1194 07d5 08       		.uleb128 0x8
 1195 07d6 A8050000 		.4byte	0x5a8
 1196 07da E5070000 		.4byte	0x7e5
 1197 07de 09       		.uleb128 0x9
ARM GAS  /var/folders/m4/4md61f0s1_g0rzfghffqnxvr0000gn/T//cclTd5Ut.s 			page 22


 1198 07df 1F010000 		.4byte	0x11f
 1199 07e3 19       		.byte	0x19
 1200 07e4 00       		.byte	0
 1201 07e5 08       		.uleb128 0x8
 1202 07e6 A8050000 		.4byte	0x5a8
 1203 07ea F5070000 		.4byte	0x7f5
 1204 07ee 09       		.uleb128 0x9
 1205 07ef 1F010000 		.4byte	0x11f
 1206 07f3 07       		.byte	0x7
 1207 07f4 00       		.byte	0
 1208 07f5 08       		.uleb128 0x8
 1209 07f6 A8050000 		.4byte	0x5a8
 1210 07fa 05080000 		.4byte	0x805
 1211 07fe 09       		.uleb128 0x9
 1212 07ff 1F010000 		.4byte	0x11f
 1213 0803 17       		.byte	0x17
 1214 0804 00       		.byte	0
 1215 0805 1A       		.uleb128 0x1a
 1216 0806 F0       		.byte	0xf0
 1217 0807 06       		.byte	0x6
 1218 0808 7102     		.2byte	0x271
 1219 080a 29080000 		.4byte	0x829
 1220 080e 16       		.uleb128 0x16
 1221 080f 46080000 		.4byte	.LASF122
 1222 0813 06       		.byte	0x6
 1223 0814 7402     		.2byte	0x274
 1224 0816 29080000 		.4byte	0x829
 1225 081a 00       		.byte	0
 1226 081b 16       		.uleb128 0x16
 1227 081c B2040000 		.4byte	.LASF123
 1228 0820 06       		.byte	0x6
 1229 0821 7502     		.2byte	0x275
 1230 0823 39080000 		.4byte	0x839
 1231 0827 78       		.byte	0x78
 1232 0828 00       		.byte	0
 1233 0829 08       		.uleb128 0x8
 1234 082a 1C030000 		.4byte	0x31c
 1235 082e 39080000 		.4byte	0x839
 1236 0832 09       		.uleb128 0x9
 1237 0833 1F010000 		.4byte	0x11f
 1238 0837 1D       		.byte	0x1d
 1239 0838 00       		.byte	0
 1240 0839 08       		.uleb128 0x8
 1241 083a 30000000 		.4byte	0x30
 1242 083e 49080000 		.4byte	0x849
 1243 0842 09       		.uleb128 0x9
 1244 0843 1F010000 		.4byte	0x11f
 1245 0847 1D       		.byte	0x1d
 1246 0848 00       		.byte	0
 1247 0849 1B       		.uleb128 0x1b
 1248 084a F0       		.byte	0xf0
 1249 084b 06       		.byte	0x6
 1250 084c 5602     		.2byte	0x256
 1251 084e 6B080000 		.4byte	0x86b
 1252 0852 1C       		.uleb128 0x1c
 1253 0853 81020000 		.4byte	.LASF72
 1254 0857 06       		.byte	0x6
ARM GAS  /var/folders/m4/4md61f0s1_g0rzfghffqnxvr0000gn/T//cclTd5Ut.s 			page 23


 1255 0858 6D02     		.2byte	0x26d
 1256 085a D4060000 		.4byte	0x6d4
 1257 085e 1C       		.uleb128 0x1c
 1258 085f B9000000 		.4byte	.LASF124
 1259 0863 06       		.byte	0x6
 1260 0864 7602     		.2byte	0x276
 1261 0866 05080000 		.4byte	0x805
 1262 086a 00       		.byte	0
 1263 086b 08       		.uleb128 0x8
 1264 086c A8050000 		.4byte	0x5a8
 1265 0870 7B080000 		.4byte	0x87b
 1266 0874 09       		.uleb128 0x9
 1267 0875 1F010000 		.4byte	0x11f
 1268 0879 18       		.byte	0x18
 1269 087a 00       		.byte	0
 1270 087b 1D       		.uleb128 0x1d
 1271 087c 86080000 		.4byte	0x886
 1272 0880 14       		.uleb128 0x14
 1273 0881 6A040000 		.4byte	0x46a
 1274 0885 00       		.byte	0
 1275 0886 0F       		.uleb128 0xf
 1276 0887 04       		.byte	0x4
 1277 0888 7B080000 		.4byte	0x87b
 1278 088c 0F       		.uleb128 0xf
 1279 088d 04       		.byte	0x4
 1280 088e BD010000 		.4byte	0x1bd
 1281 0892 1D       		.uleb128 0x1d
 1282 0893 9D080000 		.4byte	0x89d
 1283 0897 14       		.uleb128 0x14
 1284 0898 37000000 		.4byte	0x37
 1285 089c 00       		.byte	0
 1286 089d 0F       		.uleb128 0xf
 1287 089e 04       		.byte	0x4
 1288 089f A3080000 		.4byte	0x8a3
 1289 08a3 0F       		.uleb128 0xf
 1290 08a4 04       		.byte	0x4
 1291 08a5 92080000 		.4byte	0x892
 1292 08a9 08       		.uleb128 0x8
 1293 08aa 42060000 		.4byte	0x642
 1294 08ae B9080000 		.4byte	0x8b9
 1295 08b2 09       		.uleb128 0x9
 1296 08b3 1F010000 		.4byte	0x11f
 1297 08b7 02       		.byte	0x2
 1298 08b8 00       		.byte	0
 1299 08b9 02       		.uleb128 0x2
 1300 08ba 12020000 		.4byte	.LASF125
 1301 08be 07       		.byte	0x7
 1302 08bf 14       		.byte	0x14
 1303 08c0 45000000 		.4byte	0x45
 1304 08c4 02       		.uleb128 0x2
 1305 08c5 5D000000 		.4byte	.LASF126
 1306 08c9 07       		.byte	0x7
 1307 08ca 1F       		.byte	0x1f
 1308 08cb 65000000 		.4byte	0x65
 1309 08cf 02       		.uleb128 0x2
 1310 08d0 6E080000 		.4byte	.LASF127
 1311 08d4 07       		.byte	0x7
ARM GAS  /var/folders/m4/4md61f0s1_g0rzfghffqnxvr0000gn/T//cclTd5Ut.s 			page 24


 1312 08d5 20       		.byte	0x20
 1313 08d6 77000000 		.4byte	0x77
 1314 08da 02       		.uleb128 0x2
 1315 08db C0070000 		.4byte	.LASF128
 1316 08df 07       		.byte	0x7
 1317 08e0 26       		.byte	0x26
 1318 08e1 90000000 		.4byte	0x90
 1319 08e5 02       		.uleb128 0x2
 1320 08e6 F0000000 		.4byte	.LASF129
 1321 08ea 08       		.byte	0x8
 1322 08eb 7B       		.byte	0x7b
 1323 08ec 70000000 		.4byte	0x70
 1324 08f0 02       		.uleb128 0x2
 1325 08f1 3A050000 		.4byte	.LASF130
 1326 08f5 08       		.byte	0x8
 1327 08f6 84       		.byte	0x84
 1328 08f7 A2050000 		.4byte	0x5a2
 1329 08fb 02       		.uleb128 0x2
 1330 08fc 6A030000 		.4byte	.LASF131
 1331 0900 08       		.byte	0x8
 1332 0901 8D       		.byte	0x8d
 1333 0902 5E000000 		.4byte	0x5e
 1334 0906 02       		.uleb128 0x2
 1335 0907 F6050000 		.4byte	.LASF132
 1336 090b 08       		.byte	0x8
 1337 090c AA       		.byte	0xaa
 1338 090d AD000000 		.4byte	0xad
 1339 0911 02       		.uleb128 0x2
 1340 0912 A3000000 		.4byte	.LASF133
 1341 0916 08       		.byte	0x8
 1342 0917 AB       		.byte	0xab
 1343 0918 B8000000 		.4byte	0xb8
 1344 091c 02       		.uleb128 0x2
 1345 091d 42010000 		.4byte	.LASF134
 1346 0921 08       		.byte	0x8
 1347 0922 AC       		.byte	0xac
 1348 0923 C3000000 		.4byte	0xc3
 1349 0927 02       		.uleb128 0x2
 1350 0928 7E0A0000 		.4byte	.LASF135
 1351 092c 08       		.byte	0x8
 1352 092d AD       		.byte	0xad
 1353 092e CE000000 		.4byte	0xce
 1354 0932 02       		.uleb128 0x2
 1355 0933 FC050000 		.4byte	.LASF136
 1356 0937 08       		.byte	0x8
 1357 0938 CB       		.byte	0xcb
 1358 0939 30000000 		.4byte	0x30
 1359 093d 02       		.uleb128 0x2
 1360 093e A9000000 		.4byte	.LASF137
 1361 0942 08       		.byte	0x8
 1362 0943 D0       		.byte	0xd0
 1363 0944 5E000000 		.4byte	0x5e
 1364 0948 0D       		.uleb128 0xd
 1365 0949 5F040000 		.4byte	.LASF138
 1366 094d 3C       		.byte	0x3c
 1367 094e 09       		.byte	0x9
 1368 094f 1B       		.byte	0x1b
ARM GAS  /var/folders/m4/4md61f0s1_g0rzfghffqnxvr0000gn/T//cclTd5Ut.s 			page 25


 1369 0950 210A0000 		.4byte	0xa21
 1370 0954 0B       		.uleb128 0xb
 1371 0955 4C060000 		.4byte	.LASF139
 1372 0959 09       		.byte	0x9
 1373 095a 1D       		.byte	0x1d
 1374 095b 11090000 		.4byte	0x911
 1375 095f 00       		.byte	0
 1376 0960 0B       		.uleb128 0xb
 1377 0961 270A0000 		.4byte	.LASF140
 1378 0965 09       		.byte	0x9
 1379 0966 1E       		.byte	0x1e
 1380 0967 FB080000 		.4byte	0x8fb
 1381 096b 02       		.byte	0x2
 1382 096c 0B       		.uleb128 0xb
 1383 096d 36080000 		.4byte	.LASF141
 1384 0971 09       		.byte	0x9
 1385 0972 1F       		.byte	0x1f
 1386 0973 32090000 		.4byte	0x932
 1387 0977 04       		.byte	0x4
 1388 0978 0B       		.uleb128 0xb
 1389 0979 ED050000 		.4byte	.LASF142
 1390 097d 09       		.byte	0x9
 1391 097e 20       		.byte	0x20
 1392 097f 3D090000 		.4byte	0x93d
 1393 0983 08       		.byte	0x8
 1394 0984 0B       		.uleb128 0xb
 1395 0985 24020000 		.4byte	.LASF143
 1396 0989 09       		.byte	0x9
 1397 098a 21       		.byte	0x21
 1398 098b 1C090000 		.4byte	0x91c
 1399 098f 0A       		.byte	0xa
 1400 0990 0B       		.uleb128 0xb
 1401 0991 58030000 		.4byte	.LASF144
 1402 0995 09       		.byte	0x9
 1403 0996 22       		.byte	0x22
 1404 0997 27090000 		.4byte	0x927
 1405 099b 0C       		.byte	0xc
 1406 099c 0B       		.uleb128 0xb
 1407 099d 67020000 		.4byte	.LASF145
 1408 09a1 09       		.byte	0x9
 1409 09a2 23       		.byte	0x23
 1410 09a3 11090000 		.4byte	0x911
 1411 09a7 0E       		.byte	0xe
 1412 09a8 0B       		.uleb128 0xb
 1413 09a9 A2030000 		.4byte	.LASF146
 1414 09ad 09       		.byte	0x9
 1415 09ae 24       		.byte	0x24
 1416 09af 06090000 		.4byte	0x906
 1417 09b3 10       		.byte	0x10
 1418 09b4 0B       		.uleb128 0xb
 1419 09b5 16060000 		.4byte	.LASF147
 1420 09b9 09       		.byte	0x9
 1421 09ba 32       		.byte	0x32
 1422 09bb E5080000 		.4byte	0x8e5
 1423 09bf 14       		.byte	0x14
 1424 09c0 0B       		.uleb128 0xb
 1425 09c1 1A020000 		.4byte	.LASF148
ARM GAS  /var/folders/m4/4md61f0s1_g0rzfghffqnxvr0000gn/T//cclTd5Ut.s 			page 26


 1426 09c5 09       		.byte	0x9
 1427 09c6 33       		.byte	0x33
 1428 09c7 70000000 		.4byte	0x70
 1429 09cb 18       		.byte	0x18
 1430 09cc 0B       		.uleb128 0xb
 1431 09cd 74070000 		.4byte	.LASF149
 1432 09d1 09       		.byte	0x9
 1433 09d2 34       		.byte	0x34
 1434 09d3 E5080000 		.4byte	0x8e5
 1435 09d7 1C       		.byte	0x1c
 1436 09d8 0B       		.uleb128 0xb
 1437 09d9 0D040000 		.4byte	.LASF150
 1438 09dd 09       		.byte	0x9
 1439 09de 35       		.byte	0x35
 1440 09df 70000000 		.4byte	0x70
 1441 09e3 20       		.byte	0x20
 1442 09e4 0B       		.uleb128 0xb
 1443 09e5 E9020000 		.4byte	.LASF151
 1444 09e9 09       		.byte	0x9
 1445 09ea 36       		.byte	0x36
 1446 09eb E5080000 		.4byte	0x8e5
 1447 09ef 24       		.byte	0x24
 1448 09f0 0B       		.uleb128 0xb
 1449 09f1 2B020000 		.4byte	.LASF152
 1450 09f5 09       		.byte	0x9
 1451 09f6 37       		.byte	0x37
 1452 09f7 70000000 		.4byte	0x70
 1453 09fb 28       		.byte	0x28
 1454 09fc 0B       		.uleb128 0xb
 1455 09fd 64040000 		.4byte	.LASF153
 1456 0a01 09       		.byte	0x9
 1457 0a02 38       		.byte	0x38
 1458 0a03 70000000 		.4byte	0x70
 1459 0a07 2C       		.byte	0x2c
 1460 0a08 0B       		.uleb128 0xb
 1461 0a09 3B000000 		.4byte	.LASF154
 1462 0a0d 09       		.byte	0x9
 1463 0a0e 39       		.byte	0x39
 1464 0a0f 70000000 		.4byte	0x70
 1465 0a13 30       		.byte	0x30
 1466 0a14 0B       		.uleb128 0xb
 1467 0a15 35020000 		.4byte	.LASF155
 1468 0a19 09       		.byte	0x9
 1469 0a1a 3A       		.byte	0x3a
 1470 0a1b 210A0000 		.4byte	0xa21
 1471 0a1f 34       		.byte	0x34
 1472 0a20 00       		.byte	0
 1473 0a21 08       		.uleb128 0x8
 1474 0a22 70000000 		.4byte	0x70
 1475 0a26 310A0000 		.4byte	0xa31
 1476 0a2a 09       		.uleb128 0x9
 1477 0a2b 1F010000 		.4byte	0x11f
 1478 0a2f 01       		.byte	0x1
 1479 0a30 00       		.byte	0
 1480 0a31 02       		.uleb128 0x2
 1481 0a32 42050000 		.4byte	.LASF156
 1482 0a36 0A       		.byte	0xa
ARM GAS  /var/folders/m4/4md61f0s1_g0rzfghffqnxvr0000gn/T//cclTd5Ut.s 			page 27


 1483 0a37 39       		.byte	0x39
 1484 0a38 CF080000 		.4byte	0x8cf
 1485 0a3c 02       		.uleb128 0x2
 1486 0a3d 6C070000 		.4byte	.LASF157
 1487 0a41 0A       		.byte	0xa
 1488 0a42 3C       		.byte	0x3c
 1489 0a43 B9080000 		.4byte	0x8b9
 1490 0a47 02       		.uleb128 0x2
 1491 0a48 A8010000 		.4byte	.LASF158
 1492 0a4c 0A       		.byte	0xa
 1493 0a4d 3D       		.byte	0x3d
 1494 0a4e B9080000 		.4byte	0x8b9
 1495 0a52 02       		.uleb128 0x2
 1496 0a53 E1020000 		.4byte	.LASF159
 1497 0a57 0A       		.byte	0xa
 1498 0a58 3E       		.byte	0x3e
 1499 0a59 B9080000 		.4byte	0x8b9
 1500 0a5d 02       		.uleb128 0x2
 1501 0a5e E2060000 		.4byte	.LASF160
 1502 0a62 0A       		.byte	0xa
 1503 0a63 3F       		.byte	0x3f
 1504 0a64 B9080000 		.4byte	0x8b9
 1505 0a68 02       		.uleb128 0x2
 1506 0a69 33000000 		.4byte	.LASF161
 1507 0a6d 0A       		.byte	0xa
 1508 0a6e 40       		.byte	0x40
 1509 0a6f CF080000 		.4byte	0x8cf
 1510 0a73 02       		.uleb128 0x2
 1511 0a74 BB060000 		.4byte	.LASF162
 1512 0a78 0A       		.byte	0xa
 1513 0a79 41       		.byte	0x41
 1514 0a7a C4080000 		.4byte	0x8c4
 1515 0a7e 02       		.uleb128 0x2
 1516 0a7f 3F020000 		.4byte	.LASF163
 1517 0a83 0A       		.byte	0xa
 1518 0a84 43       		.byte	0x43
 1519 0a85 CF080000 		.4byte	0x8cf
 1520 0a89 02       		.uleb128 0x2
 1521 0a8a F7020000 		.4byte	.LASF164
 1522 0a8e 0A       		.byte	0xa
 1523 0a8f 45       		.byte	0x45
 1524 0a90 C4080000 		.4byte	0x8c4
 1525 0a94 02       		.uleb128 0x2
 1526 0a95 18000000 		.4byte	.LASF165
 1527 0a99 0B       		.byte	0xb
 1528 0a9a 33       		.byte	0x33
 1529 0a9b CF080000 		.4byte	0x8cf
 1530 0a9f 02       		.uleb128 0x2
 1531 0aa0 0D060000 		.4byte	.LASF166
 1532 0aa4 0B       		.byte	0xb
 1533 0aa5 3F       		.byte	0x3f
 1534 0aa6 AA0A0000 		.4byte	0xaaa
 1535 0aaa 0D       		.uleb128 0xd
 1536 0aab B7030000 		.4byte	.LASF167
 1537 0aaf 48       		.byte	0x48
 1538 0ab0 0C       		.byte	0xc
 1539 0ab1 C2       		.byte	0xc2
ARM GAS  /var/folders/m4/4md61f0s1_g0rzfghffqnxvr0000gn/T//cclTd5Ut.s 			page 28


 1540 0ab2 AF0B0000 		.4byte	0xbaf
 1541 0ab6 0B       		.uleb128 0xb
 1542 0ab7 7B010000 		.4byte	.LASF168
 1543 0abb 0C       		.byte	0xc
 1544 0abc C3       		.byte	0xc3
 1545 0abd BA0B0000 		.4byte	0xbba
 1546 0ac1 00       		.byte	0
 1547 0ac2 0B       		.uleb128 0xb
 1548 0ac3 92010000 		.4byte	.LASF169
 1549 0ac7 0C       		.byte	0xc
 1550 0ac8 C5       		.byte	0xc5
 1551 0ac9 BA0B0000 		.4byte	0xbba
 1552 0acd 04       		.byte	0x4
 1553 0ace 0B       		.uleb128 0xb
 1554 0acf B7020000 		.4byte	.LASF170
 1555 0ad3 0C       		.byte	0xc
 1556 0ad4 C7       		.byte	0xc7
 1557 0ad5 680A0000 		.4byte	0xa68
 1558 0ad9 08       		.byte	0x8
 1559 0ada 0B       		.uleb128 0xb
 1560 0adb 27000000 		.4byte	.LASF171
 1561 0adf 0C       		.byte	0xc
 1562 0ae0 C8       		.byte	0xc8
 1563 0ae1 E10D0000 		.4byte	0xde1
 1564 0ae5 0C       		.byte	0xc
 1565 0ae6 0B       		.uleb128 0xb
 1566 0ae7 5C010000 		.4byte	.LASF172
 1567 0aeb 0C       		.byte	0xc
 1568 0aec CA       		.byte	0xca
 1569 0aed BA0B0000 		.4byte	0xbba
 1570 0af1 10       		.byte	0x10
 1571 0af2 0B       		.uleb128 0xb
 1572 0af3 A7060000 		.4byte	.LASF173
 1573 0af7 0C       		.byte	0xc
 1574 0af8 CB       		.byte	0xcb
 1575 0af9 BA0B0000 		.4byte	0xbba
 1576 0afd 14       		.byte	0x14
 1577 0afe 0B       		.uleb128 0xb
 1578 0aff 4B0A0000 		.4byte	.LASF174
 1579 0b03 0C       		.byte	0xc
 1580 0b04 D2       		.byte	0xd2
 1581 0b05 D3050000 		.4byte	0x5d3
 1582 0b09 18       		.byte	0x18
 1583 0b0a 0B       		.uleb128 0xb
 1584 0b0b AE0A0000 		.4byte	.LASF175
 1585 0b0f 0C       		.byte	0xc
 1586 0b10 DD       		.byte	0xdd
 1587 0b11 470A0000 		.4byte	0xa47
 1588 0b15 1C       		.byte	0x1c
 1589 0b16 0B       		.uleb128 0xb
 1590 0b17 12010000 		.4byte	.LASF176
 1591 0b1b 0C       		.byte	0xc
 1592 0b1c E1       		.byte	0xe1
 1593 0b1d 3C0A0000 		.4byte	0xa3c
 1594 0b21 1D       		.byte	0x1d
 1595 0b22 0B       		.uleb128 0xb
 1596 0b23 60050000 		.4byte	.LASF177
ARM GAS  /var/folders/m4/4md61f0s1_g0rzfghffqnxvr0000gn/T//cclTd5Ut.s 			page 29


 1597 0b27 0C       		.byte	0xc
 1598 0b28 E6       		.byte	0xe6
 1599 0b29 520A0000 		.4byte	0xa52
 1600 0b2d 1E       		.byte	0x1e
 1601 0b2e 0B       		.uleb128 0xb
 1602 0b2f 08020000 		.4byte	.LASF178
 1603 0b33 0C       		.byte	0xc
 1604 0b34 EC       		.byte	0xec
 1605 0b35 5D0A0000 		.4byte	0xa5d
 1606 0b39 1F       		.byte	0x1f
 1607 0b3a 0B       		.uleb128 0xb
 1608 0b3b DE050000 		.4byte	.LASF179
 1609 0b3f 0C       		.byte	0xc
 1610 0b40 F3       		.byte	0xf3
 1611 0b41 2F100000 		.4byte	0x102f
 1612 0b45 20       		.byte	0x20
 1613 0b46 1E       		.uleb128 0x1e
 1614 0b47 705F7500 		.ascii	"p_u\000"
 1615 0b4b 0C       		.byte	0xc
 1616 0b4c 3101     		.2byte	0x131
 1617 0b4e 6A0F0000 		.4byte	0xf6a
 1618 0b52 24       		.byte	0x24
 1619 0b53 16       		.uleb128 0x16
 1620 0b54 0B050000 		.4byte	.LASF180
 1621 0b58 0C       		.byte	0xc
 1622 0b59 3601     		.2byte	0x136
 1623 0b5b C00B0000 		.4byte	0xbc0
 1624 0b5f 28       		.byte	0x28
 1625 0b60 16       		.uleb128 0x16
 1626 0b61 45000000 		.4byte	.LASF181
 1627 0b65 0C       		.byte	0xc
 1628 0b66 3C01     		.2byte	0x13c
 1629 0b68 E40B0000 		.4byte	0xbe4
 1630 0b6c 2C       		.byte	0x2c
 1631 0b6d 16       		.uleb128 0x16
 1632 0b6e A80A0000 		.4byte	.LASF182
 1633 0b72 0C       		.byte	0xc
 1634 0b73 4001     		.2byte	0x140
 1635 0b75 730A0000 		.4byte	0xa73
 1636 0b79 34       		.byte	0x34
 1637 0b7a 16       		.uleb128 0x16
 1638 0b7b 19030000 		.4byte	.LASF183
 1639 0b7f 0C       		.byte	0xc
 1640 0b80 4601     		.2byte	0x146
 1641 0b82 7E0A0000 		.4byte	0xa7e
 1642 0b86 38       		.byte	0x38
 1643 0b87 16       		.uleb128 0x16
 1644 0b88 C1010000 		.4byte	.LASF184
 1645 0b8c 0C       		.byte	0xc
 1646 0b8d 4D01     		.2byte	0x14d
 1647 0b8f 29100000 		.4byte	0x1029
 1648 0b93 3C       		.byte	0x3c
 1649 0b94 16       		.uleb128 0x16
 1650 0b95 29060000 		.4byte	.LASF185
 1651 0b99 0C       		.byte	0xc
 1652 0b9a 5101     		.2byte	0x151
 1653 0b9c 680A0000 		.4byte	0xa68
ARM GAS  /var/folders/m4/4md61f0s1_g0rzfghffqnxvr0000gn/T//cclTd5Ut.s 			page 30


 1654 0ba0 40       		.byte	0x40
 1655 0ba1 16       		.uleb128 0x16
 1656 0ba2 4A050000 		.4byte	.LASF186
 1657 0ba6 0C       		.byte	0xc
 1658 0ba7 5801     		.2byte	0x158
 1659 0ba9 5D010000 		.4byte	0x15d
 1660 0bad 44       		.byte	0x44
 1661 0bae 00       		.byte	0
 1662 0baf 02       		.uleb128 0x2
 1663 0bb0 C3050000 		.4byte	.LASF187
 1664 0bb4 0B       		.byte	0xb
 1665 0bb5 44       		.byte	0x44
 1666 0bb6 BA0B0000 		.4byte	0xbba
 1667 0bba 0F       		.uleb128 0xf
 1668 0bbb 04       		.byte	0x4
 1669 0bbc 9F0A0000 		.4byte	0xa9f
 1670 0bc0 02       		.uleb128 0x2
 1671 0bc1 4D080000 		.4byte	.LASF188
 1672 0bc5 0B       		.byte	0xb
 1673 0bc6 49       		.byte	0x49
 1674 0bc7 CB0B0000 		.4byte	0xbcb
 1675 0bcb 0D       		.uleb128 0xd
 1676 0bcc 34040000 		.4byte	.LASF189
 1677 0bd0 04       		.byte	0x4
 1678 0bd1 0C       		.byte	0xc
 1679 0bd2 B0       		.byte	0xb0
 1680 0bd3 E40B0000 		.4byte	0xbe4
 1681 0bd7 0B       		.uleb128 0xb
 1682 0bd8 7B010000 		.4byte	.LASF168
 1683 0bdc 0C       		.byte	0xc
 1684 0bdd B1       		.byte	0xb1
 1685 0bde BA0B0000 		.4byte	0xbba
 1686 0be2 00       		.byte	0
 1687 0be3 00       		.byte	0
 1688 0be4 02       		.uleb128 0x2
 1689 0be5 B1010000 		.4byte	.LASF190
 1690 0be9 0B       		.byte	0xb
 1691 0bea 50       		.byte	0x50
 1692 0beb EF0B0000 		.4byte	0xbef
 1693 0bef 0D       		.uleb128 0xd
 1694 0bf0 C1060000 		.4byte	.LASF191
 1695 0bf4 08       		.byte	0x8
 1696 0bf5 0C       		.byte	0xc
 1697 0bf6 B7       		.byte	0xb7
 1698 0bf7 140C0000 		.4byte	0xc14
 1699 0bfb 0B       		.uleb128 0xb
 1700 0bfc 7B010000 		.4byte	.LASF168
 1701 0c00 0C       		.byte	0xc
 1702 0c01 B8       		.byte	0xb8
 1703 0c02 BA0B0000 		.4byte	0xbba
 1704 0c06 00       		.byte	0
 1705 0c07 0B       		.uleb128 0xb
 1706 0c08 92010000 		.4byte	.LASF169
 1707 0c0c 0C       		.byte	0xc
 1708 0c0d B9       		.byte	0xb9
 1709 0c0e BA0B0000 		.4byte	0xbba
 1710 0c12 04       		.byte	0x4
ARM GAS  /var/folders/m4/4md61f0s1_g0rzfghffqnxvr0000gn/T//cclTd5Ut.s 			page 31


 1711 0c13 00       		.byte	0
 1712 0c14 02       		.uleb128 0x2
 1713 0c15 00040000 		.4byte	.LASF192
 1714 0c19 0B       		.byte	0xb
 1715 0c1a 57       		.byte	0x57
 1716 0c1b 1F0C0000 		.4byte	0xc1f
 1717 0c1f 19       		.uleb128 0x19
 1718 0c20 30030000 		.4byte	.LASF193
 1719 0c24 1C       		.byte	0x1c
 1720 0c25 0C       		.byte	0xc
 1721 0c26 9001     		.2byte	0x190
 1722 0c28 7B0C0000 		.4byte	0xc7b
 1723 0c2c 16       		.uleb128 0x16
 1724 0c2d 46070000 		.4byte	.LASF194
 1725 0c31 0C       		.byte	0xc
 1726 0c32 9101     		.2byte	0x191
 1727 0c34 E40B0000 		.4byte	0xbe4
 1728 0c38 00       		.byte	0
 1729 0c39 16       		.uleb128 0x16
 1730 0c3a DB070000 		.4byte	.LASF195
 1731 0c3e 0C       		.byte	0xc
 1732 0c3f 9201     		.2byte	0x192
 1733 0c41 680A0000 		.4byte	0xa68
 1734 0c45 08       		.byte	0x8
 1735 0c46 16       		.uleb128 0x16
 1736 0c47 57000000 		.4byte	.LASF196
 1737 0c4b 0C       		.byte	0xc
 1738 0c4c 9401     		.2byte	0x194
 1739 0c4e E10D0000 		.4byte	0xde1
 1740 0c52 0C       		.byte	0xc
 1741 0c53 16       		.uleb128 0x16
 1742 0c54 88020000 		.4byte	.LASF197
 1743 0c58 0C       		.byte	0xc
 1744 0c59 9701     		.2byte	0x197
 1745 0c5b BA0B0000 		.4byte	0xbba
 1746 0c5f 10       		.byte	0x10
 1747 0c60 16       		.uleb128 0x16
 1748 0c61 88070000 		.4byte	.LASF198
 1749 0c65 0C       		.byte	0xc
 1750 0c66 9801     		.2byte	0x198
 1751 0c68 BA0B0000 		.4byte	0xbba
 1752 0c6c 14       		.byte	0x14
 1753 0c6d 16       		.uleb128 0x16
 1754 0c6e 2E0A0000 		.4byte	.LASF199
 1755 0c72 0C       		.byte	0xc
 1756 0c73 9B01     		.2byte	0x19b
 1757 0c75 BA0B0000 		.4byte	0xbba
 1758 0c79 18       		.byte	0x18
 1759 0c7a 00       		.byte	0
 1760 0c7b 02       		.uleb128 0x2
 1761 0c7c 7A000000 		.4byte	.LASF200
 1762 0c80 0B       		.byte	0xb
 1763 0c81 5C       		.byte	0x5c
 1764 0c82 860C0000 		.4byte	0xc86
 1765 0c86 0F       		.uleb128 0xf
 1766 0c87 04       		.byte	0x4
 1767 0c88 8C0C0000 		.4byte	0xc8c
ARM GAS  /var/folders/m4/4md61f0s1_g0rzfghffqnxvr0000gn/T//cclTd5Ut.s 			page 32


 1768 0c8c 1D       		.uleb128 0x1d
 1769 0c8d 970C0000 		.4byte	0xc97
 1770 0c91 14       		.uleb128 0x14
 1771 0c92 5D010000 		.4byte	0x15d
 1772 0c96 00       		.byte	0
 1773 0c97 02       		.uleb128 0x2
 1774 0c98 F0030000 		.4byte	.LASF201
 1775 0c9c 0B       		.byte	0xb
 1776 0c9d 61       		.byte	0x61
 1777 0c9e A20C0000 		.4byte	0xca2
 1778 0ca2 19       		.uleb128 0x19
 1779 0ca3 6B060000 		.4byte	.LASF202
 1780 0ca7 14       		.byte	0x14
 1781 0ca8 0C       		.byte	0xc
 1782 0ca9 6B01     		.2byte	0x16b
 1783 0cab F10C0000 		.4byte	0xcf1
 1784 0caf 16       		.uleb128 0x16
 1785 0cb0 A2040000 		.4byte	.LASF203
 1786 0cb4 0C       		.byte	0xc
 1787 0cb5 6C01     		.2byte	0x16c
 1788 0cb7 34100000 		.4byte	0x1034
 1789 0cbb 00       		.byte	0
 1790 0cbc 16       		.uleb128 0x16
 1791 0cbd BB040000 		.4byte	.LASF204
 1792 0cc1 0C       		.byte	0xc
 1793 0cc2 6D01     		.2byte	0x16d
 1794 0cc4 34100000 		.4byte	0x1034
 1795 0cc8 04       		.byte	0x4
 1796 0cc9 16       		.uleb128 0x16
 1797 0cca 53060000 		.4byte	.LASF205
 1798 0cce 0C       		.byte	0xc
 1799 0ccf 6E01     		.2byte	0x16e
 1800 0cd1 940A0000 		.4byte	0xa94
 1801 0cd5 08       		.byte	0x8
 1802 0cd6 16       		.uleb128 0x16
 1803 0cd7 FD020000 		.4byte	.LASF206
 1804 0cdb 0C       		.byte	0xc
 1805 0cdc 6F01     		.2byte	0x16f
 1806 0cde 7B0C0000 		.4byte	0xc7b
 1807 0ce2 0C       		.byte	0xc
 1808 0ce3 16       		.uleb128 0x16
 1809 0ce4 0B010000 		.4byte	.LASF207
 1810 0ce8 0C       		.byte	0xc
 1811 0ce9 7101     		.2byte	0x171
 1812 0ceb 5D010000 		.4byte	0x15d
 1813 0cef 10       		.byte	0x10
 1814 0cf0 00       		.byte	0
 1815 0cf1 02       		.uleb128 0x2
 1816 0cf2 C1030000 		.4byte	.LASF208
 1817 0cf6 0B       		.byte	0xb
 1818 0cf7 66       		.byte	0x66
 1819 0cf8 FC0C0000 		.4byte	0xcfc
 1820 0cfc 19       		.uleb128 0x19
 1821 0cfd 8C000000 		.4byte	.LASF209
 1822 0d01 10       		.byte	0x10
 1823 0d02 0C       		.byte	0xc
 1824 0d03 7B01     		.2byte	0x17b
ARM GAS  /var/folders/m4/4md61f0s1_g0rzfghffqnxvr0000gn/T//cclTd5Ut.s 			page 33


 1825 0d05 3E0D0000 		.4byte	0xd3e
 1826 0d09 16       		.uleb128 0x16
 1827 0d0a A2040000 		.4byte	.LASF203
 1828 0d0e 0C       		.byte	0xc
 1829 0d0f 7C01     		.2byte	0x17c
 1830 0d11 34100000 		.4byte	0x1034
 1831 0d15 00       		.byte	0
 1832 0d16 16       		.uleb128 0x16
 1833 0d17 BB040000 		.4byte	.LASF204
 1834 0d1b 0C       		.byte	0xc
 1835 0d1c 7E01     		.2byte	0x17e
 1836 0d1e 34100000 		.4byte	0x1034
 1837 0d22 04       		.byte	0x4
 1838 0d23 16       		.uleb128 0x16
 1839 0d24 53060000 		.4byte	.LASF205
 1840 0d28 0C       		.byte	0xc
 1841 0d29 8001     		.2byte	0x180
 1842 0d2b 940A0000 		.4byte	0xa94
 1843 0d2f 08       		.byte	0x8
 1844 0d30 16       		.uleb128 0x16
 1845 0d31 7D070000 		.4byte	.LASF210
 1846 0d35 0C       		.byte	0xc
 1847 0d36 8201     		.2byte	0x182
 1848 0d38 2F100000 		.4byte	0x102f
 1849 0d3c 0C       		.byte	0xc
 1850 0d3d 00       		.byte	0
 1851 0d3e 02       		.uleb128 0x2
 1852 0d3f 90020000 		.4byte	.LASF211
 1853 0d43 0B       		.byte	0xb
 1854 0d44 6B       		.byte	0x6b
 1855 0d45 490D0000 		.4byte	0xd49
 1856 0d49 19       		.uleb128 0x19
 1857 0d4a E2070000 		.4byte	.LASF212
 1858 0d4e 04       		.byte	0x4
 1859 0d4f 0C       		.byte	0xc
 1860 0d50 A201     		.2byte	0x1a2
 1861 0d52 640D0000 		.4byte	0xd64
 1862 0d56 16       		.uleb128 0x16
 1863 0d57 6F020000 		.4byte	.LASF213
 1864 0d5b 0C       		.byte	0xc
 1865 0d5c AA01     		.2byte	0x1aa
 1866 0d5e 3A100000 		.4byte	0x103a
 1867 0d62 00       		.byte	0
 1868 0d63 00       		.byte	0
 1869 0d64 02       		.uleb128 0x2
 1870 0d65 F8090000 		.4byte	.LASF214
 1871 0d69 0B       		.byte	0xb
 1872 0d6a 70       		.byte	0x70
 1873 0d6b 6F0D0000 		.4byte	0xd6f
 1874 0d6f 15       		.uleb128 0x15
 1875 0d70 5C080000 		.4byte	.LASF215
 1876 0d74 5802     		.2byte	0x258
 1877 0d76 0C       		.byte	0xc
 1878 0d77 C201     		.2byte	0x1c2
 1879 0d79 CB0D0000 		.4byte	0xdcb
 1880 0d7d 16       		.uleb128 0x16
 1881 0d7e 66070000 		.4byte	.LASF216
ARM GAS  /var/folders/m4/4md61f0s1_g0rzfghffqnxvr0000gn/T//cclTd5Ut.s 			page 34


 1882 0d82 0C       		.byte	0xc
 1883 0d83 C601     		.2byte	0x1c6
 1884 0d85 140C0000 		.4byte	0xc14
 1885 0d89 00       		.byte	0
 1886 0d8a 16       		.uleb128 0x16
 1887 0d8b 05080000 		.4byte	.LASF217
 1888 0d8f 0C       		.byte	0xc
 1889 0d90 CA01     		.2byte	0x1ca
 1890 0d92 F10C0000 		.4byte	0xcf1
 1891 0d96 1C       		.byte	0x1c
 1892 0d97 1E       		.uleb128 0x1e
 1893 0d98 64626700 		.ascii	"dbg\000"
 1894 0d9c 0C       		.byte	0xc
 1895 0d9d CE01     		.2byte	0x1ce
 1896 0d9f 3E0D0000 		.4byte	0xd3e
 1897 0da3 2C       		.byte	0x2c
 1898 0da4 16       		.uleb128 0x16
 1899 0da5 20070000 		.4byte	.LASF218
 1900 0da9 0C       		.byte	0xc
 1901 0daa D201     		.2byte	0x1d2
 1902 0dac 9F0A0000 		.4byte	0xa9f
 1903 0db0 30       		.byte	0x30
 1904 0db1 1E       		.uleb128 0x1e
 1905 0db2 746D00   		.ascii	"tm\000"
 1906 0db5 0C       		.byte	0xc
 1907 0db6 D701     		.2byte	0x1d7
 1908 0db8 5F0F0000 		.4byte	0xf5f
 1909 0dbc 78       		.byte	0x78
 1910 0dbd 16       		.uleb128 0x16
 1911 0dbe 15050000 		.4byte	.LASF219
 1912 0dc2 0C       		.byte	0xc
 1913 0dc3 E301     		.2byte	0x1e3
 1914 0dc5 3F100000 		.4byte	0x103f
 1915 0dc9 80       		.byte	0x80
 1916 0dca 00       		.byte	0
 1917 0dcb 02       		.uleb128 0x2
 1918 0dcc CB010000 		.4byte	.LASF220
 1919 0dd0 0D       		.byte	0xd
 1920 0dd1 65       		.byte	0x65
 1921 0dd2 5D010000 		.4byte	0x15d
 1922 0dd6 02       		.uleb128 0x2
 1923 0dd7 D6020000 		.4byte	.LASF221
 1924 0ddb 0D       		.byte	0xd
 1925 0ddc 6D       		.byte	0x6d
 1926 0ddd DA080000 		.4byte	0x8da
 1927 0de1 0D       		.uleb128 0xd
 1928 0de2 4B020000 		.4byte	.LASF222
 1929 0de6 04       		.byte	0x4
 1930 0de7 0D       		.byte	0xd
 1931 0de8 89       		.byte	0x89
 1932 0de9 FA0D0000 		.4byte	0xdfa
 1933 0ded 0E       		.uleb128 0xe
 1934 0dee 72313300 		.ascii	"r13\000"
 1935 0df2 0D       		.byte	0xd
 1936 0df3 8A       		.byte	0x8a
 1937 0df4 440F0000 		.4byte	0xf44
 1938 0df8 00       		.byte	0
ARM GAS  /var/folders/m4/4md61f0s1_g0rzfghffqnxvr0000gn/T//cclTd5Ut.s 			page 35


 1939 0df9 00       		.byte	0
 1940 0dfa 0D       		.uleb128 0xd
 1941 0dfb 34060000 		.4byte	.LASF223
 1942 0dff 64       		.byte	0x64
 1943 0e00 0E       		.byte	0xe
 1944 0e01 FD       		.byte	0xfd
 1945 0e02 440F0000 		.4byte	0xf44
 1946 0e06 0E       		.uleb128 0xe
 1947 0e07 73313600 		.ascii	"s16\000"
 1948 0e0b 0E       		.byte	0xe
 1949 0e0c FF       		.byte	0xff
 1950 0e0d CB0D0000 		.4byte	0xdcb
 1951 0e11 00       		.byte	0
 1952 0e12 1E       		.uleb128 0x1e
 1953 0e13 73313700 		.ascii	"s17\000"
 1954 0e17 0E       		.byte	0xe
 1955 0e18 0001     		.2byte	0x100
 1956 0e1a CB0D0000 		.4byte	0xdcb
 1957 0e1e 04       		.byte	0x4
 1958 0e1f 1E       		.uleb128 0x1e
 1959 0e20 73313800 		.ascii	"s18\000"
 1960 0e24 0E       		.byte	0xe
 1961 0e25 0101     		.2byte	0x101
 1962 0e27 CB0D0000 		.4byte	0xdcb
 1963 0e2b 08       		.byte	0x8
 1964 0e2c 1E       		.uleb128 0x1e
 1965 0e2d 73313900 		.ascii	"s19\000"
 1966 0e31 0E       		.byte	0xe
 1967 0e32 0201     		.2byte	0x102
 1968 0e34 CB0D0000 		.4byte	0xdcb
 1969 0e38 0C       		.byte	0xc
 1970 0e39 1E       		.uleb128 0x1e
 1971 0e3a 73323000 		.ascii	"s20\000"
 1972 0e3e 0E       		.byte	0xe
 1973 0e3f 0301     		.2byte	0x103
 1974 0e41 CB0D0000 		.4byte	0xdcb
 1975 0e45 10       		.byte	0x10
 1976 0e46 1E       		.uleb128 0x1e
 1977 0e47 73323100 		.ascii	"s21\000"
 1978 0e4b 0E       		.byte	0xe
 1979 0e4c 0401     		.2byte	0x104
 1980 0e4e CB0D0000 		.4byte	0xdcb
 1981 0e52 14       		.byte	0x14
 1982 0e53 1E       		.uleb128 0x1e
 1983 0e54 73323200 		.ascii	"s22\000"
 1984 0e58 0E       		.byte	0xe
 1985 0e59 0501     		.2byte	0x105
 1986 0e5b CB0D0000 		.4byte	0xdcb
 1987 0e5f 18       		.byte	0x18
 1988 0e60 1E       		.uleb128 0x1e
 1989 0e61 73323300 		.ascii	"s23\000"
 1990 0e65 0E       		.byte	0xe
 1991 0e66 0601     		.2byte	0x106
 1992 0e68 CB0D0000 		.4byte	0xdcb
 1993 0e6c 1C       		.byte	0x1c
 1994 0e6d 1E       		.uleb128 0x1e
 1995 0e6e 73323400 		.ascii	"s24\000"
ARM GAS  /var/folders/m4/4md61f0s1_g0rzfghffqnxvr0000gn/T//cclTd5Ut.s 			page 36


 1996 0e72 0E       		.byte	0xe
 1997 0e73 0701     		.2byte	0x107
 1998 0e75 CB0D0000 		.4byte	0xdcb
 1999 0e79 20       		.byte	0x20
 2000 0e7a 1E       		.uleb128 0x1e
 2001 0e7b 73323500 		.ascii	"s25\000"
 2002 0e7f 0E       		.byte	0xe
 2003 0e80 0801     		.2byte	0x108
 2004 0e82 CB0D0000 		.4byte	0xdcb
 2005 0e86 24       		.byte	0x24
 2006 0e87 1E       		.uleb128 0x1e
 2007 0e88 73323600 		.ascii	"s26\000"
 2008 0e8c 0E       		.byte	0xe
 2009 0e8d 0901     		.2byte	0x109
 2010 0e8f CB0D0000 		.4byte	0xdcb
 2011 0e93 28       		.byte	0x28
 2012 0e94 1E       		.uleb128 0x1e
 2013 0e95 73323700 		.ascii	"s27\000"
 2014 0e99 0E       		.byte	0xe
 2015 0e9a 0A01     		.2byte	0x10a
 2016 0e9c CB0D0000 		.4byte	0xdcb
 2017 0ea0 2C       		.byte	0x2c
 2018 0ea1 1E       		.uleb128 0x1e
 2019 0ea2 73323800 		.ascii	"s28\000"
 2020 0ea6 0E       		.byte	0xe
 2021 0ea7 0B01     		.2byte	0x10b
 2022 0ea9 CB0D0000 		.4byte	0xdcb
 2023 0ead 30       		.byte	0x30
 2024 0eae 1E       		.uleb128 0x1e
 2025 0eaf 73323900 		.ascii	"s29\000"
 2026 0eb3 0E       		.byte	0xe
 2027 0eb4 0C01     		.2byte	0x10c
 2028 0eb6 CB0D0000 		.4byte	0xdcb
 2029 0eba 34       		.byte	0x34
 2030 0ebb 1E       		.uleb128 0x1e
 2031 0ebc 73333000 		.ascii	"s30\000"
 2032 0ec0 0E       		.byte	0xe
 2033 0ec1 0D01     		.2byte	0x10d
 2034 0ec3 CB0D0000 		.4byte	0xdcb
 2035 0ec7 38       		.byte	0x38
 2036 0ec8 1E       		.uleb128 0x1e
 2037 0ec9 73333100 		.ascii	"s31\000"
 2038 0ecd 0E       		.byte	0xe
 2039 0ece 0E01     		.2byte	0x10e
 2040 0ed0 CB0D0000 		.4byte	0xdcb
 2041 0ed4 3C       		.byte	0x3c
 2042 0ed5 1E       		.uleb128 0x1e
 2043 0ed6 723400   		.ascii	"r4\000"
 2044 0ed9 0E       		.byte	0xe
 2045 0eda 1001     		.2byte	0x110
 2046 0edc CB0D0000 		.4byte	0xdcb
 2047 0ee0 40       		.byte	0x40
 2048 0ee1 1E       		.uleb128 0x1e
 2049 0ee2 723500   		.ascii	"r5\000"
 2050 0ee5 0E       		.byte	0xe
 2051 0ee6 1101     		.2byte	0x111
 2052 0ee8 CB0D0000 		.4byte	0xdcb
ARM GAS  /var/folders/m4/4md61f0s1_g0rzfghffqnxvr0000gn/T//cclTd5Ut.s 			page 37


 2053 0eec 44       		.byte	0x44
 2054 0eed 1E       		.uleb128 0x1e
 2055 0eee 723600   		.ascii	"r6\000"
 2056 0ef1 0E       		.byte	0xe
 2057 0ef2 1201     		.2byte	0x112
 2058 0ef4 CB0D0000 		.4byte	0xdcb
 2059 0ef8 48       		.byte	0x48
 2060 0ef9 1E       		.uleb128 0x1e
 2061 0efa 723700   		.ascii	"r7\000"
 2062 0efd 0E       		.byte	0xe
 2063 0efe 1301     		.2byte	0x113
 2064 0f00 CB0D0000 		.4byte	0xdcb
 2065 0f04 4C       		.byte	0x4c
 2066 0f05 1E       		.uleb128 0x1e
 2067 0f06 723800   		.ascii	"r8\000"
 2068 0f09 0E       		.byte	0xe
 2069 0f0a 1401     		.2byte	0x114
 2070 0f0c CB0D0000 		.4byte	0xdcb
 2071 0f10 50       		.byte	0x50
 2072 0f11 1E       		.uleb128 0x1e
 2073 0f12 723900   		.ascii	"r9\000"
 2074 0f15 0E       		.byte	0xe
 2075 0f16 1501     		.2byte	0x115
 2076 0f18 CB0D0000 		.4byte	0xdcb
 2077 0f1c 54       		.byte	0x54
 2078 0f1d 1E       		.uleb128 0x1e
 2079 0f1e 72313000 		.ascii	"r10\000"
 2080 0f22 0E       		.byte	0xe
 2081 0f23 1601     		.2byte	0x116
 2082 0f25 CB0D0000 		.4byte	0xdcb
 2083 0f29 58       		.byte	0x58
 2084 0f2a 1E       		.uleb128 0x1e
 2085 0f2b 72313100 		.ascii	"r11\000"
 2086 0f2f 0E       		.byte	0xe
 2087 0f30 1701     		.2byte	0x117
 2088 0f32 CB0D0000 		.4byte	0xdcb
 2089 0f36 5C       		.byte	0x5c
 2090 0f37 1E       		.uleb128 0x1e
 2091 0f38 6C7200   		.ascii	"lr\000"
 2092 0f3b 0E       		.byte	0xe
 2093 0f3c 1801     		.2byte	0x118
 2094 0f3e CB0D0000 		.4byte	0xdcb
 2095 0f42 60       		.byte	0x60
 2096 0f43 00       		.byte	0
 2097 0f44 0F       		.uleb128 0xf
 2098 0f45 04       		.byte	0x4
 2099 0f46 FA0D0000 		.4byte	0xdfa
 2100 0f4a 0A       		.uleb128 0xa
 2101 0f4b 04       		.byte	0x4
 2102 0f4c 0F       		.byte	0xf
 2103 0f4d 38       		.byte	0x38
 2104 0f4e 5F0F0000 		.4byte	0xf5f
 2105 0f52 0B       		.uleb128 0xb
 2106 0f53 BC050000 		.4byte	.LASF224
 2107 0f57 0F       		.byte	0xf
 2108 0f58 3C       		.byte	0x3c
 2109 0f59 310A0000 		.4byte	0xa31
ARM GAS  /var/folders/m4/4md61f0s1_g0rzfghffqnxvr0000gn/T//cclTd5Ut.s 			page 38


 2110 0f5d 00       		.byte	0
 2111 0f5e 00       		.byte	0
 2112 0f5f 02       		.uleb128 0x2
 2113 0f60 90070000 		.4byte	.LASF225
 2114 0f64 0F       		.byte	0xf
 2115 0f65 3D       		.byte	0x3d
 2116 0f66 4A0F0000 		.4byte	0xf4a
 2117 0f6a 06       		.uleb128 0x6
 2118 0f6b 04       		.byte	0x4
 2119 0f6c 0C       		.byte	0xc
 2120 0f6d FA       		.byte	0xfa
 2121 0f6e C70F0000 		.4byte	0xfc7
 2122 0f72 1C       		.uleb128 0x1c
 2123 0f73 AA090000 		.4byte	.LASF226
 2124 0f77 0C       		.byte	0xc
 2125 0f78 0101     		.2byte	0x101
 2126 0f7a 730A0000 		.4byte	0xa73
 2127 0f7e 1C       		.uleb128 0x1c
 2128 0f7f 20010000 		.4byte	.LASF227
 2129 0f83 0C       		.byte	0xc
 2130 0f84 0801     		.2byte	0x108
 2131 0f86 730A0000 		.4byte	0xa73
 2132 0f8a 1C       		.uleb128 0x1c
 2133 0f8b BE020000 		.4byte	.LASF228
 2134 0f8f 0C       		.byte	0xc
 2135 0f90 0F01     		.2byte	0x10f
 2136 0f92 5D010000 		.4byte	0x15d
 2137 0f96 1C       		.uleb128 0x1c
 2138 0f97 53020000 		.4byte	.LASF229
 2139 0f9b 0C       		.byte	0xc
 2140 0f9c 1601     		.2byte	0x116
 2141 0f9e C70F0000 		.4byte	0xfc7
 2142 0fa2 1C       		.uleb128 0x1c
 2143 0fa3 A10A0000 		.4byte	.LASF230
 2144 0fa7 0C       		.byte	0xc
 2145 0fa8 1E01     		.2byte	0x11e
 2146 0faa F20F0000 		.4byte	0xff2
 2147 0fae 1C       		.uleb128 0x1c
 2148 0faf 24030000 		.4byte	.LASF231
 2149 0fb3 0C       		.byte	0xc
 2150 0fb4 2701     		.2byte	0x127
 2151 0fb6 29100000 		.4byte	0x1029
 2152 0fba 1C       		.uleb128 0x1c
 2153 0fbb 3B010000 		.4byte	.LASF232
 2154 0fbf 0C       		.byte	0xc
 2155 0fc0 2F01     		.2byte	0x12f
 2156 0fc2 7E0A0000 		.4byte	0xa7e
 2157 0fc6 00       		.byte	0
 2158 0fc7 0F       		.uleb128 0xf
 2159 0fc8 04       		.byte	0x4
 2160 0fc9 AF0B0000 		.4byte	0xbaf
 2161 0fcd 0D       		.uleb128 0xd
 2162 0fce AA030000 		.4byte	.LASF233
 2163 0fd2 0C       		.byte	0xc
 2164 0fd3 10       		.byte	0x10
 2165 0fd4 34       		.byte	0x34
 2166 0fd5 F20F0000 		.4byte	0xff2
ARM GAS  /var/folders/m4/4md61f0s1_g0rzfghffqnxvr0000gn/T//cclTd5Ut.s 			page 39


 2167 0fd9 0B       		.uleb128 0xb
 2168 0fda A1070000 		.4byte	.LASF234
 2169 0fde 10       		.byte	0x10
 2170 0fdf 35       		.byte	0x35
 2171 0fe0 E40B0000 		.4byte	0xbe4
 2172 0fe4 00       		.byte	0
 2173 0fe5 0B       		.uleb128 0xb
 2174 0fe6 7C060000 		.4byte	.LASF235
 2175 0fea 10       		.byte	0x10
 2176 0feb 37       		.byte	0x37
 2177 0fec 890A0000 		.4byte	0xa89
 2178 0ff0 08       		.byte	0x8
 2179 0ff1 00       		.byte	0
 2180 0ff2 0F       		.uleb128 0xf
 2181 0ff3 04       		.byte	0x4
 2182 0ff4 CD0F0000 		.4byte	0xfcd
 2183 0ff8 0D       		.uleb128 0xd
 2184 0ff9 C9070000 		.4byte	.LASF236
 2185 0ffd 10       		.byte	0x10
 2186 0ffe 11       		.byte	0x11
 2187 0fff 39       		.byte	0x39
 2188 1000 29100000 		.4byte	0x1029
 2189 1004 0B       		.uleb128 0xb
 2190 1005 93040000 		.4byte	.LASF237
 2191 1009 11       		.byte	0x11
 2192 100a 3A       		.byte	0x3a
 2193 100b E40B0000 		.4byte	0xbe4
 2194 100f 00       		.byte	0
 2195 1010 0B       		.uleb128 0xb
 2196 1011 03010000 		.4byte	.LASF238
 2197 1015 11       		.byte	0x11
 2198 1016 3C       		.byte	0x3c
 2199 1017 BA0B0000 		.4byte	0xbba
 2200 101b 08       		.byte	0x8
 2201 101c 0B       		.uleb128 0xb
 2202 101d 840A0000 		.4byte	.LASF239
 2203 1021 11       		.byte	0x11
 2204 1022 3E       		.byte	0x3e
 2205 1023 5A100000 		.4byte	0x105a
 2206 1027 0C       		.byte	0xc
 2207 1028 00       		.byte	0
 2208 1029 0F       		.uleb128 0xf
 2209 102a 04       		.byte	0x4
 2210 102b F80F0000 		.4byte	0xff8
 2211 102f 1F       		.uleb128 0x1f
 2212 1030 940A0000 		.4byte	0xa94
 2213 1034 0F       		.uleb128 0xf
 2214 1035 04       		.byte	0x4
 2215 1036 970C0000 		.4byte	0xc97
 2216 103a 1F       		.uleb128 0x1f
 2217 103b D3050000 		.4byte	0x5d3
 2218 103f 08       		.uleb128 0x8
 2219 1040 D60D0000 		.4byte	0xdd6
 2220 1044 4F100000 		.4byte	0x104f
 2221 1048 09       		.uleb128 0x9
 2222 1049 1F010000 		.4byte	0x11f
 2223 104d 3A       		.byte	0x3a
ARM GAS  /var/folders/m4/4md61f0s1_g0rzfghffqnxvr0000gn/T//cclTd5Ut.s 			page 40


 2224 104e 00       		.byte	0
 2225 104f 02       		.uleb128 0x2
 2226 1050 2E080000 		.4byte	.LASF240
 2227 1054 11       		.byte	0x11
 2228 1055 34       		.byte	0x34
 2229 1056 F80F0000 		.4byte	0xff8
 2230 105a 0F       		.uleb128 0xf
 2231 105b 04       		.byte	0x4
 2232 105c 4F100000 		.4byte	0x104f
 2233 1060 20       		.uleb128 0x20
 2234 1061 1F0A0000 		.4byte	.LASF242
 2235 1065 01       		.byte	0x1
 2236 1066 46       		.byte	0x46
 2237 1067 37000000 		.4byte	0x37
 2238 106b 00000000 		.4byte	.LFB231
 2239 106f 0A000000 		.4byte	.LFE231-.LFB231
 2240 1073 01       		.uleb128 0x1
 2241 1074 9C       		.byte	0x9c
 2242 1075 B0100000 		.4byte	0x10b0
 2243 1079 21       		.uleb128 0x21
 2244 107a 7200     		.ascii	"r\000"
 2245 107c 01       		.byte	0x1
 2246 107d 46       		.byte	0x46
 2247 107e 6A040000 		.4byte	0x46a
 2248 1082 00000000 		.4byte	.LLST0
 2249 1086 22       		.uleb128 0x22
 2250 1087 F2020000 		.4byte	.LASF241
 2251 108b 01       		.byte	0x1
 2252 108c 46       		.byte	0x46
 2253 108d 37000000 		.4byte	0x37
 2254 1091 01       		.uleb128 0x1
 2255 1092 51       		.byte	0x51
 2256 1093 23       		.uleb128 0x23
 2257 1094 70747200 		.ascii	"ptr\000"
 2258 1098 01       		.byte	0x1
 2259 1099 46       		.byte	0x46
 2260 109a A2050000 		.4byte	0x5a2
 2261 109e 01       		.uleb128 0x1
 2262 109f 52       		.byte	0x52
 2263 10a0 21       		.uleb128 0x21
 2264 10a1 6C656E00 		.ascii	"len\000"
 2265 10a5 01       		.byte	0x1
 2266 10a6 46       		.byte	0x46
 2267 10a7 37000000 		.4byte	0x37
 2268 10ab 21000000 		.4byte	.LLST1
 2269 10af 00       		.byte	0
 2270 10b0 20       		.uleb128 0x20
 2271 10b1 1D080000 		.4byte	.LASF243
 2272 10b5 01       		.byte	0x1
 2273 10b6 5B       		.byte	0x5b
 2274 10b7 37000000 		.4byte	0x37
 2275 10bb 00000000 		.4byte	.LFB232
 2276 10bf 04000000 		.4byte	.LFE232-.LFB232
 2277 10c3 01       		.uleb128 0x1
 2278 10c4 9C       		.byte	0x9c
 2279 10c5 FE100000 		.4byte	0x10fe
 2280 10c9 21       		.uleb128 0x21
ARM GAS  /var/folders/m4/4md61f0s1_g0rzfghffqnxvr0000gn/T//cclTd5Ut.s 			page 41


 2281 10ca 7200     		.ascii	"r\000"
 2282 10cc 01       		.byte	0x1
 2283 10cd 5B       		.byte	0x5b
 2284 10ce 6A040000 		.4byte	0x46a
 2285 10d2 42000000 		.4byte	.LLST2
 2286 10d6 22       		.uleb128 0x22
 2287 10d7 F2020000 		.4byte	.LASF241
 2288 10db 01       		.byte	0x1
 2289 10dc 5B       		.byte	0x5b
 2290 10dd 37000000 		.4byte	0x37
 2291 10e1 01       		.uleb128 0x1
 2292 10e2 51       		.byte	0x51
 2293 10e3 23       		.uleb128 0x23
 2294 10e4 70747200 		.ascii	"ptr\000"
 2295 10e8 01       		.byte	0x1
 2296 10e9 5B       		.byte	0x5b
 2297 10ea 37000000 		.4byte	0x37
 2298 10ee 01       		.uleb128 0x1
 2299 10ef 52       		.byte	0x52
 2300 10f0 23       		.uleb128 0x23
 2301 10f1 64697200 		.ascii	"dir\000"
 2302 10f5 01       		.byte	0x1
 2303 10f6 5B       		.byte	0x5b
 2304 10f7 37000000 		.4byte	0x37
 2305 10fb 01       		.uleb128 0x1
 2306 10fc 53       		.byte	0x53
 2307 10fd 00       		.byte	0
 2308 10fe 20       		.uleb128 0x20
 2309 10ff 31050000 		.4byte	.LASF244
 2310 1103 01       		.byte	0x1
 2311 1104 67       		.byte	0x67
 2312 1105 37000000 		.4byte	0x37
 2313 1109 00000000 		.4byte	.LFB233
 2314 110d 04000000 		.4byte	.LFE233-.LFB233
 2315 1111 01       		.uleb128 0x1
 2316 1112 9C       		.byte	0x9c
 2317 1113 4C110000 		.4byte	0x114c
 2318 1117 21       		.uleb128 0x21
 2319 1118 7200     		.ascii	"r\000"
 2320 111a 01       		.byte	0x1
 2321 111b 67       		.byte	0x67
 2322 111c 6A040000 		.4byte	0x46a
 2323 1120 63000000 		.4byte	.LLST3
 2324 1124 22       		.uleb128 0x22
 2325 1125 F2020000 		.4byte	.LASF241
 2326 1129 01       		.byte	0x1
 2327 112a 67       		.byte	0x67
 2328 112b 37000000 		.4byte	0x37
 2329 112f 01       		.uleb128 0x1
 2330 1130 51       		.byte	0x51
 2331 1131 23       		.uleb128 0x23
 2332 1132 70747200 		.ascii	"ptr\000"
 2333 1136 01       		.byte	0x1
 2334 1137 67       		.byte	0x67
 2335 1138 A2050000 		.4byte	0x5a2
 2336 113c 01       		.uleb128 0x1
 2337 113d 52       		.byte	0x52
ARM GAS  /var/folders/m4/4md61f0s1_g0rzfghffqnxvr0000gn/T//cclTd5Ut.s 			page 42


 2338 113e 23       		.uleb128 0x23
 2339 113f 6C656E00 		.ascii	"len\000"
 2340 1143 01       		.byte	0x1
 2341 1144 67       		.byte	0x67
 2342 1145 37000000 		.4byte	0x37
 2343 1149 01       		.uleb128 0x1
 2344 114a 53       		.byte	0x53
 2345 114b 00       		.byte	0
 2346 114c 20       		.uleb128 0x20
 2347 114d 23040000 		.4byte	.LASF245
 2348 1151 01       		.byte	0x1
 2349 1152 78       		.byte	0x78
 2350 1153 37000000 		.4byte	0x37
 2351 1157 00000000 		.4byte	.LFB234
 2352 115b 04000000 		.4byte	.LFE234-.LFB234
 2353 115f 01       		.uleb128 0x1
 2354 1160 9C       		.byte	0x9c
 2355 1161 80110000 		.4byte	0x1180
 2356 1165 21       		.uleb128 0x21
 2357 1166 7200     		.ascii	"r\000"
 2358 1168 01       		.byte	0x1
 2359 1169 78       		.byte	0x78
 2360 116a 6A040000 		.4byte	0x46a
 2361 116e 84000000 		.4byte	.LLST4
 2362 1172 22       		.uleb128 0x22
 2363 1173 F2020000 		.4byte	.LASF241
 2364 1177 01       		.byte	0x1
 2365 1178 78       		.byte	0x78
 2366 1179 37000000 		.4byte	0x37
 2367 117d 01       		.uleb128 0x1
 2368 117e 51       		.byte	0x51
 2369 117f 00       		.byte	0
 2370 1180 20       		.uleb128 0x20
 2371 1181 79020000 		.4byte	.LASF246
 2372 1185 01       		.byte	0x1
 2373 1186 82       		.byte	0x82
 2374 1187 F0080000 		.4byte	0x8f0
 2375 118b 00000000 		.4byte	.LFB235
 2376 118f 18000000 		.4byte	.LFE235-.LFB235
 2377 1193 01       		.uleb128 0x1
 2378 1194 9C       		.byte	0x9c
 2379 1195 DD110000 		.4byte	0x11dd
 2380 1199 21       		.uleb128 0x21
 2381 119a 7200     		.ascii	"r\000"
 2382 119c 01       		.byte	0x1
 2383 119d 82       		.byte	0x82
 2384 119e 6A040000 		.4byte	0x46a
 2385 11a2 A5000000 		.4byte	.LLST5
 2386 11a6 24       		.uleb128 0x24
 2387 11a7 5B050000 		.4byte	.LASF247
 2388 11ab 01       		.byte	0x1
 2389 11ac 82       		.byte	0x82
 2390 11ad 37000000 		.4byte	0x37
 2391 11b1 C3000000 		.4byte	.LLST6
 2392 11b5 25       		.uleb128 0x25
 2393 11b6 7000     		.ascii	"p\000"
 2394 11b8 01       		.byte	0x1
ARM GAS  /var/folders/m4/4md61f0s1_g0rzfghffqnxvr0000gn/T//cclTd5Ut.s 			page 43


 2395 11b9 85       		.byte	0x85
 2396 11ba 5D010000 		.4byte	0x15d
 2397 11be E4000000 		.4byte	.LLST7
 2398 11c2 26       		.uleb128 0x26
 2399 11c3 83000000 		.4byte	.LASF254
 2400 11c7 DD110000 		.4byte	0x11dd
 2401 11cb 27       		.uleb128 0x27
 2402 11cc 0A000000 		.4byte	.LVL11
 2403 11d0 96120000 		.4byte	0x1296
 2404 11d4 28       		.uleb128 0x28
 2405 11d5 01       		.uleb128 0x1
 2406 11d6 50       		.byte	0x50
 2407 11d7 03       		.uleb128 0x3
 2408 11d8 F3       		.byte	0xf3
 2409 11d9 01       		.uleb128 0x1
 2410 11da 51       		.byte	0x51
 2411 11db 00       		.byte	0
 2412 11dc 00       		.byte	0
 2413 11dd 18       		.uleb128 0x18
 2414 11de E5070000 		.4byte	0x7e5
 2415 11e2 20       		.uleb128 0x20
 2416 11e3 FB060000 		.4byte	.LASF248
 2417 11e7 01       		.byte	0x1
 2418 11e8 98       		.byte	0x98
 2419 11e9 37000000 		.4byte	0x37
 2420 11ed 00000000 		.4byte	.LFB236
 2421 11f1 18000000 		.4byte	.LFE236-.LFB236
 2422 11f5 01       		.uleb128 0x1
 2423 11f6 9C       		.byte	0x9c
 2424 11f7 41120000 		.4byte	0x1241
 2425 11fb 21       		.uleb128 0x21
 2426 11fc 7200     		.ascii	"r\000"
 2427 11fe 01       		.byte	0x1
 2428 11ff 98       		.byte	0x98
 2429 1200 6A040000 		.4byte	0x46a
 2430 1204 F7000000 		.4byte	.LLST8
 2431 1208 24       		.uleb128 0x24
 2432 1209 F2020000 		.4byte	.LASF241
 2433 120d 01       		.byte	0x1
 2434 120e 98       		.byte	0x98
 2435 120f 37000000 		.4byte	0x37
 2436 1213 18010000 		.4byte	.LLST9
 2437 1217 21       		.uleb128 0x21
 2438 1218 737400   		.ascii	"st\000"
 2439 121b 01       		.byte	0x1
 2440 121c 98       		.byte	0x98
 2441 121d 41120000 		.4byte	0x1241
 2442 1221 39010000 		.4byte	.LLST10
 2443 1225 27       		.uleb128 0x27
 2444 1226 0E000000 		.4byte	.LVL18
 2445 122a AB120000 		.4byte	0x12ab
 2446 122e 28       		.uleb128 0x28
 2447 122f 01       		.uleb128 0x1
 2448 1230 52       		.byte	0x52
 2449 1231 02       		.uleb128 0x2
 2450 1232 08       		.byte	0x8
 2451 1233 3C       		.byte	0x3c
ARM GAS  /var/folders/m4/4md61f0s1_g0rzfghffqnxvr0000gn/T//cclTd5Ut.s 			page 44


 2452 1234 28       		.uleb128 0x28
 2453 1235 01       		.uleb128 0x1
 2454 1236 51       		.byte	0x51
 2455 1237 01       		.uleb128 0x1
 2456 1238 30       		.byte	0x30
 2457 1239 28       		.uleb128 0x28
 2458 123a 01       		.uleb128 0x1
 2459 123b 50       		.byte	0x50
 2460 123c 02       		.uleb128 0x2
 2461 123d 74       		.byte	0x74
 2462 123e 00       		.sleb128 0
 2463 123f 00       		.byte	0
 2464 1240 00       		.byte	0
 2465 1241 0F       		.uleb128 0xf
 2466 1242 04       		.byte	0x4
 2467 1243 48090000 		.4byte	0x948
 2468 1247 20       		.uleb128 0x20
 2469 1248 CC020000 		.4byte	.LASF249
 2470 124c 01       		.byte	0x1
 2471 124d A4       		.byte	0xa4
 2472 124e 37000000 		.4byte	0x37
 2473 1252 00000000 		.4byte	.LFB237
 2474 1256 04000000 		.4byte	.LFE237-.LFB237
 2475 125a 01       		.uleb128 0x1
 2476 125b 9C       		.byte	0x9c
 2477 125c 7A120000 		.4byte	0x127a
 2478 1260 21       		.uleb128 0x21
 2479 1261 7200     		.ascii	"r\000"
 2480 1263 01       		.byte	0x1
 2481 1264 A4       		.byte	0xa4
 2482 1265 6A040000 		.4byte	0x46a
 2483 1269 62010000 		.4byte	.LLST11
 2484 126d 23       		.uleb128 0x23
 2485 126e 666400   		.ascii	"fd\000"
 2486 1271 01       		.byte	0x1
 2487 1272 A4       		.byte	0xa4
 2488 1273 37000000 		.4byte	0x37
 2489 1277 01       		.uleb128 0x1
 2490 1278 51       		.byte	0x51
 2491 1279 00       		.byte	0
 2492 127a 29       		.uleb128 0x29
 2493 127b F8040000 		.4byte	.LASF250
 2494 127f 12       		.byte	0x12
 2495 1280 FA06     		.2byte	0x6fa
 2496 1282 86120000 		.4byte	0x1286
 2497 1286 1F       		.uleb128 0x1f
 2498 1287 C4080000 		.4byte	0x8c4
 2499 128b 2A       		.uleb128 0x2a
 2500 128c 636800   		.ascii	"ch\000"
 2501 128f 0C       		.byte	0xc
 2502 1290 0902     		.2byte	0x209
 2503 1292 640D0000 		.4byte	0xd64
 2504 1296 2B       		.uleb128 0x2b
 2505 1297 0D030000 		.4byte	.LASF255
 2506 129b 13       		.byte	0x13
 2507 129c 60       		.byte	0x60
 2508 129d 5D010000 		.4byte	0x15d
ARM GAS  /var/folders/m4/4md61f0s1_g0rzfghffqnxvr0000gn/T//cclTd5Ut.s 			page 45


 2509 12a1 AB120000 		.4byte	0x12ab
 2510 12a5 14       		.uleb128 0x14
 2511 12a6 25000000 		.4byte	0x25
 2512 12aa 00       		.byte	0
 2513 12ab 2C       		.uleb128 0x2c
 2514 12ac A4020000 		.4byte	.LASF256
 2515 12b0 5D010000 		.4byte	0x15d
 2516 12b4 14       		.uleb128 0x14
 2517 12b5 5D010000 		.4byte	0x15d
 2518 12b9 14       		.uleb128 0x14
 2519 12ba 37000000 		.4byte	0x37
 2520 12be 14       		.uleb128 0x14
 2521 12bf 1F010000 		.4byte	0x11f
 2522 12c3 00       		.byte	0
 2523 12c4 00       		.byte	0
 2524              		.section	.debug_abbrev,"",%progbits
 2525              	.Ldebug_abbrev0:
 2526 0000 01       		.uleb128 0x1
 2527 0001 11       		.uleb128 0x11
 2528 0002 01       		.byte	0x1
 2529 0003 25       		.uleb128 0x25
 2530 0004 0E       		.uleb128 0xe
 2531 0005 13       		.uleb128 0x13
 2532 0006 0B       		.uleb128 0xb
 2533 0007 03       		.uleb128 0x3
 2534 0008 0E       		.uleb128 0xe
 2535 0009 1B       		.uleb128 0x1b
 2536 000a 0E       		.uleb128 0xe
 2537 000b 55       		.uleb128 0x55
 2538 000c 17       		.uleb128 0x17
 2539 000d 11       		.uleb128 0x11
 2540 000e 01       		.uleb128 0x1
 2541 000f 10       		.uleb128 0x10
 2542 0010 17       		.uleb128 0x17
 2543 0011 00       		.byte	0
 2544 0012 00       		.byte	0
 2545 0013 02       		.uleb128 0x2
 2546 0014 16       		.uleb128 0x16
 2547 0015 00       		.byte	0
 2548 0016 03       		.uleb128 0x3
 2549 0017 0E       		.uleb128 0xe
 2550 0018 3A       		.uleb128 0x3a
 2551 0019 0B       		.uleb128 0xb
 2552 001a 3B       		.uleb128 0x3b
 2553 001b 0B       		.uleb128 0xb
 2554 001c 49       		.uleb128 0x49
 2555 001d 13       		.uleb128 0x13
 2556 001e 00       		.byte	0
 2557 001f 00       		.byte	0
 2558 0020 03       		.uleb128 0x3
 2559 0021 24       		.uleb128 0x24
 2560 0022 00       		.byte	0
 2561 0023 0B       		.uleb128 0xb
 2562 0024 0B       		.uleb128 0xb
 2563 0025 3E       		.uleb128 0x3e
 2564 0026 0B       		.uleb128 0xb
 2565 0027 03       		.uleb128 0x3
ARM GAS  /var/folders/m4/4md61f0s1_g0rzfghffqnxvr0000gn/T//cclTd5Ut.s 			page 46


 2566 0028 0E       		.uleb128 0xe
 2567 0029 00       		.byte	0
 2568 002a 00       		.byte	0
 2569 002b 04       		.uleb128 0x4
 2570 002c 24       		.uleb128 0x24
 2571 002d 00       		.byte	0
 2572 002e 0B       		.uleb128 0xb
 2573 002f 0B       		.uleb128 0xb
 2574 0030 3E       		.uleb128 0x3e
 2575 0031 0B       		.uleb128 0xb
 2576 0032 03       		.uleb128 0x3
 2577 0033 08       		.uleb128 0x8
 2578 0034 00       		.byte	0
 2579 0035 00       		.byte	0
 2580 0036 05       		.uleb128 0x5
 2581 0037 16       		.uleb128 0x16
 2582 0038 00       		.byte	0
 2583 0039 03       		.uleb128 0x3
 2584 003a 0E       		.uleb128 0xe
 2585 003b 3A       		.uleb128 0x3a
 2586 003c 0B       		.uleb128 0xb
 2587 003d 3B       		.uleb128 0x3b
 2588 003e 05       		.uleb128 0x5
 2589 003f 49       		.uleb128 0x49
 2590 0040 13       		.uleb128 0x13
 2591 0041 00       		.byte	0
 2592 0042 00       		.byte	0
 2593 0043 06       		.uleb128 0x6
 2594 0044 17       		.uleb128 0x17
 2595 0045 01       		.byte	0x1
 2596 0046 0B       		.uleb128 0xb
 2597 0047 0B       		.uleb128 0xb
 2598 0048 3A       		.uleb128 0x3a
 2599 0049 0B       		.uleb128 0xb
 2600 004a 3B       		.uleb128 0x3b
 2601 004b 0B       		.uleb128 0xb
 2602 004c 01       		.uleb128 0x1
 2603 004d 13       		.uleb128 0x13
 2604 004e 00       		.byte	0
 2605 004f 00       		.byte	0
 2606 0050 07       		.uleb128 0x7
 2607 0051 0D       		.uleb128 0xd
 2608 0052 00       		.byte	0
 2609 0053 03       		.uleb128 0x3
 2610 0054 0E       		.uleb128 0xe
 2611 0055 3A       		.uleb128 0x3a
 2612 0056 0B       		.uleb128 0xb
 2613 0057 3B       		.uleb128 0x3b
 2614 0058 0B       		.uleb128 0xb
 2615 0059 49       		.uleb128 0x49
 2616 005a 13       		.uleb128 0x13
 2617 005b 00       		.byte	0
 2618 005c 00       		.byte	0
 2619 005d 08       		.uleb128 0x8
 2620 005e 01       		.uleb128 0x1
 2621 005f 01       		.byte	0x1
 2622 0060 49       		.uleb128 0x49
ARM GAS  /var/folders/m4/4md61f0s1_g0rzfghffqnxvr0000gn/T//cclTd5Ut.s 			page 47


 2623 0061 13       		.uleb128 0x13
 2624 0062 01       		.uleb128 0x1
 2625 0063 13       		.uleb128 0x13
 2626 0064 00       		.byte	0
 2627 0065 00       		.byte	0
 2628 0066 09       		.uleb128 0x9
 2629 0067 21       		.uleb128 0x21
 2630 0068 00       		.byte	0
 2631 0069 49       		.uleb128 0x49
 2632 006a 13       		.uleb128 0x13
 2633 006b 2F       		.uleb128 0x2f
 2634 006c 0B       		.uleb128 0xb
 2635 006d 00       		.byte	0
 2636 006e 00       		.byte	0
 2637 006f 0A       		.uleb128 0xa
 2638 0070 13       		.uleb128 0x13
 2639 0071 01       		.byte	0x1
 2640 0072 0B       		.uleb128 0xb
 2641 0073 0B       		.uleb128 0xb
 2642 0074 3A       		.uleb128 0x3a
 2643 0075 0B       		.uleb128 0xb
 2644 0076 3B       		.uleb128 0x3b
 2645 0077 0B       		.uleb128 0xb
 2646 0078 01       		.uleb128 0x1
 2647 0079 13       		.uleb128 0x13
 2648 007a 00       		.byte	0
 2649 007b 00       		.byte	0
 2650 007c 0B       		.uleb128 0xb
 2651 007d 0D       		.uleb128 0xd
 2652 007e 00       		.byte	0
 2653 007f 03       		.uleb128 0x3
 2654 0080 0E       		.uleb128 0xe
 2655 0081 3A       		.uleb128 0x3a
 2656 0082 0B       		.uleb128 0xb
 2657 0083 3B       		.uleb128 0x3b
 2658 0084 0B       		.uleb128 0xb
 2659 0085 49       		.uleb128 0x49
 2660 0086 13       		.uleb128 0x13
 2661 0087 38       		.uleb128 0x38
 2662 0088 0B       		.uleb128 0xb
 2663 0089 00       		.byte	0
 2664 008a 00       		.byte	0
 2665 008b 0C       		.uleb128 0xc
 2666 008c 0F       		.uleb128 0xf
 2667 008d 00       		.byte	0
 2668 008e 0B       		.uleb128 0xb
 2669 008f 0B       		.uleb128 0xb
 2670 0090 00       		.byte	0
 2671 0091 00       		.byte	0
 2672 0092 0D       		.uleb128 0xd
 2673 0093 13       		.uleb128 0x13
 2674 0094 01       		.byte	0x1
 2675 0095 03       		.uleb128 0x3
 2676 0096 0E       		.uleb128 0xe
 2677 0097 0B       		.uleb128 0xb
 2678 0098 0B       		.uleb128 0xb
 2679 0099 3A       		.uleb128 0x3a
ARM GAS  /var/folders/m4/4md61f0s1_g0rzfghffqnxvr0000gn/T//cclTd5Ut.s 			page 48


 2680 009a 0B       		.uleb128 0xb
 2681 009b 3B       		.uleb128 0x3b
 2682 009c 0B       		.uleb128 0xb
 2683 009d 01       		.uleb128 0x1
 2684 009e 13       		.uleb128 0x13
 2685 009f 00       		.byte	0
 2686 00a0 00       		.byte	0
 2687 00a1 0E       		.uleb128 0xe
 2688 00a2 0D       		.uleb128 0xd
 2689 00a3 00       		.byte	0
 2690 00a4 03       		.uleb128 0x3
 2691 00a5 08       		.uleb128 0x8
 2692 00a6 3A       		.uleb128 0x3a
 2693 00a7 0B       		.uleb128 0xb
 2694 00a8 3B       		.uleb128 0x3b
 2695 00a9 0B       		.uleb128 0xb
 2696 00aa 49       		.uleb128 0x49
 2697 00ab 13       		.uleb128 0x13
 2698 00ac 38       		.uleb128 0x38
 2699 00ad 0B       		.uleb128 0xb
 2700 00ae 00       		.byte	0
 2701 00af 00       		.byte	0
 2702 00b0 0F       		.uleb128 0xf
 2703 00b1 0F       		.uleb128 0xf
 2704 00b2 00       		.byte	0
 2705 00b3 0B       		.uleb128 0xb
 2706 00b4 0B       		.uleb128 0xb
 2707 00b5 49       		.uleb128 0x49
 2708 00b6 13       		.uleb128 0x13
 2709 00b7 00       		.byte	0
 2710 00b8 00       		.byte	0
 2711 00b9 10       		.uleb128 0x10
 2712 00ba 13       		.uleb128 0x13
 2713 00bb 01       		.byte	0x1
 2714 00bc 03       		.uleb128 0x3
 2715 00bd 0E       		.uleb128 0xe
 2716 00be 0B       		.uleb128 0xb
 2717 00bf 05       		.uleb128 0x5
 2718 00c0 3A       		.uleb128 0x3a
 2719 00c1 0B       		.uleb128 0xb
 2720 00c2 3B       		.uleb128 0x3b
 2721 00c3 0B       		.uleb128 0xb
 2722 00c4 01       		.uleb128 0x1
 2723 00c5 13       		.uleb128 0x13
 2724 00c6 00       		.byte	0
 2725 00c7 00       		.byte	0
 2726 00c8 11       		.uleb128 0x11
 2727 00c9 0D       		.uleb128 0xd
 2728 00ca 00       		.byte	0
 2729 00cb 03       		.uleb128 0x3
 2730 00cc 0E       		.uleb128 0xe
 2731 00cd 3A       		.uleb128 0x3a
 2732 00ce 0B       		.uleb128 0xb
 2733 00cf 3B       		.uleb128 0x3b
 2734 00d0 0B       		.uleb128 0xb
 2735 00d1 49       		.uleb128 0x49
 2736 00d2 13       		.uleb128 0x13
ARM GAS  /var/folders/m4/4md61f0s1_g0rzfghffqnxvr0000gn/T//cclTd5Ut.s 			page 49


 2737 00d3 38       		.uleb128 0x38
 2738 00d4 05       		.uleb128 0x5
 2739 00d5 00       		.byte	0
 2740 00d6 00       		.byte	0
 2741 00d7 12       		.uleb128 0x12
 2742 00d8 15       		.uleb128 0x15
 2743 00d9 00       		.byte	0
 2744 00da 27       		.uleb128 0x27
 2745 00db 19       		.uleb128 0x19
 2746 00dc 00       		.byte	0
 2747 00dd 00       		.byte	0
 2748 00de 13       		.uleb128 0x13
 2749 00df 15       		.uleb128 0x15
 2750 00e0 01       		.byte	0x1
 2751 00e1 27       		.uleb128 0x27
 2752 00e2 19       		.uleb128 0x19
 2753 00e3 49       		.uleb128 0x49
 2754 00e4 13       		.uleb128 0x13
 2755 00e5 01       		.uleb128 0x1
 2756 00e6 13       		.uleb128 0x13
 2757 00e7 00       		.byte	0
 2758 00e8 00       		.byte	0
 2759 00e9 14       		.uleb128 0x14
 2760 00ea 05       		.uleb128 0x5
 2761 00eb 00       		.byte	0
 2762 00ec 49       		.uleb128 0x49
 2763 00ed 13       		.uleb128 0x13
 2764 00ee 00       		.byte	0
 2765 00ef 00       		.byte	0
 2766 00f0 15       		.uleb128 0x15
 2767 00f1 13       		.uleb128 0x13
 2768 00f2 01       		.byte	0x1
 2769 00f3 03       		.uleb128 0x3
 2770 00f4 0E       		.uleb128 0xe
 2771 00f5 0B       		.uleb128 0xb
 2772 00f6 05       		.uleb128 0x5
 2773 00f7 3A       		.uleb128 0x3a
 2774 00f8 0B       		.uleb128 0xb
 2775 00f9 3B       		.uleb128 0x3b
 2776 00fa 05       		.uleb128 0x5
 2777 00fb 01       		.uleb128 0x1
 2778 00fc 13       		.uleb128 0x13
 2779 00fd 00       		.byte	0
 2780 00fe 00       		.byte	0
 2781 00ff 16       		.uleb128 0x16
 2782 0100 0D       		.uleb128 0xd
 2783 0101 00       		.byte	0
 2784 0102 03       		.uleb128 0x3
 2785 0103 0E       		.uleb128 0xe
 2786 0104 3A       		.uleb128 0x3a
 2787 0105 0B       		.uleb128 0xb
 2788 0106 3B       		.uleb128 0x3b
 2789 0107 05       		.uleb128 0x5
 2790 0108 49       		.uleb128 0x49
 2791 0109 13       		.uleb128 0x13
 2792 010a 38       		.uleb128 0x38
 2793 010b 0B       		.uleb128 0xb
ARM GAS  /var/folders/m4/4md61f0s1_g0rzfghffqnxvr0000gn/T//cclTd5Ut.s 			page 50


 2794 010c 00       		.byte	0
 2795 010d 00       		.byte	0
 2796 010e 17       		.uleb128 0x17
 2797 010f 0D       		.uleb128 0xd
 2798 0110 00       		.byte	0
 2799 0111 03       		.uleb128 0x3
 2800 0112 0E       		.uleb128 0xe
 2801 0113 3A       		.uleb128 0x3a
 2802 0114 0B       		.uleb128 0xb
 2803 0115 3B       		.uleb128 0x3b
 2804 0116 05       		.uleb128 0x5
 2805 0117 49       		.uleb128 0x49
 2806 0118 13       		.uleb128 0x13
 2807 0119 38       		.uleb128 0x38
 2808 011a 05       		.uleb128 0x5
 2809 011b 00       		.byte	0
 2810 011c 00       		.byte	0
 2811 011d 18       		.uleb128 0x18
 2812 011e 26       		.uleb128 0x26
 2813 011f 00       		.byte	0
 2814 0120 49       		.uleb128 0x49
 2815 0121 13       		.uleb128 0x13
 2816 0122 00       		.byte	0
 2817 0123 00       		.byte	0
 2818 0124 19       		.uleb128 0x19
 2819 0125 13       		.uleb128 0x13
 2820 0126 01       		.byte	0x1
 2821 0127 03       		.uleb128 0x3
 2822 0128 0E       		.uleb128 0xe
 2823 0129 0B       		.uleb128 0xb
 2824 012a 0B       		.uleb128 0xb
 2825 012b 3A       		.uleb128 0x3a
 2826 012c 0B       		.uleb128 0xb
 2827 012d 3B       		.uleb128 0x3b
 2828 012e 05       		.uleb128 0x5
 2829 012f 01       		.uleb128 0x1
 2830 0130 13       		.uleb128 0x13
 2831 0131 00       		.byte	0
 2832 0132 00       		.byte	0
 2833 0133 1A       		.uleb128 0x1a
 2834 0134 13       		.uleb128 0x13
 2835 0135 01       		.byte	0x1
 2836 0136 0B       		.uleb128 0xb
 2837 0137 0B       		.uleb128 0xb
 2838 0138 3A       		.uleb128 0x3a
 2839 0139 0B       		.uleb128 0xb
 2840 013a 3B       		.uleb128 0x3b
 2841 013b 05       		.uleb128 0x5
 2842 013c 01       		.uleb128 0x1
 2843 013d 13       		.uleb128 0x13
 2844 013e 00       		.byte	0
 2845 013f 00       		.byte	0
 2846 0140 1B       		.uleb128 0x1b
 2847 0141 17       		.uleb128 0x17
 2848 0142 01       		.byte	0x1
 2849 0143 0B       		.uleb128 0xb
 2850 0144 0B       		.uleb128 0xb
ARM GAS  /var/folders/m4/4md61f0s1_g0rzfghffqnxvr0000gn/T//cclTd5Ut.s 			page 51


 2851 0145 3A       		.uleb128 0x3a
 2852 0146 0B       		.uleb128 0xb
 2853 0147 3B       		.uleb128 0x3b
 2854 0148 05       		.uleb128 0x5
 2855 0149 01       		.uleb128 0x1
 2856 014a 13       		.uleb128 0x13
 2857 014b 00       		.byte	0
 2858 014c 00       		.byte	0
 2859 014d 1C       		.uleb128 0x1c
 2860 014e 0D       		.uleb128 0xd
 2861 014f 00       		.byte	0
 2862 0150 03       		.uleb128 0x3
 2863 0151 0E       		.uleb128 0xe
 2864 0152 3A       		.uleb128 0x3a
 2865 0153 0B       		.uleb128 0xb
 2866 0154 3B       		.uleb128 0x3b
 2867 0155 05       		.uleb128 0x5
 2868 0156 49       		.uleb128 0x49
 2869 0157 13       		.uleb128 0x13
 2870 0158 00       		.byte	0
 2871 0159 00       		.byte	0
 2872 015a 1D       		.uleb128 0x1d
 2873 015b 15       		.uleb128 0x15
 2874 015c 01       		.byte	0x1
 2875 015d 27       		.uleb128 0x27
 2876 015e 19       		.uleb128 0x19
 2877 015f 01       		.uleb128 0x1
 2878 0160 13       		.uleb128 0x13
 2879 0161 00       		.byte	0
 2880 0162 00       		.byte	0
 2881 0163 1E       		.uleb128 0x1e
 2882 0164 0D       		.uleb128 0xd
 2883 0165 00       		.byte	0
 2884 0166 03       		.uleb128 0x3
 2885 0167 08       		.uleb128 0x8
 2886 0168 3A       		.uleb128 0x3a
 2887 0169 0B       		.uleb128 0xb
 2888 016a 3B       		.uleb128 0x3b
 2889 016b 05       		.uleb128 0x5
 2890 016c 49       		.uleb128 0x49
 2891 016d 13       		.uleb128 0x13
 2892 016e 38       		.uleb128 0x38
 2893 016f 0B       		.uleb128 0xb
 2894 0170 00       		.byte	0
 2895 0171 00       		.byte	0
 2896 0172 1F       		.uleb128 0x1f
 2897 0173 35       		.uleb128 0x35
 2898 0174 00       		.byte	0
 2899 0175 49       		.uleb128 0x49
 2900 0176 13       		.uleb128 0x13
 2901 0177 00       		.byte	0
 2902 0178 00       		.byte	0
 2903 0179 20       		.uleb128 0x20
 2904 017a 2E       		.uleb128 0x2e
 2905 017b 01       		.byte	0x1
 2906 017c 3F       		.uleb128 0x3f
 2907 017d 19       		.uleb128 0x19
ARM GAS  /var/folders/m4/4md61f0s1_g0rzfghffqnxvr0000gn/T//cclTd5Ut.s 			page 52


 2908 017e 03       		.uleb128 0x3
 2909 017f 0E       		.uleb128 0xe
 2910 0180 3A       		.uleb128 0x3a
 2911 0181 0B       		.uleb128 0xb
 2912 0182 3B       		.uleb128 0x3b
 2913 0183 0B       		.uleb128 0xb
 2914 0184 27       		.uleb128 0x27
 2915 0185 19       		.uleb128 0x19
 2916 0186 49       		.uleb128 0x49
 2917 0187 13       		.uleb128 0x13
 2918 0188 11       		.uleb128 0x11
 2919 0189 01       		.uleb128 0x1
 2920 018a 12       		.uleb128 0x12
 2921 018b 06       		.uleb128 0x6
 2922 018c 40       		.uleb128 0x40
 2923 018d 18       		.uleb128 0x18
 2924 018e 9742     		.uleb128 0x2117
 2925 0190 19       		.uleb128 0x19
 2926 0191 01       		.uleb128 0x1
 2927 0192 13       		.uleb128 0x13
 2928 0193 00       		.byte	0
 2929 0194 00       		.byte	0
 2930 0195 21       		.uleb128 0x21
 2931 0196 05       		.uleb128 0x5
 2932 0197 00       		.byte	0
 2933 0198 03       		.uleb128 0x3
 2934 0199 08       		.uleb128 0x8
 2935 019a 3A       		.uleb128 0x3a
 2936 019b 0B       		.uleb128 0xb
 2937 019c 3B       		.uleb128 0x3b
 2938 019d 0B       		.uleb128 0xb
 2939 019e 49       		.uleb128 0x49
 2940 019f 13       		.uleb128 0x13
 2941 01a0 02       		.uleb128 0x2
 2942 01a1 17       		.uleb128 0x17
 2943 01a2 00       		.byte	0
 2944 01a3 00       		.byte	0
 2945 01a4 22       		.uleb128 0x22
 2946 01a5 05       		.uleb128 0x5
 2947 01a6 00       		.byte	0
 2948 01a7 03       		.uleb128 0x3
 2949 01a8 0E       		.uleb128 0xe
 2950 01a9 3A       		.uleb128 0x3a
 2951 01aa 0B       		.uleb128 0xb
 2952 01ab 3B       		.uleb128 0x3b
 2953 01ac 0B       		.uleb128 0xb
 2954 01ad 49       		.uleb128 0x49
 2955 01ae 13       		.uleb128 0x13
 2956 01af 02       		.uleb128 0x2
 2957 01b0 18       		.uleb128 0x18
 2958 01b1 00       		.byte	0
 2959 01b2 00       		.byte	0
 2960 01b3 23       		.uleb128 0x23
 2961 01b4 05       		.uleb128 0x5
 2962 01b5 00       		.byte	0
 2963 01b6 03       		.uleb128 0x3
 2964 01b7 08       		.uleb128 0x8
ARM GAS  /var/folders/m4/4md61f0s1_g0rzfghffqnxvr0000gn/T//cclTd5Ut.s 			page 53


 2965 01b8 3A       		.uleb128 0x3a
 2966 01b9 0B       		.uleb128 0xb
 2967 01ba 3B       		.uleb128 0x3b
 2968 01bb 0B       		.uleb128 0xb
 2969 01bc 49       		.uleb128 0x49
 2970 01bd 13       		.uleb128 0x13
 2971 01be 02       		.uleb128 0x2
 2972 01bf 18       		.uleb128 0x18
 2973 01c0 00       		.byte	0
 2974 01c1 00       		.byte	0
 2975 01c2 24       		.uleb128 0x24
 2976 01c3 05       		.uleb128 0x5
 2977 01c4 00       		.byte	0
 2978 01c5 03       		.uleb128 0x3
 2979 01c6 0E       		.uleb128 0xe
 2980 01c7 3A       		.uleb128 0x3a
 2981 01c8 0B       		.uleb128 0xb
 2982 01c9 3B       		.uleb128 0x3b
 2983 01ca 0B       		.uleb128 0xb
 2984 01cb 49       		.uleb128 0x49
 2985 01cc 13       		.uleb128 0x13
 2986 01cd 02       		.uleb128 0x2
 2987 01ce 17       		.uleb128 0x17
 2988 01cf 00       		.byte	0
 2989 01d0 00       		.byte	0
 2990 01d1 25       		.uleb128 0x25
 2991 01d2 34       		.uleb128 0x34
 2992 01d3 00       		.byte	0
 2993 01d4 03       		.uleb128 0x3
 2994 01d5 08       		.uleb128 0x8
 2995 01d6 3A       		.uleb128 0x3a
 2996 01d7 0B       		.uleb128 0xb
 2997 01d8 3B       		.uleb128 0x3b
 2998 01d9 0B       		.uleb128 0xb
 2999 01da 49       		.uleb128 0x49
 3000 01db 13       		.uleb128 0x13
 3001 01dc 02       		.uleb128 0x2
 3002 01dd 17       		.uleb128 0x17
 3003 01de 00       		.byte	0
 3004 01df 00       		.byte	0
 3005 01e0 26       		.uleb128 0x26
 3006 01e1 34       		.uleb128 0x34
 3007 01e2 00       		.byte	0
 3008 01e3 03       		.uleb128 0x3
 3009 01e4 0E       		.uleb128 0xe
 3010 01e5 49       		.uleb128 0x49
 3011 01e6 13       		.uleb128 0x13
 3012 01e7 34       		.uleb128 0x34
 3013 01e8 19       		.uleb128 0x19
 3014 01e9 00       		.byte	0
 3015 01ea 00       		.byte	0
 3016 01eb 27       		.uleb128 0x27
 3017 01ec 898201   		.uleb128 0x4109
 3018 01ef 01       		.byte	0x1
 3019 01f0 11       		.uleb128 0x11
 3020 01f1 01       		.uleb128 0x1
 3021 01f2 31       		.uleb128 0x31
ARM GAS  /var/folders/m4/4md61f0s1_g0rzfghffqnxvr0000gn/T//cclTd5Ut.s 			page 54


 3022 01f3 13       		.uleb128 0x13
 3023 01f4 00       		.byte	0
 3024 01f5 00       		.byte	0
 3025 01f6 28       		.uleb128 0x28
 3026 01f7 8A8201   		.uleb128 0x410a
 3027 01fa 00       		.byte	0
 3028 01fb 02       		.uleb128 0x2
 3029 01fc 18       		.uleb128 0x18
 3030 01fd 9142     		.uleb128 0x2111
 3031 01ff 18       		.uleb128 0x18
 3032 0200 00       		.byte	0
 3033 0201 00       		.byte	0
 3034 0202 29       		.uleb128 0x29
 3035 0203 34       		.uleb128 0x34
 3036 0204 00       		.byte	0
 3037 0205 03       		.uleb128 0x3
 3038 0206 0E       		.uleb128 0xe
 3039 0207 3A       		.uleb128 0x3a
 3040 0208 0B       		.uleb128 0xb
 3041 0209 3B       		.uleb128 0x3b
 3042 020a 05       		.uleb128 0x5
 3043 020b 49       		.uleb128 0x49
 3044 020c 13       		.uleb128 0x13
 3045 020d 3F       		.uleb128 0x3f
 3046 020e 19       		.uleb128 0x19
 3047 020f 3C       		.uleb128 0x3c
 3048 0210 19       		.uleb128 0x19
 3049 0211 00       		.byte	0
 3050 0212 00       		.byte	0
 3051 0213 2A       		.uleb128 0x2a
 3052 0214 34       		.uleb128 0x34
 3053 0215 00       		.byte	0
 3054 0216 03       		.uleb128 0x3
 3055 0217 08       		.uleb128 0x8
 3056 0218 3A       		.uleb128 0x3a
 3057 0219 0B       		.uleb128 0xb
 3058 021a 3B       		.uleb128 0x3b
 3059 021b 05       		.uleb128 0x5
 3060 021c 49       		.uleb128 0x49
 3061 021d 13       		.uleb128 0x13
 3062 021e 3F       		.uleb128 0x3f
 3063 021f 19       		.uleb128 0x19
 3064 0220 3C       		.uleb128 0x3c
 3065 0221 19       		.uleb128 0x19
 3066 0222 00       		.byte	0
 3067 0223 00       		.byte	0
 3068 0224 2B       		.uleb128 0x2b
 3069 0225 2E       		.uleb128 0x2e
 3070 0226 01       		.byte	0x1
 3071 0227 3F       		.uleb128 0x3f
 3072 0228 19       		.uleb128 0x19
 3073 0229 03       		.uleb128 0x3
 3074 022a 0E       		.uleb128 0xe
 3075 022b 3A       		.uleb128 0x3a
 3076 022c 0B       		.uleb128 0xb
 3077 022d 3B       		.uleb128 0x3b
 3078 022e 0B       		.uleb128 0xb
ARM GAS  /var/folders/m4/4md61f0s1_g0rzfghffqnxvr0000gn/T//cclTd5Ut.s 			page 55


 3079 022f 27       		.uleb128 0x27
 3080 0230 19       		.uleb128 0x19
 3081 0231 49       		.uleb128 0x49
 3082 0232 13       		.uleb128 0x13
 3083 0233 3C       		.uleb128 0x3c
 3084 0234 19       		.uleb128 0x19
 3085 0235 01       		.uleb128 0x1
 3086 0236 13       		.uleb128 0x13
 3087 0237 00       		.byte	0
 3088 0238 00       		.byte	0
 3089 0239 2C       		.uleb128 0x2c
 3090 023a 2E       		.uleb128 0x2e
 3091 023b 01       		.byte	0x1
 3092 023c 3F       		.uleb128 0x3f
 3093 023d 19       		.uleb128 0x19
 3094 023e 03       		.uleb128 0x3
 3095 023f 0E       		.uleb128 0xe
 3096 0240 27       		.uleb128 0x27
 3097 0241 19       		.uleb128 0x19
 3098 0242 49       		.uleb128 0x49
 3099 0243 13       		.uleb128 0x13
 3100 0244 34       		.uleb128 0x34
 3101 0245 19       		.uleb128 0x19
 3102 0246 3C       		.uleb128 0x3c
 3103 0247 19       		.uleb128 0x19
 3104 0248 00       		.byte	0
 3105 0249 00       		.byte	0
 3106 024a 00       		.byte	0
 3107              		.section	.debug_loc,"",%progbits
 3108              	.Ldebug_loc0:
 3109              	.LLST0:
 3110 0000 00000000 		.4byte	.LVL0
 3111 0004 08000000 		.4byte	.LVL2
 3112 0008 0100     		.2byte	0x1
 3113 000a 50       		.byte	0x50
 3114 000b 08000000 		.4byte	.LVL2
 3115 000f 0A000000 		.4byte	.LFE231
 3116 0013 0400     		.2byte	0x4
 3117 0015 F3       		.byte	0xf3
 3118 0016 01       		.uleb128 0x1
 3119 0017 50       		.byte	0x50
 3120 0018 9F       		.byte	0x9f
 3121 0019 00000000 		.4byte	0
 3122 001d 00000000 		.4byte	0
 3123              	.LLST1:
 3124 0021 00000000 		.4byte	.LVL0
 3125 0025 02000000 		.4byte	.LVL1
 3126 0029 0100     		.2byte	0x1
 3127 002b 53       		.byte	0x53
 3128 002c 02000000 		.4byte	.LVL1
 3129 0030 0A000000 		.4byte	.LFE231
 3130 0034 0400     		.2byte	0x4
 3131 0036 F3       		.byte	0xf3
 3132 0037 01       		.uleb128 0x1
 3133 0038 53       		.byte	0x53
 3134 0039 9F       		.byte	0x9f
 3135 003a 00000000 		.4byte	0
ARM GAS  /var/folders/m4/4md61f0s1_g0rzfghffqnxvr0000gn/T//cclTd5Ut.s 			page 56


 3136 003e 00000000 		.4byte	0
 3137              	.LLST2:
 3138 0042 00000000 		.4byte	.LVL3
 3139 0046 02000000 		.4byte	.LVL4
 3140 004a 0100     		.2byte	0x1
 3141 004c 50       		.byte	0x50
 3142 004d 02000000 		.4byte	.LVL4
 3143 0051 04000000 		.4byte	.LFE232
 3144 0055 0400     		.2byte	0x4
 3145 0057 F3       		.byte	0xf3
 3146 0058 01       		.uleb128 0x1
 3147 0059 50       		.byte	0x50
 3148 005a 9F       		.byte	0x9f
 3149 005b 00000000 		.4byte	0
 3150 005f 00000000 		.4byte	0
 3151              	.LLST3:
 3152 0063 00000000 		.4byte	.LVL5
 3153 0067 02000000 		.4byte	.LVL6
 3154 006b 0100     		.2byte	0x1
 3155 006d 50       		.byte	0x50
 3156 006e 02000000 		.4byte	.LVL6
 3157 0072 04000000 		.4byte	.LFE233
 3158 0076 0400     		.2byte	0x4
 3159 0078 F3       		.byte	0xf3
 3160 0079 01       		.uleb128 0x1
 3161 007a 50       		.byte	0x50
 3162 007b 9F       		.byte	0x9f
 3163 007c 00000000 		.4byte	0
 3164 0080 00000000 		.4byte	0
 3165              	.LLST4:
 3166 0084 00000000 		.4byte	.LVL7
 3167 0088 02000000 		.4byte	.LVL8
 3168 008c 0100     		.2byte	0x1
 3169 008e 50       		.byte	0x50
 3170 008f 02000000 		.4byte	.LVL8
 3171 0093 04000000 		.4byte	.LFE234
 3172 0097 0400     		.2byte	0x4
 3173 0099 F3       		.byte	0xf3
 3174 009a 01       		.uleb128 0x1
 3175 009b 50       		.byte	0x50
 3176 009c 9F       		.byte	0x9f
 3177 009d 00000000 		.4byte	0
 3178 00a1 00000000 		.4byte	0
 3179              	.LLST5:
 3180 00a5 00000000 		.4byte	.LVL9
 3181 00a9 06000000 		.4byte	.LVL10
 3182 00ad 0100     		.2byte	0x1
 3183 00af 50       		.byte	0x50
 3184 00b0 06000000 		.4byte	.LVL10
 3185 00b4 18000000 		.4byte	.LFE235
 3186 00b8 0100     		.2byte	0x1
 3187 00ba 54       		.byte	0x54
 3188 00bb 00000000 		.4byte	0
 3189 00bf 00000000 		.4byte	0
 3190              	.LLST6:
 3191 00c3 00000000 		.4byte	.LVL9
 3192 00c7 09000000 		.4byte	.LVL11-1
ARM GAS  /var/folders/m4/4md61f0s1_g0rzfghffqnxvr0000gn/T//cclTd5Ut.s 			page 57


 3193 00cb 0100     		.2byte	0x1
 3194 00cd 51       		.byte	0x51
 3195 00ce 09000000 		.4byte	.LVL11-1
 3196 00d2 18000000 		.4byte	.LFE235
 3197 00d6 0400     		.2byte	0x4
 3198 00d8 F3       		.byte	0xf3
 3199 00d9 01       		.uleb128 0x1
 3200 00da 51       		.byte	0x51
 3201 00db 9F       		.byte	0x9f
 3202 00dc 00000000 		.4byte	0
 3203 00e0 00000000 		.4byte	0
 3204              	.LLST7:
 3205 00e4 0A000000 		.4byte	.LVL11
 3206 00e8 16000000 		.4byte	.LVL13
 3207 00ec 0100     		.2byte	0x1
 3208 00ee 50       		.byte	0x50
 3209 00ef 00000000 		.4byte	0
 3210 00f3 00000000 		.4byte	0
 3211              	.LLST8:
 3212 00f7 00000000 		.4byte	.LVL14
 3213 00fb 04000000 		.4byte	.LVL15
 3214 00ff 0100     		.2byte	0x1
 3215 0101 50       		.byte	0x50
 3216 0102 04000000 		.4byte	.LVL15
 3217 0106 18000000 		.4byte	.LFE236
 3218 010a 0400     		.2byte	0x4
 3219 010c F3       		.byte	0xf3
 3220 010d 01       		.uleb128 0x1
 3221 010e 50       		.byte	0x50
 3222 010f 9F       		.byte	0x9f
 3223 0110 00000000 		.4byte	0
 3224 0114 00000000 		.4byte	0
 3225              	.LLST9:
 3226 0118 00000000 		.4byte	.LVL14
 3227 011c 08000000 		.4byte	.LVL16
 3228 0120 0100     		.2byte	0x1
 3229 0122 51       		.byte	0x51
 3230 0123 08000000 		.4byte	.LVL16
 3231 0127 18000000 		.4byte	.LFE236
 3232 012b 0400     		.2byte	0x4
 3233 012d F3       		.byte	0xf3
 3234 012e 01       		.uleb128 0x1
 3235 012f 51       		.byte	0x51
 3236 0130 9F       		.byte	0x9f
 3237 0131 00000000 		.4byte	0
 3238 0135 00000000 		.4byte	0
 3239              	.LLST10:
 3240 0139 00000000 		.4byte	.LVL14
 3241 013d 0A000000 		.4byte	.LVL17
 3242 0141 0100     		.2byte	0x1
 3243 0143 52       		.byte	0x52
 3244 0144 0A000000 		.4byte	.LVL17
 3245 0148 0D000000 		.4byte	.LVL18-1
 3246 014c 0100     		.2byte	0x1
 3247 014e 50       		.byte	0x50
 3248 014f 0D000000 		.4byte	.LVL18-1
 3249 0153 18000000 		.4byte	.LFE236
ARM GAS  /var/folders/m4/4md61f0s1_g0rzfghffqnxvr0000gn/T//cclTd5Ut.s 			page 58


 3250 0157 0100     		.2byte	0x1
 3251 0159 54       		.byte	0x54
 3252 015a 00000000 		.4byte	0
 3253 015e 00000000 		.4byte	0
 3254              	.LLST11:
 3255 0162 00000000 		.4byte	.LVL19
 3256 0166 02000000 		.4byte	.LVL20
 3257 016a 0100     		.2byte	0x1
 3258 016c 50       		.byte	0x50
 3259 016d 02000000 		.4byte	.LVL20
 3260 0171 04000000 		.4byte	.LFE237
 3261 0175 0400     		.2byte	0x4
 3262 0177 F3       		.byte	0xf3
 3263 0178 01       		.uleb128 0x1
 3264 0179 50       		.byte	0x50
 3265 017a 9F       		.byte	0x9f
 3266 017b 00000000 		.4byte	0
 3267 017f 00000000 		.4byte	0
 3268              		.section	.debug_aranges,"",%progbits
 3269 0000 4C000000 		.4byte	0x4c
 3270 0004 0200     		.2byte	0x2
 3271 0006 00000000 		.4byte	.Ldebug_info0
 3272 000a 04       		.byte	0x4
 3273 000b 00       		.byte	0
 3274 000c 0000     		.2byte	0
 3275 000e 0000     		.2byte	0
 3276 0010 00000000 		.4byte	.LFB231
 3277 0014 0A000000 		.4byte	.LFE231-.LFB231
 3278 0018 00000000 		.4byte	.LFB232
 3279 001c 04000000 		.4byte	.LFE232-.LFB232
 3280 0020 00000000 		.4byte	.LFB233
 3281 0024 04000000 		.4byte	.LFE233-.LFB233
 3282 0028 00000000 		.4byte	.LFB234
 3283 002c 04000000 		.4byte	.LFE234-.LFB234
 3284 0030 00000000 		.4byte	.LFB235
 3285 0034 18000000 		.4byte	.LFE235-.LFB235
 3286 0038 00000000 		.4byte	.LFB236
 3287 003c 18000000 		.4byte	.LFE236-.LFB236
 3288 0040 00000000 		.4byte	.LFB237
 3289 0044 04000000 		.4byte	.LFE237-.LFB237
 3290 0048 00000000 		.4byte	0
 3291 004c 00000000 		.4byte	0
 3292              		.section	.debug_ranges,"",%progbits
 3293              	.Ldebug_ranges0:
 3294 0000 00000000 		.4byte	.LFB231
 3295 0004 0A000000 		.4byte	.LFE231
 3296 0008 00000000 		.4byte	.LFB232
 3297 000c 04000000 		.4byte	.LFE232
 3298 0010 00000000 		.4byte	.LFB233
 3299 0014 04000000 		.4byte	.LFE233
 3300 0018 00000000 		.4byte	.LFB234
 3301 001c 04000000 		.4byte	.LFE234
 3302 0020 00000000 		.4byte	.LFB235
 3303 0024 18000000 		.4byte	.LFE235
 3304 0028 00000000 		.4byte	.LFB236
 3305 002c 18000000 		.4byte	.LFE236
 3306 0030 00000000 		.4byte	.LFB237
ARM GAS  /var/folders/m4/4md61f0s1_g0rzfghffqnxvr0000gn/T//cclTd5Ut.s 			page 59


 3307 0034 04000000 		.4byte	.LFE237
 3308 0038 00000000 		.4byte	0
 3309 003c 00000000 		.4byte	0
 3310              		.section	.debug_line,"",%progbits
 3311              	.Ldebug_line0:
 3312 0000 2F030000 		.section	.debug_str,"MS",%progbits,1
 3312      02009F02 
 3312      00000201 
 3312      FB0E0D00 
 3312      01010101 
 3313              	.LASF2:
 3314 0000 73697A65 		.ascii	"size_t\000"
 3314      5F7400
 3315              	.LASF23:
 3316 0007 73697A65 		.ascii	"sizetype\000"
 3316      74797065 
 3316      00
 3317              	.LASF25:
 3318 0010 5F5F7661 		.ascii	"__value\000"
 3318      6C756500 
 3319              	.LASF165:
 3320 0018 73797374 		.ascii	"systime_t\000"
 3320      696D655F 
 3320      7400
 3321              	.LASF93:
 3322 0022 5F5F7366 		.ascii	"__sf\000"
 3322      00
 3323              	.LASF171:
 3324 0027 705F6374 		.ascii	"p_ctx\000"
 3324      7800
 3325              	.LASF60:
 3326 002d 5F726561 		.ascii	"_read\000"
 3326      6400
 3327              	.LASF161:
 3328 0033 74707269 		.ascii	"tprio_t\000"
 3328      6F5F7400 
 3329              	.LASF154:
 3330 003b 73745F62 		.ascii	"st_blocks\000"
 3330      6C6F636B 
 3330      7300
 3331              	.LASF181:
 3332 0045 705F6D73 		.ascii	"p_msgqueue\000"
 3332      67717565 
 3332      756500
 3333              	.LASF61:
 3334 0050 5F777269 		.ascii	"_write\000"
 3334      746500
 3335              	.LASF196:
 3336 0057 725F6374 		.ascii	"r_ctx\000"
 3336      7800
 3337              	.LASF126:
 3338 005d 696E7433 		.ascii	"int32_t\000"
 3338      325F7400 
 3339              	.LASF105:
 3340 0065 5F617363 		.ascii	"_asctime_buf\000"
 3340      74696D65 
 3340      5F627566 
ARM GAS  /var/folders/m4/4md61f0s1_g0rzfghffqnxvr0000gn/T//cclTd5Ut.s 			page 60


 3340      00
 3341              	.LASF87:
 3342 0072 5F637674 		.ascii	"_cvtlen\000"
 3342      6C656E00 
 3343              	.LASF200:
 3344 007a 76746675 		.ascii	"vtfunc_t\000"
 3344      6E635F74 
 3344      00
 3345              	.LASF254:
 3346 0083 5F5F6675 		.ascii	"__func__\000"
 3346      6E635F5F 
 3346      00
 3347              	.LASF209:
 3348 008c 63685F76 		.ascii	"ch_virtual_timers_list\000"
 3348      69727475 
 3348      616C5F74 
 3348      696D6572 
 3348      735F6C69 
 3349              	.LASF133:
 3350 00a3 6465765F 		.ascii	"dev_t\000"
 3350      7400
 3351              	.LASF137:
 3352 00a9 6E6C696E 		.ascii	"nlink_t\000"
 3352      6B5F7400 
 3353              	.LASF18:
 3354 00b1 5F5F6769 		.ascii	"__gid_t\000"
 3354      645F7400 
 3355              	.LASF124:
 3356 00b9 5F756E75 		.ascii	"_unused\000"
 3356      73656400 
 3357              	.LASF34:
 3358 00c1 5F5F746D 		.ascii	"__tm\000"
 3358      00
 3359              	.LASF120:
 3360 00c6 5F776373 		.ascii	"_wcsrtombs_state\000"
 3360      72746F6D 
 3360      62735F73 
 3360      74617465 
 3360      00
 3361              	.LASF65:
 3362 00d7 5F6E6275 		.ascii	"_nbuf\000"
 3362      6600
 3363              	.LASF35:
 3364 00dd 5F5F746D 		.ascii	"__tm_sec\000"
 3364      5F736563 
 3364      00
 3365              	.LASF113:
 3366 00e6 5F6C3634 		.ascii	"_l64a_buf\000"
 3366      615F6275 
 3366      6600
 3367              	.LASF129:
 3368 00f0 74696D65 		.ascii	"time_t\000"
 3368      5F7400
 3369              	.LASF69:
 3370 00f7 5F6C6F63 		.ascii	"_lock\000"
 3370      6B00
 3371              	.LASF101:
ARM GAS  /var/folders/m4/4md61f0s1_g0rzfghffqnxvr0000gn/T//cclTd5Ut.s 			page 61


 3372 00fd 5F6D756C 		.ascii	"_mult\000"
 3372      7400
 3373              	.LASF238:
 3374 0103 6D5F6F77 		.ascii	"m_owner\000"
 3374      6E657200 
 3375              	.LASF207:
 3376 010b 76745F70 		.ascii	"vt_par\000"
 3376      617200
 3377              	.LASF176:
 3378 0112 705F666C 		.ascii	"p_flags\000"
 3378      61677300 
 3379              	.LASF21:
 3380 011a 5F5F7763 		.ascii	"__wch\000"
 3380      6800
 3381              	.LASF227:
 3382 0120 65786974 		.ascii	"exitcode\000"
 3382      636F6465 
 3382      00
 3383              	.LASF3:
 3384 0129 5F5F7569 		.ascii	"__uint8_t\000"
 3384      6E74385F 
 3384      7400
 3385              	.LASF16:
 3386 0133 5F5F6465 		.ascii	"__dev_t\000"
 3386      765F7400 
 3387              	.LASF232:
 3388 013b 65776D61 		.ascii	"ewmask\000"
 3388      736B00
 3389              	.LASF134:
 3390 0142 7569645F 		.ascii	"uid_t\000"
 3390      7400
 3391              	.LASF57:
 3392 0148 5F66696C 		.ascii	"_file\000"
 3392      6500
 3393              	.LASF44:
 3394 014e 5F6F6E5F 		.ascii	"_on_exit_args\000"
 3394      65786974 
 3394      5F617267 
 3394      7300
 3395              	.LASF172:
 3396 015c 705F6E65 		.ascii	"p_newer\000"
 3396      77657200 
 3397              	.LASF116:
 3398 0164 5F6D6272 		.ascii	"_mbrlen_state\000"
 3398      6C656E5F 
 3398      73746174 
 3398      6500
 3399              	.LASF8:
 3400 0172 6C6F6E67 		.ascii	"long int\000"
 3400      20696E74 
 3400      00
 3401              	.LASF168:
 3402 017b 705F6E65 		.ascii	"p_next\000"
 3402      787400
 3403              	.LASF84:
 3404 0182 5F726573 		.ascii	"_result_k\000"
 3404      756C745F 
ARM GAS  /var/folders/m4/4md61f0s1_g0rzfghffqnxvr0000gn/T//cclTd5Ut.s 			page 62


 3404      6B00
 3405              	.LASF54:
 3406 018c 5F73697A 		.ascii	"_size\000"
 3406      6500
 3407              	.LASF169:
 3408 0192 705F7072 		.ascii	"p_prev\000"
 3408      657600
 3409              	.LASF106:
 3410 0199 5F6C6F63 		.ascii	"_localtime_buf\000"
 3410      616C7469 
 3410      6D655F62 
 3410      756600
 3411              	.LASF158:
 3412 01a8 74737461 		.ascii	"tstate_t\000"
 3412      74655F74 
 3412      00
 3413              	.LASF190:
 3414 01b1 74687265 		.ascii	"threads_queue_t\000"
 3414      6164735F 
 3414      71756575 
 3414      655F7400 
 3415              	.LASF184:
 3416 01c1 705F6D74 		.ascii	"p_mtxlist\000"
 3416      786C6973 
 3416      7400
 3417              	.LASF220:
 3418 01cb 72656761 		.ascii	"regarm_t\000"
 3418      726D5F74 
 3418      00
 3419              	.LASF39:
 3420 01d4 5F5F746D 		.ascii	"__tm_mon\000"
 3420      5F6D6F6E 
 3420      00
 3421              	.LASF79:
 3422 01dd 5F637572 		.ascii	"_current_category\000"
 3422      72656E74 
 3422      5F636174 
 3422      65676F72 
 3422      7900
 3423              	.LASF103:
 3424 01ef 5F756E75 		.ascii	"_unused_rand\000"
 3424      7365645F 
 3424      72616E64 
 3424      00
 3425              	.LASF1:
 3426 01fc 7369676E 		.ascii	"signed char\000"
 3426      65642063 
 3426      68617200 
 3427              	.LASF178:
 3428 0208 705F7072 		.ascii	"p_preempt\000"
 3428      65656D70 
 3428      7400
 3429              	.LASF125:
 3430 0212 75696E74 		.ascii	"uint8_t\000"
 3430      385F7400 
 3431              	.LASF148:
 3432 021a 73745F73 		.ascii	"st_spare1\000"
ARM GAS  /var/folders/m4/4md61f0s1_g0rzfghffqnxvr0000gn/T//cclTd5Ut.s 			page 63


 3432      70617265 
 3432      3100
 3433              	.LASF143:
 3434 0224 73745F75 		.ascii	"st_uid\000"
 3434      696400
 3435              	.LASF152:
 3436 022b 73745F73 		.ascii	"st_spare3\000"
 3436      70617265 
 3436      3300
 3437              	.LASF155:
 3438 0235 73745F73 		.ascii	"st_spare4\000"
 3438      70617265 
 3438      3400
 3439              	.LASF163:
 3440 023f 6576656E 		.ascii	"eventmask_t\000"
 3440      746D6173 
 3440      6B5F7400 
 3441              	.LASF222:
 3442 024b 636F6E74 		.ascii	"context\000"
 3442      65787400 
 3443              	.LASF229:
 3444 0253 77747472 		.ascii	"wttrp\000"
 3444      7000
 3445              	.LASF4:
 3446 0259 756E7369 		.ascii	"unsigned char\000"
 3446      676E6564 
 3446      20636861 
 3446      7200
 3447              	.LASF145:
 3448 0267 73745F72 		.ascii	"st_rdev\000"
 3448      64657600 
 3449              	.LASF213:
 3450 026f 70616E69 		.ascii	"panic_msg\000"
 3450      635F6D73 
 3450      6700
 3451              	.LASF246:
 3452 0279 5F736272 		.ascii	"_sbrk_r\000"
 3452      6B5F7200 
 3453              	.LASF72:
 3454 0281 5F726565 		.ascii	"_reent\000"
 3454      6E7400
 3455              	.LASF197:
 3456 0288 725F6E65 		.ascii	"r_newer\000"
 3456      77657200 
 3457              	.LASF211:
 3458 0290 73797374 		.ascii	"system_debug_t\000"
 3458      656D5F64 
 3458      65627567 
 3458      5F7400
 3459              	.LASF94:
 3460 029f 63686172 		.ascii	"char\000"
 3460      00
 3461              	.LASF256:
 3462 02a4 6D656D73 		.ascii	"memset\000"
 3462      657400
 3463              	.LASF51:
 3464 02ab 5F666E73 		.ascii	"_fns\000"
ARM GAS  /var/folders/m4/4md61f0s1_g0rzfghffqnxvr0000gn/T//cclTd5Ut.s 			page 64


 3464      00
 3465              	.LASF63:
 3466 02b0 5F636C6F 		.ascii	"_close\000"
 3466      736500
 3467              	.LASF170:
 3468 02b7 705F7072 		.ascii	"p_prio\000"
 3468      696F00
 3469              	.LASF228:
 3470 02be 77746F62 		.ascii	"wtobjp\000"
 3470      6A7000
 3471              	.LASF74:
 3472 02c5 5F737464 		.ascii	"_stdin\000"
 3472      696E00
 3473              	.LASF249:
 3474 02cc 5F697361 		.ascii	"_isatty_r\000"
 3474      7474795F 
 3474      7200
 3475              	.LASF221:
 3476 02d6 73746B61 		.ascii	"stkalign_t\000"
 3476      6C69676E 
 3476      5F7400
 3477              	.LASF159:
 3478 02e1 74726566 		.ascii	"trefs_t\000"
 3478      735F7400 
 3479              	.LASF151:
 3480 02e9 73745F63 		.ascii	"st_ctime\000"
 3480      74696D65 
 3480      00
 3481              	.LASF241:
 3482 02f2 66696C65 		.ascii	"file\000"
 3482      00
 3483              	.LASF164:
 3484 02f7 636E745F 		.ascii	"cnt_t\000"
 3484      7400
 3485              	.LASF206:
 3486 02fd 76745F66 		.ascii	"vt_func\000"
 3486      756E6300 
 3487              	.LASF59:
 3488 0305 5F636F6F 		.ascii	"_cookie\000"
 3488      6B696500 
 3489              	.LASF255:
 3490 030d 6368436F 		.ascii	"chCoreAlloc\000"
 3490      7265416C 
 3490      6C6F6300 
 3491              	.LASF183:
 3492 0319 705F6570 		.ascii	"p_epending\000"
 3492      656E6469 
 3492      6E6700
 3493              	.LASF231:
 3494 0324 77746D74 		.ascii	"wtmtxp\000"
 3494      787000
 3495              	.LASF32:
 3496 032b 5F776473 		.ascii	"_wds\000"
 3496      00
 3497              	.LASF193:
 3498 0330 63685F72 		.ascii	"ch_ready_list\000"
 3498      65616479 
ARM GAS  /var/folders/m4/4md61f0s1_g0rzfghffqnxvr0000gn/T//cclTd5Ut.s 			page 65


 3498      5F6C6973 
 3498      7400
 3499              	.LASF91:
 3500 033e 5F736967 		.ascii	"_sig_func\000"
 3500      5F66756E 
 3500      6300
 3501              	.LASF67:
 3502 0348 5F6F6666 		.ascii	"_offset\000"
 3502      73657400 
 3503              	.LASF88:
 3504 0350 5F637674 		.ascii	"_cvtbuf\000"
 3504      62756600 
 3505              	.LASF144:
 3506 0358 73745F67 		.ascii	"st_gid\000"
 3506      696400
 3507              	.LASF12:
 3508 035f 5F5F7569 		.ascii	"__uint64_t\000"
 3508      6E743634 
 3508      5F7400
 3509              	.LASF131:
 3510 036a 696E6F5F 		.ascii	"ino_t\000"
 3510      7400
 3511              	.LASF85:
 3512 0370 5F703573 		.ascii	"_p5s\000"
 3512      00
 3513              	.LASF10:
 3514 0375 6C6F6E67 		.ascii	"long unsigned int\000"
 3514      20756E73 
 3514      69676E65 
 3514      6420696E 
 3514      7400
 3515              	.LASF55:
 3516 0387 5F5F7346 		.ascii	"__sFILE\000"
 3516      494C4500 
 3517              	.LASF81:
 3518 038f 5F5F7364 		.ascii	"__sdidinit\000"
 3518      6964696E 
 3518      697400
 3519              	.LASF71:
 3520 039a 5F666C61 		.ascii	"_flags2\000"
 3520      67733200 
 3521              	.LASF146:
 3522 03a2 73745F73 		.ascii	"st_size\000"
 3522      697A6500 
 3523              	.LASF233:
 3524 03aa 63685F73 		.ascii	"ch_semaphore\000"
 3524      656D6170 
 3524      686F7265 
 3524      00
 3525              	.LASF167:
 3526 03b7 63685F74 		.ascii	"ch_thread\000"
 3526      68726561 
 3526      6400
 3527              	.LASF208:
 3528 03c1 76697274 		.ascii	"virtual_timers_list_t\000"
 3528      75616C5F 
 3528      74696D65 
ARM GAS  /var/folders/m4/4md61f0s1_g0rzfghffqnxvr0000gn/T//cclTd5Ut.s 			page 66


 3528      72735F6C 
 3528      6973745F 
 3529              	.LASF14:
 3530 03d7 5F4C4F43 		.ascii	"_LOCK_RECURSIVE_T\000"
 3530      4B5F5245 
 3530      43555253 
 3530      4956455F 
 3530      5400
 3531              	.LASF73:
 3532 03e9 5F657272 		.ascii	"_errno\000"
 3532      6E6F00
 3533              	.LASF201:
 3534 03f0 76697274 		.ascii	"virtual_timer_t\000"
 3534      75616C5F 
 3534      74696D65 
 3534      725F7400 
 3535              	.LASF192:
 3536 0400 72656164 		.ascii	"ready_list_t\000"
 3536      795F6C69 
 3536      73745F74 
 3536      00
 3537              	.LASF150:
 3538 040d 73745F73 		.ascii	"st_spare2\000"
 3538      70617265 
 3538      3200
 3539              	.LASF114:
 3540 0417 5F736967 		.ascii	"_signal_buf\000"
 3540      6E616C5F 
 3540      62756600 
 3541              	.LASF245:
 3542 0423 5F636C6F 		.ascii	"_close_r\000"
 3542      73655F72 
 3542      00
 3543              	.LASF33:
 3544 042c 5F426967 		.ascii	"_Bigint\000"
 3544      696E7400 
 3545              	.LASF189:
 3546 0434 63685F74 		.ascii	"ch_threads_list\000"
 3546      68726561 
 3546      64735F6C 
 3546      69737400 
 3547              	.LASF30:
 3548 0444 5F6D6178 		.ascii	"_maxwds\000"
 3548      77647300 
 3549              	.LASF82:
 3550 044c 5F5F636C 		.ascii	"__cleanup\000"
 3550      65616E75 
 3550      7000
 3551              	.LASF90:
 3552 0456 5F617465 		.ascii	"_atexit0\000"
 3552      78697430 
 3552      00
 3553              	.LASF138:
 3554 045f 73746174 		.ascii	"stat\000"
 3554      00
 3555              	.LASF153:
 3556 0464 73745F62 		.ascii	"st_blksize\000"
ARM GAS  /var/folders/m4/4md61f0s1_g0rzfghffqnxvr0000gn/T//cclTd5Ut.s 			page 67


 3556      6C6B7369 
 3556      7A6500
 3557              	.LASF9:
 3558 046f 5F5F7569 		.ascii	"__uint32_t\000"
 3558      6E743332 
 3558      5F7400
 3559              	.LASF78:
 3560 047a 5F656D65 		.ascii	"_emergency\000"
 3560      7267656E 
 3560      637900
 3561              	.LASF11:
 3562 0485 6C6F6E67 		.ascii	"long long int\000"
 3562      206C6F6E 
 3562      6720696E 
 3562      7400
 3563              	.LASF237:
 3564 0493 6D5F7175 		.ascii	"m_queue\000"
 3564      65756500 
 3565              	.LASF97:
 3566 049b 5F6E696F 		.ascii	"_niobs\000"
 3566      627300
 3567              	.LASF203:
 3568 04a2 76745F6E 		.ascii	"vt_next\000"
 3568      65787400 
 3569              	.LASF92:
 3570 04aa 5F5F7367 		.ascii	"__sglue\000"
 3570      6C756500 
 3571              	.LASF123:
 3572 04b2 5F6E6D61 		.ascii	"_nmalloc\000"
 3572      6C6C6F63 
 3572      00
 3573              	.LASF204:
 3574 04bb 76745F70 		.ascii	"vt_prev\000"
 3574      72657600 
 3575              	.LASF107:
 3576 04c3 5F67616D 		.ascii	"_gamma_signgam\000"
 3576      6D615F73 
 3576      69676E67 
 3576      616D00
 3577              	.LASF80:
 3578 04d2 5F637572 		.ascii	"_current_locale\000"
 3578      72656E74 
 3578      5F6C6F63 
 3578      616C6500 
 3579              	.LASF86:
 3580 04e2 5F667265 		.ascii	"_freelist\000"
 3580      656C6973 
 3580      7400
 3581              	.LASF98:
 3582 04ec 5F696F62 		.ascii	"_iobs\000"
 3582      7300
 3583              	.LASF96:
 3584 04f2 5F676C75 		.ascii	"_glue\000"
 3584      6500
 3585              	.LASF250:
 3586 04f8 49544D5F 		.ascii	"ITM_RxBuffer\000"
 3586      52784275 
ARM GAS  /var/folders/m4/4md61f0s1_g0rzfghffqnxvr0000gn/T//cclTd5Ut.s 			page 68


 3586      66666572 
 3586      00
 3587              	.LASF31:
 3588 0505 5F736967 		.ascii	"_sign\000"
 3588      6E00
 3589              	.LASF180:
 3590 050b 705F7761 		.ascii	"p_waiting\000"
 3590      6974696E 
 3590      6700
 3591              	.LASF219:
 3592 0515 69646C65 		.ascii	"idle_thread_wa\000"
 3592      5F746872 
 3592      6561645F 
 3592      776100
 3593              	.LASF0:
 3594 0524 756E7369 		.ascii	"unsigned int\000"
 3594      676E6564 
 3594      20696E74 
 3594      00
 3595              	.LASF244:
 3596 0531 5F777269 		.ascii	"_write_r\000"
 3596      74655F72 
 3596      00
 3597              	.LASF130:
 3598 053a 63616464 		.ascii	"caddr_t\000"
 3598      725F7400 
 3599              	.LASF156:
 3600 0542 7274636E 		.ascii	"rtcnt_t\000"
 3600      745F7400 
 3601              	.LASF186:
 3602 054a 705F6D70 		.ascii	"p_mpool\000"
 3602      6F6F6C00 
 3603              	.LASF121:
 3604 0552 5F685F65 		.ascii	"_h_errno\000"
 3604      72726E6F 
 3604      00
 3605              	.LASF247:
 3606 055b 696E6372 		.ascii	"incr\000"
 3606      00
 3607              	.LASF177:
 3608 0560 705F7265 		.ascii	"p_refs\000"
 3608      667300
 3609              	.LASF119:
 3610 0567 5F776372 		.ascii	"_wcrtomb_state\000"
 3610      746F6D62 
 3610      5F737461 
 3610      746500
 3611              	.LASF38:
 3612 0576 5F5F746D 		.ascii	"__tm_mday\000"
 3612      5F6D6461 
 3612      7900
 3613              	.LASF89:
 3614 0580 5F6E6577 		.ascii	"_new\000"
 3614      00
 3615              	.LASF64:
 3616 0585 5F756275 		.ascii	"_ubuf\000"
 3616      6600
ARM GAS  /var/folders/m4/4md61f0s1_g0rzfghffqnxvr0000gn/T//cclTd5Ut.s 			page 69


 3617              	.LASF76:
 3618 058b 5F737464 		.ascii	"_stderr\000"
 3618      65727200 
 3619              	.LASF112:
 3620 0593 5F776374 		.ascii	"_wctomb_state\000"
 3620      6F6D625F 
 3620      73746174 
 3620      6500
 3621              	.LASF70:
 3622 05a1 5F6D6273 		.ascii	"_mbstate\000"
 3622      74617465 
 3622      00
 3623              	.LASF108:
 3624 05aa 5F72616E 		.ascii	"_rand_next\000"
 3624      645F6E65 
 3624      787400
 3625              	.LASF56:
 3626 05b5 5F666C61 		.ascii	"_flags\000"
 3626      677300
 3627              	.LASF224:
 3628 05bc 6F666673 		.ascii	"offset\000"
 3628      657400
 3629              	.LASF187:
 3630 05c3 74687265 		.ascii	"thread_reference_t\000"
 3630      61645F72 
 3630      65666572 
 3630      656E6365 
 3630      5F7400
 3631              	.LASF49:
 3632 05d6 5F617465 		.ascii	"_atexit\000"
 3632      78697400 
 3633              	.LASF179:
 3634 05de 705F7469 		.ascii	"p_time\000"
 3634      6D6500
 3635              	.LASF24:
 3636 05e5 5F5F636F 		.ascii	"__count\000"
 3636      756E7400 
 3637              	.LASF142:
 3638 05ed 73745F6E 		.ascii	"st_nlink\000"
 3638      6C696E6B 
 3638      00
 3639              	.LASF132:
 3640 05f6 6F66665F 		.ascii	"off_t\000"
 3640      7400
 3641              	.LASF136:
 3642 05fc 6D6F6465 		.ascii	"mode_t\000"
 3642      5F7400
 3643              	.LASF41:
 3644 0603 5F5F746D 		.ascii	"__tm_wday\000"
 3644      5F776461 
 3644      7900
 3645              	.LASF166:
 3646 060d 74687265 		.ascii	"thread_t\000"
 3646      61645F74 
 3646      00
 3647              	.LASF147:
 3648 0616 73745F61 		.ascii	"st_atime\000"
ARM GAS  /var/folders/m4/4md61f0s1_g0rzfghffqnxvr0000gn/T//cclTd5Ut.s 			page 70


 3648      74696D65 
 3648      00
 3649              	.LASF42:
 3650 061f 5F5F746D 		.ascii	"__tm_yday\000"
 3650      5F796461 
 3650      7900
 3651              	.LASF185:
 3652 0629 705F7265 		.ascii	"p_realprio\000"
 3652      616C7072 
 3652      696F00
 3653              	.LASF223:
 3654 0634 706F7274 		.ascii	"port_intctx\000"
 3654      5F696E74 
 3654      63747800 
 3655              	.LASF100:
 3656 0640 5F736565 		.ascii	"_seed\000"
 3656      6400
 3657              	.LASF62:
 3658 0646 5F736565 		.ascii	"_seek\000"
 3658      6B00
 3659              	.LASF139:
 3660 064c 73745F64 		.ascii	"st_dev\000"
 3660      657600
 3661              	.LASF205:
 3662 0653 76745F64 		.ascii	"vt_delta\000"
 3662      656C7461 
 3662      00
 3663              	.LASF19:
 3664 065c 5F66706F 		.ascii	"_fpos_t\000"
 3664      735F7400 
 3665              	.LASF22:
 3666 0664 5F5F7763 		.ascii	"__wchb\000"
 3666      686200
 3667              	.LASF202:
 3668 066b 63685F76 		.ascii	"ch_virtual_timer\000"
 3668      69727475 
 3668      616C5F74 
 3668      696D6572 
 3668      00
 3669              	.LASF235:
 3670 067c 735F636E 		.ascii	"s_cnt\000"
 3670      7400
 3671              	.LASF111:
 3672 0682 5F6D6274 		.ascii	"_mbtowc_state\000"
 3672      6F77635F 
 3672      73746174 
 3672      6500
 3673              	.LASF13:
 3674 0690 6C6F6E67 		.ascii	"long long unsigned int\000"
 3674      206C6F6E 
 3674      6720756E 
 3674      7369676E 
 3674      65642069 
 3675              	.LASF173:
 3676 06a7 705F6F6C 		.ascii	"p_older\000"
 3676      64657200 
 3677              	.LASF46:
ARM GAS  /var/folders/m4/4md61f0s1_g0rzfghffqnxvr0000gn/T//cclTd5Ut.s 			page 71


 3678 06af 5F64736F 		.ascii	"_dso_handle\000"
 3678      5F68616E 
 3678      646C6500 
 3679              	.LASF162:
 3680 06bb 6D73675F 		.ascii	"msg_t\000"
 3680      7400
 3681              	.LASF191:
 3682 06c1 63685F74 		.ascii	"ch_threads_queue\000"
 3682      68726561 
 3682      64735F71 
 3682      75657565 
 3682      00
 3683              	.LASF99:
 3684 06d2 5F72616E 		.ascii	"_rand48\000"
 3684      64343800 
 3685              	.LASF75:
 3686 06da 5F737464 		.ascii	"_stdout\000"
 3686      6F757400 
 3687              	.LASF160:
 3688 06e2 74736C69 		.ascii	"tslices_t\000"
 3688      6365735F 
 3688      7400
 3689              	.LASF66:
 3690 06ec 5F626C6B 		.ascii	"_blksize\000"
 3690      73697A65 
 3690      00
 3691              	.LASF53:
 3692 06f5 5F626173 		.ascii	"_base\000"
 3692      6500
 3693              	.LASF248:
 3694 06fb 5F667374 		.ascii	"_fstat_r\000"
 3694      61745F72 
 3694      00
 3695              	.LASF104:
 3696 0704 5F737472 		.ascii	"_strtok_last\000"
 3696      746F6B5F 
 3696      6C617374 
 3696      00
 3697              	.LASF117:
 3698 0711 5F6D6272 		.ascii	"_mbrtowc_state\000"
 3698      746F7763 
 3698      5F737461 
 3698      746500
 3699              	.LASF218:
 3700 0720 6D61696E 		.ascii	"mainthread\000"
 3700      74687265 
 3700      616400
 3701              	.LASF27:
 3702 072b 5F666C6F 		.ascii	"_flock_t\000"
 3702      636B5F74 
 3702      00
 3703              	.LASF95:
 3704 0734 5F5F4649 		.ascii	"__FILE\000"
 3704      4C4500
 3705              	.LASF26:
 3706 073b 5F6D6273 		.ascii	"_mbstate_t\000"
 3706      74617465 
ARM GAS  /var/folders/m4/4md61f0s1_g0rzfghffqnxvr0000gn/T//cclTd5Ut.s 			page 72


 3706      5F7400
 3707              	.LASF194:
 3708 0746 725F7175 		.ascii	"r_queue\000"
 3708      65756500 
 3709              	.LASF109:
 3710 074e 5F723438 		.ascii	"_r48\000"
 3710      00
 3711              	.LASF20:
 3712 0753 77696E74 		.ascii	"wint_t\000"
 3712      5F7400
 3713              	.LASF29:
 3714 075a 5F6E6578 		.ascii	"_next\000"
 3714      7400
 3715              	.LASF68:
 3716 0760 5F646174 		.ascii	"_data\000"
 3716      6100
 3717              	.LASF216:
 3718 0766 726C6973 		.ascii	"rlist\000"
 3718      7400
 3719              	.LASF157:
 3720 076c 746D6F64 		.ascii	"tmode_t\000"
 3720      655F7400 
 3721              	.LASF149:
 3722 0774 73745F6D 		.ascii	"st_mtime\000"
 3722      74696D65 
 3722      00
 3723              	.LASF210:
 3724 077d 76745F73 		.ascii	"vt_systime\000"
 3724      79737469 
 3724      6D6500
 3725              	.LASF198:
 3726 0788 725F6F6C 		.ascii	"r_older\000"
 3726      64657200 
 3727              	.LASF225:
 3728 0790 746D5F63 		.ascii	"tm_calibration_t\000"
 3728      616C6962 
 3728      72617469 
 3728      6F6E5F74 
 3728      00
 3729              	.LASF234:
 3730 07a1 735F7175 		.ascii	"s_queue\000"
 3730      65756500 
 3731              	.LASF110:
 3732 07a9 5F6D626C 		.ascii	"_mblen_state\000"
 3732      656E5F73 
 3732      74617465 
 3732      00
 3733              	.LASF5:
 3734 07b6 73686F72 		.ascii	"short int\000"
 3734      7420696E 
 3734      7400
 3735              	.LASF128:
 3736 07c0 75696E74 		.ascii	"uint64_t\000"
 3736      36345F74 
 3736      00
 3737              	.LASF236:
 3738 07c9 63685F6D 		.ascii	"ch_mutex\000"
ARM GAS  /var/folders/m4/4md61f0s1_g0rzfghffqnxvr0000gn/T//cclTd5Ut.s 			page 73


 3738      75746578 
 3738      00
 3739              	.LASF47:
 3740 07d2 5F666E74 		.ascii	"_fntypes\000"
 3740      79706573 
 3740      00
 3741              	.LASF195:
 3742 07db 725F7072 		.ascii	"r_prio\000"
 3742      696F00
 3743              	.LASF212:
 3744 07e2 63685F73 		.ascii	"ch_system_debug\000"
 3744      79737465 
 3744      6D5F6465 
 3744      62756700 
 3745              	.LASF40:
 3746 07f2 5F5F746D 		.ascii	"__tm_year\000"
 3746      5F796561 
 3746      7200
 3747              	.LASF58:
 3748 07fc 5F6C6266 		.ascii	"_lbfsize\000"
 3748      73697A65 
 3748      00
 3749              	.LASF217:
 3750 0805 76746C69 		.ascii	"vtlist\000"
 3750      737400
 3751              	.LASF77:
 3752 080c 5F696E63 		.ascii	"_inc\000"
 3752      00
 3753              	.LASF50:
 3754 0811 5F696E64 		.ascii	"_ind\000"
 3754      00
 3755              	.LASF52:
 3756 0816 5F5F7362 		.ascii	"__sbuf\000"
 3756      756600
 3757              	.LASF243:
 3758 081d 5F6C7365 		.ascii	"_lseek_r\000"
 3758      656B5F72 
 3758      00
 3759              	.LASF48:
 3760 0826 5F69735F 		.ascii	"_is_cxa\000"
 3760      63786100 
 3761              	.LASF240:
 3762 082e 6D757465 		.ascii	"mutex_t\000"
 3762      785F7400 
 3763              	.LASF141:
 3764 0836 73745F6D 		.ascii	"st_mode\000"
 3764      6F646500 
 3765              	.LASF17:
 3766 083e 5F5F7569 		.ascii	"__uid_t\000"
 3766      645F7400 
 3767              	.LASF122:
 3768 0846 5F6E6578 		.ascii	"_nextf\000"
 3768      746600
 3769              	.LASF188:
 3770 084d 74687265 		.ascii	"threads_list_t\000"
 3770      6164735F 
 3770      6C697374 
ARM GAS  /var/folders/m4/4md61f0s1_g0rzfghffqnxvr0000gn/T//cclTd5Ut.s 			page 74


 3770      5F7400
 3771              	.LASF215:
 3772 085c 63685F73 		.ascii	"ch_system\000"
 3772      79737465 
 3772      6D00
 3773              	.LASF28:
 3774 0866 5F5F554C 		.ascii	"__ULong\000"
 3774      6F6E6700 
 3775              	.LASF127:
 3776 086e 75696E74 		.ascii	"uint32_t\000"
 3776      33325F74 
 3776      00
 3777              	.LASF83:
 3778 0877 5F726573 		.ascii	"_result\000"
 3778      756C7400 
 3779              	.LASF15:
 3780 087f 5F6F6666 		.ascii	"_off_t\000"
 3780      5F7400
 3781              	.LASF251:
 3782 0886 474E5520 		.ascii	"GNU C 4.9.3 20150529 (release) [ARM/embedded-4_9-br"
 3782      4320342E 
 3782      392E3320 
 3782      32303135 
 3782      30353239 
 3783 08b9 616E6368 		.ascii	"anch revision 224288] -mcpu=cortex-m4 -mfloat-abi=h"
 3783      20726576 
 3783      6973696F 
 3783      6E203232 
 3783      34323838 
 3784 08ec 61726420 		.ascii	"ard -mfpu=fpv4-sp-d16 -mno-thumb-interwork -mthumb "
 3784      2D6D6670 
 3784      753D6670 
 3784      76342D73 
 3784      702D6431 
 3785 091f 2D676764 		.ascii	"-ggdb -O2 -std=gnu99 -fomit-frame-pointer -falign-f"
 3785      62202D4F 
 3785      32202D73 
 3785      74643D67 
 3785      6E753939 
 3786 0952 756E6374 		.ascii	"unctions=16 -ffunction-sections -fdata-sections -fn"
 3786      696F6E73 
 3786      3D313620 
 3786      2D666675 
 3786      6E637469 
 3787 0985 6F2D636F 		.ascii	"o-common -fsingle-precision-constant\000"
 3787      6D6D6F6E 
 3787      202D6673 
 3787      696E676C 
 3787      652D7072 
 3788              	.LASF226:
 3789 09aa 7264796D 		.ascii	"rdymsg\000"
 3789      736700
 3790              	.LASF102:
 3791 09b1 5F616464 		.ascii	"_add\000"
 3791      00
 3792              	.LASF6:
 3793 09b6 73686F72 		.ascii	"short unsigned int\000"
ARM GAS  /var/folders/m4/4md61f0s1_g0rzfghffqnxvr0000gn/T//cclTd5Ut.s 			page 75


 3793      7420756E 
 3793      7369676E 
 3793      65642069 
 3793      6E7400
 3794              	.LASF37:
 3795 09c9 5F5F746D 		.ascii	"__tm_hour\000"
 3795      5F686F75 
 3795      7200
 3796              	.LASF252:
 3797 09d3 43686962 		.ascii	"ChibiOS_16.1.4/os/various/syscalls.c\000"
 3797      694F535F 
 3797      31362E31 
 3797      2E342F6F 
 3797      732F7661 
 3798              	.LASF214:
 3799 09f8 63685F73 		.ascii	"ch_system_t\000"
 3799      79737465 
 3799      6D5F7400 
 3800              	.LASF118:
 3801 0a04 5F6D6273 		.ascii	"_mbsrtowcs_state\000"
 3801      72746F77 
 3801      63735F73 
 3801      74617465 
 3801      00
 3802              	.LASF7:
 3803 0a15 5F5F696E 		.ascii	"__int32_t\000"
 3803      7433325F 
 3803      7400
 3804              	.LASF242:
 3805 0a1f 5F726561 		.ascii	"_read_r\000"
 3805      645F7200 
 3806              	.LASF140:
 3807 0a27 73745F69 		.ascii	"st_ino\000"
 3807      6E6F00
 3808              	.LASF199:
 3809 0a2e 725F6375 		.ascii	"r_current\000"
 3809      7272656E 
 3809      7400
 3810              	.LASF45:
 3811 0a38 5F666E61 		.ascii	"_fnargs\000"
 3811      72677300 
 3812              	.LASF43:
 3813 0a40 5F5F746D 		.ascii	"__tm_isdst\000"
 3813      5F697364 
 3813      737400
 3814              	.LASF174:
 3815 0a4b 705F6E61 		.ascii	"p_name\000"
 3815      6D6500
 3816              	.LASF253:
 3817 0a52 2F557365 		.ascii	"/Users/raphael/Documents/pcb-quadrotor/code\000"
 3817      72732F72 
 3817      61706861 
 3817      656C2F44 
 3817      6F63756D 
 3818              	.LASF135:
 3819 0a7e 6769645F 		.ascii	"gid_t\000"
 3819      7400
ARM GAS  /var/folders/m4/4md61f0s1_g0rzfghffqnxvr0000gn/T//cclTd5Ut.s 			page 76


 3820              	.LASF239:
 3821 0a84 6D5F6E65 		.ascii	"m_next\000"
 3821      787400
 3822              	.LASF36:
 3823 0a8b 5F5F746D 		.ascii	"__tm_min\000"
 3823      5F6D696E 
 3823      00
 3824              	.LASF115:
 3825 0a94 5F676574 		.ascii	"_getdate_err\000"
 3825      64617465 
 3825      5F657272 
 3825      00
 3826              	.LASF230:
 3827 0aa1 77747365 		.ascii	"wtsemp\000"
 3827      6D7000
 3828              	.LASF182:
 3829 0aa8 705F6D73 		.ascii	"p_msg\000"
 3829      6700
 3830              	.LASF175:
 3831 0aae 705F7374 		.ascii	"p_state\000"
 3831      61746500 
 3832              		.ident	"GCC: (GNU Tools for ARM Embedded Processors) 4.9.3 20150529 (release) [ARM/embedded-4_9-br
ARM GAS  /var/folders/m4/4md61f0s1_g0rzfghffqnxvr0000gn/T//cclTd5Ut.s 			page 77


DEFINED SYMBOLS
                            *ABS*:0000000000000000 syscalls.c
/var/folders/m4/4md61f0s1_g0rzfghffqnxvr0000gn/T//cclTd5Ut.s:21     .text._read_r:0000000000000000 $t
/var/folders/m4/4md61f0s1_g0rzfghffqnxvr0000gn/T//cclTd5Ut.s:27     .text._read_r:0000000000000000 _read_r
/var/folders/m4/4md61f0s1_g0rzfghffqnxvr0000gn/T//cclTd5Ut.s:48     .text._lseek_r:0000000000000000 $t
/var/folders/m4/4md61f0s1_g0rzfghffqnxvr0000gn/T//cclTd5Ut.s:54     .text._lseek_r:0000000000000000 _lseek_r
/var/folders/m4/4md61f0s1_g0rzfghffqnxvr0000gn/T//cclTd5Ut.s:70     .text._write_r:0000000000000000 $t
/var/folders/m4/4md61f0s1_g0rzfghffqnxvr0000gn/T//cclTd5Ut.s:76     .text._write_r:0000000000000000 _write_r
/var/folders/m4/4md61f0s1_g0rzfghffqnxvr0000gn/T//cclTd5Ut.s:92     .text._close_r:0000000000000000 $t
/var/folders/m4/4md61f0s1_g0rzfghffqnxvr0000gn/T//cclTd5Ut.s:98     .text._close_r:0000000000000000 _close_r
/var/folders/m4/4md61f0s1_g0rzfghffqnxvr0000gn/T//cclTd5Ut.s:114    .text._sbrk_r:0000000000000000 $t
/var/folders/m4/4md61f0s1_g0rzfghffqnxvr0000gn/T//cclTd5Ut.s:120    .text._sbrk_r:0000000000000000 _sbrk_r
/var/folders/m4/4md61f0s1_g0rzfghffqnxvr0000gn/T//cclTd5Ut.s:156    .text._fstat_r:0000000000000000 $t
/var/folders/m4/4md61f0s1_g0rzfghffqnxvr0000gn/T//cclTd5Ut.s:162    .text._fstat_r:0000000000000000 _fstat_r
/var/folders/m4/4md61f0s1_g0rzfghffqnxvr0000gn/T//cclTd5Ut.s:195    .text._isatty_r:0000000000000000 $t
/var/folders/m4/4md61f0s1_g0rzfghffqnxvr0000gn/T//cclTd5Ut.s:201    .text._isatty_r:0000000000000000 _isatty_r
                     .debug_frame:0000000000000010 $d

UNDEFINED SYMBOLS
chCoreAlloc
memset
