ARM GAS  /var/folders/m4/4md61f0s1_g0rzfghffqnxvr0000gn/T//cc76Lf62.s 			page 1


   1              		.syntax unified
   2              		.cpu cortex-m4
   3              		.eabi_attribute 27, 1
   4              		.eabi_attribute 28, 1
   5              		.fpu fpv4-sp-d16
   6              		.eabi_attribute 20, 1
   7              		.eabi_attribute 21, 1
   8              		.eabi_attribute 23, 3
   9              		.eabi_attribute 24, 1
  10              		.eabi_attribute 25, 1
  11              		.eabi_attribute 26, 1
  12              		.eabi_attribute 30, 2
  13              		.eabi_attribute 34, 1
  14              		.eabi_attribute 18, 4
  15              		.thumb
  16              		.file	"usb.c"
  17              		.text
  18              	.Ltext0:
  19              		.cfi_sections	.debug_frame
  20              		.section	.text.usbInit,"ax",%progbits
  21              		.align	2
  22              		.p2align 4,,15
  23              		.global	usbInit
  24              		.thumb
  25              		.thumb_func
  26              		.type	usbInit, %function
  27              	usbInit:
  28              	.LFB271:
  29              		.file 1 "ChibiOS_16.1.4/os/hal/src/usb.c"
  30              		.loc 1 254 0
  31              		.cfi_startproc
  32              		@ args = 0, pretend = 0, frame = 0
  33              		@ frame_needed = 0, uses_anonymous_args = 0
  34              		@ link register save eliminated.
  35              		.loc 1 256 0
  36 0000 FFF7FEBF 		b	usb_lld_init
  37              	.LVL0:
  38              		.cfi_endproc
  39              	.LFE271:
  40              		.size	usbInit, .-usbInit
  41              		.section	.text.usbObjectInit,"ax",%progbits
  42              		.align	2
  43              		.p2align 4,,15
  44              		.global	usbObjectInit
  45              		.thumb
  46              		.thumb_func
  47              		.type	usbObjectInit, %function
  48              	usbObjectInit:
  49              	.LFB272:
  50              		.loc 1 266 0
  51              		.cfi_startproc
  52              		@ args = 0, pretend = 0, frame = 0
  53              		@ frame_needed = 0, uses_anonymous_args = 0
  54              		@ link register save eliminated.
  55              	.LVL1:
  56              		.loc 1 270 0
  57 0000 0023     		movs	r3, #0
ARM GAS  /var/folders/m4/4md61f0s1_g0rzfghffqnxvr0000gn/T//cc76Lf62.s 			page 2


  58              		.loc 1 269 0
  59 0002 0122     		movs	r2, #1
  60 0004 0270     		strb	r2, [r0]
  61              		.loc 1 270 0
  62 0006 4360     		str	r3, [r0, #4]
  63              	.LVL2:
  64              		.loc 1 272 0
  65 0008 C361     		str	r3, [r0, #28]
  66              		.loc 1 273 0
  67 000a 8362     		str	r3, [r0, #40]
  68              	.LVL3:
  69              		.loc 1 272 0
  70 000c 0362     		str	r3, [r0, #32]
  71              		.loc 1 273 0
  72 000e C362     		str	r3, [r0, #44]
  73              	.LVL4:
  74              		.loc 1 272 0
  75 0010 4362     		str	r3, [r0, #36]
  76              		.loc 1 273 0
  77 0012 0363     		str	r3, [r0, #48]
  78              	.LVL5:
  79              		.loc 1 275 0
  80 0014 0381     		strh	r3, [r0, #8]	@ movhi
  81              		.loc 1 276 0
  82 0016 4381     		strh	r3, [r0, #10]	@ movhi
  83 0018 7047     		bx	lr
  84              		.cfi_endproc
  85              	.LFE272:
  86              		.size	usbObjectInit, .-usbObjectInit
  87 001a 00BF     		.section	.text.usbStart,"ax",%progbits
  88              		.align	2
  89              		.p2align 4,,15
  90              		.global	usbStart
  91              		.thumb
  92              		.thumb_func
  93              		.type	usbStart, %function
  94              	usbStart:
  95              	.LFB273:
  96              		.loc 1 287 0
  97              		.cfi_startproc
  98              		@ args = 0, pretend = 0, frame = 0
  99              		@ frame_needed = 0, uses_anonymous_args = 0
 100              	.LVL6:
 101 0000 38B5     		push	{r3, r4, r5, lr}
 102              		.cfi_def_cfa_offset 16
 103              		.cfi_offset 3, -16
 104              		.cfi_offset 4, -12
 105              		.cfi_offset 5, -8
 106              		.cfi_offset 14, -4
 107              		.loc 1 287 0
 108 0002 0446     		mov	r4, r0
 109              	.LBB186:
 110              	.LBB187:
 111              	.LBB188:
 112              	.LBB189:
 113              	.LBB190:
 114              		.file 2 "ChibiOS_16.1.4/os/ext/CMSIS/include/core_cmFunc.h"
ARM GAS  /var/folders/m4/4md61f0s1_g0rzfghffqnxvr0000gn/T//cc76Lf62.s 			page 3


 115              		.loc 2 548 0
 116 0004 2023     		movs	r3, #32
 117              	@ 548 "ChibiOS_16.1.4/os/ext/CMSIS/include/core_cmFunc.h" 1
 118 0006 83F31188 		MSR basepri, r3
 119              	@ 0 "" 2
 120              		.thumb
 121              	.LBE190:
 122              	.LBE189:
 123              	.LBE188:
 124              	.LBE187:
 125              	.LBE186:
 126              		.loc 1 297 0
 127 000a 0025     		movs	r5, #0
 128              		.loc 1 295 0
 129 000c 4160     		str	r1, [r0, #4]
 130              	.LVL7:
 131              		.loc 1 297 0
 132 000e C560     		str	r5, [r0, #12]
 133              	.LVL8:
 134 0010 0561     		str	r5, [r0, #16]
 135              	.LVL9:
 136 0012 4561     		str	r5, [r0, #20]
 137              	.LVL10:
 138 0014 8561     		str	r5, [r0, #24]
 139              	.LVL11:
 140              		.loc 1 299 0
 141 0016 FFF7FEFF 		bl	usb_lld_start
 142              	.LVL12:
 143              		.loc 1 300 0
 144 001a 0223     		movs	r3, #2
 145 001c 2370     		strb	r3, [r4]
 146              	.LVL13:
 147              	.LBB191:
 148              	.LBB192:
 149              	.LBB193:
 150              	.LBB194:
 151              	.LBB195:
 152              	.LBB196:
 153              		.loc 2 548 0
 154              	@ 548 "ChibiOS_16.1.4/os/ext/CMSIS/include/core_cmFunc.h" 1
 155 001e 85F31188 		MSR basepri, r5
 156              	@ 0 "" 2
 157              		.thumb
 158 0022 38BD     		pop	{r3, r4, r5, pc}
 159              	.LBE196:
 160              	.LBE195:
 161              	.LBE194:
 162              	.LBE193:
 163              	.LBE192:
 164              	.LBE191:
 165              		.cfi_endproc
 166              	.LFE273:
 167              		.size	usbStart, .-usbStart
 168              		.section	.text.usbStop,"ax",%progbits
 169              		.align	2
 170              		.p2align 4,,15
 171              		.global	usbStop
ARM GAS  /var/folders/m4/4md61f0s1_g0rzfghffqnxvr0000gn/T//cc76Lf62.s 			page 4


 172              		.thumb
 173              		.thumb_func
 174              		.type	usbStop, %function
 175              	usbStop:
 176              	.LFB274:
 177              		.loc 1 311 0
 178              		.cfi_startproc
 179              		@ args = 0, pretend = 0, frame = 0
 180              		@ frame_needed = 0, uses_anonymous_args = 0
 181              	.LVL14:
 182 0000 38B5     		push	{r3, r4, r5, lr}
 183              		.cfi_def_cfa_offset 16
 184              		.cfi_offset 3, -16
 185              		.cfi_offset 4, -12
 186              		.cfi_offset 5, -8
 187              		.cfi_offset 14, -4
 188              		.loc 1 311 0
 189 0002 0546     		mov	r5, r0
 190              	.LBB197:
 191              	.LBB198:
 192              	.LBB199:
 193              	.LBB200:
 194              	.LBB201:
 195              		.loc 2 548 0
 196 0004 2023     		movs	r3, #32
 197              	@ 548 "ChibiOS_16.1.4/os/ext/CMSIS/include/core_cmFunc.h" 1
 198 0006 83F31188 		MSR basepri, r3
 199              	@ 0 "" 2
 200              		.thumb
 201              	.LBE201:
 202              	.LBE200:
 203              	.LBE199:
 204              	.LBE198:
 205              	.LBE197:
 206              		.loc 1 321 0
 207 000a FFF7FEFF 		bl	usb_lld_stop
 208              	.LVL15:
 209              		.loc 1 336 0
 210 000e 0024     		movs	r4, #0
 211              		.loc 1 322 0
 212 0010 0123     		movs	r3, #1
 213 0012 2B70     		strb	r3, [r5]
 214              	.LVL16:
 215              		.loc 1 336 0
 216 0014 EC60     		str	r4, [r5, #12]
 217              	.LVL17:
 218 0016 2C61     		str	r4, [r5, #16]
 219              	.LVL18:
 220 0018 6C61     		str	r4, [r5, #20]
 221              	.LVL19:
 222 001a AC61     		str	r4, [r5, #24]
 223              	.LVL20:
 224              	.LBB202:
 225              	.LBB203:
 226              		.file 3 "ChibiOS_16.1.4/os/hal/osal/rt/osal.h"
 227              		.loc 3 600 0
 228 001c FFF7FEFF 		bl	chSchRescheduleS
ARM GAS  /var/folders/m4/4md61f0s1_g0rzfghffqnxvr0000gn/T//cc76Lf62.s 			page 5


 229              	.LVL21:
 230              	.LBE203:
 231              	.LBE202:
 232              	.LBB204:
 233              	.LBB205:
 234              	.LBB206:
 235              	.LBB207:
 236              	.LBB208:
 237              	.LBB209:
 238              		.loc 2 548 0
 239              	@ 548 "ChibiOS_16.1.4/os/ext/CMSIS/include/core_cmFunc.h" 1
 240 0020 84F31188 		MSR basepri, r4
 241              	@ 0 "" 2
 242              		.thumb
 243 0024 38BD     		pop	{r3, r4, r5, pc}
 244              	.LBE209:
 245              	.LBE208:
 246              	.LBE207:
 247              	.LBE206:
 248              	.LBE205:
 249              	.LBE204:
 250              		.cfi_endproc
 251              	.LFE274:
 252              		.size	usbStop, .-usbStop
 253 0026 00BF     		.section	.text.usbInitEndpointI,"ax",%progbits
 254              		.align	2
 255              		.p2align 4,,15
 256              		.global	usbInitEndpointI
 257              		.thumb
 258              		.thumb_func
 259              		.type	usbInitEndpointI, %function
 260              	usbInitEndpointI:
 261              	.LFB275:
 262              		.loc 1 356 0
 263              		.cfi_startproc
 264              		@ args = 0, pretend = 0, frame = 0
 265              		@ frame_needed = 0, uses_anonymous_args = 0
 266              	.LVL22:
 267 0000 70B5     		push	{r4, r5, r6, lr}
 268              		.cfi_def_cfa_offset 16
 269              		.cfi_offset 4, -16
 270              		.cfi_offset 5, -12
 271              		.cfi_offset 6, -8
 272              		.cfi_offset 14, -4
 273              		.loc 1 365 0
 274 0002 00EB8103 		add	r3, r0, r1, lsl #2
 275              		.loc 1 356 0
 276 0006 0646     		mov	r6, r0
 277              		.loc 1 368 0
 278 0008 5069     		ldr	r0, [r2, #20]
 279              	.LVL23:
 280              		.loc 1 365 0
 281 000a DA60     		str	r2, [r3, #12]
 282              		.loc 1 356 0
 283 000c 1446     		mov	r4, r2
 284 000e 0D46     		mov	r5, r1
 285              		.loc 1 368 0
ARM GAS  /var/folders/m4/4md61f0s1_g0rzfghffqnxvr0000gn/T//cc76Lf62.s 			page 6


 286 0010 18B1     		cbz	r0, .L8
 287              		.loc 1 369 0
 288 0012 0021     		movs	r1, #0
 289              	.LVL24:
 290 0014 1022     		movs	r2, #16
 291              	.LVL25:
 292 0016 FFF7FEFF 		bl	memset
 293              	.LVL26:
 294              	.L8:
 295              		.loc 1 371 0
 296 001a A069     		ldr	r0, [r4, #24]
 297 001c 18B1     		cbz	r0, .L9
 298              		.loc 1 372 0
 299 001e 0021     		movs	r1, #0
 300 0020 1022     		movs	r2, #16
 301 0022 FFF7FEFF 		bl	memset
 302              	.LVL27:
 303              	.L9:
 304              		.loc 1 376 0
 305 0026 3046     		mov	r0, r6
 306 0028 2946     		mov	r1, r5
 307              		.loc 1 377 0
 308 002a BDE87040 		pop	{r4, r5, r6, lr}
 309              		.cfi_restore 14
 310              		.cfi_restore 6
 311              		.cfi_restore 5
 312              		.cfi_restore 4
 313              		.cfi_def_cfa_offset 0
 314              	.LVL28:
 315              		.loc 1 376 0
 316 002e FFF7FEBF 		b	usb_lld_init_endpoint
 317              	.LVL29:
 318              		.cfi_endproc
 319              	.LFE275:
 320              		.size	usbInitEndpointI, .-usbInitEndpointI
 321 0032 00BF     		.section	.text.usbDisableEndpointsI,"ax",%progbits
 322              		.align	2
 323              		.p2align 4,,15
 324              		.global	usbDisableEndpointsI
 325              		.thumb
 326              		.thumb_func
 327              		.type	usbDisableEndpointsI, %function
 328              	usbDisableEndpointsI:
 329              	.LFB276:
 330              		.loc 1 390 0
 331              		.cfi_startproc
 332              		@ args = 0, pretend = 0, frame = 0
 333              		@ frame_needed = 0, uses_anonymous_args = 0
 334              		@ link register save eliminated.
 335              	.LVL30:
 336 0000 10B4     		push	{r4}
 337              		.cfi_def_cfa_offset 4
 338              		.cfi_offset 4, -4
 339              		.loc 1 398 0
 340 0002 4189     		ldrh	r1, [r0, #10]
 341              		.loc 1 397 0
 342 0004 0489     		ldrh	r4, [r0, #8]
ARM GAS  /var/folders/m4/4md61f0s1_g0rzfghffqnxvr0000gn/T//cc76Lf62.s 			page 7


 343              		.loc 1 413 0
 344 0006 0022     		movs	r2, #0
 345              		.loc 1 397 0
 346 0008 24F00104 		bic	r4, r4, #1
 347              		.loc 1 398 0
 348 000c 21F00101 		bic	r1, r1, #1
 349              		.loc 1 397 0
 350 0010 0481     		strh	r4, [r0, #8]	@ movhi
 351              		.loc 1 413 0
 352 0012 0261     		str	r2, [r0, #16]
 353              		.loc 1 398 0
 354 0014 4181     		strh	r1, [r0, #10]	@ movhi
 355              	.LVL31:
 356              		.loc 1 413 0
 357 0016 4261     		str	r2, [r0, #20]
 358              	.LVL32:
 359 0018 8261     		str	r2, [r0, #24]
 360              	.LVL33:
 361              		.loc 1 418 0
 362 001a 5DF8044B 		ldr	r4, [sp], #4
 363              		.cfi_restore 4
 364              		.cfi_def_cfa_offset 0
 365              		.loc 1 417 0
 366 001e FFF7FEBF 		b	usb_lld_disable_endpoints
 367              	.LVL34:
 368              		.cfi_endproc
 369              	.LFE276:
 370              		.size	usbDisableEndpointsI, .-usbDisableEndpointsI
 371 0022 00BF     		.section	.text.usbStartReceiveI,"ax",%progbits
 372              		.align	2
 373              		.p2align 4,,15
 374              		.global	usbStartReceiveI
 375              		.thumb
 376              		.thumb_func
 377              		.type	usbStartReceiveI, %function
 378              	usbStartReceiveI:
 379              	.LFB277:
 380              		.loc 1 435 0
 381              		.cfi_startproc
 382              		@ args = 0, pretend = 0, frame = 0
 383              		@ frame_needed = 0, uses_anonymous_args = 0
 384              	.LVL35:
 385 0000 F0B5     		push	{r4, r5, r6, r7, lr}
 386              		.cfi_def_cfa_offset 20
 387              		.cfi_offset 4, -20
 388              		.cfi_offset 5, -16
 389              		.cfi_offset 6, -12
 390              		.cfi_offset 7, -8
 391              		.cfi_offset 14, -4
 392              		.loc 1 447 0
 393 0002 00EB8106 		add	r6, r0, r1, lsl #2
 394              		.loc 1 443 0
 395 0006 4789     		ldrh	r7, [r0, #10]
 396              		.loc 1 447 0
 397 0008 D6F80CE0 		ldr	lr, [r6, #12]
 398              		.loc 1 443 0
 399 000c 0126     		movs	r6, #1
ARM GAS  /var/folders/m4/4md61f0s1_g0rzfghffqnxvr0000gn/T//cc76Lf62.s 			page 8


 400              		.loc 1 447 0
 401 000e DEF81840 		ldr	r4, [lr, #24]
 402              	.LVL36:
 403              		.loc 1 443 0
 404 0012 8E40     		lsls	r6, r6, r1
 405 0014 3E43     		orrs	r6, r6, r7
 406              		.loc 1 451 0
 407 0016 0027     		movs	r7, #0
 408              		.loc 1 443 0
 409 0018 4681     		strh	r6, [r0, #10]	@ movhi
 410              		.loc 1 449 0
 411 001a A260     		str	r2, [r4, #8]
 412              		.loc 1 451 0
 413 001c 84E88800 		stmia	r4, {r3, r7}
 414              		.loc 1 458 0
 415 0020 BDE8F040 		pop	{r4, r5, r6, r7, lr}
 416              		.cfi_restore 14
 417              		.cfi_restore 7
 418              		.cfi_restore 6
 419              		.cfi_restore 5
 420              		.cfi_restore 4
 421              		.cfi_def_cfa_offset 0
 422              	.LVL37:
 423              		.loc 1 457 0
 424 0024 FFF7FEBF 		b	usb_lld_start_out
 425              	.LVL38:
 426              		.cfi_endproc
 427              	.LFE277:
 428              		.size	usbStartReceiveI, .-usbStartReceiveI
 429              		.section	.text.usbStartTransmitI,"ax",%progbits
 430              		.align	2
 431              		.p2align 4,,15
 432              		.global	usbStartTransmitI
 433              		.thumb
 434              		.thumb_func
 435              		.type	usbStartTransmitI, %function
 436              	usbStartTransmitI:
 437              	.LFB278:
 438              		.loc 1 474 0
 439              		.cfi_startproc
 440              		@ args = 0, pretend = 0, frame = 0
 441              		@ frame_needed = 0, uses_anonymous_args = 0
 442              	.LVL39:
 443 0000 F0B5     		push	{r4, r5, r6, r7, lr}
 444              		.cfi_def_cfa_offset 20
 445              		.cfi_offset 4, -20
 446              		.cfi_offset 5, -16
 447              		.cfi_offset 6, -12
 448              		.cfi_offset 7, -8
 449              		.cfi_offset 14, -4
 450              		.loc 1 486 0
 451 0002 00EB8106 		add	r6, r0, r1, lsl #2
 452              		.loc 1 482 0
 453 0006 0789     		ldrh	r7, [r0, #8]
 454              		.loc 1 486 0
 455 0008 D6F80CE0 		ldr	lr, [r6, #12]
 456              		.loc 1 482 0
ARM GAS  /var/folders/m4/4md61f0s1_g0rzfghffqnxvr0000gn/T//cc76Lf62.s 			page 9


 457 000c 0126     		movs	r6, #1
 458              		.loc 1 486 0
 459 000e DEF81440 		ldr	r4, [lr, #20]
 460              	.LVL40:
 461              		.loc 1 482 0
 462 0012 8E40     		lsls	r6, r6, r1
 463 0014 3E43     		orrs	r6, r6, r7
 464              		.loc 1 490 0
 465 0016 0027     		movs	r7, #0
 466              		.loc 1 482 0
 467 0018 0681     		strh	r6, [r0, #8]	@ movhi
 468              		.loc 1 488 0
 469 001a A260     		str	r2, [r4, #8]
 470              		.loc 1 490 0
 471 001c 84E88800 		stmia	r4, {r3, r7}
 472              		.loc 1 497 0
 473 0020 BDE8F040 		pop	{r4, r5, r6, r7, lr}
 474              		.cfi_restore 14
 475              		.cfi_restore 7
 476              		.cfi_restore 6
 477              		.cfi_restore 5
 478              		.cfi_restore 4
 479              		.cfi_def_cfa_offset 0
 480              	.LVL41:
 481              		.loc 1 496 0
 482 0024 FFF7FEBF 		b	usb_lld_start_in
 483              	.LVL42:
 484              		.cfi_endproc
 485              	.LFE278:
 486              		.size	usbStartTransmitI, .-usbStartTransmitI
 487              		.section	.text.usbStallReceiveI,"ax",%progbits
 488              		.align	2
 489              		.p2align 4,,15
 490              		.global	usbStallReceiveI
 491              		.thumb
 492              		.thumb_func
 493              		.type	usbStallReceiveI, %function
 494              	usbStallReceiveI:
 495              	.LFB279:
 496              		.loc 1 580 0
 497              		.cfi_startproc
 498              		@ args = 0, pretend = 0, frame = 0
 499              		@ frame_needed = 0, uses_anonymous_args = 0
 500              	.LVL43:
 501 0000 10B5     		push	{r4, lr}
 502              		.cfi_def_cfa_offset 8
 503              		.cfi_offset 4, -8
 504              		.cfi_offset 14, -4
 505              		.loc 1 585 0
 506 0002 0123     		movs	r3, #1
 507 0004 4489     		ldrh	r4, [r0, #10]
 508 0006 03FA01F2 		lsl	r2, r3, r1
 509 000a 1440     		ands	r4, r2, r4
 510 000c 01D0     		beq	.L28
 511              		.loc 1 586 0
 512 000e 1846     		mov	r0, r3
 513              	.LVL44:
ARM GAS  /var/folders/m4/4md61f0s1_g0rzfghffqnxvr0000gn/T//cc76Lf62.s 			page 10


 514              		.loc 1 591 0
 515 0010 10BD     		pop	{r4, pc}
 516              	.LVL45:
 517              	.L28:
 518              		.loc 1 589 0
 519 0012 FFF7FEFF 		bl	usb_lld_stall_out
 520              	.LVL46:
 521              		.loc 1 590 0
 522 0016 2046     		mov	r0, r4
 523 0018 10BD     		pop	{r4, pc}
 524              		.cfi_endproc
 525              	.LFE279:
 526              		.size	usbStallReceiveI, .-usbStallReceiveI
 527 001a 00BF     		.section	.text.usbStallTransmitI,"ax",%progbits
 528              		.align	2
 529              		.p2align 4,,15
 530              		.global	usbStallTransmitI
 531              		.thumb
 532              		.thumb_func
 533              		.type	usbStallTransmitI, %function
 534              	usbStallTransmitI:
 535              	.LFB280:
 536              		.loc 1 605 0
 537              		.cfi_startproc
 538              		@ args = 0, pretend = 0, frame = 0
 539              		@ frame_needed = 0, uses_anonymous_args = 0
 540              	.LVL47:
 541 0000 10B5     		push	{r4, lr}
 542              		.cfi_def_cfa_offset 8
 543              		.cfi_offset 4, -8
 544              		.cfi_offset 14, -4
 545              		.loc 1 610 0
 546 0002 0123     		movs	r3, #1
 547 0004 0489     		ldrh	r4, [r0, #8]
 548 0006 03FA01F2 		lsl	r2, r3, r1
 549 000a 1440     		ands	r4, r2, r4
 550 000c 01D0     		beq	.L33
 551              		.loc 1 611 0
 552 000e 1846     		mov	r0, r3
 553              	.LVL48:
 554              		.loc 1 616 0
 555 0010 10BD     		pop	{r4, pc}
 556              	.LVL49:
 557              	.L33:
 558              		.loc 1 614 0
 559 0012 FFF7FEFF 		bl	usb_lld_stall_in
 560              	.LVL50:
 561              		.loc 1 615 0
 562 0016 2046     		mov	r0, r4
 563 0018 10BD     		pop	{r4, pc}
 564              		.cfi_endproc
 565              	.LFE280:
 566              		.size	usbStallTransmitI, .-usbStallTransmitI
 567 001a 00BF     		.section	.text._usb_reset,"ax",%progbits
 568              		.align	2
 569              		.p2align 4,,15
 570              		.global	_usb_reset
ARM GAS  /var/folders/m4/4md61f0s1_g0rzfghffqnxvr0000gn/T//cc76Lf62.s 			page 11


 571              		.thumb
 572              		.thumb_func
 573              		.type	_usb_reset, %function
 574              	_usb_reset:
 575              	.LFB281:
 576              		.loc 1 627 0
 577              		.cfi_startproc
 578              		@ args = 0, pretend = 0, frame = 0
 579              		@ frame_needed = 0, uses_anonymous_args = 0
 580              	.LVL51:
 581 0000 70B5     		push	{r4, r5, r6, lr}
 582              		.cfi_def_cfa_offset 16
 583              		.cfi_offset 4, -16
 584              		.cfi_offset 5, -12
 585              		.cfi_offset 6, -8
 586              		.cfi_offset 14, -4
 587              		.loc 1 631 0
 588 0002 0223     		movs	r3, #2
 589              		.loc 1 634 0
 590 0004 0025     		movs	r5, #0
 591              		.loc 1 627 0
 592 0006 0446     		mov	r4, r0
 593              		.loc 1 631 0
 594 0008 0370     		strb	r3, [r0]
 595              		.loc 1 634 0
 596 000a A0F84C50 		strh	r5, [r0, #76]	@ movhi
 597              		.loc 1 635 0
 598 000e 80F84E50 		strb	r5, [r0, #78]
 599              		.loc 1 636 0
 600 0012 80F84F50 		strb	r5, [r0, #79]
 601              		.loc 1 637 0
 602 0016 0581     		strh	r5, [r0, #8]	@ movhi
 603              		.loc 1 638 0
 604 0018 4581     		strh	r5, [r0, #10]	@ movhi
 605              	.LVL52:
 606              		.loc 1 655 0
 607 001a C560     		str	r5, [r0, #12]
 608              	.LVL53:
 609 001c 0561     		str	r5, [r0, #16]
 610              	.LVL54:
 611 001e 4561     		str	r5, [r0, #20]
 612              	.LVL55:
 613 0020 8561     		str	r5, [r0, #24]
 614              	.LVL56:
 615              		.loc 1 659 0
 616 0022 80F83450 		strb	r5, [r0, #52]
 617              		.loc 1 662 0
 618 0026 FFF7FEFF 		bl	usb_lld_reset
 619              	.LVL57:
 620              		.loc 1 665 0
 621 002a 6368     		ldr	r3, [r4, #4]
 622 002c 1B68     		ldr	r3, [r3]
 623 002e 23B1     		cbz	r3, .L34
 624              		.loc 1 665 0 is_stmt 0 discriminator 1
 625 0030 2046     		mov	r0, r4
 626 0032 2946     		mov	r1, r5
 627              		.loc 1 666 0 is_stmt 1 discriminator 1
ARM GAS  /var/folders/m4/4md61f0s1_g0rzfghffqnxvr0000gn/T//cc76Lf62.s 			page 12


 628 0034 BDE87040 		pop	{r4, r5, r6, lr}
 629              		.cfi_remember_state
 630              		.cfi_restore 14
 631              		.cfi_restore 6
 632              		.cfi_restore 5
 633              		.cfi_restore 4
 634              		.cfi_def_cfa_offset 0
 635              	.LVL58:
 636              		.loc 1 665 0 discriminator 1
 637 0038 1847     		bx	r3	@ indirect register sibling call
 638              	.LVL59:
 639              	.L34:
 640              		.cfi_restore_state
 641 003a 70BD     		pop	{r4, r5, r6, pc}
 642              		.cfi_endproc
 643              	.LFE281:
 644              		.size	_usb_reset, .-_usb_reset
 645              		.section	.text._usb_suspend,"ax",%progbits
 646              		.align	2
 647              		.p2align 4,,15
 648              		.global	_usb_suspend
 649              		.thumb
 650              		.thumb_func
 651              		.type	_usb_suspend, %function
 652              	_usb_suspend:
 653              	.LFB282:
 654              		.loc 1 677 0
 655              		.cfi_startproc
 656              		@ args = 0, pretend = 0, frame = 0
 657              		@ frame_needed = 0, uses_anonymous_args = 0
 658              		@ link register save eliminated.
 659              	.LVL60:
 660              		.loc 1 683 0
 661 0000 4268     		ldr	r2, [r0, #4]
 662 0002 1368     		ldr	r3, [r2]
 663              		.loc 1 680 0
 664 0004 0521     		movs	r1, #5
 665 0006 0170     		strb	r1, [r0]
 666              		.loc 1 683 0
 667 0008 0BB1     		cbz	r3, .L37
 668              		.loc 1 683 0 is_stmt 0 discriminator 1
 669 000a 0321     		movs	r1, #3
 670 000c 1847     		bx	r3	@ indirect register sibling call
 671              	.LVL61:
 672              	.L37:
 673 000e 7047     		bx	lr
 674              		.cfi_endproc
 675              	.LFE282:
 676              		.size	_usb_suspend, .-_usb_suspend
 677              		.section	.text._usb_wakeup,"ax",%progbits
 678              		.align	2
 679              		.p2align 4,,15
 680              		.global	_usb_wakeup
 681              		.thumb
 682              		.thumb_func
 683              		.type	_usb_wakeup, %function
 684              	_usb_wakeup:
ARM GAS  /var/folders/m4/4md61f0s1_g0rzfghffqnxvr0000gn/T//cc76Lf62.s 			page 13


 685              	.LFB283:
 686              		.loc 1 715 0 is_stmt 1
 687              		.cfi_startproc
 688              		@ args = 0, pretend = 0, frame = 0
 689              		@ frame_needed = 0, uses_anonymous_args = 0
 690              		@ link register save eliminated.
 691              	.LVL62:
 692              		.loc 1 721 0
 693 0000 4268     		ldr	r2, [r0, #4]
 694 0002 1368     		ldr	r3, [r2]
 695              		.loc 1 718 0
 696 0004 0421     		movs	r1, #4
 697 0006 0170     		strb	r1, [r0]
 698              		.loc 1 721 0
 699 0008 03B1     		cbz	r3, .L39
 700              		.loc 1 721 0 is_stmt 0 discriminator 1
 701 000a 1847     		bx	r3	@ indirect register sibling call
 702              	.LVL63:
 703              	.L39:
 704 000c 7047     		bx	lr
 705              		.cfi_endproc
 706              	.LFE283:
 707              		.size	_usb_wakeup, .-_usb_wakeup
 708 000e 00BF     		.section	.text._usb_ep0setup,"ax",%progbits
 709              		.align	2
 710              		.p2align 4,,15
 711              		.global	_usb_ep0setup
 712              		.thumb
 713              		.thumb_func
 714              		.type	_usb_ep0setup, %function
 715              	_usb_ep0setup:
 716              	.LFB284:
 717              		.loc 1 734 0 is_stmt 1
 718              		.cfi_startproc
 719              		@ args = 0, pretend = 0, frame = 0
 720              		@ frame_needed = 0, uses_anonymous_args = 0
 721              	.LVL64:
 722 0000 F8B5     		push	{r3, r4, r5, r6, r7, lr}
 723              		.cfi_def_cfa_offset 24
 724              		.cfi_offset 3, -24
 725              		.cfi_offset 4, -20
 726              		.cfi_offset 5, -16
 727              		.cfi_offset 6, -12
 728              		.cfi_offset 7, -8
 729              		.cfi_offset 14, -4
 730              		.loc 1 737 0
 731 0002 0023     		movs	r3, #0
 732              		.loc 1 734 0
 733 0004 0446     		mov	r4, r0
 734              		.loc 1 737 0
 735 0006 80F83430 		strb	r3, [r0, #52]
 736              		.loc 1 738 0
 737 000a 00F14402 		add	r2, r0, #68
 738 000e FFF7FEFF 		bl	usb_lld_read_setup
 739              	.LVL65:
 740              		.loc 1 743 0
 741 0012 6368     		ldr	r3, [r4, #4]
ARM GAS  /var/folders/m4/4md61f0s1_g0rzfghffqnxvr0000gn/T//cc76Lf62.s 			page 14


 742 0014 9B68     		ldr	r3, [r3, #8]
 743 0016 13B3     		cbz	r3, .L46
 744              		.loc 1 744 0 discriminator 1
 745 0018 2046     		mov	r0, r4
 746 001a 9847     		blx	r3
 747              	.LVL66:
 748              		.loc 1 743 0 discriminator 1
 749 001c F8B1     		cbz	r0, .L46
 750 001e E56B     		ldr	r5, [r4, #60]
 751 0020 94F84430 		ldrb	r3, [r4, #68]	@ zero_extendqisi2
 752              	.L85:
 753              	.LVL67:
 754              	.LBB266:
 755              	.LBB267:
 756              		.loc 1 55 0
 757 0024 94F84B10 		ldrb	r1, [r4, #75]	@ zero_extendqisi2
 758 0028 94F84A20 		ldrb	r2, [r4, #74]	@ zero_extendqisi2
 759              	.LBE267:
 760              	.LBE266:
 761              		.loc 1 771 0
 762 002c 42EA0122 		orr	r2, r2, r1, lsl #8
 763              	.LVL68:
 764              		.loc 1 773 0
 765 0030 AA42     		cmp	r2, r5
 766              		.loc 1 774 0
 767 0032 3CBF     		itt	cc
 768 0034 E263     		strcc	r2, [r4, #60]
 769 0036 1546     		movcc	r5, r2
 770              		.loc 1 776 0
 771 0038 1B06     		lsls	r3, r3, #24
 772 003a 76D4     		bmi	.L111
 773              		.loc 1 800 0
 774 003c 002D     		cmp	r5, #0
 775 003e 64D1     		bne	.L112
 776              		.loc 1 810 0
 777 0040 0523     		movs	r3, #5
 778 0042 84F83430 		strb	r3, [r4, #52]
 779              	.LVL69:
 780              	.LBB268:
 781              	.LBB269:
 782              	.LBB270:
 783              	.LBB271:
 784              	.LBB272:
 785              	.LBB273:
 786              		.loc 2 548 0
 787 0046 2023     		movs	r3, #32
 788              	@ 548 "ChibiOS_16.1.4/os/ext/CMSIS/include/core_cmFunc.h" 1
 789 0048 83F31188 		MSR basepri, r3
 790              	@ 0 "" 2
 791              		.thumb
 792              	.LBE273:
 793              	.LBE272:
 794              	.LBE271:
 795              	.LBE270:
 796              	.LBE269:
 797              	.LBE268:
 798              		.loc 1 813 0
ARM GAS  /var/folders/m4/4md61f0s1_g0rzfghffqnxvr0000gn/T//cc76Lf62.s 			page 15


 799 004c 2046     		mov	r0, r4
 800 004e 2946     		mov	r1, r5
 801 0050 2A46     		mov	r2, r5
 802              	.LVL70:
 803 0052 2B46     		mov	r3, r5
 804 0054 FFF7FEFF 		bl	usbStartTransmitI
 805              	.LVL71:
 806              	.LBB274:
 807              	.LBB275:
 808              	.LBB276:
 809              	.LBB277:
 810              	.LBB278:
 811              	.LBB279:
 812              		.loc 2 548 0
 813              	@ 548 "ChibiOS_16.1.4/os/ext/CMSIS/include/core_cmFunc.h" 1
 814 0058 85F31188 		MSR basepri, r5
 815              	@ 0 "" 2
 816              		.thumb
 817 005c F8BD     		pop	{r3, r4, r5, r6, r7, pc}
 818              	.LVL72:
 819              	.L46:
 820              	.LBE279:
 821              	.LBE278:
 822              	.LBE277:
 823              	.LBE276:
 824              	.LBE275:
 825              	.LBE274:
 826              		.loc 1 749 0
 827 005e 94F84430 		ldrb	r3, [r4, #68]	@ zero_extendqisi2
 828 0062 13F06007 		ands	r7, r3, #96
 829 0066 11D0     		beq	.L113
 830              	.L43:
 831              		.loc 1 755 0
 832 0068 2046     		mov	r0, r4
 833 006a 0021     		movs	r1, #0
 834 006c FFF7FEFF 		bl	usb_lld_stall_in
 835              	.LVL73:
 836              		.loc 1 756 0
 837 0070 2046     		mov	r0, r4
 838 0072 0021     		movs	r1, #0
 839 0074 FFF7FEFF 		bl	usb_lld_stall_out
 840              	.LVL74:
 841              		.loc 1 757 0
 842 0078 6368     		ldr	r3, [r4, #4]
 843 007a 1B68     		ldr	r3, [r3]
 844 007c 13B1     		cbz	r3, .L79
 845              		.loc 1 757 0 is_stmt 0 discriminator 1
 846 007e 2046     		mov	r0, r4
 847 0080 0521     		movs	r1, #5
 848 0082 9847     		blx	r3
 849              	.LVL75:
 850              	.L79:
 851              		.loc 1 758 0 is_stmt 1
 852 0084 0623     		movs	r3, #6
 853 0086 84F83430 		strb	r3, [r4, #52]
 854              		.loc 1 759 0
 855 008a F8BD     		pop	{r3, r4, r5, r6, r7, pc}
ARM GAS  /var/folders/m4/4md61f0s1_g0rzfghffqnxvr0000gn/T//cc76Lf62.s 			page 16


 856              	.LVL76:
 857              	.L113:
 858              	.LBB280:
 859              	.LBB281:
 860              		.loc 1 90 0
 861 008c 94F84550 		ldrb	r5, [r4, #69]	@ zero_extendqisi2
 862              		.loc 1 88 0
 863 0090 03F07F02 		and	r2, r3, #127
 864              		.loc 1 89 0
 865 0094 42EA0526 		orr	r6, r2, r5, lsl #8
 866              		.loc 1 88 0
 867 0098 B6F5407F 		cmp	r6, #768
 868 009c 00F0E780 		beq	.L48
 869 00a0 16D9     		bls	.L114
 870 00a2 B6F5C06F 		cmp	r6, #1536
 871 00a6 00F0C980 		beq	.L56
 872 00aa 5ED9     		bls	.L115
 873 00ac B6F5106F 		cmp	r6, #2304
 874 00b0 6ED0     		beq	.L60
 875 00b2 40F60242 		movw	r2, #3074
 876 00b6 9642     		cmp	r6, r2
 877 00b8 00F0EC80 		beq	.L53
 878 00bc B6F5006F 		cmp	r6, #2048
 879 00c0 D2D1     		bne	.L43
 880              		.loc 1 141 0
 881 00c2 04F14F02 		add	r2, r4, #79
 882 00c6 0125     		movs	r5, #1
 883 00c8 2764     		str	r7, [r4, #64]
 884 00ca A263     		str	r2, [r4, #56]
 885 00cc E563     		str	r5, [r4, #60]
 886 00ce A9E7     		b	.L85
 887              	.L114:
 888              		.loc 1 88 0
 889 00d0 022E     		cmp	r6, #2
 890 00d2 00F09C80 		beq	.L50
 891 00d6 40F29180 		bls	.L116
 892 00da B6F5807F 		cmp	r6, #256
 893 00de 7DD0     		beq	.L54
 894 00e0 B6F5817F 		cmp	r6, #258
 895 00e4 C0D1     		bne	.L43
 896              		.loc 1 201 0
 897 00e6 94F84620 		ldrb	r2, [r4, #70]	@ zero_extendqisi2
 898 00ea 002A     		cmp	r2, #0
 899 00ec BCD1     		bne	.L43
 900              		.loc 1 205 0
 901 00ee 94F84820 		ldrb	r2, [r4, #72]	@ zero_extendqisi2
 902 00f2 12F00F01 		ands	r1, r2, #15
 903 00f6 46D0     		beq	.L77
 904              		.loc 1 206 0
 905 00f8 1506     		lsls	r5, r2, #24
 906              		.loc 1 207 0
 907 00fa 2046     		mov	r0, r4
 908              		.loc 1 206 0
 909 00fc 00F1F280 		bmi	.L117
 910              	.LVL77:
 911              		.loc 1 210 0
 912 0100 FFF7FEFF 		bl	usb_lld_clear_out
ARM GAS  /var/folders/m4/4md61f0s1_g0rzfghffqnxvr0000gn/T//cc76Lf62.s 			page 17


 913              	.LVL78:
 914 0104 94F84430 		ldrb	r3, [r4, #68]	@ zero_extendqisi2
 915 0108 3DE0     		b	.L77
 916              	.LVL79:
 917              	.L112:
 918              	.LBE281:
 919              	.LBE280:
 920              		.loc 1 802 0
 921 010a 0423     		movs	r3, #4
 922 010c 84F83430 		strb	r3, [r4, #52]
 923              	.LVL80:
 924              	.LBB287:
 925              	.LBB288:
 926              	.LBB289:
 927              	.LBB290:
 928              	.LBB291:
 929              	.LBB292:
 930              		.loc 2 548 0
 931 0110 2023     		movs	r3, #32
 932              	@ 548 "ChibiOS_16.1.4/os/ext/CMSIS/include/core_cmFunc.h" 1
 933 0112 83F31188 		MSR basepri, r3
 934              	@ 0 "" 2
 935              		.thumb
 936              	.LBE292:
 937              	.LBE291:
 938              	.LBE290:
 939              	.LBE289:
 940              	.LBE288:
 941              	.LBE287:
 942              		.loc 1 804 0
 943 0116 0021     		movs	r1, #0
 944 0118 E36B     		ldr	r3, [r4, #60]
 945 011a A26B     		ldr	r2, [r4, #56]
 946              	.LVL81:
 947 011c 2046     		mov	r0, r4
 948 011e FFF7FEFF 		bl	usbStartReceiveI
 949              	.LVL82:
 950              	.LBB293:
 951              	.LBB294:
 952              	.LBB295:
 953              	.LBB296:
 954              	.LBB297:
 955              	.LBB298:
 956              		.loc 2 548 0
 957 0122 0023     		movs	r3, #0
 958              	@ 548 "ChibiOS_16.1.4/os/ext/CMSIS/include/core_cmFunc.h" 1
 959 0124 83F31188 		MSR basepri, r3
 960              	@ 0 "" 2
 961              		.thumb
 962 0128 F8BD     		pop	{r3, r4, r5, r6, r7, pc}
 963              	.LVL83:
 964              	.L111:
 965              	.LBE298:
 966              	.LBE297:
 967              	.LBE296:
 968              	.LBE295:
 969              	.LBE294:
ARM GAS  /var/folders/m4/4md61f0s1_g0rzfghffqnxvr0000gn/T//cc76Lf62.s 			page 18


 970              	.LBE293:
 971              		.loc 1 778 0
 972 012a 7DB1     		cbz	r5, .L83
 973              		.loc 1 780 0
 974 012c 0123     		movs	r3, #1
 975 012e 84F83430 		strb	r3, [r4, #52]
 976              	.LVL84:
 977              	.LBB299:
 978              	.LBB300:
 979              	.LBB301:
 980              	.LBB302:
 981              	.LBB303:
 982              	.LBB304:
 983              		.loc 2 548 0
 984 0132 2023     		movs	r3, #32
 985              	@ 548 "ChibiOS_16.1.4/os/ext/CMSIS/include/core_cmFunc.h" 1
 986 0134 83F31188 		MSR basepri, r3
 987              	@ 0 "" 2
 988              		.thumb
 989              	.LBE304:
 990              	.LBE303:
 991              	.LBE302:
 992              	.LBE301:
 993              	.LBE300:
 994              	.LBE299:
 995              		.loc 1 782 0
 996 0138 0021     		movs	r1, #0
 997 013a E36B     		ldr	r3, [r4, #60]
 998 013c A26B     		ldr	r2, [r4, #56]
 999              	.LVL85:
 1000 013e 2046     		mov	r0, r4
 1001 0140 FFF7FEFF 		bl	usbStartTransmitI
 1002              	.LVL86:
 1003              	.LBB305:
 1004              	.LBB306:
 1005              	.LBB307:
 1006              	.LBB308:
 1007              	.LBB309:
 1008              	.LBB310:
 1009              		.loc 2 548 0
 1010 0144 0023     		movs	r3, #0
 1011              	@ 548 "ChibiOS_16.1.4/os/ext/CMSIS/include/core_cmFunc.h" 1
 1012 0146 83F31188 		MSR basepri, r3
 1013              	@ 0 "" 2
 1014              		.thumb
 1015 014a F8BD     		pop	{r3, r4, r5, r6, r7, pc}
 1016              	.LVL87:
 1017              	.L83:
 1018              	.LBE310:
 1019              	.LBE309:
 1020              	.LBE308:
 1021              	.LBE307:
 1022              	.LBE306:
 1023              	.LBE305:
 1024              		.loc 1 788 0
 1025 014c 0323     		movs	r3, #3
 1026 014e 84F83430 		strb	r3, [r4, #52]
ARM GAS  /var/folders/m4/4md61f0s1_g0rzfghffqnxvr0000gn/T//cc76Lf62.s 			page 19


 1027              	.LVL88:
 1028              	.LBB311:
 1029              	.LBB312:
 1030              	.LBB313:
 1031              	.LBB314:
 1032              	.LBB315:
 1033              	.LBB316:
 1034              		.loc 2 548 0
 1035 0152 2023     		movs	r3, #32
 1036              	@ 548 "ChibiOS_16.1.4/os/ext/CMSIS/include/core_cmFunc.h" 1
 1037 0154 83F31188 		MSR basepri, r3
 1038              	@ 0 "" 2
 1039              		.thumb
 1040              	.LBE316:
 1041              	.LBE315:
 1042              	.LBE314:
 1043              	.LBE313:
 1044              	.LBE312:
 1045              	.LBE311:
 1046              		.loc 1 791 0
 1047 0158 2046     		mov	r0, r4
 1048 015a 2946     		mov	r1, r5
 1049 015c 2A46     		mov	r2, r5
 1050              	.LVL89:
 1051 015e 2B46     		mov	r3, r5
 1052 0160 FFF7FEFF 		bl	usbStartReceiveI
 1053              	.LVL90:
 1054              	.LBB317:
 1055              	.LBB318:
 1056              	.LBB319:
 1057              	.LBB320:
 1058              	.LBB321:
 1059              	.LBB322:
 1060              		.loc 2 548 0
 1061              	@ 548 "ChibiOS_16.1.4/os/ext/CMSIS/include/core_cmFunc.h" 1
 1062 0164 85F31188 		MSR basepri, r5
 1063              	@ 0 "" 2
 1064              		.thumb
 1065 0168 F8BD     		pop	{r3, r4, r5, r6, r7, pc}
 1066              	.LVL91:
 1067              	.L115:
 1068              	.LBE322:
 1069              	.LBE321:
 1070              	.LBE320:
 1071              	.LBE319:
 1072              	.LBE318:
 1073              	.LBE317:
 1074              	.LBB323:
 1075              	.LBB286:
 1076              		.loc 1 88 0
 1077 016a 40F20232 		movw	r2, #770
 1078 016e 9642     		cmp	r6, r2
 1079 0170 21D0     		beq	.L58
 1080 0172 B6F5A06F 		cmp	r6, #1280
 1081 0176 7FF477AF 		bne	.L43
 1082              		.loc 1 118 0
 1083 017a B4F84420 		ldrh	r2, [r4, #68]
ARM GAS  /var/folders/m4/4md61f0s1_g0rzfghffqnxvr0000gn/T//cc76Lf62.s 			page 20


 1084 017e B2F5A06F 		cmp	r2, #1280
 1085 0182 00F09D80 		beq	.L118
 1086              	.L77:
 1087              		.loc 1 229 0
 1088 0186 0025     		movs	r5, #0
 1089 0188 A563     		str	r5, [r4, #56]
 1090 018a E563     		str	r5, [r4, #60]
 1091 018c 2564     		str	r5, [r4, #64]
 1092 018e 49E7     		b	.L85
 1093              	.L60:
 1094              		.loc 1 145 0
 1095 0190 94F84620 		ldrb	r2, [r4, #70]	@ zero_extendqisi2
 1096 0194 84F84F20 		strb	r2, [r4, #79]
 1097              		.loc 1 146 0
 1098 0198 002A     		cmp	r2, #0
 1099 019a 40F08280 		bne	.L67
 1100              		.loc 1 147 0
 1101 019e 0322     		movs	r2, #3
 1102 01a0 2270     		strb	r2, [r4]
 1103              	.L68:
 1104              		.loc 1 152 0
 1105 01a2 6268     		ldr	r2, [r4, #4]
 1106 01a4 1268     		ldr	r2, [r2]
 1107 01a6 002A     		cmp	r2, #0
 1108 01a8 EDD0     		beq	.L77
 1109 01aa 2046     		mov	r0, r4
 1110 01ac 0221     		movs	r1, #2
 1111 01ae 9047     		blx	r2
 1112              	.LVL92:
 1113 01b0 94F84430 		ldrb	r3, [r4, #68]	@ zero_extendqisi2
 1114 01b4 E7E7     		b	.L77
 1115              	.L58:
 1116              		.loc 1 217 0
 1117 01b6 94F84620 		ldrb	r2, [r4, #70]	@ zero_extendqisi2
 1118 01ba 002A     		cmp	r2, #0
 1119 01bc 7FF454AF 		bne	.L43
 1120              		.loc 1 221 0
 1121 01c0 94F84820 		ldrb	r2, [r4, #72]	@ zero_extendqisi2
 1122 01c4 12F00F01 		ands	r1, r2, #15
 1123 01c8 DDD0     		beq	.L77
 1124              		.loc 1 222 0
 1125 01ca 1206     		lsls	r2, r2, #24
 1126              		.loc 1 223 0
 1127 01cc 2046     		mov	r0, r4
 1128              		.loc 1 222 0
 1129 01ce 00F18E80 		bmi	.L119
 1130              	.LVL93:
 1131              		.loc 1 226 0
 1132 01d2 FFF7FEFF 		bl	usb_lld_stall_out
 1133              	.LVL94:
 1134 01d6 94F84430 		ldrb	r3, [r4, #68]	@ zero_extendqisi2
 1135 01da D4E7     		b	.L77
 1136              	.L54:
 1137              		.loc 1 98 0
 1138 01dc 94F84620 		ldrb	r2, [r4, #70]	@ zero_extendqisi2
 1139 01e0 012A     		cmp	r2, #1
 1140 01e2 7FF441AF 		bne	.L43
ARM GAS  /var/folders/m4/4md61f0s1_g0rzfghffqnxvr0000gn/T//cc76Lf62.s 			page 21


 1141              		.loc 1 99 0
 1142 01e6 B4F84C20 		ldrh	r2, [r4, #76]
 1143              		.loc 1 100 0
 1144 01ea A763     		str	r7, [r4, #56]
 1145              		.loc 1 99 0
 1146 01ec 22F00202 		bic	r2, r2, #2
 1147              		.loc 1 100 0
 1148 01f0 E763     		str	r7, [r4, #60]
 1149 01f2 2764     		str	r7, [r4, #64]
 1150 01f4 3D46     		mov	r5, r7
 1151              		.loc 1 99 0
 1152 01f6 A4F84C20 		strh	r2, [r4, #76]	@ movhi
 1153 01fa 13E7     		b	.L85
 1154              	.L116:
 1155              		.loc 1 88 0
 1156 01fc 002E     		cmp	r6, #0
 1157 01fe 46D1     		bne	.L120
 1158              		.loc 1 93 0
 1159 0200 04F14C02 		add	r2, r4, #76
 1160 0204 0225     		movs	r5, #2
 1161 0206 2664     		str	r6, [r4, #64]
 1162 0208 A263     		str	r2, [r4, #56]
 1163 020a E563     		str	r5, [r4, #60]
 1164 020c 0AE7     		b	.L85
 1165              	.L50:
 1166              		.loc 1 165 0
 1167 020e 94F84810 		ldrb	r1, [r4, #72]	@ zero_extendqisi2
 1168 0212 11F0800F 		tst	r1, #128
 1169              		.loc 1 166 0
 1170 0216 2046     		mov	r0, r4
 1171 0218 01F00F01 		and	r1, r1, #15
 1172              		.loc 1 165 0
 1173 021c 44D1     		bne	.L121
 1174              	.LVL95:
 1175              		.loc 1 183 0
 1176 021e FFF7FEFF 		bl	usb_lld_get_status_out
 1177              	.LVL96:
 1178 0222 0128     		cmp	r0, #1
 1179 0224 44D0     		beq	.L73
 1180              	.L109:
 1181 0226 0228     		cmp	r0, #2
 1182 0228 7FF41EAF 		bne	.L43
 1183              		.loc 1 191 0
 1184 022c 324B     		ldr	r3, .L122
 1185 022e A363     		str	r3, [r4, #56]
 1186 0230 E063     		str	r0, [r4, #60]
 1187 0232 2764     		str	r7, [r4, #64]
 1188 0234 0546     		mov	r5, r0
 1189 0236 94F84430 		ldrb	r3, [r4, #68]	@ zero_extendqisi2
 1190 023a F3E6     		b	.L85
 1191              	.L56:
 1192              	.LVL97:
 1193              		.loc 1 129 0
 1194 023c 6268     		ldr	r2, [r4, #4]
 1195              	.LBB282:
 1196              	.LBB283:
 1197              		.loc 1 55 0
ARM GAS  /var/folders/m4/4md61f0s1_g0rzfghffqnxvr0000gn/T//cc76Lf62.s 			page 22


 1198 023e 94F84900 		ldrb	r0, [r4, #73]	@ zero_extendqisi2
 1199 0242 94F84830 		ldrb	r3, [r4, #72]	@ zero_extendqisi2
 1200              	.LBE283:
 1201              	.LBE282:
 1202              		.loc 1 129 0
 1203 0246 5568     		ldr	r5, [r2, #4]
 1204 0248 94F84710 		ldrb	r1, [r4, #71]	@ zero_extendqisi2
 1205 024c 94F84620 		ldrb	r2, [r4, #70]	@ zero_extendqisi2
 1206 0250 43EA0023 		orr	r3, r3, r0, lsl #8
 1207 0254 2046     		mov	r0, r4
 1208 0256 A847     		blx	r5
 1209              	.LVL98:
 1210              		.loc 1 132 0
 1211 0258 0028     		cmp	r0, #0
 1212 025a 3FF405AF 		beq	.L43
 1213              		.loc 1 136 0
 1214 025e 4368     		ldr	r3, [r0, #4]
 1215 0260 0568     		ldr	r5, [r0]
 1216 0262 E563     		str	r5, [r4, #60]
 1217 0264 A363     		str	r3, [r4, #56]
 1218 0266 2764     		str	r7, [r4, #64]
 1219 0268 94F84430 		ldrb	r3, [r4, #68]	@ zero_extendqisi2
 1220 026c DAE6     		b	.L85
 1221              	.LVL99:
 1222              	.L48:
 1223              		.loc 1 107 0
 1224 026e 94F84620 		ldrb	r2, [r4, #70]	@ zero_extendqisi2
 1225 0272 012A     		cmp	r2, #1
 1226 0274 7FF4F8AE 		bne	.L43
 1227              		.loc 1 108 0
 1228 0278 B4F84C20 		ldrh	r2, [r4, #76]
 1229              		.loc 1 109 0
 1230 027c A763     		str	r7, [r4, #56]
 1231              		.loc 1 108 0
 1232 027e 42F00202 		orr	r2, r2, #2
 1233              		.loc 1 109 0
 1234 0282 E763     		str	r7, [r4, #60]
 1235 0284 2764     		str	r7, [r4, #64]
 1236 0286 3D46     		mov	r5, r7
 1237              		.loc 1 108 0
 1238 0288 A4F84C20 		strh	r2, [r4, #76]	@ movhi
 1239 028c CAE6     		b	.L85
 1240              	.L120:
 1241              		.loc 1 88 0
 1242 028e 012E     		cmp	r6, #1
 1243 0290 7FF4EAAE 		bne	.L43
 1244              	.L53:
 1245              		.loc 1 160 0
 1246 0294 194A     		ldr	r2, .L122+4
 1247 0296 A263     		str	r2, [r4, #56]
 1248 0298 0225     		movs	r5, #2
 1249 029a 0022     		movs	r2, #0
 1250 029c E563     		str	r5, [r4, #60]
 1251 029e 2264     		str	r2, [r4, #64]
 1252 02a0 C0E6     		b	.L85
 1253              	.L67:
 1254              		.loc 1 150 0
ARM GAS  /var/folders/m4/4md61f0s1_g0rzfghffqnxvr0000gn/T//cc76Lf62.s 			page 23


 1255 02a2 0422     		movs	r2, #4
 1256 02a4 2270     		strb	r2, [r4]
 1257 02a6 7CE7     		b	.L68
 1258              	.LVL100:
 1259              	.L121:
 1260              		.loc 1 166 0
 1261 02a8 FFF7FEFF 		bl	usb_lld_get_status_in
 1262              	.LVL101:
 1263 02ac 0128     		cmp	r0, #1
 1264 02ae BAD1     		bne	.L109
 1265              	.L73:
 1266              		.loc 1 186 0
 1267 02b0 134B     		ldr	r3, .L122+8
 1268 02b2 A363     		str	r3, [r4, #56]
 1269 02b4 E663     		str	r6, [r4, #60]
 1270 02b6 2764     		str	r7, [r4, #64]
 1271 02b8 3546     		mov	r5, r6
 1272 02ba 94F84430 		ldrb	r3, [r4, #68]	@ zero_extendqisi2
 1273 02be B1E6     		b	.L85
 1274              	.L118:
 1275              	.LVL102:
 1276              	.LBB284:
 1277              	.LBB285:
 1278              		.loc 1 66 0
 1279 02c0 94F84630 		ldrb	r3, [r4, #70]	@ zero_extendqisi2
 1280 02c4 84F84E30 		strb	r3, [r4, #78]
 1281              		.loc 1 67 0
 1282 02c8 2046     		mov	r0, r4
 1283 02ca FFF7FEFF 		bl	usb_lld_set_address
 1284              	.LVL103:
 1285              		.loc 1 68 0
 1286 02ce 6368     		ldr	r3, [r4, #4]
 1287 02d0 1B68     		ldr	r3, [r3]
 1288 02d2 13B1     		cbz	r3, .L66
 1289 02d4 2046     		mov	r0, r4
 1290 02d6 0121     		movs	r1, #1
 1291 02d8 9847     		blx	r3
 1292              	.LVL104:
 1293              	.L66:
 1294              		.loc 1 69 0
 1295 02da 0322     		movs	r2, #3
 1296 02dc 94F84430 		ldrb	r3, [r4, #68]	@ zero_extendqisi2
 1297 02e0 2270     		strb	r2, [r4]
 1298 02e2 50E7     		b	.L77
 1299              	.LVL105:
 1300              	.L117:
 1301              	.LBE285:
 1302              	.LBE284:
 1303              		.loc 1 207 0
 1304 02e4 FFF7FEFF 		bl	usb_lld_clear_in
 1305              	.LVL106:
 1306 02e8 94F84430 		ldrb	r3, [r4, #68]	@ zero_extendqisi2
 1307 02ec 4BE7     		b	.L77
 1308              	.LVL107:
 1309              	.L119:
 1310              		.loc 1 223 0
 1311 02ee FFF7FEFF 		bl	usb_lld_stall_in
ARM GAS  /var/folders/m4/4md61f0s1_g0rzfghffqnxvr0000gn/T//cc76Lf62.s 			page 24


 1312              	.LVL108:
 1313 02f2 94F84430 		ldrb	r3, [r4, #68]	@ zero_extendqisi2
 1314 02f6 46E7     		b	.L77
 1315              	.L123:
 1316              		.align	2
 1317              	.L122:
 1318 02f8 00000000 		.word	.LANCHOR2
 1319 02fc 00000000 		.word	.LANCHOR0
 1320 0300 00000000 		.word	.LANCHOR1
 1321              	.LBE286:
 1322              	.LBE323:
 1323              		.cfi_endproc
 1324              	.LFE284:
 1325              		.size	_usb_ep0setup, .-_usb_ep0setup
 1326              		.section	.text._usb_ep0in,"ax",%progbits
 1327              		.align	2
 1328              		.p2align 4,,15
 1329              		.global	_usb_ep0in
 1330              		.thumb
 1331              		.thumb_func
 1332              		.type	_usb_ep0in, %function
 1333              	_usb_ep0in:
 1334              	.LFB285:
 1335              		.loc 1 832 0
 1336              		.cfi_startproc
 1337              		@ args = 0, pretend = 0, frame = 0
 1338              		@ frame_needed = 0, uses_anonymous_args = 0
 1339              	.LVL109:
 1340 0000 38B5     		push	{r3, r4, r5, lr}
 1341              		.cfi_def_cfa_offset 16
 1342              		.cfi_offset 3, -16
 1343              		.cfi_offset 4, -12
 1344              		.cfi_offset 5, -8
 1345              		.cfi_offset 14, -4
 1346              		.loc 1 836 0
 1347 0002 90F83430 		ldrb	r3, [r0, #52]	@ zero_extendqisi2
 1348              		.loc 1 832 0
 1349 0006 0446     		mov	r4, r0
 1350              		.loc 1 836 0
 1351 0008 062B     		cmp	r3, #6
 1352 000a 15D8     		bhi	.L124
 1353 000c DFE803F0 		tbb	[pc, r3]
 1354              	.L127:
 1355 0010 04       		.byte	(.L126-.L127)/2
 1356 0011 15       		.byte	(.L128-.L127)/2
 1357 0012 25       		.byte	(.L129-.L127)/2
 1358 0013 04       		.byte	(.L126-.L127)/2
 1359 0014 04       		.byte	(.L126-.L127)/2
 1360 0015 35       		.byte	(.L130-.L127)/2
 1361 0016 04       		.byte	(.L126-.L127)/2
 1362 0017 00       		.p2align 1
 1363              	.L126:
 1364              		.loc 1 879 0
 1365 0018 0021     		movs	r1, #0
 1366              	.LVL110:
 1367 001a FFF7FEFF 		bl	usb_lld_stall_in
 1368              	.LVL111:
ARM GAS  /var/folders/m4/4md61f0s1_g0rzfghffqnxvr0000gn/T//cc76Lf62.s 			page 25


 1369              		.loc 1 880 0
 1370 001e 2046     		mov	r0, r4
 1371 0020 0021     		movs	r1, #0
 1372 0022 FFF7FEFF 		bl	usb_lld_stall_out
 1373              	.LVL112:
 1374              		.loc 1 881 0
 1375 0026 6368     		ldr	r3, [r4, #4]
 1376 0028 1B68     		ldr	r3, [r3]
 1377 002a 13B1     		cbz	r3, .L132
 1378              		.loc 1 881 0 is_stmt 0 discriminator 1
 1379 002c 2046     		mov	r0, r4
 1380 002e 0521     		movs	r1, #5
 1381 0030 9847     		blx	r3
 1382              	.LVL113:
 1383              	.L132:
 1384              		.loc 1 882 0 is_stmt 1
 1385 0032 0623     		movs	r3, #6
 1386 0034 84F83430 		strb	r3, [r4, #52]
 1387              	.L124:
 1388 0038 38BD     		pop	{r3, r4, r5, pc}
 1389              	.LVL114:
 1390              	.L128:
 1391              	.LBB324:
 1392              	.LBB325:
 1393              		.loc 1 55 0
 1394 003a 90F84B10 		ldrb	r1, [r0, #75]	@ zero_extendqisi2
 1395              	.LVL115:
 1396 003e 90F84A30 		ldrb	r3, [r0, #74]	@ zero_extendqisi2
 1397              	.LBE325:
 1398              	.LBE324:
 1399              		.loc 1 842 0
 1400 0042 C26B     		ldr	r2, [r0, #60]
 1401              		.loc 1 838 0
 1402 0044 43EA0123 		orr	r3, r3, r1, lsl #8
 1403              		.loc 1 842 0
 1404 0048 9342     		cmp	r3, r2
 1405 004a 06D9     		bls	.L129
 1406              		.loc 1 843 0 discriminator 1
 1407 004c C368     		ldr	r3, [r0, #12]
 1408 004e 1D8A     		ldrh	r5, [r3, #16]
 1409 0050 B2FBF5F3 		udiv	r3, r2, r5
 1410 0054 05FB1325 		mls	r5, r5, r3, r2
 1411              		.loc 1 842 0 discriminator 1
 1412 0058 B5B1     		cbz	r5, .L140
 1413              	.LVL116:
 1414              	.L129:
 1415              		.loc 1 853 0
 1416 005a 0323     		movs	r3, #3
 1417 005c 84F83430 		strb	r3, [r4, #52]
 1418              	.LVL117:
 1419              	.LBB326:
 1420              	.LBB327:
 1421              	.LBB328:
 1422              	.LBB329:
 1423              	.LBB330:
 1424              	.LBB331:
 1425              		.loc 2 548 0
ARM GAS  /var/folders/m4/4md61f0s1_g0rzfghffqnxvr0000gn/T//cc76Lf62.s 			page 26


 1426 0060 2023     		movs	r3, #32
 1427              	@ 548 "ChibiOS_16.1.4/os/ext/CMSIS/include/core_cmFunc.h" 1
 1428 0062 83F31188 		MSR basepri, r3
 1429              	@ 0 "" 2
 1430              		.thumb
 1431              	.LBE331:
 1432              	.LBE330:
 1433              	.LBE329:
 1434              	.LBE328:
 1435              	.LBE327:
 1436              	.LBE326:
 1437              		.loc 1 856 0
 1438 0066 0021     		movs	r1, #0
 1439 0068 0B46     		mov	r3, r1
 1440 006a 2046     		mov	r0, r4
 1441              	.LVL118:
 1442 006c 0A46     		mov	r2, r1
 1443 006e FFF7FEFF 		bl	usbStartReceiveI
 1444              	.LVL119:
 1445              	.LBB332:
 1446              	.LBB333:
 1447              	.LBB334:
 1448              	.LBB335:
 1449              	.LBB336:
 1450              	.LBB337:
 1451              		.loc 2 548 0
 1452 0072 0023     		movs	r3, #0
 1453              	@ 548 "ChibiOS_16.1.4/os/ext/CMSIS/include/core_cmFunc.h" 1
 1454 0074 83F31188 		MSR basepri, r3
 1455              	@ 0 "" 2
 1456              		.thumb
 1457 0078 38BD     		pop	{r3, r4, r5, pc}
 1458              	.LVL120:
 1459              	.L130:
 1460              	.LBE337:
 1461              	.LBE336:
 1462              	.LBE335:
 1463              	.LBE334:
 1464              	.LBE333:
 1465              	.LBE332:
 1466              		.loc 1 864 0
 1467 007a 036C     		ldr	r3, [r0, #64]
 1468 007c 03B1     		cbz	r3, .L131
 1469              		.loc 1 865 0
 1470 007e 9847     		blx	r3
 1471              	.LVL121:
 1472              	.L131:
 1473              		.loc 1 867 0
 1474 0080 0023     		movs	r3, #0
 1475 0082 84F83430 		strb	r3, [r4, #52]
 1476              		.loc 1 868 0
 1477 0086 38BD     		pop	{r3, r4, r5, pc}
 1478              	.LVL122:
 1479              	.L140:
 1480              	.LBB338:
 1481              	.LBB339:
 1482              	.LBB340:
ARM GAS  /var/folders/m4/4md61f0s1_g0rzfghffqnxvr0000gn/T//cc76Lf62.s 			page 27


 1483              	.LBB341:
 1484              	.LBB342:
 1485              	.LBB343:
 1486              		.loc 2 548 0
 1487 0088 2023     		movs	r3, #32
 1488              	@ 548 "ChibiOS_16.1.4/os/ext/CMSIS/include/core_cmFunc.h" 1
 1489 008a 83F31188 		MSR basepri, r3
 1490              	@ 0 "" 2
 1491              		.thumb
 1492              	.LBE343:
 1493              	.LBE342:
 1494              	.LBE341:
 1495              	.LBE340:
 1496              	.LBE339:
 1497              	.LBE338:
 1498              		.loc 1 845 0
 1499 008e 2946     		mov	r1, r5
 1500              	.LVL123:
 1501 0090 2A46     		mov	r2, r5
 1502 0092 2B46     		mov	r3, r5
 1503 0094 FFF7FEFF 		bl	usbStartTransmitI
 1504              	.LVL124:
 1505              	.LBB344:
 1506              	.LBB345:
 1507              	.LBB346:
 1508              	.LBB347:
 1509              	.LBB348:
 1510              	.LBB349:
 1511              		.loc 2 548 0
 1512              	@ 548 "ChibiOS_16.1.4/os/ext/CMSIS/include/core_cmFunc.h" 1
 1513 0098 85F31188 		MSR basepri, r5
 1514              	@ 0 "" 2
 1515              		.thumb
 1516              	.LBE349:
 1517              	.LBE348:
 1518              	.LBE347:
 1519              	.LBE346:
 1520              	.LBE345:
 1521              	.LBE344:
 1522              		.loc 1 847 0
 1523 009c 0223     		movs	r3, #2
 1524 009e 84F83430 		strb	r3, [r4, #52]
 1525              		.loc 1 848 0
 1526 00a2 38BD     		pop	{r3, r4, r5, pc}
 1527              		.cfi_endproc
 1528              	.LFE285:
 1529              		.size	_usb_ep0in, .-_usb_ep0in
 1530              		.section	.text._usb_ep0out,"ax",%progbits
 1531              		.align	2
 1532              		.p2align 4,,15
 1533              		.global	_usb_ep0out
 1534              		.thumb
 1535              		.thumb_func
 1536              		.type	_usb_ep0out, %function
 1537              	_usb_ep0out:
 1538              	.LFB286:
 1539              		.loc 1 899 0
ARM GAS  /var/folders/m4/4md61f0s1_g0rzfghffqnxvr0000gn/T//cc76Lf62.s 			page 28


 1540              		.cfi_startproc
 1541              		@ args = 0, pretend = 0, frame = 0
 1542              		@ frame_needed = 0, uses_anonymous_args = 0
 1543              	.LVL125:
 1544              		.loc 1 902 0
 1545 0000 90F83420 		ldrb	r2, [r0, #52]	@ zero_extendqisi2
 1546 0004 062A     		cmp	r2, #6
 1547              		.loc 1 899 0
 1548 0006 38B5     		push	{r3, r4, r5, lr}
 1549              		.cfi_def_cfa_offset 16
 1550              		.cfi_offset 3, -16
 1551              		.cfi_offset 4, -12
 1552              		.cfi_offset 5, -8
 1553              		.cfi_offset 14, -4
 1554 0008 0AD8     		bhi	.L141
 1555 000a 0123     		movs	r3, #1
 1556 000c 9340     		lsls	r3, r3, r2
 1557 000e 13F0670F 		tst	r3, #103
 1558 0012 0446     		mov	r4, r0
 1559 0014 11D1     		bne	.L143
 1560 0016 13F00805 		ands	r5, r3, #8
 1561 001a 02D1     		bne	.L144
 1562 001c DB06     		lsls	r3, r3, #27
 1563 001e 1DD4     		bmi	.L157
 1564              	.L141:
 1565 0020 38BD     		pop	{r3, r4, r5, pc}
 1566              	.L144:
 1567              		.loc 1 918 0
 1568 0022 C368     		ldr	r3, [r0, #12]
 1569 0024 9B69     		ldr	r3, [r3, #24]
 1570 0026 5B68     		ldr	r3, [r3, #4]
 1571 0028 002B     		cmp	r3, #0
 1572 002a F9D1     		bne	.L141
 1573              		.loc 1 922 0
 1574 002c 036C     		ldr	r3, [r0, #64]
 1575 002e 03B1     		cbz	r3, .L145
 1576              		.loc 1 923 0
 1577 0030 9847     		blx	r3
 1578              	.LVL126:
 1579              	.L145:
 1580              		.loc 1 925 0
 1581 0032 0023     		movs	r3, #0
 1582 0034 84F83430 		strb	r3, [r4, #52]
 1583              		.loc 1 926 0
 1584 0038 38BD     		pop	{r3, r4, r5, pc}
 1585              	.LVL127:
 1586              	.L143:
 1587              		.loc 1 938 0
 1588 003a 0021     		movs	r1, #0
 1589              	.LVL128:
 1590 003c FFF7FEFF 		bl	usb_lld_stall_in
 1591              	.LVL129:
 1592              		.loc 1 939 0
 1593 0040 2046     		mov	r0, r4
 1594 0042 0021     		movs	r1, #0
 1595 0044 FFF7FEFF 		bl	usb_lld_stall_out
 1596              	.LVL130:
ARM GAS  /var/folders/m4/4md61f0s1_g0rzfghffqnxvr0000gn/T//cc76Lf62.s 			page 29


 1597              		.loc 1 940 0
 1598 0048 6368     		ldr	r3, [r4, #4]
 1599 004a 1B68     		ldr	r3, [r3]
 1600 004c 13B1     		cbz	r3, .L146
 1601              		.loc 1 940 0 is_stmt 0 discriminator 1
 1602 004e 2046     		mov	r0, r4
 1603 0050 0521     		movs	r1, #5
 1604 0052 9847     		blx	r3
 1605              	.LVL131:
 1606              	.L146:
 1607              		.loc 1 941 0 is_stmt 1
 1608 0054 0623     		movs	r3, #6
 1609 0056 84F83430 		strb	r3, [r4, #52]
 1610 005a 38BD     		pop	{r3, r4, r5, pc}
 1611              	.LVL132:
 1612              	.L157:
 1613              		.loc 1 905 0
 1614 005c 0523     		movs	r3, #5
 1615 005e 80F83430 		strb	r3, [r0, #52]
 1616              	.LVL133:
 1617              	.LBB350:
 1618              	.LBB351:
 1619              	.LBB352:
 1620              	.LBB353:
 1621              	.LBB354:
 1622              	.LBB355:
 1623              		.loc 2 548 0
 1624 0062 2023     		movs	r3, #32
 1625              	@ 548 "ChibiOS_16.1.4/os/ext/CMSIS/include/core_cmFunc.h" 1
 1626 0064 83F31188 		MSR basepri, r3
 1627              	@ 0 "" 2
 1628              		.thumb
 1629              	.LBE355:
 1630              	.LBE354:
 1631              	.LBE353:
 1632              	.LBE352:
 1633              	.LBE351:
 1634              	.LBE350:
 1635              		.loc 1 908 0
 1636 0068 2946     		mov	r1, r5
 1637              	.LVL134:
 1638 006a 2A46     		mov	r2, r5
 1639 006c 2B46     		mov	r3, r5
 1640 006e FFF7FEFF 		bl	usbStartTransmitI
 1641              	.LVL135:
 1642              	.LBB356:
 1643              	.LBB357:
 1644              	.LBB358:
 1645              	.LBB359:
 1646              	.LBB360:
 1647              	.LBB361:
 1648              		.loc 2 548 0
 1649              	@ 548 "ChibiOS_16.1.4/os/ext/CMSIS/include/core_cmFunc.h" 1
 1650 0072 85F31188 		MSR basepri, r5
 1651              	@ 0 "" 2
 1652              		.thumb
 1653 0076 38BD     		pop	{r3, r4, r5, pc}
ARM GAS  /var/folders/m4/4md61f0s1_g0rzfghffqnxvr0000gn/T//cc76Lf62.s 			page 30


 1654              	.LBE361:
 1655              	.LBE360:
 1656              	.LBE359:
 1657              	.LBE358:
 1658              	.LBE357:
 1659              	.LBE356:
 1660              		.cfi_endproc
 1661              	.LFE286:
 1662              		.size	_usb_ep0out, .-_usb_ep0out
 1663              		.section	.rodata.zero_status,"a",%progbits
 1664              		.align	2
 1665              		.set	.LANCHOR0,. + 0
 1666              		.type	zero_status, %object
 1667              		.size	zero_status, 2
 1668              	zero_status:
 1669 0000 0000     		.space	2
 1670              		.section	.rodata.active_status,"a",%progbits
 1671              		.align	2
 1672              		.set	.LANCHOR2,. + 0
 1673              		.type	active_status, %object
 1674              		.size	active_status, 2
 1675              	active_status:
 1676 0000 0000     		.space	2
 1677              		.section	.rodata.halted_status,"a",%progbits
 1678              		.align	2
 1679              		.set	.LANCHOR1,. + 0
 1680              		.type	halted_status, %object
 1681              		.size	halted_status, 2
 1682              	halted_status:
 1683 0000 01       		.byte	1
 1684 0001 00       		.byte	0
 1685              		.text
 1686              	.Letext0:
 1687              		.file 4 "/usr/local/Cellar/gcc-arm-none-eabi-49/20150609/lib/gcc/arm-none-eabi/4.9.3/include/stdde
 1688              		.file 5 "/usr/local/Cellar/gcc-arm-none-eabi-49/20150609/arm-none-eabi/include/machine/_default_ty
 1689              		.file 6 "/usr/local/Cellar/gcc-arm-none-eabi-49/20150609/arm-none-eabi/include/sys/_stdint.h"
 1690              		.file 7 "ChibiOS_16.1.4/os/rt/ports/ARMCMx/compilers/GCC/chtypes.h"
 1691              		.file 8 "ChibiOS_16.1.4/os/rt/include/chsystypes.h"
 1692              		.file 9 "ChibiOS_16.1.4/os/rt/include/chschd.h"
 1693              		.file 10 "ChibiOS_16.1.4/os/rt/ports/ARMCMx/chcore.h"
 1694              		.file 11 "ChibiOS_16.1.4/os/rt/ports/ARMCMx/chcore_v7m.h"
 1695              		.file 12 "ChibiOS_16.1.4/os/rt/include/chtm.h"
 1696              		.file 13 "ChibiOS_16.1.4/os/rt/include/chsem.h"
 1697              		.file 14 "ChibiOS_16.1.4/os/rt/include/chmtx.h"
 1698              		.file 15 "ChibiOS_16.1.4/os/hal/include/usb.h"
 1699              		.file 16 "ChibiOS_16.1.4/os/hal/ports/STM32/LLD/OTGv1/usb_lld.h"
 1700              		.file 17 "ChibiOS_16.1.4/os/hal/ports/STM32/LLD/OTGv1/stm32_otg.h"
 1701              		.file 18 "ChibiOS_16.1.4/os/rt/include/chsys.h"
 1702              		.file 19 "ChibiOS_16.1.4/os/ext/CMSIS/include/core_cm4.h"