ARM GAS  /var/folders/m4/4md61f0s1_g0rzfghffqnxvr0000gn/T//ccTJVolh.s 			page 1


   1              		.syntax unified
   2              		.cpu cortex-m4
   3              		.eabi_attribute 27, 1
   4              		.eabi_attribute 28, 1
   5              		.fpu fpv4-sp-d16
   6              		.eabi_attribute 20, 1
   7              		.eabi_attribute 21, 1
   8              		.eabi_attribute 23, 3
   9              		.eabi_attribute 24, 1
  10              		.eabi_attribute 25, 1
  11              		.eabi_attribute 26, 1
  12              		.eabi_attribute 30, 2
  13              		.eabi_attribute 34, 1
  14              		.eabi_attribute 18, 4
  15              		.thumb
  16              		.file	"ws2812b.c"
  17              		.text
  18              	.Ltext0:
  19              		.cfi_sections	.debug_frame
  20              		.section	.text.ws2812b_init,"ax",%progbits
  21              		.align	2
  22              		.p2align 4,,15
  23              		.global	ws2812b_init
  24              		.thumb
  25              		.thumb_func
  26              		.type	ws2812b_init, %function
  27              	ws2812b_init:
  28              	.LFB268:
  29              		.file 1 "ws2812b.c"
  30              		.loc 1 25 0
  31              		.cfi_startproc
  32              		@ args = 0, pretend = 0, frame = 96
  33              		@ frame_needed = 0, uses_anonymous_args = 0
  34              	.LVL0:
  35 0000 2DE9F04F 		push	{r4, r5, r6, r7, r8, r9, r10, fp, lr}
  36              		.cfi_def_cfa_offset 36
  37              		.cfi_offset 4, -36
  38              		.cfi_offset 5, -32
  39              		.cfi_offset 6, -28
  40              		.cfi_offset 7, -24
  41              		.cfi_offset 8, -20
  42              		.cfi_offset 9, -16
  43              		.cfi_offset 10, -12
  44              		.cfi_offset 11, -8
  45              		.cfi_offset 14, -4
  46 0004 2DED028B 		fstmfdd	sp!, {d8}
  47              		.cfi_def_cfa_offset 44
  48              		.cfi_offset 80, -44
  49              		.cfi_offset 81, -40
  50              		.loc 1 34 0
  51 0008 644B     		ldr	r3, .L14
  52 000a 654E     		ldr	r6, .L14+4
  53 000c DFF8B0C1 		ldr	ip, .L14+36
  54 0010 0022     		movs	r2, #0
  55 0012 1A60     		str	r2, [r3]
  56              	.LVL1:
  57 0014 5A60     		str	r2, [r3, #4]
ARM GAS  /var/folders/m4/4md61f0s1_g0rzfghffqnxvr0000gn/T//ccTJVolh.s 			page 2


  58              	.LVL2:
  59 0016 9A60     		str	r2, [r3, #8]
  60              	.LVL3:
  61 0018 DA60     		str	r2, [r3, #12]
  62              	.LVL4:
  63 001a 1A61     		str	r2, [r3, #16]
  64              	.LVL5:
  65 001c 9E46     		mov	lr, r3
  66              		.loc 1 25 0
  67 001e 99B0     		sub	sp, sp, #100
  68              		.cfi_def_cfa_offset 144
  69              		.loc 1 34 0
  70 0020 1546     		mov	r5, r2
  71 0022 1146     		mov	r1, r2
  72 0024 3746     		mov	r7, r6
  73 0026 3346     		mov	r3, r6
  74              	.LBB12:
  75              		.loc 1 44 0
  76 0028 2124     		movs	r4, #33
  77              		.loc 1 42 0
  78 002a 4220     		movs	r0, #66
  79              	.LVL6:
  80              	.L6:
  81              	.LBB13:
  82              	.LBB14:
  83              		.loc 1 179 0
  84 002c C1F30742 		ubfx	r2, r1, #16, #8
  85              		.loc 1 180 0
  86 0030 C1F30728 		ubfx	r8, r1, #8, #8
  87              		.loc 1 183 0
  88 0034 1CF80220 		ldrb	r2, [ip, r2]	@ zero_extendqisi2
  89              	.LVL7:
  90              		.loc 1 184 0
  91 0038 1CF80880 		ldrb	r8, [ip, r8]	@ zero_extendqisi2
  92              	.LVL8:
  93              		.loc 1 181 0
  94 003c C9B2     		uxtb	r1, r1
  95              	.LVL9:
  96              		.loc 1 187 0
  97 003e 1202     		lsls	r2, r2, #8
  98              	.LVL10:
  99              		.loc 1 185 0
 100 0040 1CF80110 		ldrb	r1, [ip, r1]	@ zero_extendqisi2
 101              	.LVL11:
 102              		.loc 1 187 0
 103 0044 42EA0842 		orr	r2, r2, r8, lsl #16
 104 0048 0A43     		orrs	r2, r2, r1
 105              	.LVL12:
 106 004a 03F13001 		add	r1, r3, #48
 107              	.LVL13:
 108              	.L4:
 109              	.LBE14:
 110              	.LBE13:
 111              		.loc 1 41 0
 112 004e 12F4000F 		tst	r2, #8388608
 113              		.loc 1 42 0
 114 0052 14BF     		ite	ne
ARM GAS  /var/folders/m4/4md61f0s1_g0rzfghffqnxvr0000gn/T//ccTJVolh.s 			page 3


 115 0054 1880     		strhne	r0, [r3]	@ movhi
 116              		.loc 1 44 0
 117 0056 1C80     		strheq	r4, [r3]	@ movhi
 118 0058 0233     		adds	r3, r3, #2
 119              		.loc 1 40 0
 120 005a 8B42     		cmp	r3, r1
 121              		.loc 1 46 0
 122 005c 4FEA4202 		lsl	r2, r2, #1
 123              	.LVL14:
 124              		.loc 1 40 0
 125 0060 F5D1     		bne	.L4
 126 0062 1835     		adds	r5, r5, #24
 127              	.LBE12:
 128              		.loc 1 37 0 discriminator 2
 129 0064 782D     		cmp	r5, #120
 130 0066 02D0     		beq	.L5
 131 0068 5EF8041F 		ldr	r1, [lr, #4]!
 132 006c DEE7     		b	.L6
 133              	.L5:
 134 006e 4D4B     		ldr	r3, .L14+8
 135              		.loc 1 53 0
 136 0070 0021     		movs	r1, #0
 137 0072 03F16402 		add	r2, r3, #100
 138              	.LVL15:
 139              	.L7:
 140              		.loc 1 53 0 is_stmt 0 discriminator 3
 141 0076 23F8021F 		strh	r1, [r3, #2]!	@ movhi
 142              		.loc 1 52 0 is_stmt 1 discriminator 3
 143 007a 9342     		cmp	r3, r2
 144 007c FBD1     		bne	.L7
 145 007e 4A4D     		ldr	r5, .L14+12
 146              	.LBB15:
 147              		.loc 1 58 0
 148 0080 9FED4A8A 		flds	s16, .L14+16
 149              	.LBE15:
 150              		.loc 1 52 0
 151 0084 0024     		movs	r4, #0
 152              	.L8:
 153              	.LVL16:
 154              	.LBB16:
 155              		.loc 1 58 0 discriminator 3
 156 0086 07EE904A 		fmsr	s15, r4	@ int
 157 008a B8EEE70A 		fsitos	s0, s15
 158 008e DFED480A 		flds	s1, .L14+20
 159 0092 80EE080A 		fdivs	s0, s0, s16
 160 0096 FFF7FEFF 		bl	powf
 161              	.LVL17:
 162              		.loc 1 57 0 discriminator 3
 163 009a 0134     		adds	r4, r4, #1
 164              	.LVL18:
 165              		.loc 1 58 0 discriminator 3
 166 009c 20EE080A 		fmuls	s0, s0, s16
 167 00a0 FFF7FEFF 		bl	roundf
 168              	.LVL19:
 169 00a4 FDEEC07A 		ftosizs	s15, s0
 170              		.loc 1 57 0 discriminator 3
 171 00a8 B4F5807F 		cmp	r4, #256
ARM GAS  /var/folders/m4/4md61f0s1_g0rzfghffqnxvr0000gn/T//ccTJVolh.s 			page 4


 172              		.loc 1 58 0 discriminator 3
 173 00ac 17EE903A 		fmrs	r3, s15	@ int
 174 00b0 05F8013F 		strb	r3, [r5, #1]!
 175              		.loc 1 57 0 discriminator 3
 176 00b4 E7D1     		bne	.L8
 177              	.LBE16:
 178              		.loc 1 61 0
 179 00b6 4FF48572 		mov	r2, #266
 180 00ba 2146     		mov	r1, r4
 181 00bc 3D48     		ldr	r0, .L14+24
 182              		.loc 1 70 0
 183 00be DFF804A1 		ldr	r10, .L14+40
 184              		.loc 1 61 0
 185 00c2 FFF7FEFF 		bl	_pal_lld_setgroupmode
 186              	.LVL20:
 187              		.loc 1 67 0
 188 00c6 0121     		movs	r1, #1
 189 00c8 4FF40010 		mov	r0, #2097152
 190 00cc FFF7FEFF 		bl	RCC_AHB1PeriphClockCmd
 191              	.LVL21:
 192              		.loc 1 69 0
 193 00d0 3948     		ldr	r0, .L14+28
 194 00d2 FFF7FEFF 		bl	DMA_DeInit
 195              	.LVL22:
 196              		.loc 1 76 0
 197 00d6 0025     		movs	r5, #0
 198              		.loc 1 77 0
 199 00d8 4FF4806C 		mov	ip, #1024
 200              		.loc 1 79 0
 201 00dc 4FF4005E 		mov	lr, #8192
 202              		.loc 1 81 0
 203 00e0 4FF40032 		mov	r2, #131072
 204              		.loc 1 83 0
 205 00e4 0323     		movs	r3, #3
 206              		.loc 1 73 0
 207 00e6 0B96     		str	r6, [sp, #44]
 208              		.loc 1 87 0
 209 00e8 09A9     		add	r1, sp, #36
 210              		.loc 1 78 0
 211 00ea 4FF40066 		mov	r6, #2048
 212              		.loc 1 87 0
 213 00ee 3248     		ldr	r0, .L14+28
 214              		.loc 1 77 0
 215 00f0 CDF83CC0 		str	ip, [sp, #60]
 216              		.loc 1 72 0
 217 00f4 4FF0806B 		mov	fp, #67108864
 218              		.loc 1 74 0
 219 00f8 4FF04009 		mov	r9, #64
 220              		.loc 1 75 0
 221 00fc 4FF0AA08 		mov	r8, #170
 222              	.LVL23:
 223              		.loc 1 79 0
 224 0100 CDF844E0 		str	lr, [sp, #68]
 225              		.loc 1 81 0
 226 0104 1392     		str	r2, [sp, #76]
 227              		.loc 1 83 0
 228 0106 1593     		str	r3, [sp, #84]
ARM GAS  /var/folders/m4/4md61f0s1_g0rzfghffqnxvr0000gn/T//ccTJVolh.s 			page 5


 229              		.loc 1 80 0
 230 0108 1294     		str	r4, [sp, #72]
 231              		.loc 1 70 0
 232 010a CDF828A0 		str	r10, [sp, #40]
 233              		.loc 1 72 0
 234 010e CDF824B0 		str	fp, [sp, #36]
 235              		.loc 1 74 0
 236 0112 CDF83090 		str	r9, [sp, #48]
 237              		.loc 1 75 0
 238 0116 CDF83480 		str	r8, [sp, #52]
 239              		.loc 1 76 0
 240 011a 0E95     		str	r5, [sp, #56]
 241              		.loc 1 82 0
 242 011c 1495     		str	r5, [sp, #80]
 243              		.loc 1 84 0
 244 011e 1695     		str	r5, [sp, #88]
 245              		.loc 1 85 0
 246 0120 1795     		str	r5, [sp, #92]
 247              		.loc 1 78 0
 248 0122 1096     		str	r6, [sp, #64]
 249              		.loc 1 87 0
 250 0124 FFF7FEFF 		bl	DMA_Init
 251              	.LVL24:
 252              		.loc 1 89 0
 253 0128 0420     		movs	r0, #4
 254 012a 0121     		movs	r1, #1
 255 012c FFF7FEFF 		bl	RCC_APB1PeriphClockCmd
 256              	.LVL25:
 257              		.loc 1 94 0
 258 0130 6823     		movs	r3, #104
 259              		.loc 1 98 0
 260 0132 01A9     		add	r1, sp, #4
 261 0134 2148     		ldr	r0, .L14+32
 262              		.loc 1 94 0
 263 0136 0293     		str	r3, [sp, #8]
 264              		.loc 1 102 0
 265 0138 0124     		movs	r4, #1
 266              	.LVL26:
 267              		.loc 1 92 0
 268 013a ADF80450 		strh	r5, [sp, #4]	@ movhi
 269              		.loc 1 93 0
 270 013e ADF80650 		strh	r5, [sp, #6]	@ movhi
 271              		.loc 1 95 0
 272 0142 ADF80C50 		strh	r5, [sp, #12]	@ movhi
 273              		.loc 1 96 0
 274 0146 8DF80E50 		strb	r5, [sp, #14]
 275              		.loc 1 98 0
 276 014a FFF7FEFF 		bl	TIM_TimeBaseInit
 277              	.LVL27:
 278              		.loc 1 101 0
 279 014e 6023     		movs	r3, #96
 280              		.loc 1 103 0
 281 0150 3A88     		ldrh	r2, [r7]
 282              		.loc 1 106 0
 283 0152 1A48     		ldr	r0, .L14+32
 284              		.loc 1 101 0
 285 0154 ADF81030 		strh	r3, [sp, #16]	@ movhi
ARM GAS  /var/folders/m4/4md61f0s1_g0rzfghffqnxvr0000gn/T//ccTJVolh.s 			page 6


 286              		.loc 1 106 0
 287 0158 04A9     		add	r1, sp, #16
 288              		.loc 1 103 0
 289 015a 0692     		str	r2, [sp, #24]
 290              		.loc 1 104 0
 291 015c ADF81C50 		strh	r5, [sp, #28]	@ movhi
 292              		.loc 1 102 0
 293 0160 ADF81240 		strh	r4, [sp, #18]	@ movhi
 294              		.loc 1 106 0
 295 0164 FFF7FEFF 		bl	TIM_OC3Init
 296              	.LVL28:
 297              		.loc 1 107 0
 298 0168 1448     		ldr	r0, .L14+32
 299 016a 0821     		movs	r1, #8
 300 016c FFF7FEFF 		bl	TIM_OC3PreloadConfig
 301              	.LVL29:
 302              		.loc 1 110 0
 303 0170 2146     		mov	r1, r4
 304 0172 1248     		ldr	r0, .L14+32
 305 0174 FFF7FEFF 		bl	TIM_Cmd
 306              	.LVL30:
 307              		.loc 1 112 0
 308 0178 2146     		mov	r1, r4
 309 017a 0F48     		ldr	r0, .L14+28
 310 017c FFF7FEFF 		bl	DMA_Cmd
 311              	.LVL31:
 312              		.loc 1 115 0
 313 0180 3146     		mov	r1, r6
 314 0182 2246     		mov	r2, r4
 315 0184 0D48     		ldr	r0, .L14+32
 316 0186 FFF7FEFF 		bl	TIM_DMACmd
 317              	.LVL32:
 318              		.loc 1 118 0
 319 018a 2146     		mov	r1, r4
 320 018c 0B48     		ldr	r0, .L14+32
 321 018e FFF7FEFF 		bl	TIM_CtrlPWMOutputs
 322              	.LVL33:
 323              		.loc 1 119 0
 324 0192 19B0     		add	sp, sp, #100
 325              		.cfi_def_cfa_offset 44
 326              		@ sp needed
 327 0194 BDEC028B 		fldmfdd	sp!, {d8}
 328              		.cfi_restore 80
 329              		.cfi_restore 81
 330              		.cfi_def_cfa_offset 36
 331 0198 BDE8F08F 		pop	{r4, r5, r6, r7, r8, r9, r10, fp, pc}
 332              	.L15:
 333              		.align	2
 334              	.L14:
 335 019c 00000000 		.word	.LANCHOR0
 336 01a0 00000000 		.word	.LANCHOR1
 337 01a4 EC000000 		.word	.LANCHOR1+236
 338 01a8 FFFFFFFF 		.word	.LANCHOR2-1
 339 01ac 00007F43 		.word	1132396544
 340 01b0 E4380E40 		.word	1074673892
 341 01b4 00040240 		.word	1073873920
 342 01b8 B8600240 		.word	1073897656
ARM GAS  /var/folders/m4/4md61f0s1_g0rzfghffqnxvr0000gn/T//ccTJVolh.s 			page 7


 343 01bc 00080040 		.word	1073743872
 344 01c0 00000000 		.word	.LANCHOR2
 345 01c4 3C080040 		.word	1073743932
 346              		.cfi_endproc
 347              	.LFE268:
 348              		.size	ws2812b_init, .-ws2812b_init
 349              		.section	.text.ws2812b_set_led_color,"ax",%progbits
 350              		.align	2
 351              		.p2align 4,,15
 352              		.global	ws2812b_set_led_color
 353              		.thumb
 354              		.thumb_func
 355              		.type	ws2812b_set_led_color, %function
 356              	ws2812b_set_led_color:
 357              	.LFB269:
 358              		.loc 1 121 0
 359              		.cfi_startproc
 360              		@ args = 0, pretend = 0, frame = 0
 361              		@ frame_needed = 0, uses_anonymous_args = 0
 362              		@ link register save eliminated.
 363              	.LVL34:
 364              		.loc 1 122 0
 365 0000 0328     		cmp	r0, #3
 366 0002 24DC     		bgt	.L25
 367              		.loc 1 121 0
 368 0004 30B4     		push	{r4, r5}
 369              		.cfi_def_cfa_offset 8
 370              		.cfi_offset 4, -8
 371              		.cfi_offset 5, -4
 372              	.LBB17:
 373              		.loc 1 123 0
 374 0006 124A     		ldr	r2, .L26
 375              	.LBB18:
 376              	.LBB19:
 377              		.loc 1 183 0
 378 0008 124C     		ldr	r4, .L26+4
 379              	.LBE19:
 380              	.LBE18:
 381              		.loc 1 123 0
 382 000a 42F82010 		str	r1, [r2, r0, lsl #2]
 383              	.LVL35:
 384              	.LBB22:
 385              	.LBB20:
 386              		.loc 1 179 0
 387 000e C1F30742 		ubfx	r2, r1, #16, #8
 388              		.loc 1 180 0
 389 0012 C1F30725 		ubfx	r5, r1, #8, #8
 390              		.loc 1 183 0
 391 0016 A25C     		ldrb	r2, [r4, r2]	@ zero_extendqisi2
 392              	.LVL36:
 393              		.loc 1 184 0
 394 0018 655D     		ldrb	r5, [r4, r5]	@ zero_extendqisi2
 395              	.LVL37:
 396 001a 0F4B     		ldr	r3, .L26+8
 397              		.loc 1 181 0
 398 001c C9B2     		uxtb	r1, r1
 399              	.LVL38:
ARM GAS  /var/folders/m4/4md61f0s1_g0rzfghffqnxvr0000gn/T//ccTJVolh.s 			page 8


 400              	.LBE20:
 401              	.LBE22:
 402              		.loc 1 130 0
 403 001e 00EB4000 		add	r0, r0, r0, lsl #1
 404              	.LVL39:
 405              	.LBB23:
 406              	.LBB21:
 407              		.loc 1 185 0
 408 0022 615C     		ldrb	r1, [r4, r1]	@ zero_extendqisi2
 409              	.LVL40:
 410 0024 0001     		lsls	r0, r0, #4
 411              		.loc 1 187 0
 412 0026 1202     		lsls	r2, r2, #8
 413              	.LVL41:
 414 0028 00F13004 		add	r4, r0, #48
 415              	.LVL42:
 416 002c 42EA0542 		orr	r2, r2, r5, lsl #16
 417 0030 0A43     		orrs	r2, r2, r1
 418              	.LVL43:
 419 0032 1919     		adds	r1, r3, r4
 420              	.LVL44:
 421 0034 0344     		add	r3, r3, r0
 422              	.LBE21:
 423              	.LBE23:
 424              		.loc 1 132 0
 425 0036 2124     		movs	r4, #33
 426              		.loc 1 130 0
 427 0038 4220     		movs	r0, #66
 428              	.LVL45:
 429              	.L20:
 430              		.loc 1 129 0
 431 003a 1502     		lsls	r5, r2, #8
 432              		.loc 1 130 0
 433 003c 4CBF     		ite	mi
 434 003e 1880     		strhmi	r0, [r3]	@ movhi
 435              		.loc 1 132 0
 436 0040 1C80     		strhpl	r4, [r3]	@ movhi
 437 0042 0233     		adds	r3, r3, #2
 438              		.loc 1 128 0
 439 0044 8B42     		cmp	r3, r1
 440              		.loc 1 134 0
 441 0046 4FEA4202 		lsl	r2, r2, #1
 442              	.LVL46:
 443              		.loc 1 128 0
 444 004a F6D1     		bne	.L20
 445              	.LBE17:
 446              		.loc 1 137 0
 447 004c 30BC     		pop	{r4, r5}
 448              		.cfi_restore 5
 449              		.cfi_restore 4
 450              		.cfi_def_cfa_offset 0
 451              	.LVL47:
 452              	.L25:
 453 004e 7047     		bx	lr
 454              	.L27:
 455              		.align	2
 456              	.L26:
ARM GAS  /var/folders/m4/4md61f0s1_g0rzfghffqnxvr0000gn/T//ccTJVolh.s 			page 9


 457 0050 00000000 		.word	.LANCHOR0
 458 0054 00000000 		.word	.LANCHOR2
 459 0058 00000000 		.word	.LANCHOR1
 460              		.cfi_endproc
 461              	.LFE269:
 462              		.size	ws2812b_set_led_color, .-ws2812b_set_led_color
 463              		.section	.text.ws2812b_get_led_color,"ax",%progbits
 464              		.align	2
 465              		.p2align 4,,15
 466              		.global	ws2812b_get_led_color
 467              		.thumb
 468              		.thumb_func
 469              		.type	ws2812b_get_led_color, %function
 470              	ws2812b_get_led_color:
 471              	.LFB270:
 472              		.loc 1 139 0
 473              		.cfi_startproc
 474              		@ args = 0, pretend = 0, frame = 0
 475              		@ frame_needed = 0, uses_anonymous_args = 0
 476              		@ link register save eliminated.
 477              	.LVL48:
 478              		.loc 1 140 0
 479 0000 0328     		cmp	r0, #3
 480              		.loc 1 141 0
 481 0002 DABF     		itte	le
 482 0004 024B     		ldrle	r3, .L31
 483 0006 53F82000 		ldrle	r0, [r3, r0, lsl #2]
 484              	.LVL49:
 485              		.loc 1 144 0
 486 000a 0020     		movgt	r0, #0
 487              		.loc 1 145 0
 488 000c 7047     		bx	lr
 489              	.L32:
 490 000e 00BF     		.align	2
 491              	.L31:
 492 0010 00000000 		.word	.LANCHOR0
 493              		.cfi_endproc
 494              	.LFE270:
 495              		.size	ws2812b_get_led_color, .-ws2812b_get_led_color
 496              		.section	.text.ws2812b_all_off,"ax",%progbits
 497              		.align	2
 498              		.p2align 4,,15
 499              		.global	ws2812b_all_off
 500              		.thumb
 501              		.thumb_func
 502              		.type	ws2812b_all_off, %function
 503              	ws2812b_all_off:
 504              	.LFB271:
 505              		.loc 1 147 0
 506              		.cfi_startproc
 507              		@ args = 0, pretend = 0, frame = 0
 508              		@ frame_needed = 0, uses_anonymous_args = 0
 509              		@ link register save eliminated.
 510              	.LVL50:
 511              		.loc 1 151 0
 512 0000 074A     		ldr	r2, .L36
 513 0002 084B     		ldr	r3, .L36+4
ARM GAS  /var/folders/m4/4md61f0s1_g0rzfghffqnxvr0000gn/T//ccTJVolh.s 			page 10


 514 0004 0021     		movs	r1, #0
 515 0006 1160     		str	r1, [r2]
 516              	.LVL51:
 517 0008 5160     		str	r1, [r2, #4]
 518              	.LVL52:
 519 000a 9160     		str	r1, [r2, #8]
 520              	.LVL53:
 521 000c D160     		str	r1, [r2, #12]
 522              	.LVL54:
 523 000e 03F1C001 		add	r1, r3, #192
 524              		.loc 1 155 0
 525 0012 2122     		movs	r2, #33
 526              	.LVL55:
 527              	.L34:
 528              		.loc 1 155 0 is_stmt 0 discriminator 3
 529 0014 23F8022F 		strh	r2, [r3, #2]!	@ movhi
 530              		.loc 1 154 0 is_stmt 1 discriminator 3
 531 0018 8B42     		cmp	r3, r1
 532 001a FBD1     		bne	.L34
 533              		.loc 1 157 0
 534 001c 7047     		bx	lr
 535              	.L37:
 536 001e 00BF     		.align	2
 537              	.L36:
 538 0020 00000000 		.word	.LANCHOR0
 539 0024 FEFFFFFF 		.word	.LANCHOR1-2
 540              		.cfi_endproc
 541              	.LFE271:
 542              		.size	ws2812b_all_off, .-ws2812b_all_off
 543              		.section	.text.ws2812b_set_all,"ax",%progbits
 544              		.align	2
 545              		.p2align 4,,15
 546              		.global	ws2812b_set_all
 547              		.thumb
 548              		.thumb_func
 549              		.type	ws2812b_set_all, %function
 550              	ws2812b_set_all:
 551              	.LFB272:
 552              		.loc 1 159 0
 553              		.cfi_startproc
 554              		@ args = 0, pretend = 0, frame = 0
 555              		@ frame_needed = 0, uses_anonymous_args = 0
 556              	.LVL56:
 557 0000 F0B5     		push	{r4, r5, r6, r7, lr}
 558              		.cfi_def_cfa_offset 20
 559              		.cfi_offset 4, -20
 560              		.cfi_offset 5, -16
 561              		.cfi_offset 6, -12
 562              		.cfi_offset 7, -8
 563              		.cfi_offset 14, -4
 564 0002 134A     		ldr	r2, .L46
 565 0004 134F     		ldr	r7, .L46+4
 566 0006 C0F30743 		ubfx	r3, r0, #16, #8
 567 000a C0F30725 		ubfx	r5, r0, #8, #8
 568 000e D15C     		ldrb	r1, [r2, r3]	@ zero_extendqisi2
 569 0010 12F805E0 		ldrb	lr, [r2, r5]	@ zero_extendqisi2
 570 0014 104B     		ldr	r3, .L46+8
ARM GAS  /var/folders/m4/4md61f0s1_g0rzfghffqnxvr0000gn/T//ccTJVolh.s 			page 11


 571 0016 C4B2     		uxtb	r4, r0
 572 0018 0902     		lsls	r1, r1, #8
 573 001a 125D     		ldrb	r2, [r2, r4]	@ zero_extendqisi2
 574 001c 41EA0E4E 		orr	lr, r1, lr, lsl #16
 575 0020 4EEA020E 		orr	lr, lr, r2
 576              		.loc 1 159 0
 577 0024 0026     		movs	r6, #0
 578              	.LBB24:
 579              		.loc 1 171 0
 580 0026 2125     		movs	r5, #33
 581              		.loc 1 169 0
 582 0028 4224     		movs	r4, #66
 583              	.LVL57:
 584              	.L42:
 585              		.loc 1 163 0
 586 002a 47F8040B 		str	r0, [r7], #4
 587              	.LVL58:
 588 002e 03F13001 		add	r1, r3, #48
 589              		.loc 1 165 0
 590 0032 7246     		mov	r2, lr
 591              	.LVL59:
 592              	.L41:
 593              		.loc 1 168 0
 594 0034 12F4000F 		tst	r2, #8388608
 595              		.loc 1 169 0
 596 0038 14BF     		ite	ne
 597 003a 1C80     		strhne	r4, [r3]	@ movhi
 598              		.loc 1 171 0
 599 003c 1D80     		strheq	r5, [r3]	@ movhi
 600 003e 0233     		adds	r3, r3, #2
 601              		.loc 1 167 0
 602 0040 8B42     		cmp	r3, r1
 603              		.loc 1 173 0
 604 0042 4FEA4202 		lsl	r2, r2, #1
 605              	.LVL60:
 606              		.loc 1 167 0
 607 0046 F5D1     		bne	.L41
 608 0048 1836     		adds	r6, r6, #24
 609              	.LBE24:
 610              		.loc 1 162 0 discriminator 2
 611 004a 602E     		cmp	r6, #96
 612 004c EDD1     		bne	.L42
 613              		.loc 1 176 0
 614 004e F0BD     		pop	{r4, r5, r6, r7, pc}
 615              	.L47:
 616              		.align	2
 617              	.L46:
 618 0050 00000000 		.word	.LANCHOR2
 619 0054 00000000 		.word	.LANCHOR0
 620 0058 00000000 		.word	.LANCHOR1
 621              		.cfi_endproc
 622              	.LFE272:
 623              		.size	ws2812b_set_all, .-ws2812b_set_all
 624              		.section	.bss.RGBdata,"aw",%nobits
 625              		.align	2
 626              		.set	.LANCHOR0,. + 0
 627              		.type	RGBdata, %object
ARM GAS  /var/folders/m4/4md61f0s1_g0rzfghffqnxvr0000gn/T//ccTJVolh.s 			page 12


 628              		.size	RGBdata, 20
 629              	RGBdata:
 630 0000 00000000 		.space	20
 630      00000000 
 630      00000000 
 630      00000000 
 630      00000000 
 631              		.section	.bss.bitbuffer,"aw",%nobits
 632              		.align	2
 633              		.set	.LANCHOR1,. + 0
 634              		.type	bitbuffer, %object
 635              		.size	bitbuffer, 340
 636              	bitbuffer:
 637 0000 00000000 		.space	340
 637      00000000 
 637      00000000 
 637      00000000 
 637      00000000 
 638              		.section	.bss.gamma_table,"aw",%nobits
 639              		.align	2
 640              		.set	.LANCHOR2,. + 0
 641              		.type	gamma_table, %object
 642              		.size	gamma_table, 256
 643              	gamma_table:
 644 0000 00000000 		.space	256
 644      00000000 
 644      00000000 
 644      00000000 
 644      00000000 
 645              		.text
 646              	.Letext0:
 647              		.file 2 "/usr/local/Cellar/gcc-arm-none-eabi-49/20150609/lib/gcc/arm-none-eabi/4.9.3/include/stdde
 648              		.file 3 "/usr/local/Cellar/gcc-arm-none-eabi-49/20150609/arm-none-eabi/include/machine/_default_ty
 649              		.file 4 "/usr/local/Cellar/gcc-arm-none-eabi-49/20150609/arm-none-eabi/include/sys/_stdint.h"
 650              		.file 5 "ChibiOS_16.1.4/os/rt/ports/ARMCMx/compilers/GCC/chtypes.h"
 651              		.file 6 "ChibiOS_16.1.4/os/rt/include/chsystypes.h"
 652              		.file 7 "ChibiOS_16.1.4/os/rt/include/chschd.h"
 653              		.file 8 "ChibiOS_16.1.4/os/ext/CMSIS/ST/STM32F4xx/stm32f446xx.h"
 654              		.file 9 "ChibiOS_16.1.4/os/ext/CMSIS/ST/STM32F4xx/stm32f4xx.h"
 655              		.file 10 "ChibiOS_16.1.4/os/rt/ports/ARMCMx/chcore.h"
 656              		.file 11 "ChibiOS_16.1.4/os/rt/ports/ARMCMx/chcore_v7m.h"
 657              		.file 12 "ChibiOS_16.1.4/os/rt/include/chtm.h"
 658              		.file 13 "ChibiOS_16.1.4/os/rt/include/chsem.h"
 659              		.file 14 "ChibiOS_16.1.4/os/rt/include/chmtx.h"
 660              		.file 15 "ChibiOS_16.1.4/os/hal/ports/STM32/LLD/GPIOv2/pal_lld.h"
 661              		.file 16 "ChibiOS_16.1.4/ext/stdperiph_stm32f4/inc/stm32f4xx_dma.h"
 662              		.file 17 "ChibiOS_16.1.4/ext/stdperiph_stm32f4/inc/stm32f4xx_tim.h"
 663              		.file 18 "/usr/local/Cellar/gcc-arm-none-eabi-49/20150609/arm-none-eabi/include/math.h"
 664              		.file 19 "ChibiOS_16.1.4/ext/stdperiph_stm32f4/inc/stm32f4xx_rcc.h"
 665              		.file 20 "ChibiOS_16.1.4/os/ext/CMSIS/include/core_cm4.h"
 666              		.section	.debug_info,"",%progbits
 667              	.Ldebug_info0:
 668 0000 22110000 		.4byte	0x1122
 669 0004 0400     		.2byte	0x4
 670 0006 00000000 		.4byte	.Ldebug_abbrev0
 671 000a 04       		.byte	0x4
 672 000b 01       		.uleb128 0x1
ARM GAS  /var/folders/m4/4md61f0s1_g0rzfghffqnxvr0000gn/T//ccTJVolh.s 			page 13


 673 000c 22050000 		.4byte	.LASF200
 674 0010 01       		.byte	0x1
 675 0011 7E040000 		.4byte	.LASF201
 676 0015 A2010000 		.4byte	.LASF202
 677 0019 38000000 		.4byte	.Ldebug_ranges0+0x38
 678 001d 00000000 		.4byte	0
 679 0021 00000000 		.4byte	.Ldebug_line0
 680 0025 02       		.uleb128 0x2
 681 0026 04       		.byte	0x4
 682 0027 04       		.byte	0x4
 683 0028 2D020000 		.4byte	.LASF0
 684 002c 03       		.uleb128 0x3
 685 002d 04       		.byte	0x4
 686 002e 05       		.byte	0x5
 687 002f 696E7400 		.ascii	"int\000"
 688 0033 04       		.uleb128 0x4
 689 0034 15030000 		.4byte	.LASF3
 690 0038 02       		.byte	0x2
 691 0039 D4       		.byte	0xd4
 692 003a 3E000000 		.4byte	0x3e
 693 003e 02       		.uleb128 0x2
 694 003f 04       		.byte	0x4
 695 0040 07       		.byte	0x7
 696 0041 B8000000 		.4byte	.LASF1
 697 0045 02       		.uleb128 0x2
 698 0046 01       		.byte	0x1
 699 0047 06       		.byte	0x6
 700 0048 A5090000 		.4byte	.LASF2
 701 004c 04       		.uleb128 0x4
 702 004d 1B080000 		.4byte	.LASF4
 703 0051 03       		.byte	0x3
 704 0052 1D       		.byte	0x1d
 705 0053 57000000 		.4byte	0x57
 706 0057 02       		.uleb128 0x2
 707 0058 01       		.byte	0x1
 708 0059 08       		.byte	0x8
 709 005a EB080000 		.4byte	.LASF5
 710 005e 02       		.uleb128 0x2
 711 005f 02       		.byte	0x2
 712 0060 05       		.byte	0x5
 713 0061 71070000 		.4byte	.LASF6
 714 0065 04       		.uleb128 0x4
 715 0066 A3020000 		.4byte	.LASF7
 716 006a 03       		.byte	0x3
 717 006b 2B       		.byte	0x2b
 718 006c 70000000 		.4byte	0x70
 719 0070 02       		.uleb128 0x2
 720 0071 02       		.byte	0x2
 721 0072 07       		.byte	0x7
 722 0073 B1090000 		.4byte	.LASF8
 723 0077 04       		.uleb128 0x4
 724 0078 F7000000 		.4byte	.LASF9
 725 007c 03       		.byte	0x3
 726 007d 3F       		.byte	0x3f
 727 007e 82000000 		.4byte	0x82
 728 0082 02       		.uleb128 0x2
 729 0083 04       		.byte	0x4
ARM GAS  /var/folders/m4/4md61f0s1_g0rzfghffqnxvr0000gn/T//ccTJVolh.s 			page 14


 730 0084 05       		.byte	0x5
 731 0085 00000000 		.4byte	.LASF10
 732 0089 04       		.uleb128 0x4
 733 008a F9080000 		.4byte	.LASF11
 734 008e 03       		.byte	0x3
 735 008f 41       		.byte	0x41
 736 0090 94000000 		.4byte	0x94
 737 0094 02       		.uleb128 0x2
 738 0095 04       		.byte	0x4
 739 0096 07       		.byte	0x7
 740 0097 84080000 		.4byte	.LASF12
 741 009b 02       		.uleb128 0x2
 742 009c 08       		.byte	0x8
 743 009d 05       		.byte	0x5
 744 009e 28040000 		.4byte	.LASF13
 745 00a2 04       		.uleb128 0x4
 746 00a3 49030000 		.4byte	.LASF14
 747 00a7 03       		.byte	0x3
 748 00a8 5B       		.byte	0x5b
 749 00a9 AD000000 		.4byte	0xad
 750 00ad 02       		.uleb128 0x2
 751 00ae 08       		.byte	0x8
 752 00af 07       		.byte	0x7
 753 00b0 8C020000 		.4byte	.LASF15
 754 00b4 04       		.uleb128 0x4
 755 00b5 56040000 		.4byte	.LASF16
 756 00b9 04       		.byte	0x4
 757 00ba 14       		.byte	0x14
 758 00bb 4C000000 		.4byte	0x4c
 759 00bf 04       		.uleb128 0x4
 760 00c0 1D070000 		.4byte	.LASF17
 761 00c4 04       		.byte	0x4
 762 00c5 1A       		.byte	0x1a
 763 00c6 65000000 		.4byte	0x65
 764 00ca 04       		.uleb128 0x4
 765 00cb A3080000 		.4byte	.LASF18
 766 00cf 04       		.byte	0x4
 767 00d0 1F       		.byte	0x1f
 768 00d1 77000000 		.4byte	0x77
 769 00d5 04       		.uleb128 0x4
 770 00d6 FF010000 		.4byte	.LASF19
 771 00da 04       		.byte	0x4
 772 00db 20       		.byte	0x20
 773 00dc 89000000 		.4byte	0x89
 774 00e0 04       		.uleb128 0x4
 775 00e1 F3070000 		.4byte	.LASF20
 776 00e5 04       		.byte	0x4
 777 00e6 26       		.byte	0x26
 778 00e7 A2000000 		.4byte	0xa2
 779 00eb 04       		.uleb128 0x4
 780 00ec 49070000 		.4byte	.LASF21
 781 00f0 05       		.byte	0x5
 782 00f1 39       		.byte	0x39
 783 00f2 D5000000 		.4byte	0xd5
 784 00f6 04       		.uleb128 0x4
 785 00f7 DF060000 		.4byte	.LASF22
 786 00fb 05       		.byte	0x5
ARM GAS  /var/folders/m4/4md61f0s1_g0rzfghffqnxvr0000gn/T//ccTJVolh.s 			page 15


 787 00fc 3C       		.byte	0x3c
 788 00fd B4000000 		.4byte	0xb4
 789 0101 04       		.uleb128 0x4
 790 0102 00040000 		.4byte	.LASF23
 791 0106 05       		.byte	0x5
 792 0107 3D       		.byte	0x3d
 793 0108 B4000000 		.4byte	0xb4
 794 010c 04       		.uleb128 0x4
 795 010d 6C080000 		.4byte	.LASF24
 796 0111 05       		.byte	0x5
 797 0112 3E       		.byte	0x3e
 798 0113 B4000000 		.4byte	0xb4
 799 0117 04       		.uleb128 0x4
 800 0118 AD060000 		.4byte	.LASF25
 801 011c 05       		.byte	0x5
 802 011d 3F       		.byte	0x3f
 803 011e B4000000 		.4byte	0xb4
 804 0122 04       		.uleb128 0x4
 805 0123 40020000 		.4byte	.LASF26
 806 0127 05       		.byte	0x5
 807 0128 40       		.byte	0x40
 808 0129 D5000000 		.4byte	0xd5
 809 012d 04       		.uleb128 0x4
 810 012e 02050000 		.4byte	.LASF27
 811 0132 05       		.byte	0x5
 812 0133 41       		.byte	0x41
 813 0134 CA000000 		.4byte	0xca
 814 0138 04       		.uleb128 0x4
 815 0139 F6040000 		.4byte	.LASF28
 816 013d 05       		.byte	0x5
 817 013e 43       		.byte	0x43
 818 013f D5000000 		.4byte	0xd5
 819 0143 04       		.uleb128 0x4
 820 0144 AE020000 		.4byte	.LASF29
 821 0148 05       		.byte	0x5
 822 0149 45       		.byte	0x45
 823 014a CA000000 		.4byte	0xca
 824 014e 04       		.uleb128 0x4
 825 014f 88000000 		.4byte	.LASF30
 826 0153 06       		.byte	0x6
 827 0154 33       		.byte	0x33
 828 0155 D5000000 		.4byte	0xd5
 829 0159 04       		.uleb128 0x4
 830 015a 0C030000 		.4byte	.LASF31
 831 015e 06       		.byte	0x6
 832 015f 3F       		.byte	0x3f
 833 0160 64010000 		.4byte	0x164
 834 0164 05       		.uleb128 0x5
 835 0165 8D040000 		.4byte	.LASF53
 836 0169 48       		.byte	0x48
 837 016a 07       		.byte	0x7
 838 016b C2       		.byte	0xc2
 839 016c 69020000 		.4byte	0x269
 840 0170 06       		.uleb128 0x6
 841 0171 EC070000 		.4byte	.LASF32
 842 0175 07       		.byte	0x7
 843 0176 C3       		.byte	0xc3
ARM GAS  /var/folders/m4/4md61f0s1_g0rzfghffqnxvr0000gn/T//ccTJVolh.s 			page 16


 844 0177 74020000 		.4byte	0x274
 845 017b 00       		.byte	0
 846 017c 06       		.uleb128 0x6
 847 017d 55080000 		.4byte	.LASF33
 848 0181 07       		.byte	0x7
 849 0182 C5       		.byte	0xc5
 850 0183 74020000 		.4byte	0x274
 851 0187 04       		.byte	0x4
 852 0188 06       		.uleb128 0x6
 853 0189 52000000 		.4byte	.LASF34
 854 018d 07       		.byte	0x7
 855 018e C7       		.byte	0xc7
 856 018f 22010000 		.4byte	0x122
 857 0193 08       		.byte	0x8
 858 0194 06       		.uleb128 0x6
 859 0195 FC070000 		.4byte	.LASF35
 860 0199 07       		.byte	0x7
 861 019a C8       		.byte	0xc8
 862 019b 61060000 		.4byte	0x661
 863 019f 0C       		.byte	0xc
 864 01a0 06       		.uleb128 0x6
 865 01a1 E1020000 		.4byte	.LASF36
 866 01a5 07       		.byte	0x7
 867 01a6 CA       		.byte	0xca
 868 01a7 74020000 		.4byte	0x274
 869 01ab 10       		.byte	0x10
 870 01ac 06       		.uleb128 0x6
 871 01ad 36040000 		.4byte	.LASF37
 872 01b1 07       		.byte	0x7
 873 01b2 CB       		.byte	0xcb
 874 01b3 74020000 		.4byte	0x274
 875 01b7 14       		.byte	0x14
 876 01b8 06       		.uleb128 0x6
 877 01b9 8C030000 		.4byte	.LASF38
 878 01bd 07       		.byte	0x7
 879 01be D2       		.byte	0xd2
 880 01bf AF080000 		.4byte	0x8af
 881 01c3 18       		.byte	0x18
 882 01c4 06       		.uleb128 0x6
 883 01c5 3E040000 		.4byte	.LASF39
 884 01c9 07       		.byte	0x7
 885 01ca DD       		.byte	0xdd
 886 01cb 01010000 		.4byte	0x101
 887 01cf 1C       		.byte	0x1c
 888 01d0 06       		.uleb128 0x6
 889 01d1 53060000 		.4byte	.LASF40
 890 01d5 07       		.byte	0x7
 891 01d6 E1       		.byte	0xe1
 892 01d7 F6000000 		.4byte	0xf6
 893 01db 1D       		.byte	0x1d
 894 01dc 06       		.uleb128 0x6
 895 01dd 26090000 		.4byte	.LASF41
 896 01e1 07       		.byte	0x7
 897 01e2 E6       		.byte	0xe6
 898 01e3 0C010000 		.4byte	0x10c
 899 01e7 1E       		.byte	0x1e
 900 01e8 06       		.uleb128 0x6
ARM GAS  /var/folders/m4/4md61f0s1_g0rzfghffqnxvr0000gn/T//ccTJVolh.s 			page 17


 901 01e9 42090000 		.4byte	.LASF42
 902 01ed 07       		.byte	0x7
 903 01ee EC       		.byte	0xec
 904 01ef 17010000 		.4byte	0x117
 905 01f3 1F       		.byte	0x1f
 906 01f4 06       		.uleb128 0x6
 907 01f5 38000000 		.4byte	.LASF43
 908 01f9 07       		.byte	0x7
 909 01fa F3       		.byte	0xf3
 910 01fb C1080000 		.4byte	0x8c1
 911 01ff 20       		.byte	0x20
 912 0200 07       		.uleb128 0x7
 913 0201 705F7500 		.ascii	"p_u\000"
 914 0205 07       		.byte	0x7
 915 0206 3101     		.2byte	0x131
 916 0208 EA070000 		.4byte	0x7ea
 917 020c 24       		.byte	0x24
 918 020d 08       		.uleb128 0x8
 919 020e ED000000 		.4byte	.LASF44
 920 0212 07       		.byte	0x7
 921 0213 3601     		.2byte	0x136
 922 0215 7A020000 		.4byte	0x27a
 923 0219 28       		.byte	0x28
 924 021a 08       		.uleb128 0x8
 925 021b AD000000 		.4byte	.LASF45
 926 021f 07       		.byte	0x7
 927 0220 3C01     		.2byte	0x13c
 928 0222 9E020000 		.4byte	0x29e
 929 0226 2C       		.byte	0x2c
 930 0227 08       		.uleb128 0x8
 931 0228 D9060000 		.4byte	.LASF46
 932 022c 07       		.byte	0x7
 933 022d 4001     		.2byte	0x140
 934 022f 2D010000 		.4byte	0x12d
 935 0233 34       		.byte	0x34
 936 0234 08       		.uleb128 0x8
 937 0235 95070000 		.4byte	.LASF47
 938 0239 07       		.byte	0x7
 939 023a 4601     		.2byte	0x146
 940 023c 38010000 		.4byte	0x138
 941 0240 38       		.byte	0x38
 942 0241 08       		.uleb128 0x8
 943 0242 74040000 		.4byte	.LASF48
 944 0246 07       		.byte	0x7
 945 0247 4D01     		.2byte	0x14d
 946 0249 A9080000 		.4byte	0x8a9
 947 024d 3C       		.byte	0x3c
 948 024e 08       		.uleb128 0x8
 949 024f 66070000 		.4byte	.LASF49
 950 0253 07       		.byte	0x7
 951 0254 5101     		.2byte	0x151
 952 0256 22010000 		.4byte	0x122
 953 025a 40       		.byte	0x40
 954 025b 08       		.uleb128 0x8
 955 025c 6C040000 		.4byte	.LASF50
 956 0260 07       		.byte	0x7
 957 0261 5801     		.2byte	0x158
ARM GAS  /var/folders/m4/4md61f0s1_g0rzfghffqnxvr0000gn/T//ccTJVolh.s 			page 18


 958 0263 51030000 		.4byte	0x351
 959 0267 44       		.byte	0x44
 960 0268 00       		.byte	0
 961 0269 04       		.uleb128 0x4
 962 026a 79020000 		.4byte	.LASF51
 963 026e 06       		.byte	0x6
 964 026f 44       		.byte	0x44
 965 0270 74020000 		.4byte	0x274
 966 0274 09       		.uleb128 0x9
 967 0275 04       		.byte	0x4
 968 0276 59010000 		.4byte	0x159
 969 027a 04       		.uleb128 0x4
 970 027b DE000000 		.4byte	.LASF52
 971 027f 06       		.byte	0x6
 972 0280 49       		.byte	0x49
 973 0281 85020000 		.4byte	0x285
 974 0285 05       		.uleb128 0x5
 975 0286 B4020000 		.4byte	.LASF54
 976 028a 04       		.byte	0x4
 977 028b 07       		.byte	0x7
 978 028c B0       		.byte	0xb0
 979 028d 9E020000 		.4byte	0x29e
 980 0291 06       		.uleb128 0x6
 981 0292 EC070000 		.4byte	.LASF32
 982 0296 07       		.byte	0x7
 983 0297 B1       		.byte	0xb1
 984 0298 74020000 		.4byte	0x274
 985 029c 00       		.byte	0
 986 029d 00       		.byte	0
 987 029e 04       		.uleb128 0x4
 988 029f 09000000 		.4byte	.LASF55
 989 02a3 06       		.byte	0x6
 990 02a4 50       		.byte	0x50
 991 02a5 A9020000 		.4byte	0x2a9
 992 02a9 05       		.uleb128 0x5
 993 02aa BA040000 		.4byte	.LASF56
 994 02ae 08       		.byte	0x8
 995 02af 07       		.byte	0x7
 996 02b0 B7       		.byte	0xb7
 997 02b1 CE020000 		.4byte	0x2ce
 998 02b5 06       		.uleb128 0x6
 999 02b6 EC070000 		.4byte	.LASF32
 1000 02ba 07       		.byte	0x7
 1001 02bb B8       		.byte	0xb8
 1002 02bc 74020000 		.4byte	0x274
 1003 02c0 00       		.byte	0
 1004 02c1 06       		.uleb128 0x6
 1005 02c2 55080000 		.4byte	.LASF33
 1006 02c6 07       		.byte	0x7
 1007 02c7 B9       		.byte	0xb9
 1008 02c8 74020000 		.4byte	0x274
 1009 02cc 04       		.byte	0x4
 1010 02cd 00       		.byte	0
 1011 02ce 04       		.uleb128 0x4
 1012 02cf 96080000 		.4byte	.LASF57
 1013 02d3 06       		.byte	0x6
 1014 02d4 57       		.byte	0x57
ARM GAS  /var/folders/m4/4md61f0s1_g0rzfghffqnxvr0000gn/T//ccTJVolh.s 			page 19


 1015 02d5 D9020000 		.4byte	0x2d9
 1016 02d9 0A       		.uleb128 0xa
 1017 02da 34010000 		.4byte	.LASF58
 1018 02de 1C       		.byte	0x1c
 1019 02df 07       		.byte	0x7
 1020 02e0 9001     		.2byte	0x190
 1021 02e2 35030000 		.4byte	0x335
 1022 02e6 08       		.uleb128 0x8
 1023 02e7 D8040000 		.4byte	.LASF59
 1024 02eb 07       		.byte	0x7
 1025 02ec 9101     		.2byte	0x191
 1026 02ee 9E020000 		.4byte	0x29e
 1027 02f2 00       		.byte	0
 1028 02f3 08       		.uleb128 0x8
 1029 02f4 1A020000 		.4byte	.LASF60
 1030 02f8 07       		.byte	0x7
 1031 02f9 9201     		.2byte	0x192
 1032 02fb 22010000 		.4byte	0x122
 1033 02ff 08       		.byte	0x8
 1034 0300 08       		.uleb128 0x8
 1035 0301 C4090000 		.4byte	.LASF61
 1036 0305 07       		.byte	0x7
 1037 0306 9401     		.2byte	0x194
 1038 0308 61060000 		.4byte	0x661
 1039 030c 0C       		.byte	0xc
 1040 030d 08       		.uleb128 0x8
 1041 030e E1030000 		.4byte	.LASF62
 1042 0312 07       		.byte	0x7
 1043 0313 9701     		.2byte	0x197
 1044 0315 74020000 		.4byte	0x274
 1045 0319 10       		.byte	0x10
 1046 031a 08       		.uleb128 0x8
 1047 031b B7060000 		.4byte	.LASF63
 1048 031f 07       		.byte	0x7
 1049 0320 9801     		.2byte	0x198
 1050 0322 74020000 		.4byte	0x274
 1051 0326 14       		.byte	0x14
 1052 0327 08       		.uleb128 0x8
 1053 0328 7B070000 		.4byte	.LASF64
 1054 032c 07       		.byte	0x7
 1055 032d 9B01     		.2byte	0x19b
 1056 032f 74020000 		.4byte	0x274
 1057 0333 18       		.byte	0x18
 1058 0334 00       		.byte	0
 1059 0335 04       		.uleb128 0x4
 1060 0336 99010000 		.4byte	.LASF65
 1061 033a 06       		.byte	0x6
 1062 033b 5C       		.byte	0x5c
 1063 033c 40030000 		.4byte	0x340
 1064 0340 09       		.uleb128 0x9
 1065 0341 04       		.byte	0x4
 1066 0342 46030000 		.4byte	0x346
 1067 0346 0B       		.uleb128 0xb
 1068 0347 51030000 		.4byte	0x351
 1069 034b 0C       		.uleb128 0xc
 1070 034c 51030000 		.4byte	0x351
 1071 0350 00       		.byte	0
ARM GAS  /var/folders/m4/4md61f0s1_g0rzfghffqnxvr0000gn/T//ccTJVolh.s 			page 20


 1072 0351 0D       		.uleb128 0xd
 1073 0352 04       		.byte	0x4
 1074 0353 04       		.uleb128 0x4
 1075 0354 5B060000 		.4byte	.LASF66
 1076 0358 06       		.byte	0x6
 1077 0359 61       		.byte	0x61
 1078 035a 5E030000 		.4byte	0x35e
 1079 035e 0A       		.uleb128 0xa
 1080 035f 5C020000 		.4byte	.LASF67
 1081 0363 14       		.byte	0x14
 1082 0364 07       		.byte	0x7
 1083 0365 6B01     		.2byte	0x16b
 1084 0367 AD030000 		.4byte	0x3ad
 1085 036b 08       		.uleb128 0x8
 1086 036c 53090000 		.4byte	.LASF68
 1087 0370 07       		.byte	0x7
 1088 0371 6C01     		.2byte	0x16c
 1089 0373 C6080000 		.4byte	0x8c6
 1090 0377 00       		.byte	0
 1091 0378 08       		.uleb128 0x8
 1092 0379 060A0000 		.4byte	.LASF69
 1093 037d 07       		.byte	0x7
 1094 037e 6D01     		.2byte	0x16d
 1095 0380 C6080000 		.4byte	0x8c6
 1096 0384 04       		.byte	0x4
 1097 0385 08       		.uleb128 0x8
 1098 0386 B9030000 		.4byte	.LASF70
 1099 038a 07       		.byte	0x7
 1100 038b 6E01     		.2byte	0x16e
 1101 038d 4E010000 		.4byte	0x14e
 1102 0391 08       		.byte	0x8
 1103 0392 08       		.uleb128 0x8
 1104 0393 E7090000 		.4byte	.LASF71
 1105 0397 07       		.byte	0x7
 1106 0398 6F01     		.2byte	0x16f
 1107 039a 35030000 		.4byte	0x335
 1108 039e 0C       		.byte	0xc
 1109 039f 08       		.uleb128 0x8
 1110 03a0 26020000 		.4byte	.LASF72
 1111 03a4 07       		.byte	0x7
 1112 03a5 7101     		.2byte	0x171
 1113 03a7 51030000 		.4byte	0x351
 1114 03ab 10       		.byte	0x10
 1115 03ac 00       		.byte	0
 1116 03ad 04       		.uleb128 0x4
 1117 03ae 10090000 		.4byte	.LASF73
 1118 03b2 06       		.byte	0x6
 1119 03b3 66       		.byte	0x66
 1120 03b4 B8030000 		.4byte	0x3b8
 1121 03b8 0A       		.uleb128 0xa
 1122 03b9 EF020000 		.4byte	.LASF74
 1123 03bd 10       		.byte	0x10
 1124 03be 07       		.byte	0x7
 1125 03bf 7B01     		.2byte	0x17b
 1126 03c1 FA030000 		.4byte	0x3fa
 1127 03c5 08       		.uleb128 0x8
 1128 03c6 53090000 		.4byte	.LASF68
ARM GAS  /var/folders/m4/4md61f0s1_g0rzfghffqnxvr0000gn/T//ccTJVolh.s 			page 21


 1129 03ca 07       		.byte	0x7
 1130 03cb 7C01     		.2byte	0x17c
 1131 03cd C6080000 		.4byte	0x8c6
 1132 03d1 00       		.byte	0
 1133 03d2 08       		.uleb128 0x8
 1134 03d3 060A0000 		.4byte	.LASF69
 1135 03d7 07       		.byte	0x7
 1136 03d8 7E01     		.2byte	0x17e
 1137 03da C6080000 		.4byte	0x8c6
 1138 03de 04       		.byte	0x4
 1139 03df 08       		.uleb128 0x8
 1140 03e0 B9030000 		.4byte	.LASF70
 1141 03e4 07       		.byte	0x7
 1142 03e5 8001     		.2byte	0x180
 1143 03e7 4E010000 		.4byte	0x14e
 1144 03eb 08       		.byte	0x8
 1145 03ec 08       		.uleb128 0x8
 1146 03ed A2000000 		.4byte	.LASF75
 1147 03f1 07       		.byte	0x7
 1148 03f2 8201     		.2byte	0x182
 1149 03f4 C1080000 		.4byte	0x8c1
 1150 03f8 0C       		.byte	0xc
 1151 03f9 00       		.byte	0
 1152 03fa 04       		.uleb128 0x4
 1153 03fb AB040000 		.4byte	.LASF76
 1154 03ff 06       		.byte	0x6
 1155 0400 6B       		.byte	0x6b
 1156 0401 05040000 		.4byte	0x405
 1157 0405 0A       		.uleb128 0xa
 1158 0406 D4010000 		.4byte	.LASF77
 1159 040a 04       		.byte	0x4
 1160 040b 07       		.byte	0x7
 1161 040c A201     		.2byte	0x1a2
 1162 040e 20040000 		.4byte	0x420
 1163 0412 08       		.uleb128 0x8
 1164 0413 2D090000 		.4byte	.LASF78
 1165 0417 07       		.byte	0x7
 1166 0418 AA01     		.2byte	0x1aa
 1167 041a CC080000 		.4byte	0x8cc
 1168 041e 00       		.byte	0
 1169 041f 00       		.byte	0
 1170 0420 04       		.uleb128 0x4
 1171 0421 71090000 		.4byte	.LASF79
 1172 0425 06       		.byte	0x6
 1173 0426 70       		.byte	0x70
 1174 0427 2B040000 		.4byte	0x42b
 1175 042b 0E       		.uleb128 0xe
 1176 042c D1070000 		.4byte	.LASF80
 1177 0430 5802     		.2byte	0x258
 1178 0432 07       		.byte	0x7
 1179 0433 C201     		.2byte	0x1c2
 1180 0435 87040000 		.4byte	0x487
 1181 0439 08       		.uleb128 0x8
 1182 043a 02080000 		.4byte	.LASF81
 1183 043e 07       		.byte	0x7
 1184 043f C601     		.2byte	0x1c6
 1185 0441 CE020000 		.4byte	0x2ce
ARM GAS  /var/folders/m4/4md61f0s1_g0rzfghffqnxvr0000gn/T//ccTJVolh.s 			page 22


 1186 0445 00       		.byte	0
 1187 0446 08       		.uleb128 0x8
 1188 0447 1D010000 		.4byte	.LASF82
 1189 044b 07       		.byte	0x7
 1190 044c CA01     		.2byte	0x1ca
 1191 044e AD030000 		.4byte	0x3ad
 1192 0452 1C       		.byte	0x1c
 1193 0453 07       		.uleb128 0x7
 1194 0454 64626700 		.ascii	"dbg\000"
 1195 0458 07       		.byte	0x7
 1196 0459 CE01     		.2byte	0x1ce
 1197 045b FA030000 		.4byte	0x3fa
 1198 045f 2C       		.byte	0x2c
 1199 0460 08       		.uleb128 0x8
 1200 0461 E7060000 		.4byte	.LASF83
 1201 0465 07       		.byte	0x7
 1202 0466 D201     		.2byte	0x1d2
 1203 0468 59010000 		.4byte	0x159
 1204 046c 30       		.byte	0x30
 1205 046d 07       		.uleb128 0x7
 1206 046e 746D00   		.ascii	"tm\000"
 1207 0471 07       		.byte	0x7
 1208 0472 D701     		.2byte	0x1d7
 1209 0474 DF070000 		.4byte	0x7df
 1210 0478 78       		.byte	0x78
 1211 0479 08       		.uleb128 0x8
 1212 047a AB080000 		.4byte	.LASF84
 1213 047e 07       		.byte	0x7
 1214 047f E301     		.2byte	0x1e3
 1215 0481 D1080000 		.4byte	0x8d1
 1216 0485 80       		.byte	0x80
 1217 0486 00       		.byte	0
 1218 0487 02       		.uleb128 0x2
 1219 0488 04       		.byte	0x4
 1220 0489 07       		.byte	0x7
 1221 048a 63080000 		.4byte	.LASF85
 1222 048e 0F       		.uleb128 0xf
 1223 048f D5000000 		.4byte	0xd5
 1224 0493 10       		.uleb128 0x10
 1225 0494 D5000000 		.4byte	0xd5
 1226 0498 A3040000 		.4byte	0x4a3
 1227 049c 11       		.uleb128 0x11
 1228 049d 87040000 		.4byte	0x487
 1229 04a1 04       		.byte	0x4
 1230 04a2 00       		.byte	0
 1231 04a3 12       		.uleb128 0x12
 1232 04a4 18       		.byte	0x18
 1233 04a5 08       		.byte	0x8
 1234 04a6 7D01     		.2byte	0x17d
 1235 04a8 FA040000 		.4byte	0x4fa
 1236 04ac 07       		.uleb128 0x7
 1237 04ad 435200   		.ascii	"CR\000"
 1238 04b0 08       		.byte	0x8
 1239 04b1 7F01     		.2byte	0x17f
 1240 04b3 8E040000 		.4byte	0x48e
 1241 04b7 00       		.byte	0
 1242 04b8 08       		.uleb128 0x8
ARM GAS  /var/folders/m4/4md61f0s1_g0rzfghffqnxvr0000gn/T//ccTJVolh.s 			page 23


 1243 04b9 54010000 		.4byte	.LASF86
 1244 04bd 08       		.byte	0x8
 1245 04be 8001     		.2byte	0x180
 1246 04c0 8E040000 		.4byte	0x48e
 1247 04c4 04       		.byte	0x4
 1248 04c5 07       		.uleb128 0x7
 1249 04c6 50415200 		.ascii	"PAR\000"
 1250 04ca 08       		.byte	0x8
 1251 04cb 8101     		.2byte	0x181
 1252 04cd 8E040000 		.4byte	0x48e
 1253 04d1 08       		.byte	0x8
 1254 04d2 08       		.uleb128 0x8
 1255 04d3 59030000 		.4byte	.LASF87
 1256 04d7 08       		.byte	0x8
 1257 04d8 8201     		.2byte	0x182
 1258 04da 8E040000 		.4byte	0x48e
 1259 04de 0C       		.byte	0xc
 1260 04df 08       		.uleb128 0x8
 1261 04e0 25080000 		.4byte	.LASF88
 1262 04e4 08       		.byte	0x8
 1263 04e5 8301     		.2byte	0x183
 1264 04e7 8E040000 		.4byte	0x48e
 1265 04eb 10       		.byte	0x10
 1266 04ec 07       		.uleb128 0x7
 1267 04ed 46435200 		.ascii	"FCR\000"
 1268 04f1 08       		.byte	0x8
 1269 04f2 8401     		.2byte	0x184
 1270 04f4 8E040000 		.4byte	0x48e
 1271 04f8 14       		.byte	0x14
 1272 04f9 00       		.byte	0
 1273 04fa 13       		.uleb128 0x13
 1274 04fb 86060000 		.4byte	.LASF89
 1275 04ff 08       		.byte	0x8
 1276 0500 8501     		.2byte	0x185
 1277 0502 A3040000 		.4byte	0x4a3
 1278 0506 12       		.uleb128 0x12
 1279 0507 54       		.byte	0x54
 1280 0508 08       		.byte	0x8
 1281 0509 FC02     		.2byte	0x2fc
 1282 050b 1F060000 		.4byte	0x61f
 1283 050f 07       		.uleb128 0x7
 1284 0510 43523100 		.ascii	"CR1\000"
 1285 0514 08       		.byte	0x8
 1286 0515 FE02     		.2byte	0x2fe
 1287 0517 8E040000 		.4byte	0x48e
 1288 051b 00       		.byte	0
 1289 051c 07       		.uleb128 0x7
 1290 051d 43523200 		.ascii	"CR2\000"
 1291 0521 08       		.byte	0x8
 1292 0522 FF02     		.2byte	0x2ff
 1293 0524 8E040000 		.4byte	0x48e
 1294 0528 04       		.byte	0x4
 1295 0529 08       		.uleb128 0x8
 1296 052a 88040000 		.4byte	.LASF90
 1297 052e 08       		.byte	0x8
 1298 052f 0003     		.2byte	0x300
 1299 0531 8E040000 		.4byte	0x48e
ARM GAS  /var/folders/m4/4md61f0s1_g0rzfghffqnxvr0000gn/T//ccTJVolh.s 			page 24


 1300 0535 08       		.byte	0x8
 1301 0536 08       		.uleb128 0x8
 1302 0537 54030000 		.4byte	.LASF91
 1303 053b 08       		.byte	0x8
 1304 053c 0103     		.2byte	0x301
 1305 053e 8E040000 		.4byte	0x48e
 1306 0542 0C       		.byte	0xc
 1307 0543 07       		.uleb128 0x7
 1308 0544 535200   		.ascii	"SR\000"
 1309 0547 08       		.byte	0x8
 1310 0548 0203     		.2byte	0x302
 1311 054a 8E040000 		.4byte	0x48e
 1312 054e 10       		.byte	0x10
 1313 054f 07       		.uleb128 0x7
 1314 0550 45475200 		.ascii	"EGR\000"
 1315 0554 08       		.byte	0x8
 1316 0555 0303     		.2byte	0x303
 1317 0557 8E040000 		.4byte	0x48e
 1318 055b 14       		.byte	0x14
 1319 055c 08       		.uleb128 0x8
 1320 055d 6D020000 		.4byte	.LASF92
 1321 0561 08       		.byte	0x8
 1322 0562 0403     		.2byte	0x304
 1323 0564 8E040000 		.4byte	0x48e
 1324 0568 18       		.byte	0x18
 1325 0569 08       		.uleb128 0x8
 1326 056a 73020000 		.4byte	.LASF93
 1327 056e 08       		.byte	0x8
 1328 056f 0503     		.2byte	0x305
 1329 0571 8E040000 		.4byte	0x48e
 1330 0575 1C       		.byte	0x1c
 1331 0576 08       		.uleb128 0x8
 1332 0577 B4030000 		.4byte	.LASF94
 1333 057b 08       		.byte	0x8
 1334 057c 0603     		.2byte	0x306
 1335 057e 8E040000 		.4byte	0x48e
 1336 0582 20       		.byte	0x20
 1337 0583 07       		.uleb128 0x7
 1338 0584 434E5400 		.ascii	"CNT\000"
 1339 0588 08       		.byte	0x8
 1340 0589 0703     		.2byte	0x307
 1341 058b 8E040000 		.4byte	0x48e
 1342 058f 24       		.byte	0x24
 1343 0590 07       		.uleb128 0x7
 1344 0591 50534300 		.ascii	"PSC\000"
 1345 0595 08       		.byte	0x8
 1346 0596 0803     		.2byte	0x308
 1347 0598 8E040000 		.4byte	0x48e
 1348 059c 28       		.byte	0x28
 1349 059d 07       		.uleb128 0x7
 1350 059e 41525200 		.ascii	"ARR\000"
 1351 05a2 08       		.byte	0x8
 1352 05a3 0903     		.2byte	0x309
 1353 05a5 8E040000 		.4byte	0x48e
 1354 05a9 2C       		.byte	0x2c
 1355 05aa 07       		.uleb128 0x7
 1356 05ab 52435200 		.ascii	"RCR\000"
ARM GAS  /var/folders/m4/4md61f0s1_g0rzfghffqnxvr0000gn/T//ccTJVolh.s 			page 25


 1357 05af 08       		.byte	0x8
 1358 05b0 0A03     		.2byte	0x30a
 1359 05b2 8E040000 		.4byte	0x48e
 1360 05b6 30       		.byte	0x30
 1361 05b7 08       		.uleb128 0x8
 1362 05b8 48020000 		.4byte	.LASF95
 1363 05bc 08       		.byte	0x8
 1364 05bd 0B03     		.2byte	0x30b
 1365 05bf 8E040000 		.4byte	0x48e
 1366 05c3 34       		.byte	0x34
 1367 05c4 08       		.uleb128 0x8
 1368 05c5 4D020000 		.4byte	.LASF96
 1369 05c9 08       		.byte	0x8
 1370 05ca 0C03     		.2byte	0x30c
 1371 05cc 8E040000 		.4byte	0x48e
 1372 05d0 38       		.byte	0x38
 1373 05d1 08       		.uleb128 0x8
 1374 05d2 52020000 		.4byte	.LASF97
 1375 05d6 08       		.byte	0x8
 1376 05d7 0D03     		.2byte	0x30d
 1377 05d9 8E040000 		.4byte	0x48e
 1378 05dd 3C       		.byte	0x3c
 1379 05de 08       		.uleb128 0x8
 1380 05df 57020000 		.4byte	.LASF98
 1381 05e3 08       		.byte	0x8
 1382 05e4 0E03     		.2byte	0x30e
 1383 05e6 8E040000 		.4byte	0x48e
 1384 05ea 40       		.byte	0x40
 1385 05eb 08       		.uleb128 0x8
 1386 05ec 21020000 		.4byte	.LASF99
 1387 05f0 08       		.byte	0x8
 1388 05f1 0F03     		.2byte	0x30f
 1389 05f3 8E040000 		.4byte	0x48e
 1390 05f7 44       		.byte	0x44
 1391 05f8 07       		.uleb128 0x7
 1392 05f9 44435200 		.ascii	"DCR\000"
 1393 05fd 08       		.byte	0x8
 1394 05fe 1003     		.2byte	0x310
 1395 0600 8E040000 		.4byte	0x48e
 1396 0604 48       		.byte	0x48
 1397 0605 08       		.uleb128 0x8
 1398 0606 80010000 		.4byte	.LASF100
 1399 060a 08       		.byte	0x8
 1400 060b 1103     		.2byte	0x311
 1401 060d 8E040000 		.4byte	0x48e
 1402 0611 4C       		.byte	0x4c
 1403 0612 07       		.uleb128 0x7
 1404 0613 4F5200   		.ascii	"OR\000"
 1405 0616 08       		.byte	0x8
 1406 0617 1203     		.2byte	0x312
 1407 0619 8E040000 		.4byte	0x48e
 1408 061d 50       		.byte	0x50
 1409 061e 00       		.byte	0
 1410 061f 13       		.uleb128 0x13
 1411 0620 E4010000 		.4byte	.LASF101
 1412 0624 08       		.byte	0x8
 1413 0625 1303     		.2byte	0x313
ARM GAS  /var/folders/m4/4md61f0s1_g0rzfghffqnxvr0000gn/T//ccTJVolh.s 			page 26


 1414 0627 06050000 		.4byte	0x506
 1415 062b 14       		.uleb128 0x14
 1416 062c 01       		.byte	0x1
 1417 062d 09       		.byte	0x9
 1418 062e BE       		.byte	0xbe
 1419 062f 40060000 		.4byte	0x640
 1420 0633 15       		.uleb128 0x15
 1421 0634 C2030000 		.4byte	.LASF102
 1422 0638 00       		.sleb128 0
 1423 0639 15       		.uleb128 0x15
 1424 063a 5C080000 		.4byte	.LASF103
 1425 063e 01       		.sleb128 1
 1426 063f 00       		.byte	0
 1427 0640 04       		.uleb128 0x4
 1428 0641 CE000000 		.4byte	.LASF104
 1429 0645 09       		.byte	0x9
 1430 0646 C1       		.byte	0xc1
 1431 0647 2B060000 		.4byte	0x62b
 1432 064b 04       		.uleb128 0x4
 1433 064c 49000000 		.4byte	.LASF105
 1434 0650 0A       		.byte	0xa
 1435 0651 65       		.byte	0x65
 1436 0652 51030000 		.4byte	0x351
 1437 0656 04       		.uleb128 0x4
 1438 0657 CA090000 		.4byte	.LASF106
 1439 065b 0A       		.byte	0xa
 1440 065c 6D       		.byte	0x6d
 1441 065d E0000000 		.4byte	0xe0
 1442 0661 05       		.uleb128 0x5
 1443 0662 1A050000 		.4byte	.LASF107
 1444 0666 04       		.byte	0x4
 1445 0667 0A       		.byte	0xa
 1446 0668 89       		.byte	0x89
 1447 0669 7A060000 		.4byte	0x67a
 1448 066d 16       		.uleb128 0x16
 1449 066e 72313300 		.ascii	"r13\000"
 1450 0672 0A       		.byte	0xa
 1451 0673 8A       		.byte	0x8a
 1452 0674 C4070000 		.4byte	0x7c4
 1453 0678 00       		.byte	0
 1454 0679 00       		.byte	0
 1455 067a 05       		.uleb128 0x5
 1456 067b B8070000 		.4byte	.LASF108
 1457 067f 64       		.byte	0x64
 1458 0680 0B       		.byte	0xb
 1459 0681 FD       		.byte	0xfd
 1460 0682 C4070000 		.4byte	0x7c4
 1461 0686 16       		.uleb128 0x16
 1462 0687 73313600 		.ascii	"s16\000"
 1463 068b 0B       		.byte	0xb
 1464 068c FF       		.byte	0xff
 1465 068d 4B060000 		.4byte	0x64b
 1466 0691 00       		.byte	0
 1467 0692 07       		.uleb128 0x7
 1468 0693 73313700 		.ascii	"s17\000"
 1469 0697 0B       		.byte	0xb
 1470 0698 0001     		.2byte	0x100
ARM GAS  /var/folders/m4/4md61f0s1_g0rzfghffqnxvr0000gn/T//ccTJVolh.s 			page 27


 1471 069a 4B060000 		.4byte	0x64b
 1472 069e 04       		.byte	0x4
 1473 069f 07       		.uleb128 0x7
 1474 06a0 73313800 		.ascii	"s18\000"
 1475 06a4 0B       		.byte	0xb
 1476 06a5 0101     		.2byte	0x101
 1477 06a7 4B060000 		.4byte	0x64b
 1478 06ab 08       		.byte	0x8
 1479 06ac 07       		.uleb128 0x7
 1480 06ad 73313900 		.ascii	"s19\000"
 1481 06b1 0B       		.byte	0xb
 1482 06b2 0201     		.2byte	0x102
 1483 06b4 4B060000 		.4byte	0x64b
 1484 06b8 0C       		.byte	0xc
 1485 06b9 07       		.uleb128 0x7
 1486 06ba 73323000 		.ascii	"s20\000"
 1487 06be 0B       		.byte	0xb
 1488 06bf 0301     		.2byte	0x103
 1489 06c1 4B060000 		.4byte	0x64b
 1490 06c5 10       		.byte	0x10
 1491 06c6 07       		.uleb128 0x7
 1492 06c7 73323100 		.ascii	"s21\000"
 1493 06cb 0B       		.byte	0xb
 1494 06cc 0401     		.2byte	0x104
 1495 06ce 4B060000 		.4byte	0x64b
 1496 06d2 14       		.byte	0x14
 1497 06d3 07       		.uleb128 0x7
 1498 06d4 73323200 		.ascii	"s22\000"
 1499 06d8 0B       		.byte	0xb
 1500 06d9 0501     		.2byte	0x105
 1501 06db 4B060000 		.4byte	0x64b
 1502 06df 18       		.byte	0x18
 1503 06e0 07       		.uleb128 0x7
 1504 06e1 73323300 		.ascii	"s23\000"
 1505 06e5 0B       		.byte	0xb
 1506 06e6 0601     		.2byte	0x106
 1507 06e8 4B060000 		.4byte	0x64b
 1508 06ec 1C       		.byte	0x1c
 1509 06ed 07       		.uleb128 0x7
 1510 06ee 73323400 		.ascii	"s24\000"
 1511 06f2 0B       		.byte	0xb
 1512 06f3 0701     		.2byte	0x107
 1513 06f5 4B060000 		.4byte	0x64b
 1514 06f9 20       		.byte	0x20
 1515 06fa 07       		.uleb128 0x7
 1516 06fb 73323500 		.ascii	"s25\000"
 1517 06ff 0B       		.byte	0xb
 1518 0700 0801     		.2byte	0x108
 1519 0702 4B060000 		.4byte	0x64b
 1520 0706 24       		.byte	0x24
 1521 0707 07       		.uleb128 0x7
 1522 0708 73323600 		.ascii	"s26\000"
 1523 070c 0B       		.byte	0xb
 1524 070d 0901     		.2byte	0x109
 1525 070f 4B060000 		.4byte	0x64b
 1526 0713 28       		.byte	0x28
 1527 0714 07       		.uleb128 0x7
ARM GAS  /var/folders/m4/4md61f0s1_g0rzfghffqnxvr0000gn/T//ccTJVolh.s 			page 28


 1528 0715 73323700 		.ascii	"s27\000"
 1529 0719 0B       		.byte	0xb
 1530 071a 0A01     		.2byte	0x10a
 1531 071c 4B060000 		.4byte	0x64b
 1532 0720 2C       		.byte	0x2c
 1533 0721 07       		.uleb128 0x7
 1534 0722 73323800 		.ascii	"s28\000"
 1535 0726 0B       		.byte	0xb
 1536 0727 0B01     		.2byte	0x10b
 1537 0729 4B060000 		.4byte	0x64b
 1538 072d 30       		.byte	0x30
 1539 072e 07       		.uleb128 0x7
 1540 072f 73323900 		.ascii	"s29\000"
 1541 0733 0B       		.byte	0xb
 1542 0734 0C01     		.2byte	0x10c
 1543 0736 4B060000 		.4byte	0x64b
 1544 073a 34       		.byte	0x34
 1545 073b 07       		.uleb128 0x7
 1546 073c 73333000 		.ascii	"s30\000"
 1547 0740 0B       		.byte	0xb
 1548 0741 0D01     		.2byte	0x10d
 1549 0743 4B060000 		.4byte	0x64b
 1550 0747 38       		.byte	0x38
 1551 0748 07       		.uleb128 0x7
 1552 0749 73333100 		.ascii	"s31\000"
 1553 074d 0B       		.byte	0xb
 1554 074e 0E01     		.2byte	0x10e
 1555 0750 4B060000 		.4byte	0x64b
 1556 0754 3C       		.byte	0x3c
 1557 0755 07       		.uleb128 0x7
 1558 0756 723400   		.ascii	"r4\000"
 1559 0759 0B       		.byte	0xb
 1560 075a 1001     		.2byte	0x110
 1561 075c 4B060000 		.4byte	0x64b
 1562 0760 40       		.byte	0x40
 1563 0761 07       		.uleb128 0x7
 1564 0762 723500   		.ascii	"r5\000"
 1565 0765 0B       		.byte	0xb
 1566 0766 1101     		.2byte	0x111
 1567 0768 4B060000 		.4byte	0x64b
 1568 076c 44       		.byte	0x44
 1569 076d 07       		.uleb128 0x7
 1570 076e 723600   		.ascii	"r6\000"
 1571 0771 0B       		.byte	0xb
 1572 0772 1201     		.2byte	0x112
 1573 0774 4B060000 		.4byte	0x64b
 1574 0778 48       		.byte	0x48
 1575 0779 07       		.uleb128 0x7
 1576 077a 723700   		.ascii	"r7\000"
 1577 077d 0B       		.byte	0xb
 1578 077e 1301     		.2byte	0x113
 1579 0780 4B060000 		.4byte	0x64b
 1580 0784 4C       		.byte	0x4c
 1581 0785 07       		.uleb128 0x7
 1582 0786 723800   		.ascii	"r8\000"
 1583 0789 0B       		.byte	0xb
 1584 078a 1401     		.2byte	0x114
ARM GAS  /var/folders/m4/4md61f0s1_g0rzfghffqnxvr0000gn/T//ccTJVolh.s 			page 29


 1585 078c 4B060000 		.4byte	0x64b
 1586 0790 50       		.byte	0x50
 1587 0791 07       		.uleb128 0x7
 1588 0792 723900   		.ascii	"r9\000"
 1589 0795 0B       		.byte	0xb
 1590 0796 1501     		.2byte	0x115
 1591 0798 4B060000 		.4byte	0x64b
 1592 079c 54       		.byte	0x54
 1593 079d 07       		.uleb128 0x7
 1594 079e 72313000 		.ascii	"r10\000"
 1595 07a2 0B       		.byte	0xb
 1596 07a3 1601     		.2byte	0x116
 1597 07a5 4B060000 		.4byte	0x64b
 1598 07a9 58       		.byte	0x58
 1599 07aa 07       		.uleb128 0x7
 1600 07ab 72313100 		.ascii	"r11\000"
 1601 07af 0B       		.byte	0xb
 1602 07b0 1701     		.2byte	0x117
 1603 07b2 4B060000 		.4byte	0x64b
 1604 07b6 5C       		.byte	0x5c
 1605 07b7 07       		.uleb128 0x7
 1606 07b8 6C7200   		.ascii	"lr\000"
 1607 07bb 0B       		.byte	0xb
 1608 07bc 1801     		.2byte	0x118
 1609 07be 4B060000 		.4byte	0x64b
 1610 07c2 60       		.byte	0x60
 1611 07c3 00       		.byte	0
 1612 07c4 09       		.uleb128 0x9
 1613 07c5 04       		.byte	0x4
 1614 07c6 7A060000 		.4byte	0x67a
 1615 07ca 17       		.uleb128 0x17
 1616 07cb 04       		.byte	0x4
 1617 07cc 0C       		.byte	0xc
 1618 07cd 38       		.byte	0x38
 1619 07ce DF070000 		.4byte	0x7df
 1620 07d2 06       		.uleb128 0x6
 1621 07d3 23030000 		.4byte	.LASF109
 1622 07d7 0C       		.byte	0xc
 1623 07d8 3C       		.byte	0x3c
 1624 07d9 EB000000 		.4byte	0xeb
 1625 07dd 00       		.byte	0
 1626 07de 00       		.byte	0
 1627 07df 04       		.uleb128 0x4
 1628 07e0 27000000 		.4byte	.LASF110
 1629 07e4 0C       		.byte	0xc
 1630 07e5 3D       		.byte	0x3d
 1631 07e6 CA070000 		.4byte	0x7ca
 1632 07ea 18       		.uleb128 0x18
 1633 07eb 04       		.byte	0x4
 1634 07ec 07       		.byte	0x7
 1635 07ed FA       		.byte	0xfa
 1636 07ee 47080000 		.4byte	0x847
 1637 07f2 19       		.uleb128 0x19
 1638 07f3 1C030000 		.4byte	.LASF111
 1639 07f7 07       		.byte	0x7
 1640 07f8 0101     		.2byte	0x101
 1641 07fa 2D010000 		.4byte	0x12d
ARM GAS  /var/folders/m4/4md61f0s1_g0rzfghffqnxvr0000gn/T//ccTJVolh.s 			page 30


 1642 07fe 19       		.uleb128 0x19
 1643 07ff 1B0A0000 		.4byte	.LASF112
 1644 0803 07       		.byte	0x7
 1645 0804 0801     		.2byte	0x108
 1646 0806 2D010000 		.4byte	0x12d
 1647 080a 19       		.uleb128 0x19
 1648 080b 16010000 		.4byte	.LASF113
 1649 080f 07       		.byte	0x7
 1650 0810 0F01     		.2byte	0x10f
 1651 0812 51030000 		.4byte	0x351
 1652 0816 19       		.uleb128 0x19
 1653 0817 0E0A0000 		.4byte	.LASF114
 1654 081b 07       		.byte	0x7
 1655 081c 1601     		.2byte	0x116
 1656 081e 47080000 		.4byte	0x847
 1657 0822 19       		.uleb128 0x19
 1658 0823 BA080000 		.4byte	.LASF115
 1659 0827 07       		.byte	0x7
 1660 0828 1E01     		.2byte	0x11e
 1661 082a 72080000 		.4byte	0x872
 1662 082e 19       		.uleb128 0x19
 1663 082f 140A0000 		.4byte	.LASF116
 1664 0833 07       		.byte	0x7
 1665 0834 2701     		.2byte	0x127
 1666 0836 A9080000 		.4byte	0x8a9
 1667 083a 19       		.uleb128 0x19
 1668 083b 4C090000 		.4byte	.LASF117
 1669 083f 07       		.byte	0x7
 1670 0840 2F01     		.2byte	0x12f
 1671 0842 38010000 		.4byte	0x138
 1672 0846 00       		.byte	0
 1673 0847 09       		.uleb128 0x9
 1674 0848 04       		.byte	0x4
 1675 0849 69020000 		.4byte	0x269
 1676 084d 05       		.uleb128 0x5
 1677 084e 33020000 		.4byte	.LASF118
 1678 0852 0C       		.byte	0xc
 1679 0853 0D       		.byte	0xd
 1680 0854 34       		.byte	0x34
 1681 0855 72080000 		.4byte	0x872
 1682 0859 06       		.uleb128 0x6
 1683 085a 9A000000 		.4byte	.LASF119
 1684 085e 0D       		.byte	0xd
 1685 085f 35       		.byte	0x35
 1686 0860 9E020000 		.4byte	0x29e
 1687 0864 00       		.byte	0
 1688 0865 06       		.uleb128 0x6
 1689 0866 CE010000 		.4byte	.LASF120
 1690 086a 0D       		.byte	0xd
 1691 086b 37       		.byte	0x37
 1692 086c 43010000 		.4byte	0x143
 1693 0870 08       		.byte	0x8
 1694 0871 00       		.byte	0
 1695 0872 09       		.uleb128 0x9
 1696 0873 04       		.byte	0x4
 1697 0874 4D080000 		.4byte	0x84d
 1698 0878 05       		.uleb128 0x5
ARM GAS  /var/folders/m4/4md61f0s1_g0rzfghffqnxvr0000gn/T//ccTJVolh.s 			page 31


 1699 0879 40030000 		.4byte	.LASF121
 1700 087d 10       		.byte	0x10
 1701 087e 0E       		.byte	0xe
 1702 087f 39       		.byte	0x39
 1703 0880 A9080000 		.4byte	0x8a9
 1704 0884 06       		.uleb128 0x6
 1705 0885 A0070000 		.4byte	.LASF122
 1706 0889 0E       		.byte	0xe
 1707 088a 3A       		.byte	0x3a
 1708 088b 9E020000 		.4byte	0x29e
 1709 088f 00       		.byte	0
 1710 0890 06       		.uleb128 0x6
 1711 0891 38030000 		.4byte	.LASF123
 1712 0895 0E       		.byte	0xe
 1713 0896 3C       		.byte	0x3c
 1714 0897 74020000 		.4byte	0x274
 1715 089b 08       		.byte	0x8
 1716 089c 06       		.uleb128 0x6
 1717 089d 9E090000 		.4byte	.LASF124
 1718 08a1 0E       		.byte	0xe
 1719 08a2 3E       		.byte	0x3e
 1720 08a3 EC080000 		.4byte	0x8ec
 1721 08a7 0C       		.byte	0xc
 1722 08a8 00       		.byte	0
 1723 08a9 09       		.uleb128 0x9
 1724 08aa 04       		.byte	0x4
 1725 08ab 78080000 		.4byte	0x878
 1726 08af 09       		.uleb128 0x9
 1727 08b0 04       		.byte	0x4
 1728 08b1 B5080000 		.4byte	0x8b5
 1729 08b5 1A       		.uleb128 0x1a
 1730 08b6 BA080000 		.4byte	0x8ba
 1731 08ba 02       		.uleb128 0x2
 1732 08bb 01       		.byte	0x1
 1733 08bc 08       		.byte	0x8
 1734 08bd 44000000 		.4byte	.LASF125
 1735 08c1 0F       		.uleb128 0xf
 1736 08c2 4E010000 		.4byte	0x14e
 1737 08c6 09       		.uleb128 0x9
 1738 08c7 04       		.byte	0x4
 1739 08c8 53030000 		.4byte	0x353
 1740 08cc 0F       		.uleb128 0xf
 1741 08cd AF080000 		.4byte	0x8af
 1742 08d1 10       		.uleb128 0x10
 1743 08d2 56060000 		.4byte	0x656
 1744 08d6 E1080000 		.4byte	0x8e1
 1745 08da 11       		.uleb128 0x11
 1746 08db 87040000 		.4byte	0x487
 1747 08df 3A       		.byte	0x3a
 1748 08e0 00       		.byte	0
 1749 08e1 04       		.uleb128 0x4
 1750 08e2 E3080000 		.4byte	.LASF126
 1751 08e6 0E       		.byte	0xe
 1752 08e7 34       		.byte	0x34
 1753 08e8 78080000 		.4byte	0x878
 1754 08ec 09       		.uleb128 0x9
 1755 08ed 04       		.byte	0x4
ARM GAS  /var/folders/m4/4md61f0s1_g0rzfghffqnxvr0000gn/T//ccTJVolh.s 			page 32


 1756 08ee E1080000 		.4byte	0x8e1
 1757 08f2 09       		.uleb128 0x9
 1758 08f3 04       		.byte	0x4
 1759 08f4 FA040000 		.4byte	0x4fa
 1760 08f8 02       		.uleb128 0x2
 1761 08f9 01       		.byte	0x1
 1762 08fa 02       		.byte	0x2
 1763 08fb 32030000 		.4byte	.LASF127
 1764 08ff 17       		.uleb128 0x17
 1765 0900 04       		.byte	0x4
 1766 0901 0F       		.byte	0xf
 1767 0902 E7       		.byte	0xe7
 1768 0903 20090000 		.4byte	0x920
 1769 0907 16       		.uleb128 0x16
 1770 0908 73657400 		.ascii	"set\000"
 1771 090c 0F       		.byte	0xf
 1772 090d E8       		.byte	0xe8
 1773 090e BF000000 		.4byte	0xbf
 1774 0912 00       		.byte	0
 1775 0913 06       		.uleb128 0x6
 1776 0914 E9020000 		.4byte	.LASF128
 1777 0918 0F       		.byte	0xf
 1778 0919 E9       		.byte	0xe9
 1779 091a BF000000 		.4byte	0xbf
 1780 091e 02       		.byte	0x2
 1781 091f 00       		.byte	0
 1782 0920 18       		.uleb128 0x18
 1783 0921 04       		.byte	0x4
 1784 0922 0F       		.byte	0xf
 1785 0923 E5       		.byte	0xe5
 1786 0924 3B090000 		.4byte	0x93b
 1787 0928 1B       		.uleb128 0x1b
 1788 0929 5700     		.ascii	"W\000"
 1789 092b 0F       		.byte	0xf
 1790 092c E6       		.byte	0xe6
 1791 092d D5000000 		.4byte	0xd5
 1792 0931 1B       		.uleb128 0x1b
 1793 0932 4800     		.ascii	"H\000"
 1794 0934 0F       		.byte	0xf
 1795 0935 EA       		.byte	0xea
 1796 0936 FF080000 		.4byte	0x8ff
 1797 093a 00       		.byte	0
 1798 093b 17       		.uleb128 0x17
 1799 093c 2C       		.byte	0x2c
 1800 093d 0F       		.byte	0xf
 1801 093e DD       		.byte	0xdd
 1802 093f C8090000 		.4byte	0x9c8
 1803 0943 06       		.uleb128 0x6
 1804 0944 C4020000 		.4byte	.LASF129
 1805 0948 0F       		.byte	0xf
 1806 0949 DF       		.byte	0xdf
 1807 094a 8E040000 		.4byte	0x48e
 1808 094e 00       		.byte	0
 1809 094f 06       		.uleb128 0x6
 1810 0950 E5070000 		.4byte	.LASF130
 1811 0954 0F       		.byte	0xf
 1812 0955 E0       		.byte	0xe0
ARM GAS  /var/folders/m4/4md61f0s1_g0rzfghffqnxvr0000gn/T//ccTJVolh.s 			page 33


 1813 0956 8E040000 		.4byte	0x48e
 1814 095a 04       		.byte	0x4
 1815 095b 06       		.uleb128 0x6
 1816 095c 09070000 		.4byte	.LASF131
 1817 0960 0F       		.byte	0xf
 1818 0961 E1       		.byte	0xe1
 1819 0962 8E040000 		.4byte	0x48e
 1820 0966 08       		.byte	0x8
 1821 0967 06       		.uleb128 0x6
 1822 0968 7F030000 		.4byte	.LASF132
 1823 096c 0F       		.byte	0xf
 1824 096d E2       		.byte	0xe2
 1825 096e 8E040000 		.4byte	0x48e
 1826 0972 0C       		.byte	0xc
 1827 0973 16       		.uleb128 0x16
 1828 0974 49445200 		.ascii	"IDR\000"
 1829 0978 0F       		.byte	0xf
 1830 0979 E3       		.byte	0xe3
 1831 097a 8E040000 		.4byte	0x48e
 1832 097e 10       		.byte	0x10
 1833 097f 16       		.uleb128 0x16
 1834 0980 4F445200 		.ascii	"ODR\000"
 1835 0984 0F       		.byte	0xf
 1836 0985 E4       		.byte	0xe4
 1837 0986 8E040000 		.4byte	0x48e
 1838 098a 14       		.byte	0x14
 1839 098b 06       		.uleb128 0x6
 1840 098c 3F000000 		.4byte	.LASF133
 1841 0990 0F       		.byte	0xf
 1842 0991 EB       		.byte	0xeb
 1843 0992 C8090000 		.4byte	0x9c8
 1844 0996 18       		.byte	0x18
 1845 0997 06       		.uleb128 0x6
 1846 0998 240A0000 		.4byte	.LASF134
 1847 099c 0F       		.byte	0xf
 1848 099d EC       		.byte	0xec
 1849 099e 8E040000 		.4byte	0x48e
 1850 09a2 1C       		.byte	0x1c
 1851 09a3 06       		.uleb128 0x6
 1852 09a4 DC020000 		.4byte	.LASF135
 1853 09a8 0F       		.byte	0xf
 1854 09a9 ED       		.byte	0xed
 1855 09aa 8E040000 		.4byte	0x48e
 1856 09ae 20       		.byte	0x20
 1857 09af 06       		.uleb128 0x6
 1858 09b0 CA020000 		.4byte	.LASF136
 1859 09b4 0F       		.byte	0xf
 1860 09b5 EE       		.byte	0xee
 1861 09b6 8E040000 		.4byte	0x48e
 1862 09ba 24       		.byte	0x24
 1863 09bb 16       		.uleb128 0x16
 1864 09bc 42525200 		.ascii	"BRR\000"
 1865 09c0 0F       		.byte	0xf
 1866 09c1 EF       		.byte	0xef
 1867 09c2 8E040000 		.4byte	0x48e
 1868 09c6 28       		.byte	0x28
 1869 09c7 00       		.byte	0
ARM GAS  /var/folders/m4/4md61f0s1_g0rzfghffqnxvr0000gn/T//ccTJVolh.s 			page 34


 1870 09c8 0F       		.uleb128 0xf
 1871 09c9 20090000 		.4byte	0x920
 1872 09cd 04       		.uleb128 0x4
 1873 09ce CF020000 		.4byte	.LASF137
 1874 09d2 0F       		.byte	0xf
 1875 09d3 F0       		.byte	0xf0
 1876 09d4 3B090000 		.4byte	0x93b
 1877 09d8 13       		.uleb128 0x13
 1878 09d9 46060000 		.4byte	.LASF138
 1879 09dd 0F       		.byte	0xf
 1880 09de 3F01     		.2byte	0x13f
 1881 09e0 D5000000 		.4byte	0xd5
 1882 09e4 13       		.uleb128 0x13
 1883 09e5 7D090000 		.4byte	.LASF139
 1884 09e9 0F       		.byte	0xf
 1885 09ea 4401     		.2byte	0x144
 1886 09ec D5000000 		.4byte	0xd5
 1887 09f0 13       		.uleb128 0x13
 1888 09f1 5E030000 		.4byte	.LASF140
 1889 09f5 0F       		.byte	0xf
 1890 09f6 5101     		.2byte	0x151
 1891 09f8 FC090000 		.4byte	0x9fc
 1892 09fc 09       		.uleb128 0x9
 1893 09fd 04       		.byte	0x4
 1894 09fe CD090000 		.4byte	0x9cd
 1895 0a02 02       		.uleb128 0x2
 1896 0a03 08       		.byte	0x8
 1897 0a04 04       		.byte	0x4
 1898 0a05 FF090000 		.4byte	.LASF141
 1899 0a09 02       		.uleb128 0x2
 1900 0a0a 08       		.byte	0x8
 1901 0a0b 04       		.byte	0x4
 1902 0a0c 11070000 		.4byte	.LASF142
 1903 0a10 17       		.uleb128 0x17
 1904 0a11 3C       		.byte	0x3c
 1905 0a12 10       		.byte	0x10
 1906 0a13 36       		.byte	0x36
 1907 0a14 CD0A0000 		.4byte	0xacd
 1908 0a18 06       		.uleb128 0x6
 1909 0a19 D7080000 		.4byte	.LASF143
 1910 0a1d 10       		.byte	0x10
 1911 0a1e 38       		.byte	0x38
 1912 0a1f D5000000 		.4byte	0xd5
 1913 0a23 00       		.byte	0
 1914 0a24 06       		.uleb128 0x6
 1915 0a25 59010000 		.4byte	.LASF144
 1916 0a29 10       		.byte	0x10
 1917 0a2a 3B       		.byte	0x3b
 1918 0a2b D5000000 		.4byte	0xd5
 1919 0a2f 04       		.byte	0x4
 1920 0a30 06       		.uleb128 0x6
 1921 0a31 99060000 		.4byte	.LASF145
 1922 0a35 10       		.byte	0x10
 1923 0a36 3D       		.byte	0x3d
 1924 0a37 D5000000 		.4byte	0xd5
 1925 0a3b 08       		.byte	0x8
 1926 0a3c 06       		.uleb128 0x6
ARM GAS  /var/folders/m4/4md61f0s1_g0rzfghffqnxvr0000gn/T//ccTJVolh.s 			page 35


 1927 0a3d 92000000 		.4byte	.LASF146
 1928 0a41 10       		.byte	0x10
 1929 0a42 41       		.byte	0x41
 1930 0a43 D5000000 		.4byte	0xd5
 1931 0a47 0C       		.byte	0xc
 1932 0a48 06       		.uleb128 0x6
 1933 0a49 3B080000 		.4byte	.LASF147
 1934 0a4d 10       		.byte	0x10
 1935 0a4e 45       		.byte	0x45
 1936 0a4f D5000000 		.4byte	0xd5
 1937 0a53 10       		.byte	0x10
 1938 0a54 06       		.uleb128 0x6
 1939 0a55 08050000 		.4byte	.LASF148
 1940 0a59 10       		.byte	0x10
 1941 0a5a 49       		.byte	0x49
 1942 0a5b D5000000 		.4byte	0xd5
 1943 0a5f 14       		.byte	0x14
 1944 0a60 06       		.uleb128 0x6
 1945 0a61 5E040000 		.4byte	.LASF149
 1946 0a65 10       		.byte	0x10
 1947 0a66 4C       		.byte	0x4c
 1948 0a67 D5000000 		.4byte	0xd5
 1949 0a6b 18       		.byte	0x18
 1950 0a6c 06       		.uleb128 0x6
 1951 0a6d F2060000 		.4byte	.LASF150
 1952 0a71 10       		.byte	0x10
 1953 0a72 4F       		.byte	0x4f
 1954 0a73 D5000000 		.4byte	0xd5
 1955 0a77 1C       		.byte	0x1c
 1956 0a78 06       		.uleb128 0x6
 1957 0a79 36070000 		.4byte	.LASF151
 1958 0a7d 10       		.byte	0x10
 1959 0a7e 52       		.byte	0x52
 1960 0a7f D5000000 		.4byte	0xd5
 1961 0a83 20       		.byte	0x20
 1962 0a84 06       		.uleb128 0x6
 1963 0a85 1F040000 		.4byte	.LASF152
 1964 0a89 10       		.byte	0x10
 1965 0a8a 55       		.byte	0x55
 1966 0a8b D5000000 		.4byte	0xd5
 1967 0a8f 24       		.byte	0x24
 1968 0a90 06       		.uleb128 0x6
 1969 0a91 CC060000 		.4byte	.LASF153
 1970 0a95 10       		.byte	0x10
 1971 0a96 5A       		.byte	0x5a
 1972 0a97 D5000000 		.4byte	0xd5
 1973 0a9b 28       		.byte	0x28
 1974 0a9c 06       		.uleb128 0x6
 1975 0a9d BF060000 		.4byte	.LASF154
 1976 0aa1 10       		.byte	0x10
 1977 0aa2 5D       		.byte	0x5d
 1978 0aa3 D5000000 		.4byte	0xd5
 1979 0aa7 2C       		.byte	0x2c
 1980 0aa8 06       		.uleb128 0x6
 1981 0aa9 D5090000 		.4byte	.LASF155
 1982 0aad 10       		.byte	0x10
 1983 0aae 62       		.byte	0x62
ARM GAS  /var/folders/m4/4md61f0s1_g0rzfghffqnxvr0000gn/T//ccTJVolh.s 			page 36


 1984 0aaf D5000000 		.4byte	0xd5
 1985 0ab3 30       		.byte	0x30
 1986 0ab4 06       		.uleb128 0x6
 1987 0ab5 26070000 		.4byte	.LASF156
 1988 0ab9 10       		.byte	0x10
 1989 0aba 65       		.byte	0x65
 1990 0abb D5000000 		.4byte	0xd5
 1991 0abf 34       		.byte	0x34
 1992 0ac0 06       		.uleb128 0x6
 1993 0ac1 85010000 		.4byte	.LASF157
 1994 0ac5 10       		.byte	0x10
 1995 0ac6 6A       		.byte	0x6a
 1996 0ac7 D5000000 		.4byte	0xd5
 1997 0acb 38       		.byte	0x38
 1998 0acc 00       		.byte	0
 1999 0acd 04       		.uleb128 0x4
 2000 0ace 85070000 		.4byte	.LASF158
 2001 0ad2 10       		.byte	0x10
 2002 0ad3 6E       		.byte	0x6e
 2003 0ad4 100A0000 		.4byte	0xa10
 2004 0ad8 17       		.uleb128 0x17
 2005 0ad9 0C       		.byte	0xc
 2006 0ada 11       		.byte	0x11
 2007 0adb 37       		.byte	0x37
 2008 0adc 1D0B0000 		.4byte	0xb1d
 2009 0ae0 06       		.uleb128 0x6
 2010 0ae1 19000000 		.4byte	.LASF159
 2011 0ae5 11       		.byte	0x11
 2012 0ae6 39       		.byte	0x39
 2013 0ae7 BF000000 		.4byte	0xbf
 2014 0aeb 00       		.byte	0
 2015 0aec 06       		.uleb128 0x6
 2016 0aed 46040000 		.4byte	.LASF160
 2017 0af1 11       		.byte	0x11
 2018 0af2 3C       		.byte	0x3c
 2019 0af3 BF000000 		.4byte	0xbf
 2020 0af7 02       		.byte	0x2
 2021 0af8 06       		.uleb128 0x6
 2022 0af9 29010000 		.4byte	.LASF161
 2023 0afd 11       		.byte	0x11
 2024 0afe 3F       		.byte	0x3f
 2025 0aff D5000000 		.4byte	0xd5
 2026 0b03 04       		.byte	0x4
 2027 0b04 06       		.uleb128 0x6
 2028 0b05 08020000 		.4byte	.LASF162
 2029 0b09 11       		.byte	0x11
 2030 0b0a 43       		.byte	0x43
 2031 0b0b BF000000 		.4byte	0xbf
 2032 0b0f 08       		.byte	0x8
 2033 0b10 06       		.uleb128 0x6
 2034 0b11 69030000 		.4byte	.LASF163
 2035 0b15 11       		.byte	0x11
 2036 0b16 46       		.byte	0x46
 2037 0b17 B4000000 		.4byte	0xb4
 2038 0b1b 0A       		.byte	0xa
 2039 0b1c 00       		.byte	0
 2040 0b1d 04       		.uleb128 0x4
ARM GAS  /var/folders/m4/4md61f0s1_g0rzfghffqnxvr0000gn/T//ccTJVolh.s 			page 37


 2041 0b1e 86090000 		.4byte	.LASF164
 2042 0b22 11       		.byte	0x11
 2043 0b23 4E       		.byte	0x4e
 2044 0b24 D80A0000 		.4byte	0xad8
 2045 0b28 17       		.uleb128 0x17
 2046 0b29 14       		.byte	0x14
 2047 0b2a 11       		.byte	0x11
 2048 0b2b 54       		.byte	0x54
 2049 0b2c 910B0000 		.4byte	0xb91
 2050 0b30 06       		.uleb128 0x6
 2051 0b31 51070000 		.4byte	.LASF165
 2052 0b35 11       		.byte	0x11
 2053 0b36 56       		.byte	0x56
 2054 0b37 BF000000 		.4byte	0xbf
 2055 0b3b 00       		.byte	0
 2056 0b3c 06       		.uleb128 0x6
 2057 0b3d A8070000 		.4byte	.LASF166
 2058 0b41 11       		.byte	0x11
 2059 0b42 59       		.byte	0x59
 2060 0b43 BF000000 		.4byte	0xbf
 2061 0b47 02       		.byte	0x2
 2062 0b48 06       		.uleb128 0x6
 2063 0b49 2A080000 		.4byte	.LASF167
 2064 0b4d 11       		.byte	0x11
 2065 0b4e 5C       		.byte	0x5c
 2066 0b4f BF000000 		.4byte	0xbf
 2067 0b53 04       		.byte	0x4
 2068 0b54 06       		.uleb128 0x6
 2069 0b55 DB070000 		.4byte	.LASF168
 2070 0b59 11       		.byte	0x11
 2071 0b5a 60       		.byte	0x60
 2072 0b5b D5000000 		.4byte	0xd5
 2073 0b5f 08       		.byte	0x8
 2074 0b60 06       		.uleb128 0x6
 2075 0b61 F0010000 		.4byte	.LASF169
 2076 0b65 11       		.byte	0x11
 2077 0b66 63       		.byte	0x63
 2078 0b67 BF000000 		.4byte	0xbf
 2079 0b6b 0C       		.byte	0xc
 2080 0b6c 06       		.uleb128 0x6
 2081 0b6d 93030000 		.4byte	.LASF170
 2082 0b71 11       		.byte	0x11
 2083 0b72 66       		.byte	0x66
 2084 0b73 BF000000 		.4byte	0xbf
 2085 0b77 0E       		.byte	0xe
 2086 0b78 06       		.uleb128 0x6
 2087 0b79 70010000 		.4byte	.LASF171
 2088 0b7d 11       		.byte	0x11
 2089 0b7e 6A       		.byte	0x6a
 2090 0b7f BF000000 		.4byte	0xbf
 2091 0b83 10       		.byte	0x10
 2092 0b84 06       		.uleb128 0x6
 2093 0b85 6B060000 		.4byte	.LASF172
 2094 0b89 11       		.byte	0x11
 2095 0b8a 6E       		.byte	0x6e
 2096 0b8b BF000000 		.4byte	0xbf
 2097 0b8f 12       		.byte	0x12
ARM GAS  /var/folders/m4/4md61f0s1_g0rzfghffqnxvr0000gn/T//ccTJVolh.s 			page 38


 2098 0b90 00       		.byte	0
 2099 0b91 04       		.uleb128 0x4
 2100 0b92 59000000 		.4byte	.LASF173
 2101 0b96 11       		.byte	0x11
 2102 0b97 71       		.byte	0x71
 2103 0b98 280B0000 		.4byte	0xb28
 2104 0b9c 1C       		.uleb128 0x1c
 2105 0b9d CB040000 		.4byte	.LASF203
 2106 0ba1 01       		.byte	0x1
 2107 0ba2 B2       		.byte	0xb2
 2108 0ba3 D5000000 		.4byte	0xd5
 2109 0ba7 01       		.byte	0x1
 2110 0ba8 D30B0000 		.4byte	0xbd3
 2111 0bac 1D       		.uleb128 0x1d
 2112 0bad 06030000 		.4byte	.LASF180
 2113 0bb1 01       		.byte	0x1
 2114 0bb2 B2       		.byte	0xb2
 2115 0bb3 D5000000 		.4byte	0xd5
 2116 0bb7 1E       		.uleb128 0x1e
 2117 0bb8 7200     		.ascii	"r\000"
 2118 0bba 01       		.byte	0x1
 2119 0bbb B3       		.byte	0xb3
 2120 0bbc D5000000 		.4byte	0xd5
 2121 0bc0 1E       		.uleb128 0x1e
 2122 0bc1 6700     		.ascii	"g\000"
 2123 0bc3 01       		.byte	0x1
 2124 0bc4 B4       		.byte	0xb4
 2125 0bc5 D5000000 		.4byte	0xd5
 2126 0bc9 1E       		.uleb128 0x1e
 2127 0bca 6200     		.ascii	"b\000"
 2128 0bcc 01       		.byte	0x1
 2129 0bcd B5       		.byte	0xb5
 2130 0bce D5000000 		.4byte	0xd5
 2131 0bd2 00       		.byte	0
 2132 0bd3 1F       		.uleb128 0x1f
 2133 0bd4 09010000 		.4byte	.LASF178
 2134 0bd8 01       		.byte	0x1
 2135 0bd9 19       		.byte	0x19
 2136 0bda 00000000 		.4byte	.LFB268
 2137 0bde C8010000 		.4byte	.LFE268-.LFB268
 2138 0be2 01       		.uleb128 0x1
 2139 0be3 9C       		.byte	0x9c
 2140 0be4 2F0E0000 		.4byte	0xe2f
 2141 0be8 20       		.uleb128 0x20
 2142 0be9 C1080000 		.4byte	.LASF174
 2143 0bed 01       		.byte	0x1
 2144 0bee 1A       		.byte	0x1a
 2145 0bef 1D0B0000 		.4byte	0xb1d
 2146 0bf3 03       		.uleb128 0x3
 2147 0bf4 91       		.byte	0x91
 2148 0bf5 F47E     		.sleb128 -140
 2149 0bf7 20       		.uleb128 0x20
 2150 0bf8 97040000 		.4byte	.LASF175
 2151 0bfc 01       		.byte	0x1
 2152 0bfd 1B       		.byte	0x1b
 2153 0bfe 910B0000 		.4byte	0xb91
 2154 0c02 03       		.uleb128 0x3
ARM GAS  /var/folders/m4/4md61f0s1_g0rzfghffqnxvr0000gn/T//ccTJVolh.s 			page 39


 2155 0c03 91       		.byte	0x91
 2156 0c04 807F     		.sleb128 -128
 2157 0c06 20       		.uleb128 0x20
 2158 0c07 42010000 		.4byte	.LASF176
 2159 0c0b 01       		.byte	0x1
 2160 0c0c 1C       		.byte	0x1c
 2161 0c0d CD0A0000 		.4byte	0xacd
 2162 0c11 03       		.uleb128 0x3
 2163 0c12 91       		.byte	0x91
 2164 0c13 947F     		.sleb128 -108
 2165 0c15 21       		.uleb128 0x21
 2166 0c16 6900     		.ascii	"i\000"
 2167 0c18 01       		.byte	0x1
 2168 0c19 1F       		.byte	0x1f
 2169 0c1a 2C000000 		.4byte	0x2c
 2170 0c1e 00000000 		.4byte	.LLST0
 2171 0c22 21       		.uleb128 0x21
 2172 0c23 62697400 		.ascii	"bit\000"
 2173 0c27 01       		.byte	0x1
 2174 0c28 1F       		.byte	0x1f
 2175 0c29 2C000000 		.4byte	0x2c
 2176 0c2d 50000000 		.4byte	.LLST1
 2177 0c31 22       		.uleb128 0x22
 2178 0c32 28000000 		.4byte	.LBB12
 2179 0c36 3C000000 		.4byte	.LBE12-.LBB12
 2180 0c3a 8C0C0000 		.4byte	0xc8c
 2181 0c3e 23       		.uleb128 0x23
 2182 0c3f 5C070000 		.4byte	.LASF177
 2183 0c43 01       		.byte	0x1
 2184 0c44 26       		.byte	0x26
 2185 0c45 D5000000 		.4byte	0xd5
 2186 0c49 64000000 		.4byte	.LLST2
 2187 0c4d 24       		.uleb128 0x24
 2188 0c4e 9C0B0000 		.4byte	0xb9c
 2189 0c52 2C000000 		.4byte	.LBB13
 2190 0c56 22000000 		.4byte	.LBE13-.LBB13
 2191 0c5a 01       		.byte	0x1
 2192 0c5b 26       		.byte	0x26
 2193 0c5c 25       		.uleb128 0x25
 2194 0c5d AC0B0000 		.4byte	0xbac
 2195 0c61 77000000 		.4byte	.LLST3
 2196 0c65 26       		.uleb128 0x26
 2197 0c66 2C000000 		.4byte	.LBB14
 2198 0c6a 22000000 		.4byte	.LBE14-.LBB14
 2199 0c6e 27       		.uleb128 0x27
 2200 0c6f B70B0000 		.4byte	0xbb7
 2201 0c73 8A000000 		.4byte	.LLST4
 2202 0c77 27       		.uleb128 0x27
 2203 0c78 C00B0000 		.4byte	0xbc0
 2204 0c7c B4000000 		.4byte	.LLST5
 2205 0c80 27       		.uleb128 0x27
 2206 0c81 C90B0000 		.4byte	0xbc9
 2207 0c85 DE000000 		.4byte	.LLST6
 2208 0c89 00       		.byte	0
 2209 0c8a 00       		.byte	0
 2210 0c8b 00       		.byte	0
 2211 0c8c 28       		.uleb128 0x28
ARM GAS  /var/folders/m4/4md61f0s1_g0rzfghffqnxvr0000gn/T//ccTJVolh.s 			page 40


 2212 0c8d 00000000 		.4byte	.Ldebug_ranges0+0
 2213 0c91 D50C0000 		.4byte	0xcd5
 2214 0c95 21       		.uleb128 0x21
 2215 0c96 6900     		.ascii	"i\000"
 2216 0c98 01       		.byte	0x1
 2217 0c99 39       		.byte	0x39
 2218 0c9a 2C000000 		.4byte	0x2c
 2219 0c9e 06010000 		.4byte	.LLST7
 2220 0ca2 29       		.uleb128 0x29
 2221 0ca3 9A000000 		.4byte	.LVL17
 2222 0ca7 C70F0000 		.4byte	0xfc7
 2223 0cab CB0C0000 		.4byte	0xccb
 2224 0caf 2A       		.uleb128 0x2a
 2225 0cb0 02       		.uleb128 0x2
 2226 0cb1 90       		.byte	0x90
 2227 0cb2 41       		.uleb128 0x41
 2228 0cb3 07       		.uleb128 0x7
 2229 0cb4 F4       		.byte	0xf4
 2230 0cb5 25       		.uleb128 0x25
 2231 0cb6 04       		.byte	0x4
 2232 0cb7 E4380E40 		.4byte	0x400e38e4
 2233 0cbb 2A       		.uleb128 0x2a
 2234 0cbc 02       		.uleb128 0x2
 2235 0cbd 90       		.byte	0x90
 2236 0cbe 40       		.uleb128 0x40
 2237 0cbf 0A       		.uleb128 0xa
 2238 0cc0 74       		.byte	0x74
 2239 0cc1 00       		.sleb128 0
 2240 0cc2 F7       		.byte	0xf7
 2241 0cc3 2C       		.uleb128 0x2c
 2242 0cc4 F7       		.byte	0xf7
 2243 0cc5 25       		.uleb128 0x25
 2244 0cc6 F5       		.byte	0xf5
 2245 0cc7 50       		.uleb128 0x50
 2246 0cc8 25       		.uleb128 0x25
 2247 0cc9 1B       		.byte	0x1b
 2248 0cca 00       		.byte	0
 2249 0ccb 2B       		.uleb128 0x2b
 2250 0ccc A4000000 		.4byte	.LVL19
 2251 0cd0 E20F0000 		.4byte	0xfe2
 2252 0cd4 00       		.byte	0
 2253 0cd5 29       		.uleb128 0x29
 2254 0cd6 C6000000 		.4byte	.LVL20
 2255 0cda F80F0000 		.4byte	0xff8
 2256 0cde F90C0000 		.4byte	0xcf9
 2257 0ce2 2A       		.uleb128 0x2a
 2258 0ce3 01       		.uleb128 0x1
 2259 0ce4 52       		.byte	0x52
 2260 0ce5 03       		.uleb128 0x3
 2261 0ce6 0A       		.byte	0xa
 2262 0ce7 0A01     		.2byte	0x10a
 2263 0ce9 2A       		.uleb128 0x2a
 2264 0cea 01       		.uleb128 0x1
 2265 0ceb 51       		.byte	0x51
 2266 0cec 02       		.uleb128 0x2
 2267 0ced 74       		.byte	0x74
 2268 0cee 00       		.sleb128 0
ARM GAS  /var/folders/m4/4md61f0s1_g0rzfghffqnxvr0000gn/T//ccTJVolh.s 			page 41


 2269 0cef 2A       		.uleb128 0x2a
 2270 0cf0 01       		.uleb128 0x1
 2271 0cf1 50       		.byte	0x50
 2272 0cf2 05       		.uleb128 0x5
 2273 0cf3 0C       		.byte	0xc
 2274 0cf4 00040240 		.4byte	0x40020400
 2275 0cf8 00       		.byte	0
 2276 0cf9 29       		.uleb128 0x29
 2277 0cfa D0000000 		.4byte	.LVL21
 2278 0cfe 14100000 		.4byte	0x1014
 2279 0d02 130D0000 		.4byte	0xd13
 2280 0d06 2A       		.uleb128 0x2a
 2281 0d07 01       		.uleb128 0x1
 2282 0d08 51       		.byte	0x51
 2283 0d09 01       		.uleb128 0x1
 2284 0d0a 31       		.byte	0x31
 2285 0d0b 2A       		.uleb128 0x2a
 2286 0d0c 01       		.uleb128 0x1
 2287 0d0d 50       		.byte	0x50
 2288 0d0e 03       		.uleb128 0x3
 2289 0d0f 40       		.byte	0x40
 2290 0d10 41       		.byte	0x41
 2291 0d11 24       		.byte	0x24
 2292 0d12 00       		.byte	0
 2293 0d13 29       		.uleb128 0x29
 2294 0d14 D6000000 		.4byte	.LVL22
 2295 0d18 2B100000 		.4byte	0x102b
 2296 0d1c 2A0D0000 		.4byte	0xd2a
 2297 0d20 2A       		.uleb128 0x2a
 2298 0d21 01       		.uleb128 0x1
 2299 0d22 50       		.byte	0x50
 2300 0d23 05       		.uleb128 0x5
 2301 0d24 0C       		.byte	0xc
 2302 0d25 B8600240 		.4byte	0x400260b8
 2303 0d29 00       		.byte	0
 2304 0d2a 29       		.uleb128 0x29
 2305 0d2b 28010000 		.4byte	.LVL24
 2306 0d2f 3D100000 		.4byte	0x103d
 2307 0d33 480D0000 		.4byte	0xd48
 2308 0d37 2A       		.uleb128 0x2a
 2309 0d38 01       		.uleb128 0x1
 2310 0d39 51       		.byte	0x51
 2311 0d3a 03       		.uleb128 0x3
 2312 0d3b 91       		.byte	0x91
 2313 0d3c 947F     		.sleb128 -108
 2314 0d3e 2A       		.uleb128 0x2a
 2315 0d3f 01       		.uleb128 0x1
 2316 0d40 50       		.byte	0x50
 2317 0d41 05       		.uleb128 0x5
 2318 0d42 0C       		.byte	0xc
 2319 0d43 B8600240 		.4byte	0x400260b8
 2320 0d47 00       		.byte	0
 2321 0d48 29       		.uleb128 0x29
 2322 0d49 30010000 		.4byte	.LVL25
 2323 0d4d 5A100000 		.4byte	0x105a
 2324 0d51 600D0000 		.4byte	0xd60
 2325 0d55 2A       		.uleb128 0x2a
ARM GAS  /var/folders/m4/4md61f0s1_g0rzfghffqnxvr0000gn/T//ccTJVolh.s 			page 42


 2326 0d56 01       		.uleb128 0x1
 2327 0d57 51       		.byte	0x51
 2328 0d58 01       		.uleb128 0x1
 2329 0d59 31       		.byte	0x31
 2330 0d5a 2A       		.uleb128 0x2a
 2331 0d5b 01       		.uleb128 0x1
 2332 0d5c 50       		.byte	0x50
 2333 0d5d 01       		.uleb128 0x1
 2334 0d5e 34       		.byte	0x34
 2335 0d5f 00       		.byte	0
 2336 0d60 29       		.uleb128 0x29
 2337 0d61 4E010000 		.4byte	.LVL27
 2338 0d65 71100000 		.4byte	0x1071
 2339 0d69 7E0D0000 		.4byte	0xd7e
 2340 0d6d 2A       		.uleb128 0x2a
 2341 0d6e 01       		.uleb128 0x1
 2342 0d6f 51       		.byte	0x51
 2343 0d70 03       		.uleb128 0x3
 2344 0d71 91       		.byte	0x91
 2345 0d72 F47E     		.sleb128 -140
 2346 0d74 2A       		.uleb128 0x2a
 2347 0d75 01       		.uleb128 0x1
 2348 0d76 50       		.byte	0x50
 2349 0d77 05       		.uleb128 0x5
 2350 0d78 0C       		.byte	0xc
 2351 0d79 00080040 		.4byte	0x40000800
 2352 0d7d 00       		.byte	0
 2353 0d7e 29       		.uleb128 0x29
 2354 0d7f 68010000 		.4byte	.LVL28
 2355 0d83 94100000 		.4byte	0x1094
 2356 0d87 9C0D0000 		.4byte	0xd9c
 2357 0d8b 2A       		.uleb128 0x2a
 2358 0d8c 01       		.uleb128 0x1
 2359 0d8d 51       		.byte	0x51
 2360 0d8e 03       		.uleb128 0x3
 2361 0d8f 91       		.byte	0x91
 2362 0d90 807F     		.sleb128 -128
 2363 0d92 2A       		.uleb128 0x2a
 2364 0d93 01       		.uleb128 0x1
 2365 0d94 50       		.byte	0x50
 2366 0d95 05       		.uleb128 0x5
 2367 0d96 0C       		.byte	0xc
 2368 0d97 00080040 		.4byte	0x40000800
 2369 0d9b 00       		.byte	0
 2370 0d9c 29       		.uleb128 0x29
 2371 0d9d 70010000 		.4byte	.LVL29
 2372 0da1 B1100000 		.4byte	0x10b1
 2373 0da5 B80D0000 		.4byte	0xdb8
 2374 0da9 2A       		.uleb128 0x2a
 2375 0daa 01       		.uleb128 0x1
 2376 0dab 51       		.byte	0x51
 2377 0dac 01       		.uleb128 0x1
 2378 0dad 38       		.byte	0x38
 2379 0dae 2A       		.uleb128 0x2a
 2380 0daf 01       		.uleb128 0x1
 2381 0db0 50       		.byte	0x50
 2382 0db1 05       		.uleb128 0x5
ARM GAS  /var/folders/m4/4md61f0s1_g0rzfghffqnxvr0000gn/T//ccTJVolh.s 			page 43


 2383 0db2 0C       		.byte	0xc
 2384 0db3 00080040 		.4byte	0x40000800
 2385 0db7 00       		.byte	0
 2386 0db8 29       		.uleb128 0x29
 2387 0db9 78010000 		.4byte	.LVL30
 2388 0dbd C8100000 		.4byte	0x10c8
 2389 0dc1 D50D0000 		.4byte	0xdd5
 2390 0dc5 2A       		.uleb128 0x2a
 2391 0dc6 01       		.uleb128 0x1
 2392 0dc7 51       		.byte	0x51
 2393 0dc8 02       		.uleb128 0x2
 2394 0dc9 74       		.byte	0x74
 2395 0dca 00       		.sleb128 0
 2396 0dcb 2A       		.uleb128 0x2a
 2397 0dcc 01       		.uleb128 0x1
 2398 0dcd 50       		.byte	0x50
 2399 0dce 05       		.uleb128 0x5
 2400 0dcf 0C       		.byte	0xc
 2401 0dd0 00080040 		.4byte	0x40000800
 2402 0dd4 00       		.byte	0
 2403 0dd5 29       		.uleb128 0x29
 2404 0dd6 80010000 		.4byte	.LVL31
 2405 0dda DF100000 		.4byte	0x10df
 2406 0dde F20D0000 		.4byte	0xdf2
 2407 0de2 2A       		.uleb128 0x2a
 2408 0de3 01       		.uleb128 0x1
 2409 0de4 51       		.byte	0x51
 2410 0de5 02       		.uleb128 0x2
 2411 0de6 74       		.byte	0x74
 2412 0de7 00       		.sleb128 0
 2413 0de8 2A       		.uleb128 0x2a
 2414 0de9 01       		.uleb128 0x1
 2415 0dea 50       		.byte	0x50
 2416 0deb 05       		.uleb128 0x5
 2417 0dec 0C       		.byte	0xc
 2418 0ded B8600240 		.4byte	0x400260b8
 2419 0df1 00       		.byte	0
 2420 0df2 29       		.uleb128 0x29
 2421 0df3 8A010000 		.4byte	.LVL32
 2422 0df7 F6100000 		.4byte	0x10f6
 2423 0dfb 150E0000 		.4byte	0xe15
 2424 0dff 2A       		.uleb128 0x2a
 2425 0e00 01       		.uleb128 0x1
 2426 0e01 52       		.byte	0x52
 2427 0e02 02       		.uleb128 0x2
 2428 0e03 74       		.byte	0x74
 2429 0e04 00       		.sleb128 0
 2430 0e05 2A       		.uleb128 0x2a
 2431 0e06 01       		.uleb128 0x1
 2432 0e07 51       		.byte	0x51
 2433 0e08 02       		.uleb128 0x2
 2434 0e09 76       		.byte	0x76
 2435 0e0a 00       		.sleb128 0
 2436 0e0b 2A       		.uleb128 0x2a
 2437 0e0c 01       		.uleb128 0x1
 2438 0e0d 50       		.byte	0x50
 2439 0e0e 05       		.uleb128 0x5
ARM GAS  /var/folders/m4/4md61f0s1_g0rzfghffqnxvr0000gn/T//ccTJVolh.s 			page 44


 2440 0e0f 0C       		.byte	0xc
 2441 0e10 00080040 		.4byte	0x40000800
 2442 0e14 00       		.byte	0
 2443 0e15 2C       		.uleb128 0x2c
 2444 0e16 92010000 		.4byte	.LVL33
 2445 0e1a 12110000 		.4byte	0x1112
 2446 0e1e 2A       		.uleb128 0x2a
 2447 0e1f 01       		.uleb128 0x1
 2448 0e20 51       		.byte	0x51
 2449 0e21 02       		.uleb128 0x2
 2450 0e22 74       		.byte	0x74
 2451 0e23 00       		.sleb128 0
 2452 0e24 2A       		.uleb128 0x2a
 2453 0e25 01       		.uleb128 0x1
 2454 0e26 50       		.byte	0x50
 2455 0e27 05       		.uleb128 0x5
 2456 0e28 0C       		.byte	0xc
 2457 0e29 00080040 		.4byte	0x40000800
 2458 0e2d 00       		.byte	0
 2459 0e2e 00       		.byte	0
 2460 0e2f 1F       		.uleb128 0x1f
 2461 0e30 09040000 		.4byte	.LASF179
 2462 0e34 01       		.byte	0x1
 2463 0e35 79       		.byte	0x79
 2464 0e36 00000000 		.4byte	.LFB269
 2465 0e3a 5C000000 		.4byte	.LFE269-.LFB269
 2466 0e3e 01       		.uleb128 0x1
 2467 0e3f 9C       		.byte	0x9c
 2468 0e40 B60E0000 		.4byte	0xeb6
 2469 0e44 2D       		.uleb128 0x2d
 2470 0e45 6C656400 		.ascii	"led\000"
 2471 0e49 01       		.byte	0x1
 2472 0e4a 79       		.byte	0x79
 2473 0e4b 2C000000 		.4byte	0x2c
 2474 0e4f 31010000 		.4byte	.LLST8
 2475 0e53 2E       		.uleb128 0x2e
 2476 0e54 06030000 		.4byte	.LASF180
 2477 0e58 01       		.byte	0x1
 2478 0e59 79       		.byte	0x79
 2479 0e5a D5000000 		.4byte	0xd5
 2480 0e5e 52010000 		.4byte	.LLST9
 2481 0e62 26       		.uleb128 0x26
 2482 0e63 06000000 		.4byte	.LBB17
 2483 0e67 46000000 		.4byte	.LBE17-.LBB17
 2484 0e6b 21       		.uleb128 0x21
 2485 0e6c 62697400 		.ascii	"bit\000"
 2486 0e70 01       		.byte	0x1
 2487 0e71 7F       		.byte	0x7f
 2488 0e72 2C000000 		.4byte	0x2c
 2489 0e76 99010000 		.4byte	.LLST10
 2490 0e7a 2F       		.uleb128 0x2f
 2491 0e7b 9C0B0000 		.4byte	0xb9c
 2492 0e7f 08000000 		.4byte	.LBB18
 2493 0e83 18000000 		.4byte	.Ldebug_ranges0+0x18
 2494 0e87 01       		.byte	0x1
 2495 0e88 7D       		.byte	0x7d
 2496 0e89 25       		.uleb128 0x25
ARM GAS  /var/folders/m4/4md61f0s1_g0rzfghffqnxvr0000gn/T//ccTJVolh.s 			page 45


 2497 0e8a AC0B0000 		.4byte	0xbac
 2498 0e8e AD010000 		.4byte	.LLST11
 2499 0e92 30       		.uleb128 0x30
 2500 0e93 18000000 		.4byte	.Ldebug_ranges0+0x18
 2501 0e97 27       		.uleb128 0x27
 2502 0e98 B70B0000 		.4byte	0xbb7
 2503 0e9c E9010000 		.4byte	.LLST12
 2504 0ea0 27       		.uleb128 0x27
 2505 0ea1 C00B0000 		.4byte	0xbc0
 2506 0ea5 60020000 		.4byte	.LLST13
 2507 0ea9 27       		.uleb128 0x27
 2508 0eaa C90B0000 		.4byte	0xbc9
 2509 0eae B2020000 		.4byte	.LLST14
 2510 0eb2 00       		.byte	0
 2511 0eb3 00       		.byte	0
 2512 0eb4 00       		.byte	0
 2513 0eb5 00       		.byte	0
 2514 0eb6 31       		.uleb128 0x31
 2515 0eb7 E0040000 		.4byte	.LASF204
 2516 0ebb 01       		.byte	0x1
 2517 0ebc 8B       		.byte	0x8b
 2518 0ebd D5000000 		.4byte	0xd5
 2519 0ec1 00000000 		.4byte	.LFB270
 2520 0ec5 14000000 		.4byte	.LFE270-.LFB270
 2521 0ec9 01       		.uleb128 0x1
 2522 0eca 9C       		.byte	0x9c
 2523 0ecb DF0E0000 		.4byte	0xedf
 2524 0ecf 2D       		.uleb128 0x2d
 2525 0ed0 6C656400 		.ascii	"led\000"
 2526 0ed4 01       		.byte	0x1
 2527 0ed5 8B       		.byte	0x8b
 2528 0ed6 2C000000 		.4byte	0x2c
 2529 0eda 33030000 		.4byte	.LLST15
 2530 0ede 00       		.byte	0
 2531 0edf 1F       		.uleb128 0x1f
 2532 0ee0 EF090000 		.4byte	.LASF181
 2533 0ee4 01       		.byte	0x1
 2534 0ee5 93       		.byte	0x93
 2535 0ee6 00000000 		.4byte	.LFB271
 2536 0eea 28000000 		.4byte	.LFE271-.LFB271
 2537 0eee 01       		.uleb128 0x1
 2538 0eef 9C       		.byte	0x9c
 2539 0ef0 020F0000 		.4byte	0xf02
 2540 0ef4 21       		.uleb128 0x21
 2541 0ef5 6900     		.ascii	"i\000"
 2542 0ef7 01       		.byte	0x1
 2543 0ef8 94       		.byte	0x94
 2544 0ef9 2C000000 		.4byte	0x2c
 2545 0efd 54030000 		.4byte	.LLST16
 2546 0f01 00       		.byte	0
 2547 0f02 1F       		.uleb128 0x1f
 2548 0f03 74080000 		.4byte	.LASF182
 2549 0f07 01       		.byte	0x1
 2550 0f08 9F       		.byte	0x9f
 2551 0f09 00000000 		.4byte	.LFB272
 2552 0f0d 5C000000 		.4byte	.LFE272-.LFB272
 2553 0f11 01       		.uleb128 0x1
ARM GAS  /var/folders/m4/4md61f0s1_g0rzfghffqnxvr0000gn/T//ccTJVolh.s 			page 46


 2554 0f12 9C       		.byte	0x9c
 2555 0f13 580F0000 		.4byte	0xf58
 2556 0f17 32       		.uleb128 0x32
 2557 0f18 06030000 		.4byte	.LASF180
 2558 0f1c 01       		.byte	0x1
 2559 0f1d 9F       		.byte	0x9f
 2560 0f1e D5000000 		.4byte	0xd5
 2561 0f22 01       		.uleb128 0x1
 2562 0f23 50       		.byte	0x50
 2563 0f24 21       		.uleb128 0x21
 2564 0f25 6900     		.ascii	"i\000"
 2565 0f27 01       		.byte	0x1
 2566 0f28 A0       		.byte	0xa0
 2567 0f29 2C000000 		.4byte	0x2c
 2568 0f2d 98030000 		.4byte	.LLST17
 2569 0f31 21       		.uleb128 0x21
 2570 0f32 62697400 		.ascii	"bit\000"
 2571 0f36 01       		.byte	0x1
 2572 0f37 A0       		.byte	0xa0
 2573 0f38 2C000000 		.4byte	0x2c
 2574 0f3c AC030000 		.4byte	.LLST18
 2575 0f40 26       		.uleb128 0x26
 2576 0f41 26000000 		.4byte	.LBB24
 2577 0f45 24000000 		.4byte	.LBE24-.LBB24
 2578 0f49 20       		.uleb128 0x20
 2579 0f4a 5C070000 		.4byte	.LASF177
 2580 0f4e 01       		.byte	0x1
 2581 0f4f A5       		.byte	0xa5
 2582 0f50 D5000000 		.4byte	0xd5
 2583 0f54 01       		.uleb128 0x1
 2584 0f55 52       		.byte	0x52
 2585 0f56 00       		.byte	0
 2586 0f57 00       		.byte	0
 2587 0f58 10       		.uleb128 0x10
 2588 0f59 BF000000 		.4byte	0xbf
 2589 0f5d 680F0000 		.4byte	0xf68
 2590 0f61 11       		.uleb128 0x11
 2591 0f62 87040000 		.4byte	0x487
 2592 0f66 A9       		.byte	0xa9
 2593 0f67 00       		.byte	0
 2594 0f68 20       		.uleb128 0x20
 2595 0f69 7C060000 		.4byte	.LASF183
 2596 0f6d 01       		.byte	0x1
 2597 0f6e 12       		.byte	0x12
 2598 0f6f 580F0000 		.4byte	0xf58
 2599 0f73 05       		.uleb128 0x5
 2600 0f74 03       		.byte	0x3
 2601 0f75 00000000 		.4byte	bitbuffer
 2602 0f79 20       		.uleb128 0x20
 2603 0f7a 01010000 		.4byte	.LASF184
 2604 0f7e 01       		.byte	0x1
 2605 0f7f 13       		.byte	0x13
 2606 0f80 93040000 		.4byte	0x493
 2607 0f84 05       		.uleb128 0x5
 2608 0f85 03       		.byte	0x3
 2609 0f86 00000000 		.4byte	RGBdata
 2610 0f8a 10       		.uleb128 0x10
ARM GAS  /var/folders/m4/4md61f0s1_g0rzfghffqnxvr0000gn/T//ccTJVolh.s 			page 47


 2611 0f8b B4000000 		.4byte	0xb4
 2612 0f8f 9A0F0000 		.4byte	0xf9a
 2613 0f93 11       		.uleb128 0x11
 2614 0f94 87040000 		.4byte	0x487
 2615 0f98 FF       		.byte	0xff
 2616 0f99 00       		.byte	0
 2617 0f9a 20       		.uleb128 0x20
 2618 0f9b 290A0000 		.4byte	.LASF185
 2619 0f9f 01       		.byte	0x1
 2620 0fa0 14       		.byte	0x14
 2621 0fa1 8A0F0000 		.4byte	0xf8a
 2622 0fa5 05       		.uleb128 0x5
 2623 0fa6 03       		.byte	0x3
 2624 0fa7 00000000 		.4byte	gamma_table
 2625 0fab 33       		.uleb128 0x33
 2626 0fac C4070000 		.4byte	.LASF186
 2627 0fb0 14       		.byte	0x14
 2628 0fb1 FA06     		.2byte	0x6fa
 2629 0fb3 B70F0000 		.4byte	0xfb7
 2630 0fb7 0F       		.uleb128 0xf
 2631 0fb8 CA000000 		.4byte	0xca
 2632 0fbc 34       		.uleb128 0x34
 2633 0fbd 636800   		.ascii	"ch\000"
 2634 0fc0 07       		.byte	0x7
 2635 0fc1 0902     		.2byte	0x209
 2636 0fc3 20040000 		.4byte	0x420
 2637 0fc7 35       		.uleb128 0x35
 2638 0fc8 24010000 		.4byte	.LASF187
 2639 0fcc 12       		.byte	0x12
 2640 0fcd 5301     		.2byte	0x153
 2641 0fcf 25000000 		.4byte	0x25
 2642 0fd3 E20F0000 		.4byte	0xfe2
 2643 0fd7 0C       		.uleb128 0xc
 2644 0fd8 25000000 		.4byte	0x25
 2645 0fdc 0C       		.uleb128 0xc
 2646 0fdd 25000000 		.4byte	0x25
 2647 0fe1 00       		.byte	0
 2648 0fe2 35       		.uleb128 0x35
 2649 0fe3 85030000 		.4byte	.LASF188
 2650 0fe7 12       		.byte	0x12
 2651 0fe8 6001     		.2byte	0x160
 2652 0fea 25000000 		.4byte	0x25
 2653 0fee F80F0000 		.4byte	0xff8
 2654 0ff2 0C       		.uleb128 0xc
 2655 0ff3 25000000 		.4byte	0x25
 2656 0ff7 00       		.byte	0
 2657 0ff8 36       		.uleb128 0x36
 2658 0ff9 5B090000 		.4byte	.LASF189
 2659 0ffd 0F       		.byte	0xf
 2660 0ffe 2402     		.2byte	0x224
 2661 1000 14100000 		.4byte	0x1014
 2662 1004 0C       		.uleb128 0xc
 2663 1005 F0090000 		.4byte	0x9f0
 2664 1009 0C       		.uleb128 0xc
 2665 100a D8090000 		.4byte	0x9d8
 2666 100e 0C       		.uleb128 0xc
 2667 100f E4090000 		.4byte	0x9e4
ARM GAS  /var/folders/m4/4md61f0s1_g0rzfghffqnxvr0000gn/T//ccTJVolh.s 			page 48


 2668 1013 00       		.byte	0
 2669 1014 36       		.uleb128 0x36
 2670 1015 CA030000 		.4byte	.LASF190
 2671 1019 13       		.byte	0x13
 2672 101a 5803     		.2byte	0x358
 2673 101c 2B100000 		.4byte	0x102b
 2674 1020 0C       		.uleb128 0xc
 2675 1021 D5000000 		.4byte	0xd5
 2676 1025 0C       		.uleb128 0xc
 2677 1026 40060000 		.4byte	0x640
 2678 102a 00       		.byte	0
 2679 102b 36       		.uleb128 0x36
 2680 102c 37090000 		.4byte	.LASF191
 2681 1030 10       		.byte	0x10
 2682 1031 3202     		.2byte	0x232
 2683 1033 3D100000 		.4byte	0x103d
 2684 1037 0C       		.uleb128 0xc
 2685 1038 F2080000 		.4byte	0x8f2
 2686 103c 00       		.byte	0
 2687 103d 36       		.uleb128 0x36
 2688 103e C5000000 		.4byte	.LASF192
 2689 1042 10       		.byte	0x10
 2690 1043 3502     		.2byte	0x235
 2691 1045 54100000 		.4byte	0x1054
 2692 1049 0C       		.uleb128 0xc
 2693 104a F2080000 		.4byte	0x8f2
 2694 104e 0C       		.uleb128 0xc
 2695 104f 54100000 		.4byte	0x1054
 2696 1053 00       		.byte	0
 2697 1054 09       		.uleb128 0x9
 2698 1055 04       		.byte	0x4
 2699 1056 CD0A0000 		.4byte	0xacd
 2700 105a 36       		.uleb128 0x36
 2701 105b E9030000 		.4byte	.LASF193
 2702 105f 13       		.byte	0x13
 2703 1060 5B03     		.2byte	0x35b
 2704 1062 71100000 		.4byte	0x1071
 2705 1066 0C       		.uleb128 0xc
 2706 1067 D5000000 		.4byte	0xd5
 2707 106b 0C       		.uleb128 0xc
 2708 106c 40060000 		.4byte	0x640
 2709 1070 00       		.byte	0
 2710 1071 36       		.uleb128 0x36
 2711 1072 A3030000 		.4byte	.LASF194
 2712 1076 11       		.byte	0x11
 2713 1077 0304     		.2byte	0x403
 2714 1079 88100000 		.4byte	0x1088
 2715 107d 0C       		.uleb128 0xc
 2716 107e 88100000 		.4byte	0x1088
 2717 1082 0C       		.uleb128 0xc
 2718 1083 8E100000 		.4byte	0x108e
 2719 1087 00       		.byte	0
 2720 1088 09       		.uleb128 0x9
 2721 1089 04       		.byte	0x4
 2722 108a 1F060000 		.4byte	0x61f
 2723 108e 09       		.uleb128 0x9
 2724 108f 04       		.byte	0x4
ARM GAS  /var/folders/m4/4md61f0s1_g0rzfghffqnxvr0000gn/T//ccTJVolh.s 			page 49


 2725 1090 1D0B0000 		.4byte	0xb1d
 2726 1094 36       		.uleb128 0x36
 2727 1095 04090000 		.4byte	.LASF195
 2728 1099 11       		.byte	0x11
 2729 109a 1504     		.2byte	0x415
 2730 109c AB100000 		.4byte	0x10ab
 2731 10a0 0C       		.uleb128 0xc
 2732 10a1 88100000 		.4byte	0x1088
 2733 10a5 0C       		.uleb128 0xc
 2734 10a6 AB100000 		.4byte	0x10ab
 2735 10aa 00       		.byte	0
 2736 10ab 09       		.uleb128 0x9
 2737 10ac 04       		.byte	0x4
 2738 10ad 910B0000 		.4byte	0xb91
 2739 10b1 36       		.uleb128 0x36
 2740 10b2 73000000 		.4byte	.LASF196
 2741 10b6 11       		.byte	0x11
 2742 10b7 2304     		.2byte	0x423
 2743 10b9 C8100000 		.4byte	0x10c8
 2744 10bd 0C       		.uleb128 0xc
 2745 10be 88100000 		.4byte	0x1088
 2746 10c2 0C       		.uleb128 0xc
 2747 10c3 BF000000 		.4byte	0xbf
 2748 10c7 00       		.byte	0
 2749 10c8 36       		.uleb128 0x36
 2750 10c9 2A030000 		.4byte	.LASF197
 2751 10cd 11       		.byte	0x11
 2752 10ce 1004     		.2byte	0x410
 2753 10d0 DF100000 		.4byte	0x10df
 2754 10d4 0C       		.uleb128 0xc
 2755 10d5 88100000 		.4byte	0x1088
 2756 10d9 0C       		.uleb128 0xc
 2757 10da 40060000 		.4byte	0x640
 2758 10de 00       		.byte	0
 2759 10df 36       		.uleb128 0x36
 2760 10e0 6B000000 		.4byte	.LASF198
 2761 10e4 10       		.byte	0x10
 2762 10e5 3702     		.2byte	0x237
 2763 10e7 F6100000 		.4byte	0x10f6
 2764 10eb 0C       		.uleb128 0xc
 2765 10ec F2080000 		.4byte	0x8f2
 2766 10f0 0C       		.uleb128 0xc
 2767 10f1 40060000 		.4byte	0x640
 2768 10f5 00       		.byte	0
 2769 10f6 36       		.uleb128 0x36
 2770 10f7 4A080000 		.4byte	.LASF199
 2771 10fb 11       		.byte	0x11
 2772 10fc 5304     		.2byte	0x453
 2773 10fe 12110000 		.4byte	0x1112
 2774 1102 0C       		.uleb128 0xc
 2775 1103 88100000 		.4byte	0x1088
 2776 1107 0C       		.uleb128 0xc
 2777 1108 BF000000 		.4byte	0xbf
 2778 110c 0C       		.uleb128 0xc
 2779 110d 40060000 		.4byte	0x640
 2780 1111 00       		.byte	0
 2781 1112 37       		.uleb128 0x37
ARM GAS  /var/folders/m4/4md61f0s1_g0rzfghffqnxvr0000gn/T//ccTJVolh.s 			page 50


 2782 1113 08080000 		.4byte	.LASF205
 2783 1117 11       		.byte	0x11
 2784 1118 4704     		.2byte	0x447
 2785 111a 0C       		.uleb128 0xc
 2786 111b 88100000 		.4byte	0x1088
 2787 111f 0C       		.uleb128 0xc
 2788 1120 40060000 		.4byte	0x640
 2789 1124 00       		.byte	0
 2790 1125 00       		.byte	0
 2791              		.section	.debug_abbrev,"",%progbits
 2792              	.Ldebug_abbrev0:
 2793 0000 01       		.uleb128 0x1
 2794 0001 11       		.uleb128 0x11
 2795 0002 01       		.byte	0x1
 2796 0003 25       		.uleb128 0x25
 2797 0004 0E       		.uleb128 0xe
 2798 0005 13       		.uleb128 0x13
 2799 0006 0B       		.uleb128 0xb
 2800 0007 03       		.uleb128 0x3
 2801 0008 0E       		.uleb128 0xe
 2802 0009 1B       		.uleb128 0x1b
 2803 000a 0E       		.uleb128 0xe
 2804 000b 55       		.uleb128 0x55
 2805 000c 17       		.uleb128 0x17
 2806 000d 11       		.uleb128 0x11
 2807 000e 01       		.uleb128 0x1
 2808 000f 10       		.uleb128 0x10
 2809 0010 17       		.uleb128 0x17
 2810 0011 00       		.byte	0
 2811 0012 00       		.byte	0
 2812 0013 02       		.uleb128 0x2
 2813 0014 24       		.uleb128 0x24
 2814 0015 00       		.byte	0
 2815 0016 0B       		.uleb128 0xb
 2816 0017 0B       		.uleb128 0xb
 2817 0018 3E       		.uleb128 0x3e
 2818 0019 0B       		.uleb128 0xb
 2819 001a 03       		.uleb128 0x3
 2820 001b 0E       		.uleb128 0xe
 2821 001c 00       		.byte	0
 2822 001d 00       		.byte	0
 2823 001e 03       		.uleb128 0x3
 2824 001f 24       		.uleb128 0x24
 2825 0020 00       		.byte	0
 2826 0021 0B       		.uleb128 0xb
 2827 0022 0B       		.uleb128 0xb
 2828 0023 3E       		.uleb128 0x3e
 2829 0024 0B       		.uleb128 0xb
 2830 0025 03       		.uleb128 0x3
 2831 0026 08       		.uleb128 0x8
 2832 0027 00       		.byte	0
 2833 0028 00       		.byte	0
 2834 0029 04       		.uleb128 0x4
 2835 002a 16       		.uleb128 0x16
 2836 002b 00       		.byte	0
 2837 002c 03       		.uleb128 0x3
 2838 002d 0E       		.uleb128 0xe
ARM GAS  /var/folders/m4/4md61f0s1_g0rzfghffqnxvr0000gn/T//ccTJVolh.s 			page 51


 2839 002e 3A       		.uleb128 0x3a
 2840 002f 0B       		.uleb128 0xb
 2841 0030 3B       		.uleb128 0x3b
 2842 0031 0B       		.uleb128 0xb
 2843 0032 49       		.uleb128 0x49
 2844 0033 13       		.uleb128 0x13
 2845 0034 00       		.byte	0
 2846 0035 00       		.byte	0
 2847 0036 05       		.uleb128 0x5
 2848 0037 13       		.uleb128 0x13
 2849 0038 01       		.byte	0x1
 2850 0039 03       		.uleb128 0x3
 2851 003a 0E       		.uleb128 0xe
 2852 003b 0B       		.uleb128 0xb
 2853 003c 0B       		.uleb128 0xb
 2854 003d 3A       		.uleb128 0x3a
 2855 003e 0B       		.uleb128 0xb
 2856 003f 3B       		.uleb128 0x3b
 2857 0040 0B       		.uleb128 0xb
 2858 0041 01       		.uleb128 0x1
 2859 0042 13       		.uleb128 0x13
 2860 0043 00       		.byte	0
 2861 0044 00       		.byte	0
 2862 0045 06       		.uleb128 0x6
 2863 0046 0D       		.uleb128 0xd
 2864 0047 00       		.byte	0
 2865 0048 03       		.uleb128 0x3
 2866 0049 0E       		.uleb128 0xe
 2867 004a 3A       		.uleb128 0x3a
 2868 004b 0B       		.uleb128 0xb
 2869 004c 3B       		.uleb128 0x3b
 2870 004d 0B       		.uleb128 0xb
 2871 004e 49       		.uleb128 0x49
 2872 004f 13       		.uleb128 0x13
 2873 0050 38       		.uleb128 0x38
 2874 0051 0B       		.uleb128 0xb
 2875 0052 00       		.byte	0
 2876 0053 00       		.byte	0
 2877 0054 07       		.uleb128 0x7
 2878 0055 0D       		.uleb128 0xd
 2879 0056 00       		.byte	0
 2880 0057 03       		.uleb128 0x3
 2881 0058 08       		.uleb128 0x8
 2882 0059 3A       		.uleb128 0x3a
 2883 005a 0B       		.uleb128 0xb
 2884 005b 3B       		.uleb128 0x3b
 2885 005c 05       		.uleb128 0x5
 2886 005d 49       		.uleb128 0x49
 2887 005e 13       		.uleb128 0x13
 2888 005f 38       		.uleb128 0x38
 2889 0060 0B       		.uleb128 0xb
 2890 0061 00       		.byte	0
 2891 0062 00       		.byte	0
 2892 0063 08       		.uleb128 0x8
 2893 0064 0D       		.uleb128 0xd
 2894 0065 00       		.byte	0
 2895 0066 03       		.uleb128 0x3
ARM GAS  /var/folders/m4/4md61f0s1_g0rzfghffqnxvr0000gn/T//ccTJVolh.s 			page 52


 2896 0067 0E       		.uleb128 0xe
 2897 0068 3A       		.uleb128 0x3a
 2898 0069 0B       		.uleb128 0xb
 2899 006a 3B       		.uleb128 0x3b
 2900 006b 05       		.uleb128 0x5
 2901 006c 49       		.uleb128 0x49
 2902 006d 13       		.uleb128 0x13
 2903 006e 38       		.uleb128 0x38
 2904 006f 0B       		.uleb128 0xb
 2905 0070 00       		.byte	0
 2906 0071 00       		.byte	0
 2907 0072 09       		.uleb128 0x9
 2908 0073 0F       		.uleb128 0xf
 2909 0074 00       		.byte	0
 2910 0075 0B       		.uleb128 0xb
 2911 0076 0B       		.uleb128 0xb
 2912 0077 49       		.uleb128 0x49
 2913 0078 13       		.uleb128 0x13
 2914 0079 00       		.byte	0
 2915 007a 00       		.byte	0
 2916 007b 0A       		.uleb128 0xa
 2917 007c 13       		.uleb128 0x13
 2918 007d 01       		.byte	0x1
 2919 007e 03       		.uleb128 0x3
 2920 007f 0E       		.uleb128 0xe
 2921 0080 0B       		.uleb128 0xb
 2922 0081 0B       		.uleb128 0xb
 2923 0082 3A       		.uleb128 0x3a
 2924 0083 0B       		.uleb128 0xb
 2925 0084 3B       		.uleb128 0x3b
 2926 0085 05       		.uleb128 0x5
 2927 0086 01       		.uleb128 0x1
 2928 0087 13       		.uleb128 0x13
 2929 0088 00       		.byte	0
 2930 0089 00       		.byte	0
 2931 008a 0B       		.uleb128 0xb
 2932 008b 15       		.uleb128 0x15
 2933 008c 01       		.byte	0x1
 2934 008d 27       		.uleb128 0x27
 2935 008e 19       		.uleb128 0x19
 2936 008f 01       		.uleb128 0x1
 2937 0090 13       		.uleb128 0x13
 2938 0091 00       		.byte	0
 2939 0092 00       		.byte	0
 2940 0093 0C       		.uleb128 0xc
 2941 0094 05       		.uleb128 0x5
 2942 0095 00       		.byte	0
 2943 0096 49       		.uleb128 0x49
 2944 0097 13       		.uleb128 0x13
 2945 0098 00       		.byte	0
 2946 0099 00       		.byte	0
 2947 009a 0D       		.uleb128 0xd
 2948 009b 0F       		.uleb128 0xf
 2949 009c 00       		.byte	0
 2950 009d 0B       		.uleb128 0xb
 2951 009e 0B       		.uleb128 0xb
 2952 009f 00       		.byte	0
ARM GAS  /var/folders/m4/4md61f0s1_g0rzfghffqnxvr0000gn/T//ccTJVolh.s 			page 53


 2953 00a0 00       		.byte	0
 2954 00a1 0E       		.uleb128 0xe
 2955 00a2 13       		.uleb128 0x13
 2956 00a3 01       		.byte	0x1
 2957 00a4 03       		.uleb128 0x3
 2958 00a5 0E       		.uleb128 0xe
 2959 00a6 0B       		.uleb128 0xb
 2960 00a7 05       		.uleb128 0x5
 2961 00a8 3A       		.uleb128 0x3a
 2962 00a9 0B       		.uleb128 0xb
 2963 00aa 3B       		.uleb128 0x3b
 2964 00ab 05       		.uleb128 0x5
 2965 00ac 01       		.uleb128 0x1
 2966 00ad 13       		.uleb128 0x13
 2967 00ae 00       		.byte	0
 2968 00af 00       		.byte	0
 2969 00b0 0F       		.uleb128 0xf
 2970 00b1 35       		.uleb128 0x35
 2971 00b2 00       		.byte	0
 2972 00b3 49       		.uleb128 0x49
 2973 00b4 13       		.uleb128 0x13
 2974 00b5 00       		.byte	0
 2975 00b6 00       		.byte	0
 2976 00b7 10       		.uleb128 0x10
 2977 00b8 01       		.uleb128 0x1
 2978 00b9 01       		.byte	0x1
 2979 00ba 49       		.uleb128 0x49
 2980 00bb 13       		.uleb128 0x13
 2981 00bc 01       		.uleb128 0x1
 2982 00bd 13       		.uleb128 0x13
 2983 00be 00       		.byte	0
 2984 00bf 00       		.byte	0
 2985 00c0 11       		.uleb128 0x11
 2986 00c1 21       		.uleb128 0x21
 2987 00c2 00       		.byte	0
 2988 00c3 49       		.uleb128 0x49
 2989 00c4 13       		.uleb128 0x13
 2990 00c5 2F       		.uleb128 0x2f
 2991 00c6 0B       		.uleb128 0xb
 2992 00c7 00       		.byte	0
 2993 00c8 00       		.byte	0
 2994 00c9 12       		.uleb128 0x12
 2995 00ca 13       		.uleb128 0x13
 2996 00cb 01       		.byte	0x1
 2997 00cc 0B       		.uleb128 0xb
 2998 00cd 0B       		.uleb128 0xb
 2999 00ce 3A       		.uleb128 0x3a
 3000 00cf 0B       		.uleb128 0xb
 3001 00d0 3B       		.uleb128 0x3b
 3002 00d1 05       		.uleb128 0x5
 3003 00d2 01       		.uleb128 0x1
 3004 00d3 13       		.uleb128 0x13
 3005 00d4 00       		.byte	0
 3006 00d5 00       		.byte	0
 3007 00d6 13       		.uleb128 0x13
 3008 00d7 16       		.uleb128 0x16
 3009 00d8 00       		.byte	0
ARM GAS  /var/folders/m4/4md61f0s1_g0rzfghffqnxvr0000gn/T//ccTJVolh.s 			page 54


 3010 00d9 03       		.uleb128 0x3
 3011 00da 0E       		.uleb128 0xe
 3012 00db 3A       		.uleb128 0x3a
 3013 00dc 0B       		.uleb128 0xb
 3014 00dd 3B       		.uleb128 0x3b
 3015 00de 05       		.uleb128 0x5
 3016 00df 49       		.uleb128 0x49
 3017 00e0 13       		.uleb128 0x13
 3018 00e1 00       		.byte	0
 3019 00e2 00       		.byte	0
 3020 00e3 14       		.uleb128 0x14
 3021 00e4 04       		.uleb128 0x4
 3022 00e5 01       		.byte	0x1
 3023 00e6 0B       		.uleb128 0xb
 3024 00e7 0B       		.uleb128 0xb
 3025 00e8 3A       		.uleb128 0x3a
 3026 00e9 0B       		.uleb128 0xb
 3027 00ea 3B       		.uleb128 0x3b
 3028 00eb 0B       		.uleb128 0xb
 3029 00ec 01       		.uleb128 0x1
 3030 00ed 13       		.uleb128 0x13
 3031 00ee 00       		.byte	0
 3032 00ef 00       		.byte	0
 3033 00f0 15       		.uleb128 0x15
 3034 00f1 28       		.uleb128 0x28
 3035 00f2 00       		.byte	0
 3036 00f3 03       		.uleb128 0x3
 3037 00f4 0E       		.uleb128 0xe
 3038 00f5 1C       		.uleb128 0x1c
 3039 00f6 0D       		.uleb128 0xd
 3040 00f7 00       		.byte	0
 3041 00f8 00       		.byte	0
 3042 00f9 16       		.uleb128 0x16
 3043 00fa 0D       		.uleb128 0xd
 3044 00fb 00       		.byte	0
 3045 00fc 03       		.uleb128 0x3
 3046 00fd 08       		.uleb128 0x8
 3047 00fe 3A       		.uleb128 0x3a
 3048 00ff 0B       		.uleb128 0xb
 3049 0100 3B       		.uleb128 0x3b
 3050 0101 0B       		.uleb128 0xb
 3051 0102 49       		.uleb128 0x49
 3052 0103 13       		.uleb128 0x13
 3053 0104 38       		.uleb128 0x38
 3054 0105 0B       		.uleb128 0xb
 3055 0106 00       		.byte	0
 3056 0107 00       		.byte	0
 3057 0108 17       		.uleb128 0x17
 3058 0109 13       		.uleb128 0x13
 3059 010a 01       		.byte	0x1
 3060 010b 0B       		.uleb128 0xb
 3061 010c 0B       		.uleb128 0xb
 3062 010d 3A       		.uleb128 0x3a
 3063 010e 0B       		.uleb128 0xb
 3064 010f 3B       		.uleb128 0x3b
 3065 0110 0B       		.uleb128 0xb
 3066 0111 01       		.uleb128 0x1
ARM GAS  /var/folders/m4/4md61f0s1_g0rzfghffqnxvr0000gn/T//ccTJVolh.s 			page 55


 3067 0112 13       		.uleb128 0x13
 3068 0113 00       		.byte	0
 3069 0114 00       		.byte	0
 3070 0115 18       		.uleb128 0x18
 3071 0116 17       		.uleb128 0x17
 3072 0117 01       		.byte	0x1
 3073 0118 0B       		.uleb128 0xb
 3074 0119 0B       		.uleb128 0xb
 3075 011a 3A       		.uleb128 0x3a
 3076 011b 0B       		.uleb128 0xb
 3077 011c 3B       		.uleb128 0x3b
 3078 011d 0B       		.uleb128 0xb
 3079 011e 01       		.uleb128 0x1
 3080 011f 13       		.uleb128 0x13
 3081 0120 00       		.byte	0
 3082 0121 00       		.byte	0
 3083 0122 19       		.uleb128 0x19
 3084 0123 0D       		.uleb128 0xd
 3085 0124 00       		.byte	0
 3086 0125 03       		.uleb128 0x3
 3087 0126 0E       		.uleb128 0xe
 3088 0127 3A       		.uleb128 0x3a
 3089 0128 0B       		.uleb128 0xb
 3090 0129 3B       		.uleb128 0x3b
 3091 012a 05       		.uleb128 0x5
 3092 012b 49       		.uleb128 0x49
 3093 012c 13       		.uleb128 0x13
 3094 012d 00       		.byte	0
 3095 012e 00       		.byte	0
 3096 012f 1A       		.uleb128 0x1a
 3097 0130 26       		.uleb128 0x26
 3098 0131 00       		.byte	0
 3099 0132 49       		.uleb128 0x49
 3100 0133 13       		.uleb128 0x13
 3101 0134 00       		.byte	0
 3102 0135 00       		.byte	0
 3103 0136 1B       		.uleb128 0x1b
 3104 0137 0D       		.uleb128 0xd
 3105 0138 00       		.byte	0
 3106 0139 03       		.uleb128 0x3
 3107 013a 08       		.uleb128 0x8
 3108 013b 3A       		.uleb128 0x3a
 3109 013c 0B       		.uleb128 0xb
 3110 013d 3B       		.uleb128 0x3b
 3111 013e 0B       		.uleb128 0xb
 3112 013f 49       		.uleb128 0x49
 3113 0140 13       		.uleb128 0x13
 3114 0141 00       		.byte	0
 3115 0142 00       		.byte	0
 3116 0143 1C       		.uleb128 0x1c
 3117 0144 2E       		.uleb128 0x2e
 3118 0145 01       		.byte	0x1
 3119 0146 03       		.uleb128 0x3
 3120 0147 0E       		.uleb128 0xe
 3121 0148 3A       		.uleb128 0x3a
 3122 0149 0B       		.uleb128 0xb
 3123 014a 3B       		.uleb128 0x3b
ARM GAS  /var/folders/m4/4md61f0s1_g0rzfghffqnxvr0000gn/T//ccTJVolh.s 			page 56


 3124 014b 0B       		.uleb128 0xb
 3125 014c 27       		.uleb128 0x27
 3126 014d 19       		.uleb128 0x19
 3127 014e 49       		.uleb128 0x49
 3128 014f 13       		.uleb128 0x13
 3129 0150 20       		.uleb128 0x20
 3130 0151 0B       		.uleb128 0xb
 3131 0152 01       		.uleb128 0x1
 3132 0153 13       		.uleb128 0x13
 3133 0154 00       		.byte	0
 3134 0155 00       		.byte	0
 3135 0156 1D       		.uleb128 0x1d
 3136 0157 05       		.uleb128 0x5
 3137 0158 00       		.byte	0
 3138 0159 03       		.uleb128 0x3
 3139 015a 0E       		.uleb128 0xe
 3140 015b 3A       		.uleb128 0x3a
 3141 015c 0B       		.uleb128 0xb
 3142 015d 3B       		.uleb128 0x3b
 3143 015e 0B       		.uleb128 0xb
 3144 015f 49       		.uleb128 0x49
 3145 0160 13       		.uleb128 0x13
 3146 0161 00       		.byte	0
 3147 0162 00       		.byte	0
 3148 0163 1E       		.uleb128 0x1e
 3149 0164 34       		.uleb128 0x34
 3150 0165 00       		.byte	0
 3151 0166 03       		.uleb128 0x3
 3152 0167 08       		.uleb128 0x8
 3153 0168 3A       		.uleb128 0x3a
 3154 0169 0B       		.uleb128 0xb
 3155 016a 3B       		.uleb128 0x3b
 3156 016b 0B       		.uleb128 0xb
 3157 016c 49       		.uleb128 0x49
 3158 016d 13       		.uleb128 0x13
 3159 016e 00       		.byte	0
 3160 016f 00       		.byte	0
 3161 0170 1F       		.uleb128 0x1f
 3162 0171 2E       		.uleb128 0x2e
 3163 0172 01       		.byte	0x1
 3164 0173 3F       		.uleb128 0x3f
 3165 0174 19       		.uleb128 0x19
 3166 0175 03       		.uleb128 0x3
 3167 0176 0E       		.uleb128 0xe
 3168 0177 3A       		.uleb128 0x3a
 3169 0178 0B       		.uleb128 0xb
 3170 0179 3B       		.uleb128 0x3b
 3171 017a 0B       		.uleb128 0xb
 3172 017b 27       		.uleb128 0x27
 3173 017c 19       		.uleb128 0x19
 3174 017d 11       		.uleb128 0x11
 3175 017e 01       		.uleb128 0x1
 3176 017f 12       		.uleb128 0x12
 3177 0180 06       		.uleb128 0x6
 3178 0181 40       		.uleb128 0x40
 3179 0182 18       		.uleb128 0x18
 3180 0183 9742     		.uleb128 0x2117
ARM GAS  /var/folders/m4/4md61f0s1_g0rzfghffqnxvr0000gn/T//ccTJVolh.s 			page 57


 3181 0185 19       		.uleb128 0x19
 3182 0186 01       		.uleb128 0x1
 3183 0187 13       		.uleb128 0x13
 3184 0188 00       		.byte	0
 3185 0189 00       		.byte	0
 3186 018a 20       		.uleb128 0x20
 3187 018b 34       		.uleb128 0x34
 3188 018c 00       		.byte	0
 3189 018d 03       		.uleb128 0x3
 3190 018e 0E       		.uleb128 0xe
 3191 018f 3A       		.uleb128 0x3a
 3192 0190 0B       		.uleb128 0xb
 3193 0191 3B       		.uleb128 0x3b
 3194 0192 0B       		.uleb128 0xb
 3195 0193 49       		.uleb128 0x49
 3196 0194 13       		.uleb128 0x13
 3197 0195 02       		.uleb128 0x2
 3198 0196 18       		.uleb128 0x18
 3199 0197 00       		.byte	0
 3200 0198 00       		.byte	0
 3201 0199 21       		.uleb128 0x21
 3202 019a 34       		.uleb128 0x34
 3203 019b 00       		.byte	0
 3204 019c 03       		.uleb128 0x3
 3205 019d 08       		.uleb128 0x8
 3206 019e 3A       		.uleb128 0x3a
 3207 019f 0B       		.uleb128 0xb
 3208 01a0 3B       		.uleb128 0x3b
 3209 01a1 0B       		.uleb128 0xb
 3210 01a2 49       		.uleb128 0x49
 3211 01a3 13       		.uleb128 0x13
 3212 01a4 02       		.uleb128 0x2
 3213 01a5 17       		.uleb128 0x17
 3214 01a6 00       		.byte	0
 3215 01a7 00       		.byte	0
 3216 01a8 22       		.uleb128 0x22
 3217 01a9 0B       		.uleb128 0xb
 3218 01aa 01       		.byte	0x1
 3219 01ab 11       		.uleb128 0x11
 3220 01ac 01       		.uleb128 0x1
 3221 01ad 12       		.uleb128 0x12
 3222 01ae 06       		.uleb128 0x6
 3223 01af 01       		.uleb128 0x1
 3224 01b0 13       		.uleb128 0x13
 3225 01b1 00       		.byte	0
 3226 01b2 00       		.byte	0
 3227 01b3 23       		.uleb128 0x23
 3228 01b4 34       		.uleb128 0x34
 3229 01b5 00       		.byte	0
 3230 01b6 03       		.uleb128 0x3
 3231 01b7 0E       		.uleb128 0xe
 3232 01b8 3A       		.uleb128 0x3a
 3233 01b9 0B       		.uleb128 0xb
 3234 01ba 3B       		.uleb128 0x3b
 3235 01bb 0B       		.uleb128 0xb
 3236 01bc 49       		.uleb128 0x49
 3237 01bd 13       		.uleb128 0x13
ARM GAS  /var/folders/m4/4md61f0s1_g0rzfghffqnxvr0000gn/T//ccTJVolh.s 			page 58


 3238 01be 02       		.uleb128 0x2
 3239 01bf 17       		.uleb128 0x17
 3240 01c0 00       		.byte	0
 3241 01c1 00       		.byte	0
 3242 01c2 24       		.uleb128 0x24
 3243 01c3 1D       		.uleb128 0x1d
 3244 01c4 01       		.byte	0x1
 3245 01c5 31       		.uleb128 0x31
 3246 01c6 13       		.uleb128 0x13
 3247 01c7 11       		.uleb128 0x11
 3248 01c8 01       		.uleb128 0x1
 3249 01c9 12       		.uleb128 0x12
 3250 01ca 06       		.uleb128 0x6
 3251 01cb 58       		.uleb128 0x58
 3252 01cc 0B       		.uleb128 0xb
 3253 01cd 59       		.uleb128 0x59
 3254 01ce 0B       		.uleb128 0xb
 3255 01cf 00       		.byte	0
 3256 01d0 00       		.byte	0
 3257 01d1 25       		.uleb128 0x25
 3258 01d2 05       		.uleb128 0x5
 3259 01d3 00       		.byte	0
 3260 01d4 31       		.uleb128 0x31
 3261 01d5 13       		.uleb128 0x13
 3262 01d6 02       		.uleb128 0x2
 3263 01d7 17       		.uleb128 0x17
 3264 01d8 00       		.byte	0
 3265 01d9 00       		.byte	0
 3266 01da 26       		.uleb128 0x26
 3267 01db 0B       		.uleb128 0xb
 3268 01dc 01       		.byte	0x1
 3269 01dd 11       		.uleb128 0x11
 3270 01de 01       		.uleb128 0x1
 3271 01df 12       		.uleb128 0x12
 3272 01e0 06       		.uleb128 0x6
 3273 01e1 00       		.byte	0
 3274 01e2 00       		.byte	0
 3275 01e3 27       		.uleb128 0x27
 3276 01e4 34       		.uleb128 0x34
 3277 01e5 00       		.byte	0
 3278 01e6 31       		.uleb128 0x31
 3279 01e7 13       		.uleb128 0x13
 3280 01e8 02       		.uleb128 0x2
 3281 01e9 17       		.uleb128 0x17
 3282 01ea 00       		.byte	0
 3283 01eb 00       		.byte	0
 3284 01ec 28       		.uleb128 0x28
 3285 01ed 0B       		.uleb128 0xb
 3286 01ee 01       		.byte	0x1
 3287 01ef 55       		.uleb128 0x55
 3288 01f0 17       		.uleb128 0x17
 3289 01f1 01       		.uleb128 0x1
 3290 01f2 13       		.uleb128 0x13
 3291 01f3 00       		.byte	0
 3292 01f4 00       		.byte	0
 3293 01f5 29       		.uleb128 0x29
 3294 01f6 898201   		.uleb128 0x4109
ARM GAS  /var/folders/m4/4md61f0s1_g0rzfghffqnxvr0000gn/T//ccTJVolh.s 			page 59


 3295 01f9 01       		.byte	0x1
 3296 01fa 11       		.uleb128 0x11
 3297 01fb 01       		.uleb128 0x1
 3298 01fc 31       		.uleb128 0x31
 3299 01fd 13       		.uleb128 0x13
 3300 01fe 01       		.uleb128 0x1
 3301 01ff 13       		.uleb128 0x13
 3302 0200 00       		.byte	0
 3303 0201 00       		.byte	0
 3304 0202 2A       		.uleb128 0x2a
 3305 0203 8A8201   		.uleb128 0x410a
 3306 0206 00       		.byte	0
 3307 0207 02       		.uleb128 0x2
 3308 0208 18       		.uleb128 0x18
 3309 0209 9142     		.uleb128 0x2111
 3310 020b 18       		.uleb128 0x18
 3311 020c 00       		.byte	0
 3312 020d 00       		.byte	0
 3313 020e 2B       		.uleb128 0x2b
 3314 020f 898201   		.uleb128 0x4109
 3315 0212 00       		.byte	0
 3316 0213 11       		.uleb128 0x11
 3317 0214 01       		.uleb128 0x1
 3318 0215 31       		.uleb128 0x31
 3319 0216 13       		.uleb128 0x13
 3320 0217 00       		.byte	0
 3321 0218 00       		.byte	0
 3322 0219 2C       		.uleb128 0x2c
 3323 021a 898201   		.uleb128 0x4109
 3324 021d 01       		.byte	0x1
 3325 021e 11       		.uleb128 0x11
 3326 021f 01       		.uleb128 0x1
 3327 0220 31       		.uleb128 0x31
 3328 0221 13       		.uleb128 0x13
 3329 0222 00       		.byte	0
 3330 0223 00       		.byte	0
 3331 0224 2D       		.uleb128 0x2d
 3332 0225 05       		.uleb128 0x5
 3333 0226 00       		.byte	0
 3334 0227 03       		.uleb128 0x3
 3335 0228 08       		.uleb128 0x8
 3336 0229 3A       		.uleb128 0x3a
 3337 022a 0B       		.uleb128 0xb
 3338 022b 3B       		.uleb128 0x3b
 3339 022c 0B       		.uleb128 0xb
 3340 022d 49       		.uleb128 0x49
 3341 022e 13       		.uleb128 0x13
 3342 022f 02       		.uleb128 0x2
 3343 0230 17       		.uleb128 0x17
 3344 0231 00       		.byte	0
 3345 0232 00       		.byte	0
 3346 0233 2E       		.uleb128 0x2e
 3347 0234 05       		.uleb128 0x5
 3348 0235 00       		.byte	0
 3349 0236 03       		.uleb128 0x3
 3350 0237 0E       		.uleb128 0xe
 3351 0238 3A       		.uleb128 0x3a
ARM GAS  /var/folders/m4/4md61f0s1_g0rzfghffqnxvr0000gn/T//ccTJVolh.s 			page 60


 3352 0239 0B       		.uleb128 0xb
 3353 023a 3B       		.uleb128 0x3b
 3354 023b 0B       		.uleb128 0xb
 3355 023c 49       		.uleb128 0x49
 3356 023d 13       		.uleb128 0x13
 3357 023e 02       		.uleb128 0x2
 3358 023f 17       		.uleb128 0x17
 3359 0240 00       		.byte	0
 3360 0241 00       		.byte	0
 3361 0242 2F       		.uleb128 0x2f
 3362 0243 1D       		.uleb128 0x1d
 3363 0244 01       		.byte	0x1
 3364 0245 31       		.uleb128 0x31
 3365 0246 13       		.uleb128 0x13
 3366 0247 52       		.uleb128 0x52
 3367 0248 01       		.uleb128 0x1
 3368 0249 55       		.uleb128 0x55
 3369 024a 17       		.uleb128 0x17
 3370 024b 58       		.uleb128 0x58
 3371 024c 0B       		.uleb128 0xb
 3372 024d 59       		.uleb128 0x59
 3373 024e 0B       		.uleb128 0xb
 3374 024f 00       		.byte	0
 3375 0250 00       		.byte	0
 3376 0251 30       		.uleb128 0x30
 3377 0252 0B       		.uleb128 0xb
 3378 0253 01       		.byte	0x1
 3379 0254 55       		.uleb128 0x55
 3380 0255 17       		.uleb128 0x17
 3381 0256 00       		.byte	0
 3382 0257 00       		.byte	0
 3383 0258 31       		.uleb128 0x31
 3384 0259 2E       		.uleb128 0x2e
 3385 025a 01       		.byte	0x1
 3386 025b 3F       		.uleb128 0x3f
 3387 025c 19       		.uleb128 0x19
 3388 025d 03       		.uleb128 0x3
 3389 025e 0E       		.uleb128 0xe
 3390 025f 3A       		.uleb128 0x3a
 3391 0260 0B       		.uleb128 0xb
 3392 0261 3B       		.uleb128 0x3b
 3393 0262 0B       		.uleb128 0xb
 3394 0263 27       		.uleb128 0x27
 3395 0264 19       		.uleb128 0x19
 3396 0265 49       		.uleb128 0x49
 3397 0266 13       		.uleb128 0x13
 3398 0267 11       		.uleb128 0x11
 3399 0268 01       		.uleb128 0x1
 3400 0269 12       		.uleb128 0x12
 3401 026a 06       		.uleb128 0x6
 3402 026b 40       		.uleb128 0x40
 3403 026c 18       		.uleb128 0x18
 3404 026d 9742     		.uleb128 0x2117
 3405 026f 19       		.uleb128 0x19
 3406 0270 01       		.uleb128 0x1
 3407 0271 13       		.uleb128 0x13
 3408 0272 00       		.byte	0
ARM GAS  /var/folders/m4/4md61f0s1_g0rzfghffqnxvr0000gn/T//ccTJVolh.s 			page 61


 3409 0273 00       		.byte	0
 3410 0274 32       		.uleb128 0x32
 3411 0275 05       		.uleb128 0x5
 3412 0276 00       		.byte	0
 3413 0277 03       		.uleb128 0x3
 3414 0278 0E       		.uleb128 0xe
 3415 0279 3A       		.uleb128 0x3a
 3416 027a 0B       		.uleb128 0xb
 3417 027b 3B       		.uleb128 0x3b
 3418 027c 0B       		.uleb128 0xb
 3419 027d 49       		.uleb128 0x49
 3420 027e 13       		.uleb128 0x13
 3421 027f 02       		.uleb128 0x2
 3422 0280 18       		.uleb128 0x18
 3423 0281 00       		.byte	0
 3424 0282 00       		.byte	0
 3425 0283 33       		.uleb128 0x33
 3426 0284 34       		.uleb128 0x34
 3427 0285 00       		.byte	0
 3428 0286 03       		.uleb128 0x3
 3429 0287 0E       		.uleb128 0xe
 3430 0288 3A       		.uleb128 0x3a
 3431 0289 0B       		.uleb128 0xb
 3432 028a 3B       		.uleb128 0x3b
 3433 028b 05       		.uleb128 0x5
 3434 028c 49       		.uleb128 0x49
 3435 028d 13       		.uleb128 0x13
 3436 028e 3F       		.uleb128 0x3f
 3437 028f 19       		.uleb128 0x19
 3438 0290 3C       		.uleb128 0x3c
 3439 0291 19       		.uleb128 0x19
 3440 0292 00       		.byte	0
 3441 0293 00       		.byte	0
 3442 0294 34       		.uleb128 0x34
 3443 0295 34       		.uleb128 0x34
 3444 0296 00       		.byte	0
 3445 0297 03       		.uleb128 0x3
 3446 0298 08       		.uleb128 0x8
 3447 0299 3A       		.uleb128 0x3a
 3448 029a 0B       		.uleb128 0xb
 3449 029b 3B       		.uleb128 0x3b
 3450 029c 05       		.uleb128 0x5
 3451 029d 49       		.uleb128 0x49
 3452 029e 13       		.uleb128 0x13
 3453 029f 3F       		.uleb128 0x3f
 3454 02a0 19       		.uleb128 0x19
 3455 02a1 3C       		.uleb128 0x3c
 3456 02a2 19       		.uleb128 0x19
 3457 02a3 00       		.byte	0
 3458 02a4 00       		.byte	0
 3459 02a5 35       		.uleb128 0x35
 3460 02a6 2E       		.uleb128 0x2e
 3461 02a7 01       		.byte	0x1
 3462 02a8 3F       		.uleb128 0x3f
 3463 02a9 19       		.uleb128 0x19
 3464 02aa 03       		.uleb128 0x3
 3465 02ab 0E       		.uleb128 0xe
ARM GAS  /var/folders/m4/4md61f0s1_g0rzfghffqnxvr0000gn/T//ccTJVolh.s 			page 62


 3466 02ac 3A       		.uleb128 0x3a
 3467 02ad 0B       		.uleb128 0xb
 3468 02ae 3B       		.uleb128 0x3b
 3469 02af 05       		.uleb128 0x5
 3470 02b0 27       		.uleb128 0x27
 3471 02b1 19       		.uleb128 0x19
 3472 02b2 49       		.uleb128 0x49
 3473 02b3 13       		.uleb128 0x13
 3474 02b4 3C       		.uleb128 0x3c
 3475 02b5 19       		.uleb128 0x19
 3476 02b6 01       		.uleb128 0x1
 3477 02b7 13       		.uleb128 0x13
 3478 02b8 00       		.byte	0
 3479 02b9 00       		.byte	0
 3480 02ba 36       		.uleb128 0x36
 3481 02bb 2E       		.uleb128 0x2e
 3482 02bc 01       		.byte	0x1
 3483 02bd 3F       		.uleb128 0x3f
 3484 02be 19       		.uleb128 0x19
 3485 02bf 03       		.uleb128 0x3
 3486 02c0 0E       		.uleb128 0xe
 3487 02c1 3A       		.uleb128 0x3a
 3488 02c2 0B       		.uleb128 0xb
 3489 02c3 3B       		.uleb128 0x3b
 3490 02c4 05       		.uleb128 0x5
 3491 02c5 27       		.uleb128 0x27
 3492 02c6 19       		.uleb128 0x19
 3493 02c7 3C       		.uleb128 0x3c
 3494 02c8 19       		.uleb128 0x19
 3495 02c9 01       		.uleb128 0x1
 3496 02ca 13       		.uleb128 0x13
 3497 02cb 00       		.byte	0
 3498 02cc 00       		.byte	0
 3499 02cd 37       		.uleb128 0x37
 3500 02ce 2E       		.uleb128 0x2e
 3501 02cf 01       		.byte	0x1
 3502 02d0 3F       		.uleb128 0x3f
 3503 02d1 19       		.uleb128 0x19
 3504 02d2 03       		.uleb128 0x3
 3505 02d3 0E       		.uleb128 0xe
 3506 02d4 3A       		.uleb128 0x3a
 3507 02d5 0B       		.uleb128 0xb
 3508 02d6 3B       		.uleb128 0x3b
 3509 02d7 05       		.uleb128 0x5
 3510 02d8 27       		.uleb128 0x27
 3511 02d9 19       		.uleb128 0x19
 3512 02da 3C       		.uleb128 0x3c
 3513 02db 19       		.uleb128 0x19
 3514 02dc 00       		.byte	0
 3515 02dd 00       		.byte	0
 3516 02de 00       		.byte	0
 3517              		.section	.debug_loc,"",%progbits
 3518              	.Ldebug_loc0:
 3519              	.LLST0:
 3520 0000 00000000 		.4byte	.LVL0
 3521 0004 14000000 		.4byte	.LVL1
 3522 0008 0200     		.2byte	0x2
ARM GAS  /var/folders/m4/4md61f0s1_g0rzfghffqnxvr0000gn/T//ccTJVolh.s 			page 63


 3523 000a 30       		.byte	0x30
 3524 000b 9F       		.byte	0x9f
 3525 000c 14000000 		.4byte	.LVL1
 3526 0010 16000000 		.4byte	.LVL2
 3527 0014 0200     		.2byte	0x2
 3528 0016 31       		.byte	0x31
 3529 0017 9F       		.byte	0x9f
 3530 0018 16000000 		.4byte	.LVL2
 3531 001c 18000000 		.4byte	.LVL3
 3532 0020 0200     		.2byte	0x2
 3533 0022 32       		.byte	0x32
 3534 0023 9F       		.byte	0x9f
 3535 0024 18000000 		.4byte	.LVL3
 3536 0028 1A000000 		.4byte	.LVL4
 3537 002c 0200     		.2byte	0x2
 3538 002e 33       		.byte	0x33
 3539 002f 9F       		.byte	0x9f
 3540 0030 1A000000 		.4byte	.LVL4
 3541 0034 1C000000 		.4byte	.LVL5
 3542 0038 0200     		.2byte	0x2
 3543 003a 34       		.byte	0x34
 3544 003b 9F       		.byte	0x9f
 3545 003c 1C000000 		.4byte	.LVL5
 3546 0040 2C000000 		.4byte	.LVL6
 3547 0044 0200     		.2byte	0x2
 3548 0046 30       		.byte	0x30
 3549 0047 9F       		.byte	0x9f
 3550 0048 00000000 		.4byte	0
 3551 004c 00000000 		.4byte	0
 3552              	.LLST1:
 3553 0050 4A000000 		.4byte	.LVL12
 3554 0054 4E000000 		.4byte	.LVL13
 3555 0058 0200     		.2byte	0x2
 3556 005a 30       		.byte	0x30
 3557 005b 9F       		.byte	0x9f
 3558 005c 00000000 		.4byte	0
 3559 0060 00000000 		.4byte	0
 3560              	.LLST2:
 3561 0064 4A000000 		.4byte	.LVL12
 3562 0068 76000000 		.4byte	.LVL15
 3563 006c 0100     		.2byte	0x1
 3564 006e 52       		.byte	0x52
 3565 006f 00000000 		.4byte	0
 3566 0073 00000000 		.4byte	0
 3567              	.LLST3:
 3568 0077 2C000000 		.4byte	.LVL6
 3569 007b 3E000000 		.4byte	.LVL9
 3570 007f 0100     		.2byte	0x1
 3571 0081 51       		.byte	0x51
 3572 0082 00000000 		.4byte	0
 3573 0086 00000000 		.4byte	0
 3574              	.LLST4:
 3575 008a 2C000000 		.4byte	.LVL6
 3576 008e 38000000 		.4byte	.LVL7
 3577 0092 0800     		.2byte	0x8
 3578 0094 71       		.byte	0x71
 3579 0095 00       		.sleb128 0
ARM GAS  /var/folders/m4/4md61f0s1_g0rzfghffqnxvr0000gn/T//ccTJVolh.s 			page 64


 3580 0096 40       		.byte	0x40
 3581 0097 25       		.byte	0x25
 3582 0098 08       		.byte	0x8
 3583 0099 FF       		.byte	0xff
 3584 009a 1A       		.byte	0x1a
 3585 009b 9F       		.byte	0x9f
 3586 009c 38000000 		.4byte	.LVL7
 3587 00a0 40000000 		.4byte	.LVL10
 3588 00a4 0600     		.2byte	0x6
 3589 00a6 72       		.byte	0x72
 3590 00a7 00       		.sleb128 0
 3591 00a8 08       		.byte	0x8
 3592 00a9 FF       		.byte	0xff
 3593 00aa 1A       		.byte	0x1a
 3594 00ab 9F       		.byte	0x9f
 3595 00ac 00000000 		.4byte	0
 3596 00b0 00000000 		.4byte	0
 3597              	.LLST5:
 3598 00b4 2C000000 		.4byte	.LVL6
 3599 00b8 3C000000 		.4byte	.LVL8
 3600 00bc 0800     		.2byte	0x8
 3601 00be 71       		.byte	0x71
 3602 00bf 00       		.sleb128 0
 3603 00c0 38       		.byte	0x38
 3604 00c1 25       		.byte	0x25
 3605 00c2 08       		.byte	0x8
 3606 00c3 FF       		.byte	0xff
 3607 00c4 1A       		.byte	0x1a
 3608 00c5 9F       		.byte	0x9f
 3609 00c6 3C000000 		.4byte	.LVL8
 3610 00ca 00010000 		.4byte	.LVL23
 3611 00ce 0600     		.2byte	0x6
 3612 00d0 78       		.byte	0x78
 3613 00d1 00       		.sleb128 0
 3614 00d2 08       		.byte	0x8
 3615 00d3 FF       		.byte	0xff
 3616 00d4 1A       		.byte	0x1a
 3617 00d5 9F       		.byte	0x9f
 3618 00d6 00000000 		.4byte	0
 3619 00da 00000000 		.4byte	0
 3620              	.LLST6:
 3621 00de 2C000000 		.4byte	.LVL6
 3622 00e2 3E000000 		.4byte	.LVL9
 3623 00e6 0600     		.2byte	0x6
 3624 00e8 71       		.byte	0x71
 3625 00e9 00       		.sleb128 0
 3626 00ea 08       		.byte	0x8
 3627 00eb FF       		.byte	0xff
 3628 00ec 1A       		.byte	0x1a
 3629 00ed 9F       		.byte	0x9f
 3630 00ee 44000000 		.4byte	.LVL11
 3631 00f2 4E000000 		.4byte	.LVL13
 3632 00f6 0600     		.2byte	0x6
 3633 00f8 71       		.byte	0x71
 3634 00f9 00       		.sleb128 0
 3635 00fa 08       		.byte	0x8
 3636 00fb FF       		.byte	0xff
ARM GAS  /var/folders/m4/4md61f0s1_g0rzfghffqnxvr0000gn/T//ccTJVolh.s 			page 65


 3637 00fc 1A       		.byte	0x1a
 3638 00fd 9F       		.byte	0x9f
 3639 00fe 00000000 		.4byte	0
 3640 0102 00000000 		.4byte	0
 3641              	.LLST7:
 3642 0106 86000000 		.4byte	.LVL16
 3643 010a 9C000000 		.4byte	.LVL18
 3644 010e 0100     		.2byte	0x1
 3645 0110 54       		.byte	0x54
 3646 0111 9C000000 		.4byte	.LVL18
 3647 0115 A4000000 		.4byte	.LVL19
 3648 0119 0300     		.2byte	0x3
 3649 011b 74       		.byte	0x74
 3650 011c 7F       		.sleb128 -1
 3651 011d 9F       		.byte	0x9f
 3652 011e A4000000 		.4byte	.LVL19
 3653 0122 3A010000 		.4byte	.LVL26
 3654 0126 0100     		.2byte	0x1
 3655 0128 54       		.byte	0x54
 3656 0129 00000000 		.4byte	0
 3657 012d 00000000 		.4byte	0
 3658              	.LLST8:
 3659 0131 00000000 		.4byte	.LVL34
 3660 0135 22000000 		.4byte	.LVL39
 3661 0139 0100     		.2byte	0x1
 3662 013b 50       		.byte	0x50
 3663 013c 22000000 		.4byte	.LVL39
 3664 0140 5C000000 		.4byte	.LFE269
 3665 0144 0400     		.2byte	0x4
 3666 0146 F3       		.byte	0xf3
 3667 0147 01       		.uleb128 0x1
 3668 0148 50       		.byte	0x50
 3669 0149 9F       		.byte	0x9f
 3670 014a 00000000 		.4byte	0
 3671 014e 00000000 		.4byte	0
 3672              	.LLST9:
 3673 0152 00000000 		.4byte	.LVL34
 3674 0156 1E000000 		.4byte	.LVL38
 3675 015a 0100     		.2byte	0x1
 3676 015c 51       		.byte	0x51
 3677 015d 1E000000 		.4byte	.LVL38
 3678 0161 22000000 		.4byte	.LVL39
 3679 0165 0A00     		.2byte	0xa
 3680 0167 70       		.byte	0x70
 3681 0168 00       		.sleb128 0
 3682 0169 32       		.byte	0x32
 3683 016a 24       		.byte	0x24
 3684 016b 03       		.byte	0x3
 3685 016c 00000000 		.4byte	.LANCHOR0
 3686 0170 22       		.byte	0x22
 3687 0171 22000000 		.4byte	.LVL39
 3688 0175 32000000 		.4byte	.LVL43
 3689 0179 0B00     		.2byte	0xb
 3690 017b F3       		.byte	0xf3
 3691 017c 01       		.uleb128 0x1
 3692 017d 50       		.byte	0x50
 3693 017e 32       		.byte	0x32
ARM GAS  /var/folders/m4/4md61f0s1_g0rzfghffqnxvr0000gn/T//ccTJVolh.s 			page 66


 3694 017f 24       		.byte	0x24
 3695 0180 03       		.byte	0x3
 3696 0181 00000000 		.4byte	.LANCHOR0
 3697 0185 22       		.byte	0x22
 3698 0186 32000000 		.4byte	.LVL43
 3699 018a 4E000000 		.4byte	.LVL47
 3700 018e 0100     		.2byte	0x1
 3701 0190 52       		.byte	0x52
 3702 0191 00000000 		.4byte	0
 3703 0195 00000000 		.4byte	0
 3704              	.LLST10:
 3705 0199 32000000 		.4byte	.LVL43
 3706 019d 3A000000 		.4byte	.LVL45
 3707 01a1 0200     		.2byte	0x2
 3708 01a3 30       		.byte	0x30
 3709 01a4 9F       		.byte	0x9f
 3710 01a5 00000000 		.4byte	0
 3711 01a9 00000000 		.4byte	0
 3712              	.LLST11:
 3713 01ad 0E000000 		.4byte	.LVL35
 3714 01b1 1E000000 		.4byte	.LVL38
 3715 01b5 0100     		.2byte	0x1
 3716 01b7 51       		.byte	0x51
 3717 01b8 1E000000 		.4byte	.LVL38
 3718 01bc 22000000 		.4byte	.LVL39
 3719 01c0 0A00     		.2byte	0xa
 3720 01c2 70       		.byte	0x70
 3721 01c3 00       		.sleb128 0
 3722 01c4 32       		.byte	0x32
 3723 01c5 24       		.byte	0x24
 3724 01c6 03       		.byte	0x3
 3725 01c7 00000000 		.4byte	.LANCHOR0
 3726 01cb 22       		.byte	0x22
 3727 01cc 22000000 		.4byte	.LVL39
 3728 01d0 4E000000 		.4byte	.LVL47
 3729 01d4 0B00     		.2byte	0xb
 3730 01d6 F3       		.byte	0xf3
 3731 01d7 01       		.uleb128 0x1
 3732 01d8 50       		.byte	0x50
 3733 01d9 32       		.byte	0x32
 3734 01da 24       		.byte	0x24
 3735 01db 03       		.byte	0x3
 3736 01dc 00000000 		.4byte	.LANCHOR0
 3737 01e0 22       		.byte	0x22
 3738 01e1 00000000 		.4byte	0
 3739 01e5 00000000 		.4byte	0
 3740              	.LLST12:
 3741 01e9 0E000000 		.4byte	.LVL35
 3742 01ed 18000000 		.4byte	.LVL36
 3743 01f1 0800     		.2byte	0x8
 3744 01f3 71       		.byte	0x71
 3745 01f4 00       		.sleb128 0
 3746 01f5 40       		.byte	0x40
 3747 01f6 25       		.byte	0x25
 3748 01f7 08       		.byte	0x8
 3749 01f8 FF       		.byte	0xff
 3750 01f9 1A       		.byte	0x1a
ARM GAS  /var/folders/m4/4md61f0s1_g0rzfghffqnxvr0000gn/T//ccTJVolh.s 			page 67


 3751 01fa 9F       		.byte	0x9f
 3752 01fb 18000000 		.4byte	.LVL36
 3753 01ff 28000000 		.4byte	.LVL41
 3754 0203 0600     		.2byte	0x6
 3755 0205 72       		.byte	0x72
 3756 0206 00       		.sleb128 0
 3757 0207 08       		.byte	0x8
 3758 0208 FF       		.byte	0xff
 3759 0209 1A       		.byte	0x1a
 3760 020a 9F       		.byte	0x9f
 3761 020b 28000000 		.4byte	.LVL41
 3762 020f 2C000000 		.4byte	.LVL42
 3763 0213 1B00     		.2byte	0x1b
 3764 0215 F3       		.byte	0xf3
 3765 0216 01       		.uleb128 0x1
 3766 0217 50       		.byte	0x50
 3767 0218 32       		.byte	0x32
 3768 0219 24       		.byte	0x24
 3769 021a 03       		.byte	0x3
 3770 021b 00000000 		.4byte	.LANCHOR0
 3771 021f 22       		.byte	0x22
 3772 0220 06       		.byte	0x6
 3773 0221 09       		.byte	0x9
 3774 0222 EC       		.byte	0xec
 3775 0223 24       		.byte	0x24
 3776 0224 09       		.byte	0x9
 3777 0225 FC       		.byte	0xfc
 3778 0226 25       		.byte	0x25
 3779 0227 74       		.byte	0x74
 3780 0228 00       		.sleb128 0
 3781 0229 22       		.byte	0x22
 3782 022a 94       		.byte	0x94
 3783 022b 01       		.byte	0x1
 3784 022c 08       		.byte	0x8
 3785 022d FF       		.byte	0xff
 3786 022e 1A       		.byte	0x1a
 3787 022f 9F       		.byte	0x9f
 3788 0230 2C000000 		.4byte	.LVL42
 3789 0234 4E000000 		.4byte	.LVL47
 3790 0238 1E00     		.2byte	0x1e
 3791 023a F3       		.byte	0xf3
 3792 023b 01       		.uleb128 0x1
 3793 023c 50       		.byte	0x50
 3794 023d 32       		.byte	0x32
 3795 023e 24       		.byte	0x24
 3796 023f 03       		.byte	0x3
 3797 0240 00000000 		.4byte	.LANCHOR0
 3798 0244 22       		.byte	0x22
 3799 0245 06       		.byte	0x6
 3800 0246 09       		.byte	0x9
 3801 0247 EC       		.byte	0xec
 3802 0248 24       		.byte	0x24
 3803 0249 09       		.byte	0x9
 3804 024a FC       		.byte	0xfc
 3805 024b 25       		.byte	0x25
 3806 024c 03       		.byte	0x3
 3807 024d 00000000 		.4byte	.LANCHOR2
ARM GAS  /var/folders/m4/4md61f0s1_g0rzfghffqnxvr0000gn/T//ccTJVolh.s 			page 68


 3808 0251 22       		.byte	0x22
 3809 0252 94       		.byte	0x94
 3810 0253 01       		.byte	0x1
 3811 0254 08       		.byte	0x8
 3812 0255 FF       		.byte	0xff
 3813 0256 1A       		.byte	0x1a
 3814 0257 9F       		.byte	0x9f
 3815 0258 00000000 		.4byte	0
 3816 025c 00000000 		.4byte	0
 3817              	.LLST13:
 3818 0260 0E000000 		.4byte	.LVL35
 3819 0264 1A000000 		.4byte	.LVL37
 3820 0268 0800     		.2byte	0x8
 3821 026a 71       		.byte	0x71
 3822 026b 00       		.sleb128 0
 3823 026c 38       		.byte	0x38
 3824 026d 25       		.byte	0x25
 3825 026e 08       		.byte	0x8
 3826 026f FF       		.byte	0xff
 3827 0270 1A       		.byte	0x1a
 3828 0271 9F       		.byte	0x9f
 3829 0272 1A000000 		.4byte	.LVL37
 3830 0276 3A000000 		.4byte	.LVL45
 3831 027a 0600     		.2byte	0x6
 3832 027c 75       		.byte	0x75
 3833 027d 00       		.sleb128 0
 3834 027e 08       		.byte	0x8
 3835 027f FF       		.byte	0xff
 3836 0280 1A       		.byte	0x1a
 3837 0281 9F       		.byte	0x9f
 3838 0282 3A000000 		.4byte	.LVL45
 3839 0286 4E000000 		.4byte	.LVL47
 3840 028a 1E00     		.2byte	0x1e
 3841 028c F3       		.byte	0xf3
 3842 028d 01       		.uleb128 0x1
 3843 028e 50       		.byte	0x50
 3844 028f 32       		.byte	0x32
 3845 0290 24       		.byte	0x24
 3846 0291 03       		.byte	0x3
 3847 0292 00000000 		.4byte	.LANCHOR0
 3848 0296 22       		.byte	0x22
 3849 0297 06       		.byte	0x6
 3850 0298 09       		.byte	0x9
 3851 0299 F4       		.byte	0xf4
 3852 029a 24       		.byte	0x24
 3853 029b 09       		.byte	0x9
 3854 029c FC       		.byte	0xfc
 3855 029d 25       		.byte	0x25
 3856 029e 03       		.byte	0x3
 3857 029f 00000000 		.4byte	.LANCHOR2
 3858 02a3 22       		.byte	0x22
 3859 02a4 94       		.byte	0x94
 3860 02a5 01       		.byte	0x1
 3861 02a6 08       		.byte	0x8
 3862 02a7 FF       		.byte	0xff
 3863 02a8 1A       		.byte	0x1a
 3864 02a9 9F       		.byte	0x9f
ARM GAS  /var/folders/m4/4md61f0s1_g0rzfghffqnxvr0000gn/T//ccTJVolh.s 			page 69


 3865 02aa 00000000 		.4byte	0
 3866 02ae 00000000 		.4byte	0
 3867              	.LLST14:
 3868 02b2 0E000000 		.4byte	.LVL35
 3869 02b6 1E000000 		.4byte	.LVL38
 3870 02ba 0600     		.2byte	0x6
 3871 02bc 71       		.byte	0x71
 3872 02bd 00       		.sleb128 0
 3873 02be 08       		.byte	0x8
 3874 02bf FF       		.byte	0xff
 3875 02c0 1A       		.byte	0x1a
 3876 02c1 9F       		.byte	0x9f
 3877 02c2 1E000000 		.4byte	.LVL38
 3878 02c6 22000000 		.4byte	.LVL39
 3879 02ca 0F00     		.2byte	0xf
 3880 02cc 70       		.byte	0x70
 3881 02cd 00       		.sleb128 0
 3882 02ce 32       		.byte	0x32
 3883 02cf 24       		.byte	0x24
 3884 02d0 03       		.byte	0x3
 3885 02d1 00000000 		.4byte	.LANCHOR0
 3886 02d5 22       		.byte	0x22
 3887 02d6 06       		.byte	0x6
 3888 02d7 08       		.byte	0x8
 3889 02d8 FF       		.byte	0xff
 3890 02d9 1A       		.byte	0x1a
 3891 02da 9F       		.byte	0x9f
 3892 02db 22000000 		.4byte	.LVL39
 3893 02df 24000000 		.4byte	.LVL40
 3894 02e3 1000     		.2byte	0x10
 3895 02e5 F3       		.byte	0xf3
 3896 02e6 01       		.uleb128 0x1
 3897 02e7 50       		.byte	0x50
 3898 02e8 32       		.byte	0x32
 3899 02e9 24       		.byte	0x24
 3900 02ea 03       		.byte	0x3
 3901 02eb 00000000 		.4byte	.LANCHOR0
 3902 02ef 22       		.byte	0x22
 3903 02f0 06       		.byte	0x6
 3904 02f1 08       		.byte	0x8
 3905 02f2 FF       		.byte	0xff
 3906 02f3 1A       		.byte	0x1a
 3907 02f4 9F       		.byte	0x9f
 3908 02f5 24000000 		.4byte	.LVL40
 3909 02f9 34000000 		.4byte	.LVL44
 3910 02fd 0600     		.2byte	0x6
 3911 02ff 71       		.byte	0x71
 3912 0300 00       		.sleb128 0
 3913 0301 08       		.byte	0x8
 3914 0302 FF       		.byte	0xff
 3915 0303 1A       		.byte	0x1a
 3916 0304 9F       		.byte	0x9f
 3917 0305 34000000 		.4byte	.LVL44
 3918 0309 4E000000 		.4byte	.LVL47
 3919 030d 1C00     		.2byte	0x1c
 3920 030f F3       		.byte	0xf3
 3921 0310 01       		.uleb128 0x1
ARM GAS  /var/folders/m4/4md61f0s1_g0rzfghffqnxvr0000gn/T//ccTJVolh.s 			page 70


 3922 0311 50       		.byte	0x50
 3923 0312 32       		.byte	0x32
 3924 0313 24       		.byte	0x24
 3925 0314 03       		.byte	0x3
 3926 0315 00000000 		.4byte	.LANCHOR0
 3927 0319 22       		.byte	0x22
 3928 031a 94       		.byte	0x94
 3929 031b 01       		.byte	0x1
 3930 031c 08       		.byte	0x8
 3931 031d FF       		.byte	0xff
 3932 031e 1A       		.byte	0x1a
 3933 031f 03       		.byte	0x3
 3934 0320 00000000 		.4byte	.LANCHOR2
 3935 0324 22       		.byte	0x22
 3936 0325 94       		.byte	0x94
 3937 0326 01       		.byte	0x1
 3938 0327 08       		.byte	0x8
 3939 0328 FF       		.byte	0xff
 3940 0329 1A       		.byte	0x1a
 3941 032a 9F       		.byte	0x9f
 3942 032b 00000000 		.4byte	0
 3943 032f 00000000 		.4byte	0
 3944              	.LLST15:
 3945 0333 00000000 		.4byte	.LVL48
 3946 0337 0A000000 		.4byte	.LVL49
 3947 033b 0100     		.2byte	0x1
 3948 033d 50       		.byte	0x50
 3949 033e 0A000000 		.4byte	.LVL49
 3950 0342 14000000 		.4byte	.LFE270
 3951 0346 0400     		.2byte	0x4
 3952 0348 F3       		.byte	0xf3
 3953 0349 01       		.uleb128 0x1
 3954 034a 50       		.byte	0x50
 3955 034b 9F       		.byte	0x9f
 3956 034c 00000000 		.4byte	0
 3957 0350 00000000 		.4byte	0
 3958              	.LLST16:
 3959 0354 00000000 		.4byte	.LVL50
 3960 0358 08000000 		.4byte	.LVL51
 3961 035c 0200     		.2byte	0x2
 3962 035e 30       		.byte	0x30
 3963 035f 9F       		.byte	0x9f
 3964 0360 08000000 		.4byte	.LVL51
 3965 0364 0A000000 		.4byte	.LVL52
 3966 0368 0200     		.2byte	0x2
 3967 036a 31       		.byte	0x31
 3968 036b 9F       		.byte	0x9f
 3969 036c 0A000000 		.4byte	.LVL52
 3970 0370 0C000000 		.4byte	.LVL53
 3971 0374 0200     		.2byte	0x2
 3972 0376 32       		.byte	0x32
 3973 0377 9F       		.byte	0x9f
 3974 0378 0C000000 		.4byte	.LVL53
 3975 037c 0E000000 		.4byte	.LVL54
 3976 0380 0200     		.2byte	0x2
 3977 0382 33       		.byte	0x33
 3978 0383 9F       		.byte	0x9f
ARM GAS  /var/folders/m4/4md61f0s1_g0rzfghffqnxvr0000gn/T//ccTJVolh.s 			page 71


 3979 0384 0E000000 		.4byte	.LVL54
 3980 0388 14000000 		.4byte	.LVL55
 3981 038c 0200     		.2byte	0x2
 3982 038e 30       		.byte	0x30
 3983 038f 9F       		.byte	0x9f
 3984 0390 00000000 		.4byte	0
 3985 0394 00000000 		.4byte	0
 3986              	.LLST17:
 3987 0398 00000000 		.4byte	.LVL56
 3988 039c 2A000000 		.4byte	.LVL57
 3989 03a0 0200     		.2byte	0x2
 3990 03a2 30       		.byte	0x30
 3991 03a3 9F       		.byte	0x9f
 3992 03a4 00000000 		.4byte	0
 3993 03a8 00000000 		.4byte	0
 3994              	.LLST18:
 3995 03ac 2E000000 		.4byte	.LVL58
 3996 03b0 34000000 		.4byte	.LVL59
 3997 03b4 0200     		.2byte	0x2
 3998 03b6 30       		.byte	0x30
 3999 03b7 9F       		.byte	0x9f
 4000 03b8 00000000 		.4byte	0
 4001 03bc 00000000 		.4byte	0
 4002              		.section	.debug_aranges,"",%progbits
 4003 0000 3C000000 		.4byte	0x3c
 4004 0004 0200     		.2byte	0x2
 4005 0006 00000000 		.4byte	.Ldebug_info0
 4006 000a 04       		.byte	0x4
 4007 000b 00       		.byte	0
 4008 000c 0000     		.2byte	0
 4009 000e 0000     		.2byte	0
 4010 0010 00000000 		.4byte	.LFB268
 4011 0014 C8010000 		.4byte	.LFE268-.LFB268
 4012 0018 00000000 		.4byte	.LFB269
 4013 001c 5C000000 		.4byte	.LFE269-.LFB269
 4014 0020 00000000 		.4byte	.LFB270
 4015 0024 14000000 		.4byte	.LFE270-.LFB270
 4016 0028 00000000 		.4byte	.LFB271
 4017 002c 28000000 		.4byte	.LFE271-.LFB271
 4018 0030 00000000 		.4byte	.LFB272
 4019 0034 5C000000 		.4byte	.LFE272-.LFB272
 4020 0038 00000000 		.4byte	0
 4021 003c 00000000 		.4byte	0
 4022              		.section	.debug_ranges,"",%progbits
 4023              	.Ldebug_ranges0:
 4024 0000 80000000 		.4byte	.LBB15
 4025 0004 84000000 		.4byte	.LBE15
 4026 0008 86000000 		.4byte	.LBB16
 4027 000c B6000000 		.4byte	.LBE16
 4028 0010 00000000 		.4byte	0
 4029 0014 00000000 		.4byte	0
 4030 0018 08000000 		.4byte	.LBB18
 4031 001c 0A000000 		.4byte	.LBE18
 4032 0020 0E000000 		.4byte	.LBB22
 4033 0024 1E000000 		.4byte	.LBE22
 4034 0028 22000000 		.4byte	.LBB23
 4035 002c 36000000 		.4byte	.LBE23
ARM GAS  /var/folders/m4/4md61f0s1_g0rzfghffqnxvr0000gn/T//ccTJVolh.s 			page 72


 4036 0030 00000000 		.4byte	0
 4037 0034 00000000 		.4byte	0
 4038 0038 00000000 		.4byte	.LFB268
 4039 003c C8010000 		.4byte	.LFE268
 4040 0040 00000000 		.4byte	.LFB269
 4041 0044 5C000000 		.4byte	.LFE269
 4042 0048 00000000 		.4byte	.LFB270
 4043 004c 14000000 		.4byte	.LFE270
 4044 0050 00000000 		.4byte	.LFB271
 4045 0054 28000000 		.4byte	.LFE271
 4046 0058 00000000 		.4byte	.LFB272
 4047 005c 5C000000 		.4byte	.LFE272
 4048 0060 00000000 		.4byte	0
 4049 0064 00000000 		.4byte	0
 4050              		.section	.debug_line,"",%progbits
 4051              	.Ldebug_line0:
 4052 0000 C4040000 		.section	.debug_str,"MS",%progbits,1
 4052      02007403 
 4052      00000201 
 4052      FB0E0D00 
 4052      01010101 
 4053              	.LASF10:
 4054 0000 6C6F6E67 		.ascii	"long int\000"
 4054      20696E74 
 4054      00
 4055              	.LASF55:
 4056 0009 74687265 		.ascii	"threads_queue_t\000"
 4056      6164735F 
 4056      71756575 
 4056      655F7400 
 4057              	.LASF159:
 4058 0019 54494D5F 		.ascii	"TIM_Prescaler\000"
 4058      50726573 
 4058      63616C65 
 4058      7200
 4059              	.LASF110:
 4060 0027 746D5F63 		.ascii	"tm_calibration_t\000"
 4060      616C6962 
 4060      72617469 
 4060      6F6E5F74 
 4060      00
 4061              	.LASF43:
 4062 0038 705F7469 		.ascii	"p_time\000"
 4062      6D6500
 4063              	.LASF133:
 4064 003f 42535252 		.ascii	"BSRR\000"
 4064      00
 4065              	.LASF125:
 4066 0044 63686172 		.ascii	"char\000"
 4066      00
 4067              	.LASF105:
 4068 0049 72656761 		.ascii	"regarm_t\000"
 4068      726D5F74 
 4068      00
 4069              	.LASF34:
 4070 0052 705F7072 		.ascii	"p_prio\000"
 4070      696F00
ARM GAS  /var/folders/m4/4md61f0s1_g0rzfghffqnxvr0000gn/T//ccTJVolh.s 			page 73


 4071              	.LASF173:
 4072 0059 54494D5F 		.ascii	"TIM_OCInitTypeDef\000"
 4072      4F43496E 
 4072      69745479 
 4072      70654465 
 4072      6600
 4073              	.LASF198:
 4074 006b 444D415F 		.ascii	"DMA_Cmd\000"
 4074      436D6400 
 4075              	.LASF196:
 4076 0073 54494D5F 		.ascii	"TIM_OC3PreloadConfig\000"
 4076      4F433350 
 4076      72656C6F 
 4076      6164436F 
 4076      6E666967 
 4077              	.LASF30:
 4078 0088 73797374 		.ascii	"systime_t\000"
 4078      696D655F 
 4078      7400
 4079              	.LASF146:
 4080 0092 444D415F 		.ascii	"DMA_DIR\000"
 4080      44495200 
 4081              	.LASF119:
 4082 009a 735F7175 		.ascii	"s_queue\000"
 4082      65756500 
 4083              	.LASF75:
 4084 00a2 76745F73 		.ascii	"vt_systime\000"
 4084      79737469 
 4084      6D6500
 4085              	.LASF45:
 4086 00ad 705F6D73 		.ascii	"p_msgqueue\000"
 4086      67717565 
 4086      756500
 4087              	.LASF1:
 4088 00b8 756E7369 		.ascii	"unsigned int\000"
 4088      676E6564 
 4088      20696E74 
 4088      00
 4089              	.LASF192:
 4090 00c5 444D415F 		.ascii	"DMA_Init\000"
 4090      496E6974 
 4090      00
 4091              	.LASF104:
 4092 00ce 46756E63 		.ascii	"FunctionalState\000"
 4092      74696F6E 
 4092      616C5374 
 4092      61746500 
 4093              	.LASF52:
 4094 00de 74687265 		.ascii	"threads_list_t\000"
 4094      6164735F 
 4094      6C697374 
 4094      5F7400
 4095              	.LASF44:
 4096 00ed 705F7761 		.ascii	"p_waiting\000"
 4096      6974696E 
 4096      6700
 4097              	.LASF9:
ARM GAS  /var/folders/m4/4md61f0s1_g0rzfghffqnxvr0000gn/T//ccTJVolh.s 			page 74


 4098 00f7 5F5F696E 		.ascii	"__int32_t\000"
 4098      7433325F 
 4098      7400
 4099              	.LASF184:
 4100 0101 52474264 		.ascii	"RGBdata\000"
 4100      61746100 
 4101              	.LASF178:
 4102 0109 77733238 		.ascii	"ws2812b_init\000"
 4102      3132625F 
 4102      696E6974 
 4102      00
 4103              	.LASF113:
 4104 0116 77746F62 		.ascii	"wtobjp\000"
 4104      6A7000
 4105              	.LASF82:
 4106 011d 76746C69 		.ascii	"vtlist\000"
 4106      737400
 4107              	.LASF187:
 4108 0124 706F7766 		.ascii	"powf\000"
 4108      00
 4109              	.LASF161:
 4110 0129 54494D5F 		.ascii	"TIM_Period\000"
 4110      50657269 
 4110      6F6400
 4111              	.LASF58:
 4112 0134 63685F72 		.ascii	"ch_ready_list\000"
 4112      65616479 
 4112      5F6C6973 
 4112      7400
 4113              	.LASF176:
 4114 0142 444D415F 		.ascii	"DMA_InitStructure\000"
 4114      496E6974 
 4114      53747275 
 4114      63747572 
 4114      6500
 4115              	.LASF86:
 4116 0154 4E445452 		.ascii	"NDTR\000"
 4116      00
 4117              	.LASF144:
 4118 0159 444D415F 		.ascii	"DMA_PeripheralBaseAddr\000"
 4118      50657269 
 4118      70686572 
 4118      616C4261 
 4118      73654164 
 4119              	.LASF171:
 4120 0170 54494D5F 		.ascii	"TIM_OCIdleState\000"
 4120      4F434964 
 4120      6C655374 
 4120      61746500 
 4121              	.LASF100:
 4122 0180 444D4152 		.ascii	"DMAR\000"
 4122      00
 4123              	.LASF157:
 4124 0185 444D415F 		.ascii	"DMA_PeripheralBurst\000"
 4124      50657269 
 4124      70686572 
 4124      616C4275 
ARM GAS  /var/folders/m4/4md61f0s1_g0rzfghffqnxvr0000gn/T//ccTJVolh.s 			page 75


 4124      72737400 
 4125              	.LASF65:
 4126 0199 76746675 		.ascii	"vtfunc_t\000"
 4126      6E635F74 
 4126      00
 4127              	.LASF202:
 4128 01a2 2F557365 		.ascii	"/Users/raphael/Documents/pcb-quadrotor/code\000"
 4128      72732F72 
 4128      61706861 
 4128      656C2F44 
 4128      6F63756D 
 4129              	.LASF120:
 4130 01ce 735F636E 		.ascii	"s_cnt\000"
 4130      7400
 4131              	.LASF77:
 4132 01d4 63685F73 		.ascii	"ch_system_debug\000"
 4132      79737465 
 4132      6D5F6465 
 4132      62756700 
 4133              	.LASF101:
 4134 01e4 54494D5F 		.ascii	"TIM_TypeDef\000"
 4134      54797065 
 4134      44656600 
 4135              	.LASF169:
 4136 01f0 54494D5F 		.ascii	"TIM_OCPolarity\000"
 4136      4F43506F 
 4136      6C617269 
 4136      747900
 4137              	.LASF19:
 4138 01ff 75696E74 		.ascii	"uint32_t\000"
 4138      33325F74 
 4138      00
 4139              	.LASF162:
 4140 0208 54494D5F 		.ascii	"TIM_ClockDivision\000"
 4140      436C6F63 
 4140      6B446976 
 4140      6973696F 
 4140      6E00
 4141              	.LASF60:
 4142 021a 725F7072 		.ascii	"r_prio\000"
 4142      696F00
 4143              	.LASF99:
 4144 0221 42445452 		.ascii	"BDTR\000"
 4144      00
 4145              	.LASF72:
 4146 0226 76745F70 		.ascii	"vt_par\000"
 4146      617200
 4147              	.LASF0:
 4148 022d 666C6F61 		.ascii	"float\000"
 4148      7400
 4149              	.LASF118:
 4150 0233 63685F73 		.ascii	"ch_semaphore\000"
 4150      656D6170 
 4150      686F7265 
 4150      00
 4151              	.LASF26:
 4152 0240 74707269 		.ascii	"tprio_t\000"
ARM GAS  /var/folders/m4/4md61f0s1_g0rzfghffqnxvr0000gn/T//ccTJVolh.s 			page 76


 4152      6F5F7400 
 4153              	.LASF95:
 4154 0248 43435231 		.ascii	"CCR1\000"
 4154      00
 4155              	.LASF96:
 4156 024d 43435232 		.ascii	"CCR2\000"
 4156      00
 4157              	.LASF97:
 4158 0252 43435233 		.ascii	"CCR3\000"
 4158      00
 4159              	.LASF98:
 4160 0257 43435234 		.ascii	"CCR4\000"
 4160      00
 4161              	.LASF67:
 4162 025c 63685F76 		.ascii	"ch_virtual_timer\000"
 4162      69727475 
 4162      616C5F74 
 4162      696D6572 
 4162      00
 4163              	.LASF92:
 4164 026d 43434D52 		.ascii	"CCMR1\000"
 4164      3100
 4165              	.LASF93:
 4166 0273 43434D52 		.ascii	"CCMR2\000"
 4166      3200
 4167              	.LASF51:
 4168 0279 74687265 		.ascii	"thread_reference_t\000"
 4168      61645F72 
 4168      65666572 
 4168      656E6365 
 4168      5F7400
 4169              	.LASF15:
 4170 028c 6C6F6E67 		.ascii	"long long unsigned int\000"
 4170      206C6F6E 
 4170      6720756E 
 4170      7369676E 
 4170      65642069 
 4171              	.LASF7:
 4172 02a3 5F5F7569 		.ascii	"__uint16_t\000"
 4172      6E743136 
 4172      5F7400
 4173              	.LASF29:
 4174 02ae 636E745F 		.ascii	"cnt_t\000"
 4174      7400
 4175              	.LASF54:
 4176 02b4 63685F74 		.ascii	"ch_threads_list\000"
 4176      68726561 
 4176      64735F6C 
 4176      69737400 
 4177              	.LASF129:
 4178 02c4 4D4F4445 		.ascii	"MODER\000"
 4178      5200
 4179              	.LASF136:
 4180 02ca 41465248 		.ascii	"AFRH\000"
 4180      00
 4181              	.LASF137:
 4182 02cf 73746D33 		.ascii	"stm32_gpio_t\000"
ARM GAS  /var/folders/m4/4md61f0s1_g0rzfghffqnxvr0000gn/T//ccTJVolh.s 			page 77


 4182      325F6770 
 4182      696F5F74 
 4182      00
 4183              	.LASF135:
 4184 02dc 4146524C 		.ascii	"AFRL\000"
 4184      00
 4185              	.LASF36:
 4186 02e1 705F6E65 		.ascii	"p_newer\000"
 4186      77657200 
 4187              	.LASF128:
 4188 02e9 636C6561 		.ascii	"clear\000"
 4188      7200
 4189              	.LASF74:
 4190 02ef 63685F76 		.ascii	"ch_virtual_timers_list\000"
 4190      69727475 
 4190      616C5F74 
 4190      696D6572 
 4190      735F6C69 
 4191              	.LASF180:
 4192 0306 636F6C6F 		.ascii	"color\000"
 4192      7200
 4193              	.LASF31:
 4194 030c 74687265 		.ascii	"thread_t\000"
 4194      61645F74 
 4194      00
 4195              	.LASF3:
 4196 0315 73697A65 		.ascii	"size_t\000"
 4196      5F7400
 4197              	.LASF111:
 4198 031c 7264796D 		.ascii	"rdymsg\000"
 4198      736700
 4199              	.LASF109:
 4200 0323 6F666673 		.ascii	"offset\000"
 4200      657400
 4201              	.LASF197:
 4202 032a 54494D5F 		.ascii	"TIM_Cmd\000"
 4202      436D6400 
 4203              	.LASF127:
 4204 0332 5F426F6F 		.ascii	"_Bool\000"
 4204      6C00
 4205              	.LASF123:
 4206 0338 6D5F6F77 		.ascii	"m_owner\000"
 4206      6E657200 
 4207              	.LASF121:
 4208 0340 63685F6D 		.ascii	"ch_mutex\000"
 4208      75746578 
 4208      00
 4209              	.LASF14:
 4210 0349 5F5F7569 		.ascii	"__uint64_t\000"
 4210      6E743634 
 4210      5F7400
 4211              	.LASF91:
 4212 0354 44494552 		.ascii	"DIER\000"
 4212      00
 4213              	.LASF87:
 4214 0359 4D304152 		.ascii	"M0AR\000"
 4214      00
ARM GAS  /var/folders/m4/4md61f0s1_g0rzfghffqnxvr0000gn/T//ccTJVolh.s 			page 78


 4215              	.LASF140:
 4216 035e 696F706F 		.ascii	"ioportid_t\000"
 4216      72746964 
 4216      5F7400
 4217              	.LASF163:
 4218 0369 54494D5F 		.ascii	"TIM_RepetitionCounter\000"
 4218      52657065 
 4218      74697469 
 4218      6F6E436F 
 4218      756E7465 
 4219              	.LASF132:
 4220 037f 50555044 		.ascii	"PUPDR\000"
 4220      5200
 4221              	.LASF188:
 4222 0385 726F756E 		.ascii	"roundf\000"
 4222      646600
 4223              	.LASF38:
 4224 038c 705F6E61 		.ascii	"p_name\000"
 4224      6D6500
 4225              	.LASF170:
 4226 0393 54494D5F 		.ascii	"TIM_OCNPolarity\000"
 4226      4F434E50 
 4226      6F6C6172 
 4226      69747900 
 4227              	.LASF194:
 4228 03a3 54494D5F 		.ascii	"TIM_TimeBaseInit\000"
 4228      54696D65 
 4228      42617365 
 4228      496E6974 
 4228      00
 4229              	.LASF94:
 4230 03b4 43434552 		.ascii	"CCER\000"
 4230      00
 4231              	.LASF70:
 4232 03b9 76745F64 		.ascii	"vt_delta\000"
 4232      656C7461 
 4232      00
 4233              	.LASF102:
 4234 03c2 44495341 		.ascii	"DISABLE\000"
 4234      424C4500 
 4235              	.LASF190:
 4236 03ca 5243435F 		.ascii	"RCC_AHB1PeriphClockCmd\000"
 4236      41484231 
 4236      50657269 
 4236      7068436C 
 4236      6F636B43 
 4237              	.LASF62:
 4238 03e1 725F6E65 		.ascii	"r_newer\000"
 4238      77657200 
 4239              	.LASF193:
 4240 03e9 5243435F 		.ascii	"RCC_APB1PeriphClockCmd\000"
 4240      41504231 
 4240      50657269 
 4240      7068436C 
 4240      6F636B43 
 4241              	.LASF23:
 4242 0400 74737461 		.ascii	"tstate_t\000"
ARM GAS  /var/folders/m4/4md61f0s1_g0rzfghffqnxvr0000gn/T//ccTJVolh.s 			page 79


 4242      74655F74 
 4242      00
 4243              	.LASF179:
 4244 0409 77733238 		.ascii	"ws2812b_set_led_color\000"
 4244      3132625F 
 4244      7365745F 
 4244      6C65645F 
 4244      636F6C6F 
 4245              	.LASF152:
 4246 041f 444D415F 		.ascii	"DMA_Mode\000"
 4246      4D6F6465 
 4246      00
 4247              	.LASF13:
 4248 0428 6C6F6E67 		.ascii	"long long int\000"
 4248      206C6F6E 
 4248      6720696E 
 4248      7400
 4249              	.LASF37:
 4250 0436 705F6F6C 		.ascii	"p_older\000"
 4250      64657200 
 4251              	.LASF39:
 4252 043e 705F7374 		.ascii	"p_state\000"
 4252      61746500 
 4253              	.LASF160:
 4254 0446 54494D5F 		.ascii	"TIM_CounterMode\000"
 4254      436F756E 
 4254      7465724D 
 4254      6F646500 
 4255              	.LASF16:
 4256 0456 75696E74 		.ascii	"uint8_t\000"
 4256      385F7400 
 4257              	.LASF149:
 4258 045e 444D415F 		.ascii	"DMA_MemoryInc\000"
 4258      4D656D6F 
 4258      7279496E 
 4258      6300
 4259              	.LASF50:
 4260 046c 705F6D70 		.ascii	"p_mpool\000"
 4260      6F6F6C00 
 4261              	.LASF48:
 4262 0474 705F6D74 		.ascii	"p_mtxlist\000"
 4262      786C6973 
 4262      7400
 4263              	.LASF201:
 4264 047e 77733238 		.ascii	"ws2812b.c\000"
 4264      3132622E 
 4264      6300
 4265              	.LASF90:
 4266 0488 534D4352 		.ascii	"SMCR\000"
 4266      00
 4267              	.LASF53:
 4268 048d 63685F74 		.ascii	"ch_thread\000"
 4268      68726561 
 4268      6400
 4269              	.LASF175:
 4270 0497 54494D5F 		.ascii	"TIM_OCInitStructure\000"
 4270      4F43496E 
ARM GAS  /var/folders/m4/4md61f0s1_g0rzfghffqnxvr0000gn/T//ccTJVolh.s 			page 80


 4270      69745374 
 4270      72756374 
 4270      75726500 
 4271              	.LASF76:
 4272 04ab 73797374 		.ascii	"system_debug_t\000"
 4272      656D5F64 
 4272      65627567 
 4272      5F7400
 4273              	.LASF56:
 4274 04ba 63685F74 		.ascii	"ch_threads_queue\000"
 4274      68726561 
 4274      64735F71 
 4274      75657565 
 4274      00
 4275              	.LASF203:
 4276 04cb 7267625F 		.ascii	"rgb_to_local\000"
 4276      746F5F6C 
 4276      6F63616C 
 4276      00
 4277              	.LASF59:
 4278 04d8 725F7175 		.ascii	"r_queue\000"
 4278      65756500 
 4279              	.LASF204:
 4280 04e0 77733238 		.ascii	"ws2812b_get_led_color\000"
 4280      3132625F 
 4280      6765745F 
 4280      6C65645F 
 4280      636F6C6F 
 4281              	.LASF28:
 4282 04f6 6576656E 		.ascii	"eventmask_t\000"
 4282      746D6173 
 4282      6B5F7400 
 4283              	.LASF27:
 4284 0502 6D73675F 		.ascii	"msg_t\000"
 4284      7400
 4285              	.LASF148:
 4286 0508 444D415F 		.ascii	"DMA_PeripheralInc\000"
 4286      50657269 
 4286      70686572 
 4286      616C496E 
 4286      6300
 4287              	.LASF107:
 4288 051a 636F6E74 		.ascii	"context\000"
 4288      65787400 
 4289              	.LASF200:
 4290 0522 474E5520 		.ascii	"GNU C 4.9.3 20150529 (release) [ARM/embedded-4_9-br"
 4290      4320342E 
 4290      392E3320 
 4290      32303135 
 4290      30353239 
 4291 0555 616E6368 		.ascii	"anch revision 224288] -mcpu=cortex-m4 -mfloat-abi=h"
 4291      20726576 
 4291      6973696F 
 4291      6E203232 
 4291      34323838 
 4292 0588 61726420 		.ascii	"ard -mfpu=fpv4-sp-d16 -mno-thumb-interwork -mthumb "
 4292      2D6D6670 
ARM GAS  /var/folders/m4/4md61f0s1_g0rzfghffqnxvr0000gn/T//ccTJVolh.s 			page 81


 4292      753D6670 
 4292      76342D73 
 4292      702D6431 
 4293 05bb 2D676764 		.ascii	"-ggdb -O2 -std=gnu99 -fomit-frame-pointer -falign-f"
 4293      62202D4F 
 4293      32202D73 
 4293      74643D67 
 4293      6E753939 
 4294 05ee 756E6374 		.ascii	"unctions=16 -ffunction-sections -fdata-sections -fn"
 4294      696F6E73 
 4294      3D313620 
 4294      2D666675 
 4294      6E637469 
 4295 0621 6F2D636F 		.ascii	"o-common -fsingle-precision-constant\000"
 4295      6D6D6F6E 
 4295      202D6673 
 4295      696E676C 
 4295      652D7072 
 4296              	.LASF138:
 4297 0646 696F706F 		.ascii	"ioportmask_t\000"
 4297      72746D61 
 4297      736B5F74 
 4297      00
 4298              	.LASF40:
 4299 0653 705F666C 		.ascii	"p_flags\000"
 4299      61677300 
 4300              	.LASF66:
 4301 065b 76697274 		.ascii	"virtual_timer_t\000"
 4301      75616C5F 
 4301      74696D65 
 4301      725F7400 
 4302              	.LASF172:
 4303 066b 54494D5F 		.ascii	"TIM_OCNIdleState\000"
 4303      4F434E49 
 4303      646C6553 
 4303      74617465 
 4303      00
 4304              	.LASF183:
 4305 067c 62697462 		.ascii	"bitbuffer\000"
 4305      75666665 
 4305      7200
 4306              	.LASF89:
 4307 0686 444D415F 		.ascii	"DMA_Stream_TypeDef\000"
 4307      53747265 
 4307      616D5F54 
 4307      79706544 
 4307      656600
 4308              	.LASF145:
 4309 0699 444D415F 		.ascii	"DMA_Memory0BaseAddr\000"
 4309      4D656D6F 
 4309      72793042 
 4309      61736541 
 4309      64647200 
 4310              	.LASF25:
 4311 06ad 74736C69 		.ascii	"tslices_t\000"
 4311      6365735F 
 4311      7400
ARM GAS  /var/folders/m4/4md61f0s1_g0rzfghffqnxvr0000gn/T//ccTJVolh.s 			page 82


 4312              	.LASF63:
 4313 06b7 725F6F6C 		.ascii	"r_older\000"
 4313      64657200 
 4314              	.LASF154:
 4315 06bf 444D415F 		.ascii	"DMA_FIFOMode\000"
 4315      4649464F 
 4315      4D6F6465 
 4315      00
 4316              	.LASF153:
 4317 06cc 444D415F 		.ascii	"DMA_Priority\000"
 4317      5072696F 
 4317      72697479 
 4317      00
 4318              	.LASF46:
 4319 06d9 705F6D73 		.ascii	"p_msg\000"
 4319      6700
 4320              	.LASF22:
 4321 06df 746D6F64 		.ascii	"tmode_t\000"
 4321      655F7400 
 4322              	.LASF83:
 4323 06e7 6D61696E 		.ascii	"mainthread\000"
 4323      74687265 
 4323      616400
 4324              	.LASF150:
 4325 06f2 444D415F 		.ascii	"DMA_PeripheralDataSize\000"
 4325      50657269 
 4325      70686572 
 4325      616C4461 
 4325      74615369 
 4326              	.LASF131:
 4327 0709 4F535045 		.ascii	"OSPEEDR\000"
 4327      45445200 
 4328              	.LASF142:
 4329 0711 6C6F6E67 		.ascii	"long double\000"
 4329      20646F75 
 4329      626C6500 
 4330              	.LASF17:
 4331 071d 75696E74 		.ascii	"uint16_t\000"
 4331      31365F74 
 4331      00
 4332              	.LASF156:
 4333 0726 444D415F 		.ascii	"DMA_MemoryBurst\000"
 4333      4D656D6F 
 4333      72794275 
 4333      72737400 
 4334              	.LASF151:
 4335 0736 444D415F 		.ascii	"DMA_MemoryDataSize\000"
 4335      4D656D6F 
 4335      72794461 
 4335      74615369 
 4335      7A6500
 4336              	.LASF21:
 4337 0749 7274636E 		.ascii	"rtcnt_t\000"
 4337      745F7400 
 4338              	.LASF165:
 4339 0751 54494D5F 		.ascii	"TIM_OCMode\000"
 4339      4F434D6F 
ARM GAS  /var/folders/m4/4md61f0s1_g0rzfghffqnxvr0000gn/T//ccTJVolh.s 			page 83


 4339      646500
 4340              	.LASF177:
 4341 075c 746D705F 		.ascii	"tmp_color\000"
 4341      636F6C6F 
 4341      7200
 4342              	.LASF49:
 4343 0766 705F7265 		.ascii	"p_realprio\000"
 4343      616C7072 
 4343      696F00
 4344              	.LASF6:
 4345 0771 73686F72 		.ascii	"short int\000"
 4345      7420696E 
 4345      7400
 4346              	.LASF64:
 4347 077b 725F6375 		.ascii	"r_current\000"
 4347      7272656E 
 4347      7400
 4348              	.LASF158:
 4349 0785 444D415F 		.ascii	"DMA_InitTypeDef\000"
 4349      496E6974 
 4349      54797065 
 4349      44656600 
 4350              	.LASF47:
 4351 0795 705F6570 		.ascii	"p_epending\000"
 4351      656E6469 
 4351      6E6700
 4352              	.LASF122:
 4353 07a0 6D5F7175 		.ascii	"m_queue\000"
 4353      65756500 
 4354              	.LASF166:
 4355 07a8 54494D5F 		.ascii	"TIM_OutputState\000"
 4355      4F757470 
 4355      75745374 
 4355      61746500 
 4356              	.LASF108:
 4357 07b8 706F7274 		.ascii	"port_intctx\000"
 4357      5F696E74 
 4357      63747800 
 4358              	.LASF186:
 4359 07c4 49544D5F 		.ascii	"ITM_RxBuffer\000"
 4359      52784275 
 4359      66666572 
 4359      00
 4360              	.LASF80:
 4361 07d1 63685F73 		.ascii	"ch_system\000"
 4361      79737465 
 4361      6D00
 4362              	.LASF168:
 4363 07db 54494D5F 		.ascii	"TIM_Pulse\000"
 4363      50756C73 
 4363      6500
 4364              	.LASF130:
 4365 07e5 4F545950 		.ascii	"OTYPER\000"
 4365      455200
 4366              	.LASF32:
 4367 07ec 705F6E65 		.ascii	"p_next\000"
 4367      787400
ARM GAS  /var/folders/m4/4md61f0s1_g0rzfghffqnxvr0000gn/T//ccTJVolh.s 			page 84


 4368              	.LASF20:
 4369 07f3 75696E74 		.ascii	"uint64_t\000"
 4369      36345F74 
 4369      00
 4370              	.LASF35:
 4371 07fc 705F6374 		.ascii	"p_ctx\000"
 4371      7800
 4372              	.LASF81:
 4373 0802 726C6973 		.ascii	"rlist\000"
 4373      7400
 4374              	.LASF205:
 4375 0808 54494D5F 		.ascii	"TIM_CtrlPWMOutputs\000"
 4375      4374726C 
 4375      50574D4F 
 4375      75747075 
 4375      747300
 4376              	.LASF4:
 4377 081b 5F5F7569 		.ascii	"__uint8_t\000"
 4377      6E74385F 
 4377      7400
 4378              	.LASF88:
 4379 0825 4D314152 		.ascii	"M1AR\000"
 4379      00
 4380              	.LASF167:
 4381 082a 54494D5F 		.ascii	"TIM_OutputNState\000"
 4381      4F757470 
 4381      75744E53 
 4381      74617465 
 4381      00
 4382              	.LASF147:
 4383 083b 444D415F 		.ascii	"DMA_BufferSize\000"
 4383      42756666 
 4383      65725369 
 4383      7A6500
 4384              	.LASF199:
 4385 084a 54494D5F 		.ascii	"TIM_DMACmd\000"
 4385      444D4143 
 4385      6D6400
 4386              	.LASF33:
 4387 0855 705F7072 		.ascii	"p_prev\000"
 4387      657600
 4388              	.LASF103:
 4389 085c 454E4142 		.ascii	"ENABLE\000"
 4389      4C4500
 4390              	.LASF85:
 4391 0863 73697A65 		.ascii	"sizetype\000"
 4391      74797065 
 4391      00
 4392              	.LASF24:
 4393 086c 74726566 		.ascii	"trefs_t\000"
 4393      735F7400 
 4394              	.LASF182:
 4395 0874 77733238 		.ascii	"ws2812b_set_all\000"
 4395      3132625F 
 4395      7365745F 
 4395      616C6C00 
 4396              	.LASF12:
ARM GAS  /var/folders/m4/4md61f0s1_g0rzfghffqnxvr0000gn/T//ccTJVolh.s 			page 85


 4397 0884 6C6F6E67 		.ascii	"long unsigned int\000"
 4397      20756E73 
 4397      69676E65 
 4397      6420696E 
 4397      7400
 4398              	.LASF57:
 4399 0896 72656164 		.ascii	"ready_list_t\000"
 4399      795F6C69 
 4399      73745F74 
 4399      00
 4400              	.LASF18:
 4401 08a3 696E7433 		.ascii	"int32_t\000"
 4401      325F7400 
 4402              	.LASF84:
 4403 08ab 69646C65 		.ascii	"idle_thread_wa\000"
 4403      5F746872 
 4403      6561645F 
 4403      776100
 4404              	.LASF115:
 4405 08ba 77747365 		.ascii	"wtsemp\000"
 4405      6D7000
 4406              	.LASF174:
 4407 08c1 54494D5F 		.ascii	"TIM_TimeBaseStructure\000"
 4407      54696D65 
 4407      42617365 
 4407      53747275 
 4407      63747572 
 4408              	.LASF143:
 4409 08d7 444D415F 		.ascii	"DMA_Channel\000"
 4409      4368616E 
 4409      6E656C00 
 4410              	.LASF126:
 4411 08e3 6D757465 		.ascii	"mutex_t\000"
 4411      785F7400 
 4412              	.LASF5:
 4413 08eb 756E7369 		.ascii	"unsigned char\000"
 4413      676E6564 
 4413      20636861 
 4413      7200
 4414              	.LASF11:
 4415 08f9 5F5F7569 		.ascii	"__uint32_t\000"
 4415      6E743332 
 4415      5F7400
 4416              	.LASF195:
 4417 0904 54494D5F 		.ascii	"TIM_OC3Init\000"
 4417      4F433349 
 4417      6E697400 
 4418              	.LASF73:
 4419 0910 76697274 		.ascii	"virtual_timers_list_t\000"
 4419      75616C5F 
 4419      74696D65 
 4419      72735F6C 
 4419      6973745F 
 4420              	.LASF41:
 4421 0926 705F7265 		.ascii	"p_refs\000"
 4421      667300
 4422              	.LASF78:
ARM GAS  /var/folders/m4/4md61f0s1_g0rzfghffqnxvr0000gn/T//ccTJVolh.s 			page 86


 4423 092d 70616E69 		.ascii	"panic_msg\000"
 4423      635F6D73 
 4423      6700
 4424              	.LASF191:
 4425 0937 444D415F 		.ascii	"DMA_DeInit\000"
 4425      4465496E 
 4425      697400
 4426              	.LASF42:
 4427 0942 705F7072 		.ascii	"p_preempt\000"
 4427      65656D70 
 4427      7400
 4428              	.LASF117:
 4429 094c 65776D61 		.ascii	"ewmask\000"
 4429      736B00
 4430              	.LASF68:
 4431 0953 76745F6E 		.ascii	"vt_next\000"
 4431      65787400 
 4432              	.LASF189:
 4433 095b 5F70616C 		.ascii	"_pal_lld_setgroupmode\000"
 4433      5F6C6C64 
 4433      5F736574 
 4433      67726F75 
 4433      706D6F64 
 4434              	.LASF79:
 4435 0971 63685F73 		.ascii	"ch_system_t\000"
 4435      79737465 
 4435      6D5F7400 
 4436              	.LASF139:
 4437 097d 696F6D6F 		.ascii	"iomode_t\000"
 4437      64655F74 
 4437      00
 4438              	.LASF164:
 4439 0986 54494D5F 		.ascii	"TIM_TimeBaseInitTypeDef\000"
 4439      54696D65 
 4439      42617365 
 4439      496E6974 
 4439      54797065 
 4440              	.LASF124:
 4441 099e 6D5F6E65 		.ascii	"m_next\000"
 4441      787400
 4442              	.LASF2:
 4443 09a5 7369676E 		.ascii	"signed char\000"
 4443      65642063 
 4443      68617200 
 4444              	.LASF8:
 4445 09b1 73686F72 		.ascii	"short unsigned int\000"
 4445      7420756E 
 4445      7369676E 
 4445      65642069 
 4445      6E7400
 4446              	.LASF61:
 4447 09c4 725F6374 		.ascii	"r_ctx\000"
 4447      7800
 4448              	.LASF106:
 4449 09ca 73746B61 		.ascii	"stkalign_t\000"
 4449      6C69676E 
 4449      5F7400
ARM GAS  /var/folders/m4/4md61f0s1_g0rzfghffqnxvr0000gn/T//ccTJVolh.s 			page 87


 4450              	.LASF155:
 4451 09d5 444D415F 		.ascii	"DMA_FIFOThreshold\000"
 4451      4649464F 
 4451      54687265 
 4451      73686F6C 
 4451      6400
 4452              	.LASF71:
 4453 09e7 76745F66 		.ascii	"vt_func\000"
 4453      756E6300 
 4454              	.LASF181:
 4455 09ef 77733238 		.ascii	"ws2812b_all_off\000"
 4455      3132625F 
 4455      616C6C5F 
 4455      6F666600 
 4456              	.LASF141:
 4457 09ff 646F7562 		.ascii	"double\000"
 4457      6C6500
 4458              	.LASF69:
 4459 0a06 76745F70 		.ascii	"vt_prev\000"
 4459      72657600 
 4460              	.LASF114:
 4461 0a0e 77747472 		.ascii	"wttrp\000"
 4461      7000
 4462              	.LASF116:
 4463 0a14 77746D74 		.ascii	"wtmtxp\000"
 4463      787000
 4464              	.LASF112:
 4465 0a1b 65786974 		.ascii	"exitcode\000"
 4465      636F6465 
 4465      00
 4466              	.LASF134:
 4467 0a24 4C434B52 		.ascii	"LCKR\000"
 4467      00
 4468              	.LASF185:
 4469 0a29 67616D6D 		.ascii	"gamma_table\000"
 4469      615F7461 
 4469      626C6500 
 4470              		.ident	"GCC: (GNU Tools for ARM Embedded Processors) 4.9.3 20150529 (release) [ARM/embedded-4_9-br
ARM GAS  /var/folders/m4/4md61f0s1_g0rzfghffqnxvr0000gn/T//ccTJVolh.s 			page 88


DEFINED SYMBOLS
                            *ABS*:0000000000000000 ws2812b.c
/var/folders/m4/4md61f0s1_g0rzfghffqnxvr0000gn/T//ccTJVolh.s:21     .text.ws2812b_init:0000000000000000 $t
/var/folders/m4/4md61f0s1_g0rzfghffqnxvr0000gn/T//ccTJVolh.s:27     .text.ws2812b_init:0000000000000000 ws2812b_init
/var/folders/m4/4md61f0s1_g0rzfghffqnxvr0000gn/T//ccTJVolh.s:335    .text.ws2812b_init:000000000000019c $d
/var/folders/m4/4md61f0s1_g0rzfghffqnxvr0000gn/T//ccTJVolh.s:350    .text.ws2812b_set_led_color:0000000000000000 $t
/var/folders/m4/4md61f0s1_g0rzfghffqnxvr0000gn/T//ccTJVolh.s:356    .text.ws2812b_set_led_color:0000000000000000 ws2812b_set_led_color
/var/folders/m4/4md61f0s1_g0rzfghffqnxvr0000gn/T//ccTJVolh.s:457    .text.ws2812b_set_led_color:0000000000000050 $d
/var/folders/m4/4md61f0s1_g0rzfghffqnxvr0000gn/T//ccTJVolh.s:464    .text.ws2812b_get_led_color:0000000000000000 $t
/var/folders/m4/4md61f0s1_g0rzfghffqnxvr0000gn/T//ccTJVolh.s:470    .text.ws2812b_get_led_color:0000000000000000 ws2812b_get_led_color
/var/folders/m4/4md61f0s1_g0rzfghffqnxvr0000gn/T//ccTJVolh.s:492    .text.ws2812b_get_led_color:0000000000000010 $d
/var/folders/m4/4md61f0s1_g0rzfghffqnxvr0000gn/T//ccTJVolh.s:497    .text.ws2812b_all_off:0000000000000000 $t
/var/folders/m4/4md61f0s1_g0rzfghffqnxvr0000gn/T//ccTJVolh.s:503    .text.ws2812b_all_off:0000000000000000 ws2812b_all_off
/var/folders/m4/4md61f0s1_g0rzfghffqnxvr0000gn/T//ccTJVolh.s:538    .text.ws2812b_all_off:0000000000000020 $d
/var/folders/m4/4md61f0s1_g0rzfghffqnxvr0000gn/T//ccTJVolh.s:544    .text.ws2812b_set_all:0000000000000000 $t
/var/folders/m4/4md61f0s1_g0rzfghffqnxvr0000gn/T//ccTJVolh.s:550    .text.ws2812b_set_all:0000000000000000 ws2812b_set_all
/var/folders/m4/4md61f0s1_g0rzfghffqnxvr0000gn/T//ccTJVolh.s:618    .text.ws2812b_set_all:0000000000000050 $d
/var/folders/m4/4md61f0s1_g0rzfghffqnxvr0000gn/T//ccTJVolh.s:625    .bss.RGBdata:0000000000000000 $d
/var/folders/m4/4md61f0s1_g0rzfghffqnxvr0000gn/T//ccTJVolh.s:629    .bss.RGBdata:0000000000000000 RGBdata
/var/folders/m4/4md61f0s1_g0rzfghffqnxvr0000gn/T//ccTJVolh.s:632    .bss.bitbuffer:0000000000000000 $d
/var/folders/m4/4md61f0s1_g0rzfghffqnxvr0000gn/T//ccTJVolh.s:636    .bss.bitbuffer:0000000000000000 bitbuffer
/var/folders/m4/4md61f0s1_g0rzfghffqnxvr0000gn/T//ccTJVolh.s:639    .bss.gamma_table:0000000000000000 $d
/var/folders/m4/4md61f0s1_g0rzfghffqnxvr0000gn/T//ccTJVolh.s:643    .bss.gamma_table:0000000000000000 gamma_table
                     .debug_frame:0000000000000010 $d

UNDEFINED SYMBOLS
powf
roundf
_pal_lld_setgroupmode
RCC_AHB1PeriphClockCmd
DMA_DeInit
DMA_Init
RCC_APB1PeriphClockCmd
TIM_TimeBaseInit
TIM_OC3Init
TIM_OC3PreloadConfig
TIM_Cmd
DMA_Cmd
TIM_DMACmd
TIM_CtrlPWMOutputs
