ARM GAS  /var/folders/m4/4md61f0s1_g0rzfghffqnxvr0000gn/T//ccoFET1J.s 			page 1


   1              		.syntax unified
   2              		.cpu cortex-m4
   3              		.eabi_attribute 27, 1
   4              		.eabi_attribute 28, 1
   5              		.fpu fpv4-sp-d16
   6              		.eabi_attribute 20, 1
   7              		.eabi_attribute 21, 1
   8              		.eabi_attribute 23, 3
   9              		.eabi_attribute 24, 1
  10              		.eabi_attribute 25, 1
  11              		.eabi_attribute 26, 1
  12              		.eabi_attribute 30, 2
  13              		.eabi_attribute 34, 1
  14              		.eabi_attribute 18, 4
  15              		.thumb
  16              		.file	"ws2812b.cpp"
  17              		.text
  18              	.Ltext0:
  19              		.cfi_sections	.debug_frame
  20              		.section	.text._Z12ws2812b_initv,"ax",%progbits
  21              		.align	2
  22              		.p2align 4,,15
  23              		.global	_Z12ws2812b_initv
  24              		.thumb
  25              		.thumb_func
  26              		.type	_Z12ws2812b_initv, %function
  27              	_Z12ws2812b_initv:
  28              	.LFB268:
  29              		.file 1 "ws2812b.cpp"
  30              		.loc 1 25 0
  31              		.cfi_startproc
  32              		@ args = 0, pretend = 0, frame = 96
  33              		@ frame_needed = 0, uses_anonymous_args = 0
  34              	.LVL0:
  35 0000 2DE9F04F 		push	{r4, r5, r6, r7, r8, r9, r10, fp, lr}
  36              		.cfi_def_cfa_offset 36
  37              		.cfi_offset 4, -36
  38              		.cfi_offset 5, -32
  39              		.cfi_offset 6, -28
  40              		.cfi_offset 7, -24
  41              		.cfi_offset 8, -20
  42              		.cfi_offset 9, -16
  43              		.cfi_offset 10, -12
  44              		.cfi_offset 11, -8
  45              		.cfi_offset 14, -4
  46 0004 2DED028B 		fstmfdd	sp!, {d8}
  47              		.cfi_def_cfa_offset 44
  48              		.cfi_offset 80, -44
  49              		.cfi_offset 81, -40
  50              	.LBB19:
  51              		.loc 1 34 0
  52 0008 644B     		ldr	r3, .L14
  53 000a 654E     		ldr	r6, .L14+4
  54 000c DFF8B0C1 		ldr	ip, .L14+36
  55 0010 0022     		movs	r2, #0
  56 0012 1A60     		str	r2, [r3]
  57              	.LVL1:
ARM GAS  /var/folders/m4/4md61f0s1_g0rzfghffqnxvr0000gn/T//ccoFET1J.s 			page 2


  58 0014 5A60     		str	r2, [r3, #4]
  59              	.LVL2:
  60 0016 9A60     		str	r2, [r3, #8]
  61              	.LVL3:
  62 0018 DA60     		str	r2, [r3, #12]
  63              	.LVL4:
  64 001a 1A61     		str	r2, [r3, #16]
  65              	.LVL5:
  66 001c 9E46     		mov	lr, r3
  67              	.LBE19:
  68              		.loc 1 25 0
  69 001e 99B0     		sub	sp, sp, #100
  70              		.cfi_def_cfa_offset 144
  71              	.LBB24:
  72              		.loc 1 34 0
  73 0020 1546     		mov	r5, r2
  74 0022 1146     		mov	r1, r2
  75 0024 3746     		mov	r7, r6
  76 0026 3346     		mov	r3, r6
  77              	.LBB20:
  78              	.LBB21:
  79              		.loc 1 44 0
  80 0028 2124     		movs	r4, #33
  81              		.loc 1 42 0
  82 002a 4220     		movs	r0, #66
  83              	.LVL6:
  84              	.L6:
  85              	.LBB22:
  86              	.LBB23:
  87              		.loc 1 179 0
  88 002c C1F30742 		ubfx	r2, r1, #16, #8
  89              		.loc 1 180 0
  90 0030 C1F30728 		ubfx	r8, r1, #8, #8
  91              		.loc 1 183 0
  92 0034 1CF80220 		ldrb	r2, [ip, r2]	@ zero_extendqisi2
  93              	.LVL7:
  94              		.loc 1 184 0
  95 0038 1CF80880 		ldrb	r8, [ip, r8]	@ zero_extendqisi2
  96              	.LVL8:
  97              		.loc 1 181 0
  98 003c C9B2     		uxtb	r1, r1
  99              	.LVL9:
 100              		.loc 1 187 0
 101 003e 1202     		lsls	r2, r2, #8
 102              	.LVL10:
 103              		.loc 1 185 0
 104 0040 1CF80110 		ldrb	r1, [ip, r1]	@ zero_extendqisi2
 105              	.LVL11:
 106              		.loc 1 187 0
 107 0044 42EA0842 		orr	r2, r2, r8, lsl #16
 108 0048 0A43     		orrs	r2, r2, r1
 109              	.LVL12:
 110 004a 03F13001 		add	r1, r3, #48
 111              	.LVL13:
 112              	.L4:
 113              	.LBE23:
 114              	.LBE22:
ARM GAS  /var/folders/m4/4md61f0s1_g0rzfghffqnxvr0000gn/T//ccoFET1J.s 			page 3


 115              		.loc 1 41 0
 116 004e 12F4000F 		tst	r2, #8388608
 117              		.loc 1 42 0
 118 0052 14BF     		ite	ne
 119 0054 1880     		strhne	r0, [r3]	@ movhi
 120              		.loc 1 44 0
 121 0056 1C80     		strheq	r4, [r3]	@ movhi
 122 0058 0233     		adds	r3, r3, #2
 123              		.loc 1 40 0
 124 005a 8B42     		cmp	r3, r1
 125              		.loc 1 46 0
 126 005c 4FEA4202 		lsl	r2, r2, #1
 127              	.LVL14:
 128              		.loc 1 40 0
 129 0060 F5D1     		bne	.L4
 130 0062 1835     		adds	r5, r5, #24
 131              	.LBE21:
 132              		.loc 1 37 0 discriminator 2
 133 0064 782D     		cmp	r5, #120
 134 0066 02D0     		beq	.L5
 135 0068 5EF8041F 		ldr	r1, [lr, #4]!
 136 006c DEE7     		b	.L6
 137              	.L5:
 138 006e 4D4B     		ldr	r3, .L14+8
 139              	.LBE20:
 140              		.loc 1 53 0
 141 0070 0021     		movs	r1, #0
 142 0072 03F16402 		add	r2, r3, #100
 143              	.LVL15:
 144              	.L7:
 145              		.loc 1 53 0 is_stmt 0 discriminator 3
 146 0076 23F8021F 		strh	r1, [r3, #2]!	@ movhi
 147              		.loc 1 52 0 is_stmt 1 discriminator 3
 148 007a 9342     		cmp	r3, r2
 149 007c FBD1     		bne	.L7
 150 007e 4A4D     		ldr	r5, .L14+12
 151              		.loc 1 58 0
 152 0080 9FED4A8A 		flds	s16, .L14+16
 153              		.loc 1 52 0
 154 0084 0024     		movs	r4, #0
 155              	.L8:
 156              	.LVL16:
 157              		.loc 1 58 0 discriminator 3
 158 0086 07EE904A 		fmsr	s15, r4	@ int
 159 008a B8EEE70A 		fsitos	s0, s15
 160 008e DFED480A 		flds	s1, .L14+20
 161 0092 80EE080A 		fdivs	s0, s0, s16
 162 0096 FFF7FEFF 		bl	powf
 163              	.LVL17:
 164              		.loc 1 57 0 discriminator 3
 165 009a 0134     		adds	r4, r4, #1
 166              	.LVL18:
 167              		.loc 1 58 0 discriminator 3
 168 009c 20EE080A 		fmuls	s0, s0, s16
 169 00a0 FFF7FEFF 		bl	roundf
 170              	.LVL19:
 171 00a4 FDEEC07A 		ftosizs	s15, s0
ARM GAS  /var/folders/m4/4md61f0s1_g0rzfghffqnxvr0000gn/T//ccoFET1J.s 			page 4


 172              		.loc 1 57 0 discriminator 3
 173 00a8 B4F5807F 		cmp	r4, #256
 174              		.loc 1 58 0 discriminator 3
 175 00ac 17EE903A 		fmrs	r3, s15	@ int
 176 00b0 05F8013F 		strb	r3, [r5, #1]!
 177              		.loc 1 57 0 discriminator 3
 178 00b4 E7D1     		bne	.L8
 179              		.loc 1 64 0
 180 00b6 4FF48572 		mov	r2, #266
 181 00ba 2146     		mov	r1, r4
 182 00bc 3D48     		ldr	r0, .L14+24
 183              		.loc 1 70 0
 184 00be DFF804A1 		ldr	r10, .L14+40
 185              		.loc 1 64 0
 186 00c2 FFF7FEFF 		bl	_pal_lld_setgroupmode
 187              	.LVL20:
 188              		.loc 1 67 0
 189 00c6 0121     		movs	r1, #1
 190 00c8 4FF40010 		mov	r0, #2097152
 191 00cc FFF7FEFF 		bl	RCC_AHB1PeriphClockCmd
 192              	.LVL21:
 193              		.loc 1 69 0
 194 00d0 3948     		ldr	r0, .L14+28
 195 00d2 FFF7FEFF 		bl	DMA_DeInit
 196              	.LVL22:
 197              		.loc 1 76 0
 198 00d6 0025     		movs	r5, #0
 199              		.loc 1 77 0
 200 00d8 4FF4806C 		mov	ip, #1024
 201              		.loc 1 79 0
 202 00dc 4FF4005E 		mov	lr, #8192
 203              		.loc 1 81 0
 204 00e0 4FF40032 		mov	r2, #131072
 205              		.loc 1 83 0
 206 00e4 0323     		movs	r3, #3
 207              		.loc 1 73 0
 208 00e6 0B96     		str	r6, [sp, #44]
 209              		.loc 1 87 0
 210 00e8 09A9     		add	r1, sp, #36
 211              		.loc 1 78 0
 212 00ea 4FF40066 		mov	r6, #2048
 213              		.loc 1 87 0
 214 00ee 3248     		ldr	r0, .L14+28
 215              		.loc 1 77 0
 216 00f0 CDF83CC0 		str	ip, [sp, #60]
 217              		.loc 1 72 0
 218 00f4 4FF0806B 		mov	fp, #67108864
 219              		.loc 1 74 0
 220 00f8 4FF04009 		mov	r9, #64
 221              		.loc 1 75 0
 222 00fc 4FF0AA08 		mov	r8, #170
 223              	.LVL23:
 224              		.loc 1 79 0
 225 0100 CDF844E0 		str	lr, [sp, #68]
 226              		.loc 1 81 0
 227 0104 1392     		str	r2, [sp, #76]
 228              		.loc 1 83 0
ARM GAS  /var/folders/m4/4md61f0s1_g0rzfghffqnxvr0000gn/T//ccoFET1J.s 			page 5


 229 0106 1593     		str	r3, [sp, #84]
 230              		.loc 1 80 0
 231 0108 1294     		str	r4, [sp, #72]
 232              		.loc 1 70 0
 233 010a CDF828A0 		str	r10, [sp, #40]
 234              		.loc 1 72 0
 235 010e CDF824B0 		str	fp, [sp, #36]
 236              		.loc 1 74 0
 237 0112 CDF83090 		str	r9, [sp, #48]
 238              		.loc 1 75 0
 239 0116 CDF83480 		str	r8, [sp, #52]
 240              		.loc 1 76 0
 241 011a 0E95     		str	r5, [sp, #56]
 242              		.loc 1 82 0
 243 011c 1495     		str	r5, [sp, #80]
 244              		.loc 1 84 0
 245 011e 1695     		str	r5, [sp, #88]
 246              		.loc 1 85 0
 247 0120 1795     		str	r5, [sp, #92]
 248              		.loc 1 78 0
 249 0122 1096     		str	r6, [sp, #64]
 250              		.loc 1 87 0
 251 0124 FFF7FEFF 		bl	DMA_Init
 252              	.LVL24:
 253              		.loc 1 89 0
 254 0128 0420     		movs	r0, #4
 255 012a 0121     		movs	r1, #1
 256 012c FFF7FEFF 		bl	RCC_APB1PeriphClockCmd
 257              	.LVL25:
 258              		.loc 1 94 0
 259 0130 6823     		movs	r3, #104
 260              		.loc 1 98 0
 261 0132 01A9     		add	r1, sp, #4
 262 0134 2148     		ldr	r0, .L14+32
 263              		.loc 1 94 0
 264 0136 0293     		str	r3, [sp, #8]
 265              		.loc 1 102 0
 266 0138 0124     		movs	r4, #1
 267              	.LVL26:
 268              		.loc 1 92 0
 269 013a ADF80450 		strh	r5, [sp, #4]	@ movhi
 270              		.loc 1 93 0
 271 013e ADF80650 		strh	r5, [sp, #6]	@ movhi
 272              		.loc 1 95 0
 273 0142 ADF80C50 		strh	r5, [sp, #12]	@ movhi
 274              		.loc 1 96 0
 275 0146 8DF80E50 		strb	r5, [sp, #14]
 276              		.loc 1 98 0
 277 014a FFF7FEFF 		bl	TIM_TimeBaseInit
 278              	.LVL27:
 279              		.loc 1 101 0
 280 014e 6023     		movs	r3, #96
 281              		.loc 1 103 0
 282 0150 3A88     		ldrh	r2, [r7]
 283              		.loc 1 106 0
 284 0152 1A48     		ldr	r0, .L14+32
 285              		.loc 1 101 0
ARM GAS  /var/folders/m4/4md61f0s1_g0rzfghffqnxvr0000gn/T//ccoFET1J.s 			page 6


 286 0154 ADF81030 		strh	r3, [sp, #16]	@ movhi
 287              		.loc 1 106 0
 288 0158 04A9     		add	r1, sp, #16
 289              		.loc 1 103 0
 290 015a 0692     		str	r2, [sp, #24]
 291              		.loc 1 104 0
 292 015c ADF81C50 		strh	r5, [sp, #28]	@ movhi
 293              		.loc 1 102 0
 294 0160 ADF81240 		strh	r4, [sp, #18]	@ movhi
 295              		.loc 1 106 0
 296 0164 FFF7FEFF 		bl	TIM_OC3Init
 297              	.LVL28:
 298              		.loc 1 107 0
 299 0168 1448     		ldr	r0, .L14+32
 300 016a 0821     		movs	r1, #8
 301 016c FFF7FEFF 		bl	TIM_OC3PreloadConfig
 302              	.LVL29:
 303              		.loc 1 110 0
 304 0170 2146     		mov	r1, r4
 305 0172 1248     		ldr	r0, .L14+32
 306 0174 FFF7FEFF 		bl	TIM_Cmd
 307              	.LVL30:
 308              		.loc 1 112 0
 309 0178 2146     		mov	r1, r4
 310 017a 0F48     		ldr	r0, .L14+28
 311 017c FFF7FEFF 		bl	DMA_Cmd
 312              	.LVL31:
 313              		.loc 1 115 0
 314 0180 3146     		mov	r1, r6
 315 0182 2246     		mov	r2, r4
 316 0184 0D48     		ldr	r0, .L14+32
 317 0186 FFF7FEFF 		bl	TIM_DMACmd
 318              	.LVL32:
 319              		.loc 1 118 0
 320 018a 2146     		mov	r1, r4
 321 018c 0B48     		ldr	r0, .L14+32
 322 018e FFF7FEFF 		bl	TIM_CtrlPWMOutputs
 323              	.LVL33:
 324              	.LBE24:
 325              		.loc 1 119 0
 326 0192 19B0     		add	sp, sp, #100
 327              		.cfi_def_cfa_offset 44
 328              		@ sp needed
 329 0194 BDEC028B 		fldmfdd	sp!, {d8}
 330              		.cfi_restore 80
 331              		.cfi_restore 81
 332              		.cfi_def_cfa_offset 36
 333 0198 BDE8F08F 		pop	{r4, r5, r6, r7, r8, r9, r10, fp, pc}
 334              	.L15:
 335              		.align	2
 336              	.L14:
 337 019c 00000000 		.word	.LANCHOR0
 338 01a0 00000000 		.word	.LANCHOR1
 339 01a4 EC000000 		.word	.LANCHOR1+236
 340 01a8 FFFFFFFF 		.word	.LANCHOR2-1
 341 01ac 00007F43 		.word	1132396544
 342 01b0 E4380E40 		.word	1074673892
ARM GAS  /var/folders/m4/4md61f0s1_g0rzfghffqnxvr0000gn/T//ccoFET1J.s 			page 7


 343 01b4 00040240 		.word	1073873920
 344 01b8 B8600240 		.word	1073897656
 345 01bc 00080040 		.word	1073743872
 346 01c0 00000000 		.word	.LANCHOR2
 347 01c4 3C080040 		.word	1073743932
 348              		.cfi_endproc
 349              	.LFE268:
 350              		.size	_Z12ws2812b_initv, .-_Z12ws2812b_initv
 351              		.section	.text._Z21ws2812b_set_led_colorim,"ax",%progbits
 352              		.align	2
 353              		.p2align 4,,15
 354              		.global	_Z21ws2812b_set_led_colorim
 355              		.thumb
 356              		.thumb_func
 357              		.type	_Z21ws2812b_set_led_colorim, %function
 358              	_Z21ws2812b_set_led_colorim:
 359              	.LFB269:
 360              		.loc 1 121 0
 361              		.cfi_startproc
 362              		@ args = 0, pretend = 0, frame = 0
 363              		@ frame_needed = 0, uses_anonymous_args = 0
 364              		@ link register save eliminated.
 365              	.LVL34:
 366              	.LBB25:
 367              		.loc 1 122 0
 368 0000 0328     		cmp	r0, #3
 369 0002 24DC     		bgt	.L25
 370              	.LBE25:
 371              		.loc 1 121 0
 372 0004 30B4     		push	{r4, r5}
 373              		.cfi_def_cfa_offset 8
 374              		.cfi_offset 4, -8
 375              		.cfi_offset 5, -4
 376              	.LBB33:
 377              	.LBB26:
 378              		.loc 1 123 0
 379 0006 124A     		ldr	r2, .L26
 380              	.LBB27:
 381              	.LBB28:
 382              		.loc 1 183 0
 383 0008 124C     		ldr	r4, .L26+4
 384              	.LBE28:
 385              	.LBE27:
 386              		.loc 1 123 0
 387 000a 42F82010 		str	r1, [r2, r0, lsl #2]
 388              	.LVL35:
 389              	.LBB31:
 390              	.LBB29:
 391              		.loc 1 179 0
 392 000e C1F30742 		ubfx	r2, r1, #16, #8
 393              		.loc 1 180 0
 394 0012 C1F30725 		ubfx	r5, r1, #8, #8
 395              		.loc 1 183 0
 396 0016 A25C     		ldrb	r2, [r4, r2]	@ zero_extendqisi2
 397              	.LVL36:
 398              		.loc 1 184 0
 399 0018 655D     		ldrb	r5, [r4, r5]	@ zero_extendqisi2
ARM GAS  /var/folders/m4/4md61f0s1_g0rzfghffqnxvr0000gn/T//ccoFET1J.s 			page 8


 400              	.LVL37:
 401 001a 0F4B     		ldr	r3, .L26+8
 402              		.loc 1 181 0
 403 001c C9B2     		uxtb	r1, r1
 404              	.LVL38:
 405              	.LBE29:
 406              	.LBE31:
 407              		.loc 1 130 0
 408 001e 00EB4000 		add	r0, r0, r0, lsl #1
 409              	.LVL39:
 410              	.LBB32:
 411              	.LBB30:
 412              		.loc 1 185 0
 413 0022 615C     		ldrb	r1, [r4, r1]	@ zero_extendqisi2
 414              	.LVL40:
 415 0024 0001     		lsls	r0, r0, #4
 416              		.loc 1 187 0
 417 0026 1202     		lsls	r2, r2, #8
 418              	.LVL41:
 419 0028 00F13004 		add	r4, r0, #48
 420              	.LVL42:
 421 002c 42EA0542 		orr	r2, r2, r5, lsl #16
 422 0030 0A43     		orrs	r2, r2, r1
 423              	.LVL43:
 424 0032 1919     		adds	r1, r3, r4
 425              	.LVL44:
 426 0034 0344     		add	r3, r3, r0
 427              	.LBE30:
 428              	.LBE32:
 429              		.loc 1 132 0
 430 0036 2124     		movs	r4, #33
 431              		.loc 1 130 0
 432 0038 4220     		movs	r0, #66
 433              	.LVL45:
 434              	.L20:
 435              		.loc 1 129 0
 436 003a 1502     		lsls	r5, r2, #8
 437              		.loc 1 130 0
 438 003c 4CBF     		ite	mi
 439 003e 1880     		strhmi	r0, [r3]	@ movhi
 440              		.loc 1 132 0
 441 0040 1C80     		strhpl	r4, [r3]	@ movhi
 442 0042 0233     		adds	r3, r3, #2
 443              		.loc 1 128 0
 444 0044 8B42     		cmp	r3, r1
 445              		.loc 1 134 0
 446 0046 4FEA4202 		lsl	r2, r2, #1
 447              	.LVL46:
 448              		.loc 1 128 0
 449 004a F6D1     		bne	.L20
 450              	.LBE26:
 451              	.LBE33:
 452              		.loc 1 137 0
 453 004c 30BC     		pop	{r4, r5}
 454              		.cfi_restore 5
 455              		.cfi_restore 4
 456              		.cfi_def_cfa_offset 0
ARM GAS  /var/folders/m4/4md61f0s1_g0rzfghffqnxvr0000gn/T//ccoFET1J.s 			page 9


 457              	.LVL47:
 458              	.L25:
 459 004e 7047     		bx	lr
 460              	.L27:
 461              		.align	2
 462              	.L26:
 463 0050 00000000 		.word	.LANCHOR0
 464 0054 00000000 		.word	.LANCHOR2
 465 0058 00000000 		.word	.LANCHOR1
 466              		.cfi_endproc
 467              	.LFE269:
 468              		.size	_Z21ws2812b_set_led_colorim, .-_Z21ws2812b_set_led_colorim
 469              		.section	.text._Z21ws2812b_get_led_colori,"ax",%progbits
 470              		.align	2
 471              		.p2align 4,,15
 472              		.global	_Z21ws2812b_get_led_colori
 473              		.thumb
 474              		.thumb_func
 475              		.type	_Z21ws2812b_get_led_colori, %function
 476              	_Z21ws2812b_get_led_colori:
 477              	.LFB270:
 478              		.loc 1 139 0
 479              		.cfi_startproc
 480              		@ args = 0, pretend = 0, frame = 0
 481              		@ frame_needed = 0, uses_anonymous_args = 0
 482              		@ link register save eliminated.
 483              	.LVL48:
 484              		.loc 1 140 0
 485 0000 0328     		cmp	r0, #3
 486              		.loc 1 141 0
 487 0002 DABF     		itte	le
 488 0004 024B     		ldrle	r3, .L31
 489 0006 53F82000 		ldrle	r0, [r3, r0, lsl #2]
 490              	.LVL49:
 491              		.loc 1 144 0
 492 000a 0020     		movgt	r0, #0
 493              		.loc 1 145 0
 494 000c 7047     		bx	lr
 495              	.L32:
 496 000e 00BF     		.align	2
 497              	.L31:
 498 0010 00000000 		.word	.LANCHOR0
 499              		.cfi_endproc
 500              	.LFE270:
 501              		.size	_Z21ws2812b_get_led_colori, .-_Z21ws2812b_get_led_colori
 502              		.section	.text._Z15ws2812b_all_offv,"ax",%progbits
 503              		.align	2
 504              		.p2align 4,,15
 505              		.global	_Z15ws2812b_all_offv
 506              		.thumb
 507              		.thumb_func
 508              		.type	_Z15ws2812b_all_offv, %function
 509              	_Z15ws2812b_all_offv:
 510              	.LFB271:
 511              		.loc 1 147 0
 512              		.cfi_startproc
 513              		@ args = 0, pretend = 0, frame = 0
ARM GAS  /var/folders/m4/4md61f0s1_g0rzfghffqnxvr0000gn/T//ccoFET1J.s 			page 10


 514              		@ frame_needed = 0, uses_anonymous_args = 0
 515              		@ link register save eliminated.
 516              	.LVL50:
 517              	.LBB34:
 518              		.loc 1 151 0
 519 0000 074A     		ldr	r2, .L36
 520 0002 084B     		ldr	r3, .L36+4
 521 0004 0021     		movs	r1, #0
 522 0006 1160     		str	r1, [r2]
 523              	.LVL51:
 524 0008 5160     		str	r1, [r2, #4]
 525              	.LVL52:
 526 000a 9160     		str	r1, [r2, #8]
 527              	.LVL53:
 528 000c D160     		str	r1, [r2, #12]
 529              	.LVL54:
 530 000e 03F1C001 		add	r1, r3, #192
 531              		.loc 1 155 0
 532 0012 2122     		movs	r2, #33
 533              	.LVL55:
 534              	.L34:
 535              		.loc 1 155 0 is_stmt 0 discriminator 3
 536 0014 23F8022F 		strh	r2, [r3, #2]!	@ movhi
 537              		.loc 1 154 0 is_stmt 1 discriminator 3
 538 0018 8B42     		cmp	r3, r1
 539 001a FBD1     		bne	.L34
 540              	.LBE34:
 541              		.loc 1 157 0
 542 001c 7047     		bx	lr
 543              	.L37:
 544 001e 00BF     		.align	2
 545              	.L36:
 546 0020 00000000 		.word	.LANCHOR0
 547 0024 FEFFFFFF 		.word	.LANCHOR1-2
 548              		.cfi_endproc
 549              	.LFE271:
 550              		.size	_Z15ws2812b_all_offv, .-_Z15ws2812b_all_offv
 551              		.section	.text._Z15ws2812b_set_allm,"ax",%progbits
 552              		.align	2
 553              		.p2align 4,,15
 554              		.global	_Z15ws2812b_set_allm
 555              		.thumb
 556              		.thumb_func
 557              		.type	_Z15ws2812b_set_allm, %function
 558              	_Z15ws2812b_set_allm:
 559              	.LFB272:
 560              		.loc 1 159 0
 561              		.cfi_startproc
 562              		@ args = 0, pretend = 0, frame = 0
 563              		@ frame_needed = 0, uses_anonymous_args = 0
 564              	.LVL56:
 565 0000 F0B5     		push	{r4, r5, r6, r7, lr}
 566              		.cfi_def_cfa_offset 20
 567              		.cfi_offset 4, -20
 568              		.cfi_offset 5, -16
 569              		.cfi_offset 6, -12
 570              		.cfi_offset 7, -8
ARM GAS  /var/folders/m4/4md61f0s1_g0rzfghffqnxvr0000gn/T//ccoFET1J.s 			page 11


 571              		.cfi_offset 14, -4
 572 0002 134A     		ldr	r2, .L46
 573 0004 134F     		ldr	r7, .L46+4
 574 0006 C0F30743 		ubfx	r3, r0, #16, #8
 575 000a C0F30725 		ubfx	r5, r0, #8, #8
 576 000e D15C     		ldrb	r1, [r2, r3]	@ zero_extendqisi2
 577 0010 12F805E0 		ldrb	lr, [r2, r5]	@ zero_extendqisi2
 578 0014 104B     		ldr	r3, .L46+8
 579 0016 C4B2     		uxtb	r4, r0
 580 0018 0902     		lsls	r1, r1, #8
 581 001a 125D     		ldrb	r2, [r2, r4]	@ zero_extendqisi2
 582 001c 41EA0E4E 		orr	lr, r1, lr, lsl #16
 583 0020 4EEA020E 		orr	lr, lr, r2
 584              		.loc 1 159 0
 585 0024 0026     		movs	r6, #0
 586              	.LBB35:
 587              	.LBB36:
 588              	.LBB37:
 589              		.loc 1 171 0
 590 0026 2125     		movs	r5, #33
 591              		.loc 1 169 0
 592 0028 4224     		movs	r4, #66
 593              	.LVL57:
 594              	.L42:
 595              		.loc 1 163 0
 596 002a 47F8040B 		str	r0, [r7], #4
 597              	.LVL58:
 598 002e 03F13001 		add	r1, r3, #48
 599              		.loc 1 165 0
 600 0032 7246     		mov	r2, lr
 601              	.LVL59:
 602              	.L41:
 603              		.loc 1 168 0
 604 0034 12F4000F 		tst	r2, #8388608
 605              		.loc 1 169 0
 606 0038 14BF     		ite	ne
 607 003a 1C80     		strhne	r4, [r3]	@ movhi
 608              		.loc 1 171 0
 609 003c 1D80     		strheq	r5, [r3]	@ movhi
 610 003e 0233     		adds	r3, r3, #2
 611              		.loc 1 167 0
 612 0040 8B42     		cmp	r3, r1
 613              		.loc 1 173 0
 614 0042 4FEA4202 		lsl	r2, r2, #1
 615              	.LVL60:
 616              		.loc 1 167 0
 617 0046 F5D1     		bne	.L41
 618 0048 1836     		adds	r6, r6, #24
 619              	.LBE37:
 620              		.loc 1 162 0 discriminator 2
 621 004a 602E     		cmp	r6, #96
 622 004c EDD1     		bne	.L42
 623              	.LBE36:
 624              	.LBE35:
 625              		.loc 1 176 0
 626 004e F0BD     		pop	{r4, r5, r6, r7, pc}
 627              	.L47:
ARM GAS  /var/folders/m4/4md61f0s1_g0rzfghffqnxvr0000gn/T//ccoFET1J.s 			page 12


 628              		.align	2
 629              	.L46:
 630 0050 00000000 		.word	.LANCHOR2
 631 0054 00000000 		.word	.LANCHOR0
 632 0058 00000000 		.word	.LANCHOR1
 633              		.cfi_endproc
 634              	.LFE272:
 635              		.size	_Z15ws2812b_set_allm, .-_Z15ws2812b_set_allm
 636              		.section	.bss._ZL11gamma_table,"aw",%nobits
 637              		.align	2
 638              		.set	.LANCHOR2,. + 0
 639              		.type	_ZL11gamma_table, %object
 640              		.size	_ZL11gamma_table, 256
 641              	_ZL11gamma_table:
 642 0000 00000000 		.space	256
 642      00000000 
 642      00000000 
 642      00000000 
 642      00000000 
 643              		.section	.bss._ZL7RGBdata,"aw",%nobits
 644              		.align	2
 645              		.set	.LANCHOR0,. + 0
 646              		.type	_ZL7RGBdata, %object
 647              		.size	_ZL7RGBdata, 20
 648              	_ZL7RGBdata:
 649 0000 00000000 		.space	20
 649      00000000 
 649      00000000 
 649      00000000 
 649      00000000 
 650              		.section	.bss._ZL9bitbuffer,"aw",%nobits
 651              		.align	2
 652              		.set	.LANCHOR1,. + 0
 653              		.type	_ZL9bitbuffer, %object
 654              		.size	_ZL9bitbuffer, 340
 655              	_ZL9bitbuffer:
 656 0000 00000000 		.space	340
 656      00000000 
 656      00000000 
 656      00000000 
 656      00000000 
 657              		.text
 658              	.Letext0:
 659              		.file 2 "/usr/local/Cellar/gcc-arm-none-eabi-49/20150609/lib/gcc/arm-none-eabi/4.9.3/include/stdde
 660              		.file 3 "/usr/local/Cellar/gcc-arm-none-eabi-49/20150609/arm-none-eabi/include/machine/_default_ty
 661              		.file 4 "/usr/local/Cellar/gcc-arm-none-eabi-49/20150609/arm-none-eabi/include/sys/_stdint.h"
 662              		.file 5 "ChibiOS_16.1.4/os/rt/ports/ARMCMx/compilers/GCC/chtypes.h"
 663              		.file 6 "ChibiOS_16.1.4/os/rt/include/chsystypes.h"
 664              		.file 7 "ChibiOS_16.1.4/os/rt/include/chschd.h"
 665              		.file 8 "ChibiOS_16.1.4/os/ext/CMSIS/ST/STM32F4xx/stm32f446xx.h"
 666              		.file 9 "ChibiOS_16.1.4/os/ext/CMSIS/ST/STM32F4xx/stm32f4xx.h"
 667              		.file 10 "ChibiOS_16.1.4/os/rt/ports/ARMCMx/chcore.h"
 668              		.file 11 "ChibiOS_16.1.4/os/rt/ports/ARMCMx/chcore_v7m.h"
 669              		.file 12 "ChibiOS_16.1.4/os/rt/include/chtm.h"
 670              		.file 13 "ChibiOS_16.1.4/os/rt/include/chsem.h"
 671              		.file 14 "ChibiOS_16.1.4/os/rt/include/chmtx.h"
 672              		.file 15 "ChibiOS_16.1.4/os/hal/ports/STM32/LLD/GPIOv2/pal_lld.h"
ARM GAS  /var/folders/m4/4md61f0s1_g0rzfghffqnxvr0000gn/T//ccoFET1J.s 			page 13


 673              		.file 16 "ChibiOS_16.1.4/ext/stdperiph_stm32f4/inc/stm32f4xx_dma.h"
 674              		.file 17 "ChibiOS_16.1.4/ext/stdperiph_stm32f4/inc/stm32f4xx_tim.h"
 675              		.file 18 "/usr/local/Cellar/gcc-arm-none-eabi-49/20150609/arm-none-eabi/include/math.h"
 676              		.file 19 "ChibiOS_16.1.4/ext/stdperiph_stm32f4/inc/stm32f4xx_rcc.h"
 677              		.file 20 "ChibiOS_16.1.4/os/ext/CMSIS/include/core_cm4.h"