Archive member included because of file (symbol)

/usr/local/Cellar/gcc-arm-none-eabi-49/20150609/bin/../lib/gcc/arm-none-eabi/4.9.3/../../../../arm-none-eabi/lib/armv7e-m/fpu/libm.a(lib_a-sf_round.o)
                              build/obj/ws2812b.o (roundf)
/usr/local/Cellar/gcc-arm-none-eabi-49/20150609/bin/../lib/gcc/arm-none-eabi/4.9.3/../../../../arm-none-eabi/lib/armv7e-m/fpu/libm.a(lib_a-wf_pow.o)
                              build/obj/ws2812b.o (powf)
/usr/local/Cellar/gcc-arm-none-eabi-49/20150609/bin/../lib/gcc/arm-none-eabi/4.9.3/../../../../arm-none-eabi/lib/armv7e-m/fpu/libm.a(lib_a-ef_pow.o)
                              /usr/local/Cellar/gcc-arm-none-eabi-49/20150609/bin/../lib/gcc/arm-none-eabi/4.9.3/../../../../arm-none-eabi/lib/armv7e-m/fpu/libm.a(lib_a-wf_pow.o) (__ieee754_powf)
/usr/local/Cellar/gcc-arm-none-eabi-49/20150609/bin/../lib/gcc/arm-none-eabi/4.9.3/../../../../arm-none-eabi/lib/armv7e-m/fpu/libm.a(lib_a-ef_sqrt.o)
                              /usr/local/Cellar/gcc-arm-none-eabi-49/20150609/bin/../lib/gcc/arm-none-eabi/4.9.3/../../../../arm-none-eabi/lib/armv7e-m/fpu/libm.a(lib_a-ef_pow.o) (__ieee754_sqrtf)
/usr/local/Cellar/gcc-arm-none-eabi-49/20150609/bin/../lib/gcc/arm-none-eabi/4.9.3/../../../../arm-none-eabi/lib/armv7e-m/fpu/libm.a(lib_a-s_lib_ver.o)
                              /usr/local/Cellar/gcc-arm-none-eabi-49/20150609/bin/../lib/gcc/arm-none-eabi/4.9.3/../../../../arm-none-eabi/lib/armv7e-m/fpu/libm.a(lib_a-wf_pow.o) (__fdlib_version)
/usr/local/Cellar/gcc-arm-none-eabi-49/20150609/bin/../lib/gcc/arm-none-eabi/4.9.3/../../../../arm-none-eabi/lib/armv7e-m/fpu/libm.a(lib_a-s_matherr.o)
                              /usr/local/Cellar/gcc-arm-none-eabi-49/20150609/bin/../lib/gcc/arm-none-eabi/4.9.3/../../../../arm-none-eabi/lib/armv7e-m/fpu/libm.a(lib_a-wf_pow.o) (matherr)
/usr/local/Cellar/gcc-arm-none-eabi-49/20150609/bin/../lib/gcc/arm-none-eabi/4.9.3/../../../../arm-none-eabi/lib/armv7e-m/fpu/libm.a(lib_a-s_rint.o)
                              /usr/local/Cellar/gcc-arm-none-eabi-49/20150609/bin/../lib/gcc/arm-none-eabi/4.9.3/../../../../arm-none-eabi/lib/armv7e-m/fpu/libm.a(lib_a-wf_pow.o) (rint)
/usr/local/Cellar/gcc-arm-none-eabi-49/20150609/bin/../lib/gcc/arm-none-eabi/4.9.3/../../../../arm-none-eabi/lib/armv7e-m/fpu/libm.a(lib_a-sf_fabs.o)
                              /usr/local/Cellar/gcc-arm-none-eabi-49/20150609/bin/../lib/gcc/arm-none-eabi/4.9.3/../../../../arm-none-eabi/lib/armv7e-m/fpu/libm.a(lib_a-ef_pow.o) (fabsf)
/usr/local/Cellar/gcc-arm-none-eabi-49/20150609/bin/../lib/gcc/arm-none-eabi/4.9.3/../../../../arm-none-eabi/lib/armv7e-m/fpu/libm.a(lib_a-sf_finite.o)
                              /usr/local/Cellar/gcc-arm-none-eabi-49/20150609/bin/../lib/gcc/arm-none-eabi/4.9.3/../../../../arm-none-eabi/lib/armv7e-m/fpu/libm.a(lib_a-wf_pow.o) (finitef)
/usr/local/Cellar/gcc-arm-none-eabi-49/20150609/bin/../lib/gcc/arm-none-eabi/4.9.3/../../../../arm-none-eabi/lib/armv7e-m/fpu/libm.a(lib_a-sf_fpclassify.o)
                              /usr/local/Cellar/gcc-arm-none-eabi-49/20150609/bin/../lib/gcc/arm-none-eabi/4.9.3/../../../../arm-none-eabi/lib/armv7e-m/fpu/libm.a(lib_a-wf_pow.o) (__fpclassifyf)
/usr/local/Cellar/gcc-arm-none-eabi-49/20150609/bin/../lib/gcc/arm-none-eabi/4.9.3/../../../../arm-none-eabi/lib/armv7e-m/fpu/libm.a(lib_a-sf_nan.o)
                              /usr/local/Cellar/gcc-arm-none-eabi-49/20150609/bin/../lib/gcc/arm-none-eabi/4.9.3/../../../../arm-none-eabi/lib/armv7e-m/fpu/libm.a(lib_a-ef_pow.o) (nanf)
/usr/local/Cellar/gcc-arm-none-eabi-49/20150609/bin/../lib/gcc/arm-none-eabi/4.9.3/../../../../arm-none-eabi/lib/armv7e-m/fpu/libm.a(lib_a-sf_scalbn.o)
                              /usr/local/Cellar/gcc-arm-none-eabi-49/20150609/bin/../lib/gcc/arm-none-eabi/4.9.3/../../../../arm-none-eabi/lib/armv7e-m/fpu/libm.a(lib_a-ef_pow.o) (scalbnf)
/usr/local/Cellar/gcc-arm-none-eabi-49/20150609/bin/../lib/gcc/arm-none-eabi/4.9.3/../../../../arm-none-eabi/lib/armv7e-m/fpu/libm.a(lib_a-sf_copysign.o)
                              /usr/local/Cellar/gcc-arm-none-eabi-49/20150609/bin/../lib/gcc/arm-none-eabi/4.9.3/../../../../arm-none-eabi/lib/armv7e-m/fpu/libm.a(lib_a-sf_scalbn.o) (copysignf)
/usr/local/Cellar/gcc-arm-none-eabi-49/20150609/bin/../lib/gcc/arm-none-eabi/4.9.3/armv7e-m/fpu/libgcc.a(_arm_addsubdf3.o)
                              build/obj/chprintf.o (__aeabi_dsub)
/usr/local/Cellar/gcc-arm-none-eabi-49/20150609/bin/../lib/gcc/arm-none-eabi/4.9.3/armv7e-m/fpu/libgcc.a(_arm_muldivdf3.o)
                              build/obj/chprintf.o (__aeabi_dmul)
/usr/local/Cellar/gcc-arm-none-eabi-49/20150609/bin/../lib/gcc/arm-none-eabi/4.9.3/armv7e-m/fpu/libgcc.a(_arm_cmpdf2.o)
                              /usr/local/Cellar/gcc-arm-none-eabi-49/20150609/bin/../lib/gcc/arm-none-eabi/4.9.3/../../../../arm-none-eabi/lib/armv7e-m/fpu/libm.a(lib_a-wf_pow.o) (__aeabi_dcmpeq)
/usr/local/Cellar/gcc-arm-none-eabi-49/20150609/bin/../lib/gcc/arm-none-eabi/4.9.3/armv7e-m/fpu/libgcc.a(_arm_fixdfsi.o)
                              build/obj/chprintf.o (__aeabi_d2iz)
/usr/local/Cellar/gcc-arm-none-eabi-49/20150609/bin/../lib/gcc/arm-none-eabi/4.9.3/armv7e-m/fpu/libgcc.a(_arm_fixunsdfsi.o)
                              build/obj/esc.o (__aeabi_d2uiz)
/usr/local/Cellar/gcc-arm-none-eabi-49/20150609/bin/../lib/gcc/arm-none-eabi/4.9.3/armv7e-m/fpu/libgcc.a(_arm_truncdfsf2.o)
                              build/obj/chprintf.o (__aeabi_d2f)
/usr/local/Cellar/gcc-arm-none-eabi-49/20150609/bin/../lib/gcc/arm-none-eabi/4.9.3/../../../../arm-none-eabi/lib/armv7e-m/fpu/libg.a(lib_a-errno.o)
                              /usr/local/Cellar/gcc-arm-none-eabi-49/20150609/bin/../lib/gcc/arm-none-eabi/4.9.3/../../../../arm-none-eabi/lib/armv7e-m/fpu/libm.a(lib_a-wf_pow.o) (__errno)
/usr/local/Cellar/gcc-arm-none-eabi-49/20150609/bin/../lib/gcc/arm-none-eabi/4.9.3/../../../../arm-none-eabi/lib/armv7e-m/fpu/libg.a(lib_a-impure.o)
                              /usr/local/Cellar/gcc-arm-none-eabi-49/20150609/bin/../lib/gcc/arm-none-eabi/4.9.3/../../../../arm-none-eabi/lib/armv7e-m/fpu/libg.a(lib_a-errno.o) (_impure_ptr)
/usr/local/Cellar/gcc-arm-none-eabi-49/20150609/bin/../lib/gcc/arm-none-eabi/4.9.3/../../../../arm-none-eabi/lib/armv7e-m/fpu/libg.a(lib_a-memcpy.o)
                              build/obj/hal_buffers.o (memcpy)
/usr/local/Cellar/gcc-arm-none-eabi-49/20150609/bin/../lib/gcc/arm-none-eabi/4.9.3/../../../../arm-none-eabi/lib/armv7e-m/fpu/libg.a(lib_a-memset.o)
                              build/obj/usb.o (memset)
/usr/local/Cellar/gcc-arm-none-eabi-49/20150609/bin/../lib/gcc/arm-none-eabi/4.9.3/../../../../arm-none-eabi/lib/armv7e-m/fpu/libg.a(lib_a-strcmp.o)
                              build/obj/shell.o (strcmp)
/usr/local/Cellar/gcc-arm-none-eabi-49/20150609/bin/../lib/gcc/arm-none-eabi/4.9.3/../../../../arm-none-eabi/lib/armv7e-m/fpu/libg.a(lib_a-strpbrk.o)
                              build/obj/shell.o (strpbrk)
/usr/local/Cellar/gcc-arm-none-eabi-49/20150609/bin/../lib/gcc/arm-none-eabi/4.9.3/../../../../arm-none-eabi/lib/armv7e-m/fpu/libg.a(lib_a-strspn.o)
                              build/obj/shell.o (strspn)

Discarded input sections

 .data          0x0000000000000000        0x0 build/obj/crt0_v7m.o
 .bss           0x0000000000000000        0x0 build/obj/crt0_v7m.o
 .data          0x0000000000000000        0x0 build/obj/chcoreasm_v7m.o
 .bss           0x0000000000000000        0x0 build/obj/chcoreasm_v7m.o
 .text          0x0000000000000000        0x0 build/obj/crt1.o
 .data          0x0000000000000000        0x0 build/obj/crt1.o
 .bss           0x0000000000000000        0x0 build/obj/crt1.o
 .text.__early_init
                0x0000000000000000        0x4 build/obj/crt1.o
 .text          0x0000000000000000        0x0 build/obj/vectors.o
 .data          0x0000000000000000        0x0 build/obj/vectors.o
 .bss           0x0000000000000000        0x0 build/obj/vectors.o
 .text          0x0000000000000000        0x0 build/obj/chsys.o
 .data          0x0000000000000000        0x0 build/obj/chsys.o
 .bss           0x0000000000000000        0x0 build/obj/chsys.o
 .text.chSysIntegrityCheckI
                0x0000000000000000       0xc0 build/obj/chsys.o
 .text.chSysGetStatusAndLockX
                0x0000000000000000       0x14 build/obj/chsys.o
 .text.chSysRestoreStatusX
                0x0000000000000000       0x20 build/obj/chsys.o
 .text.chSysIsCounterWithinX
                0x0000000000000000       0x10 build/obj/chsys.o
 .text          0x0000000000000000        0x0 build/obj/chdebug.o
 .data          0x0000000000000000        0x0 build/obj/chdebug.o
 .bss           0x0000000000000000        0x0 build/obj/chdebug.o
 .debug_info    0x0000000000000000      0x722 build/obj/chdebug.o
 .debug_abbrev  0x0000000000000000      0x125 build/obj/chdebug.o
 .debug_aranges
                0x0000000000000000       0x18 build/obj/chdebug.o
 .debug_line    0x0000000000000000      0x1dc build/obj/chdebug.o
 .debug_str     0x0000000000000000      0x5a5 build/obj/chdebug.o
 .comment       0x0000000000000000       0x71 build/obj/chdebug.o
 .ARM.attributes
                0x0000000000000000       0x39 build/obj/chdebug.o
 .text          0x0000000000000000        0x0 build/obj/chvt.o
 .data          0x0000000000000000        0x0 build/obj/chvt.o
 .bss           0x0000000000000000        0x0 build/obj/chvt.o
 .text          0x0000000000000000        0x0 build/obj/chschd.o
 .data          0x0000000000000000        0x0 build/obj/chschd.o
 .bss           0x0000000000000000        0x0 build/obj/chschd.o
 .text          0x0000000000000000        0x0 build/obj/chthreads.o
 .data          0x0000000000000000        0x0 build/obj/chthreads.o
 .bss           0x0000000000000000        0x0 build/obj/chthreads.o
 .text.chThdStart
                0x0000000000000000       0x14 build/obj/chthreads.o
 .text.chThdSetPriority
                0x0000000000000000       0x30 build/obj/chthreads.o
 .text.chThdTerminate
                0x0000000000000000       0x18 build/obj/chthreads.o
 .text.chThdSleepUntil
                0x0000000000000000       0x24 build/obj/chthreads.o
 .text.chThdSleepUntilWindowed
                0x0000000000000000       0x2c build/obj/chthreads.o
 .text.chThdYield
                0x0000000000000000       0x28 build/obj/chthreads.o
 .text.chThdWait
                0x0000000000000000       0x38 build/obj/chthreads.o
 .text.chThdResumeS
                0x0000000000000000       0x10 build/obj/chthreads.o
 .text.chThdResume
                0x0000000000000000       0x28 build/obj/chthreads.o
 .text          0x0000000000000000        0x0 build/obj/chtm.o
 .data          0x0000000000000000        0x0 build/obj/chtm.o
 .bss           0x0000000000000000        0x0 build/obj/chtm.o
 .text.chTMObjectInit
                0x0000000000000000       0x18 build/obj/chtm.o
 .text.chTMChainMeasurementToX
                0x0000000000000000       0x3c build/obj/chtm.o
 .text          0x0000000000000000        0x0 build/obj/chdynamic.o
 .data          0x0000000000000000        0x0 build/obj/chdynamic.o
 .bss           0x0000000000000000        0x0 build/obj/chdynamic.o
 .text.chThdAddRef
                0x0000000000000000       0x14 build/obj/chdynamic.o
 .text.chThdRelease
                0x0000000000000000       0x5c build/obj/chdynamic.o
 .text.chThdCreateFromHeap
                0x0000000000000000       0x3c build/obj/chdynamic.o
 .text.chThdCreateFromMemoryPool
                0x0000000000000000       0x44 build/obj/chdynamic.o
 .debug_info    0x0000000000000000      0xe77 build/obj/chdynamic.o
 .debug_abbrev  0x0000000000000000      0x304 build/obj/chdynamic.o
 .debug_loc     0x0000000000000000      0x249 build/obj/chdynamic.o
 .debug_aranges
                0x0000000000000000       0x38 build/obj/chdynamic.o
 .debug_ranges  0x0000000000000000       0x28 build/obj/chdynamic.o
 .debug_line    0x0000000000000000      0x39a build/obj/chdynamic.o
 .debug_str     0x0000000000000000      0x743 build/obj/chdynamic.o
 .comment       0x0000000000000000       0x71 build/obj/chdynamic.o
 .debug_frame   0x0000000000000000       0x90 build/obj/chdynamic.o
 .ARM.attributes
                0x0000000000000000       0x39 build/obj/chdynamic.o
 .text          0x0000000000000000        0x0 build/obj/chregistry.o
 .data          0x0000000000000000        0x0 build/obj/chregistry.o
 .bss           0x0000000000000000        0x0 build/obj/chregistry.o
 .text.chRegFirstThread
                0x0000000000000000       0x1c build/obj/chregistry.o
 .text.chRegNextThread
                0x0000000000000000       0x2c build/obj/chregistry.o
 .text          0x0000000000000000        0x0 build/obj/chsem.o
 .data          0x0000000000000000        0x0 build/obj/chsem.o
 .bss           0x0000000000000000        0x0 build/obj/chsem.o
 .text.chSemObjectInit
                0x0000000000000000        0x8 build/obj/chsem.o
 .text.chSemResetI
                0x0000000000000000       0x28 build/obj/chsem.o
 .text.chSemReset
                0x0000000000000000       0x18 build/obj/chsem.o
 .text.chSemWait
                0x0000000000000000       0x44 build/obj/chsem.o
 .text.chSemWaitS
                0x0000000000000000       0x34 build/obj/chsem.o
 .text.chSemWaitTimeoutS
                0x0000000000000000       0x40 build/obj/chsem.o
 .text.chSemWaitTimeout
                0x0000000000000000       0x14 build/obj/chsem.o
 .text.chSemSignal
                0x0000000000000000       0x34 build/obj/chsem.o
 .text.chSemSignalI
                0x0000000000000000       0x20 build/obj/chsem.o
 .text.chSemAddCounterI
                0x0000000000000000       0x30 build/obj/chsem.o
 .text.chSemSignalWait
                0x0000000000000000       0x6c build/obj/chsem.o
 .debug_info    0x0000000000000000     0x117c build/obj/chsem.o
 .debug_abbrev  0x0000000000000000      0x437 build/obj/chsem.o
 .debug_loc     0x0000000000000000      0x5a8 build/obj/chsem.o
 .debug_aranges
                0x0000000000000000       0x70 build/obj/chsem.o
 .debug_ranges  0x0000000000000000      0x168 build/obj/chsem.o
 .debug_line    0x0000000000000000      0x46d build/obj/chsem.o
 .debug_str     0x0000000000000000      0x71f build/obj/chsem.o
 .comment       0x0000000000000000       0x71 build/obj/chsem.o
 .debug_frame   0x0000000000000000      0x14c build/obj/chsem.o
 .ARM.attributes
                0x0000000000000000       0x39 build/obj/chsem.o
 .text          0x0000000000000000        0x0 build/obj/chmtx.o
 .data          0x0000000000000000        0x0 build/obj/chmtx.o
 .bss           0x0000000000000000        0x0 build/obj/chmtx.o
 .text.chMtxTryLock
                0x0000000000000000       0x30 build/obj/chmtx.o
 .text.chMtxTryLockS
                0x0000000000000000       0x20 build/obj/chmtx.o
 .text.chMtxUnlockS
                0x0000000000000000       0x50 build/obj/chmtx.o
 .text.chMtxUnlockAll
                0x0000000000000000       0x54 build/obj/chmtx.o
 .text          0x0000000000000000        0x0 build/obj/chcond.o
 .data          0x0000000000000000        0x0 build/obj/chcond.o
 .bss           0x0000000000000000        0x0 build/obj/chcond.o
 .text.chCondObjectInit
                0x0000000000000000        0x8 build/obj/chcond.o
 .text.chCondSignal
                0x0000000000000000       0x28 build/obj/chcond.o
 .text.chCondSignalI
                0x0000000000000000       0x18 build/obj/chcond.o
 .text.chCondBroadcastI
                0x0000000000000000       0x24 build/obj/chcond.o
 .text.chCondBroadcast
                0x0000000000000000       0x18 build/obj/chcond.o
 .text.chCondWaitS
                0x0000000000000000       0x44 build/obj/chcond.o
 .text.chCondWait
                0x0000000000000000       0x14 build/obj/chcond.o
 .text.chCondWaitTimeoutS
                0x0000000000000000       0x50 build/obj/chcond.o
 .text.chCondWaitTimeout
                0x0000000000000000       0x14 build/obj/chcond.o
 .debug_info    0x0000000000000000     0x1008 build/obj/chcond.o
 .debug_abbrev  0x0000000000000000      0x3cb build/obj/chcond.o
 .debug_loc     0x0000000000000000      0x377 build/obj/chcond.o
 .debug_aranges
                0x0000000000000000       0x60 build/obj/chcond.o
 .debug_ranges  0x0000000000000000       0xc0 build/obj/chcond.o
 .debug_line    0x0000000000000000      0x40a build/obj/chcond.o
 .debug_str     0x0000000000000000      0x775 build/obj/chcond.o
 .comment       0x0000000000000000       0x71 build/obj/chcond.o
 .debug_frame   0x0000000000000000      0x108 build/obj/chcond.o
 .ARM.attributes
                0x0000000000000000       0x39 build/obj/chcond.o
 .text          0x0000000000000000        0x0 build/obj/chevents.o
 .data          0x0000000000000000        0x0 build/obj/chevents.o
 .bss           0x0000000000000000        0x0 build/obj/chevents.o
 .text.chEvtGetAndClearEvents
                0x0000000000000000       0x20 build/obj/chevents.o
 .text.chEvtAddEvents
                0x0000000000000000       0x1c build/obj/chevents.o
 .text.chEvtGetAndClearFlags
                0x0000000000000000       0x14 build/obj/chevents.o
 .text.chEvtSignal
                0x0000000000000000       0x18 build/obj/chevents.o
 .text.chEvtGetAndClearFlagsI
                0x0000000000000000        0xc build/obj/chevents.o
 .text.chEvtDispatch
                0x0000000000000000       0x38 build/obj/chevents.o
 .text.chEvtWaitOne
                0x0000000000000000       0x3c build/obj/chevents.o
 .text.chEvtWaitAny
                0x0000000000000000       0x38 build/obj/chevents.o
 .text.chEvtWaitAll
                0x0000000000000000       0x38 build/obj/chevents.o
 .text.chEvtWaitAnyTimeout
                0x0000000000000000       0x50 build/obj/chevents.o
 .text.chEvtWaitAllTimeout
                0x0000000000000000       0x48 build/obj/chevents.o
 .text          0x0000000000000000        0x0 build/obj/chmsg.o
 .data          0x0000000000000000        0x0 build/obj/chmsg.o
 .bss           0x0000000000000000        0x0 build/obj/chmsg.o
 .text.chMsgSend
                0x0000000000000000       0x40 build/obj/chmsg.o
 .text.chMsgWait
                0x0000000000000000       0x3c build/obj/chmsg.o
 .text.chMsgRelease
                0x0000000000000000       0x14 build/obj/chmsg.o
 .debug_info    0x0000000000000000      0xba0 build/obj/chmsg.o
 .debug_abbrev  0x0000000000000000      0x31f build/obj/chmsg.o
 .debug_loc     0x0000000000000000      0x179 build/obj/chmsg.o
 .debug_aranges
                0x0000000000000000       0x30 build/obj/chmsg.o
 .debug_ranges  0x0000000000000000       0x80 build/obj/chmsg.o
 .debug_line    0x0000000000000000      0x2f4 build/obj/chmsg.o
 .debug_str     0x0000000000000000      0x677 build/obj/chmsg.o
 .comment       0x0000000000000000       0x71 build/obj/chmsg.o
 .debug_frame   0x0000000000000000       0x68 build/obj/chmsg.o
 .ARM.attributes
                0x0000000000000000       0x39 build/obj/chmsg.o
 .text          0x0000000000000000        0x0 build/obj/chmboxes.o
 .data          0x0000000000000000        0x0 build/obj/chmboxes.o
 .bss           0x0000000000000000        0x0 build/obj/chmboxes.o
 .text.chMBObjectInit
                0x0000000000000000       0x28 build/obj/chmboxes.o
 .text.chMBResetI
                0x0000000000000000       0x24 build/obj/chmboxes.o
 .text.chMBReset
                0x0000000000000000       0x18 build/obj/chmboxes.o
 .text.chMBPostS
                0x0000000000000000       0x38 build/obj/chmboxes.o
 .text.chMBPost
                0x0000000000000000       0x14 build/obj/chmboxes.o
 .text.chMBPostI
                0x0000000000000000       0x34 build/obj/chmboxes.o
 .text.chMBPostAheadS
                0x0000000000000000       0x38 build/obj/chmboxes.o
 .text.chMBPostAhead
                0x0000000000000000       0x14 build/obj/chmboxes.o
 .text.chMBPostAheadI
                0x0000000000000000       0x30 build/obj/chmboxes.o
 .text.chMBFetchS
                0x0000000000000000       0x38 build/obj/chmboxes.o
 .text.chMBFetch
                0x0000000000000000       0x14 build/obj/chmboxes.o
 .text.chMBFetchI
                0x0000000000000000       0x38 build/obj/chmboxes.o
 .debug_info    0x0000000000000000     0x11ca build/obj/chmboxes.o
 .debug_abbrev  0x0000000000000000      0x3c8 build/obj/chmboxes.o
 .debug_loc     0x0000000000000000      0x64c build/obj/chmboxes.o
 .debug_aranges
                0x0000000000000000       0x78 build/obj/chmboxes.o
 .debug_ranges  0x0000000000000000       0xc8 build/obj/chmboxes.o
 .debug_line    0x0000000000000000      0x3fe build/obj/chmboxes.o
 .debug_str     0x0000000000000000      0x745 build/obj/chmboxes.o
 .comment       0x0000000000000000       0x71 build/obj/chmboxes.o
 .debug_frame   0x0000000000000000      0x180 build/obj/chmboxes.o
 .ARM.attributes
                0x0000000000000000       0x39 build/obj/chmboxes.o
 .text          0x0000000000000000        0x0 build/obj/chqueues.o
 .data          0x0000000000000000        0x0 build/obj/chqueues.o
 .bss           0x0000000000000000        0x0 build/obj/chqueues.o
 .text.chIQObjectInit
                0x0000000000000000       0x20 build/obj/chqueues.o
 .text.chIQResetI
                0x0000000000000000       0x14 build/obj/chqueues.o
 .text.chIQPutI
                0x0000000000000000       0x38 build/obj/chqueues.o
 .text.chIQGetTimeout
                0x0000000000000000       0x50 build/obj/chqueues.o
 .text.chIQReadTimeout
                0x0000000000000000       0x78 build/obj/chqueues.o
 .text.chOQObjectInit
                0x0000000000000000       0x1c build/obj/chqueues.o
 .text.chOQResetI
                0x0000000000000000       0x1c build/obj/chqueues.o
 .text.chOQPutTimeout
                0x0000000000000000       0x54 build/obj/chqueues.o
 .text.chOQGetI
                0x0000000000000000       0x38 build/obj/chqueues.o
 .text.chOQWriteTimeout
                0x0000000000000000       0x84 build/obj/chqueues.o
 .debug_info    0x0000000000000000     0x1245 build/obj/chqueues.o
 .debug_abbrev  0x0000000000000000      0x3e0 build/obj/chqueues.o
 .debug_loc     0x0000000000000000      0x653 build/obj/chqueues.o
 .debug_aranges
                0x0000000000000000       0x68 build/obj/chqueues.o
 .debug_ranges  0x0000000000000000      0x148 build/obj/chqueues.o
 .debug_line    0x0000000000000000      0x4fb build/obj/chqueues.o
 .debug_str     0x0000000000000000      0x7a5 build/obj/chqueues.o
 .comment       0x0000000000000000       0x71 build/obj/chqueues.o
 .debug_frame   0x0000000000000000      0x168 build/obj/chqueues.o
 .ARM.attributes
                0x0000000000000000       0x39 build/obj/chqueues.o
 .text          0x0000000000000000        0x0 build/obj/chmemcore.o
 .data          0x0000000000000000        0x0 build/obj/chmemcore.o
 .bss           0x0000000000000000        0x0 build/obj/chmemcore.o
 .text.chCoreAllocI
                0x0000000000000000       0x2c build/obj/chmemcore.o
 .text.chCoreGetStatusX
                0x0000000000000000       0x14 build/obj/chmemcore.o
 .text          0x0000000000000000        0x0 build/obj/chheap.o
 .data          0x0000000000000000        0x0 build/obj/chheap.o
 .bss           0x0000000000000000        0x0 build/obj/chheap.o
 .text.chHeapObjectInit
                0x0000000000000000       0x14 build/obj/chheap.o
 .text.chHeapAlloc
                0x0000000000000000       0x8c build/obj/chheap.o
 .text.chHeapFree
                0x0000000000000000       0x94 build/obj/chheap.o
 .text.chHeapStatus
                0x0000000000000000       0x44 build/obj/chheap.o
 .text          0x0000000000000000        0x0 build/obj/chmempools.o
 .data          0x0000000000000000        0x0 build/obj/chmempools.o
 .bss           0x0000000000000000        0x0 build/obj/chmempools.o
 .text.chPoolObjectInit
                0x0000000000000000        0xc build/obj/chmempools.o
 .text.chPoolLoadArray
                0x0000000000000000       0x24 build/obj/chmempools.o
 .text.chPoolAllocI
                0x0000000000000000       0x18 build/obj/chmempools.o
 .text.chPoolAlloc
                0x0000000000000000       0x2c build/obj/chmempools.o
 .text.chPoolFreeI
                0x0000000000000000        0x8 build/obj/chmempools.o
 .text.chPoolFree
                0x0000000000000000       0x14 build/obj/chmempools.o
 .debug_info    0x0000000000000000      0xcb3 build/obj/chmempools.o
 .debug_abbrev  0x0000000000000000      0x31b build/obj/chmempools.o
 .debug_loc     0x0000000000000000      0x1f7 build/obj/chmempools.o
 .debug_aranges
                0x0000000000000000       0x48 build/obj/chmempools.o
 .debug_ranges  0x0000000000000000       0xe0 build/obj/chmempools.o
 .debug_line    0x0000000000000000      0x381 build/obj/chmempools.o
 .debug_str     0x0000000000000000      0x6b8 build/obj/chmempools.o
 .comment       0x0000000000000000       0x71 build/obj/chmempools.o
 .debug_frame   0x0000000000000000       0x8c build/obj/chmempools.o
 .ARM.attributes
                0x0000000000000000       0x39 build/obj/chmempools.o
 .text          0x0000000000000000        0x0 build/obj/chcore.o
 .data          0x0000000000000000        0x0 build/obj/chcore.o
 .bss           0x0000000000000000        0x0 build/obj/chcore.o
 .debug_info    0x0000000000000000      0x722 build/obj/chcore.o
 .debug_abbrev  0x0000000000000000      0x125 build/obj/chcore.o
 .debug_aranges
                0x0000000000000000       0x18 build/obj/chcore.o
 .debug_line    0x0000000000000000      0x1dc build/obj/chcore.o
 .debug_str     0x0000000000000000      0x5ad build/obj/chcore.o
 .comment       0x0000000000000000       0x71 build/obj/chcore.o
 .ARM.attributes
                0x0000000000000000       0x39 build/obj/chcore.o
 .text          0x0000000000000000        0x0 build/obj/chcore_v7m.o
 .data          0x0000000000000000        0x0 build/obj/chcore_v7m.o
 .bss           0x0000000000000000        0x0 build/obj/chcore_v7m.o
 .text          0x0000000000000000        0x0 build/obj/osal.o
 .data          0x0000000000000000        0x0 build/obj/osal.o
 .bss           0x0000000000000000        0x0 build/obj/osal.o
 .debug_info    0x0000000000000000      0x722 build/obj/osal.o
 .debug_abbrev  0x0000000000000000      0x125 build/obj/osal.o
 .debug_aranges
                0x0000000000000000       0x18 build/obj/osal.o
 .debug_line    0x0000000000000000      0x1dc build/obj/osal.o
 .debug_str     0x0000000000000000      0x5a7 build/obj/osal.o
 .comment       0x0000000000000000       0x71 build/obj/osal.o
 .ARM.attributes
                0x0000000000000000       0x39 build/obj/osal.o
 .text          0x0000000000000000        0x0 build/obj/hal.o
 .data          0x0000000000000000        0x0 build/obj/hal.o
 .bss           0x0000000000000000        0x0 build/obj/hal.o
 .text          0x0000000000000000        0x0 build/obj/st.o
 .data          0x0000000000000000        0x0 build/obj/st.o
 .bss           0x0000000000000000        0x0 build/obj/st.o
 .text.stStartAlarm
                0x0000000000000000       0x10 build/obj/st.o
 .text.stStopAlarm
                0x0000000000000000        0xc build/obj/st.o
 .text.stSetAlarm
                0x0000000000000000        0x8 build/obj/st.o
 .text.stGetAlarm
                0x0000000000000000        0x8 build/obj/st.o
 .text          0x0000000000000000        0x0 build/obj/hal_buffers.o
 .data          0x0000000000000000        0x0 build/obj/hal_buffers.o
 .bss           0x0000000000000000        0x0 build/obj/hal_buffers.o
 .text.ibqGetFullBufferTimeout
                0x0000000000000000       0x14 build/obj/hal_buffers.o
 .text.ibqReleaseEmptyBuffer
                0x0000000000000000       0x14 build/obj/hal_buffers.o
 .text.obqGetEmptyBufferTimeout
                0x0000000000000000       0x14 build/obj/hal_buffers.o
 .text.obqPostFullBuffer
                0x0000000000000000       0x14 build/obj/hal_buffers.o
 .text.obqFlush
                0x0000000000000000       0x20 build/obj/hal_buffers.o
 .text          0x0000000000000000        0x0 build/obj/hal_queues.o
 .data          0x0000000000000000        0x0 build/obj/hal_queues.o
 .bss           0x0000000000000000        0x0 build/obj/hal_queues.o
 .debug_info    0x0000000000000000      0x729 build/obj/hal_queues.o
 .debug_abbrev  0x0000000000000000      0x125 build/obj/hal_queues.o
 .debug_aranges
                0x0000000000000000       0x18 build/obj/hal_queues.o
 .debug_line    0x0000000000000000      0x1dc build/obj/hal_queues.o
 .debug_str     0x0000000000000000      0x5af build/obj/hal_queues.o
 .comment       0x0000000000000000       0x71 build/obj/hal_queues.o
 .ARM.attributes
                0x0000000000000000       0x39 build/obj/hal_queues.o
 .text          0x0000000000000000        0x0 build/obj/hal_mmcsd.o
 .data          0x0000000000000000        0x0 build/obj/hal_mmcsd.o
 .bss           0x0000000000000000        0x0 build/obj/hal_mmcsd.o
 .debug_info    0x0000000000000000      0x729 build/obj/hal_mmcsd.o
 .debug_abbrev  0x0000000000000000      0x125 build/obj/hal_mmcsd.o
 .debug_aranges
                0x0000000000000000       0x18 build/obj/hal_mmcsd.o
 .debug_line    0x0000000000000000      0x1dc build/obj/hal_mmcsd.o
 .debug_str     0x0000000000000000      0x5ae build/obj/hal_mmcsd.o
 .comment       0x0000000000000000       0x71 build/obj/hal_mmcsd.o
 .ARM.attributes
                0x0000000000000000       0x39 build/obj/hal_mmcsd.o
 .text          0x0000000000000000        0x0 build/obj/adc.o
 .data          0x0000000000000000        0x0 build/obj/adc.o
 .bss           0x0000000000000000        0x0 build/obj/adc.o
 .text.adcStart
                0x0000000000000000       0x1c build/obj/adc.o
 .text.adcStop  0x0000000000000000       0x1c build/obj/adc.o
 .text.adcStartConversion
                0x0000000000000000       0x20 build/obj/adc.o
 .text.adcStartConversionI
                0x0000000000000000       0x14 build/obj/adc.o
 .text.adcStopConversion
                0x0000000000000000       0x38 build/obj/adc.o
 .text.adcStopConversionI
                0x0000000000000000       0x28 build/obj/adc.o
 .text.adcConvert
                0x0000000000000000       0x28 build/obj/adc.o
 .text.adcAcquireBus
                0x0000000000000000        0x8 build/obj/adc.o
 .text.adcReleaseBus
                0x0000000000000000        0x8 build/obj/adc.o
 .text          0x0000000000000000        0x0 build/obj/ext.o
 .data          0x0000000000000000        0x0 build/obj/ext.o
 .bss           0x0000000000000000        0x0 build/obj/ext.o
 .text.extStop  0x0000000000000000       0x1c build/obj/ext.o
 .text.extChannelDisable
                0x0000000000000000       0x14 build/obj/ext.o
 .text.extSetChannelModeI
                0x0000000000000000       0x20 build/obj/ext.o
 .text          0x0000000000000000        0x0 build/obj/i2c.o
 .data          0x0000000000000000        0x0 build/obj/i2c.o
 .bss           0x0000000000000000        0x0 build/obj/i2c.o
 .text.i2cStop  0x0000000000000000       0x1c build/obj/i2c.o
 .text.i2cGetErrors
                0x0000000000000000        0x4 build/obj/i2c.o
 .text.i2cMasterReceiveTimeout
                0x0000000000000000       0x30 build/obj/i2c.o
 .text          0x0000000000000000        0x0 build/obj/pal.o
 .data          0x0000000000000000        0x0 build/obj/pal.o
 .bss           0x0000000000000000        0x0 build/obj/pal.o
 .text.palReadBus
                0x0000000000000000       0x10 build/obj/pal.o
 .text.palWriteBus
                0x0000000000000000       0x20 build/obj/pal.o
 .text.palSetBusMode
                0x0000000000000000        0xc build/obj/pal.o
 .debug_info    0x0000000000000000      0x9ac build/obj/pal.o
 .debug_abbrev  0x0000000000000000      0x1cd build/obj/pal.o
 .debug_loc     0x0000000000000000       0xb0 build/obj/pal.o
 .debug_aranges
                0x0000000000000000       0x30 build/obj/pal.o
 .debug_ranges  0x0000000000000000       0x20 build/obj/pal.o
 .debug_line    0x0000000000000000      0x2e8 build/obj/pal.o
 .debug_str     0x0000000000000000      0x68c build/obj/pal.o
 .comment       0x0000000000000000       0x71 build/obj/pal.o
 .debug_frame   0x0000000000000000       0x50 build/obj/pal.o
 .ARM.attributes
                0x0000000000000000       0x39 build/obj/pal.o
 .text          0x0000000000000000        0x0 build/obj/pwm.o
 .data          0x0000000000000000        0x0 build/obj/pwm.o
 .bss           0x0000000000000000        0x0 build/obj/pwm.o
 .text.pwmStop  0x0000000000000000       0x1c build/obj/pwm.o
 .text.pwmChangePeriod
                0x0000000000000000       0x18 build/obj/pwm.o
 .text.pwmDisableChannel
                0x0000000000000000       0x20 build/obj/pwm.o
 .text.pwmEnablePeriodicNotification
                0x0000000000000000       0x14 build/obj/pwm.o
 .text.pwmDisablePeriodicNotification
                0x0000000000000000       0x14 build/obj/pwm.o
 .text.pwmEnableChannelNotification
                0x0000000000000000       0x14 build/obj/pwm.o
 .text.pwmDisableChannelNotification
                0x0000000000000000       0x14 build/obj/pwm.o
 .text          0x0000000000000000        0x0 build/obj/serial_usb.o
 .data          0x0000000000000000        0x0 build/obj/serial_usb.o
 .bss           0x0000000000000000        0x0 build/obj/serial_usb.o
 .text.sduStop  0x0000000000000000       0x48 build/obj/serial_usb.o
 .text          0x0000000000000000        0x0 build/obj/spi.o
 .data          0x0000000000000000        0x0 build/obj/spi.o
 .bss           0x0000000000000000        0x0 build/obj/spi.o
 .text.spiStop  0x0000000000000000       0x1c build/obj/spi.o
 .text.spiStartIgnore
                0x0000000000000000       0x18 build/obj/spi.o
 .text.spiStartExchange
                0x0000000000000000       0x18 build/obj/spi.o
 .text.spiStartSend
                0x0000000000000000       0x18 build/obj/spi.o
 .text.spiStartReceive
                0x0000000000000000       0x18 build/obj/spi.o
 .text.spiIgnore
                0x0000000000000000       0x24 build/obj/spi.o
 .text.spiAcquireBus
                0x0000000000000000        0x8 build/obj/spi.o
 .text.spiReleaseBus
                0x0000000000000000        0x8 build/obj/spi.o
 .text          0x0000000000000000        0x0 build/obj/usb.o
 .data          0x0000000000000000        0x0 build/obj/usb.o
 .bss           0x0000000000000000        0x0 build/obj/usb.o
 .text.usbStop  0x0000000000000000       0x28 build/obj/usb.o
 .text.usbDisableEndpointsI
                0x0000000000000000       0x24 build/obj/usb.o
 .text.usbStallReceiveI
                0x0000000000000000       0x1c build/obj/usb.o
 .text.usbStallTransmitI
                0x0000000000000000       0x1c build/obj/usb.o
 .text          0x0000000000000000        0x0 build/obj/nvic.o
 .data          0x0000000000000000        0x0 build/obj/nvic.o
 .bss           0x0000000000000000        0x0 build/obj/nvic.o
 .text.nvicDisableVector
                0x0000000000000000       0x28 build/obj/nvic.o
 .text.nvicClearPending
                0x0000000000000000       0x18 build/obj/nvic.o
 .text          0x0000000000000000        0x0 build/obj/hal_lld.o
 .data          0x0000000000000000        0x0 build/obj/hal_lld.o
 .bss           0x0000000000000000        0x0 build/obj/hal_lld.o
 .data.SystemCoreClock
                0x0000000000000000        0x4 build/obj/hal_lld.o
 .text          0x0000000000000000        0x0 build/obj/stm32_dma.o
 .data          0x0000000000000000        0x0 build/obj/stm32_dma.o
 .bss           0x0000000000000000        0x0 build/obj/stm32_dma.o
 .text.dmaStreamRelease
                0x0000000000000000       0x44 build/obj/stm32_dma.o
 .text          0x0000000000000000        0x0 build/obj/st_lld.o
 .data          0x0000000000000000        0x0 build/obj/st_lld.o
 .bss           0x0000000000000000        0x0 build/obj/st_lld.o
 .text          0x0000000000000000        0x0 build/obj/adc_lld.o
 .data          0x0000000000000000        0x0 build/obj/adc_lld.o
 .bss           0x0000000000000000        0x0 build/obj/adc_lld.o
 .text.adc_lld_start
                0x0000000000000000       0xc0 build/obj/adc_lld.o
 .text.adc_lld_stop
                0x0000000000000000       0x64 build/obj/adc_lld.o
 .text.adc_lld_start_conversion
                0x0000000000000000       0x9c build/obj/adc_lld.o
 .text.adc_lld_serve_rx_interrupt
                0x0000000000000000       0xd4 build/obj/adc_lld.o
 .text.adcSTM32EnableTSVREFE
                0x0000000000000000       0x10 build/obj/adc_lld.o
 .text.adcSTM32DisableTSVREFE
                0x0000000000000000       0x10 build/obj/adc_lld.o
 .text.adcSTM32EnableVBATE
                0x0000000000000000       0x10 build/obj/adc_lld.o
 .text.adcSTM32DisableVBATE
                0x0000000000000000       0x10 build/obj/adc_lld.o
 .text          0x0000000000000000        0x0 build/obj/ext_lld.o
 .data          0x0000000000000000        0x0 build/obj/ext_lld.o
 .bss           0x0000000000000000        0x0 build/obj/ext_lld.o
 .text.ext_lld_stop
                0x0000000000000000       0x24 build/obj/ext_lld.o
 .text          0x0000000000000000        0x0 build/obj/ext_lld_isr.o
 .data          0x0000000000000000        0x0 build/obj/ext_lld_isr.o
 .bss           0x0000000000000000        0x0 build/obj/ext_lld_isr.o
 .text.ext_lld_exti_irq_disable
                0x0000000000000000       0x54 build/obj/ext_lld_isr.o
 .text          0x0000000000000000        0x0 build/obj/pal_lld.o
 .data          0x0000000000000000        0x0 build/obj/pal_lld.o
 .bss           0x0000000000000000        0x0 build/obj/pal_lld.o
 .text          0x0000000000000000        0x0 build/obj/i2c_lld.o
 .data          0x0000000000000000        0x0 build/obj/i2c_lld.o
 .bss           0x0000000000000000        0x0 build/obj/i2c_lld.o
 .text.i2c_lld_stop
                0x0000000000000000       0x88 build/obj/i2c_lld.o
 .text.i2c_lld_master_receive_timeout
                0x0000000000000000       0x74 build/obj/i2c_lld.o
 .text          0x0000000000000000        0x0 build/obj/usb_lld.o
 .data          0x0000000000000000        0x0 build/obj/usb_lld.o
 .bss           0x0000000000000000        0x0 build/obj/usb_lld.o
 .text.usb_lld_stop
                0x0000000000000000       0x70 build/obj/usb_lld.o
 .text.usb_lld_disable_endpoints
                0x0000000000000000       0x44 build/obj/usb_lld.o
 .text          0x0000000000000000        0x0 build/obj/spi_lld.o
 .data          0x0000000000000000        0x0 build/obj/spi_lld.o
 .bss           0x0000000000000000        0x0 build/obj/spi_lld.o
 .text.spi_lld_stop
                0x0000000000000000       0x3c build/obj/spi_lld.o
 .text.spi_lld_ignore
                0x0000000000000000       0x3c build/obj/spi_lld.o
 .text.spi_lld_polled_exchange
                0x0000000000000000       0x10 build/obj/spi_lld.o
 .text          0x0000000000000000        0x0 build/obj/pwm_lld.o
 .data          0x0000000000000000        0x0 build/obj/pwm_lld.o
 .bss           0x0000000000000000        0x0 build/obj/pwm_lld.o
 .text.pwm_lld_stop
                0x0000000000000000       0x34 build/obj/pwm_lld.o
 .text.pwm_lld_disable_channel
                0x0000000000000000       0x1c build/obj/pwm_lld.o
 .text.pwm_lld_enable_periodic_notification
                0x0000000000000000       0x18 build/obj/pwm_lld.o
 .text.pwm_lld_disable_periodic_notification
                0x0000000000000000        0xc build/obj/pwm_lld.o
 .text.pwm_lld_enable_channel_notification
                0x0000000000000000       0x18 build/obj/pwm_lld.o
 .text.pwm_lld_disable_channel_notification
                0x0000000000000000       0x10 build/obj/pwm_lld.o
 .text          0x0000000000000000        0x0 build/obj/board.o
 .data          0x0000000000000000        0x0 build/obj/board.o
 .bss           0x0000000000000000        0x0 build/obj/board.o
 .text          0x0000000000000000        0x0 build/obj/chprintf.o
 .data          0x0000000000000000        0x0 build/obj/chprintf.o
 .bss           0x0000000000000000        0x0 build/obj/chprintf.o
 .text.chsnprintf
                0x0000000000000000       0x60 build/obj/chprintf.o
 .text          0x0000000000000000        0x0 build/obj/syscalls.o
 .data          0x0000000000000000        0x0 build/obj/syscalls.o
 .bss           0x0000000000000000        0x0 build/obj/syscalls.o
 .text._read_r  0x0000000000000000        0xc build/obj/syscalls.o
 .text._lseek_r
                0x0000000000000000        0x4 build/obj/syscalls.o
 .text._write_r
                0x0000000000000000        0x4 build/obj/syscalls.o
 .text._close_r
                0x0000000000000000        0x4 build/obj/syscalls.o
 .text._sbrk_r  0x0000000000000000       0x18 build/obj/syscalls.o
 .text._fstat_r
                0x0000000000000000       0x18 build/obj/syscalls.o
 .text._isatty_r
                0x0000000000000000        0x4 build/obj/syscalls.o
 .debug_info    0x0000000000000000     0x12c5 build/obj/syscalls.o
 .debug_abbrev  0x0000000000000000      0x24b build/obj/syscalls.o
 .debug_loc     0x0000000000000000      0x183 build/obj/syscalls.o
 .debug_aranges
                0x0000000000000000       0x50 build/obj/syscalls.o
 .debug_ranges  0x0000000000000000       0x40 build/obj/syscalls.o
 .debug_line    0x0000000000000000      0x333 build/obj/syscalls.o
 .debug_str     0x0000000000000000      0xab6 build/obj/syscalls.o
 .comment       0x0000000000000000       0x71 build/obj/syscalls.o
 .debug_frame   0x0000000000000000       0x98 build/obj/syscalls.o
 .ARM.attributes
                0x0000000000000000       0x39 build/obj/syscalls.o
 .text          0x0000000000000000        0x0 build/obj/shell.o
 .data          0x0000000000000000        0x0 build/obj/shell.o
 .bss           0x0000000000000000        0x0 build/obj/shell.o
 .text.cmd_systime
                0x0000000000000000       0x34 build/obj/shell.o
 .text.cmd_info
                0x0000000000000000       0xbc build/obj/shell.o
 .text._strtok.constprop.2
                0x0000000000000000       0x40 build/obj/shell.o
 .text.shellInit
                0x0000000000000000        0xc build/obj/shell.o
 .text.shellExit
                0x0000000000000000       0x20 build/obj/shell.o
 .text.shellCreate
                0x0000000000000000       0x18 build/obj/shell.o
 .text.shellCreateStatic
                0x0000000000000000       0x1c build/obj/shell.o
 .text.shellGetLine
                0x0000000000000000       0xa0 build/obj/shell.o
 .text.shell_thread
                0x0000000000000000      0x19c build/obj/shell.o
 .data.local_commands
                0x0000000000000000       0x18 build/obj/shell.o
 .rodata.str1.4
                0x0000000000000000      0x229 build/obj/shell.o
 .bss.shell_terminated
                0x0000000000000000        0x4 build/obj/shell.o
 .debug_info    0x0000000000000000     0x17cb build/obj/shell.o
 .debug_abbrev  0x0000000000000000      0x433 build/obj/shell.o
 .debug_loc     0x0000000000000000      0x737 build/obj/shell.o
 .debug_aranges
                0x0000000000000000       0x60 build/obj/shell.o
 .debug_ranges  0x0000000000000000      0x148 build/obj/shell.o
 .debug_line    0x0000000000000000      0x530 build/obj/shell.o
 .debug_str     0x0000000000000000      0x90c build/obj/shell.o
 .comment       0x0000000000000000       0x71 build/obj/shell.o
 .debug_frame   0x0000000000000000      0x130 build/obj/shell.o
 .ARM.attributes
                0x0000000000000000       0x39 build/obj/shell.o
 .text          0x0000000000000000        0x0 build/obj/main.o
 .data          0x0000000000000000        0x0 build/obj/main.o
 .bss           0x0000000000000000        0x0 build/obj/main.o
 .text          0x0000000000000000        0x0 build/obj/comm_usb.o
 .data          0x0000000000000000        0x0 build/obj/comm_usb.o
 .bss           0x0000000000000000        0x0 build/obj/comm_usb.o
 .text          0x0000000000000000        0x0 build/obj/ws2812b.o
 .data          0x0000000000000000        0x0 build/obj/ws2812b.o
 .bss           0x0000000000000000        0x0 build/obj/ws2812b.o
 .text.ws2812b_get_led_color
                0x0000000000000000       0x14 build/obj/ws2812b.o
 .text.ws2812b_all_off
                0x0000000000000000       0x28 build/obj/ws2812b.o
 .text.ws2812b_set_all
                0x0000000000000000       0x5c build/obj/ws2812b.o
 .text          0x0000000000000000        0x0 build/obj/bno055.o
 .data          0x0000000000000000        0x0 build/obj/bno055.o
 .bss           0x0000000000000000        0x0 build/obj/bno055.o
 .text          0x0000000000000000        0x0 build/obj/nrf24l01.o
 .data          0x0000000000000000        0x0 build/obj/nrf24l01.o
 .bss           0x0000000000000000        0x0 build/obj/nrf24l01.o
 .text.nrf24l01ObjectInit
                0x0000000000000000       0x34 build/obj/nrf24l01.o
 .text.nrf24l01Start
                0x0000000000000000        0x8 build/obj/nrf24l01.o
 .text.nrf24l01ReadAddressRegister
                0x0000000000000000       0x48 build/obj/nrf24l01.o
 .text.nrf24l01PowerDown
                0x0000000000000000       0x1c build/obj/nrf24l01.o
 .text.nrf24l01SetupRetransmit
                0x0000000000000000       0x10 build/obj/nrf24l01.o
 .text.nrf24l01SetChannel
                0x0000000000000000        0xc build/obj/nrf24l01.o
 .text.nrf24l01ClearIRQ
                0x0000000000000000        0xc build/obj/nrf24l01.o
 .text.nrf24l01SetPayloadSize
                0x0000000000000000       0x14 build/obj/nrf24l01.o
 .text.nrf24l01GetFIFOStatus
                0x0000000000000000        0x8 build/obj/nrf24l01.o
 .text.nrf24l01DisableDynamicSize
                0x0000000000000000       0x1c build/obj/nrf24l01.o
 .text.nrf24l01DisableDynamicPipeSize
                0x0000000000000000       0x24 build/obj/nrf24l01.o
 .text.nrf24l01ReadPayload
                0x0000000000000000        0xc build/obj/nrf24l01.o
 .text.nrf24l01WritePayload
                0x0000000000000000        0xc build/obj/nrf24l01.o
 .text.nrf24l01EnterStandby
                0x0000000000000000       0x14 build/obj/nrf24l01.o
 .text.nrf24l01EnablePipes
                0x0000000000000000       0x24 build/obj/nrf24l01.o
 .text.nrf24l01ExtIRQ
                0x0000000000000000       0x1c build/obj/nrf24l01.o
 .text          0x0000000000000000        0x0 build/obj/esc.o
 .data          0x0000000000000000        0x0 build/obj/esc.o
 .bss           0x0000000000000000        0x0 build/obj/esc.o
 .text          0x0000000000000000        0x0 build/obj/controller.o
 .data          0x0000000000000000        0x0 build/obj/controller.o
 .bss           0x0000000000000000        0x0 build/obj/controller.o
 .text          0x0000000000000000        0x0 build/obj/misc.o
 .data          0x0000000000000000        0x0 build/obj/misc.o
 .bss           0x0000000000000000        0x0 build/obj/misc.o
 .text.NVIC_PriorityGroupConfig
                0x0000000000000000       0x3c build/obj/misc.o
 .text.NVIC_Init
                0x0000000000000000       0x98 build/obj/misc.o
 .text.NVIC_SetVectorTable
                0x0000000000000000       0x44 build/obj/misc.o
 .text.NVIC_SystemLPConfig
                0x0000000000000000       0x44 build/obj/misc.o
 .text.SysTick_CLKSourceConfig
                0x0000000000000000       0x34 build/obj/misc.o
 .debug_info    0x0000000000000000      0x740 build/obj/misc.o
 .debug_abbrev  0x0000000000000000      0x19f build/obj/misc.o
 .debug_loc     0x0000000000000000      0x20b build/obj/misc.o
 .debug_aranges
                0x0000000000000000       0x40 build/obj/misc.o
 .debug_ranges  0x0000000000000000       0x30 build/obj/misc.o
 .debug_line    0x0000000000000000      0x276 build/obj/misc.o
 .debug_str     0x0000000000000000      0x49f build/obj/misc.o
 .comment       0x0000000000000000       0x71 build/obj/misc.o
 .debug_frame   0x0000000000000000       0xb0 build/obj/misc.o
 .ARM.attributes
                0x0000000000000000       0x39 build/obj/misc.o
 .text          0x0000000000000000        0x0 build/obj/stm32f4xx_adc.o
 .data          0x0000000000000000        0x0 build/obj/stm32f4xx_adc.o
 .bss           0x0000000000000000        0x0 build/obj/stm32f4xx_adc.o
 .text.ADC_DeInit
                0x0000000000000000       0x1c build/obj/stm32f4xx_adc.o
 .text.ADC_Init
                0x0000000000000000      0x11c build/obj/stm32f4xx_adc.o
 .text.ADC_StructInit
                0x0000000000000000       0x14 build/obj/stm32f4xx_adc.o
 .text.ADC_CommonInit
                0x0000000000000000       0xb0 build/obj/stm32f4xx_adc.o
 .text.ADC_CommonStructInit
                0x0000000000000000        0xc build/obj/stm32f4xx_adc.o
 .text.ADC_Cmd  0x0000000000000000       0x50 build/obj/stm32f4xx_adc.o
 .text.ADC_AnalogWatchdogCmd
                0x0000000000000000       0x70 build/obj/stm32f4xx_adc.o
 .text.ADC_AnalogWatchdogThresholdsConfig
                0x0000000000000000       0x54 build/obj/stm32f4xx_adc.o
 .text.ADC_AnalogWatchdogSingleChannelConfig
                0x0000000000000000       0x48 build/obj/stm32f4xx_adc.o
 .text.ADC_TempSensorVrefintCmd
                0x0000000000000000       0x2c build/obj/stm32f4xx_adc.o
 .text.ADC_VBATCmd
                0x0000000000000000       0x2c build/obj/stm32f4xx_adc.o
 .text.ADC_RegularChannelConfig
                0x0000000000000000       0xf0 build/obj/stm32f4xx_adc.o
 .text.ADC_SoftwareStartConv
                0x0000000000000000       0x38 build/obj/stm32f4xx_adc.o
 .text.ADC_GetSoftwareStartConvStatus
                0x0000000000000000       0x40 build/obj/stm32f4xx_adc.o
 .text.ADC_EOCOnEachRegularChannelCmd
                0x0000000000000000       0x50 build/obj/stm32f4xx_adc.o
 .text.ADC_ContinuousModeCmd
                0x0000000000000000       0x50 build/obj/stm32f4xx_adc.o
 .text.ADC_DiscModeChannelCountConfig
                0x0000000000000000       0x4c build/obj/stm32f4xx_adc.o
 .text.ADC_DiscModeCmd
                0x0000000000000000       0x50 build/obj/stm32f4xx_adc.o
 .text.ADC_GetConversionValue
                0x0000000000000000       0x3c build/obj/stm32f4xx_adc.o
 .text.ADC_GetMultiModeConversionValue
                0x0000000000000000        0xc build/obj/stm32f4xx_adc.o
 .text.ADC_DMACmd
                0x0000000000000000       0x50 build/obj/stm32f4xx_adc.o
 .text.ADC_DMARequestAfterLastTransferCmd
                0x0000000000000000       0x50 build/obj/stm32f4xx_adc.o
 .text.ADC_MultiModeDMARequestAfterLastTransferCmd
                0x0000000000000000       0x2c build/obj/stm32f4xx_adc.o
 .text.ADC_InjectedChannelConfig
                0x0000000000000000       0xb0 build/obj/stm32f4xx_adc.o
 .text.ADC_InjectedSequencerLengthConfig
                0x0000000000000000       0x4c build/obj/stm32f4xx_adc.o
 .text.ADC_SetInjectedOffset
                0x0000000000000000       0x74 build/obj/stm32f4xx_adc.o
 .text.ADC_ExternalTrigInjectedConvConfig
                0x0000000000000000       0x6c build/obj/stm32f4xx_adc.o
 .text.ADC_ExternalTrigInjectedConvEdgeConfig
                0x0000000000000000       0x50 build/obj/stm32f4xx_adc.o
 .text.ADC_SoftwareStartInjectedConv
                0x0000000000000000       0x38 build/obj/stm32f4xx_adc.o
 .text.ADC_GetSoftwareStartInjectedConvCmdStatus
                0x0000000000000000       0x40 build/obj/stm32f4xx_adc.o
 .text.ADC_AutoInjectedConvCmd
                0x0000000000000000       0x50 build/obj/stm32f4xx_adc.o
 .text.ADC_InjectedDiscModeCmd
                0x0000000000000000       0x50 build/obj/stm32f4xx_adc.o
 .text.ADC_GetInjectedConversionValue
                0x0000000000000000       0x68 build/obj/stm32f4xx_adc.o
 .text.ADC_ITConfig
                0x0000000000000000       0x80 build/obj/stm32f4xx_adc.o
 .text.ADC_GetFlagStatus
                0x0000000000000000       0x60 build/obj/stm32f4xx_adc.o
 .text.ADC_ClearFlag
                0x0000000000000000       0x50 build/obj/stm32f4xx_adc.o
 .text.ADC_GetITStatus
                0x0000000000000000       0x74 build/obj/stm32f4xx_adc.o
 .text.ADC_ClearITPendingBit
                0x0000000000000000       0x6c build/obj/stm32f4xx_adc.o
 .debug_info    0x0000000000000000     0x14d6 build/obj/stm32f4xx_adc.o
 .debug_abbrev  0x0000000000000000      0x1e6 build/obj/stm32f4xx_adc.o
 .debug_loc     0x0000000000000000     0x1321 build/obj/stm32f4xx_adc.o
 .debug_aranges
                0x0000000000000000      0x148 build/obj/stm32f4xx_adc.o
 .debug_ranges  0x0000000000000000      0x138 build/obj/stm32f4xx_adc.o
 .debug_line    0x0000000000000000      0xba1 build/obj/stm32f4xx_adc.o
 .debug_str     0x0000000000000000      0x8ec build/obj/stm32f4xx_adc.o
 .comment       0x0000000000000000       0x71 build/obj/stm32f4xx_adc.o
 .debug_frame   0x0000000000000000      0x4b4 build/obj/stm32f4xx_adc.o
 .ARM.attributes
                0x0000000000000000       0x39 build/obj/stm32f4xx_adc.o
 .text          0x0000000000000000        0x0 build/obj/stm32f4xx_dma.o
 .data          0x0000000000000000        0x0 build/obj/stm32f4xx_dma.o
 .bss           0x0000000000000000        0x0 build/obj/stm32f4xx_dma.o
 .text.DMA_StructInit
                0x0000000000000000       0x24 build/obj/stm32f4xx_dma.o
 .text.DMA_PeriphIncOffsetSizeConfig
                0x0000000000000000       0x14 build/obj/stm32f4xx_dma.o
 .text.DMA_FlowControllerConfig
                0x0000000000000000       0x14 build/obj/stm32f4xx_dma.o
 .text.DMA_SetCurrDataCounter
                0x0000000000000000        0x4 build/obj/stm32f4xx_dma.o
 .text.DMA_GetCurrDataCounter
                0x0000000000000000        0x8 build/obj/stm32f4xx_dma.o
 .text.DMA_DoubleBufferModeConfig
                0x0000000000000000       0x18 build/obj/stm32f4xx_dma.o
 .text.DMA_DoubleBufferModeCmd
                0x0000000000000000       0x14 build/obj/stm32f4xx_dma.o
 .text.DMA_MemoryTargetConfig
                0x0000000000000000        0xc build/obj/stm32f4xx_dma.o
 .text.DMA_GetCurrentMemoryTarget
                0x0000000000000000        0x8 build/obj/stm32f4xx_dma.o
 .text.DMA_GetCmdStatus
                0x0000000000000000        0x8 build/obj/stm32f4xx_dma.o
 .text.DMA_GetFIFOStatus
                0x0000000000000000        0x8 build/obj/stm32f4xx_dma.o
 .text.DMA_GetFlagStatus
                0x0000000000000000       0x3c build/obj/stm32f4xx_dma.o
 .text.DMA_ClearFlag
                0x0000000000000000       0x34 build/obj/stm32f4xx_dma.o
 .text.DMA_ITConfig
                0x0000000000000000       0x40 build/obj/stm32f4xx_dma.o
 .text.DMA_GetITStatus
                0x0000000000000000       0x50 build/obj/stm32f4xx_dma.o
 .text.DMA_ClearITPendingBit
                0x0000000000000000       0x34 build/obj/stm32f4xx_dma.o
 .text          0x0000000000000000        0x0 build/obj/stm32f4xx_exti.o
 .data          0x0000000000000000        0x0 build/obj/stm32f4xx_exti.o
 .bss           0x0000000000000000        0x0 build/obj/stm32f4xx_exti.o
 .text.EXTI_DeInit
                0x0000000000000000       0x1c build/obj/stm32f4xx_exti.o
 .text.EXTI_Init
                0x0000000000000000       0xc8 build/obj/stm32f4xx_exti.o
 .text.EXTI_StructInit
                0x0000000000000000       0x10 build/obj/stm32f4xx_exti.o
 .text.EXTI_GenerateSWInterrupt
                0x0000000000000000       0x28 build/obj/stm32f4xx_exti.o
 .text.EXTI_GetFlagStatus
                0x0000000000000000       0xa0 build/obj/stm32f4xx_exti.o
 .text.EXTI_ClearFlag
                0x0000000000000000       0x2c build/obj/stm32f4xx_exti.o
 .text.EXTI_GetITStatus
                0x0000000000000000       0xa0 build/obj/stm32f4xx_exti.o
 .text.EXTI_ClearITPendingBit
                0x0000000000000000       0x2c build/obj/stm32f4xx_exti.o
 .debug_info    0x0000000000000000      0x461 build/obj/stm32f4xx_exti.o
 .debug_abbrev  0x0000000000000000      0x201 build/obj/stm32f4xx_exti.o
 .debug_loc     0x0000000000000000      0x299 build/obj/stm32f4xx_exti.o
 .debug_aranges
                0x0000000000000000       0x58 build/obj/stm32f4xx_exti.o
 .debug_ranges  0x0000000000000000       0x48 build/obj/stm32f4xx_exti.o
 .debug_line    0x0000000000000000      0x3da build/obj/stm32f4xx_exti.o
 .debug_str     0x0000000000000000      0x431 build/obj/stm32f4xx_exti.o
 .comment       0x0000000000000000       0x71 build/obj/stm32f4xx_exti.o
 .debug_frame   0x0000000000000000       0xe4 build/obj/stm32f4xx_exti.o
 .ARM.attributes
                0x0000000000000000       0x39 build/obj/stm32f4xx_exti.o
 .text          0x0000000000000000        0x0 build/obj/stm32f4xx_flash.o
 .data          0x0000000000000000        0x0 build/obj/stm32f4xx_flash.o
 .bss           0x0000000000000000        0x0 build/obj/stm32f4xx_flash.o
 .text.FLASH_SetLatency
                0x0000000000000000       0x1c build/obj/stm32f4xx_flash.o
 .text.FLASH_PrefetchBufferCmd
                0x0000000000000000       0x2c build/obj/stm32f4xx_flash.o
 .text.FLASH_InstructionCacheCmd
                0x0000000000000000       0x2c build/obj/stm32f4xx_flash.o
 .text.FLASH_DataCacheCmd
                0x0000000000000000       0x2c build/obj/stm32f4xx_flash.o
 .text.FLASH_InstructionCacheReset
                0x0000000000000000       0x10 build/obj/stm32f4xx_flash.o
 .text.FLASH_DataCacheReset
                0x0000000000000000       0x10 build/obj/stm32f4xx_flash.o
 .text.FLASH_Unlock
                0x0000000000000000       0x20 build/obj/stm32f4xx_flash.o
 .text.FLASH_Lock
                0x0000000000000000       0x10 build/obj/stm32f4xx_flash.o
 .text.FLASH_OB_Unlock
                0x0000000000000000       0x20 build/obj/stm32f4xx_flash.o
 .text.FLASH_OB_Lock
                0x0000000000000000       0x10 build/obj/stm32f4xx_flash.o
 .text.FLASH_OB_PCROPSelectionConfig
                0x0000000000000000       0x24 build/obj/stm32f4xx_flash.o
 .text.FLASH_OB_BootConfig
                0x0000000000000000       0x28 build/obj/stm32f4xx_flash.o
 .text.FLASH_OB_BORConfig
                0x0000000000000000       0x30 build/obj/stm32f4xx_flash.o
 .text.FLASH_OB_GetUser
                0x0000000000000000       0x10 build/obj/stm32f4xx_flash.o
 .text.FLASH_OB_GetWRP
                0x0000000000000000        0xc build/obj/stm32f4xx_flash.o
 .text.FLASH_OB_GetWRP1
                0x0000000000000000        0xc build/obj/stm32f4xx_flash.o
 .text.FLASH_OB_GetPCROP
                0x0000000000000000        0xc build/obj/stm32f4xx_flash.o
 .text.FLASH_OB_GetPCROP1
                0x0000000000000000        0xc build/obj/stm32f4xx_flash.o
 .text.FLASH_OB_GetRDP
                0x0000000000000000       0x10 build/obj/stm32f4xx_flash.o
 .text.FLASH_OB_GetBOR
                0x0000000000000000       0x10 build/obj/stm32f4xx_flash.o
 .text.FLASH_ITConfig
                0x0000000000000000       0x40 build/obj/stm32f4xx_flash.o
 .text.FLASH_GetFlagStatus
                0x0000000000000000       0x44 build/obj/stm32f4xx_flash.o
 .text.FLASH_ClearFlag
                0x0000000000000000       0x30 build/obj/stm32f4xx_flash.o
 .text.FLASH_GetStatus
                0x0000000000000000       0x40 build/obj/stm32f4xx_flash.o
 .text.FLASH_WaitForLastOperation
                0x0000000000000000       0x28 build/obj/stm32f4xx_flash.o
 .text.FLASH_EraseSector
                0x0000000000000000       0xac build/obj/stm32f4xx_flash.o
 .text.FLASH_EraseAllSectors
                0x0000000000000000       0x70 build/obj/stm32f4xx_flash.o
 .text.FLASH_EraseAllBank1Sectors
                0x0000000000000000       0x70 build/obj/stm32f4xx_flash.o
 .text.FLASH_EraseAllBank2Sectors
                0x0000000000000000       0x70 build/obj/stm32f4xx_flash.o
 .text.FLASH_ProgramDoubleWord
                0x0000000000000000       0x70 build/obj/stm32f4xx_flash.o
 .text.FLASH_ProgramWord
                0x0000000000000000       0x6c build/obj/stm32f4xx_flash.o
 .text.FLASH_ProgramHalfWord
                0x0000000000000000       0x6c build/obj/stm32f4xx_flash.o
 .text.FLASH_ProgramByte
                0x0000000000000000       0x68 build/obj/stm32f4xx_flash.o
 .text.FLASH_OB_WRPConfig
                0x0000000000000000       0x50 build/obj/stm32f4xx_flash.o
 .text.FLASH_OB_WRP1Config
                0x0000000000000000       0x50 build/obj/stm32f4xx_flash.o
 .text.FLASH_OB_PCROPConfig
                0x0000000000000000       0x50 build/obj/stm32f4xx_flash.o
 .text.FLASH_OB_PCROP1Config
                0x0000000000000000       0x50 build/obj/stm32f4xx_flash.o
 .text.FLASH_OB_RDPConfig
                0x0000000000000000       0x28 build/obj/stm32f4xx_flash.o
 .text.FLASH_OB_UserConfig
                0x0000000000000000       0x50 build/obj/stm32f4xx_flash.o
 .text.FLASH_OB_Launch
                0x0000000000000000       0x14 build/obj/stm32f4xx_flash.o
 .debug_info    0x0000000000000000     0x11ef build/obj/stm32f4xx_flash.o
 .debug_abbrev  0x0000000000000000      0x1fd build/obj/stm32f4xx_flash.o
 .debug_loc     0x0000000000000000      0xbf0 build/obj/stm32f4xx_flash.o
 .debug_aranges
                0x0000000000000000      0x158 build/obj/stm32f4xx_flash.o
 .debug_ranges  0x0000000000000000      0x148 build/obj/stm32f4xx_flash.o
 .debug_line    0x0000000000000000      0x704 build/obj/stm32f4xx_flash.o
 .debug_str     0x0000000000000000      0x770 build/obj/stm32f4xx_flash.o
 .comment       0x0000000000000000       0x71 build/obj/stm32f4xx_flash.o
 .debug_frame   0x0000000000000000      0x3fc build/obj/stm32f4xx_flash.o
 .ARM.attributes
                0x0000000000000000       0x39 build/obj/stm32f4xx_flash.o
 .text          0x0000000000000000        0x0 build/obj/stm32f4xx_rcc.o
 .data          0x0000000000000000        0x0 build/obj/stm32f4xx_rcc.o
 .bss           0x0000000000000000        0x0 build/obj/stm32f4xx_rcc.o
 .text.RCC_DeInit
                0x0000000000000000       0x50 build/obj/stm32f4xx_rcc.o
 .text.RCC_HSEConfig
                0x0000000000000000       0x10 build/obj/stm32f4xx_rcc.o
 .text.RCC_WaitForHSEStartUp
                0x0000000000000000       0x34 build/obj/stm32f4xx_rcc.o
 .text.RCC_AdjustHSICalibrationValue
                0x0000000000000000       0x14 build/obj/stm32f4xx_rcc.o
 .text.RCC_HSICmd
                0x0000000000000000        0xc build/obj/stm32f4xx_rcc.o
 .text.RCC_LSEConfig
                0x0000000000000000       0x20 build/obj/stm32f4xx_rcc.o
 .text.RCC_LSICmd
                0x0000000000000000        0xc build/obj/stm32f4xx_rcc.o
 .text.RCC_PLLConfig
                0x0000000000000000       0x28 build/obj/stm32f4xx_rcc.o
 .text.RCC_PLLCmd
                0x0000000000000000        0xc build/obj/stm32f4xx_rcc.o
 .text.RCC_PLLI2SConfig
                0x0000000000000000       0x28 build/obj/stm32f4xx_rcc.o
 .text.RCC_PLLI2SCmd
                0x0000000000000000        0xc build/obj/stm32f4xx_rcc.o
 .text.RCC_PLLSAIConfig
                0x0000000000000000       0x1c build/obj/stm32f4xx_rcc.o
 .text.RCC_PLLSAICmd
                0x0000000000000000        0xc build/obj/stm32f4xx_rcc.o
 .text.RCC_ClockSecuritySystemCmd
                0x0000000000000000        0xc build/obj/stm32f4xx_rcc.o
 .text.RCC_MCO1Config
                0x0000000000000000       0x14 build/obj/stm32f4xx_rcc.o
 .text.RCC_MCO2Config
                0x0000000000000000       0x14 build/obj/stm32f4xx_rcc.o
 .text.RCC_SYSCLKConfig
                0x0000000000000000       0x14 build/obj/stm32f4xx_rcc.o
 .text.RCC_GetSYSCLKSource
                0x0000000000000000       0x10 build/obj/stm32f4xx_rcc.o
 .text.RCC_HCLKConfig
                0x0000000000000000       0x14 build/obj/stm32f4xx_rcc.o
 .text.RCC_PCLK1Config
                0x0000000000000000       0x14 build/obj/stm32f4xx_rcc.o
 .text.RCC_PCLK2Config
                0x0000000000000000       0x14 build/obj/stm32f4xx_rcc.o
 .text.RCC_GetClocksFreq
                0x0000000000000000       0xe0 build/obj/stm32f4xx_rcc.o
 .text.RCC_RTCCLKConfig
                0x0000000000000000       0x30 build/obj/stm32f4xx_rcc.o
 .text.RCC_RTCCLKCmd
                0x0000000000000000        0xc build/obj/stm32f4xx_rcc.o
 .text.RCC_BackupResetCmd
                0x0000000000000000        0xc build/obj/stm32f4xx_rcc.o
 .text.RCC_I2SCLKConfig
                0x0000000000000000       0x38 build/obj/stm32f4xx_rcc.o
 .text.RCC_SAICLKConfig
                0x0000000000000000       0x38 build/obj/stm32f4xx_rcc.o
 .text.RCC_SAIPLLI2SClkDivConfig
                0x0000000000000000       0x18 build/obj/stm32f4xx_rcc.o
 .text.RCC_SAIPLLSAIClkDivConfig
                0x0000000000000000       0x1c build/obj/stm32f4xx_rcc.o
 .text.RCC_LTDCCLKDivConfig
                0x0000000000000000       0x18 build/obj/stm32f4xx_rcc.o
 .text.RCC_TIMCLKPresConfig
                0x0000000000000000        0xc build/obj/stm32f4xx_rcc.o
 .text.RCC_AHB2PeriphClockCmd
                0x0000000000000000       0x18 build/obj/stm32f4xx_rcc.o
 .text.RCC_AHB3PeriphClockCmd
                0x0000000000000000       0x18 build/obj/stm32f4xx_rcc.o
 .text.RCC_APB2PeriphClockCmd
                0x0000000000000000       0x18 build/obj/stm32f4xx_rcc.o
 .text.RCC_AHB1PeriphResetCmd
                0x0000000000000000       0x18 build/obj/stm32f4xx_rcc.o
 .text.RCC_AHB2PeriphResetCmd
                0x0000000000000000       0x18 build/obj/stm32f4xx_rcc.o
 .text.RCC_AHB3PeriphResetCmd
                0x0000000000000000       0x18 build/obj/stm32f4xx_rcc.o
 .text.RCC_APB1PeriphResetCmd
                0x0000000000000000       0x18 build/obj/stm32f4xx_rcc.o
 .text.RCC_APB2PeriphResetCmd
                0x0000000000000000       0x18 build/obj/stm32f4xx_rcc.o
 .text.RCC_AHB1PeriphClockLPModeCmd
                0x0000000000000000       0x18 build/obj/stm32f4xx_rcc.o
 .text.RCC_AHB2PeriphClockLPModeCmd
                0x0000000000000000       0x18 build/obj/stm32f4xx_rcc.o
 .text.RCC_AHB3PeriphClockLPModeCmd
                0x0000000000000000       0x18 build/obj/stm32f4xx_rcc.o
 .text.RCC_APB1PeriphClockLPModeCmd
                0x0000000000000000       0x18 build/obj/stm32f4xx_rcc.o
 .text.RCC_APB2PeriphClockLPModeCmd
                0x0000000000000000       0x18 build/obj/stm32f4xx_rcc.o
 .text.RCC_LSEModeConfig
                0x0000000000000000       0x18 build/obj/stm32f4xx_rcc.o
 .text.RCC_48MHzClockSourceConfig
                0x0000000000000000       0x1c build/obj/stm32f4xx_rcc.o
 .text.RCC_SDIOClockSourceConfig
                0x0000000000000000       0x1c build/obj/stm32f4xx_rcc.o
 .text.RCC_AHB1ClockGatingCmd
                0x0000000000000000       0x20 build/obj/stm32f4xx_rcc.o
 .text.RCC_SPDIFRXClockSourceConfig
                0x0000000000000000       0x1c build/obj/stm32f4xx_rcc.o
 .text.RCC_CECClockSourceConfig
                0x0000000000000000       0x1c build/obj/stm32f4xx_rcc.o
 .text.RCC_FMPI2C1ClockSourceConfig
                0x0000000000000000       0x20 build/obj/stm32f4xx_rcc.o
 .text.RCC_ITConfig
                0x0000000000000000       0x18 build/obj/stm32f4xx_rcc.o
 .text.RCC_GetFlagStatus
                0x0000000000000000       0x34 build/obj/stm32f4xx_rcc.o
 .text.RCC_ClearFlag
                0x0000000000000000       0x10 build/obj/stm32f4xx_rcc.o
 .text.RCC_GetITStatus
                0x0000000000000000       0x14 build/obj/stm32f4xx_rcc.o
 .text.RCC_ClearITPendingBit
                0x0000000000000000        0xc build/obj/stm32f4xx_rcc.o
 .data.APBAHBPrescTable
                0x0000000000000000       0x10 build/obj/stm32f4xx_rcc.o
 .text          0x0000000000000000        0x0 build/obj/stm32f4xx_rng.o
 .data          0x0000000000000000        0x0 build/obj/stm32f4xx_rng.o
 .bss           0x0000000000000000        0x0 build/obj/stm32f4xx_rng.o
 .debug_info    0x0000000000000000       0x92 build/obj/stm32f4xx_rng.o
 .debug_abbrev  0x0000000000000000       0x4b build/obj/stm32f4xx_rng.o
 .debug_aranges
                0x0000000000000000       0x18 build/obj/stm32f4xx_rng.o
 .debug_line    0x0000000000000000      0x108 build/obj/stm32f4xx_rng.o
 .debug_str     0x0000000000000000      0x235 build/obj/stm32f4xx_rng.o
 .comment       0x0000000000000000       0x71 build/obj/stm32f4xx_rng.o
 .ARM.attributes
                0x0000000000000000       0x39 build/obj/stm32f4xx_rng.o
 .text          0x0000000000000000        0x0 build/obj/stm32f4xx_syscfg.o
 .data          0x0000000000000000        0x0 build/obj/stm32f4xx_syscfg.o
 .bss           0x0000000000000000        0x0 build/obj/stm32f4xx_syscfg.o
 .text.SYSCFG_DeInit
                0x0000000000000000       0x1c build/obj/stm32f4xx_syscfg.o
 .text.SYSCFG_MemoryRemapConfig
                0x0000000000000000       0x1c build/obj/stm32f4xx_syscfg.o
 .text.SYSCFG_MemorySwappingBank
                0x0000000000000000       0x1c build/obj/stm32f4xx_syscfg.o
 .text.SYSCFG_EXTILineConfig
                0x0000000000000000       0x48 build/obj/stm32f4xx_syscfg.o
 .text.SYSCFG_ETH_MediaInterfaceConfig
                0x0000000000000000       0x1c build/obj/stm32f4xx_syscfg.o
 .text.SYSCFG_CompensationCellCmd
                0x0000000000000000       0x1c build/obj/stm32f4xx_syscfg.o
 .text.SYSCFG_GetCompensationCellStatus
                0x0000000000000000       0x10 build/obj/stm32f4xx_syscfg.o
 .debug_info    0x0000000000000000      0x471 build/obj/stm32f4xx_syscfg.o
 .debug_abbrev  0x0000000000000000      0x19b build/obj/stm32f4xx_syscfg.o
 .debug_loc     0x0000000000000000      0x133 build/obj/stm32f4xx_syscfg.o
 .debug_aranges
                0x0000000000000000       0x50 build/obj/stm32f4xx_syscfg.o
 .debug_ranges  0x0000000000000000       0x40 build/obj/stm32f4xx_syscfg.o
 .debug_line    0x0000000000000000      0x25e build/obj/stm32f4xx_syscfg.o
 .debug_str     0x0000000000000000      0x405 build/obj/stm32f4xx_syscfg.o
 .comment       0x0000000000000000       0x71 build/obj/stm32f4xx_syscfg.o
 .debug_frame   0x0000000000000000       0xd0 build/obj/stm32f4xx_syscfg.o
 .ARM.attributes
                0x0000000000000000       0x39 build/obj/stm32f4xx_syscfg.o
 .text          0x0000000000000000        0x0 build/obj/stm32f4xx_tim.o
 .data          0x0000000000000000        0x0 build/obj/stm32f4xx_tim.o
 .bss           0x0000000000000000        0x0 build/obj/stm32f4xx_tim.o
 .text.TIM_DeInit
                0x0000000000000000      0x1b8 build/obj/stm32f4xx_tim.o
 .text.TIM_TimeBaseStructInit
                0x0000000000000000       0x14 build/obj/stm32f4xx_tim.o
 .text.TIM_PrescalerConfig
                0x0000000000000000        0x8 build/obj/stm32f4xx_tim.o
 .text.TIM_CounterModeConfig
                0x0000000000000000       0x10 build/obj/stm32f4xx_tim.o
 .text.TIM_SetCounter
                0x0000000000000000        0x4 build/obj/stm32f4xx_tim.o
 .text.TIM_SetAutoreload
                0x0000000000000000        0x4 build/obj/stm32f4xx_tim.o
 .text.TIM_GetCounter
                0x0000000000000000        0x4 build/obj/stm32f4xx_tim.o
 .text.TIM_GetPrescaler
                0x0000000000000000        0x8 build/obj/stm32f4xx_tim.o
 .text.TIM_UpdateDisableConfig
                0x0000000000000000       0x18 build/obj/stm32f4xx_tim.o
 .text.TIM_UpdateRequestConfig
                0x0000000000000000       0x18 build/obj/stm32f4xx_tim.o
 .text.TIM_ARRPreloadConfig
                0x0000000000000000       0x18 build/obj/stm32f4xx_tim.o
 .text.TIM_SelectOnePulseMode
                0x0000000000000000       0x14 build/obj/stm32f4xx_tim.o
 .text.TIM_SetClockDivision
                0x0000000000000000       0x14 build/obj/stm32f4xx_tim.o
 .text.TIM_OC1Init
                0x0000000000000000       0x7c build/obj/stm32f4xx_tim.o
 .text.TIM_OC2Init
                0x0000000000000000       0x98 build/obj/stm32f4xx_tim.o
 .text.TIM_OC4Init
                0x0000000000000000       0x74 build/obj/stm32f4xx_tim.o
 .text.TIM_OCStructInit
                0x0000000000000000       0x14 build/obj/stm32f4xx_tim.o
 .text.TIM_SelectOCxM
                0x0000000000000000       0x50 build/obj/stm32f4xx_tim.o
 .text.TIM_SetCompare1
                0x0000000000000000        0x4 build/obj/stm32f4xx_tim.o
 .text.TIM_SetCompare2
                0x0000000000000000        0x4 build/obj/stm32f4xx_tim.o
 .text.TIM_SetCompare3
                0x0000000000000000        0x4 build/obj/stm32f4xx_tim.o
 .text.TIM_SetCompare4
                0x0000000000000000        0x4 build/obj/stm32f4xx_tim.o
 .text.TIM_ForcedOC1Config
                0x0000000000000000       0x10 build/obj/stm32f4xx_tim.o
 .text.TIM_ForcedOC2Config
                0x0000000000000000       0x14 build/obj/stm32f4xx_tim.o
 .text.TIM_ForcedOC3Config
                0x0000000000000000       0x10 build/obj/stm32f4xx_tim.o
 .text.TIM_ForcedOC4Config
                0x0000000000000000       0x14 build/obj/stm32f4xx_tim.o
 .text.TIM_OC1PreloadConfig
                0x0000000000000000       0x10 build/obj/stm32f4xx_tim.o
 .text.TIM_OC2PreloadConfig
                0x0000000000000000       0x14 build/obj/stm32f4xx_tim.o
 .text.TIM_OC4PreloadConfig
                0x0000000000000000       0x14 build/obj/stm32f4xx_tim.o
 .text.TIM_OC1FastConfig
                0x0000000000000000       0x10 build/obj/stm32f4xx_tim.o
 .text.TIM_OC2FastConfig
                0x0000000000000000       0x14 build/obj/stm32f4xx_tim.o
 .text.TIM_OC3FastConfig
                0x0000000000000000       0x10 build/obj/stm32f4xx_tim.o
 .text.TIM_OC4FastConfig
                0x0000000000000000       0x14 build/obj/stm32f4xx_tim.o
 .text.TIM_ClearOC1Ref
                0x0000000000000000       0x10 build/obj/stm32f4xx_tim.o
 .text.TIM_ClearOC2Ref
                0x0000000000000000       0x10 build/obj/stm32f4xx_tim.o
 .text.TIM_ClearOC3Ref
                0x0000000000000000       0x10 build/obj/stm32f4xx_tim.o
 .text.TIM_ClearOC4Ref
                0x0000000000000000       0x10 build/obj/stm32f4xx_tim.o
 .text.TIM_OC1PolarityConfig
                0x0000000000000000       0x10 build/obj/stm32f4xx_tim.o
 .text.TIM_OC1NPolarityConfig
                0x0000000000000000       0x10 build/obj/stm32f4xx_tim.o
 .text.TIM_OC2PolarityConfig
                0x0000000000000000       0x14 build/obj/stm32f4xx_tim.o
 .text.TIM_OC2NPolarityConfig
                0x0000000000000000       0x14 build/obj/stm32f4xx_tim.o
 .text.TIM_OC3PolarityConfig
                0x0000000000000000       0x14 build/obj/stm32f4xx_tim.o
 .text.TIM_OC3NPolarityConfig
                0x0000000000000000       0x14 build/obj/stm32f4xx_tim.o
 .text.TIM_OC4PolarityConfig
                0x0000000000000000       0x14 build/obj/stm32f4xx_tim.o
 .text.TIM_CCxCmd
                0x0000000000000000       0x20 build/obj/stm32f4xx_tim.o
 .text.TIM_CCxNCmd
                0x0000000000000000       0x20 build/obj/stm32f4xx_tim.o
 .text.TIM_ICInit
                0x0000000000000000      0x140 build/obj/stm32f4xx_tim.o
 .text.TIM_ICStructInit
                0x0000000000000000       0x10 build/obj/stm32f4xx_tim.o
 .text.TIM_PWMIConfig
                0x0000000000000000      0x144 build/obj/stm32f4xx_tim.o
 .text.TIM_GetCapture1
                0x0000000000000000        0x4 build/obj/stm32f4xx_tim.o
 .text.TIM_GetCapture2
                0x0000000000000000        0x4 build/obj/stm32f4xx_tim.o
 .text.TIM_GetCapture3
                0x0000000000000000        0x4 build/obj/stm32f4xx_tim.o
 .text.TIM_GetCapture4
                0x0000000000000000        0x4 build/obj/stm32f4xx_tim.o
 .text.TIM_SetIC1Prescaler
                0x0000000000000000       0x14 build/obj/stm32f4xx_tim.o
 .text.TIM_SetIC2Prescaler
                0x0000000000000000       0x18 build/obj/stm32f4xx_tim.o
 .text.TIM_SetIC3Prescaler
                0x0000000000000000       0x14 build/obj/stm32f4xx_tim.o
 .text.TIM_SetIC4Prescaler
                0x0000000000000000       0x18 build/obj/stm32f4xx_tim.o
 .text.TIM_BDTRConfig
                0x0000000000000000       0x28 build/obj/stm32f4xx_tim.o
 .text.TIM_BDTRStructInit
                0x0000000000000000       0x14 build/obj/stm32f4xx_tim.o
 .text.TIM_SelectCOM
                0x0000000000000000       0x18 build/obj/stm32f4xx_tim.o
 .text.TIM_CCPreloadControl
                0x0000000000000000       0x18 build/obj/stm32f4xx_tim.o
 .text.TIM_ITConfig
                0x0000000000000000       0x18 build/obj/stm32f4xx_tim.o
 .text.TIM_GenerateEvent
                0x0000000000000000        0x4 build/obj/stm32f4xx_tim.o
 .text.TIM_GetFlagStatus
                0x0000000000000000        0xc build/obj/stm32f4xx_tim.o
 .text.TIM_ClearFlag
                0x0000000000000000        0x8 build/obj/stm32f4xx_tim.o
 .text.TIM_GetITStatus
                0x0000000000000000       0x14 build/obj/stm32f4xx_tim.o
 .text.TIM_ClearITPendingBit
                0x0000000000000000        0x8 build/obj/stm32f4xx_tim.o
 .text.TIM_DMAConfig
                0x0000000000000000        0x8 build/obj/stm32f4xx_tim.o
 .text.TIM_SelectCCDMA
                0x0000000000000000       0x18 build/obj/stm32f4xx_tim.o
 .text.TIM_InternalClockConfig
                0x0000000000000000        0xc build/obj/stm32f4xx_tim.o
 .text.TIM_ITRxExternalClockConfig
                0x0000000000000000       0x18 build/obj/stm32f4xx_tim.o
 .text.TIM_TIxExternalClockConfig
                0x0000000000000000       0x80 build/obj/stm32f4xx_tim.o
 .text.TIM_ETRClockMode1Config
                0x0000000000000000       0x28 build/obj/stm32f4xx_tim.o
 .text.TIM_ETRClockMode2Config
                0x0000000000000000       0x20 build/obj/stm32f4xx_tim.o
 .text.TIM_SelectInputTrigger
                0x0000000000000000       0x10 build/obj/stm32f4xx_tim.o
 .text.TIM_SelectOutputTrigger
                0x0000000000000000       0x14 build/obj/stm32f4xx_tim.o
 .text.TIM_SelectSlaveMode
                0x0000000000000000       0x14 build/obj/stm32f4xx_tim.o
 .text.TIM_SelectMasterSlaveMode
                0x0000000000000000       0x14 build/obj/stm32f4xx_tim.o
 .text.TIM_ETRConfig
                0x0000000000000000       0x18 build/obj/stm32f4xx_tim.o
 .text.TIM_EncoderInterfaceConfig
                0x0000000000000000       0x38 build/obj/stm32f4xx_tim.o
 .text.TIM_SelectHallSensor
                0x0000000000000000       0x18 build/obj/stm32f4xx_tim.o
 .text.TIM_RemapConfig
                0x0000000000000000        0x4 build/obj/stm32f4xx_tim.o
 .text          0x0000000000000000        0x0 build/obj/stm32f4xx_wwdg.o
 .data          0x0000000000000000        0x0 build/obj/stm32f4xx_wwdg.o
 .bss           0x0000000000000000        0x0 build/obj/stm32f4xx_wwdg.o
 .text.WWDG_DeInit
                0x0000000000000000       0x1c build/obj/stm32f4xx_wwdg.o
 .text.WWDG_SetPrescaler
                0x0000000000000000       0x2c build/obj/stm32f4xx_wwdg.o
 .text.WWDG_SetWindowValue
                0x0000000000000000       0x34 build/obj/stm32f4xx_wwdg.o
 .text.WWDG_EnableIT
                0x0000000000000000        0xc build/obj/stm32f4xx_wwdg.o
 .text.WWDG_SetCounter
                0x0000000000000000       0x20 build/obj/stm32f4xx_wwdg.o
 .text.WWDG_Enable
                0x0000000000000000       0x20 build/obj/stm32f4xx_wwdg.o
 .text.WWDG_GetFlagStatus
                0x0000000000000000       0x10 build/obj/stm32f4xx_wwdg.o
 .text.WWDG_ClearFlag
                0x0000000000000000        0xc build/obj/stm32f4xx_wwdg.o
 .debug_info    0x0000000000000000      0x495 build/obj/stm32f4xx_wwdg.o
 .debug_abbrev  0x0000000000000000      0x1ae build/obj/stm32f4xx_wwdg.o
 .debug_loc     0x0000000000000000       0xdf build/obj/stm32f4xx_wwdg.o
 .debug_aranges
                0x0000000000000000       0x58 build/obj/stm32f4xx_wwdg.o
 .debug_ranges  0x0000000000000000       0x48 build/obj/stm32f4xx_wwdg.o
 .debug_line    0x0000000000000000      0x26a build/obj/stm32f4xx_wwdg.o
 .debug_str     0x0000000000000000      0x36f build/obj/stm32f4xx_wwdg.o
 .comment       0x0000000000000000       0x71 build/obj/stm32f4xx_wwdg.o
 .debug_frame   0x0000000000000000       0xd4 build/obj/stm32f4xx_wwdg.o
 .ARM.attributes
                0x0000000000000000       0x39 build/obj/stm32f4xx_wwdg.o
 .text          0x0000000000000000        0x0 /usr/local/Cellar/gcc-arm-none-eabi-49/20150609/bin/../lib/gcc/arm-none-eabi/4.9.3/../../../../arm-none-eabi/lib/armv7e-m/fpu/libm.a(lib_a-sf_round.o)
 .data          0x0000000000000000        0x0 /usr/local/Cellar/gcc-arm-none-eabi-49/20150609/bin/../lib/gcc/arm-none-eabi/4.9.3/../../../../arm-none-eabi/lib/armv7e-m/fpu/libm.a(lib_a-sf_round.o)
 .bss           0x0000000000000000        0x0 /usr/local/Cellar/gcc-arm-none-eabi-49/20150609/bin/../lib/gcc/arm-none-eabi/4.9.3/../../../../arm-none-eabi/lib/armv7e-m/fpu/libm.a(lib_a-sf_round.o)
 .text          0x0000000000000000        0x0 /usr/local/Cellar/gcc-arm-none-eabi-49/20150609/bin/../lib/gcc/arm-none-eabi/4.9.3/../../../../arm-none-eabi/lib/armv7e-m/fpu/libm.a(lib_a-wf_pow.o)
 .data          0x0000000000000000        0x0 /usr/local/Cellar/gcc-arm-none-eabi-49/20150609/bin/../lib/gcc/arm-none-eabi/4.9.3/../../../../arm-none-eabi/lib/armv7e-m/fpu/libm.a(lib_a-wf_pow.o)
 .bss           0x0000000000000000        0x0 /usr/local/Cellar/gcc-arm-none-eabi-49/20150609/bin/../lib/gcc/arm-none-eabi/4.9.3/../../../../arm-none-eabi/lib/armv7e-m/fpu/libm.a(lib_a-wf_pow.o)
 .text          0x0000000000000000        0x0 /usr/local/Cellar/gcc-arm-none-eabi-49/20150609/bin/../lib/gcc/arm-none-eabi/4.9.3/../../../../arm-none-eabi/lib/armv7e-m/fpu/libm.a(lib_a-ef_pow.o)
 .data          0x0000000000000000        0x0 /usr/local/Cellar/gcc-arm-none-eabi-49/20150609/bin/../lib/gcc/arm-none-eabi/4.9.3/../../../../arm-none-eabi/lib/armv7e-m/fpu/libm.a(lib_a-ef_pow.o)
 .bss           0x0000000000000000        0x0 /usr/local/Cellar/gcc-arm-none-eabi-49/20150609/bin/../lib/gcc/arm-none-eabi/4.9.3/../../../../arm-none-eabi/lib/armv7e-m/fpu/libm.a(lib_a-ef_pow.o)
 .text          0x0000000000000000        0x0 /usr/local/Cellar/gcc-arm-none-eabi-49/20150609/bin/../lib/gcc/arm-none-eabi/4.9.3/../../../../arm-none-eabi/lib/armv7e-m/fpu/libm.a(lib_a-ef_sqrt.o)
 .data          0x0000000000000000        0x0 /usr/local/Cellar/gcc-arm-none-eabi-49/20150609/bin/../lib/gcc/arm-none-eabi/4.9.3/../../../../arm-none-eabi/lib/armv7e-m/fpu/libm.a(lib_a-ef_sqrt.o)
 .bss           0x0000000000000000        0x0 /usr/local/Cellar/gcc-arm-none-eabi-49/20150609/bin/../lib/gcc/arm-none-eabi/4.9.3/../../../../arm-none-eabi/lib/armv7e-m/fpu/libm.a(lib_a-ef_sqrt.o)
 .text          0x0000000000000000        0x0 /usr/local/Cellar/gcc-arm-none-eabi-49/20150609/bin/../lib/gcc/arm-none-eabi/4.9.3/../../../../arm-none-eabi/lib/armv7e-m/fpu/libm.a(lib_a-s_lib_ver.o)
 .data          0x0000000000000000        0x0 /usr/local/Cellar/gcc-arm-none-eabi-49/20150609/bin/../lib/gcc/arm-none-eabi/4.9.3/../../../../arm-none-eabi/lib/armv7e-m/fpu/libm.a(lib_a-s_lib_ver.o)
 .bss           0x0000000000000000        0x0 /usr/local/Cellar/gcc-arm-none-eabi-49/20150609/bin/../lib/gcc/arm-none-eabi/4.9.3/../../../../arm-none-eabi/lib/armv7e-m/fpu/libm.a(lib_a-s_lib_ver.o)
 .text          0x0000000000000000        0x0 /usr/local/Cellar/gcc-arm-none-eabi-49/20150609/bin/../lib/gcc/arm-none-eabi/4.9.3/../../../../arm-none-eabi/lib/armv7e-m/fpu/libm.a(lib_a-s_matherr.o)
 .data          0x0000000000000000        0x0 /usr/local/Cellar/gcc-arm-none-eabi-49/20150609/bin/../lib/gcc/arm-none-eabi/4.9.3/../../../../arm-none-eabi/lib/armv7e-m/fpu/libm.a(lib_a-s_matherr.o)
 .bss           0x0000000000000000        0x0 /usr/local/Cellar/gcc-arm-none-eabi-49/20150609/bin/../lib/gcc/arm-none-eabi/4.9.3/../../../../arm-none-eabi/lib/armv7e-m/fpu/libm.a(lib_a-s_matherr.o)
 .text          0x0000000000000000        0x0 /usr/local/Cellar/gcc-arm-none-eabi-49/20150609/bin/../lib/gcc/arm-none-eabi/4.9.3/../../../../arm-none-eabi/lib/armv7e-m/fpu/libm.a(lib_a-s_rint.o)
 .data          0x0000000000000000        0x0 /usr/local/Cellar/gcc-arm-none-eabi-49/20150609/bin/../lib/gcc/arm-none-eabi/4.9.3/../../../../arm-none-eabi/lib/armv7e-m/fpu/libm.a(lib_a-s_rint.o)
 .bss           0x0000000000000000        0x0 /usr/local/Cellar/gcc-arm-none-eabi-49/20150609/bin/../lib/gcc/arm-none-eabi/4.9.3/../../../../arm-none-eabi/lib/armv7e-m/fpu/libm.a(lib_a-s_rint.o)
 .text          0x0000000000000000        0x0 /usr/local/Cellar/gcc-arm-none-eabi-49/20150609/bin/../lib/gcc/arm-none-eabi/4.9.3/../../../../arm-none-eabi/lib/armv7e-m/fpu/libm.a(lib_a-sf_fabs.o)
 .data          0x0000000000000000        0x0 /usr/local/Cellar/gcc-arm-none-eabi-49/20150609/bin/../lib/gcc/arm-none-eabi/4.9.3/../../../../arm-none-eabi/lib/armv7e-m/fpu/libm.a(lib_a-sf_fabs.o)
 .bss           0x0000000000000000        0x0 /usr/local/Cellar/gcc-arm-none-eabi-49/20150609/bin/../lib/gcc/arm-none-eabi/4.9.3/../../../../arm-none-eabi/lib/armv7e-m/fpu/libm.a(lib_a-sf_fabs.o)
 .text          0x0000000000000000        0x0 /usr/local/Cellar/gcc-arm-none-eabi-49/20150609/bin/../lib/gcc/arm-none-eabi/4.9.3/../../../../arm-none-eabi/lib/armv7e-m/fpu/libm.a(lib_a-sf_finite.o)
 .data          0x0000000000000000        0x0 /usr/local/Cellar/gcc-arm-none-eabi-49/20150609/bin/../lib/gcc/arm-none-eabi/4.9.3/../../../../arm-none-eabi/lib/armv7e-m/fpu/libm.a(lib_a-sf_finite.o)
 .bss           0x0000000000000000        0x0 /usr/local/Cellar/gcc-arm-none-eabi-49/20150609/bin/../lib/gcc/arm-none-eabi/4.9.3/../../../../arm-none-eabi/lib/armv7e-m/fpu/libm.a(lib_a-sf_finite.o)
 .text          0x0000000000000000        0x0 /usr/local/Cellar/gcc-arm-none-eabi-49/20150609/bin/../lib/gcc/arm-none-eabi/4.9.3/../../../../arm-none-eabi/lib/armv7e-m/fpu/libm.a(lib_a-sf_fpclassify.o)
 .data          0x0000000000000000        0x0 /usr/local/Cellar/gcc-arm-none-eabi-49/20150609/bin/../lib/gcc/arm-none-eabi/4.9.3/../../../../arm-none-eabi/lib/armv7e-m/fpu/libm.a(lib_a-sf_fpclassify.o)
 .bss           0x0000000000000000        0x0 /usr/local/Cellar/gcc-arm-none-eabi-49/20150609/bin/../lib/gcc/arm-none-eabi/4.9.3/../../../../arm-none-eabi/lib/armv7e-m/fpu/libm.a(lib_a-sf_fpclassify.o)
 .text          0x0000000000000000        0x0 /usr/local/Cellar/gcc-arm-none-eabi-49/20150609/bin/../lib/gcc/arm-none-eabi/4.9.3/../../../../arm-none-eabi/lib/armv7e-m/fpu/libm.a(lib_a-sf_nan.o)
 .data          0x0000000000000000        0x0 /usr/local/Cellar/gcc-arm-none-eabi-49/20150609/bin/../lib/gcc/arm-none-eabi/4.9.3/../../../../arm-none-eabi/lib/armv7e-m/fpu/libm.a(lib_a-sf_nan.o)
 .bss           0x0000000000000000        0x0 /usr/local/Cellar/gcc-arm-none-eabi-49/20150609/bin/../lib/gcc/arm-none-eabi/4.9.3/../../../../arm-none-eabi/lib/armv7e-m/fpu/libm.a(lib_a-sf_nan.o)
 .text          0x0000000000000000        0x0 /usr/local/Cellar/gcc-arm-none-eabi-49/20150609/bin/../lib/gcc/arm-none-eabi/4.9.3/../../../../arm-none-eabi/lib/armv7e-m/fpu/libm.a(lib_a-sf_scalbn.o)
 .data          0x0000000000000000        0x0 /usr/local/Cellar/gcc-arm-none-eabi-49/20150609/bin/../lib/gcc/arm-none-eabi/4.9.3/../../../../arm-none-eabi/lib/armv7e-m/fpu/libm.a(lib_a-sf_scalbn.o)
 .bss           0x0000000000000000        0x0 /usr/local/Cellar/gcc-arm-none-eabi-49/20150609/bin/../lib/gcc/arm-none-eabi/4.9.3/../../../../arm-none-eabi/lib/armv7e-m/fpu/libm.a(lib_a-sf_scalbn.o)
 .text          0x0000000000000000        0x0 /usr/local/Cellar/gcc-arm-none-eabi-49/20150609/bin/../lib/gcc/arm-none-eabi/4.9.3/../../../../arm-none-eabi/lib/armv7e-m/fpu/libm.a(lib_a-sf_copysign.o)
 .data          0x0000000000000000        0x0 /usr/local/Cellar/gcc-arm-none-eabi-49/20150609/bin/../lib/gcc/arm-none-eabi/4.9.3/../../../../arm-none-eabi/lib/armv7e-m/fpu/libm.a(lib_a-sf_copysign.o)
 .bss           0x0000000000000000        0x0 /usr/local/Cellar/gcc-arm-none-eabi-49/20150609/bin/../lib/gcc/arm-none-eabi/4.9.3/../../../../arm-none-eabi/lib/armv7e-m/fpu/libm.a(lib_a-sf_copysign.o)
 .data          0x0000000000000000        0x0 /usr/local/Cellar/gcc-arm-none-eabi-49/20150609/bin/../lib/gcc/arm-none-eabi/4.9.3/armv7e-m/fpu/libgcc.a(_arm_addsubdf3.o)
 .bss           0x0000000000000000        0x0 /usr/local/Cellar/gcc-arm-none-eabi-49/20150609/bin/../lib/gcc/arm-none-eabi/4.9.3/armv7e-m/fpu/libgcc.a(_arm_addsubdf3.o)
 .data          0x0000000000000000        0x0 /usr/local/Cellar/gcc-arm-none-eabi-49/20150609/bin/../lib/gcc/arm-none-eabi/4.9.3/armv7e-m/fpu/libgcc.a(_arm_muldivdf3.o)
 .bss           0x0000000000000000        0x0 /usr/local/Cellar/gcc-arm-none-eabi-49/20150609/bin/../lib/gcc/arm-none-eabi/4.9.3/armv7e-m/fpu/libgcc.a(_arm_muldivdf3.o)
 .data          0x0000000000000000        0x0 /usr/local/Cellar/gcc-arm-none-eabi-49/20150609/bin/../lib/gcc/arm-none-eabi/4.9.3/armv7e-m/fpu/libgcc.a(_arm_cmpdf2.o)
 .bss           0x0000000000000000        0x0 /usr/local/Cellar/gcc-arm-none-eabi-49/20150609/bin/../lib/gcc/arm-none-eabi/4.9.3/armv7e-m/fpu/libgcc.a(_arm_cmpdf2.o)
 .data          0x0000000000000000        0x0 /usr/local/Cellar/gcc-arm-none-eabi-49/20150609/bin/../lib/gcc/arm-none-eabi/4.9.3/armv7e-m/fpu/libgcc.a(_arm_fixdfsi.o)
 .bss           0x0000000000000000        0x0 /usr/local/Cellar/gcc-arm-none-eabi-49/20150609/bin/../lib/gcc/arm-none-eabi/4.9.3/armv7e-m/fpu/libgcc.a(_arm_fixdfsi.o)
 .data          0x0000000000000000        0x0 /usr/local/Cellar/gcc-arm-none-eabi-49/20150609/bin/../lib/gcc/arm-none-eabi/4.9.3/armv7e-m/fpu/libgcc.a(_arm_fixunsdfsi.o)
 .bss           0x0000000000000000        0x0 /usr/local/Cellar/gcc-arm-none-eabi-49/20150609/bin/../lib/gcc/arm-none-eabi/4.9.3/armv7e-m/fpu/libgcc.a(_arm_fixunsdfsi.o)
 .data          0x0000000000000000        0x0 /usr/local/Cellar/gcc-arm-none-eabi-49/20150609/bin/../lib/gcc/arm-none-eabi/4.9.3/armv7e-m/fpu/libgcc.a(_arm_truncdfsf2.o)
 .bss           0x0000000000000000        0x0 /usr/local/Cellar/gcc-arm-none-eabi-49/20150609/bin/../lib/gcc/arm-none-eabi/4.9.3/armv7e-m/fpu/libgcc.a(_arm_truncdfsf2.o)
 .text          0x0000000000000000        0x0 /usr/local/Cellar/gcc-arm-none-eabi-49/20150609/bin/../lib/gcc/arm-none-eabi/4.9.3/../../../../arm-none-eabi/lib/armv7e-m/fpu/libg.a(lib_a-errno.o)
 .data          0x0000000000000000        0x0 /usr/local/Cellar/gcc-arm-none-eabi-49/20150609/bin/../lib/gcc/arm-none-eabi/4.9.3/../../../../arm-none-eabi/lib/armv7e-m/fpu/libg.a(lib_a-errno.o)
 .bss           0x0000000000000000        0x0 /usr/local/Cellar/gcc-arm-none-eabi-49/20150609/bin/../lib/gcc/arm-none-eabi/4.9.3/../../../../arm-none-eabi/lib/armv7e-m/fpu/libg.a(lib_a-errno.o)
 .text          0x0000000000000000        0x0 /usr/local/Cellar/gcc-arm-none-eabi-49/20150609/bin/../lib/gcc/arm-none-eabi/4.9.3/../../../../arm-none-eabi/lib/armv7e-m/fpu/libg.a(lib_a-impure.o)
 .data          0x0000000000000000        0x0 /usr/local/Cellar/gcc-arm-none-eabi-49/20150609/bin/../lib/gcc/arm-none-eabi/4.9.3/../../../../arm-none-eabi/lib/armv7e-m/fpu/libg.a(lib_a-impure.o)
 .bss           0x0000000000000000        0x0 /usr/local/Cellar/gcc-arm-none-eabi-49/20150609/bin/../lib/gcc/arm-none-eabi/4.9.3/../../../../arm-none-eabi/lib/armv7e-m/fpu/libg.a(lib_a-impure.o)
 .rodata._global_impure_ptr
                0x0000000000000000        0x4 /usr/local/Cellar/gcc-arm-none-eabi-49/20150609/bin/../lib/gcc/arm-none-eabi/4.9.3/../../../../arm-none-eabi/lib/armv7e-m/fpu/libg.a(lib_a-impure.o)
 .data          0x0000000000000000        0x0 /usr/local/Cellar/gcc-arm-none-eabi-49/20150609/bin/../lib/gcc/arm-none-eabi/4.9.3/../../../../arm-none-eabi/lib/armv7e-m/fpu/libg.a(lib_a-memcpy.o)
 .bss           0x0000000000000000        0x0 /usr/local/Cellar/gcc-arm-none-eabi-49/20150609/bin/../lib/gcc/arm-none-eabi/4.9.3/../../../../arm-none-eabi/lib/armv7e-m/fpu/libg.a(lib_a-memcpy.o)
 .text          0x0000000000000000        0x0 /usr/local/Cellar/gcc-arm-none-eabi-49/20150609/bin/../lib/gcc/arm-none-eabi/4.9.3/../../../../arm-none-eabi/lib/armv7e-m/fpu/libg.a(lib_a-memset.o)
 .data          0x0000000000000000        0x0 /usr/local/Cellar/gcc-arm-none-eabi-49/20150609/bin/../lib/gcc/arm-none-eabi/4.9.3/../../../../arm-none-eabi/lib/armv7e-m/fpu/libg.a(lib_a-memset.o)
 .bss           0x0000000000000000        0x0 /usr/local/Cellar/gcc-arm-none-eabi-49/20150609/bin/../lib/gcc/arm-none-eabi/4.9.3/../../../../arm-none-eabi/lib/armv7e-m/fpu/libg.a(lib_a-memset.o)
 .text          0x0000000000000000      0x2dc /usr/local/Cellar/gcc-arm-none-eabi-49/20150609/bin/../lib/gcc/arm-none-eabi/4.9.3/../../../../arm-none-eabi/lib/armv7e-m/fpu/libg.a(lib_a-strcmp.o)
 .data          0x0000000000000000        0x0 /usr/local/Cellar/gcc-arm-none-eabi-49/20150609/bin/../lib/gcc/arm-none-eabi/4.9.3/../../../../arm-none-eabi/lib/armv7e-m/fpu/libg.a(lib_a-strcmp.o)
 .bss           0x0000000000000000        0x0 /usr/local/Cellar/gcc-arm-none-eabi-49/20150609/bin/../lib/gcc/arm-none-eabi/4.9.3/../../../../arm-none-eabi/lib/armv7e-m/fpu/libg.a(lib_a-strcmp.o)
 .eh_frame      0x0000000000000000       0x70 /usr/local/Cellar/gcc-arm-none-eabi-49/20150609/bin/../lib/gcc/arm-none-eabi/4.9.3/../../../../arm-none-eabi/lib/armv7e-m/fpu/libg.a(lib_a-strcmp.o)
 .ARM.attributes
                0x0000000000000000       0x20 /usr/local/Cellar/gcc-arm-none-eabi-49/20150609/bin/../lib/gcc/arm-none-eabi/4.9.3/../../../../arm-none-eabi/lib/armv7e-m/fpu/libg.a(lib_a-strcmp.o)
 .text          0x0000000000000000        0x0 /usr/local/Cellar/gcc-arm-none-eabi-49/20150609/bin/../lib/gcc/arm-none-eabi/4.9.3/../../../../arm-none-eabi/lib/armv7e-m/fpu/libg.a(lib_a-strpbrk.o)
 .data          0x0000000000000000        0x0 /usr/local/Cellar/gcc-arm-none-eabi-49/20150609/bin/../lib/gcc/arm-none-eabi/4.9.3/../../../../arm-none-eabi/lib/armv7e-m/fpu/libg.a(lib_a-strpbrk.o)
 .bss           0x0000000000000000        0x0 /usr/local/Cellar/gcc-arm-none-eabi-49/20150609/bin/../lib/gcc/arm-none-eabi/4.9.3/../../../../arm-none-eabi/lib/armv7e-m/fpu/libg.a(lib_a-strpbrk.o)
 .text.strpbrk  0x0000000000000000       0x48 /usr/local/Cellar/gcc-arm-none-eabi-49/20150609/bin/../lib/gcc/arm-none-eabi/4.9.3/../../../../arm-none-eabi/lib/armv7e-m/fpu/libg.a(lib_a-strpbrk.o)
 .debug_frame   0x0000000000000000       0x34 /usr/local/Cellar/gcc-arm-none-eabi-49/20150609/bin/../lib/gcc/arm-none-eabi/4.9.3/../../../../arm-none-eabi/lib/armv7e-m/fpu/libg.a(lib_a-strpbrk.o)
 .ARM.attributes
                0x0000000000000000       0x34 /usr/local/Cellar/gcc-arm-none-eabi-49/20150609/bin/../lib/gcc/arm-none-eabi/4.9.3/../../../../arm-none-eabi/lib/armv7e-m/fpu/libg.a(lib_a-strpbrk.o)
 .text          0x0000000000000000        0x0 /usr/local/Cellar/gcc-arm-none-eabi-49/20150609/bin/../lib/gcc/arm-none-eabi/4.9.3/../../../../arm-none-eabi/lib/armv7e-m/fpu/libg.a(lib_a-strspn.o)
 .data          0x0000000000000000        0x0 /usr/local/Cellar/gcc-arm-none-eabi-49/20150609/bin/../lib/gcc/arm-none-eabi/4.9.3/../../../../arm-none-eabi/lib/armv7e-m/fpu/libg.a(lib_a-strspn.o)
 .bss           0x0000000000000000        0x0 /usr/local/Cellar/gcc-arm-none-eabi-49/20150609/bin/../lib/gcc/arm-none-eabi/4.9.3/../../../../arm-none-eabi/lib/armv7e-m/fpu/libg.a(lib_a-strspn.o)
 .text.strspn   0x0000000000000000       0x34 /usr/local/Cellar/gcc-arm-none-eabi-49/20150609/bin/../lib/gcc/arm-none-eabi/4.9.3/../../../../arm-none-eabi/lib/armv7e-m/fpu/libg.a(lib_a-strspn.o)
 .debug_frame   0x0000000000000000       0x34 /usr/local/Cellar/gcc-arm-none-eabi-49/20150609/bin/../lib/gcc/arm-none-eabi/4.9.3/../../../../arm-none-eabi/lib/armv7e-m/fpu/libg.a(lib_a-strspn.o)
 .ARM.attributes
                0x0000000000000000       0x34 /usr/local/Cellar/gcc-arm-none-eabi-49/20150609/bin/../lib/gcc/arm-none-eabi/4.9.3/../../../../arm-none-eabi/lib/armv7e-m/fpu/libg.a(lib_a-strspn.o)

Memory Configuration

Name             Origin             Length             Attributes
flash            0x0000000008000000 0x0000000000080000
ram0             0x0000000020000000 0x0000000000020000
ram1             0x0000000020000000 0x000000000001c000
ram2             0x000000002001c000 0x0000000000004000
ram3             0x0000000000000000 0x0000000000000000
ram4             0x0000000000000000 0x0000000000000000
ram5             0x0000000000000000 0x0000000000000000
ram6             0x0000000000000000 0x0000000000000000
ram7             0x0000000000000000 0x0000000000000000
*default*        0x0000000000000000 0xffffffffffffffff

Linker script and memory map

LOAD build/obj/crt0_v7m.o
LOAD build/obj/chcoreasm_v7m.o
LOAD build/obj/crt1.o
LOAD build/obj/vectors.o
LOAD build/obj/chsys.o
LOAD build/obj/chdebug.o
LOAD build/obj/chvt.o
LOAD build/obj/chschd.o
LOAD build/obj/chthreads.o
LOAD build/obj/chtm.o
LOAD build/obj/chdynamic.o
LOAD build/obj/chregistry.o
LOAD build/obj/chsem.o
LOAD build/obj/chmtx.o
LOAD build/obj/chcond.o
LOAD build/obj/chevents.o
LOAD build/obj/chmsg.o
LOAD build/obj/chmboxes.o
LOAD build/obj/chqueues.o
LOAD build/obj/chmemcore.o
LOAD build/obj/chheap.o
LOAD build/obj/chmempools.o
LOAD build/obj/chcore.o
LOAD build/obj/chcore_v7m.o
LOAD build/obj/osal.o
LOAD build/obj/hal.o
LOAD build/obj/st.o
LOAD build/obj/hal_buffers.o
LOAD build/obj/hal_queues.o
LOAD build/obj/hal_mmcsd.o
LOAD build/obj/adc.o
LOAD build/obj/ext.o
LOAD build/obj/i2c.o
LOAD build/obj/pal.o
LOAD build/obj/pwm.o
LOAD build/obj/serial_usb.o
LOAD build/obj/spi.o
LOAD build/obj/usb.o
LOAD build/obj/nvic.o
LOAD build/obj/hal_lld.o
LOAD build/obj/stm32_dma.o
LOAD build/obj/st_lld.o
LOAD build/obj/adc_lld.o
LOAD build/obj/ext_lld.o
LOAD build/obj/ext_lld_isr.o
LOAD build/obj/pal_lld.o
LOAD build/obj/i2c_lld.o
LOAD build/obj/usb_lld.o
LOAD build/obj/spi_lld.o
LOAD build/obj/pwm_lld.o
LOAD build/obj/board.o
LOAD build/obj/chprintf.o
LOAD build/obj/syscalls.o
LOAD build/obj/shell.o
LOAD build/obj/main.o
LOAD build/obj/comm_usb.o
LOAD build/obj/ws2812b.o
LOAD build/obj/bno055.o
LOAD build/obj/nrf24l01.o
LOAD build/obj/esc.o
LOAD build/obj/controller.o
LOAD build/obj/misc.o
LOAD build/obj/stm32f4xx_adc.o
LOAD build/obj/stm32f4xx_dma.o
LOAD build/obj/stm32f4xx_exti.o
LOAD build/obj/stm32f4xx_flash.o
LOAD build/obj/stm32f4xx_rcc.o
LOAD build/obj/stm32f4xx_rng.o
LOAD build/obj/stm32f4xx_syscfg.o
LOAD build/obj/stm32f4xx_tim.o
LOAD build/obj/stm32f4xx_wwdg.o
                0x0000000020000000                __ram0_start__ = ORIGIN (ram0)
                0x0000000000020000                __ram0_size__ = 0x20000
                0x0000000020020000                __ram0_end__ = (__ram0_start__ + __ram0_size__)
                0x0000000020000000                __ram1_start__ = ORIGIN (ram1)
                0x000000000001c000                __ram1_size__ = 0x1c000
                0x000000002001c000                __ram1_end__ = (__ram1_start__ + __ram1_size__)
                0x000000002001c000                __ram2_start__ = ORIGIN (ram2)
                0x0000000000004000                __ram2_size__ = 0x4000
                0x0000000020020000                __ram2_end__ = (__ram2_start__ + __ram2_size__)
                0x0000000000000000                __ram3_start__ = ORIGIN (ram3)
                0x0000000000000000                __ram3_size__ = 0x0
                0x0000000000000000                __ram3_end__ = (__ram3_start__ + __ram3_size__)
                0x0000000000000000                __ram4_start__ = ORIGIN (ram4)
                0x0000000000000000                __ram4_size__ = 0x0
                0x0000000000000000                __ram4_end__ = (__ram4_start__ + __ram4_size__)
                0x0000000000000000                __ram5_start__ = ORIGIN (ram5)
                0x0000000000000000                __ram5_size__ = 0x0
                0x0000000000000000                __ram5_end__ = (__ram5_start__ + __ram5_size__)
                0x0000000000000000                __ram6_start__ = ORIGIN (ram6)
                0x0000000000000000                __ram6_size__ = 0x0
                0x0000000000000000                __ram6_end__ = (__ram6_start__ + __ram6_size__)
                0x0000000000000000                __ram7_start__ = ORIGIN (ram7)
                0x0000000000000000                __ram7_size__ = 0x0
                0x0000000000000000                __ram7_end__ = (__ram7_start__ + __ram7_size__)
                0x0000000000000000                . = 0x0
                0x0000000000000000                _text = .

startup         0x0000000008000000      0x1c0
 *(.vectors)
 .vectors       0x0000000008000000      0x1c0 build/obj/vectors.o
                0x0000000008000000                _vectors

constructors    0x00000000080001c0        0x0
                0x00000000080001c0                __init_array_start = .
 *(SORT(.init_array.*))
 *(.init_array)
                0x00000000080001c0                __init_array_end = .

destructors     0x00000000080001c0        0x0
                0x00000000080001c0                __fini_array_start = .
 *(.fini_array)
 *(SORT(.fini_array.*))
                0x00000000080001c0                __fini_array_end = .

.text           0x00000000080001c0     0x7c44
 *(.text)
 .text          0x00000000080001c0      0x10c build/obj/crt0_v7m.o
                0x00000000080001c0                Reset_Handler
 *fill*         0x00000000080002cc        0x4 
 .text          0x00000000080002d0       0x30 build/obj/chcoreasm_v7m.o
                0x00000000080002d0                _port_switch
                0x00000000080002e8                _port_thread_start
                0x00000000080002f8                _port_switch_from_isr
                0x00000000080002fc                _port_exit_from_isr
 .text          0x0000000008000300      0x370 /usr/local/Cellar/gcc-arm-none-eabi-49/20150609/bin/../lib/gcc/arm-none-eabi/4.9.3/armv7e-m/fpu/libgcc.a(_arm_addsubdf3.o)
                0x0000000008000300                __aeabi_drsub
                0x0000000008000308                __subdf3
                0x0000000008000308                __aeabi_dsub
                0x000000000800030c                __aeabi_dadd
                0x000000000800030c                __adddf3
                0x0000000008000584                __aeabi_ui2d
                0x0000000008000584                __floatunsidf
                0x00000000080005a4                __floatsidf
                0x00000000080005a4                __aeabi_i2d
                0x00000000080005c8                __extendsfdf2
                0x00000000080005c8                __aeabi_f2d
                0x0000000008000604                __aeabi_ul2d
                0x0000000008000604                __floatundidf
                0x0000000008000614                __aeabi_l2d
                0x0000000008000614                __floatdidf
 .text          0x0000000008000670      0x424 /usr/local/Cellar/gcc-arm-none-eabi-49/20150609/bin/../lib/gcc/arm-none-eabi/4.9.3/armv7e-m/fpu/libgcc.a(_arm_muldivdf3.o)
                0x0000000008000670                __aeabi_dmul
                0x0000000008000670                __muldf3
                0x00000000080008c4                __aeabi_ddiv
                0x00000000080008c4                __divdf3
 *fill*         0x0000000008000a94        0xc 
 .text          0x0000000008000aa0      0x110 /usr/local/Cellar/gcc-arm-none-eabi-49/20150609/bin/../lib/gcc/arm-none-eabi/4.9.3/armv7e-m/fpu/libgcc.a(_arm_cmpdf2.o)
                0x0000000008000aa0                __gtdf2
                0x0000000008000aa0                __gedf2
                0x0000000008000aa8                __ltdf2
                0x0000000008000aa8                __ledf2
                0x0000000008000ab0                __eqdf2
                0x0000000008000ab0                __nedf2
                0x0000000008000ab0                __cmpdf2
                0x0000000008000b2c                __aeabi_cdrcmple
                0x0000000008000b3c                __aeabi_cdcmple
                0x0000000008000b3c                __aeabi_cdcmpeq
                0x0000000008000b4c                __aeabi_dcmpeq
                0x0000000008000b60                __aeabi_dcmplt
                0x0000000008000b74                __aeabi_dcmple
                0x0000000008000b88                __aeabi_dcmpge
                0x0000000008000b9c                __aeabi_dcmpgt
 .text          0x0000000008000bb0       0x50 /usr/local/Cellar/gcc-arm-none-eabi-49/20150609/bin/../lib/gcc/arm-none-eabi/4.9.3/armv7e-m/fpu/libgcc.a(_arm_fixdfsi.o)
                0x0000000008000bb0                __fixdfsi
                0x0000000008000bb0                __aeabi_d2iz
 .text          0x0000000008000c00       0x40 /usr/local/Cellar/gcc-arm-none-eabi-49/20150609/bin/../lib/gcc/arm-none-eabi/4.9.3/armv7e-m/fpu/libgcc.a(_arm_fixunsdfsi.o)
                0x0000000008000c00                __fixunsdfsi
                0x0000000008000c00                __aeabi_d2uiz
 .text          0x0000000008000c40       0xa0 /usr/local/Cellar/gcc-arm-none-eabi-49/20150609/bin/../lib/gcc/arm-none-eabi/4.9.3/armv7e-m/fpu/libgcc.a(_arm_truncdfsf2.o)
                0x0000000008000c40                __aeabi_d2f
                0x0000000008000c40                __truncdfsf2
 .text          0x0000000008000ce0      0x134 /usr/local/Cellar/gcc-arm-none-eabi-49/20150609/bin/../lib/gcc/arm-none-eabi/4.9.3/../../../../arm-none-eabi/lib/armv7e-m/fpu/libg.a(lib_a-memcpy.o)
                0x0000000008000ce0                memcpy
 *(.text.*)
 *fill*         0x0000000008000e14        0xc 
 .text.__core_init
                0x0000000008000e20        0x4 build/obj/crt1.o
                0x0000000008000e20                __core_init
 *fill*         0x0000000008000e24        0xc 
 .text.__late_init
                0x0000000008000e30        0x4 build/obj/crt1.o
                0x0000000008000e30                __late_init
 *fill*         0x0000000008000e34        0xc 
 .text.__default_exit
                0x0000000008000e40        0x4 build/obj/crt1.o
                0x0000000008000e40                __default_exit
 *fill*         0x0000000008000e44        0xc 
 .text.__init_ram_areas
                0x0000000008000e50       0x4c build/obj/crt1.o
                0x0000000008000e50                __init_ram_areas
 *fill*         0x0000000008000e9c        0x4 
 .text._unhandled_exception
                0x0000000008000ea0        0x4 build/obj/vectors.o
                0x0000000008000ea0                Vector174
                0x0000000008000ea0                DebugMon_Handler
                0x0000000008000ea0                Vector1A0
                0x0000000008000ea0                Vector11C
                0x0000000008000ea0                HardFault_Handler
                0x0000000008000ea0                Vector1B8
                0x0000000008000ea0                Vector19C
                0x0000000008000ea0                Vector8C
                0x0000000008000ea0                VectorDC
                0x0000000008000ea0                PendSV_Handler
                0x0000000008000ea0                Vector168
                0x0000000008000ea0                NMI_Handler
                0x0000000008000ea0                Vector110
                0x0000000008000ea0                VectorC8
                0x0000000008000ea0                Vector94
                0x0000000008000ea0                VectorA8
                0x0000000008000ea0                VectorB4
                0x0000000008000ea0                Vector160
                0x0000000008000ea0                Vector1B0
                0x0000000008000ea0                UsageFault_Handler
                0x0000000008000ea0                VectorEC
                0x0000000008000ea0                Vector40
                0x0000000008000ea0                VectorF8
                0x0000000008000ea0                Vector190
                0x0000000008000ea0                Vector148
                0x0000000008000ea0                Vector188
                0x0000000008000ea0                Vector198
                0x0000000008000ea0                Vector118
                0x0000000008000ea0                VectorCC
                0x0000000008000ea0                Vector54
                0x0000000008000ea0                Vector98
                0x0000000008000ea0                VectorD8
                0x0000000008000ea0                Vector138
                0x0000000008000ea0                Vector24
                0x0000000008000ea0                Vector1AC
                0x0000000008000ea0                Vector178
                0x0000000008000ea0                Vector1A4
                0x0000000008000ea0                VectorD0
                0x0000000008000ea0                Vector1B4
                0x0000000008000ea0                Vector140
                0x0000000008000ea0                Vector134
                0x0000000008000ea0                VectorF0
                0x0000000008000ea0                Vector13C
                0x0000000008000ea0                Vector100
                0x0000000008000ea0                VectorF4
                0x0000000008000ea0                MemManage_Handler
                0x0000000008000ea0                VectorA0
                0x0000000008000ea0                VectorC4
                0x0000000008000ea0                Vector180
                0x0000000008000ea0                VectorB0
                0x0000000008000ea0                Vector90
                0x0000000008000ea0                Vector114
                0x0000000008000ea0                Vector164
                0x0000000008000ea0                Vector1C
                0x0000000008000ea0                Vector1BC
                0x0000000008000ea0                Vector17C
                0x0000000008000ea0                Vector1A8
                0x0000000008000ea0                Vector16C
                0x0000000008000ea0                VectorD4
                0x0000000008000ea0                Vector144
                0x0000000008000ea0                Vector15C
                0x0000000008000ea0                _unhandled_exception
                0x0000000008000ea0                Vector104
                0x0000000008000ea0                Vector184
                0x0000000008000ea0                Vector10C
                0x0000000008000ea0                BusFault_Handler
                0x0000000008000ea0                Vector50
                0x0000000008000ea0                Vector194
                0x0000000008000ea0                Vector28
                0x0000000008000ea0                VectorB8
                0x0000000008000ea0                Vector34
                0x0000000008000ea0                VectorA4
                0x0000000008000ea0                Vector20
                0x0000000008000ea0                Vector18C
                0x0000000008000ea0                VectorAC
 *fill*         0x0000000008000ea4        0xc 
 .text._idle_thread
                0x0000000008000eb0        0x4 build/obj/chsys.o
 *fill*         0x0000000008000eb4        0xc 
 .text.chSysInit
                0x0000000008000ec0       0xa4 build/obj/chsys.o
                0x0000000008000ec0                chSysInit
 *fill*         0x0000000008000f64        0xc 
 .text.chSysHalt
                0x0000000008000f70        0xc build/obj/chsys.o
                0x0000000008000f70                chSysHalt
 *fill*         0x0000000008000f7c        0x4 
 .text.chSysTimerHandlerI
                0x0000000008000f80       0x58 build/obj/chsys.o
                0x0000000008000f80                chSysTimerHandlerI
 *fill*         0x0000000008000fd8        0x8 
 .text.chSysPolledDelayX
                0x0000000008000fe0       0x14 build/obj/chsys.o
                0x0000000008000fe0                chSysPolledDelayX
 *fill*         0x0000000008000ff4        0xc 
 .text._vt_init
                0x0000000008001000       0x1c build/obj/chvt.o
                0x0000000008001000                _vt_init
 *fill*         0x000000000800101c        0x4 
 .text.chVTDoSetI
                0x0000000008001020       0x3c build/obj/chvt.o
                0x0000000008001020                chVTDoSetI
 *fill*         0x000000000800105c        0x4 
 .text.chVTDoResetI
                0x0000000008001060       0x28 build/obj/chvt.o
                0x0000000008001060                chVTDoResetI
 *fill*         0x0000000008001088        0x8 
 .text.wakeup   0x0000000008001090       0x70 build/obj/chschd.o
 .text._scheduler_init
                0x0000000008001100       0x14 build/obj/chschd.o
                0x0000000008001100                _scheduler_init
 *fill*         0x0000000008001114        0xc 
 .text.chSchReadyI
                0x0000000008001120       0x2c build/obj/chschd.o
                0x0000000008001120                chSchReadyI
 *fill*         0x000000000800114c        0x4 
 .text.chSchGoSleepS
                0x0000000008001150       0x28 build/obj/chschd.o
                0x0000000008001150                chSchGoSleepS
 *fill*         0x0000000008001178        0x8 
 .text.chSchGoSleepTimeoutS
                0x0000000008001180       0x44 build/obj/chschd.o
                0x0000000008001180                chSchGoSleepTimeoutS
 *fill*         0x00000000080011c4        0xc 
 .text.chSchWakeupS
                0x00000000080011d0       0x58 build/obj/chschd.o
                0x00000000080011d0                chSchWakeupS
 *fill*         0x0000000008001228        0x8 
 .text.chSchIsPreemptionRequired
                0x0000000008001230       0x28 build/obj/chschd.o
                0x0000000008001230                chSchIsPreemptionRequired
 *fill*         0x0000000008001258        0x8 
 .text.chSchDoRescheduleBehind
                0x0000000008001260       0x40 build/obj/chschd.o
                0x0000000008001260                chSchDoRescheduleBehind
 .text.chSchDoRescheduleAhead
                0x00000000080012a0       0x3c build/obj/chschd.o
                0x00000000080012a0                chSchDoRescheduleAhead
 *fill*         0x00000000080012dc        0x4 
 .text.chSchRescheduleS
                0x00000000080012e0       0x18 build/obj/chschd.o
                0x00000000080012e0                chSchRescheduleS
 *fill*         0x00000000080012f8        0x8 
 .text.chSchDoReschedule
                0x0000000008001300       0x14 build/obj/chschd.o
                0x0000000008001300                chSchDoReschedule
 *fill*         0x0000000008001314        0xc 
 .text._thread_init
                0x0000000008001320       0x50 build/obj/chthreads.o
                0x0000000008001320                _thread_init
 .text.chThdCreateI
                0x0000000008001370       0x70 build/obj/chthreads.o
                0x0000000008001370                chThdCreateI
 .text.chThdCreateStatic
                0x00000000080013e0       0x80 build/obj/chthreads.o
                0x00000000080013e0                chThdCreateStatic
 .text.chThdSleep
                0x0000000008001460       0x18 build/obj/chthreads.o
                0x0000000008001460                chThdSleep
 *fill*         0x0000000008001478        0x8 
 .text.chThdExitS
                0x0000000008001480       0x40 build/obj/chthreads.o
                0x0000000008001480                chThdExitS
 .text.chThdExit
                0x00000000080014c0        0xc build/obj/chthreads.o
                0x00000000080014c0                chThdExit
 *fill*         0x00000000080014cc        0x4 
 .text.chThdSuspendS
                0x00000000080014d0       0x1c build/obj/chthreads.o
                0x00000000080014d0                chThdSuspendS
 *fill*         0x00000000080014ec        0x4 
 .text.chThdSuspendTimeoutS
                0x00000000080014f0       0x1c build/obj/chthreads.o
                0x00000000080014f0                chThdSuspendTimeoutS
 *fill*         0x000000000800150c        0x4 
 .text.chThdResumeI
                0x0000000008001510       0x14 build/obj/chthreads.o
                0x0000000008001510                chThdResumeI
 *fill*         0x0000000008001524        0xc 
 .text.chThdEnqueueTimeoutS
                0x0000000008001530       0x28 build/obj/chthreads.o
                0x0000000008001530                chThdEnqueueTimeoutS
 *fill*         0x0000000008001558        0x8 
 .text.chThdDequeueNextI
                0x0000000008001560       0x20 build/obj/chthreads.o
                0x0000000008001560                chThdDequeueNextI
 .text.chThdDequeueAllI
                0x0000000008001580       0x24 build/obj/chthreads.o
                0x0000000008001580                chThdDequeueAllI
 *fill*         0x00000000080015a4        0xc 
 .text.chTMStartMeasurementX
                0x00000000080015b0        0xc build/obj/chtm.o
                0x00000000080015b0                chTMStartMeasurementX
 *fill*         0x00000000080015bc        0x4 
 .text.chTMStopMeasurementX
                0x00000000080015c0       0x44 build/obj/chtm.o
                0x00000000080015c0                chTMStopMeasurementX
 *fill*         0x0000000008001604        0xc 
 .text._tm_init
                0x0000000008001610       0x38 build/obj/chtm.o
                0x0000000008001610                _tm_init
 *fill*         0x0000000008001648        0x8 
 .text.chMtxObjectInit
                0x0000000008001650        0xc build/obj/chmtx.o
                0x0000000008001650                chMtxObjectInit
 *fill*         0x000000000800165c        0x4 
 .text.chMtxLockS
                0x0000000008001660       0xc8 build/obj/chmtx.o
                0x0000000008001660                chMtxLockS
 *fill*         0x0000000008001728        0x8 
 .text.chMtxLock
                0x0000000008001730       0x14 build/obj/chmtx.o
                0x0000000008001730                chMtxLock
 *fill*         0x0000000008001744        0xc 
 .text.chMtxUnlock
                0x0000000008001750       0x64 build/obj/chmtx.o
                0x0000000008001750                chMtxUnlock
 *fill*         0x00000000080017b4        0xc 
 .text.chEvtRegisterMaskWithFlags
                0x00000000080017c0       0x28 build/obj/chevents.o
                0x00000000080017c0                chEvtRegisterMaskWithFlags
 *fill*         0x00000000080017e8        0x8 
 .text.chEvtUnregister
                0x00000000080017f0       0x2c build/obj/chevents.o
                0x00000000080017f0                chEvtUnregister
 *fill*         0x000000000800181c        0x4 
 .text.chEvtSignalI
                0x0000000008001820       0x2c build/obj/chevents.o
                0x0000000008001820                chEvtSignalI
 *fill*         0x000000000800184c        0x4 
 .text.chEvtBroadcastFlagsI
                0x0000000008001850       0x2c build/obj/chevents.o
                0x0000000008001850                chEvtBroadcastFlagsI
 *fill*         0x000000000800187c        0x4 
 .text.chEvtBroadcastFlags
                0x0000000008001880       0x18 build/obj/chevents.o
                0x0000000008001880                chEvtBroadcastFlags
 *fill*         0x0000000008001898        0x8 
 .text.chEvtWaitOneTimeout
                0x00000000080018a0       0x50 build/obj/chevents.o
                0x00000000080018a0                chEvtWaitOneTimeout
 .text._core_init
                0x00000000080018f0       0x28 build/obj/chmemcore.o
                0x00000000080018f0                _core_init
 *fill*         0x0000000008001918        0x8 
 .text.chCoreAlloc
                0x0000000008001920       0x38 build/obj/chmemcore.o
                0x0000000008001920                chCoreAlloc
 *fill*         0x0000000008001958        0x8 
 .text._heap_init
                0x0000000008001960       0x1c build/obj/chheap.o
                0x0000000008001960                _heap_init
 *fill*         0x000000000800197c        0x4 
 .text.SVC_Handler
                0x0000000008001980       0x20 build/obj/chcore_v7m.o
                0x0000000008001980                SVC_Handler
 .text._port_irq_epilogue
                0x00000000080019a0       0x60 build/obj/chcore_v7m.o
                0x00000000080019a0                _port_irq_epilogue
 .text.halInit  0x0000000008001a00       0x38 build/obj/hal.o
                0x0000000008001a00                halInit
 *fill*         0x0000000008001a38        0x8 
 .text.stInit   0x0000000008001a40        0x4 build/obj/st.o
                0x0000000008001a40                stInit
 *fill*         0x0000000008001a44        0xc 
 .text.ibqObjectInit
                0x0000000008001a50       0x2c build/obj/hal_buffers.o
                0x0000000008001a50                ibqObjectInit
 *fill*         0x0000000008001a7c        0x4 
 .text.ibqResetI
                0x0000000008001a80       0x18 build/obj/hal_buffers.o
                0x0000000008001a80                ibqResetI
 *fill*         0x0000000008001a98        0x8 
 .text.ibqGetEmptyBufferI
                0x0000000008001aa0       0x18 build/obj/hal_buffers.o
                0x0000000008001aa0                ibqGetEmptyBufferI
 *fill*         0x0000000008001ab8        0x8 
 .text.ibqPostFullBufferI
                0x0000000008001ac0       0x28 build/obj/hal_buffers.o
                0x0000000008001ac0                ibqPostFullBufferI
 *fill*         0x0000000008001ae8        0x8 
 .text.ibqGetFullBufferTimeoutS
                0x0000000008001af0       0x2c build/obj/hal_buffers.o
                0x0000000008001af0                ibqGetFullBufferTimeoutS
 *fill*         0x0000000008001b1c        0x4 
 .text.ibqReleaseEmptyBufferS
                0x0000000008001b20       0x30 build/obj/hal_buffers.o
                0x0000000008001b20                ibqReleaseEmptyBufferS
 .text.ibqGetTimeout
                0x0000000008001b50       0x48 build/obj/hal_buffers.o
                0x0000000008001b50                ibqGetTimeout
 *fill*         0x0000000008001b98        0x8 
 .text.ibqReadTimeout
                0x0000000008001ba0      0x104 build/obj/hal_buffers.o
                0x0000000008001ba0                ibqReadTimeout
 *fill*         0x0000000008001ca4        0xc 
 .text.obqObjectInit
                0x0000000008001cb0       0x2c build/obj/hal_buffers.o
                0x0000000008001cb0                obqObjectInit
 *fill*         0x0000000008001cdc        0x4 
 .text.obqResetI
                0x0000000008001ce0       0x20 build/obj/hal_buffers.o
                0x0000000008001ce0                obqResetI
 .text.obqGetFullBufferI
                0x0000000008001d00       0x1c build/obj/hal_buffers.o
                0x0000000008001d00                obqGetFullBufferI
 *fill*         0x0000000008001d1c        0x4 
 .text.obqReleaseEmptyBufferI
                0x0000000008001d20       0x28 build/obj/hal_buffers.o
                0x0000000008001d20                obqReleaseEmptyBufferI
 *fill*         0x0000000008001d48        0x8 
 .text.obqGetEmptyBufferTimeoutS
                0x0000000008001d50       0x2c build/obj/hal_buffers.o
                0x0000000008001d50                obqGetEmptyBufferTimeoutS
 *fill*         0x0000000008001d7c        0x4 
 .text.obqPostFullBufferS
                0x0000000008001d80       0x2c build/obj/hal_buffers.o
                0x0000000008001d80                obqPostFullBufferS
 *fill*         0x0000000008001dac        0x4 
 .text.obqPutTimeout
                0x0000000008001db0       0x4c build/obj/hal_buffers.o
                0x0000000008001db0                obqPutTimeout
 *fill*         0x0000000008001dfc        0x4 
 .text.obqWriteTimeout
                0x0000000008001e00      0x100 build/obj/hal_buffers.o
                0x0000000008001e00                obqWriteTimeout
 .text.obqTryFlushI
                0x0000000008001f00       0x48 build/obj/hal_buffers.o
                0x0000000008001f00                obqTryFlushI
 *fill*         0x0000000008001f48        0x8 
 .text.adcInit  0x0000000008001f50        0x4 build/obj/adc.o
                0x0000000008001f50                adcInit
 *fill*         0x0000000008001f54        0xc 
 .text.adcObjectInit
                0x0000000008001f60       0x18 build/obj/adc.o
                0x0000000008001f60                adcObjectInit
 *fill*         0x0000000008001f78        0x8 
 .text.extInit  0x0000000008001f80        0x4 build/obj/ext.o
                0x0000000008001f80                extInit
 *fill*         0x0000000008001f84        0xc 
 .text.extObjectInit
                0x0000000008001f90        0xc build/obj/ext.o
                0x0000000008001f90                extObjectInit
 *fill*         0x0000000008001f9c        0x4 
 .text.extStart
                0x0000000008001fa0       0x1c build/obj/ext.o
                0x0000000008001fa0                extStart
 *fill*         0x0000000008001fbc        0x4 
 .text.extChannelEnable
                0x0000000008001fc0       0x14 build/obj/ext.o
                0x0000000008001fc0                extChannelEnable
 *fill*         0x0000000008001fd4        0xc 
 .text.i2cInit  0x0000000008001fe0        0x4 build/obj/i2c.o
                0x0000000008001fe0                i2cInit
 *fill*         0x0000000008001fe4        0xc 
 .text.i2cObjectInit
                0x0000000008001ff0       0x10 build/obj/i2c.o
                0x0000000008001ff0                i2cObjectInit
 .text.i2cStart
                0x0000000008002000       0x1c build/obj/i2c.o
                0x0000000008002000                i2cStart
 *fill*         0x000000000800201c        0x4 
 .text.i2cMasterTransmitTimeout
                0x0000000008002020       0x40 build/obj/i2c.o
                0x0000000008002020                i2cMasterTransmitTimeout
 .text.i2cAcquireBus
                0x0000000008002060        0x8 build/obj/i2c.o
                0x0000000008002060                i2cAcquireBus
 *fill*         0x0000000008002068        0x8 
 .text.i2cReleaseBus
                0x0000000008002070        0x8 build/obj/i2c.o
                0x0000000008002070                i2cReleaseBus
 *fill*         0x0000000008002078        0x8 
 .text.pwmInit  0x0000000008002080        0x4 build/obj/pwm.o
                0x0000000008002080                pwmInit
 *fill*         0x0000000008002084        0xc 
 .text.pwmObjectInit
                0x0000000008002090       0x10 build/obj/pwm.o
                0x0000000008002090                pwmObjectInit
 .text.pwmStart
                0x00000000080020a0       0x24 build/obj/pwm.o
                0x00000000080020a0                pwmStart
 *fill*         0x00000000080020c4        0xc 
 .text.pwmEnableChannel
                0x00000000080020d0       0x20 build/obj/pwm.o
                0x00000000080020d0                pwmEnableChannel
 .text.obnotify
                0x00000000080020f0       0x48 build/obj/serial_usb.o
 *fill*         0x0000000008002138        0x8 
 .text.ibnotify
                0x0000000008002140       0x48 build/obj/serial_usb.o
 *fill*         0x0000000008002188        0x8 
 .text.readt    0x0000000008002190       0x20 build/obj/serial_usb.o
 .text.writet   0x00000000080021b0       0x20 build/obj/serial_usb.o
 .text.gett     0x00000000080021d0       0x18 build/obj/serial_usb.o
 *fill*         0x00000000080021e8        0x8 
 .text.get      0x00000000080021f0       0x1c build/obj/serial_usb.o
 *fill*         0x000000000800220c        0x4 
 .text.putt     0x0000000008002210       0x18 build/obj/serial_usb.o
 *fill*         0x0000000008002228        0x8 
 .text.put      0x0000000008002230       0x1c build/obj/serial_usb.o
 *fill*         0x000000000800224c        0x4 
 .text.read     0x0000000008002250       0x1c build/obj/serial_usb.o
 *fill*         0x000000000800226c        0x4 
 .text.write    0x0000000008002270       0x1c build/obj/serial_usb.o
 *fill*         0x000000000800228c        0x4 
 .text.sduInit  0x0000000008002290        0x4 build/obj/serial_usb.o
                0x0000000008002290                sduInit
 *fill*         0x0000000008002294        0xc 
 .text.sduObjectInit
                0x00000000080022a0       0x54 build/obj/serial_usb.o
                0x00000000080022a0                sduObjectInit
 *fill*         0x00000000080022f4        0xc 
 .text.sduStart
                0x0000000008002300       0x34 build/obj/serial_usb.o
                0x0000000008002300                sduStart
 *fill*         0x0000000008002334        0xc 
 .text.sduDisconnectI
                0x0000000008002340       0x20 build/obj/serial_usb.o
                0x0000000008002340                sduDisconnectI
 .text.sduConfigureHookI
                0x0000000008002360       0x3c build/obj/serial_usb.o
                0x0000000008002360                sduConfigureHookI
 *fill*         0x000000000800239c        0x4 
 .text.sduRequestsHook
                0x00000000080023a0       0x40 build/obj/serial_usb.o
                0x00000000080023a0                sduRequestsHook
 .text.sduSOFHookI
                0x00000000080023e0       0x50 build/obj/serial_usb.o
                0x00000000080023e0                sduSOFHookI
 .text.sduDataTransmitted
                0x0000000008002430       0x84 build/obj/serial_usb.o
                0x0000000008002430                sduDataTransmitted
 *fill*         0x00000000080024b4        0xc 
 .text.sduDataReceived
                0x00000000080024c0       0x58 build/obj/serial_usb.o
                0x00000000080024c0                sduDataReceived
 *fill*         0x0000000008002518        0x8 
 .text.sduInterruptTransmitted
                0x0000000008002520        0x4 build/obj/serial_usb.o
                0x0000000008002520                sduInterruptTransmitted
 *fill*         0x0000000008002524        0xc 
 .text.spiInit  0x0000000008002530        0x4 build/obj/spi.o
                0x0000000008002530                spiInit
 *fill*         0x0000000008002534        0xc 
 .text.spiObjectInit
                0x0000000008002540       0x10 build/obj/spi.o
                0x0000000008002540                spiObjectInit
 .text.spiStart
                0x0000000008002550       0x1c build/obj/spi.o
                0x0000000008002550                spiStart
 *fill*         0x000000000800256c        0x4 
 .text.spiSelect
                0x0000000008002570       0x14 build/obj/spi.o
                0x0000000008002570                spiSelect
 *fill*         0x0000000008002584        0xc 
 .text.spiUnselect
                0x0000000008002590       0x14 build/obj/spi.o
                0x0000000008002590                spiUnselect
 *fill*         0x00000000080025a4        0xc 
 .text.spiExchange
                0x00000000080025b0       0x24 build/obj/spi.o
                0x00000000080025b0                spiExchange
 *fill*         0x00000000080025d4        0xc 
 .text.spiSend  0x00000000080025e0       0x24 build/obj/spi.o
                0x00000000080025e0                spiSend
 *fill*         0x0000000008002604        0xc 
 .text.spiReceive
                0x0000000008002610       0x24 build/obj/spi.o
                0x0000000008002610                spiReceive
 *fill*         0x0000000008002634        0xc 
 .text.usbInit  0x0000000008002640        0x4 build/obj/usb.o
                0x0000000008002640                usbInit
 *fill*         0x0000000008002644        0xc 
 .text.usbObjectInit
                0x0000000008002650       0x1c build/obj/usb.o
                0x0000000008002650                usbObjectInit
 *fill*         0x000000000800266c        0x4 
 .text.usbStart
                0x0000000008002670       0x24 build/obj/usb.o
                0x0000000008002670                usbStart
 *fill*         0x0000000008002694        0xc 
 .text.usbInitEndpointI
                0x00000000080026a0       0x34 build/obj/usb.o
                0x00000000080026a0                usbInitEndpointI
 *fill*         0x00000000080026d4        0xc 
 .text.usbStartReceiveI
                0x00000000080026e0       0x28 build/obj/usb.o
                0x00000000080026e0                usbStartReceiveI
 *fill*         0x0000000008002708        0x8 
 .text.usbStartTransmitI
                0x0000000008002710       0x28 build/obj/usb.o
                0x0000000008002710                usbStartTransmitI
 *fill*         0x0000000008002738        0x8 
 .text._usb_reset
                0x0000000008002740       0x3c build/obj/usb.o
                0x0000000008002740                _usb_reset
 *fill*         0x000000000800277c        0x4 
 .text._usb_suspend
                0x0000000008002780       0x10 build/obj/usb.o
                0x0000000008002780                _usb_suspend
 .text._usb_wakeup
                0x0000000008002790       0x10 build/obj/usb.o
                0x0000000008002790                _usb_wakeup
 .text._usb_ep0setup
                0x00000000080027a0      0x304 build/obj/usb.o
                0x00000000080027a0                _usb_ep0setup
 *fill*         0x0000000008002aa4        0xc 
 .text._usb_ep0in
                0x0000000008002ab0       0xa4 build/obj/usb.o
                0x0000000008002ab0                _usb_ep0in
 *fill*         0x0000000008002b54        0xc 
 .text._usb_ep0out
                0x0000000008002b60       0x78 build/obj/usb.o
                0x0000000008002b60                _usb_ep0out
 *fill*         0x0000000008002bd8        0x8 
 .text.nvicEnableVector
                0x0000000008002be0       0x34 build/obj/nvic.o
                0x0000000008002be0                nvicEnableVector
 *fill*         0x0000000008002c14        0xc 
 .text.nvicSetSystemHandlerPriority
                0x0000000008002c20       0x10 build/obj/nvic.o
                0x0000000008002c20                nvicSetSystemHandlerPriority
 .text.hal_lld_init
                0x0000000008002c30       0x68 build/obj/hal_lld.o
                0x0000000008002c30                hal_lld_init
 *fill*         0x0000000008002c98        0x8 
 .text.stm32_clock_init
                0x0000000008002ca0       0xc8 build/obj/hal_lld.o
                0x0000000008002ca0                stm32_clock_init
 *fill*         0x0000000008002d68        0x8 
 .text.Vector6C
                0x0000000008002d70       0x28 build/obj/stm32_dma.o
                0x0000000008002d70                Vector6C
 *fill*         0x0000000008002d98        0x8 
 .text.Vector70
                0x0000000008002da0       0x2c build/obj/stm32_dma.o
                0x0000000008002da0                Vector70
 *fill*         0x0000000008002dcc        0x4 
 .text.Vector74
                0x0000000008002dd0       0x2c build/obj/stm32_dma.o
                0x0000000008002dd0                Vector74
 *fill*         0x0000000008002dfc        0x4 
 .text.Vector78
                0x0000000008002e00       0x2c build/obj/stm32_dma.o
                0x0000000008002e00                Vector78
 *fill*         0x0000000008002e2c        0x4 
 .text.Vector7C
                0x0000000008002e30       0x28 build/obj/stm32_dma.o
                0x0000000008002e30                Vector7C
 *fill*         0x0000000008002e58        0x8 
 .text.Vector80
                0x0000000008002e60       0x2c build/obj/stm32_dma.o
                0x0000000008002e60                Vector80
 *fill*         0x0000000008002e8c        0x4 
 .text.Vector84
                0x0000000008002e90       0x2c build/obj/stm32_dma.o
                0x0000000008002e90                Vector84
 *fill*         0x0000000008002ebc        0x4 
 .text.VectorFC
                0x0000000008002ec0       0x2c build/obj/stm32_dma.o
                0x0000000008002ec0                VectorFC
 *fill*         0x0000000008002eec        0x4 
 .text.Vector120
                0x0000000008002ef0       0x28 build/obj/stm32_dma.o
                0x0000000008002ef0                Vector120
 *fill*         0x0000000008002f18        0x8 
 .text.Vector124
                0x0000000008002f20       0x2c build/obj/stm32_dma.o
                0x0000000008002f20                Vector124
 *fill*         0x0000000008002f4c        0x4 
 .text.Vector128
                0x0000000008002f50       0x2c build/obj/stm32_dma.o
                0x0000000008002f50                Vector128
 *fill*         0x0000000008002f7c        0x4 
 .text.Vector12C
                0x0000000008002f80       0x2c build/obj/stm32_dma.o
                0x0000000008002f80                Vector12C
 *fill*         0x0000000008002fac        0x4 
 .text.Vector130
                0x0000000008002fb0       0x28 build/obj/stm32_dma.o
                0x0000000008002fb0                Vector130
 *fill*         0x0000000008002fd8        0x8 
 .text.Vector150
                0x0000000008002fe0       0x2c build/obj/stm32_dma.o
                0x0000000008002fe0                Vector150
 *fill*         0x000000000800300c        0x4 
 .text.Vector154
                0x0000000008003010       0x2c build/obj/stm32_dma.o
                0x0000000008003010                Vector154
 *fill*         0x000000000800303c        0x4 
 .text.Vector158
                0x0000000008003040       0x2c build/obj/stm32_dma.o
                0x0000000008003040                Vector158
 *fill*         0x000000000800306c        0x4 
 .text.dmaInit  0x0000000008003070       0x4c build/obj/stm32_dma.o
                0x0000000008003070                dmaInit
 *fill*         0x00000000080030bc        0x4 
 .text.dmaStreamAllocate
                0x00000000080030c0       0x8c build/obj/stm32_dma.o
                0x00000000080030c0                dmaStreamAllocate
 *fill*         0x000000000800314c        0x4 
 .text.SysTick_Handler
                0x0000000008003150       0x1c build/obj/st_lld.o
                0x0000000008003150                SysTick_Handler
 *fill*         0x000000000800316c        0x4 
 .text.st_lld_init
                0x0000000008003170       0x1c build/obj/st_lld.o
                0x0000000008003170                st_lld_init
 *fill*         0x000000000800318c        0x4 
 .text.adc_lld_init
                0x0000000008003190       0x74 build/obj/adc_lld.o
                0x0000000008003190                adc_lld_init
 *fill*         0x0000000008003204        0xc 
 .text.adc_lld_stop_conversion
                0x0000000008003210       0x30 build/obj/adc_lld.o
                0x0000000008003210                adc_lld_stop_conversion
 .text.Vector88
                0x0000000008003240      0x130 build/obj/adc_lld.o
                0x0000000008003240                Vector88
 .text.ext_lld_init
                0x0000000008003370        0xc build/obj/ext_lld.o
                0x0000000008003370                ext_lld_init
 *fill*         0x000000000800337c        0x4 
 .text.ext_lld_channel_enable
                0x0000000008003380       0xa4 build/obj/ext_lld.o
                0x0000000008003380                ext_lld_channel_enable
 *fill*         0x0000000008003424        0xc 
 .text.ext_lld_channel_disable
                0x0000000008003430       0x2c build/obj/ext_lld.o
                0x0000000008003430                ext_lld_channel_disable
 *fill*         0x000000000800345c        0x4 
 .text.ext_lld_start
                0x0000000008003460       0x40 build/obj/ext_lld.o
                0x0000000008003460                ext_lld_start
 .text.Vector58
                0x00000000080034a0       0x2c build/obj/ext_lld_isr.o
                0x00000000080034a0                Vector58
 *fill*         0x00000000080034cc        0x4 
 .text.Vector5C
                0x00000000080034d0       0x2c build/obj/ext_lld_isr.o
                0x00000000080034d0                Vector5C
 *fill*         0x00000000080034fc        0x4 
 .text.Vector60
                0x0000000008003500       0x2c build/obj/ext_lld_isr.o
                0x0000000008003500                Vector60
 *fill*         0x000000000800352c        0x4 
 .text.Vector64
                0x0000000008003530       0x2c build/obj/ext_lld_isr.o
                0x0000000008003530                Vector64
 *fill*         0x000000000800355c        0x4 
 .text.Vector68
                0x0000000008003560       0x2c build/obj/ext_lld_isr.o
                0x0000000008003560                Vector68
 *fill*         0x000000000800358c        0x4 
 .text.Vector9C
                0x0000000008003590       0x70 build/obj/ext_lld_isr.o
                0x0000000008003590                Vector9C
 .text.VectorE0
                0x0000000008003600       0x80 build/obj/ext_lld_isr.o
                0x0000000008003600                VectorE0
 .text.Vector44
                0x0000000008003680       0x2c build/obj/ext_lld_isr.o
                0x0000000008003680                Vector44
 *fill*         0x00000000080036ac        0x4 
 .text.VectorE4
                0x00000000080036b0       0x2c build/obj/ext_lld_isr.o
                0x00000000080036b0                VectorE4
 *fill*         0x00000000080036dc        0x4 
 .text.VectorE8
                0x00000000080036e0       0x30 build/obj/ext_lld_isr.o
                0x00000000080036e0                VectorE8
 .text.Vector170
                0x0000000008003710       0x30 build/obj/ext_lld_isr.o
                0x0000000008003710                Vector170
 .text.Vector48
                0x0000000008003740       0x30 build/obj/ext_lld_isr.o
                0x0000000008003740                Vector48
 .text.Vector4C
                0x0000000008003770       0x30 build/obj/ext_lld_isr.o
                0x0000000008003770                Vector4C
 .text.ext_lld_exti_irq_enable
                0x00000000080037a0       0x70 build/obj/ext_lld_isr.o
                0x00000000080037a0                ext_lld_exti_irq_enable
 .text._pal_lld_init
                0x0000000008003810      0x188 build/obj/pal_lld.o
                0x0000000008003810                _pal_lld_init
 *fill*         0x0000000008003998        0x8 
 .text._pal_lld_setgroupmode
                0x00000000080039a0       0xd0 build/obj/pal_lld.o
                0x00000000080039a0                _pal_lld_setgroupmode
 .text.i2c_lld_serve_tx_end_irq
                0x0000000008003a70       0x40 build/obj/i2c_lld.o
 .text.i2c_lld_serve_rx_end_irq
                0x0000000008003ab0       0x64 build/obj/i2c_lld.o
 *fill*         0x0000000008003b14        0xc 
 .text.VectorBC
                0x0000000008003b20       0xf8 build/obj/i2c_lld.o
                0x0000000008003b20                VectorBC
 *fill*         0x0000000008003c18        0x8 
 .text.VectorC0
                0x0000000008003c20       0xdc build/obj/i2c_lld.o
                0x0000000008003c20                VectorC0
 *fill*         0x0000000008003cfc        0x4 
 .text.i2c_lld_init
                0x0000000008003d00       0x2c build/obj/i2c_lld.o
                0x0000000008003d00                i2c_lld_init
 *fill*         0x0000000008003d2c        0x4 
 .text.i2c_lld_start
                0x0000000008003d30      0x180 build/obj/i2c_lld.o
                0x0000000008003d30                i2c_lld_start
 .text.i2c_lld_master_transmit_timeout
                0x0000000008003eb0       0x90 build/obj/i2c_lld.o
                0x0000000008003eb0                i2c_lld_master_transmit_timeout
 .text.usb_lld_pump
                0x0000000008003f40      0x200 build/obj/usb_lld.o
                0x0000000008003f40                usb_lld_pump
 .text.usb_lld_init
                0x0000000008004140       0x24 build/obj/usb_lld.o
                0x0000000008004140                usb_lld_init
 *fill*         0x0000000008004164        0xc 
 .text.usb_lld_start
                0x0000000008004170      0x124 build/obj/usb_lld.o
                0x0000000008004170                usb_lld_start
 *fill*         0x0000000008004294        0xc 
 .text.usb_lld_reset
                0x00000000080042a0       0xc0 build/obj/usb_lld.o
                0x00000000080042a0                usb_lld_reset
 .text.usb_lld_set_address
                0x0000000008004360       0x18 build/obj/usb_lld.o
                0x0000000008004360                usb_lld_set_address
 *fill*         0x0000000008004378        0x8 
 .text.usb_lld_init_endpoint
                0x0000000008004380      0x160 build/obj/usb_lld.o
                0x0000000008004380                usb_lld_init_endpoint
 .text.usb_lld_get_status_out
                0x00000000080044e0       0x1c build/obj/usb_lld.o
                0x00000000080044e0                usb_lld_get_status_out
 *fill*         0x00000000080044fc        0x4 
 .text.usb_lld_get_status_in
                0x0000000008004500       0x1c build/obj/usb_lld.o
                0x0000000008004500                usb_lld_get_status_in
 *fill*         0x000000000800451c        0x4 
 .text.usb_lld_read_setup
                0x0000000008004520       0x14 build/obj/usb_lld.o
                0x0000000008004520                usb_lld_read_setup
 *fill*         0x0000000008004534        0xc 
 .text.usb_lld_start_out
                0x0000000008004540       0x84 build/obj/usb_lld.o
                0x0000000008004540                usb_lld_start_out
 *fill*         0x00000000080045c4        0xc 
 .text.otg_epout_handler.constprop.9
                0x00000000080045d0       0x9c build/obj/usb_lld.o
 *fill*         0x000000000800466c        0x4 
 .text.usb_lld_start_in
                0x0000000008004670       0xac build/obj/usb_lld.o
                0x0000000008004670                usb_lld_start_in
 *fill*         0x000000000800471c        0x4 
 .text.otg_epin_handler.constprop.10
                0x0000000008004720       0xb4 build/obj/usb_lld.o
 *fill*         0x00000000080047d4        0xc 
 .text.Vector14C
                0x00000000080047e0      0x270 build/obj/usb_lld.o
                0x00000000080047e0                Vector14C
 .text.usb_lld_stall_out
                0x0000000008004a50       0x14 build/obj/usb_lld.o
                0x0000000008004a50                usb_lld_stall_out
 *fill*         0x0000000008004a64        0xc 
 .text.usb_lld_stall_in
                0x0000000008004a70       0x14 build/obj/usb_lld.o
                0x0000000008004a70                usb_lld_stall_in
 *fill*         0x0000000008004a84        0xc 
 .text.usb_lld_clear_out
                0x0000000008004a90       0x14 build/obj/usb_lld.o
                0x0000000008004a90                usb_lld_clear_out
 *fill*         0x0000000008004aa4        0xc 
 .text.usb_lld_clear_in
                0x0000000008004ab0       0x14 build/obj/usb_lld.o
                0x0000000008004ab0                usb_lld_clear_in
 *fill*         0x0000000008004ac4        0xc 
 .text.spi_lld_serve_tx_interrupt
                0x0000000008004ad0       0x14 build/obj/spi_lld.o
 *fill*         0x0000000008004ae4        0xc 
 .text.spi_lld_serve_rx_interrupt
                0x0000000008004af0       0x80 build/obj/spi_lld.o
 .text.spi_lld_init
                0x0000000008004b70       0x44 build/obj/spi_lld.o
                0x0000000008004b70                spi_lld_init
 *fill*         0x0000000008004bb4        0xc 
 .text.spi_lld_start
                0x0000000008004bc0       0x94 build/obj/spi_lld.o
                0x0000000008004bc0                spi_lld_start
 *fill*         0x0000000008004c54        0xc 
 .text.spi_lld_select
                0x0000000008004c60       0x10 build/obj/spi_lld.o
                0x0000000008004c60                spi_lld_select
 .text.spi_lld_unselect
                0x0000000008004c70       0x10 build/obj/spi_lld.o
                0x0000000008004c70                spi_lld_unselect
 .text.spi_lld_exchange
                0x0000000008004c80       0x38 build/obj/spi_lld.o
                0x0000000008004c80                spi_lld_exchange
 *fill*         0x0000000008004cb8        0x8 
 .text.spi_lld_send
                0x0000000008004cc0       0x38 build/obj/spi_lld.o
                0x0000000008004cc0                spi_lld_send
 *fill*         0x0000000008004cf8        0x8 
 .text.spi_lld_receive
                0x0000000008004d00       0x38 build/obj/spi_lld.o
                0x0000000008004d00                spi_lld_receive
 *fill*         0x0000000008004d38        0x8 
 .text.pwm_lld_init
                0x0000000008004d40       0x1c build/obj/pwm_lld.o
                0x0000000008004d40                pwm_lld_init
 *fill*         0x0000000008004d5c        0x4 
 .text.pwm_lld_start
                0x0000000008004d60       0xe4 build/obj/pwm_lld.o
                0x0000000008004d60                pwm_lld_start
 *fill*         0x0000000008004e44        0xc 
 .text.pwm_lld_enable_channel
                0x0000000008004e50        0xc build/obj/pwm_lld.o
                0x0000000008004e50                pwm_lld_enable_channel
 *fill*         0x0000000008004e5c        0x4 
 .text.pwm_lld_serve_interrupt
                0x0000000008004e60       0x5c build/obj/pwm_lld.o
                0x0000000008004e60                pwm_lld_serve_interrupt
 *fill*         0x0000000008004ebc        0x4 
 .text.Vector108
                0x0000000008004ec0       0x14 build/obj/pwm_lld.o
                0x0000000008004ec0                Vector108
 *fill*         0x0000000008004ed4        0xc 
 .text.__early_init
                0x0000000008004ee0        0x4 build/obj/board.o
                0x0000000008004ee0                __early_init
 *fill*         0x0000000008004ee4        0xc 
 .text.boardInit
                0x0000000008004ef0        0x4 build/obj/board.o
                0x0000000008004ef0                boardInit
 *fill*         0x0000000008004ef4        0xc 
 .text.long_to_string_with_divisor
                0x0000000008004f00       0x48 build/obj/chprintf.o
 *fill*         0x0000000008004f48        0x8 
 .text.chvprintf
                0x0000000008004f50      0x408 build/obj/chprintf.o
                0x0000000008004f50                chvprintf
 *fill*         0x0000000008005358        0x8 
 .text.chprintf
                0x0000000008005360       0x1c build/obj/chprintf.o
                0x0000000008005360                chprintf
 *fill*         0x000000000800537c        0x4 
 .text.startup.main
                0x0000000008005380      0x154 build/obj/main.o
                0x0000000008005380                main
 *fill*         0x00000000080054d4        0xc 
 .text.get_descriptor
                0x00000000080054e0       0x30 build/obj/comm_usb.o
 .text.sof_handler
                0x0000000008005510       0x1c build/obj/comm_usb.o
 *fill*         0x000000000800552c        0x4 
 .text.usb_event
                0x0000000008005530       0x58 build/obj/comm_usb.o
 *fill*         0x0000000008005588        0x8 
 .text.comm_usb_serial_init
                0x0000000008005590       0x6c build/obj/comm_usb.o
                0x0000000008005590                comm_usb_serial_init
 *fill*         0x00000000080055fc        0x4 
 .text.comm_usb_serial_is_active
                0x0000000008005600       0x1c build/obj/comm_usb.o
                0x0000000008005600                comm_usb_serial_is_active
 *fill*         0x000000000800561c        0x4 
 .text.ws2812b_init
                0x0000000008005620      0x1c8 build/obj/ws2812b.o
                0x0000000008005620                ws2812b_init
 *fill*         0x00000000080057e8        0x8 
 .text.ws2812b_set_led_color
                0x00000000080057f0       0x5c build/obj/ws2812b.o
                0x00000000080057f0                ws2812b_set_led_color
 *fill*         0x000000000800584c        0x4 
 .text.bno055_read_addr
                0x0000000008005850       0x38 build/obj/bno055.o
                0x0000000008005850                bno055_read_addr
 *fill*         0x0000000008005888        0x8 
 .text.bno055_get_status
                0x0000000008005890        0x8 build/obj/bno055.o
                0x0000000008005890                bno055_get_status
 *fill*         0x0000000008005898        0x8 
 .text.bno055_get_error
                0x00000000080058a0        0x8 build/obj/bno055.o
                0x00000000080058a0                bno055_get_error
 *fill*         0x00000000080058a8        0x8 
 .text.bno055_read_len
                0x00000000080058b0       0x38 build/obj/bno055.o
                0x00000000080058b0                bno055_read_len
 *fill*         0x00000000080058e8        0x8 
 .text.bno055_get_vector
                0x00000000080058f0      0x17c build/obj/bno055.o
                0x00000000080058f0                bno055_get_vector
 *fill*         0x0000000008005a6c        0x4 
 .text.bno055_write_addr
                0x0000000008005a70       0x38 build/obj/bno055.o
                0x0000000008005a70                bno055_write_addr
 *fill*         0x0000000008005aa8        0x8 
 .text.bno055_init
                0x0000000008005ab0       0xbc build/obj/bno055.o
                0x0000000008005ab0                bno055_init
 *fill*         0x0000000008005b6c        0x4 
 .text.nrfExtCallback
                0x0000000008005b70       0x1c build/obj/nrf24l01.o
 *fill*         0x0000000008005b8c        0x4 
 .text.nrf24l01ReadPayload.part.2
                0x0000000008005b90       0x5c build/obj/nrf24l01.o
 *fill*         0x0000000008005bec        0x4 
 .text.nrf24l01WritePayload.part.3
                0x0000000008005bf0       0x48 build/obj/nrf24l01.o
 *fill*         0x0000000008005c38        0x8 
 .text.nrf24l01WriteRegister
                0x0000000008005c40       0x3c build/obj/nrf24l01.o
                0x0000000008005c40                nrf24l01WriteRegister
 *fill*         0x0000000008005c7c        0x4 
 .text.nrf24l01ReadRegister
                0x0000000008005c80       0x48 build/obj/nrf24l01.o
                0x0000000008005c80                nrf24l01ReadRegister
 *fill*         0x0000000008005cc8        0x8 
 .text.nrf24l01WriteAddressRegister
                0x0000000008005cd0       0x4c build/obj/nrf24l01.o
                0x0000000008005cd0                nrf24l01WriteAddressRegister
 *fill*         0x0000000008005d1c        0x4 
 .text.nrf24l01GetStatus
                0x0000000008005d20       0x3c build/obj/nrf24l01.o
                0x0000000008005d20                nrf24l01GetStatus
 *fill*         0x0000000008005d5c        0x4 
 .text.nrf24l01PowerUp
                0x0000000008005d60       0x1c build/obj/nrf24l01.o
                0x0000000008005d60                nrf24l01PowerUp
 *fill*         0x0000000008005d7c        0x4 
 .text.nrf24l01SetRXAddress
                0x0000000008005d80       0x40 build/obj/nrf24l01.o
                0x0000000008005d80                nrf24l01SetRXAddress
 .text.nrf24l01SetTXAddress
                0x0000000008005dc0       0x1c build/obj/nrf24l01.o
                0x0000000008005dc0                nrf24l01SetTXAddress
 *fill*         0x0000000008005ddc        0x4 
 .text.nrf24l01EnableDynamicPipeSize
                0x0000000008005de0       0x24 build/obj/nrf24l01.o
                0x0000000008005de0                nrf24l01EnableDynamicPipeSize
 *fill*         0x0000000008005e04        0xc 
 .text.nrf24l01ToggleFeatures
                0x0000000008005e10       0x38 build/obj/nrf24l01.o
                0x0000000008005e10                nrf24l01ToggleFeatures
 *fill*         0x0000000008005e48        0x8 
 .text.nrf24l01EnableDynamicSize
                0x0000000008005e50       0x40 build/obj/nrf24l01.o
                0x0000000008005e50                nrf24l01EnableDynamicSize
 .text.nrf24l01FlushRX
                0x0000000008005e90       0x34 build/obj/nrf24l01.o
                0x0000000008005e90                nrf24l01FlushRX
 *fill*         0x0000000008005ec4        0xc 
 .text.nrf24l01FlushTX
                0x0000000008005ed0       0x34 build/obj/nrf24l01.o
                0x0000000008005ed0                nrf24l01FlushTX
 *fill*         0x0000000008005f04        0xc 
 .text.initNRF24L01
                0x0000000008005f10       0xf0 build/obj/nrf24l01.o
                0x0000000008005f10                initNRF24L01
 .text.nrf24l01GetSize
                0x0000000008006000       0x48 build/obj/nrf24l01.o
                0x0000000008006000                nrf24l01GetSize
 *fill*         0x0000000008006048        0x8 
 .text.nrf24l01EnterRX
                0x0000000008006050       0x3c build/obj/nrf24l01.o
                0x0000000008006050                nrf24l01EnterRX
 *fill*         0x000000000800608c        0x4 
 .text.readt    0x0000000008006090      0x230 build/obj/nrf24l01.o
 .text.gett     0x00000000080062c0       0x54 build/obj/nrf24l01.o
 *fill*         0x0000000008006314        0xc 
 .text.get      0x0000000008006320        0x8 build/obj/nrf24l01.o
 *fill*         0x0000000008006328        0x8 
 .text.read     0x0000000008006330        0x8 build/obj/nrf24l01.o
 *fill*         0x0000000008006338        0x8 
 .text.nrf24l01EnterTX
                0x0000000008006340       0x38 build/obj/nrf24l01.o
                0x0000000008006340                nrf24l01EnterTX
 *fill*         0x0000000008006378        0x8 
 .text.writet   0x0000000008006380       0xf4 build/obj/nrf24l01.o
 *fill*         0x0000000008006474        0xc 
 .text.putt     0x0000000008006480       0x20 build/obj/nrf24l01.o
 .text.put      0x00000000080064a0       0x24 build/obj/nrf24l01.o
 *fill*         0x00000000080064c4        0xc 
 .text.write    0x00000000080064d0        0x8 build/obj/nrf24l01.o
 *fill*         0x00000000080064d8        0x8 
 .text.esc_set  0x00000000080064e0       0x8c build/obj/esc.o
                0x00000000080064e0                esc_set
 *fill*         0x000000000800656c        0x4 
 .text.esc_set_all
                0x0000000008006570        0x8 build/obj/esc.o
                0x0000000008006570                esc_set_all
 *fill*         0x0000000008006578        0x8 
 .text.esc_init
                0x0000000008006580       0x54 build/obj/esc.o
                0x0000000008006580                esc_init
 *fill*         0x00000000080065d4        0xc 
 .text.controller_update
                0x00000000080065e0       0x18 build/obj/controller.o
                0x00000000080065e0                controller_update
 *fill*         0x00000000080065f8        0x8 
 .text.DMA_DeInit
                0x0000000008006600      0x130 build/obj/stm32f4xx_dma.o
                0x0000000008006600                DMA_DeInit
 .text.DMA_Init
                0x0000000008006730       0x70 build/obj/stm32f4xx_dma.o
                0x0000000008006730                DMA_Init
 .text.DMA_Cmd  0x00000000080067a0       0x14 build/obj/stm32f4xx_dma.o
                0x00000000080067a0                DMA_Cmd
 *fill*         0x00000000080067b4        0xc 
 .text.RCC_AHB1PeriphClockCmd
                0x00000000080067c0       0x18 build/obj/stm32f4xx_rcc.o
                0x00000000080067c0                RCC_AHB1PeriphClockCmd
 *fill*         0x00000000080067d8        0x8 
 .text.RCC_APB1PeriphClockCmd
                0x00000000080067e0       0x18 build/obj/stm32f4xx_rcc.o
                0x00000000080067e0                RCC_APB1PeriphClockCmd
 *fill*         0x00000000080067f8        0x8 
 .text.TIM_TimeBaseInit
                0x0000000008006800       0x98 build/obj/stm32f4xx_tim.o
                0x0000000008006800                TIM_TimeBaseInit
 *fill*         0x0000000008006898        0x8 
 .text.TIM_Cmd  0x00000000080068a0       0x18 build/obj/stm32f4xx_tim.o
                0x00000000080068a0                TIM_Cmd
 *fill*         0x00000000080068b8        0x8 
 .text.TIM_OC3Init
                0x00000000080068c0       0x90 build/obj/stm32f4xx_tim.o
                0x00000000080068c0                TIM_OC3Init
 .text.TIM_OC3PreloadConfig
                0x0000000008006950       0x10 build/obj/stm32f4xx_tim.o
                0x0000000008006950                TIM_OC3PreloadConfig
 .text.TIM_CtrlPWMOutputs
                0x0000000008006960       0x14 build/obj/stm32f4xx_tim.o
                0x0000000008006960                TIM_CtrlPWMOutputs
 *fill*         0x0000000008006974        0xc 
 .text.TIM_DMACmd
                0x0000000008006980       0x18 build/obj/stm32f4xx_tim.o
                0x0000000008006980                TIM_DMACmd
 *fill*         0x0000000008006998        0x8 
 .text.roundf   0x00000000080069a0       0x60 /usr/local/Cellar/gcc-arm-none-eabi-49/20150609/bin/../lib/gcc/arm-none-eabi/4.9.3/../../../../arm-none-eabi/lib/armv7e-m/fpu/libm.a(lib_a-sf_round.o)
                0x00000000080069a0                roundf
 .text.powf     0x0000000008006a00      0x344 /usr/local/Cellar/gcc-arm-none-eabi-49/20150609/bin/../lib/gcc/arm-none-eabi/4.9.3/../../../../arm-none-eabi/lib/armv7e-m/fpu/libm.a(lib_a-wf_pow.o)
                0x0000000008006a00                powf
 *fill*         0x0000000008006d44        0xc 
 .text.__ieee754_powf
                0x0000000008006d50      0x5f0 /usr/local/Cellar/gcc-arm-none-eabi-49/20150609/bin/../lib/gcc/arm-none-eabi/4.9.3/../../../../arm-none-eabi/lib/armv7e-m/fpu/libm.a(lib_a-ef_pow.o)
                0x0000000008006d50                __ieee754_powf
 .text.__ieee754_sqrtf
                0x0000000008007340       0xa4 /usr/local/Cellar/gcc-arm-none-eabi-49/20150609/bin/../lib/gcc/arm-none-eabi/4.9.3/../../../../arm-none-eabi/lib/armv7e-m/fpu/libm.a(lib_a-ef_sqrt.o)
                0x0000000008007340                __ieee754_sqrtf
 *fill*         0x00000000080073e4        0xc 
 .text.matherr  0x00000000080073f0        0x4 /usr/local/Cellar/gcc-arm-none-eabi-49/20150609/bin/../lib/gcc/arm-none-eabi/4.9.3/../../../../arm-none-eabi/lib/armv7e-m/fpu/libm.a(lib_a-s_matherr.o)
                0x00000000080073f0                matherr
 *fill*         0x00000000080073f4        0xc 
 .text.rint     0x0000000008007400      0x124 /usr/local/Cellar/gcc-arm-none-eabi-49/20150609/bin/../lib/gcc/arm-none-eabi/4.9.3/../../../../arm-none-eabi/lib/armv7e-m/fpu/libm.a(lib_a-s_rint.o)
                0x0000000008007400                rint
 *fill*         0x0000000008007524        0xc 
 .text.fabsf    0x0000000008007530       0x10 /usr/local/Cellar/gcc-arm-none-eabi-49/20150609/bin/../lib/gcc/arm-none-eabi/4.9.3/../../../../arm-none-eabi/lib/armv7e-m/fpu/libm.a(lib_a-sf_fabs.o)
                0x0000000008007530                fabsf
 .text.finitef  0x0000000008007540       0x14 /usr/local/Cellar/gcc-arm-none-eabi-49/20150609/bin/../lib/gcc/arm-none-eabi/4.9.3/../../../../arm-none-eabi/lib/armv7e-m/fpu/libm.a(lib_a-sf_finite.o)
                0x0000000008007540                finitef
 *fill*         0x0000000008007554        0xc 
 .text.__fpclassifyf
                0x0000000008007560       0x38 /usr/local/Cellar/gcc-arm-none-eabi-49/20150609/bin/../lib/gcc/arm-none-eabi/4.9.3/../../../../arm-none-eabi/lib/armv7e-m/fpu/libm.a(lib_a-sf_fpclassify.o)
                0x0000000008007560                __fpclassifyf
 *fill*         0x0000000008007598        0x8 
 .text.nanf     0x00000000080075a0        0xc /usr/local/Cellar/gcc-arm-none-eabi-49/20150609/bin/../lib/gcc/arm-none-eabi/4.9.3/../../../../arm-none-eabi/lib/armv7e-m/fpu/libm.a(lib_a-sf_nan.o)
                0x00000000080075a0                nanf
 *fill*         0x00000000080075ac        0x4 
 .text.scalbnf  0x00000000080075b0       0xd0 /usr/local/Cellar/gcc-arm-none-eabi-49/20150609/bin/../lib/gcc/arm-none-eabi/4.9.3/../../../../arm-none-eabi/lib/armv7e-m/fpu/libm.a(lib_a-sf_scalbn.o)
                0x00000000080075b0                scalbnf
 .text.copysignf
                0x0000000008007680       0x18 /usr/local/Cellar/gcc-arm-none-eabi-49/20150609/bin/../lib/gcc/arm-none-eabi/4.9.3/../../../../arm-none-eabi/lib/armv7e-m/fpu/libm.a(lib_a-sf_copysign.o)
                0x0000000008007680                copysignf
 *fill*         0x0000000008007698        0x8 
 .text.__errno  0x00000000080076a0        0xc /usr/local/Cellar/gcc-arm-none-eabi-49/20150609/bin/../lib/gcc/arm-none-eabi/4.9.3/../../../../arm-none-eabi/lib/armv7e-m/fpu/libg.a(lib_a-errno.o)
                0x00000000080076a0                __errno
 *fill*         0x00000000080076ac        0x4 
 .text.memset   0x00000000080076b0       0x9c /usr/local/Cellar/gcc-arm-none-eabi-49/20150609/bin/../lib/gcc/arm-none-eabi/4.9.3/../../../../arm-none-eabi/lib/armv7e-m/fpu/libg.a(lib_a-memset.o)
                0x00000000080076b0                memset
 *(.rodata)
 *fill*         0x000000000800774c        0x4 
 .rodata        0x0000000008007750       0x14 build/obj/main.o
 *fill*         0x0000000008007764        0xc 
 .rodata        0x0000000008007770        0x2 build/obj/nrf24l01.o
 *(.rodata.*)
 *fill*         0x0000000008007772        0xe 
 .rodata.ram_areas
                0x0000000008007780       0x80 build/obj/crt1.o
 .rodata.str1.4
                0x0000000008007800        0x5 build/obj/chsys.o
 *fill*         0x0000000008007805        0xb 
 .rodata.ch_debug
                0x0000000008007810       0x16 build/obj/chregistry.o
                0x0000000008007810                ch_debug
 *fill*         0x0000000008007826        0xa 
 .rodata.vmt    0x0000000008007830       0x20 build/obj/serial_usb.o
 .rodata.zero_status
                0x0000000008007850        0x2 build/obj/usb.o
 *fill*         0x0000000008007852        0xe 
 .rodata.active_status
                0x0000000008007860        0x2 build/obj/usb.o
 *fill*         0x0000000008007862        0xe 
 .rodata.halted_status
                0x0000000008007870        0x2 build/obj/usb.o
 *fill*         0x0000000008007872        0xe 
 .rodata._stm32_dma_streams
                0x0000000008007880       0xc0 build/obj/stm32_dma.o
                0x0000000008007880                _stm32_dma_streams
 .rodata.str1.4
                0x0000000008007940        0xc build/obj/i2c_lld.o
 *fill*         0x000000000800794c        0x4 
 .rodata.fsparams
                0x0000000008007950        0xc build/obj/usb_lld.o
 *fill*         0x000000000800795c        0x4 
 .rodata.str1.4
                0x0000000008007960        0xd build/obj/usb_lld.o
 *fill*         0x000000000800796d        0x3 
 .rodata.ep0config
                0x0000000008007970       0x24 build/obj/usb_lld.o
 .rodata.str1.4
                0x0000000000000000        0xc build/obj/spi_lld.o
 *fill*         0x0000000008007994        0xc 
 .rodata.pal_default_config
                0x00000000080079a0       0xe0 build/obj/board.o
                0x00000000080079a0                pal_default_config
 .rodata.str1.4
                0x0000000008007a80        0x7 build/obj/chprintf.o
 *fill*         0x0000000008007a87        0x9 
 .rodata.pow10  0x0000000008007a90       0x24 build/obj/chprintf.o
 *fill*         0x0000000008007ab4        0xc 
 .rodata.str1.4
                0x0000000008007ac0        0x4 build/obj/main.o
 *fill*         0x0000000008007ac4        0xc 
 .rodata.ep1config
                0x0000000008007ad0       0x24 build/obj/comm_usb.o
 *fill*         0x0000000008007af4        0xc 
 .rodata.vcom_configuration_descriptor
                0x0000000008007b00        0x8 build/obj/comm_usb.o
 *fill*         0x0000000008007b08        0x8 
 .rodata.ep2config
                0x0000000008007b10       0x24 build/obj/comm_usb.o
 *fill*         0x0000000008007b34        0xc 
 .rodata.usbcfg
                0x0000000008007b40       0x10 build/obj/comm_usb.o
 .rodata.vcom_configuration_descriptor_data
                0x0000000008007b50       0x43 build/obj/comm_usb.o
 *fill*         0x0000000008007b93        0xd 
 .rodata.vcom_device_descriptor_data
                0x0000000008007ba0       0x12 build/obj/comm_usb.o
 *fill*         0x0000000008007bb2        0xe 
 .rodata.vcom_string0
                0x0000000008007bc0        0x4 build/obj/comm_usb.o
 *fill*         0x0000000008007bc4        0xc 
 .rodata.vcom_string1
                0x0000000008007bd0       0x26 build/obj/comm_usb.o
 *fill*         0x0000000008007bf6        0xa 
 .rodata.vcom_string2
                0x0000000008007c00       0x38 build/obj/comm_usb.o
 *fill*         0x0000000008007c38        0x8 
 .rodata.vcom_string3
                0x0000000008007c40        0x8 build/obj/comm_usb.o
 *fill*         0x0000000008007c48        0x8 
 .rodata.vcom_strings
                0x0000000008007c50       0x20 build/obj/comm_usb.o
 .rodata.serusbcfg
                0x0000000008007c70        0x8 build/obj/comm_usb.o
                0x0000000008007c70                serusbcfg
 *fill*         0x0000000008007c78        0x8 
 .rodata.vcom_device_descriptor
                0x0000000008007c80        0x8 build/obj/comm_usb.o
 *fill*         0x0000000008007c88        0x8 
 .rodata.i2ccfg
                0x0000000008007c90        0xc build/obj/bno055.o
 *fill*         0x0000000008007c9c        0x4 
 .rodata.nrf24l01SPI
                0x0000000008007ca0        0xc build/obj/nrf24l01.o
 *fill*         0x0000000008007cac        0x4 
 .rodata.nrf24l01Config
                0x0000000008007cb0        0xc build/obj/nrf24l01.o
 *fill*         0x0000000008007cbc        0x4 
 .rodata.extcfg
                0x0000000008007cc0       0xb8 build/obj/nrf24l01.o
 *fill*         0x0000000008007d78        0x8 
 .rodata.addr   0x0000000008007d80        0x4 build/obj/nrf24l01.o
 *fill*         0x0000000008007d84        0xc 
 .rodata.vmt    0x0000000008007d90       0x20 build/obj/nrf24l01.o
 .rodata.str1.4
                0x0000000008007db0        0x5 /usr/local/Cellar/gcc-arm-none-eabi-49/20150609/bin/../lib/gcc/arm-none-eabi/4.9.3/../../../../arm-none-eabi/lib/armv7e-m/fpu/libm.a(lib_a-wf_pow.o)
 *fill*         0x0000000008007db5        0xb 
 .rodata.dp_h   0x0000000008007dc0        0x8 /usr/local/Cellar/gcc-arm-none-eabi-49/20150609/bin/../lib/gcc/arm-none-eabi/4.9.3/../../../../arm-none-eabi/lib/armv7e-m/fpu/libm.a(lib_a-ef_pow.o)
 *fill*         0x0000000008007dc8        0x8 
 .rodata.dp_l   0x0000000008007dd0        0x8 /usr/local/Cellar/gcc-arm-none-eabi-49/20150609/bin/../lib/gcc/arm-none-eabi/4.9.3/../../../../arm-none-eabi/lib/armv7e-m/fpu/libm.a(lib_a-ef_pow.o)
 *fill*         0x0000000008007dd8        0x8 
 .rodata.bp     0x0000000008007de0        0x8 /usr/local/Cellar/gcc-arm-none-eabi-49/20150609/bin/../lib/gcc/arm-none-eabi/4.9.3/../../../../arm-none-eabi/lib/armv7e-m/fpu/libm.a(lib_a-ef_pow.o)
 .rodata.str1.4
                0x0000000000000000        0x5 /usr/local/Cellar/gcc-arm-none-eabi-49/20150609/bin/../lib/gcc/arm-none-eabi/4.9.3/../../../../arm-none-eabi/lib/armv7e-m/fpu/libm.a(lib_a-ef_pow.o)
                                          0x1 (size before relaxing)
 *fill*         0x0000000008007de8        0x8 
 .rodata.TWO52  0x0000000008007df0       0x10 /usr/local/Cellar/gcc-arm-none-eabi-49/20150609/bin/../lib/gcc/arm-none-eabi/4.9.3/../../../../arm-none-eabi/lib/armv7e-m/fpu/libm.a(lib_a-s_rint.o)
 .rodata.str1.4
                0x0000000008007e00        0x4 /usr/local/Cellar/gcc-arm-none-eabi-49/20150609/bin/../lib/gcc/arm-none-eabi/4.9.3/../../../../arm-none-eabi/lib/armv7e-m/fpu/libg.a(lib_a-impure.o)
                                          0x2 (size before relaxing)
 *(.glue_7t)
 .glue_7t       0x0000000000000000        0x0 linker stubs
 *(.glue_7)
 .glue_7        0x0000000000000000        0x0 linker stubs
 *(.gcc*)

.vfp11_veneer   0x0000000008007e04        0x0
 .vfp11_veneer  0x0000000000000000        0x0 linker stubs

.v4_bx          0x0000000008007e04        0x0
 .v4_bx         0x0000000000000000        0x0 linker stubs

.iplt           0x0000000008007e04        0x0
 .iplt          0x0000000000000000        0x0 build/obj/crt0_v7m.o

.rel.dyn        0x0000000008007e04        0x0
 .rel.iplt      0x0000000000000000        0x0 build/obj/crt0_v7m.o

.ARM.extab
 *(.ARM.extab* .gnu.linkonce.armextab.*)

.ARM.exidx      0x0000000008007e04        0x0
                0x0000000008007e04                __exidx_start = .
 *(.ARM.exidx* .gnu.linkonce.armexidx.*)
                0x0000000008007e04                __exidx_end = .

.eh_frame_hdr
 *(.eh_frame_hdr)

.eh_frame
 *(.eh_frame)

.textalign      0x0000000008007e04        0x4
                0x0000000008007e08                . = ALIGN (0x8)
 *fill*         0x0000000008007e04        0x4 
                0x0000000008007e08                . = ALIGN (0x4)
                0x0000000008007e08                PROVIDE (_etext, .)

.mstack         0x0000000020000000      0x400
                0x0000000020000000                . = ALIGN (0x8)
                0x0000000020000000                __main_stack_base__ = .
                0x0000000020000400                . = (. + __main_stack_size__)
 *fill*         0x0000000020000000      0x400 
                0x0000000020000400                . = ALIGN (0x8)
                0x0000000020000400                __main_stack_end__ = .

.pstack         0x0000000020000400      0x400
                0x0000000020000400                __process_stack_base__ = .
                0x0000000020000400                __main_thread_stack_base__ = .
                0x0000000020000800                . = (. + __process_stack_size__)
 *fill*         0x0000000020000400      0x400 
                0x0000000020000800                . = ALIGN (0x8)
                0x0000000020000800                __process_stack_end__ = .
                0x0000000020000800                __main_thread_stack_end__ = .

.data           0x0000000020000800      0x46c load address 0x0000000008007e08
                0x0000000020000800                . = ALIGN (0x4)
                0x0000000008007e08                PROVIDE (_textdata, LOADADDR (.data))
                0x0000000020000800                PROVIDE (_data, .)
                0x0000000008007e08                _textdata_start = LOADADDR (.data)
                0x0000000020000800                _data_start = .
 *(.data)
 *(.data.*)
 .data.linecoding
                0x0000000020000800        0x7 build/obj/serial_usb.o
 *fill*         0x0000000020000807        0x1 
 .data.pwmcfg   0x0000000020000808       0x34 build/obj/esc.o
 .data.__fdlib_version
                0x000000002000083c        0x1 /usr/local/Cellar/gcc-arm-none-eabi-49/20150609/bin/../lib/gcc/arm-none-eabi/4.9.3/../../../../arm-none-eabi/lib/armv7e-m/fpu/libm.a(lib_a-s_lib_ver.o)
                0x000000002000083c                __fdlib_version
 *fill*         0x000000002000083d        0x3 
 .data.impure_data
                0x0000000020000840      0x428 /usr/local/Cellar/gcc-arm-none-eabi-49/20150609/bin/../lib/gcc/arm-none-eabi/4.9.3/../../../../arm-none-eabi/lib/armv7e-m/fpu/libg.a(lib_a-impure.o)
 .data._impure_ptr
                0x0000000020000c68        0x4 /usr/local/Cellar/gcc-arm-none-eabi-49/20150609/bin/../lib/gcc/arm-none-eabi/4.9.3/../../../../arm-none-eabi/lib/armv7e-m/fpu/libg.a(lib_a-impure.o)
                0x0000000020000c68                _impure_ptr
 *(.ramtext)
                0x0000000020000c6c                . = ALIGN (0x4)
                0x0000000020000c6c                PROVIDE (_edata, .)
                0x0000000020000c6c                _data_end = .

.igot.plt       0x0000000020000c6c        0x0 load address 0x0000000008008274
 .igot.plt      0x0000000000000000        0x0 build/obj/crt0_v7m.o

.bss            0x0000000020000c70      0xf14 load address 0x0000000008008274
                0x0000000020000c70                . = ALIGN (0x4)
                0x0000000020000c70                _bss_start = .
 *(.bss)
 *(.bss.*)
 .bss.ch        0x0000000020000c70      0x258 build/obj/chschd.o
                0x0000000020000c70                ch
 .bss.endmem    0x0000000020000ec8        0x4 build/obj/chmemcore.o
 .bss.nextmem   0x0000000020000ecc        0x4 build/obj/chmemcore.o
 .bss.default_heap
                0x0000000020000ed0       0x20 build/obj/chheap.o
 .bss.dma_isr_redir
                0x0000000020000ef0       0x80 build/obj/stm32_dma.o
 .bss.dma_streams_mask
                0x0000000020000f70        0x4 build/obj/stm32_dma.o
 .bss.ADCD1     0x0000000020000f74       0x34 build/obj/adc_lld.o
                0x0000000020000f74                ADCD1
 .bss.ADCD2     0x0000000020000fa8       0x34 build/obj/adc_lld.o
                0x0000000020000fa8                ADCD2
 .bss.ADCD3     0x0000000020000fdc       0x34 build/obj/adc_lld.o
                0x0000000020000fdc                ADCD3
 .bss.EXTD1     0x0000000020001010        0x8 build/obj/ext_lld.o
                0x0000000020001010                EXTD1
 .bss.I2CD1     0x0000000020001018       0x38 build/obj/i2c_lld.o
                0x0000000020001018                I2CD1
 .bss.USBD1     0x0000000020001050      0x280 build/obj/usb_lld.o
                0x0000000020001050                USBD1
 .bss.ep0_state
                0x00000000200012d0       0x10 build/obj/usb_lld.o
 .bss.ep0setup_buffer
                0x00000000200012e0        0x8 build/obj/usb_lld.o
 .bss.dummytx   0x00000000200012e8        0x2 build/obj/spi_lld.o
 *fill*         0x00000000200012ea        0x2 
 .bss.SPID1     0x00000000200012ec       0x30 build/obj/spi_lld.o
                0x00000000200012ec                SPID1
 .bss.dummyrx   0x000000002000131c        0x2 build/obj/spi_lld.o
 *fill*         0x000000002000131e        0x2 
 .bss.PWMD5     0x0000000020001320       0x1c build/obj/pwm_lld.o
                0x0000000020001320                PWMD5
 .bss.ep2instate
                0x000000002000133c       0x10 build/obj/comm_usb.o
 .bss.SDU1      0x000000002000134c      0x488 build/obj/comm_usb.o
                0x000000002000134c                SDU1
 .bss.ep1instate
                0x00000000200017d4       0x10 build/obj/comm_usb.o
 .bss.ep1outstate
                0x00000000200017e4       0x10 build/obj/comm_usb.o
 .bss.RGBdata   0x00000000200017f4       0x14 build/obj/ws2812b.o
 .bss.bitbuffer
                0x0000000020001808      0x154 build/obj/ws2812b.o
 .bss.gamma_table
                0x000000002000195c      0x100 build/obj/ws2812b.o
 .bss.nrf24l01  0x0000000020001a5c      0x128 build/obj/nrf24l01.o
                0x0000000020001a5c                nrf24l01
 *(COMMON)
                0x0000000020001b84                . = ALIGN (0x4)
                0x0000000020001b84                _bss_end = .
                0x0000000020001b84                PROVIDE (end, .)

.ram0_init      0x0000000020001b84        0x0 load address 0x0000000008008274
                0x0000000020001b84                . = ALIGN (0x4)
                0x0000000008008274                __ram0_init_text__ = LOADADDR (.ram0_init)
                0x0000000020001b84                __ram0_init__ = .
 *(.ram0_init)
 *(.ram0_init.*)
                0x0000000020001b84                . = ALIGN (0x4)

.ram0           0x0000000020001b84        0x0 load address 0x0000000008008274
                0x0000000020001b84                . = ALIGN (0x4)
                0x0000000020001b84                __ram0_clear__ = .
 *(.ram0_clear)
 *(.ram0_clear.*)
                0x0000000020001b84                . = ALIGN (0x4)
                0x0000000020001b84                __ram0_noinit__ = .
 *(.ram0)
 *(.ram0.*)
                0x0000000020001b84                . = ALIGN (0x4)
                0x0000000020001b84                __ram0_free__ = .

.ram1_init      0x0000000020000000        0x0 load address 0x0000000008008274
                0x0000000020000000                . = ALIGN (0x4)
                0x0000000008008274                __ram1_init_text__ = LOADADDR (.ram1_init)
                0x0000000020000000                __ram1_init__ = .
 *(.ram1_init)
 *(.ram1_init.*)
                0x0000000020000000                . = ALIGN (0x4)

.ram1           0x0000000020000000        0x0 load address 0x0000000008008274
                0x0000000020000000                . = ALIGN (0x4)
                0x0000000020000000                __ram1_clear__ = .
 *(.ram1_clear)
 *(.ram1_clear.*)
                0x0000000020000000                . = ALIGN (0x4)
                0x0000000020000000                __ram1_noinit__ = .
 *(.ram1)
 *(.ram1.*)
                0x0000000020000000                . = ALIGN (0x4)
                0x0000000020000000                __ram1_free__ = .

.ram2_init      0x000000002001c000        0x0 load address 0x0000000008008274
                0x000000002001c000                . = ALIGN (0x4)
                0x0000000008008274                __ram2_init_text__ = LOADADDR (.ram2_init)
                0x000000002001c000                __ram2_init__ = .
 *(.ram2_init)
 *(.ram2_init.*)
                0x000000002001c000                . = ALIGN (0x4)

.ram2           0x000000002001c000        0x0 load address 0x0000000008008274
                0x000000002001c000                . = ALIGN (0x4)
                0x000000002001c000                __ram2_clear__ = .
 *(.ram2_clear)
 *(.ram2_clear.*)
                0x000000002001c000                . = ALIGN (0x4)
                0x000000002001c000                __ram2_noinit__ = .
 *(.ram2)
 *(.ram2.*)
                0x000000002001c000                . = ALIGN (0x4)
                0x000000002001c000                __ram2_free__ = .

.ram3_init      0x0000000000000000        0x0 load address 0x0000000008008274
                0x0000000000000000                . = ALIGN (0x4)
                0x0000000008008274                __ram3_init_text__ = LOADADDR (.ram3_init)
                0x0000000000000000                __ram3_init__ = .
 *(.ram3_init)
 *(.ram3_init.*)
                0x0000000000000000                . = ALIGN (0x4)

.ram3           0x0000000000000000        0x0 load address 0x0000000008008274
                0x0000000000000000                . = ALIGN (0x4)
                0x0000000000000000                __ram3_clear__ = .
 *(.ram3_clear)
 *(.ram3_clear.*)
                0x0000000000000000                . = ALIGN (0x4)
                0x0000000000000000                __ram3_noinit__ = .
 *(.ram3)
 *(.ram3.*)
                0x0000000000000000                . = ALIGN (0x4)
                0x0000000000000000                __ram3_free__ = .

.ram4_init      0x0000000000000000        0x0 load address 0x0000000008008274
                0x0000000000000000                . = ALIGN (0x4)
                0x0000000008008274                __ram4_init_text__ = LOADADDR (.ram4_init)
                0x0000000000000000                __ram4_init__ = .
 *(.ram4_init)
 *(.ram4_init.*)
                0x0000000000000000                . = ALIGN (0x4)

.ram4           0x0000000000000000        0x0 load address 0x0000000008008274
                0x0000000000000000                . = ALIGN (0x4)
                0x0000000000000000                __ram4_clear__ = .
 *(.ram4_clear)
 *(.ram4_clear.*)
                0x0000000000000000                . = ALIGN (0x4)
                0x0000000000000000                __ram4_noinit__ = .
 *(.ram4)
 *(.ram4.*)
                0x0000000000000000                . = ALIGN (0x4)
                0x0000000000000000                __ram4_free__ = .

.ram5_init      0x0000000000000000        0x0 load address 0x0000000008008274
                0x0000000000000000                . = ALIGN (0x4)
                0x0000000008008274                __ram5_init_text__ = LOADADDR (.ram5_init)
                0x0000000000000000                __ram5_init__ = .
 *(.ram5_init)
 *(.ram5_init.*)
                0x0000000000000000                . = ALIGN (0x4)

.ram5           0x0000000000000000        0x0 load address 0x0000000008008274
                0x0000000000000000                . = ALIGN (0x4)
                0x0000000000000000                __ram5_clear__ = .
 *(.ram5_clear)
 *(.ram5_clear.*)
                0x0000000000000000                . = ALIGN (0x4)
                0x0000000000000000                __ram5_noinit__ = .
 *(.ram5)
 *(.ram5.*)
                0x0000000000000000                . = ALIGN (0x4)
                0x0000000000000000                __ram5_free__ = .

.ram6_init      0x0000000000000000        0x0 load address 0x0000000008008274
                0x0000000000000000                . = ALIGN (0x4)
                0x0000000008008274                __ram6_init_text__ = LOADADDR (.ram6_init)
                0x0000000000000000                __ram6_init__ = .
 *(.ram6_init)
 *(.ram6_init.*)
                0x0000000000000000                . = ALIGN (0x4)

.ram6           0x0000000000000000        0x0 load address 0x0000000008008274
                0x0000000000000000                . = ALIGN (0x4)
                0x0000000000000000                __ram6_clear__ = .
 *(.ram6_clear)
 *(.ram6_clear.*)
                0x0000000000000000                . = ALIGN (0x4)
                0x0000000000000000                __ram6_noinit__ = .
 *(.ram6)
 *(.ram6.*)
                0x0000000000000000                . = ALIGN (0x4)
                0x0000000000000000                __ram6_free__ = .

.ram7_init      0x0000000000000000        0x0 load address 0x0000000008008274
                0x0000000000000000                . = ALIGN (0x4)
                0x0000000008008274                __ram7_init_text__ = LOADADDR (.ram7_init)
                0x0000000000000000                __ram7_init__ = .
 *(.ram7_init)
 *(.ram7_init.*)
                0x0000000000000000                . = ALIGN (0x4)

.ram7           0x0000000000000000        0x0 load address 0x0000000008008274
                0x0000000000000000                . = ALIGN (0x4)
                0x0000000000000000                __ram7_clear__ = .
 *(.ram7_clear)
 *(.ram7_clear.*)
                0x0000000000000000                . = ALIGN (0x4)
                0x0000000000000000                __ram7_noinit__ = .
 *(.ram7)
 *(.ram7.*)
                0x0000000000000000                . = ALIGN (0x4)
                0x0000000000000000                __ram7_free__ = .

.heap           0x0000000020001b84    0x1e47c
                0x0000000020001b88                . = ALIGN (0x8)
 *fill*         0x0000000020001b84        0x4 
                0x0000000020001b88                __heap_base__ = .
                0x0000000020020000                . = (ORIGIN (HEAP_RAM) + 0x20000)
 *fill*         0x0000000020001b88    0x1e478 
                0x0000000020020000                __heap_end__ = .
                0x0000000000000400                __process_stack_size__ = 0x400
                0x0000000000000400                __main_stack_size__ = 0x400
LOAD /usr/local/Cellar/gcc-arm-none-eabi-49/20150609/bin/../lib/gcc/arm-none-eabi/4.9.3/../../../../arm-none-eabi/lib/armv7e-m/fpu/libm.a
START GROUP
LOAD /usr/local/Cellar/gcc-arm-none-eabi-49/20150609/bin/../lib/gcc/arm-none-eabi/4.9.3/armv7e-m/fpu/libgcc.a
LOAD /usr/local/Cellar/gcc-arm-none-eabi-49/20150609/bin/../lib/gcc/arm-none-eabi/4.9.3/../../../../arm-none-eabi/lib/armv7e-m/fpu/libg.a
LOAD /usr/local/Cellar/gcc-arm-none-eabi-49/20150609/bin/../lib/gcc/arm-none-eabi/4.9.3/../../../../arm-none-eabi/lib/armv7e-m/fpu/libc.a
END GROUP
OUTPUT(build/Quadrotor.elf elf32-littlearm)

.ARM.attributes
                0x0000000000000000       0x35
 .ARM.attributes
                0x0000000000000000       0x25 build/obj/crt0_v7m.o
 .ARM.attributes
                0x0000000000000025       0x25 build/obj/chcoreasm_v7m.o
 .ARM.attributes
                0x000000000000004a       0x39 build/obj/crt1.o
 .ARM.attributes
                0x0000000000000083       0x39 build/obj/vectors.o
 .ARM.attributes
                0x00000000000000bc       0x39 build/obj/chsys.o
 .ARM.attributes
                0x00000000000000f5       0x39 build/obj/chvt.o
 .ARM.attributes
                0x000000000000012e       0x39 build/obj/chschd.o
 .ARM.attributes
                0x0000000000000167       0x39 build/obj/chthreads.o
 .ARM.attributes
                0x00000000000001a0       0x39 build/obj/chtm.o
 .ARM.attributes
                0x00000000000001d9       0x39 build/obj/chregistry.o
 .ARM.attributes
                0x0000000000000212       0x39 build/obj/chmtx.o
 .ARM.attributes
                0x000000000000024b       0x39 build/obj/chevents.o
 .ARM.attributes
                0x0000000000000284       0x39 build/obj/chmemcore.o
 .ARM.attributes
                0x00000000000002bd       0x39 build/obj/chheap.o
 .ARM.attributes
                0x00000000000002f6       0x39 build/obj/chcore_v7m.o
 .ARM.attributes
                0x000000000000032f       0x39 build/obj/hal.o
 .ARM.attributes
                0x0000000000000368       0x39 build/obj/st.o
 .ARM.attributes
                0x00000000000003a1       0x39 build/obj/hal_buffers.o
 .ARM.attributes
                0x00000000000003da       0x39 build/obj/adc.o
 .ARM.attributes
                0x0000000000000413       0x39 build/obj/ext.o
 .ARM.attributes
                0x000000000000044c       0x39 build/obj/i2c.o
 .ARM.attributes
                0x0000000000000485       0x39 build/obj/pwm.o
 .ARM.attributes
                0x00000000000004be       0x39 build/obj/serial_usb.o
 .ARM.attributes
                0x00000000000004f7       0x39 build/obj/spi.o
 .ARM.attributes
                0x0000000000000530       0x39 build/obj/usb.o
 .ARM.attributes
                0x0000000000000569       0x39 build/obj/nvic.o
 .ARM.attributes
                0x00000000000005a2       0x39 build/obj/hal_lld.o
 .ARM.attributes
                0x00000000000005db       0x39 build/obj/stm32_dma.o
 .ARM.attributes
                0x0000000000000614       0x39 build/obj/st_lld.o
 .ARM.attributes
                0x000000000000064d       0x39 build/obj/adc_lld.o
 .ARM.attributes
                0x0000000000000686       0x39 build/obj/ext_lld.o
 .ARM.attributes
                0x00000000000006bf       0x39 build/obj/ext_lld_isr.o
 .ARM.attributes
                0x00000000000006f8       0x39 build/obj/pal_lld.o
 .ARM.attributes
                0x0000000000000731       0x39 build/obj/i2c_lld.o
 .ARM.attributes
                0x000000000000076a       0x39 build/obj/usb_lld.o
 .ARM.attributes
                0x00000000000007a3       0x39 build/obj/spi_lld.o
 .ARM.attributes
                0x00000000000007dc       0x39 build/obj/pwm_lld.o
 .ARM.attributes
                0x0000000000000815       0x39 build/obj/board.o
 .ARM.attributes
                0x000000000000084e       0x39 build/obj/chprintf.o
 .ARM.attributes
                0x0000000000000887       0x39 build/obj/main.o
 .ARM.attributes
                0x00000000000008c0       0x39 build/obj/comm_usb.o
 .ARM.attributes
                0x00000000000008f9       0x39 build/obj/ws2812b.o
 .ARM.attributes
                0x0000000000000932       0x39 build/obj/bno055.o
 .ARM.attributes
                0x000000000000096b       0x39 build/obj/nrf24l01.o
 .ARM.attributes
                0x00000000000009a4       0x39 build/obj/esc.o
 .ARM.attributes
                0x00000000000009dd       0x39 build/obj/controller.o
 .ARM.attributes
                0x0000000000000a16       0x39 build/obj/stm32f4xx_dma.o
 .ARM.attributes
                0x0000000000000a4f       0x39 build/obj/stm32f4xx_rcc.o
 .ARM.attributes
                0x0000000000000a88       0x39 build/obj/stm32f4xx_tim.o
 .ARM.attributes
                0x0000000000000ac1       0x34 /usr/local/Cellar/gcc-arm-none-eabi-49/20150609/bin/../lib/gcc/arm-none-eabi/4.9.3/../../../../arm-none-eabi/lib/armv7e-m/fpu/libm.a(lib_a-sf_round.o)
 .ARM.attributes
                0x0000000000000af5       0x34 /usr/local/Cellar/gcc-arm-none-eabi-49/20150609/bin/../lib/gcc/arm-none-eabi/4.9.3/../../../../arm-none-eabi/lib/armv7e-m/fpu/libm.a(lib_a-wf_pow.o)
 .ARM.attributes
                0x0000000000000b29       0x34 /usr/local/Cellar/gcc-arm-none-eabi-49/20150609/bin/../lib/gcc/arm-none-eabi/4.9.3/../../../../arm-none-eabi/lib/armv7e-m/fpu/libm.a(lib_a-ef_pow.o)
 .ARM.attributes
                0x0000000000000b5d       0x34 /usr/local/Cellar/gcc-arm-none-eabi-49/20150609/bin/../lib/gcc/arm-none-eabi/4.9.3/../../../../arm-none-eabi/lib/armv7e-m/fpu/libm.a(lib_a-ef_sqrt.o)
 .ARM.attributes
                0x0000000000000b91       0x34 /usr/local/Cellar/gcc-arm-none-eabi-49/20150609/bin/../lib/gcc/arm-none-eabi/4.9.3/../../../../arm-none-eabi/lib/armv7e-m/fpu/libm.a(lib_a-s_lib_ver.o)
 .ARM.attributes
                0x0000000000000bc5       0x34 /usr/local/Cellar/gcc-arm-none-eabi-49/20150609/bin/../lib/gcc/arm-none-eabi/4.9.3/../../../../arm-none-eabi/lib/armv7e-m/fpu/libm.a(lib_a-s_matherr.o)
 .ARM.attributes
                0x0000000000000bf9       0x34 /usr/local/Cellar/gcc-arm-none-eabi-49/20150609/bin/../lib/gcc/arm-none-eabi/4.9.3/../../../../arm-none-eabi/lib/armv7e-m/fpu/libm.a(lib_a-s_rint.o)
 .ARM.attributes
                0x0000000000000c2d       0x34 /usr/local/Cellar/gcc-arm-none-eabi-49/20150609/bin/../lib/gcc/arm-none-eabi/4.9.3/../../../../arm-none-eabi/lib/armv7e-m/fpu/libm.a(lib_a-sf_fabs.o)
 .ARM.attributes
                0x0000000000000c61       0x34 /usr/local/Cellar/gcc-arm-none-eabi-49/20150609/bin/../lib/gcc/arm-none-eabi/4.9.3/../../../../arm-none-eabi/lib/armv7e-m/fpu/libm.a(lib_a-sf_finite.o)
 .ARM.attributes
                0x0000000000000c95       0x34 /usr/local/Cellar/gcc-arm-none-eabi-49/20150609/bin/../lib/gcc/arm-none-eabi/4.9.3/../../../../arm-none-eabi/lib/armv7e-m/fpu/libm.a(lib_a-sf_fpclassify.o)
 .ARM.attributes
                0x0000000000000cc9       0x34 /usr/local/Cellar/gcc-arm-none-eabi-49/20150609/bin/../lib/gcc/arm-none-eabi/4.9.3/../../../../arm-none-eabi/lib/armv7e-m/fpu/libm.a(lib_a-sf_nan.o)
 .ARM.attributes
                0x0000000000000cfd       0x34 /usr/local/Cellar/gcc-arm-none-eabi-49/20150609/bin/../lib/gcc/arm-none-eabi/4.9.3/../../../../arm-none-eabi/lib/armv7e-m/fpu/libm.a(lib_a-sf_scalbn.o)
 .ARM.attributes
                0x0000000000000d31       0x34 /usr/local/Cellar/gcc-arm-none-eabi-49/20150609/bin/../lib/gcc/arm-none-eabi/4.9.3/../../../../arm-none-eabi/lib/armv7e-m/fpu/libm.a(lib_a-sf_copysign.o)
 .ARM.attributes
                0x0000000000000d65       0x22 /usr/local/Cellar/gcc-arm-none-eabi-49/20150609/bin/../lib/gcc/arm-none-eabi/4.9.3/armv7e-m/fpu/libgcc.a(_arm_addsubdf3.o)
 .ARM.attributes
                0x0000000000000d87       0x22 /usr/local/Cellar/gcc-arm-none-eabi-49/20150609/bin/../lib/gcc/arm-none-eabi/4.9.3/armv7e-m/fpu/libgcc.a(_arm_muldivdf3.o)
 .ARM.attributes
                0x0000000000000da9       0x22 /usr/local/Cellar/gcc-arm-none-eabi-49/20150609/bin/../lib/gcc/arm-none-eabi/4.9.3/armv7e-m/fpu/libgcc.a(_arm_cmpdf2.o)
 .ARM.attributes
                0x0000000000000dcb       0x22 /usr/local/Cellar/gcc-arm-none-eabi-49/20150609/bin/../lib/gcc/arm-none-eabi/4.9.3/armv7e-m/fpu/libgcc.a(_arm_fixdfsi.o)
 .ARM.attributes
                0x0000000000000ded       0x22 /usr/local/Cellar/gcc-arm-none-eabi-49/20150609/bin/../lib/gcc/arm-none-eabi/4.9.3/armv7e-m/fpu/libgcc.a(_arm_fixunsdfsi.o)
 .ARM.attributes
                0x0000000000000e0f       0x22 /usr/local/Cellar/gcc-arm-none-eabi-49/20150609/bin/../lib/gcc/arm-none-eabi/4.9.3/armv7e-m/fpu/libgcc.a(_arm_truncdfsf2.o)
 .ARM.attributes
                0x0000000000000e31       0x34 /usr/local/Cellar/gcc-arm-none-eabi-49/20150609/bin/../lib/gcc/arm-none-eabi/4.9.3/../../../../arm-none-eabi/lib/armv7e-m/fpu/libg.a(lib_a-errno.o)
 .ARM.attributes
                0x0000000000000e65       0x34 /usr/local/Cellar/gcc-arm-none-eabi-49/20150609/bin/../lib/gcc/arm-none-eabi/4.9.3/../../../../arm-none-eabi/lib/armv7e-m/fpu/libg.a(lib_a-impure.o)
 .ARM.attributes
                0x0000000000000e99       0x20 /usr/local/Cellar/gcc-arm-none-eabi-49/20150609/bin/../lib/gcc/arm-none-eabi/4.9.3/../../../../arm-none-eabi/lib/armv7e-m/fpu/libg.a(lib_a-memcpy.o)
 .ARM.attributes
                0x0000000000000eb9       0x34 /usr/local/Cellar/gcc-arm-none-eabi-49/20150609/bin/../lib/gcc/arm-none-eabi/4.9.3/../../../../arm-none-eabi/lib/armv7e-m/fpu/libg.a(lib_a-memset.o)

.comment        0x0000000000000000       0x70
 .comment       0x0000000000000000       0x70 build/obj/crt1.o
                                         0x71 (size before relaxing)
 .comment       0x0000000000000000       0x71 build/obj/vectors.o
 .comment       0x0000000000000000       0x71 build/obj/chsys.o
 .comment       0x0000000000000000       0x71 build/obj/chvt.o
 .comment       0x0000000000000000       0x71 build/obj/chschd.o
 .comment       0x0000000000000000       0x71 build/obj/chthreads.o
 .comment       0x0000000000000000       0x71 build/obj/chtm.o
 .comment       0x0000000000000000       0x71 build/obj/chregistry.o
 .comment       0x0000000000000000       0x71 build/obj/chmtx.o
 .comment       0x0000000000000000       0x71 build/obj/chevents.o
 .comment       0x0000000000000000       0x71 build/obj/chmemcore.o
 .comment       0x0000000000000000       0x71 build/obj/chheap.o
 .comment       0x0000000000000000       0x71 build/obj/chcore_v7m.o
 .comment       0x0000000000000000       0x71 build/obj/hal.o
 .comment       0x0000000000000000       0x71 build/obj/st.o
 .comment       0x0000000000000000       0x71 build/obj/hal_buffers.o
 .comment       0x0000000000000000       0x71 build/obj/adc.o
 .comment       0x0000000000000000       0x71 build/obj/ext.o
 .comment       0x0000000000000000       0x71 build/obj/i2c.o
 .comment       0x0000000000000000       0x71 build/obj/pwm.o
 .comment       0x0000000000000000       0x71 build/obj/serial_usb.o
 .comment       0x0000000000000000       0x71 build/obj/spi.o
 .comment       0x0000000000000000       0x71 build/obj/usb.o
 .comment       0x0000000000000000       0x71 build/obj/nvic.o
 .comment       0x0000000000000000       0x71 build/obj/hal_lld.o
 .comment       0x0000000000000000       0x71 build/obj/stm32_dma.o
 .comment       0x0000000000000000       0x71 build/obj/st_lld.o
 .comment       0x0000000000000000       0x71 build/obj/adc_lld.o
 .comment       0x0000000000000000       0x71 build/obj/ext_lld.o
 .comment       0x0000000000000000       0x71 build/obj/ext_lld_isr.o
 .comment       0x0000000000000000       0x71 build/obj/pal_lld.o
 .comment       0x0000000000000000       0x71 build/obj/i2c_lld.o
 .comment       0x0000000000000000       0x71 build/obj/usb_lld.o
 .comment       0x0000000000000000       0x71 build/obj/spi_lld.o
 .comment       0x0000000000000000       0x71 build/obj/pwm_lld.o
 .comment       0x0000000000000000       0x71 build/obj/board.o
 .comment       0x0000000000000000       0x71 build/obj/chprintf.o
 .comment       0x0000000000000000       0x71 build/obj/main.o
 .comment       0x0000000000000000       0x71 build/obj/comm_usb.o
 .comment       0x0000000000000000       0x71 build/obj/ws2812b.o
 .comment       0x0000000000000000       0x71 build/obj/bno055.o
 .comment       0x0000000000000000       0x71 build/obj/nrf24l01.o
 .comment       0x0000000000000000       0x71 build/obj/esc.o
 .comment       0x0000000000000000       0x71 build/obj/controller.o
 .comment       0x0000000000000000       0x71 build/obj/stm32f4xx_dma.o
 .comment       0x0000000000000000       0x71 build/obj/stm32f4xx_rcc.o
 .comment       0x0000000000000000       0x71 build/obj/stm32f4xx_tim.o

.debug_info     0x0000000000000000    0x35d92
 .debug_info    0x0000000000000000      0x319 build/obj/crt1.o
 .debug_info    0x0000000000000319      0x1e7 build/obj/vectors.o
 .debug_info    0x0000000000000500     0x1811 build/obj/chsys.o
 .debug_info    0x0000000000001d11      0x806 build/obj/chvt.o
 .debug_info    0x0000000000002517      0xe96 build/obj/chschd.o
 .debug_info    0x00000000000033ad     0x1b6e build/obj/chthreads.o
 .debug_info    0x0000000000004f1b      0xab5 build/obj/chtm.o
 .debug_info    0x00000000000059d0      0xa65 build/obj/chregistry.o
 .debug_info    0x0000000000006435     0x10ec build/obj/chmtx.o
 .debug_info    0x0000000000007521     0x16aa build/obj/chevents.o
 .debug_info    0x0000000000008bcb      0x950 build/obj/chmemcore.o
 .debug_info    0x000000000000951b      0xab4 build/obj/chheap.o
 .debug_info    0x0000000000009fcf      0xcd0 build/obj/chcore_v7m.o
 .debug_info    0x000000000000ac9f      0x910 build/obj/hal.o
 .debug_info    0x000000000000b5af      0x9ee build/obj/st.o
 .debug_info    0x000000000000bf9d     0x1e56 build/obj/hal_buffers.o
 .debug_info    0x000000000000ddf3     0x161a build/obj/adc.o
 .debug_info    0x000000000000f40d      0xdef build/obj/ext.o
 .debug_info    0x00000000000101fc     0x1242 build/obj/i2c.o
 .debug_info    0x000000000001143e     0x14b5 build/obj/pwm.o
 .debug_info    0x00000000000128f3     0x25c5 build/obj/serial_usb.o
 .debug_info    0x0000000000014eb8     0x1bc9 build/obj/spi.o
 .debug_info    0x0000000000016a81     0x2491 build/obj/usb.o
 .debug_info    0x0000000000018f12      0xac6 build/obj/nvic.o
 .debug_info    0x00000000000199d8      0xa1e build/obj/hal_lld.o
 .debug_info    0x000000000001a3f6      0xef1 build/obj/stm32_dma.o
 .debug_info    0x000000000001b2e7      0x935 build/obj/st_lld.o
 .debug_info    0x000000000001bc1c     0x1797 build/obj/adc_lld.o
 .debug_info    0x000000000001d3b3      0xac8 build/obj/ext_lld.o
 .debug_info    0x000000000001de7b     0x1100 build/obj/ext_lld_isr.o
 .debug_info    0x000000000001ef7b      0xd72 build/obj/pal_lld.o
 .debug_info    0x000000000001fced     0x1e71 build/obj/i2c_lld.o
 .debug_info    0x0000000000021b5e     0x2df6 build/obj/usb_lld.o
 .debug_info    0x0000000000024954     0x12ac build/obj/spi_lld.o
 .debug_info    0x0000000000025c00      0xf22 build/obj/pwm_lld.o
 .debug_info    0x0000000000026b22      0x873 build/obj/board.o
 .debug_info    0x0000000000027395      0xdf5 build/obj/chprintf.o
 .debug_info    0x000000000002818a     0x1b47 build/obj/main.o
 .debug_info    0x0000000000029cd1     0x1da5 build/obj/comm_usb.o
 .debug_info    0x000000000002ba76     0x1126 build/obj/ws2812b.o
 .debug_info    0x000000000002cb9c     0x11b4 build/obj/bno055.o
 .debug_info    0x000000000002dd50     0x2fb5 build/obj/nrf24l01.o
 .debug_info    0x0000000000030d05      0xd64 build/obj/esc.o
 .debug_info    0x0000000000031a69      0x7cf build/obj/controller.o
 .debug_info    0x0000000000032238      0x73a build/obj/stm32f4xx_dma.o
 .debug_info    0x0000000000032972     0x101a build/obj/stm32f4xx_rcc.o
 .debug_info    0x000000000003398c     0x2406 build/obj/stm32f4xx_tim.o

.debug_abbrev   0x0000000000000000     0x86c1
 .debug_abbrev  0x0000000000000000       0xf7 build/obj/crt1.o
 .debug_abbrev  0x00000000000000f7       0xc7 build/obj/vectors.o
 .debug_abbrev  0x00000000000001be      0x4e9 build/obj/chsys.o
 .debug_abbrev  0x00000000000006a7      0x1b1 build/obj/chvt.o
 .debug_abbrev  0x0000000000000858      0x3de build/obj/chschd.o
 .debug_abbrev  0x0000000000000c36      0x475 build/obj/chthreads.o
 .debug_abbrev  0x00000000000010ab      0x277 build/obj/chtm.o
 .debug_abbrev  0x0000000000001322      0x238 build/obj/chregistry.o
 .debug_abbrev  0x000000000000155a      0x3d2 build/obj/chmtx.o
 .debug_abbrev  0x000000000000192c      0x3b8 build/obj/chevents.o
 .debug_abbrev  0x0000000000001ce4      0x282 build/obj/chmemcore.o
 .debug_abbrev  0x0000000000001f66      0x292 build/obj/chheap.o
 .debug_abbrev  0x00000000000021f8      0x231 build/obj/chcore_v7m.o
 .debug_abbrev  0x0000000000002429      0x1ba build/obj/hal.o
 .debug_abbrev  0x00000000000025e3      0x217 build/obj/st.o
 .debug_abbrev  0x00000000000027fa      0x497 build/obj/hal_buffers.o
 .debug_abbrev  0x0000000000002c91      0x393 build/obj/adc.o
 .debug_abbrev  0x0000000000003024      0x28c build/obj/ext.o
 .debug_abbrev  0x00000000000032b0      0x345 build/obj/i2c.o
 .debug_abbrev  0x00000000000035f5      0x2d2 build/obj/pwm.o
 .debug_abbrev  0x00000000000038c7      0x528 build/obj/serial_usb.o
 .debug_abbrev  0x0000000000003def      0x36c build/obj/spi.o
 .debug_abbrev  0x000000000000415b      0x40d build/obj/usb.o
 .debug_abbrev  0x0000000000004568      0x1ba build/obj/nvic.o
 .debug_abbrev  0x0000000000004722      0x1c3 build/obj/hal_lld.o
 .debug_abbrev  0x00000000000048e5      0x262 build/obj/stm32_dma.o
 .debug_abbrev  0x0000000000004b47      0x222 build/obj/st_lld.o
 .debug_abbrev  0x0000000000004d69      0x3ba build/obj/adc_lld.o
 .debug_abbrev  0x0000000000005123      0x21f build/obj/ext_lld.o
 .debug_abbrev  0x0000000000005342      0x23a build/obj/ext_lld_isr.o
 .debug_abbrev  0x000000000000557c      0x20c build/obj/pal_lld.o
 .debug_abbrev  0x0000000000005788      0x40e build/obj/i2c_lld.o
 .debug_abbrev  0x0000000000005b96      0x4ca build/obj/usb_lld.o
 .debug_abbrev  0x0000000000006060      0x36c build/obj/spi_lld.o
 .debug_abbrev  0x00000000000063cc      0x265 build/obj/pwm_lld.o
 .debug_abbrev  0x0000000000006631      0x1a5 build/obj/board.o
 .debug_abbrev  0x00000000000067d6      0x33a build/obj/chprintf.o
 .debug_abbrev  0x0000000000006b10      0x2e8 build/obj/main.o
 .debug_abbrev  0x0000000000006df8      0x3ac build/obj/comm_usb.o
 .debug_abbrev  0x00000000000071a4      0x2df build/obj/ws2812b.o
 .debug_abbrev  0x0000000000007483      0x2de build/obj/bno055.o
 .debug_abbrev  0x0000000000007761      0x539 build/obj/nrf24l01.o
 .debug_abbrev  0x0000000000007c9a      0x238 build/obj/esc.o
 .debug_abbrev  0x0000000000007ed2      0x189 build/obj/controller.o
 .debug_abbrev  0x000000000000805b      0x175 build/obj/stm32f4xx_dma.o
 .debug_abbrev  0x00000000000081d0      0x260 build/obj/stm32f4xx_rcc.o
 .debug_abbrev  0x0000000000008430      0x291 build/obj/stm32f4xx_tim.o

.debug_loc      0x0000000000000000     0xe3a0
 .debug_loc     0x0000000000000000       0x90 build/obj/crt1.o
 .debug_loc     0x0000000000000090      0x303 build/obj/chsys.o
 .debug_loc     0x0000000000000393       0x9f build/obj/chvt.o
 .debug_loc     0x0000000000000432      0x371 build/obj/chschd.o
 .debug_loc     0x00000000000007a3      0xa5a build/obj/chthreads.o
 .debug_loc     0x00000000000011fd       0xa1 build/obj/chtm.o
 .debug_loc     0x000000000000129e       0x3f build/obj/chregistry.o
 .debug_loc     0x00000000000012dd      0x5d6 build/obj/chmtx.o
 .debug_loc     0x00000000000018b3      0x61d build/obj/chevents.o
 .debug_loc     0x0000000000001ed0       0xb0 build/obj/chmemcore.o
 .debug_loc     0x0000000000001f80      0x387 build/obj/chheap.o
 .debug_loc     0x0000000000002307       0xc7 build/obj/chcore_v7m.o
 .debug_loc     0x00000000000023ce      0xb0f build/obj/hal_buffers.o
 .debug_loc     0x0000000000002edd      0x4e5 build/obj/adc.o
 .debug_loc     0x00000000000033c2      0x1c2 build/obj/ext.o
 .debug_loc     0x0000000000003584      0x29a build/obj/i2c.o
 .debug_loc     0x000000000000381e      0x1e7 build/obj/pwm.o
 .debug_loc     0x0000000000003a05      0x9ba build/obj/serial_usb.o
 .debug_loc     0x00000000000043bf      0x4cd build/obj/spi.o
 .debug_loc     0x000000000000488c      0xb0a build/obj/usb.o
 .debug_loc     0x0000000000005396       0xee build/obj/nvic.o
 .debug_loc     0x0000000000005484      0x276 build/obj/stm32_dma.o
 .debug_loc     0x00000000000056fa      0x49e build/obj/adc_lld.o
 .debug_loc     0x0000000000005b98      0x265 build/obj/ext_lld.o
 .debug_loc     0x0000000000005dfd      0x276 build/obj/ext_lld_isr.o
 .debug_loc     0x0000000000006073      0x217 build/obj/pal_lld.o
 .debug_loc     0x000000000000628a      0xaa9 build/obj/i2c_lld.o
 .debug_loc     0x0000000000006d33     0x10c1 build/obj/usb_lld.o
 .debug_loc     0x0000000000007df4      0x2ab build/obj/spi_lld.o
 .debug_loc     0x000000000000809f      0x216 build/obj/pwm_lld.o
 .debug_loc     0x00000000000082b5      0xa85 build/obj/chprintf.o
 .debug_loc     0x0000000000008d3a       0x9c build/obj/main.o
 .debug_loc     0x0000000000008dd6      0x15e build/obj/comm_usb.o
 .debug_loc     0x0000000000008f34      0x3c0 build/obj/ws2812b.o
 .debug_loc     0x00000000000092f4      0x38f build/obj/bno055.o
 .debug_loc     0x0000000000009683     0x15be build/obj/nrf24l01.o
 .debug_loc     0x000000000000ac41       0xca build/obj/esc.o
 .debug_loc     0x000000000000ad0b      0x480 build/obj/stm32f4xx_dma.o
 .debug_loc     0x000000000000b18b      0xe7a build/obj/stm32f4xx_rcc.o
 .debug_loc     0x000000000000c005     0x239b build/obj/stm32f4xx_tim.o

.debug_aranges  0x0000000000000000     0x15e8
 .debug_aranges
                0x0000000000000000       0x40 build/obj/crt1.o
 .debug_aranges
                0x0000000000000040       0x20 build/obj/vectors.o
 .debug_aranges
                0x0000000000000060       0x60 build/obj/chsys.o
 .debug_aranges
                0x00000000000000c0       0x30 build/obj/chvt.o
 .debug_aranges
                0x00000000000000f0       0x70 build/obj/chschd.o
 .debug_aranges
                0x0000000000000160       0xc0 build/obj/chthreads.o
 .debug_aranges
                0x0000000000000220       0x40 build/obj/chtm.o
 .debug_aranges
                0x0000000000000260       0x28 build/obj/chregistry.o
 .debug_aranges
                0x0000000000000288       0x58 build/obj/chmtx.o
 .debug_aranges
                0x00000000000002e0       0xa0 build/obj/chevents.o
 .debug_aranges
                0x0000000000000380       0x38 build/obj/chmemcore.o
 .debug_aranges
                0x00000000000003b8       0x40 build/obj/chheap.o
 .debug_aranges
                0x00000000000003f8       0x28 build/obj/chcore_v7m.o
 .debug_aranges
                0x0000000000000420       0x20 build/obj/hal.o
 .debug_aranges
                0x0000000000000440       0x40 build/obj/st.o
 .debug_aranges
                0x0000000000000480       0xc8 build/obj/hal_buffers.o
 .debug_aranges
                0x0000000000000548       0x70 build/obj/adc.o
 .debug_aranges
                0x00000000000005b8       0x50 build/obj/ext.o
 .debug_aranges
                0x0000000000000608       0x60 build/obj/i2c.o
 .debug_aranges
                0x0000000000000668       0x70 build/obj/pwm.o
 .debug_aranges
                0x00000000000006d8       0xc0 build/obj/serial_usb.o
 .debug_aranges
                0x0000000000000798       0x98 build/obj/spi.o
 .debug_aranges
                0x0000000000000830       0x98 build/obj/usb.o
 .debug_aranges
                0x00000000000008c8       0x38 build/obj/nvic.o
 .debug_aranges
                0x0000000000000900       0x28 build/obj/hal_lld.o
 .debug_aranges
                0x0000000000000928       0xb0 build/obj/stm32_dma.o
 .debug_aranges
                0x00000000000009d8       0x28 build/obj/st_lld.o
 .debug_aranges
                0x0000000000000a00       0x70 build/obj/adc_lld.o
 .debug_aranges
                0x0000000000000a70       0x40 build/obj/ext_lld.o
 .debug_aranges
                0x0000000000000ab0       0x90 build/obj/ext_lld_isr.o
 .debug_aranges
                0x0000000000000b40       0x28 build/obj/pal_lld.o
 .debug_aranges
                0x0000000000000b68       0x60 build/obj/i2c_lld.o
 .debug_aranges
                0x0000000000000bc8       0xb8 build/obj/usb_lld.o
 .debug_aranges
                0x0000000000000c80       0x78 build/obj/spi_lld.o
 .debug_aranges
                0x0000000000000cf8       0x70 build/obj/pwm_lld.o
 .debug_aranges
                0x0000000000000d68       0x28 build/obj/board.o
 .debug_aranges
                0x0000000000000d90       0x38 build/obj/chprintf.o
 .debug_aranges
                0x0000000000000dc8       0x20 build/obj/main.o
 .debug_aranges
                0x0000000000000de8       0x40 build/obj/comm_usb.o
 .debug_aranges
                0x0000000000000e28       0x40 build/obj/ws2812b.o
 .debug_aranges
                0x0000000000000e68       0x50 build/obj/bno055.o
 .debug_aranges
                0x0000000000000eb8      0x170 build/obj/nrf24l01.o
 .debug_aranges
                0x0000000000001028       0x30 build/obj/esc.o
 .debug_aranges
                0x0000000000001058       0x20 build/obj/controller.o
 .debug_aranges
                0x0000000000001078       0xb0 build/obj/stm32f4xx_dma.o
 .debug_aranges
                0x0000000000001128      0x1e8 build/obj/stm32f4xx_rcc.o
 .debug_aranges
                0x0000000000001310      0x2d8 build/obj/stm32f4xx_tim.o

.debug_ranges   0x0000000000000000     0x2518
 .debug_ranges  0x0000000000000000       0x30 build/obj/crt1.o
 .debug_ranges  0x0000000000000030       0x10 build/obj/vectors.o
 .debug_ranges  0x0000000000000040      0x148 build/obj/chsys.o
 .debug_ranges  0x0000000000000188       0x20 build/obj/chvt.o
 .debug_ranges  0x00000000000001a8      0x1c0 build/obj/chschd.o
 .debug_ranges  0x0000000000000368      0x218 build/obj/chthreads.o
 .debug_ranges  0x0000000000000580       0xb0 build/obj/chtm.o
 .debug_ranges  0x0000000000000630       0x18 build/obj/chregistry.o
 .debug_ranges  0x0000000000000648      0x1a0 build/obj/chmtx.o
 .debug_ranges  0x00000000000007e8       0xd8 build/obj/chevents.o
 .debug_ranges  0x00000000000008c0       0x28 build/obj/chmemcore.o
 .debug_ranges  0x00000000000008e8       0x30 build/obj/chheap.o
 .debug_ranges  0x0000000000000918       0x18 build/obj/chcore_v7m.o
 .debug_ranges  0x0000000000000930       0x10 build/obj/hal.o
 .debug_ranges  0x0000000000000940       0x30 build/obj/st.o
 .debug_ranges  0x0000000000000970      0x320 build/obj/hal_buffers.o
 .debug_ranges  0x0000000000000c90       0xc0 build/obj/adc.o
 .debug_ranges  0x0000000000000d50       0x70 build/obj/ext.o
 .debug_ranges  0x0000000000000dc0       0x80 build/obj/i2c.o
 .debug_ranges  0x0000000000000e40       0x90 build/obj/pwm.o
 .debug_ranges  0x0000000000000ed0       0xf8 build/obj/serial_usb.o
 .debug_ranges  0x0000000000000fc8      0x100 build/obj/spi.o
 .debug_ranges  0x00000000000010c8       0xa0 build/obj/usb.o
 .debug_ranges  0x0000000000001168       0x28 build/obj/nvic.o
 .debug_ranges  0x0000000000001190       0x38 build/obj/hal_lld.o
 .debug_ranges  0x00000000000011c8       0xa0 build/obj/stm32_dma.o
 .debug_ranges  0x0000000000001268       0x18 build/obj/st_lld.o
 .debug_ranges  0x0000000000001280       0x78 build/obj/adc_lld.o
 .debug_ranges  0x00000000000012f8       0x30 build/obj/ext_lld.o
 .debug_ranges  0x0000000000001328       0x80 build/obj/ext_lld_isr.o
 .debug_ranges  0x00000000000013a8      0x100 build/obj/pal_lld.o
 .debug_ranges  0x00000000000014a8      0x1d8 build/obj/i2c_lld.o
 .debug_ranges  0x0000000000001680      0x330 build/obj/usb_lld.o
 .debug_ranges  0x00000000000019b0       0x68 build/obj/spi_lld.o
 .debug_ranges  0x0000000000001a18       0x60 build/obj/pwm_lld.o
 .debug_ranges  0x0000000000001a78       0x18 build/obj/board.o
 .debug_ranges  0x0000000000001a90       0x58 build/obj/chprintf.o
 .debug_ranges  0x0000000000001ae8       0x10 build/obj/main.o
 .debug_ranges  0x0000000000001af8       0x30 build/obj/comm_usb.o
 .debug_ranges  0x0000000000001b28       0x68 build/obj/ws2812b.o
 .debug_ranges  0x0000000000001b90       0x40 build/obj/bno055.o
 .debug_ranges  0x0000000000001bd0      0x320 build/obj/nrf24l01.o
 .debug_ranges  0x0000000000001ef0       0x20 build/obj/esc.o
 .debug_ranges  0x0000000000001f10       0x10 build/obj/controller.o
 .debug_ranges  0x0000000000001f20       0xa0 build/obj/stm32f4xx_dma.o
 .debug_ranges  0x0000000000001fc0      0x1f8 build/obj/stm32f4xx_rcc.o
 .debug_ranges  0x00000000000021b8      0x360 build/obj/stm32f4xx_tim.o

.debug_line     0x0000000000000000     0xd97b
 .debug_line    0x0000000000000000      0x1ab build/obj/crt1.o
 .debug_line    0x00000000000001ab      0x16a build/obj/vectors.o
 .debug_line    0x0000000000000315      0x521 build/obj/chsys.o
 .debug_line    0x0000000000000836      0x26d build/obj/chvt.o
 .debug_line    0x0000000000000aa3      0x516 build/obj/chschd.o
 .debug_line    0x0000000000000fb9      0x700 build/obj/chthreads.o
 .debug_line    0x00000000000016b9      0x2e0 build/obj/chtm.o
 .debug_line    0x0000000000001999      0x2f6 build/obj/chregistry.o
 .debug_line    0x0000000000001c8f      0x48c build/obj/chmtx.o
 .debug_line    0x000000000000211b      0x51e build/obj/chevents.o
 .debug_line    0x0000000000002639      0x2ee build/obj/chmemcore.o
 .debug_line    0x0000000000002927      0x357 build/obj/chheap.o
 .debug_line    0x0000000000002c7e      0x26f build/obj/chcore_v7m.o
 .debug_line    0x0000000000002eed      0x33c build/obj/hal.o
 .debug_line    0x0000000000003229      0x2b8 build/obj/st.o
 .debug_line    0x00000000000034e1      0x7ec build/obj/hal_buffers.o
 .debug_line    0x0000000000003ccd      0x51d build/obj/adc.o
 .debug_line    0x00000000000041ea      0x387 build/obj/ext.o
 .debug_line    0x0000000000004571      0x4a1 build/obj/i2c.o
 .debug_line    0x0000000000004a12      0x42b build/obj/pwm.o
 .debug_line    0x0000000000004e3d      0x5ec build/obj/serial_usb.o
 .debug_line    0x0000000000005429      0x607 build/obj/spi.o
 .debug_line    0x0000000000005a30      0x66e build/obj/usb.o
 .debug_line    0x000000000000609e      0x266 build/obj/nvic.o
 .debug_line    0x0000000000006304      0x373 build/obj/hal_lld.o
 .debug_line    0x0000000000006677      0x532 build/obj/stm32_dma.o
 .debug_line    0x0000000000006ba9      0x2cd build/obj/st_lld.o
 .debug_line    0x0000000000006e76      0x6a6 build/obj/adc_lld.o
 .debug_line    0x000000000000751c      0x3c6 build/obj/ext_lld.o
 .debug_line    0x00000000000078e2      0x47e build/obj/ext_lld_isr.o
 .debug_line    0x0000000000007d60      0x314 build/obj/pal_lld.o
 .debug_line    0x0000000000008074      0x6fb build/obj/i2c_lld.o
 .debug_line    0x000000000000876f      0x95d build/obj/usb_lld.o
 .debug_line    0x00000000000090cc      0x591 build/obj/spi_lld.o
 .debug_line    0x000000000000965d      0x4a6 build/obj/pwm_lld.o
 .debug_line    0x0000000000009b03      0x2e1 build/obj/board.o
 .debug_line    0x0000000000009de4      0x427 build/obj/chprintf.o
 .debug_line    0x000000000000a20b      0x4ad build/obj/main.o
 .debug_line    0x000000000000a6b8      0x413 build/obj/comm_usb.o
 .debug_line    0x000000000000aacb      0x4c8 build/obj/ws2812b.o
 .debug_line    0x000000000000af93      0x452 build/obj/bno055.o
 .debug_line    0x000000000000b3e5      0x942 build/obj/nrf24l01.o
 .debug_line    0x000000000000bd27      0x341 build/obj/esc.o
 .debug_line    0x000000000000c068      0x20a build/obj/controller.o
 .debug_line    0x000000000000c272      0x422 build/obj/stm32f4xx_dma.o
 .debug_line    0x000000000000c694      0x6db build/obj/stm32f4xx_rcc.o
 .debug_line    0x000000000000cd6f      0xc0c build/obj/stm32f4xx_tim.o

.debug_str      0x0000000000000000     0x6295
 .debug_str     0x0000000000000000      0x482 build/obj/crt1.o
                                        0x4db (size before relaxing)
 .debug_str     0x0000000000000482      0x160 build/obj/vectors.o
                                        0x378 (size before relaxing)
 .debug_str     0x00000000000005e2      0xe10 build/obj/chsys.o
                                       0x10a1 (size before relaxing)
 .debug_str     0x00000000000013f2       0x45 build/obj/chvt.o
                                        0x5df (size before relaxing)
 .debug_str     0x0000000000001437      0x139 build/obj/chschd.o
                                        0x78c (size before relaxing)
 .debug_str     0x0000000000001570      0x220 build/obj/chthreads.o
                                        0x8c8 (size before relaxing)
 .debug_str     0x0000000000001790       0xc2 build/obj/chtm.o
                                        0x71d (size before relaxing)
 .debug_str     0x0000000000001852       0x47 build/obj/chregistry.o
                                        0x729 (size before relaxing)
 .debug_str     0x0000000000001899       0xaf build/obj/chmtx.o
                                        0x6ed (size before relaxing)
 .debug_str     0x0000000000001948      0x1f6 build/obj/chevents.o
                                        0x81a (size before relaxing)
 .debug_str     0x0000000000001b3e       0x79 build/obj/chmemcore.o
                                        0x65b (size before relaxing)
 .debug_str     0x0000000000001bb7       0xbb build/obj/chheap.o
                                        0x693 (size before relaxing)
 .debug_str     0x0000000000001c72       0xd1 build/obj/chcore_v7m.o
                                        0x72a (size before relaxing)
 .debug_str     0x0000000000001d43      0x122 build/obj/hal.o
                                        0x6aa (size before relaxing)
 .debug_str     0x0000000000001e65       0xe5 build/obj/st.o
                                        0x682 (size before relaxing)
 .debug_str     0x0000000000001f4a      0x30f build/obj/hal_buffers.o
                                        0x964 (size before relaxing)
 .debug_str     0x0000000000002259      0x365 build/obj/adc.o
                                        0x9ea (size before relaxing)
 .debug_str     0x00000000000025be      0x147 build/obj/ext.o
                                        0x75d (size before relaxing)
 .debug_str     0x0000000000002705      0x283 build/obj/i2c.o
                                        0x969 (size before relaxing)
 .debug_str     0x0000000000002988      0x287 build/obj/pwm.o
                                        0x8e7 (size before relaxing)
 .debug_str     0x0000000000002c0f      0x840 build/obj/serial_usb.o
                                       0x10fe (size before relaxing)
 .debug_str     0x000000000000344f      0x244 build/obj/spi.o
                                        0x979 (size before relaxing)
 .debug_str     0x0000000000003693      0x286 build/obj/usb.o
                                        0xf84 (size before relaxing)
 .debug_str     0x0000000000003919       0x82 build/obj/nvic.o
                                        0x6d7 (size before relaxing)
 .debug_str     0x000000000000399b      0x189 build/obj/hal_lld.o
                                        0x76b (size before relaxing)
 .debug_str     0x0000000000003b24      0x179 build/obj/stm32_dma.o
                                        0x8ea (size before relaxing)
 .debug_str     0x0000000000003c9d       0x71 build/obj/st_lld.o
                                        0x6eb (size before relaxing)
 .debug_str     0x0000000000003d0e       0xe5 build/obj/adc_lld.o
                                        0xb64 (size before relaxing)
 .debug_str     0x0000000000003df3       0xbd build/obj/ext_lld.o
                                        0x761 (size before relaxing)
 .debug_str     0x0000000000003eb0       0xb0 build/obj/ext_lld_isr.o
                                        0xc76 (size before relaxing)
 .debug_str     0x0000000000003f60       0x80 build/obj/pal_lld.o
                                        0x828 (size before relaxing)
 .debug_str     0x0000000000003fe0      0x157 build/obj/i2c_lld.o
                                       0x11b1 (size before relaxing)
 .debug_str     0x0000000000004137      0x1e8 build/obj/usb_lld.o
                                       0x1235 (size before relaxing)
 .debug_str     0x000000000000431f       0xa0 build/obj/spi_lld.o
                                        0xac8 (size before relaxing)
 .debug_str     0x00000000000043bf       0x5e build/obj/pwm_lld.o
                                        0x96a (size before relaxing)
 .debug_str     0x000000000000441d        0xe build/obj/board.o
                                        0x652 (size before relaxing)
 .debug_str     0x000000000000442b      0x156 build/obj/chprintf.o
                                        0x719 (size before relaxing)
 .debug_str     0x0000000000004581      0x12c build/obj/main.o
                                        0xfa1 (size before relaxing)
 .debug_str     0x00000000000046ad      0x137 build/obj/comm_usb.o
                                       0x108d (size before relaxing)
 .debug_str     0x00000000000047e4      0x35a build/obj/ws2812b.o
                                        0xa35 (size before relaxing)
 .debug_str     0x0000000000004b3e       0x4d build/obj/bno055.o
                                        0x90f (size before relaxing)
 .debug_str     0x0000000000004b8b      0x3a4 build/obj/nrf24l01.o
                                        0xdb3 (size before relaxing)
 .debug_str     0x0000000000004f2f       0x1d build/obj/esc.o
                                        0x794 (size before relaxing)
 .debug_str     0x0000000000004f4c       0x22 build/obj/controller.o
                                        0x5dd (size before relaxing)
 .debug_str     0x0000000000004f6e      0x23a build/obj/stm32f4xx_dma.o
                                        0x606 (size before relaxing)
 .debug_str     0x00000000000051a8      0x75c build/obj/stm32f4xx_rcc.o
                                        0xb55 (size before relaxing)
 .debug_str     0x0000000000005904      0x991 build/obj/stm32f4xx_tim.o
                                        0xe27 (size before relaxing)

.debug_frame    0x0000000000000000     0x417c
 .debug_frame   0x0000000000000000       0x7c build/obj/crt1.o
 .debug_frame   0x000000000000007c       0x20 build/obj/vectors.o
 .debug_frame   0x000000000000009c       0xfc build/obj/chsys.o
 .debug_frame   0x0000000000000198       0x68 build/obj/chvt.o
 .debug_frame   0x0000000000000200      0x164 build/obj/chschd.o
 .debug_frame   0x0000000000000364      0x274 build/obj/chthreads.o
 .debug_frame   0x00000000000005d8       0xac build/obj/chtm.o
 .debug_frame   0x0000000000000684       0x3c build/obj/chregistry.o
 .debug_frame   0x00000000000006c0       0xf8 build/obj/chmtx.o
 .debug_frame   0x00000000000007b8      0x1d0 build/obj/chevents.o
 .debug_frame   0x0000000000000988       0x68 build/obj/chmemcore.o
 .debug_frame   0x00000000000009f0       0xc0 build/obj/chheap.o
 .debug_frame   0x0000000000000ab0       0x3c build/obj/chcore_v7m.o
 .debug_frame   0x0000000000000aec       0x30 build/obj/hal.o
 .debug_frame   0x0000000000000b1c       0x60 build/obj/st.o
 .debug_frame   0x0000000000000b7c      0x2e8 build/obj/hal_buffers.o
 .debug_frame   0x0000000000000e64      0x128 build/obj/adc.o
 .debug_frame   0x0000000000000f8c       0xc0 build/obj/ext.o
 .debug_frame   0x000000000000104c       0xe8 build/obj/i2c.o
 .debug_frame   0x0000000000001134      0x128 build/obj/pwm.o
 .debug_frame   0x000000000000125c      0x238 build/obj/serial_usb.o
 .debug_frame   0x0000000000001494      0x1a8 build/obj/spi.o
 .debug_frame   0x000000000000163c      0x208 build/obj/usb.o
 .debug_frame   0x0000000000001844       0x68 build/obj/nvic.o
 .debug_frame   0x00000000000018ac       0x3c build/obj/hal_lld.o
 .debug_frame   0x00000000000018e8      0x274 build/obj/stm32_dma.o
 .debug_frame   0x0000000000001b5c       0x40 build/obj/st_lld.o
 .debug_frame   0x0000000000001b9c      0x180 build/obj/adc_lld.o
 .debug_frame   0x0000000000001d1c       0x90 build/obj/ext_lld.o
 .debug_frame   0x0000000000001dac      0x1f8 build/obj/ext_lld_isr.o
 .debug_frame   0x0000000000001fa4       0x68 build/obj/pal_lld.o
 .debug_frame   0x000000000000200c      0x1d0 build/obj/i2c_lld.o
 .debug_frame   0x00000000000021dc      0x2d4 build/obj/usb_lld.o
 .debug_frame   0x00000000000024b0      0x168 build/obj/spi_lld.o
 .debug_frame   0x0000000000002618      0x120 build/obj/pwm_lld.o
 .debug_frame   0x0000000000002738       0x30 build/obj/board.o
 .debug_frame   0x0000000000002768      0x114 build/obj/chprintf.o
 .debug_frame   0x000000000000287c       0x38 build/obj/main.o
 .debug_frame   0x00000000000028b4       0x8c build/obj/comm_usb.o
 .debug_frame   0x0000000000002940       0xc0 build/obj/ws2812b.o
 .debug_frame   0x0000000000002a00      0x11c build/obj/bno055.o
 .debug_frame   0x0000000000002b1c      0x58c build/obj/nrf24l01.o
 .debug_frame   0x00000000000030a8       0x80 build/obj/esc.o
 .debug_frame   0x0000000000003128       0x2c build/obj/controller.o
 .debug_frame   0x0000000000003154      0x1d0 build/obj/stm32f4xx_dma.o
 .debug_frame   0x0000000000003324      0x400 build/obj/stm32f4xx_rcc.o
 .debug_frame   0x0000000000003724      0x770 build/obj/stm32f4xx_tim.o
 .debug_frame   0x0000000000003e94       0x38 /usr/local/Cellar/gcc-arm-none-eabi-49/20150609/bin/../lib/gcc/arm-none-eabi/4.9.3/../../../../arm-none-eabi/lib/armv7e-m/fpu/libm.a(lib_a-sf_round.o)
 .debug_frame   0x0000000000003ecc       0x64 /usr/local/Cellar/gcc-arm-none-eabi-49/20150609/bin/../lib/gcc/arm-none-eabi/4.9.3/../../../../arm-none-eabi/lib/armv7e-m/fpu/libm.a(lib_a-wf_pow.o)
 .debug_frame   0x0000000000003f30       0x7c /usr/local/Cellar/gcc-arm-none-eabi-49/20150609/bin/../lib/gcc/arm-none-eabi/4.9.3/../../../../arm-none-eabi/lib/armv7e-m/fpu/libm.a(lib_a-ef_pow.o)
 .debug_frame   0x0000000000003fac       0x3c /usr/local/Cellar/gcc-arm-none-eabi-49/20150609/bin/../lib/gcc/arm-none-eabi/4.9.3/../../../../arm-none-eabi/lib/armv7e-m/fpu/libm.a(lib_a-ef_sqrt.o)
 .debug_frame   0x0000000000003fe8       0x20 /usr/local/Cellar/gcc-arm-none-eabi-49/20150609/bin/../lib/gcc/arm-none-eabi/4.9.3/../../../../arm-none-eabi/lib/armv7e-m/fpu/libm.a(lib_a-s_matherr.o)
 .debug_frame   0x0000000000004008       0x3c /usr/local/Cellar/gcc-arm-none-eabi-49/20150609/bin/../lib/gcc/arm-none-eabi/4.9.3/../../../../arm-none-eabi/lib/armv7e-m/fpu/libm.a(lib_a-s_rint.o)
 .debug_frame   0x0000000000004044       0x20 /usr/local/Cellar/gcc-arm-none-eabi-49/20150609/bin/../lib/gcc/arm-none-eabi/4.9.3/../../../../arm-none-eabi/lib/armv7e-m/fpu/libm.a(lib_a-sf_fabs.o)
 .debug_frame   0x0000000000004064       0x20 /usr/local/Cellar/gcc-arm-none-eabi-49/20150609/bin/../lib/gcc/arm-none-eabi/4.9.3/../../../../arm-none-eabi/lib/armv7e-m/fpu/libm.a(lib_a-sf_finite.o)
 .debug_frame   0x0000000000004084       0x20 /usr/local/Cellar/gcc-arm-none-eabi-49/20150609/bin/../lib/gcc/arm-none-eabi/4.9.3/../../../../arm-none-eabi/lib/armv7e-m/fpu/libm.a(lib_a-sf_fpclassify.o)
 .debug_frame   0x00000000000040a4       0x20 /usr/local/Cellar/gcc-arm-none-eabi-49/20150609/bin/../lib/gcc/arm-none-eabi/4.9.3/../../../../arm-none-eabi/lib/armv7e-m/fpu/libm.a(lib_a-sf_nan.o)
 .debug_frame   0x00000000000040c4       0x44 /usr/local/Cellar/gcc-arm-none-eabi-49/20150609/bin/../lib/gcc/arm-none-eabi/4.9.3/../../../../arm-none-eabi/lib/armv7e-m/fpu/libm.a(lib_a-sf_scalbn.o)
 .debug_frame   0x0000000000004108       0x20 /usr/local/Cellar/gcc-arm-none-eabi-49/20150609/bin/../lib/gcc/arm-none-eabi/4.9.3/../../../../arm-none-eabi/lib/armv7e-m/fpu/libm.a(lib_a-sf_copysign.o)
 .debug_frame   0x0000000000004128       0x20 /usr/local/Cellar/gcc-arm-none-eabi-49/20150609/bin/../lib/gcc/arm-none-eabi/4.9.3/../../../../arm-none-eabi/lib/armv7e-m/fpu/libg.a(lib_a-errno.o)
 .debug_frame   0x0000000000004148       0x34 /usr/local/Cellar/gcc-arm-none-eabi-49/20150609/bin/../lib/gcc/arm-none-eabi/4.9.3/../../../../arm-none-eabi/lib/armv7e-m/fpu/libg.a(lib_a-memset.o)

Cross Reference Table

Symbol                                            File
ADCD1                                             build/obj/adc_lld.o
ADCD2                                             build/obj/adc_lld.o
ADCD3                                             build/obj/adc_lld.o
ADC_AnalogWatchdogCmd                             build/obj/stm32f4xx_adc.o
ADC_AnalogWatchdogSingleChannelConfig             build/obj/stm32f4xx_adc.o
ADC_AnalogWatchdogThresholdsConfig                build/obj/stm32f4xx_adc.o
ADC_AutoInjectedConvCmd                           build/obj/stm32f4xx_adc.o
ADC_ClearFlag                                     build/obj/stm32f4xx_adc.o
ADC_ClearITPendingBit                             build/obj/stm32f4xx_adc.o
ADC_Cmd                                           build/obj/stm32f4xx_adc.o
ADC_CommonInit                                    build/obj/stm32f4xx_adc.o
ADC_CommonStructInit                              build/obj/stm32f4xx_adc.o
ADC_ContinuousModeCmd                             build/obj/stm32f4xx_adc.o
ADC_DMACmd                                        build/obj/stm32f4xx_adc.o
ADC_DMARequestAfterLastTransferCmd                build/obj/stm32f4xx_adc.o
ADC_DeInit                                        build/obj/stm32f4xx_adc.o
ADC_DiscModeChannelCountConfig                    build/obj/stm32f4xx_adc.o
ADC_DiscModeCmd                                   build/obj/stm32f4xx_adc.o
ADC_EOCOnEachRegularChannelCmd                    build/obj/stm32f4xx_adc.o
ADC_ExternalTrigInjectedConvConfig                build/obj/stm32f4xx_adc.o
ADC_ExternalTrigInjectedConvEdgeConfig            build/obj/stm32f4xx_adc.o
ADC_GetConversionValue                            build/obj/stm32f4xx_adc.o
ADC_GetFlagStatus                                 build/obj/stm32f4xx_adc.o
ADC_GetITStatus                                   build/obj/stm32f4xx_adc.o
ADC_GetInjectedConversionValue                    build/obj/stm32f4xx_adc.o
ADC_GetMultiModeConversionValue                   build/obj/stm32f4xx_adc.o
ADC_GetSoftwareStartConvStatus                    build/obj/stm32f4xx_adc.o
ADC_GetSoftwareStartInjectedConvCmdStatus         build/obj/stm32f4xx_adc.o
ADC_ITConfig                                      build/obj/stm32f4xx_adc.o
ADC_Init                                          build/obj/stm32f4xx_adc.o
ADC_InjectedChannelConfig                         build/obj/stm32f4xx_adc.o
ADC_InjectedDiscModeCmd                           build/obj/stm32f4xx_adc.o
ADC_InjectedSequencerLengthConfig                 build/obj/stm32f4xx_adc.o
ADC_MultiModeDMARequestAfterLastTransferCmd       build/obj/stm32f4xx_adc.o
ADC_RegularChannelConfig                          build/obj/stm32f4xx_adc.o
ADC_SetInjectedOffset                             build/obj/stm32f4xx_adc.o
ADC_SoftwareStartConv                             build/obj/stm32f4xx_adc.o
ADC_SoftwareStartInjectedConv                     build/obj/stm32f4xx_adc.o
ADC_StructInit                                    build/obj/stm32f4xx_adc.o
ADC_TempSensorVrefintCmd                          build/obj/stm32f4xx_adc.o
ADC_VBATCmd                                       build/obj/stm32f4xx_adc.o
BusFault_Handler                                  build/obj/vectors.o
DMA_ClearFlag                                     build/obj/stm32f4xx_dma.o
DMA_ClearITPendingBit                             build/obj/stm32f4xx_dma.o
DMA_Cmd                                           build/obj/stm32f4xx_dma.o
                                                  build/obj/ws2812b.o
DMA_DeInit                                        build/obj/stm32f4xx_dma.o
                                                  build/obj/ws2812b.o
DMA_DoubleBufferModeCmd                           build/obj/stm32f4xx_dma.o
DMA_DoubleBufferModeConfig                        build/obj/stm32f4xx_dma.o
DMA_FlowControllerConfig                          build/obj/stm32f4xx_dma.o
DMA_GetCmdStatus                                  build/obj/stm32f4xx_dma.o
DMA_GetCurrDataCounter                            build/obj/stm32f4xx_dma.o
DMA_GetCurrentMemoryTarget                        build/obj/stm32f4xx_dma.o
DMA_GetFIFOStatus                                 build/obj/stm32f4xx_dma.o
DMA_GetFlagStatus                                 build/obj/stm32f4xx_dma.o
DMA_GetITStatus                                   build/obj/stm32f4xx_dma.o
DMA_ITConfig                                      build/obj/stm32f4xx_dma.o
DMA_Init                                          build/obj/stm32f4xx_dma.o
                                                  build/obj/ws2812b.o
DMA_MemoryTargetConfig                            build/obj/stm32f4xx_dma.o
DMA_PeriphIncOffsetSizeConfig                     build/obj/stm32f4xx_dma.o
DMA_SetCurrDataCounter                            build/obj/stm32f4xx_dma.o
DMA_StructInit                                    build/obj/stm32f4xx_dma.o
DebugMon_Handler                                  build/obj/vectors.o
EXTD1                                             build/obj/ext_lld.o
                                                  build/obj/nrf24l01.o
                                                  build/obj/ext_lld_isr.o
EXTI_ClearFlag                                    build/obj/stm32f4xx_exti.o
EXTI_ClearITPendingBit                            build/obj/stm32f4xx_exti.o
EXTI_DeInit                                       build/obj/stm32f4xx_exti.o
EXTI_GenerateSWInterrupt                          build/obj/stm32f4xx_exti.o
EXTI_GetFlagStatus                                build/obj/stm32f4xx_exti.o
EXTI_GetITStatus                                  build/obj/stm32f4xx_exti.o
EXTI_Init                                         build/obj/stm32f4xx_exti.o
EXTI_StructInit                                   build/obj/stm32f4xx_exti.o
FLASH_ClearFlag                                   build/obj/stm32f4xx_flash.o
FLASH_DataCacheCmd                                build/obj/stm32f4xx_flash.o
FLASH_DataCacheReset                              build/obj/stm32f4xx_flash.o
FLASH_EraseAllBank1Sectors                        build/obj/stm32f4xx_flash.o
FLASH_EraseAllBank2Sectors                        build/obj/stm32f4xx_flash.o
FLASH_EraseAllSectors                             build/obj/stm32f4xx_flash.o
FLASH_EraseSector                                 build/obj/stm32f4xx_flash.o
FLASH_GetFlagStatus                               build/obj/stm32f4xx_flash.o
FLASH_GetStatus                                   build/obj/stm32f4xx_flash.o
FLASH_ITConfig                                    build/obj/stm32f4xx_flash.o
FLASH_InstructionCacheCmd                         build/obj/stm32f4xx_flash.o
FLASH_InstructionCacheReset                       build/obj/stm32f4xx_flash.o
FLASH_Lock                                        build/obj/stm32f4xx_flash.o
FLASH_OB_BORConfig                                build/obj/stm32f4xx_flash.o
FLASH_OB_BootConfig                               build/obj/stm32f4xx_flash.o
FLASH_OB_GetBOR                                   build/obj/stm32f4xx_flash.o
FLASH_OB_GetPCROP                                 build/obj/stm32f4xx_flash.o
FLASH_OB_GetPCROP1                                build/obj/stm32f4xx_flash.o
FLASH_OB_GetRDP                                   build/obj/stm32f4xx_flash.o
FLASH_OB_GetUser                                  build/obj/stm32f4xx_flash.o
FLASH_OB_GetWRP                                   build/obj/stm32f4xx_flash.o
FLASH_OB_GetWRP1                                  build/obj/stm32f4xx_flash.o
FLASH_OB_Launch                                   build/obj/stm32f4xx_flash.o
FLASH_OB_Lock                                     build/obj/stm32f4xx_flash.o
FLASH_OB_PCROP1Config                             build/obj/stm32f4xx_flash.o
FLASH_OB_PCROPConfig                              build/obj/stm32f4xx_flash.o
FLASH_OB_PCROPSelectionConfig                     build/obj/stm32f4xx_flash.o
FLASH_OB_RDPConfig                                build/obj/stm32f4xx_flash.o
FLASH_OB_Unlock                                   build/obj/stm32f4xx_flash.o
FLASH_OB_UserConfig                               build/obj/stm32f4xx_flash.o
FLASH_OB_WRP1Config                               build/obj/stm32f4xx_flash.o
FLASH_OB_WRPConfig                                build/obj/stm32f4xx_flash.o
FLASH_PrefetchBufferCmd                           build/obj/stm32f4xx_flash.o
FLASH_ProgramByte                                 build/obj/stm32f4xx_flash.o
FLASH_ProgramDoubleWord                           build/obj/stm32f4xx_flash.o
FLASH_ProgramHalfWord                             build/obj/stm32f4xx_flash.o
FLASH_ProgramWord                                 build/obj/stm32f4xx_flash.o
FLASH_SetLatency                                  build/obj/stm32f4xx_flash.o
FLASH_Unlock                                      build/obj/stm32f4xx_flash.o
FLASH_WaitForLastOperation                        build/obj/stm32f4xx_flash.o
HardFault_Handler                                 build/obj/vectors.o
I2CD1                                             build/obj/i2c_lld.o
                                                  build/obj/bno055.o
MemManage_Handler                                 build/obj/vectors.o
NMI_Handler                                       build/obj/vectors.o
NVIC_Init                                         build/obj/misc.o
NVIC_PriorityGroupConfig                          build/obj/misc.o
NVIC_SetVectorTable                               build/obj/misc.o
NVIC_SystemLPConfig                               build/obj/misc.o
PWMD5                                             build/obj/pwm_lld.o
                                                  build/obj/esc.o
PendSV_Handler                                    build/obj/vectors.o
RCC_48MHzClockSourceConfig                        build/obj/stm32f4xx_rcc.o
RCC_AHB1ClockGatingCmd                            build/obj/stm32f4xx_rcc.o
RCC_AHB1PeriphClockCmd                            build/obj/stm32f4xx_rcc.o
                                                  build/obj/ws2812b.o
                                                  build/obj/main.o
RCC_AHB1PeriphClockLPModeCmd                      build/obj/stm32f4xx_rcc.o
RCC_AHB1PeriphResetCmd                            build/obj/stm32f4xx_rcc.o
RCC_AHB2PeriphClockCmd                            build/obj/stm32f4xx_rcc.o
RCC_AHB2PeriphClockLPModeCmd                      build/obj/stm32f4xx_rcc.o
RCC_AHB2PeriphResetCmd                            build/obj/stm32f4xx_rcc.o
RCC_AHB3PeriphClockCmd                            build/obj/stm32f4xx_rcc.o
RCC_AHB3PeriphClockLPModeCmd                      build/obj/stm32f4xx_rcc.o
RCC_AHB3PeriphResetCmd                            build/obj/stm32f4xx_rcc.o
RCC_APB1PeriphClockCmd                            build/obj/stm32f4xx_rcc.o
                                                  build/obj/ws2812b.o
RCC_APB1PeriphClockLPModeCmd                      build/obj/stm32f4xx_rcc.o
RCC_APB1PeriphResetCmd                            build/obj/stm32f4xx_rcc.o
                                                  build/obj/stm32f4xx_wwdg.o
                                                  build/obj/stm32f4xx_tim.o
RCC_APB2PeriphClockCmd                            build/obj/stm32f4xx_rcc.o
RCC_APB2PeriphClockLPModeCmd                      build/obj/stm32f4xx_rcc.o
RCC_APB2PeriphResetCmd                            build/obj/stm32f4xx_rcc.o
                                                  build/obj/stm32f4xx_tim.o
                                                  build/obj/stm32f4xx_syscfg.o
                                                  build/obj/stm32f4xx_adc.o
RCC_AdjustHSICalibrationValue                     build/obj/stm32f4xx_rcc.o
RCC_BackupResetCmd                                build/obj/stm32f4xx_rcc.o
RCC_CECClockSourceConfig                          build/obj/stm32f4xx_rcc.o
RCC_ClearFlag                                     build/obj/stm32f4xx_rcc.o
RCC_ClearITPendingBit                             build/obj/stm32f4xx_rcc.o
RCC_ClockSecuritySystemCmd                        build/obj/stm32f4xx_rcc.o
RCC_DeInit                                        build/obj/stm32f4xx_rcc.o
RCC_FMPI2C1ClockSourceConfig                      build/obj/stm32f4xx_rcc.o
RCC_GetClocksFreq                                 build/obj/stm32f4xx_rcc.o
RCC_GetFlagStatus                                 build/obj/stm32f4xx_rcc.o
RCC_GetITStatus                                   build/obj/stm32f4xx_rcc.o
RCC_GetSYSCLKSource                               build/obj/stm32f4xx_rcc.o
RCC_HCLKConfig                                    build/obj/stm32f4xx_rcc.o
RCC_HSEConfig                                     build/obj/stm32f4xx_rcc.o
RCC_HSICmd                                        build/obj/stm32f4xx_rcc.o
RCC_I2SCLKConfig                                  build/obj/stm32f4xx_rcc.o
RCC_ITConfig                                      build/obj/stm32f4xx_rcc.o
RCC_LSEConfig                                     build/obj/stm32f4xx_rcc.o
RCC_LSEModeConfig                                 build/obj/stm32f4xx_rcc.o
RCC_LSICmd                                        build/obj/stm32f4xx_rcc.o
RCC_LTDCCLKDivConfig                              build/obj/stm32f4xx_rcc.o
RCC_MCO1Config                                    build/obj/stm32f4xx_rcc.o
RCC_MCO2Config                                    build/obj/stm32f4xx_rcc.o
RCC_PCLK1Config                                   build/obj/stm32f4xx_rcc.o
RCC_PCLK2Config                                   build/obj/stm32f4xx_rcc.o
RCC_PLLCmd                                        build/obj/stm32f4xx_rcc.o
RCC_PLLConfig                                     build/obj/stm32f4xx_rcc.o
RCC_PLLI2SCmd                                     build/obj/stm32f4xx_rcc.o
RCC_PLLI2SConfig                                  build/obj/stm32f4xx_rcc.o
RCC_PLLSAICmd                                     build/obj/stm32f4xx_rcc.o
RCC_PLLSAIConfig                                  build/obj/stm32f4xx_rcc.o
RCC_RTCCLKCmd                                     build/obj/stm32f4xx_rcc.o
RCC_RTCCLKConfig                                  build/obj/stm32f4xx_rcc.o
RCC_SAICLKConfig                                  build/obj/stm32f4xx_rcc.o
RCC_SAIPLLI2SClkDivConfig                         build/obj/stm32f4xx_rcc.o
RCC_SAIPLLSAIClkDivConfig                         build/obj/stm32f4xx_rcc.o
RCC_SDIOClockSourceConfig                         build/obj/stm32f4xx_rcc.o
RCC_SPDIFRXClockSourceConfig                      build/obj/stm32f4xx_rcc.o
RCC_SYSCLKConfig                                  build/obj/stm32f4xx_rcc.o
RCC_TIMCLKPresConfig                              build/obj/stm32f4xx_rcc.o
RCC_WaitForHSEStartUp                             build/obj/stm32f4xx_rcc.o
Reset_Handler                                     build/obj/crt0_v7m.o
                                                  build/obj/vectors.o
SDU1                                              build/obj/comm_usb.o
                                                  build/obj/main.o
SPID1                                             build/obj/spi_lld.o
                                                  build/obj/nrf24l01.o
SVC_Handler                                       build/obj/chcore_v7m.o
                                                  build/obj/vectors.o
SYSCFG_CompensationCellCmd                        build/obj/stm32f4xx_syscfg.o
SYSCFG_DeInit                                     build/obj/stm32f4xx_syscfg.o
SYSCFG_ETH_MediaInterfaceConfig                   build/obj/stm32f4xx_syscfg.o
SYSCFG_EXTILineConfig                             build/obj/stm32f4xx_syscfg.o
SYSCFG_GetCompensationCellStatus                  build/obj/stm32f4xx_syscfg.o
SYSCFG_MemoryRemapConfig                          build/obj/stm32f4xx_syscfg.o
SYSCFG_MemorySwappingBank                         build/obj/stm32f4xx_syscfg.o
SysTick_CLKSourceConfig                           build/obj/misc.o
SysTick_Handler                                   build/obj/st_lld.o
                                                  build/obj/vectors.o
SystemCoreClock                                   build/obj/hal_lld.o
TIM_ARRPreloadConfig                              build/obj/stm32f4xx_tim.o
TIM_BDTRConfig                                    build/obj/stm32f4xx_tim.o
TIM_BDTRStructInit                                build/obj/stm32f4xx_tim.o
TIM_CCPreloadControl                              build/obj/stm32f4xx_tim.o
TIM_CCxCmd                                        build/obj/stm32f4xx_tim.o
TIM_CCxNCmd                                       build/obj/stm32f4xx_tim.o
TIM_ClearFlag                                     build/obj/stm32f4xx_tim.o
TIM_ClearITPendingBit                             build/obj/stm32f4xx_tim.o
TIM_ClearOC1Ref                                   build/obj/stm32f4xx_tim.o
TIM_ClearOC2Ref                                   build/obj/stm32f4xx_tim.o
TIM_ClearOC3Ref                                   build/obj/stm32f4xx_tim.o
TIM_ClearOC4Ref                                   build/obj/stm32f4xx_tim.o
TIM_Cmd                                           build/obj/stm32f4xx_tim.o
                                                  build/obj/ws2812b.o
TIM_CounterModeConfig                             build/obj/stm32f4xx_tim.o
TIM_CtrlPWMOutputs                                build/obj/stm32f4xx_tim.o
                                                  build/obj/ws2812b.o
TIM_DMACmd                                        build/obj/stm32f4xx_tim.o
                                                  build/obj/ws2812b.o
TIM_DMAConfig                                     build/obj/stm32f4xx_tim.o
TIM_DeInit                                        build/obj/stm32f4xx_tim.o
TIM_ETRClockMode1Config                           build/obj/stm32f4xx_tim.o
TIM_ETRClockMode2Config                           build/obj/stm32f4xx_tim.o
TIM_ETRConfig                                     build/obj/stm32f4xx_tim.o
TIM_EncoderInterfaceConfig                        build/obj/stm32f4xx_tim.o
TIM_ForcedOC1Config                               build/obj/stm32f4xx_tim.o
TIM_ForcedOC2Config                               build/obj/stm32f4xx_tim.o
TIM_ForcedOC3Config                               build/obj/stm32f4xx_tim.o
TIM_ForcedOC4Config                               build/obj/stm32f4xx_tim.o
TIM_GenerateEvent                                 build/obj/stm32f4xx_tim.o
TIM_GetCapture1                                   build/obj/stm32f4xx_tim.o
TIM_GetCapture2                                   build/obj/stm32f4xx_tim.o
TIM_GetCapture3                                   build/obj/stm32f4xx_tim.o
TIM_GetCapture4                                   build/obj/stm32f4xx_tim.o
TIM_GetCounter                                    build/obj/stm32f4xx_tim.o
TIM_GetFlagStatus                                 build/obj/stm32f4xx_tim.o
TIM_GetITStatus                                   build/obj/stm32f4xx_tim.o
TIM_GetPrescaler                                  build/obj/stm32f4xx_tim.o
TIM_ICInit                                        build/obj/stm32f4xx_tim.o
TIM_ICStructInit                                  build/obj/stm32f4xx_tim.o
TIM_ITConfig                                      build/obj/stm32f4xx_tim.o
TIM_ITRxExternalClockConfig                       build/obj/stm32f4xx_tim.o
TIM_InternalClockConfig                           build/obj/stm32f4xx_tim.o
TIM_OC1FastConfig                                 build/obj/stm32f4xx_tim.o
TIM_OC1Init                                       build/obj/stm32f4xx_tim.o
TIM_OC1NPolarityConfig                            build/obj/stm32f4xx_tim.o
TIM_OC1PolarityConfig                             build/obj/stm32f4xx_tim.o
TIM_OC1PreloadConfig                              build/obj/stm32f4xx_tim.o
TIM_OC2FastConfig                                 build/obj/stm32f4xx_tim.o
TIM_OC2Init                                       build/obj/stm32f4xx_tim.o
TIM_OC2NPolarityConfig                            build/obj/stm32f4xx_tim.o
TIM_OC2PolarityConfig                             build/obj/stm32f4xx_tim.o
TIM_OC2PreloadConfig                              build/obj/stm32f4xx_tim.o
TIM_OC3FastConfig                                 build/obj/stm32f4xx_tim.o
TIM_OC3Init                                       build/obj/stm32f4xx_tim.o
                                                  build/obj/ws2812b.o
TIM_OC3NPolarityConfig                            build/obj/stm32f4xx_tim.o
TIM_OC3PolarityConfig                             build/obj/stm32f4xx_tim.o
TIM_OC3PreloadConfig                              build/obj/stm32f4xx_tim.o
                                                  build/obj/ws2812b.o
TIM_OC4FastConfig                                 build/obj/stm32f4xx_tim.o
TIM_OC4Init                                       build/obj/stm32f4xx_tim.o
TIM_OC4PolarityConfig                             build/obj/stm32f4xx_tim.o
TIM_OC4PreloadConfig                              build/obj/stm32f4xx_tim.o
TIM_OCStructInit                                  build/obj/stm32f4xx_tim.o
TIM_PWMIConfig                                    build/obj/stm32f4xx_tim.o
TIM_PrescalerConfig                               build/obj/stm32f4xx_tim.o
TIM_RemapConfig                                   build/obj/stm32f4xx_tim.o
TIM_SelectCCDMA                                   build/obj/stm32f4xx_tim.o
TIM_SelectCOM                                     build/obj/stm32f4xx_tim.o
TIM_SelectHallSensor                              build/obj/stm32f4xx_tim.o
TIM_SelectInputTrigger                            build/obj/stm32f4xx_tim.o
TIM_SelectMasterSlaveMode                         build/obj/stm32f4xx_tim.o
TIM_SelectOCxM                                    build/obj/stm32f4xx_tim.o
TIM_SelectOnePulseMode                            build/obj/stm32f4xx_tim.o
TIM_SelectOutputTrigger                           build/obj/stm32f4xx_tim.o
TIM_SelectSlaveMode                               build/obj/stm32f4xx_tim.o
TIM_SetAutoreload                                 build/obj/stm32f4xx_tim.o
TIM_SetClockDivision                              build/obj/stm32f4xx_tim.o
TIM_SetCompare1                                   build/obj/stm32f4xx_tim.o
TIM_SetCompare2                                   build/obj/stm32f4xx_tim.o
TIM_SetCompare3                                   build/obj/stm32f4xx_tim.o
TIM_SetCompare4                                   build/obj/stm32f4xx_tim.o
TIM_SetCounter                                    build/obj/stm32f4xx_tim.o
TIM_SetIC1Prescaler                               build/obj/stm32f4xx_tim.o
TIM_SetIC2Prescaler                               build/obj/stm32f4xx_tim.o
TIM_SetIC3Prescaler                               build/obj/stm32f4xx_tim.o
TIM_SetIC4Prescaler                               build/obj/stm32f4xx_tim.o
TIM_TIxExternalClockConfig                        build/obj/stm32f4xx_tim.o
TIM_TimeBaseInit                                  build/obj/stm32f4xx_tim.o
                                                  build/obj/ws2812b.o
TIM_TimeBaseStructInit                            build/obj/stm32f4xx_tim.o
TIM_UpdateDisableConfig                           build/obj/stm32f4xx_tim.o
TIM_UpdateRequestConfig                           build/obj/stm32f4xx_tim.o
USBD1                                             build/obj/usb_lld.o
                                                  build/obj/comm_usb.o
UsageFault_Handler                                build/obj/vectors.o
Vector100                                         build/obj/vectors.o
Vector104                                         build/obj/vectors.o
Vector108                                         build/obj/pwm_lld.o
                                                  build/obj/vectors.o
Vector10C                                         build/obj/vectors.o
Vector110                                         build/obj/vectors.o
Vector114                                         build/obj/vectors.o
Vector118                                         build/obj/vectors.o
Vector11C                                         build/obj/vectors.o
Vector120                                         build/obj/stm32_dma.o
                                                  build/obj/vectors.o
Vector124                                         build/obj/stm32_dma.o
                                                  build/obj/vectors.o
Vector128                                         build/obj/stm32_dma.o
                                                  build/obj/vectors.o
Vector12C                                         build/obj/stm32_dma.o
                                                  build/obj/vectors.o
Vector130                                         build/obj/stm32_dma.o
                                                  build/obj/vectors.o
Vector134                                         build/obj/vectors.o
Vector138                                         build/obj/vectors.o
Vector13C                                         build/obj/vectors.o
Vector140                                         build/obj/vectors.o
Vector144                                         build/obj/vectors.o
Vector148                                         build/obj/vectors.o
Vector14C                                         build/obj/usb_lld.o
                                                  build/obj/vectors.o
Vector150                                         build/obj/stm32_dma.o
                                                  build/obj/vectors.o
Vector154                                         build/obj/stm32_dma.o
                                                  build/obj/vectors.o
Vector158                                         build/obj/stm32_dma.o
                                                  build/obj/vectors.o
Vector15C                                         build/obj/vectors.o
Vector160                                         build/obj/vectors.o
Vector164                                         build/obj/vectors.o
Vector168                                         build/obj/vectors.o
Vector16C                                         build/obj/vectors.o
Vector170                                         build/obj/ext_lld_isr.o
                                                  build/obj/vectors.o
Vector174                                         build/obj/vectors.o
Vector178                                         build/obj/vectors.o
Vector17C                                         build/obj/vectors.o
Vector180                                         build/obj/vectors.o
Vector184                                         build/obj/vectors.o
Vector188                                         build/obj/vectors.o
Vector18C                                         build/obj/vectors.o
Vector190                                         build/obj/vectors.o
Vector194                                         build/obj/vectors.o
Vector198                                         build/obj/vectors.o
Vector19C                                         build/obj/vectors.o
Vector1A0                                         build/obj/vectors.o
Vector1A4                                         build/obj/vectors.o
Vector1A8                                         build/obj/vectors.o
Vector1AC                                         build/obj/vectors.o
Vector1B0                                         build/obj/vectors.o
Vector1B4                                         build/obj/vectors.o
Vector1B8                                         build/obj/vectors.o
Vector1BC                                         build/obj/vectors.o
Vector1C                                          build/obj/vectors.o
Vector20                                          build/obj/vectors.o
Vector24                                          build/obj/vectors.o
Vector28                                          build/obj/vectors.o
Vector34                                          build/obj/vectors.o
Vector40                                          build/obj/vectors.o
Vector44                                          build/obj/ext_lld_isr.o
                                                  build/obj/vectors.o
Vector48                                          build/obj/ext_lld_isr.o
                                                  build/obj/vectors.o
Vector4C                                          build/obj/ext_lld_isr.o
                                                  build/obj/vectors.o
Vector50                                          build/obj/vectors.o
Vector54                                          build/obj/vectors.o
Vector58                                          build/obj/ext_lld_isr.o
                                                  build/obj/vectors.o
Vector5C                                          build/obj/ext_lld_isr.o
                                                  build/obj/vectors.o
Vector60                                          build/obj/ext_lld_isr.o
                                                  build/obj/vectors.o
Vector64                                          build/obj/ext_lld_isr.o
                                                  build/obj/vectors.o
Vector68                                          build/obj/ext_lld_isr.o
                                                  build/obj/vectors.o
Vector6C                                          build/obj/stm32_dma.o
                                                  build/obj/vectors.o
Vector70                                          build/obj/stm32_dma.o
                                                  build/obj/vectors.o
Vector74                                          build/obj/stm32_dma.o
                                                  build/obj/vectors.o
Vector78                                          build/obj/stm32_dma.o
                                                  build/obj/vectors.o
Vector7C                                          build/obj/stm32_dma.o
                                                  build/obj/vectors.o
Vector80                                          build/obj/stm32_dma.o
                                                  build/obj/vectors.o
Vector84                                          build/obj/stm32_dma.o
                                                  build/obj/vectors.o
Vector88                                          build/obj/adc_lld.o
                                                  build/obj/vectors.o
Vector8C                                          build/obj/vectors.o
Vector90                                          build/obj/vectors.o
Vector94                                          build/obj/vectors.o
Vector98                                          build/obj/vectors.o
Vector9C                                          build/obj/ext_lld_isr.o
                                                  build/obj/vectors.o
VectorA0                                          build/obj/vectors.o
VectorA4                                          build/obj/vectors.o
VectorA8                                          build/obj/vectors.o
VectorAC                                          build/obj/vectors.o
VectorB0                                          build/obj/vectors.o
VectorB4                                          build/obj/vectors.o
VectorB8                                          build/obj/vectors.o
VectorBC                                          build/obj/i2c_lld.o
                                                  build/obj/vectors.o
VectorC0                                          build/obj/i2c_lld.o
                                                  build/obj/vectors.o
VectorC4                                          build/obj/vectors.o
VectorC8                                          build/obj/vectors.o
VectorCC                                          build/obj/vectors.o
VectorD0                                          build/obj/vectors.o
VectorD4                                          build/obj/vectors.o
VectorD8                                          build/obj/vectors.o
VectorDC                                          build/obj/vectors.o
VectorE0                                          build/obj/ext_lld_isr.o
                                                  build/obj/vectors.o
VectorE4                                          build/obj/ext_lld_isr.o
                                                  build/obj/vectors.o
VectorE8                                          build/obj/ext_lld_isr.o
                                                  build/obj/vectors.o
VectorEC                                          build/obj/vectors.o
VectorF0                                          build/obj/vectors.o
VectorF4                                          build/obj/vectors.o
VectorF8                                          build/obj/vectors.o
VectorFC                                          build/obj/stm32_dma.o
                                                  build/obj/vectors.o
WWDG_ClearFlag                                    build/obj/stm32f4xx_wwdg.o
WWDG_DeInit                                       build/obj/stm32f4xx_wwdg.o
WWDG_Enable                                       build/obj/stm32f4xx_wwdg.o
WWDG_EnableIT                                     build/obj/stm32f4xx_wwdg.o
WWDG_GetFlagStatus                                build/obj/stm32f4xx_wwdg.o
WWDG_SetCounter                                   build/obj/stm32f4xx_wwdg.o
WWDG_SetPrescaler                                 build/obj/stm32f4xx_wwdg.o
WWDG_SetWindowValue                               build/obj/stm32f4xx_wwdg.o
__adddf3                                          /usr/local/Cellar/gcc-arm-none-eabi-49/20150609/bin/../lib/gcc/arm-none-eabi/4.9.3/armv7e-m/fpu/libgcc.a(_arm_addsubdf3.o)
__aeabi_cdcmpeq                                   /usr/local/Cellar/gcc-arm-none-eabi-49/20150609/bin/../lib/gcc/arm-none-eabi/4.9.3/armv7e-m/fpu/libgcc.a(_arm_cmpdf2.o)
__aeabi_cdcmple                                   /usr/local/Cellar/gcc-arm-none-eabi-49/20150609/bin/../lib/gcc/arm-none-eabi/4.9.3/armv7e-m/fpu/libgcc.a(_arm_cmpdf2.o)
__aeabi_cdrcmple                                  /usr/local/Cellar/gcc-arm-none-eabi-49/20150609/bin/../lib/gcc/arm-none-eabi/4.9.3/armv7e-m/fpu/libgcc.a(_arm_cmpdf2.o)
__aeabi_d2f                                       /usr/local/Cellar/gcc-arm-none-eabi-49/20150609/bin/../lib/gcc/arm-none-eabi/4.9.3/armv7e-m/fpu/libgcc.a(_arm_truncdfsf2.o)
                                                  /usr/local/Cellar/gcc-arm-none-eabi-49/20150609/bin/../lib/gcc/arm-none-eabi/4.9.3/../../../../arm-none-eabi/lib/armv7e-m/fpu/libm.a(lib_a-wf_pow.o)
                                                  build/obj/chprintf.o
__aeabi_d2iz                                      /usr/local/Cellar/gcc-arm-none-eabi-49/20150609/bin/../lib/gcc/arm-none-eabi/4.9.3/armv7e-m/fpu/libgcc.a(_arm_fixdfsi.o)
                                                  build/obj/chprintf.o
__aeabi_d2uiz                                     /usr/local/Cellar/gcc-arm-none-eabi-49/20150609/bin/../lib/gcc/arm-none-eabi/4.9.3/armv7e-m/fpu/libgcc.a(_arm_fixunsdfsi.o)
                                                  build/obj/esc.o
__aeabi_dadd                                      /usr/local/Cellar/gcc-arm-none-eabi-49/20150609/bin/../lib/gcc/arm-none-eabi/4.9.3/armv7e-m/fpu/libgcc.a(_arm_addsubdf3.o)
                                                  /usr/local/Cellar/gcc-arm-none-eabi-49/20150609/bin/../lib/gcc/arm-none-eabi/4.9.3/../../../../arm-none-eabi/lib/armv7e-m/fpu/libm.a(lib_a-s_rint.o)
__aeabi_dcmpeq                                    /usr/local/Cellar/gcc-arm-none-eabi-49/20150609/bin/../lib/gcc/arm-none-eabi/4.9.3/armv7e-m/fpu/libgcc.a(_arm_cmpdf2.o)
                                                  /usr/local/Cellar/gcc-arm-none-eabi-49/20150609/bin/../lib/gcc/arm-none-eabi/4.9.3/../../../../arm-none-eabi/lib/armv7e-m/fpu/libm.a(lib_a-wf_pow.o)
__aeabi_dcmpge                                    /usr/local/Cellar/gcc-arm-none-eabi-49/20150609/bin/../lib/gcc/arm-none-eabi/4.9.3/armv7e-m/fpu/libgcc.a(_arm_cmpdf2.o)
__aeabi_dcmpgt                                    /usr/local/Cellar/gcc-arm-none-eabi-49/20150609/bin/../lib/gcc/arm-none-eabi/4.9.3/armv7e-m/fpu/libgcc.a(_arm_cmpdf2.o)
__aeabi_dcmple                                    /usr/local/Cellar/gcc-arm-none-eabi-49/20150609/bin/../lib/gcc/arm-none-eabi/4.9.3/armv7e-m/fpu/libgcc.a(_arm_cmpdf2.o)
__aeabi_dcmplt                                    /usr/local/Cellar/gcc-arm-none-eabi-49/20150609/bin/../lib/gcc/arm-none-eabi/4.9.3/armv7e-m/fpu/libgcc.a(_arm_cmpdf2.o)
__aeabi_ddiv                                      /usr/local/Cellar/gcc-arm-none-eabi-49/20150609/bin/../lib/gcc/arm-none-eabi/4.9.3/armv7e-m/fpu/libgcc.a(_arm_muldivdf3.o)
                                                  /usr/local/Cellar/gcc-arm-none-eabi-49/20150609/bin/../lib/gcc/arm-none-eabi/4.9.3/../../../../arm-none-eabi/lib/armv7e-m/fpu/libm.a(lib_a-wf_pow.o)
                                                  build/obj/esc.o
                                                  build/obj/bno055.o
__aeabi_dmul                                      /usr/local/Cellar/gcc-arm-none-eabi-49/20150609/bin/../lib/gcc/arm-none-eabi/4.9.3/armv7e-m/fpu/libgcc.a(_arm_muldivdf3.o)
                                                  build/obj/esc.o
                                                  build/obj/bno055.o
                                                  build/obj/chprintf.o
__aeabi_drsub                                     /usr/local/Cellar/gcc-arm-none-eabi-49/20150609/bin/../lib/gcc/arm-none-eabi/4.9.3/armv7e-m/fpu/libgcc.a(_arm_addsubdf3.o)
__aeabi_dsub                                      /usr/local/Cellar/gcc-arm-none-eabi-49/20150609/bin/../lib/gcc/arm-none-eabi/4.9.3/armv7e-m/fpu/libgcc.a(_arm_addsubdf3.o)
                                                  /usr/local/Cellar/gcc-arm-none-eabi-49/20150609/bin/../lib/gcc/arm-none-eabi/4.9.3/../../../../arm-none-eabi/lib/armv7e-m/fpu/libm.a(lib_a-s_rint.o)
                                                  build/obj/chprintf.o
__aeabi_f2d                                       /usr/local/Cellar/gcc-arm-none-eabi-49/20150609/bin/../lib/gcc/arm-none-eabi/4.9.3/armv7e-m/fpu/libgcc.a(_arm_addsubdf3.o)
                                                  /usr/local/Cellar/gcc-arm-none-eabi-49/20150609/bin/../lib/gcc/arm-none-eabi/4.9.3/../../../../arm-none-eabi/lib/armv7e-m/fpu/libm.a(lib_a-wf_pow.o)
                                                  build/obj/chprintf.o
__aeabi_i2d                                       /usr/local/Cellar/gcc-arm-none-eabi-49/20150609/bin/../lib/gcc/arm-none-eabi/4.9.3/armv7e-m/fpu/libgcc.a(_arm_addsubdf3.o)
                                                  build/obj/bno055.o
                                                  build/obj/chprintf.o
__aeabi_l2d                                       /usr/local/Cellar/gcc-arm-none-eabi-49/20150609/bin/../lib/gcc/arm-none-eabi/4.9.3/armv7e-m/fpu/libgcc.a(_arm_addsubdf3.o)
__aeabi_ui2d                                      /usr/local/Cellar/gcc-arm-none-eabi-49/20150609/bin/../lib/gcc/arm-none-eabi/4.9.3/armv7e-m/fpu/libgcc.a(_arm_addsubdf3.o)
                                                  build/obj/chprintf.o
__aeabi_ul2d                                      /usr/local/Cellar/gcc-arm-none-eabi-49/20150609/bin/../lib/gcc/arm-none-eabi/4.9.3/armv7e-m/fpu/libgcc.a(_arm_addsubdf3.o)
__cmpdf2                                          /usr/local/Cellar/gcc-arm-none-eabi-49/20150609/bin/../lib/gcc/arm-none-eabi/4.9.3/armv7e-m/fpu/libgcc.a(_arm_cmpdf2.o)
__core_init                                       build/obj/crt1.o
                                                  build/obj/crt0_v7m.o
__default_exit                                    build/obj/crt1.o
                                                  build/obj/crt0_v7m.o
__divdf3                                          /usr/local/Cellar/gcc-arm-none-eabi-49/20150609/bin/../lib/gcc/arm-none-eabi/4.9.3/armv7e-m/fpu/libgcc.a(_arm_muldivdf3.o)
__early_init                                      build/obj/board.o
                                                  build/obj/crt1.o
                                                  build/obj/crt0_v7m.o
__eqdf2                                           /usr/local/Cellar/gcc-arm-none-eabi-49/20150609/bin/../lib/gcc/arm-none-eabi/4.9.3/armv7e-m/fpu/libgcc.a(_arm_cmpdf2.o)
__errno                                           /usr/local/Cellar/gcc-arm-none-eabi-49/20150609/bin/../lib/gcc/arm-none-eabi/4.9.3/../../../../arm-none-eabi/lib/armv7e-m/fpu/libg.a(lib_a-errno.o)
                                                  /usr/local/Cellar/gcc-arm-none-eabi-49/20150609/bin/../lib/gcc/arm-none-eabi/4.9.3/../../../../arm-none-eabi/lib/armv7e-m/fpu/libm.a(lib_a-wf_pow.o)
__extendsfdf2                                     /usr/local/Cellar/gcc-arm-none-eabi-49/20150609/bin/../lib/gcc/arm-none-eabi/4.9.3/armv7e-m/fpu/libgcc.a(_arm_addsubdf3.o)
__fdlib_version                                   /usr/local/Cellar/gcc-arm-none-eabi-49/20150609/bin/../lib/gcc/arm-none-eabi/4.9.3/../../../../arm-none-eabi/lib/armv7e-m/fpu/libm.a(lib_a-s_lib_ver.o)
                                                  /usr/local/Cellar/gcc-arm-none-eabi-49/20150609/bin/../lib/gcc/arm-none-eabi/4.9.3/../../../../arm-none-eabi/lib/armv7e-m/fpu/libm.a(lib_a-wf_pow.o)
__fini_array_end                                  build/obj/crt0_v7m.o
__fini_array_start                                build/obj/crt0_v7m.o
__fixdfsi                                         /usr/local/Cellar/gcc-arm-none-eabi-49/20150609/bin/../lib/gcc/arm-none-eabi/4.9.3/armv7e-m/fpu/libgcc.a(_arm_fixdfsi.o)
__fixunsdfsi                                      /usr/local/Cellar/gcc-arm-none-eabi-49/20150609/bin/../lib/gcc/arm-none-eabi/4.9.3/armv7e-m/fpu/libgcc.a(_arm_fixunsdfsi.o)
__floatdidf                                       /usr/local/Cellar/gcc-arm-none-eabi-49/20150609/bin/../lib/gcc/arm-none-eabi/4.9.3/armv7e-m/fpu/libgcc.a(_arm_addsubdf3.o)
__floatsidf                                       /usr/local/Cellar/gcc-arm-none-eabi-49/20150609/bin/../lib/gcc/arm-none-eabi/4.9.3/armv7e-m/fpu/libgcc.a(_arm_addsubdf3.o)
__floatundidf                                     /usr/local/Cellar/gcc-arm-none-eabi-49/20150609/bin/../lib/gcc/arm-none-eabi/4.9.3/armv7e-m/fpu/libgcc.a(_arm_addsubdf3.o)
__floatunsidf                                     /usr/local/Cellar/gcc-arm-none-eabi-49/20150609/bin/../lib/gcc/arm-none-eabi/4.9.3/armv7e-m/fpu/libgcc.a(_arm_addsubdf3.o)
__fpclassifyf                                     /usr/local/Cellar/gcc-arm-none-eabi-49/20150609/bin/../lib/gcc/arm-none-eabi/4.9.3/../../../../arm-none-eabi/lib/armv7e-m/fpu/libm.a(lib_a-sf_fpclassify.o)
                                                  /usr/local/Cellar/gcc-arm-none-eabi-49/20150609/bin/../lib/gcc/arm-none-eabi/4.9.3/../../../../arm-none-eabi/lib/armv7e-m/fpu/libm.a(lib_a-wf_pow.o)
__gedf2                                           /usr/local/Cellar/gcc-arm-none-eabi-49/20150609/bin/../lib/gcc/arm-none-eabi/4.9.3/armv7e-m/fpu/libgcc.a(_arm_cmpdf2.o)
__gtdf2                                           /usr/local/Cellar/gcc-arm-none-eabi-49/20150609/bin/../lib/gcc/arm-none-eabi/4.9.3/armv7e-m/fpu/libgcc.a(_arm_cmpdf2.o)
__heap_base__                                     build/obj/chmemcore.o
__heap_end__                                      build/obj/chmemcore.o
__ieee754_powf                                    /usr/local/Cellar/gcc-arm-none-eabi-49/20150609/bin/../lib/gcc/arm-none-eabi/4.9.3/../../../../arm-none-eabi/lib/armv7e-m/fpu/libm.a(lib_a-ef_pow.o)
                                                  /usr/local/Cellar/gcc-arm-none-eabi-49/20150609/bin/../lib/gcc/arm-none-eabi/4.9.3/../../../../arm-none-eabi/lib/armv7e-m/fpu/libm.a(lib_a-wf_pow.o)
__ieee754_sqrtf                                   /usr/local/Cellar/gcc-arm-none-eabi-49/20150609/bin/../lib/gcc/arm-none-eabi/4.9.3/../../../../arm-none-eabi/lib/armv7e-m/fpu/libm.a(lib_a-ef_sqrt.o)
                                                  /usr/local/Cellar/gcc-arm-none-eabi-49/20150609/bin/../lib/gcc/arm-none-eabi/4.9.3/../../../../arm-none-eabi/lib/armv7e-m/fpu/libm.a(lib_a-ef_pow.o)
__init_array_end                                  build/obj/crt0_v7m.o
__init_array_start                                build/obj/crt0_v7m.o
__init_ram_areas                                  build/obj/crt1.o
                                                  build/obj/crt0_v7m.o
__late_init                                       build/obj/crt1.o
                                                  build/obj/crt0_v7m.o
__ledf2                                           /usr/local/Cellar/gcc-arm-none-eabi-49/20150609/bin/../lib/gcc/arm-none-eabi/4.9.3/armv7e-m/fpu/libgcc.a(_arm_cmpdf2.o)
__ltdf2                                           /usr/local/Cellar/gcc-arm-none-eabi-49/20150609/bin/../lib/gcc/arm-none-eabi/4.9.3/armv7e-m/fpu/libgcc.a(_arm_cmpdf2.o)
__main_stack_base__                               build/obj/crt0_v7m.o
__main_stack_end__                                build/obj/vectors.o
                                                  build/obj/crt0_v7m.o
__muldf3                                          /usr/local/Cellar/gcc-arm-none-eabi-49/20150609/bin/../lib/gcc/arm-none-eabi/4.9.3/armv7e-m/fpu/libgcc.a(_arm_muldivdf3.o)
__nedf2                                           /usr/local/Cellar/gcc-arm-none-eabi-49/20150609/bin/../lib/gcc/arm-none-eabi/4.9.3/armv7e-m/fpu/libgcc.a(_arm_cmpdf2.o)
__process_stack_base__                            build/obj/crt0_v7m.o
__process_stack_end__                             build/obj/crt0_v7m.o
__ram0_clear__                                    build/obj/crt1.o
__ram0_init__                                     build/obj/crt1.o
__ram0_init_text__                                build/obj/crt1.o
__ram0_noinit__                                   build/obj/crt1.o
__ram1_clear__                                    build/obj/crt1.o
__ram1_init__                                     build/obj/crt1.o
__ram1_init_text__                                build/obj/crt1.o
__ram1_noinit__                                   build/obj/crt1.o
__ram2_clear__                                    build/obj/crt1.o
__ram2_init__                                     build/obj/crt1.o
__ram2_init_text__                                build/obj/crt1.o
__ram2_noinit__                                   build/obj/crt1.o
__ram3_clear__                                    build/obj/crt1.o
__ram3_init__                                     build/obj/crt1.o
__ram3_init_text__                                build/obj/crt1.o
__ram3_noinit__                                   build/obj/crt1.o
__ram4_clear__                                    build/obj/crt1.o
__ram4_init__                                     build/obj/crt1.o
__ram4_init_text__                                build/obj/crt1.o
__ram4_noinit__                                   build/obj/crt1.o
__ram5_clear__                                    build/obj/crt1.o
__ram5_init__                                     build/obj/crt1.o
__ram5_init_text__                                build/obj/crt1.o
__ram5_noinit__                                   build/obj/crt1.o
__ram6_clear__                                    build/obj/crt1.o
__ram6_init__                                     build/obj/crt1.o
__ram6_init_text__                                build/obj/crt1.o
__ram6_noinit__                                   build/obj/crt1.o
__ram7_clear__                                    build/obj/crt1.o
__ram7_init__                                     build/obj/crt1.o
__ram7_init_text__                                build/obj/crt1.o
__ram7_noinit__                                   build/obj/crt1.o
__subdf3                                          /usr/local/Cellar/gcc-arm-none-eabi-49/20150609/bin/../lib/gcc/arm-none-eabi/4.9.3/armv7e-m/fpu/libgcc.a(_arm_addsubdf3.o)
__truncdfsf2                                      /usr/local/Cellar/gcc-arm-none-eabi-49/20150609/bin/../lib/gcc/arm-none-eabi/4.9.3/armv7e-m/fpu/libgcc.a(_arm_truncdfsf2.o)
_bss_end                                          build/obj/crt0_v7m.o
_bss_start                                        build/obj/crt0_v7m.o
_close_r                                          build/obj/syscalls.o
_core_init                                        build/obj/chmemcore.o
                                                  build/obj/chsys.o
_data_end                                         build/obj/crt0_v7m.o
_data_start                                       build/obj/crt0_v7m.o
_fstat_r                                          build/obj/syscalls.o
_global_impure_ptr                                /usr/local/Cellar/gcc-arm-none-eabi-49/20150609/bin/../lib/gcc/arm-none-eabi/4.9.3/../../../../arm-none-eabi/lib/armv7e-m/fpu/libg.a(lib_a-impure.o)
_heap_init                                        build/obj/chheap.o
                                                  build/obj/chsys.o
_impure_ptr                                       /usr/local/Cellar/gcc-arm-none-eabi-49/20150609/bin/../lib/gcc/arm-none-eabi/4.9.3/../../../../arm-none-eabi/lib/armv7e-m/fpu/libg.a(lib_a-impure.o)
                                                  /usr/local/Cellar/gcc-arm-none-eabi-49/20150609/bin/../lib/gcc/arm-none-eabi/4.9.3/../../../../arm-none-eabi/lib/armv7e-m/fpu/libg.a(lib_a-errno.o)
_isatty_r                                         build/obj/syscalls.o
_lseek_r                                          build/obj/syscalls.o
_pal_lld_init                                     build/obj/pal_lld.o
                                                  build/obj/hal.o
_pal_lld_setgroupmode                             build/obj/pal_lld.o
                                                  build/obj/esc.o
                                                  build/obj/nrf24l01.o
                                                  build/obj/bno055.o
                                                  build/obj/ws2812b.o
                                                  build/obj/comm_usb.o
                                                  build/obj/main.o
                                                  build/obj/pal.o
_port_exit_from_isr                               build/obj/chcoreasm_v7m.o
                                                  build/obj/chcore_v7m.o
_port_irq_epilogue                                build/obj/chcore_v7m.o
                                                  build/obj/pwm_lld.o
                                                  build/obj/usb_lld.o
                                                  build/obj/i2c_lld.o
                                                  build/obj/ext_lld_isr.o
                                                  build/obj/adc_lld.o
                                                  build/obj/st_lld.o
                                                  build/obj/stm32_dma.o
_port_switch                                      build/obj/chcoreasm_v7m.o
                                                  build/obj/chschd.o
_port_switch_from_isr                             build/obj/chcoreasm_v7m.o
                                                  build/obj/chcore_v7m.o
_port_thread_start                                build/obj/chcoreasm_v7m.o
                                                  build/obj/chthreads.o
_read_r                                           build/obj/syscalls.o
_sbrk_r                                           build/obj/syscalls.o
_scheduler_init                                   build/obj/chschd.o
                                                  build/obj/chsys.o
_stm32_dma_streams                                build/obj/stm32_dma.o
                                                  build/obj/spi_lld.o
                                                  build/obj/i2c_lld.o
                                                  build/obj/adc_lld.o
_textdata_start                                   build/obj/crt0_v7m.o
_thread_init                                      build/obj/chthreads.o
                                                  build/obj/chsys.o
_tm_init                                          build/obj/chtm.o
                                                  build/obj/chsys.o
_unhandled_exception                              build/obj/vectors.o
_usb_ep0in                                        build/obj/usb.o
                                                  build/obj/usb_lld.o
_usb_ep0out                                       build/obj/usb.o
                                                  build/obj/usb_lld.o
_usb_ep0setup                                     build/obj/usb.o
                                                  build/obj/usb_lld.o
_usb_reset                                        build/obj/usb.o
                                                  build/obj/usb_lld.o
_usb_suspend                                      build/obj/usb.o
                                                  build/obj/usb_lld.o
_usb_wakeup                                       build/obj/usb.o
                                                  build/obj/usb_lld.o
_vectors                                          build/obj/vectors.o
_vt_init                                          build/obj/chvt.o
                                                  build/obj/chsys.o
_write_r                                          build/obj/syscalls.o
adcAcquireBus                                     build/obj/adc.o
adcConvert                                        build/obj/adc.o
adcInit                                           build/obj/adc.o
                                                  build/obj/hal.o
adcObjectInit                                     build/obj/adc.o
                                                  build/obj/adc_lld.o
adcReleaseBus                                     build/obj/adc.o
adcSTM32DisableTSVREFE                            build/obj/adc_lld.o
adcSTM32DisableVBATE                              build/obj/adc_lld.o
adcSTM32EnableTSVREFE                             build/obj/adc_lld.o
adcSTM32EnableVBATE                               build/obj/adc_lld.o
adcStart                                          build/obj/adc.o
adcStartConversion                                build/obj/adc.o
adcStartConversionI                               build/obj/adc.o
adcStop                                           build/obj/adc.o
adcStopConversion                                 build/obj/adc.o
adcStopConversionI                                build/obj/adc.o
adc_lld_init                                      build/obj/adc_lld.o
                                                  build/obj/adc.o
adc_lld_start                                     build/obj/adc_lld.o
                                                  build/obj/adc.o
adc_lld_start_conversion                          build/obj/adc_lld.o
                                                  build/obj/adc.o
adc_lld_stop                                      build/obj/adc_lld.o
                                                  build/obj/adc.o
adc_lld_stop_conversion                           build/obj/adc_lld.o
                                                  build/obj/adc.o
assert_param                                      build/obj/stm32f4xx_wwdg.o
                                                  build/obj/stm32f4xx_syscfg.o
                                                  build/obj/stm32f4xx_flash.o
                                                  build/obj/stm32f4xx_exti.o
                                                  build/obj/stm32f4xx_adc.o
                                                  build/obj/misc.o
bno055_get_error                                  build/obj/bno055.o
                                                  build/obj/main.o
bno055_get_status                                 build/obj/bno055.o
                                                  build/obj/main.o
bno055_get_vector                                 build/obj/bno055.o
                                                  build/obj/controller.o
                                                  build/obj/main.o
bno055_init                                       build/obj/bno055.o
                                                  build/obj/main.o
bno055_read_addr                                  build/obj/bno055.o
bno055_read_len                                   build/obj/bno055.o
bno055_write_addr                                 build/obj/bno055.o
boardInit                                         build/obj/board.o
                                                  build/obj/hal.o
ch                                                build/obj/chschd.o
                                                  build/obj/shell.o
                                                  build/obj/usb_lld.o
                                                  build/obj/i2c_lld.o
                                                  build/obj/hal_buffers.o
                                                  build/obj/chmsg.o
                                                  build/obj/chevents.o
                                                  build/obj/chcond.o
                                                  build/obj/chmtx.o
                                                  build/obj/chsem.o
                                                  build/obj/chregistry.o
                                                  build/obj/chtm.o
                                                  build/obj/chthreads.o
                                                  build/obj/chvt.o
                                                  build/obj/chsys.o
chCondBroadcast                                   build/obj/chcond.o
chCondBroadcastI                                  build/obj/chcond.o
chCondObjectInit                                  build/obj/chcond.o
chCondSignal                                      build/obj/chcond.o
chCondSignalI                                     build/obj/chcond.o
chCondWait                                        build/obj/chcond.o
chCondWaitS                                       build/obj/chcond.o
chCondWaitTimeout                                 build/obj/chcond.o
chCondWaitTimeoutS                                build/obj/chcond.o
chCoreAlloc                                       build/obj/chmemcore.o
                                                  build/obj/syscalls.o
                                                  build/obj/chheap.o
chCoreAllocI                                      build/obj/chmemcore.o
chCoreGetStatusX                                  build/obj/chmemcore.o
chEvtAddEvents                                    build/obj/chevents.o
chEvtBroadcastFlags                               build/obj/chevents.o
                                                  build/obj/nrf24l01.o
chEvtBroadcastFlagsI                              build/obj/chevents.o
                                                  build/obj/nrf24l01.o
                                                  build/obj/shell.o
                                                  build/obj/serial_usb.o
chEvtDispatch                                     build/obj/chevents.o
chEvtGetAndClearEvents                            build/obj/chevents.o
chEvtGetAndClearFlags                             build/obj/chevents.o
chEvtGetAndClearFlagsI                            build/obj/chevents.o
chEvtRegisterMaskWithFlags                        build/obj/chevents.o
                                                  build/obj/nrf24l01.o
chEvtSignal                                       build/obj/chevents.o
chEvtSignalI                                      build/obj/chevents.o
chEvtUnregister                                   build/obj/chevents.o
                                                  build/obj/nrf24l01.o
chEvtWaitAll                                      build/obj/chevents.o
chEvtWaitAllTimeout                               build/obj/chevents.o
chEvtWaitAny                                      build/obj/chevents.o
chEvtWaitAnyTimeout                               build/obj/chevents.o
chEvtWaitOne                                      build/obj/chevents.o
chEvtWaitOneTimeout                               build/obj/chevents.o
                                                  build/obj/nrf24l01.o
chHeapAlloc                                       build/obj/chheap.o
                                                  build/obj/chdynamic.o
chHeapFree                                        build/obj/chheap.o
                                                  build/obj/chdynamic.o
chHeapObjectInit                                  build/obj/chheap.o
chHeapStatus                                      build/obj/chheap.o
chIQGetTimeout                                    build/obj/chqueues.o
chIQObjectInit                                    build/obj/chqueues.o
chIQPutI                                          build/obj/chqueues.o
chIQReadTimeout                                   build/obj/chqueues.o
chIQResetI                                        build/obj/chqueues.o
chMBFetch                                         build/obj/chmboxes.o
chMBFetchI                                        build/obj/chmboxes.o
chMBFetchS                                        build/obj/chmboxes.o
chMBObjectInit                                    build/obj/chmboxes.o
chMBPost                                          build/obj/chmboxes.o
chMBPostAhead                                     build/obj/chmboxes.o
chMBPostAheadI                                    build/obj/chmboxes.o
chMBPostAheadS                                    build/obj/chmboxes.o
chMBPostI                                         build/obj/chmboxes.o
chMBPostS                                         build/obj/chmboxes.o
chMBReset                                         build/obj/chmboxes.o
chMBResetI                                        build/obj/chmboxes.o
chMsgRelease                                      build/obj/chmsg.o
chMsgSend                                         build/obj/chmsg.o
chMsgWait                                         build/obj/chmsg.o
chMtxLock                                         build/obj/chmtx.o
                                                  build/obj/spi.o
                                                  build/obj/i2c.o
                                                  build/obj/adc.o
                                                  build/obj/chheap.o
chMtxLockS                                        build/obj/chmtx.o
                                                  build/obj/chcond.o
chMtxObjectInit                                   build/obj/chmtx.o
                                                  build/obj/spi.o
                                                  build/obj/i2c.o
                                                  build/obj/adc.o
                                                  build/obj/chheap.o
chMtxTryLock                                      build/obj/chmtx.o
chMtxTryLockS                                     build/obj/chmtx.o
chMtxUnlock                                       build/obj/chmtx.o
                                                  build/obj/spi.o
                                                  build/obj/i2c.o
                                                  build/obj/adc.o
                                                  build/obj/chheap.o
chMtxUnlockAll                                    build/obj/chmtx.o
chMtxUnlockS                                      build/obj/chmtx.o
                                                  build/obj/chcond.o
chOQGetI                                          build/obj/chqueues.o
chOQObjectInit                                    build/obj/chqueues.o
chOQPutTimeout                                    build/obj/chqueues.o
chOQResetI                                        build/obj/chqueues.o
chOQWriteTimeout                                  build/obj/chqueues.o
chPoolAlloc                                       build/obj/chmempools.o
                                                  build/obj/chdynamic.o
chPoolAllocI                                      build/obj/chmempools.o
chPoolFree                                        build/obj/chmempools.o
                                                  build/obj/chdynamic.o
chPoolFreeI                                       build/obj/chmempools.o
chPoolLoadArray                                   build/obj/chmempools.o
chPoolObjectInit                                  build/obj/chmempools.o
chRegFirstThread                                  build/obj/chregistry.o
chRegNextThread                                   build/obj/chregistry.o
chSchDoReschedule                                 build/obj/chschd.o
                                                  build/obj/chcoreasm_v7m.o
chSchDoRescheduleAhead                            build/obj/chschd.o
chSchDoRescheduleBehind                           build/obj/chschd.o
                                                  build/obj/chthreads.o
chSchGoSleepS                                     build/obj/chschd.o
                                                  build/obj/chmsg.o
                                                  build/obj/chevents.o
                                                  build/obj/chcond.o
                                                  build/obj/chmtx.o
                                                  build/obj/chsem.o
                                                  build/obj/chthreads.o
chSchGoSleepTimeoutS                              build/obj/chschd.o
                                                  build/obj/chevents.o
                                                  build/obj/chcond.o
                                                  build/obj/chsem.o
                                                  build/obj/chthreads.o
chSchIsPreemptionRequired                         build/obj/chschd.o
                                                  build/obj/chcore_v7m.o
chSchReadyI                                       build/obj/chschd.o
                                                  build/obj/usb_lld.o
                                                  build/obj/chmsg.o
                                                  build/obj/chevents.o
                                                  build/obj/chcond.o
                                                  build/obj/chmtx.o
                                                  build/obj/chsem.o
                                                  build/obj/chthreads.o
chSchRescheduleS                                  build/obj/chschd.o
                                                  build/obj/usb_lld.o
                                                  build/obj/usb.o
                                                  build/obj/serial_usb.o
                                                  build/obj/chmboxes.o
                                                  build/obj/chevents.o
                                                  build/obj/chcond.o
                                                  build/obj/chmtx.o
                                                  build/obj/chsem.o
                                                  build/obj/chthreads.o
                                                  build/obj/chsys.o
chSchWakeupS                                      build/obj/chschd.o
                                                  build/obj/chmsg.o
                                                  build/obj/chcond.o
                                                  build/obj/chsem.o
                                                  build/obj/chdynamic.o
                                                  build/obj/chthreads.o
chSemAddCounterI                                  build/obj/chsem.o
chSemObjectInit                                   build/obj/chsem.o
                                                  build/obj/chmboxes.o
chSemReset                                        build/obj/chsem.o
chSemResetI                                       build/obj/chsem.o
                                                  build/obj/chmboxes.o
chSemSignal                                       build/obj/chsem.o
chSemSignalI                                      build/obj/chsem.o
                                                  build/obj/chmboxes.o
chSemSignalWait                                   build/obj/chsem.o
chSemWait                                         build/obj/chsem.o
chSemWaitS                                        build/obj/chsem.o
chSemWaitTimeout                                  build/obj/chsem.o
chSemWaitTimeoutS                                 build/obj/chsem.o
                                                  build/obj/chmboxes.o
chSysGetStatusAndLockX                            build/obj/chsys.o
chSysHalt                                         build/obj/chsys.o
                                                  build/obj/spi_lld.o
                                                  build/obj/i2c_lld.o
chSysInit                                         build/obj/chsys.o
                                                  build/obj/main.o
chSysIntegrityCheckI                              build/obj/chsys.o
chSysIsCounterWithinX                             build/obj/chsys.o
chSysPolledDelayX                                 build/obj/chsys.o
                                                  build/obj/usb_lld.o
chSysRestoreStatusX                               build/obj/chsys.o
chSysTimerHandlerI                                build/obj/chsys.o
                                                  build/obj/st_lld.o
chTMChainMeasurementToX                           build/obj/chtm.o
chTMObjectInit                                    build/obj/chtm.o
chTMStartMeasurementX                             build/obj/chtm.o
chTMStopMeasurementX                              build/obj/chtm.o
chThdAddRef                                       build/obj/chdynamic.o
chThdCreateFromHeap                               build/obj/chdynamic.o
                                                  build/obj/shell.o
chThdCreateFromMemoryPool                         build/obj/chdynamic.o
chThdCreateI                                      build/obj/chthreads.o
                                                  build/obj/usb_lld.o
                                                  build/obj/chdynamic.o
chThdCreateStatic                                 build/obj/chthreads.o
                                                  build/obj/shell.o
                                                  build/obj/chsys.o
chThdDequeueAllI                                  build/obj/chthreads.o
                                                  build/obj/hal_buffers.o
                                                  build/obj/chqueues.o
chThdDequeueNextI                                 build/obj/chthreads.o
                                                  build/obj/hal_buffers.o
                                                  build/obj/chqueues.o
chThdEnqueueTimeoutS                              build/obj/chthreads.o
                                                  build/obj/hal_buffers.o
                                                  build/obj/chqueues.o
chThdExit                                         build/obj/chthreads.o
                                                  build/obj/chcoreasm_v7m.o
chThdExitS                                        build/obj/chthreads.o
                                                  build/obj/shell.o
chThdRelease                                      build/obj/chdynamic.o
                                                  build/obj/chregistry.o
                                                  build/obj/chthreads.o
chThdResume                                       build/obj/chthreads.o
chThdResumeI                                      build/obj/chthreads.o
                                                  build/obj/spi_lld.o
                                                  build/obj/usb_lld.o
                                                  build/obj/i2c_lld.o
                                                  build/obj/adc_lld.o
                                                  build/obj/adc.o
chThdResumeS                                      build/obj/chthreads.o
                                                  build/obj/adc.o
chThdSetPriority                                  build/obj/chthreads.o
chThdSleep                                        build/obj/chthreads.o
                                                  build/obj/bno055.o
                                                  build/obj/comm_usb.o
                                                  build/obj/main.o
chThdSleepUntil                                   build/obj/chthreads.o
chThdSleepUntilWindowed                           build/obj/chthreads.o
chThdStart                                        build/obj/chthreads.o
chThdSuspendS                                     build/obj/chthreads.o
                                                  build/obj/usb_lld.o
                                                  build/obj/spi.o
                                                  build/obj/adc.o
chThdSuspendTimeoutS                              build/obj/chthreads.o
                                                  build/obj/i2c_lld.o
chThdTerminate                                    build/obj/chthreads.o
chThdWait                                         build/obj/chthreads.o
chThdYield                                        build/obj/chthreads.o
chVTDoResetI                                      build/obj/chvt.o
                                                  build/obj/chschd.o
chVTDoSetI                                        build/obj/chvt.o
                                                  build/obj/chschd.o
ch_debug                                          build/obj/chregistry.o
                                                  build/obj/chsys.o
chprintf                                          build/obj/chprintf.o
                                                  build/obj/main.o
                                                  build/obj/shell.o
chsnprintf                                        build/obj/chprintf.o
chvprintf                                         build/obj/chprintf.o
comm_usb_serial_init                              build/obj/comm_usb.o
                                                  build/obj/main.o
comm_usb_serial_is_active                         build/obj/comm_usb.o
                                                  build/obj/main.o
controller_update                                 build/obj/controller.o
                                                  build/obj/main.o
copysignf                                         /usr/local/Cellar/gcc-arm-none-eabi-49/20150609/bin/../lib/gcc/arm-none-eabi/4.9.3/../../../../arm-none-eabi/lib/armv7e-m/fpu/libm.a(lib_a-sf_copysign.o)
                                                  /usr/local/Cellar/gcc-arm-none-eabi-49/20150609/bin/../lib/gcc/arm-none-eabi/4.9.3/../../../../arm-none-eabi/lib/armv7e-m/fpu/libm.a(lib_a-sf_scalbn.o)
dmaInit                                           build/obj/stm32_dma.o
                                                  build/obj/hal_lld.o
dmaStreamAllocate                                 build/obj/stm32_dma.o
                                                  build/obj/spi_lld.o
                                                  build/obj/i2c_lld.o
                                                  build/obj/adc_lld.o
dmaStreamRelease                                  build/obj/stm32_dma.o
                                                  build/obj/spi_lld.o
                                                  build/obj/i2c_lld.o
                                                  build/obj/adc_lld.o
esc_init                                          build/obj/esc.o
                                                  build/obj/main.o
esc_set                                           build/obj/esc.o
esc_set_all                                       build/obj/esc.o
                                                  build/obj/main.o
extChannelDisable                                 build/obj/ext.o
extChannelEnable                                  build/obj/ext.o
                                                  build/obj/nrf24l01.o
extInit                                           build/obj/ext.o
                                                  build/obj/hal.o
extObjectInit                                     build/obj/ext.o
                                                  build/obj/ext_lld.o
extSetChannelModeI                                build/obj/ext.o
extStart                                          build/obj/ext.o
                                                  build/obj/nrf24l01.o
extStop                                           build/obj/ext.o
ext_lld_channel_disable                           build/obj/ext_lld.o
                                                  build/obj/ext.o
ext_lld_channel_enable                            build/obj/ext_lld.o
                                                  build/obj/ext.o
ext_lld_exti_irq_disable                          build/obj/ext_lld_isr.o
                                                  build/obj/ext_lld.o
ext_lld_exti_irq_enable                           build/obj/ext_lld_isr.o
                                                  build/obj/ext_lld.o
ext_lld_init                                      build/obj/ext_lld.o
                                                  build/obj/ext.o
ext_lld_start                                     build/obj/ext_lld.o
                                                  build/obj/ext.o
ext_lld_stop                                      build/obj/ext_lld.o
                                                  build/obj/ext.o
fabsf                                             /usr/local/Cellar/gcc-arm-none-eabi-49/20150609/bin/../lib/gcc/arm-none-eabi/4.9.3/../../../../arm-none-eabi/lib/armv7e-m/fpu/libm.a(lib_a-sf_fabs.o)
                                                  /usr/local/Cellar/gcc-arm-none-eabi-49/20150609/bin/../lib/gcc/arm-none-eabi/4.9.3/../../../../arm-none-eabi/lib/armv7e-m/fpu/libm.a(lib_a-ef_pow.o)
finitef                                           /usr/local/Cellar/gcc-arm-none-eabi-49/20150609/bin/../lib/gcc/arm-none-eabi/4.9.3/../../../../arm-none-eabi/lib/armv7e-m/fpu/libm.a(lib_a-sf_finite.o)
                                                  /usr/local/Cellar/gcc-arm-none-eabi-49/20150609/bin/../lib/gcc/arm-none-eabi/4.9.3/../../../../arm-none-eabi/lib/armv7e-m/fpu/libm.a(lib_a-wf_pow.o)
halInit                                           build/obj/hal.o
                                                  build/obj/main.o
hal_lld_init                                      build/obj/hal_lld.o
                                                  build/obj/hal.o
i2cAcquireBus                                     build/obj/i2c.o
                                                  build/obj/bno055.o
i2cGetErrors                                      build/obj/i2c.o
i2cInit                                           build/obj/i2c.o
                                                  build/obj/hal.o
i2cMasterReceiveTimeout                           build/obj/i2c.o
i2cMasterTransmitTimeout                          build/obj/i2c.o
                                                  build/obj/bno055.o
i2cObjectInit                                     build/obj/i2c.o
                                                  build/obj/i2c_lld.o
i2cReleaseBus                                     build/obj/i2c.o
                                                  build/obj/bno055.o
i2cStart                                          build/obj/i2c.o
                                                  build/obj/bno055.o
i2cStop                                           build/obj/i2c.o
i2c_lld_init                                      build/obj/i2c_lld.o
                                                  build/obj/i2c.o
i2c_lld_master_receive_timeout                    build/obj/i2c_lld.o
                                                  build/obj/i2c.o
i2c_lld_master_transmit_timeout                   build/obj/i2c_lld.o
                                                  build/obj/i2c.o
i2c_lld_start                                     build/obj/i2c_lld.o
                                                  build/obj/i2c.o
i2c_lld_stop                                      build/obj/i2c_lld.o
                                                  build/obj/i2c.o
ibqGetEmptyBufferI                                build/obj/hal_buffers.o
                                                  build/obj/serial_usb.o
ibqGetFullBufferTimeout                           build/obj/hal_buffers.o
ibqGetFullBufferTimeoutS                          build/obj/hal_buffers.o
ibqGetTimeout                                     build/obj/hal_buffers.o
                                                  build/obj/serial_usb.o
ibqObjectInit                                     build/obj/hal_buffers.o
                                                  build/obj/serial_usb.o
ibqPostFullBufferI                                build/obj/hal_buffers.o
                                                  build/obj/serial_usb.o
ibqReadTimeout                                    build/obj/hal_buffers.o
                                                  build/obj/serial_usb.o
ibqReleaseEmptyBuffer                             build/obj/hal_buffers.o
ibqReleaseEmptyBufferS                            build/obj/hal_buffers.o
ibqResetI                                         build/obj/hal_buffers.o
                                                  build/obj/serial_usb.o
initNRF24L01                                      build/obj/nrf24l01.o
                                                  build/obj/main.o
main                                              build/obj/main.o
                                                  build/obj/crt0_v7m.o
matherr                                           /usr/local/Cellar/gcc-arm-none-eabi-49/20150609/bin/../lib/gcc/arm-none-eabi/4.9.3/../../../../arm-none-eabi/lib/armv7e-m/fpu/libm.a(lib_a-s_matherr.o)
                                                  /usr/local/Cellar/gcc-arm-none-eabi-49/20150609/bin/../lib/gcc/arm-none-eabi/4.9.3/../../../../arm-none-eabi/lib/armv7e-m/fpu/libm.a(lib_a-wf_pow.o)
memcpy                                            /usr/local/Cellar/gcc-arm-none-eabi-49/20150609/bin/../lib/gcc/arm-none-eabi/4.9.3/../../../../arm-none-eabi/lib/armv7e-m/fpu/libg.a(lib_a-memcpy.o)
                                                  build/obj/hal_buffers.o
memset                                            /usr/local/Cellar/gcc-arm-none-eabi-49/20150609/bin/../lib/gcc/arm-none-eabi/4.9.3/../../../../arm-none-eabi/lib/armv7e-m/fpu/libg.a(lib_a-memset.o)
                                                  build/obj/syscalls.o
                                                  build/obj/usb.o
msObjectInit                                      build/obj/chprintf.o
nanf                                              /usr/local/Cellar/gcc-arm-none-eabi-49/20150609/bin/../lib/gcc/arm-none-eabi/4.9.3/../../../../arm-none-eabi/lib/armv7e-m/fpu/libm.a(lib_a-sf_nan.o)
                                                  /usr/local/Cellar/gcc-arm-none-eabi-49/20150609/bin/../lib/gcc/arm-none-eabi/4.9.3/../../../../arm-none-eabi/lib/armv7e-m/fpu/libm.a(lib_a-ef_pow.o)
nrf24l01                                          build/obj/nrf24l01.o
nrf24l01ClearIRQ                                  build/obj/nrf24l01.o
nrf24l01DisableDynamicPipeSize                    build/obj/nrf24l01.o
nrf24l01DisableDynamicSize                        build/obj/nrf24l01.o
nrf24l01EnableDynamicPipeSize                     build/obj/nrf24l01.o
nrf24l01EnableDynamicSize                         build/obj/nrf24l01.o
nrf24l01EnablePipes                               build/obj/nrf24l01.o
nrf24l01EnterRX                                   build/obj/nrf24l01.o
nrf24l01EnterStandby                              build/obj/nrf24l01.o
nrf24l01EnterTX                                   build/obj/nrf24l01.o
nrf24l01ExtIRQ                                    build/obj/nrf24l01.o
nrf24l01FlushRX                                   build/obj/nrf24l01.o
nrf24l01FlushTX                                   build/obj/nrf24l01.o
nrf24l01GetFIFOStatus                             build/obj/nrf24l01.o
nrf24l01GetSize                                   build/obj/nrf24l01.o
nrf24l01GetStatus                                 build/obj/nrf24l01.o
nrf24l01ObjectInit                                build/obj/nrf24l01.o
nrf24l01PowerDown                                 build/obj/nrf24l01.o
nrf24l01PowerUp                                   build/obj/nrf24l01.o
nrf24l01ReadAddressRegister                       build/obj/nrf24l01.o
nrf24l01ReadPayload                               build/obj/nrf24l01.o
nrf24l01ReadRegister                              build/obj/nrf24l01.o
nrf24l01SetChannel                                build/obj/nrf24l01.o
nrf24l01SetPayloadSize                            build/obj/nrf24l01.o
nrf24l01SetRXAddress                              build/obj/nrf24l01.o
nrf24l01SetTXAddress                              build/obj/nrf24l01.o
nrf24l01SetupRetransmit                           build/obj/nrf24l01.o
nrf24l01Start                                     build/obj/nrf24l01.o
nrf24l01ToggleFeatures                            build/obj/nrf24l01.o
nrf24l01WriteAddressRegister                      build/obj/nrf24l01.o
nrf24l01WritePayload                              build/obj/nrf24l01.o
nrf24l01WriteRegister                             build/obj/nrf24l01.o
nvicClearPending                                  build/obj/nvic.o
nvicDisableVector                                 build/obj/nvic.o
                                                  build/obj/pwm_lld.o
                                                  build/obj/usb_lld.o
                                                  build/obj/i2c_lld.o
                                                  build/obj/ext_lld_isr.o
                                                  build/obj/stm32_dma.o
nvicEnableVector                                  build/obj/nvic.o
                                                  build/obj/pwm_lld.o
                                                  build/obj/usb_lld.o
                                                  build/obj/i2c_lld.o
                                                  build/obj/ext_lld_isr.o
                                                  build/obj/adc_lld.o
                                                  build/obj/stm32_dma.o
nvicSetSystemHandlerPriority                      build/obj/nvic.o
                                                  build/obj/st_lld.o
obqFlush                                          build/obj/hal_buffers.o
obqGetEmptyBufferTimeout                          build/obj/hal_buffers.o
obqGetEmptyBufferTimeoutS                         build/obj/hal_buffers.o
obqGetFullBufferI                                 build/obj/hal_buffers.o
                                                  build/obj/serial_usb.o
obqObjectInit                                     build/obj/hal_buffers.o
                                                  build/obj/serial_usb.o
obqPostFullBuffer                                 build/obj/hal_buffers.o
obqPostFullBufferS                                build/obj/hal_buffers.o
obqPutTimeout                                     build/obj/hal_buffers.o
                                                  build/obj/serial_usb.o
obqReleaseEmptyBufferI                            build/obj/hal_buffers.o
                                                  build/obj/serial_usb.o
obqResetI                                         build/obj/hal_buffers.o
                                                  build/obj/serial_usb.o
obqTryFlushI                                      build/obj/hal_buffers.o
                                                  build/obj/serial_usb.o
obqWriteTimeout                                   build/obj/hal_buffers.o
                                                  build/obj/serial_usb.o
palReadBus                                        build/obj/pal.o
palSetBusMode                                     build/obj/pal.o
palWriteBus                                       build/obj/pal.o
pal_default_config                                build/obj/board.o
                                                  build/obj/hal.o
powf                                              /usr/local/Cellar/gcc-arm-none-eabi-49/20150609/bin/../lib/gcc/arm-none-eabi/4.9.3/../../../../arm-none-eabi/lib/armv7e-m/fpu/libm.a(lib_a-wf_pow.o)
                                                  build/obj/ws2812b.o
pwmChangePeriod                                   build/obj/pwm.o
pwmDisableChannel                                 build/obj/pwm.o
pwmDisableChannelNotification                     build/obj/pwm.o
pwmDisablePeriodicNotification                    build/obj/pwm.o
pwmEnableChannel                                  build/obj/pwm.o
                                                  build/obj/esc.o
pwmEnableChannelNotification                      build/obj/pwm.o
pwmEnablePeriodicNotification                     build/obj/pwm.o
pwmInit                                           build/obj/pwm.o
                                                  build/obj/hal.o
pwmObjectInit                                     build/obj/pwm.o
                                                  build/obj/pwm_lld.o
pwmStart                                          build/obj/pwm.o
                                                  build/obj/esc.o
pwmStop                                           build/obj/pwm.o
pwm_lld_disable_channel                           build/obj/pwm_lld.o
                                                  build/obj/pwm.o
pwm_lld_disable_channel_notification              build/obj/pwm_lld.o
                                                  build/obj/pwm.o
pwm_lld_disable_periodic_notification             build/obj/pwm_lld.o
                                                  build/obj/pwm.o
pwm_lld_enable_channel                            build/obj/pwm_lld.o
                                                  build/obj/pwm.o
pwm_lld_enable_channel_notification               build/obj/pwm_lld.o
                                                  build/obj/pwm.o
pwm_lld_enable_periodic_notification              build/obj/pwm_lld.o
                                                  build/obj/pwm.o
pwm_lld_init                                      build/obj/pwm_lld.o
                                                  build/obj/pwm.o
pwm_lld_serve_interrupt                           build/obj/pwm_lld.o
pwm_lld_start                                     build/obj/pwm_lld.o
                                                  build/obj/pwm.o
pwm_lld_stop                                      build/obj/pwm_lld.o
                                                  build/obj/pwm.o
rint                                              /usr/local/Cellar/gcc-arm-none-eabi-49/20150609/bin/../lib/gcc/arm-none-eabi/4.9.3/../../../../arm-none-eabi/lib/armv7e-m/fpu/libm.a(lib_a-s_rint.o)
                                                  /usr/local/Cellar/gcc-arm-none-eabi-49/20150609/bin/../lib/gcc/arm-none-eabi/4.9.3/../../../../arm-none-eabi/lib/armv7e-m/fpu/libm.a(lib_a-wf_pow.o)
roundf                                            /usr/local/Cellar/gcc-arm-none-eabi-49/20150609/bin/../lib/gcc/arm-none-eabi/4.9.3/../../../../arm-none-eabi/lib/armv7e-m/fpu/libm.a(lib_a-sf_round.o)
                                                  build/obj/ws2812b.o
scalbnf                                           /usr/local/Cellar/gcc-arm-none-eabi-49/20150609/bin/../lib/gcc/arm-none-eabi/4.9.3/../../../../arm-none-eabi/lib/armv7e-m/fpu/libm.a(lib_a-sf_scalbn.o)
                                                  /usr/local/Cellar/gcc-arm-none-eabi-49/20150609/bin/../lib/gcc/arm-none-eabi/4.9.3/../../../../arm-none-eabi/lib/armv7e-m/fpu/libm.a(lib_a-ef_pow.o)
sduConfigureHookI                                 build/obj/serial_usb.o
                                                  build/obj/comm_usb.o
sduDataReceived                                   build/obj/serial_usb.o
                                                  build/obj/comm_usb.o
sduDataTransmitted                                build/obj/serial_usb.o
                                                  build/obj/comm_usb.o
sduDisconnectI                                    build/obj/serial_usb.o
                                                  build/obj/comm_usb.o
sduInit                                           build/obj/serial_usb.o
                                                  build/obj/hal.o
sduInterruptTransmitted                           build/obj/serial_usb.o
                                                  build/obj/comm_usb.o
sduObjectInit                                     build/obj/serial_usb.o
                                                  build/obj/comm_usb.o
sduRequestsHook                                   build/obj/serial_usb.o
                                                  build/obj/comm_usb.o
sduSOFHookI                                       build/obj/serial_usb.o
                                                  build/obj/comm_usb.o
sduStart                                          build/obj/serial_usb.o
                                                  build/obj/comm_usb.o
sduStop                                           build/obj/serial_usb.o
serusbcfg                                         build/obj/comm_usb.o
shellCreate                                       build/obj/shell.o
shellCreateStatic                                 build/obj/shell.o
shellExit                                         build/obj/shell.o
shellGetLine                                      build/obj/shell.o
shellInit                                         build/obj/shell.o
shell_terminated                                  build/obj/shell.o
spiAcquireBus                                     build/obj/spi.o
spiExchange                                       build/obj/spi.o
                                                  build/obj/nrf24l01.o
spiIgnore                                         build/obj/spi.o
spiInit                                           build/obj/spi.o
                                                  build/obj/hal.o
spiObjectInit                                     build/obj/spi.o
                                                  build/obj/spi_lld.o
spiReceive                                        build/obj/spi.o
                                                  build/obj/nrf24l01.o
spiReleaseBus                                     build/obj/spi.o
spiSelect                                         build/obj/spi.o
                                                  build/obj/nrf24l01.o
spiSend                                           build/obj/spi.o
                                                  build/obj/nrf24l01.o
spiStart                                          build/obj/spi.o
                                                  build/obj/nrf24l01.o
spiStartExchange                                  build/obj/spi.o
spiStartIgnore                                    build/obj/spi.o
spiStartReceive                                   build/obj/spi.o
spiStartSend                                      build/obj/spi.o
spiStop                                           build/obj/spi.o
spiUnselect                                       build/obj/spi.o
                                                  build/obj/nrf24l01.o
spi_lld_exchange                                  build/obj/spi_lld.o
                                                  build/obj/spi.o
spi_lld_ignore                                    build/obj/spi_lld.o
                                                  build/obj/spi.o
spi_lld_init                                      build/obj/spi_lld.o
                                                  build/obj/spi.o
spi_lld_polled_exchange                           build/obj/spi_lld.o
spi_lld_receive                                   build/obj/spi_lld.o
                                                  build/obj/spi.o
spi_lld_select                                    build/obj/spi_lld.o
                                                  build/obj/spi.o
spi_lld_send                                      build/obj/spi_lld.o
                                                  build/obj/spi.o
spi_lld_start                                     build/obj/spi_lld.o
                                                  build/obj/spi.o
spi_lld_stop                                      build/obj/spi_lld.o
                                                  build/obj/spi.o
spi_lld_unselect                                  build/obj/spi_lld.o
                                                  build/obj/spi.o
stGetAlarm                                        build/obj/st.o
stInit                                            build/obj/st.o
                                                  build/obj/hal.o
stSetAlarm                                        build/obj/st.o
stStartAlarm                                      build/obj/st.o
stStopAlarm                                       build/obj/st.o
st_lld_init                                       build/obj/st_lld.o
                                                  build/obj/st.o
stm32_clock_init                                  build/obj/hal_lld.o
                                                  build/obj/board.o
strcmp                                            /usr/local/Cellar/gcc-arm-none-eabi-49/20150609/bin/../lib/gcc/arm-none-eabi/4.9.3/../../../../arm-none-eabi/lib/armv7e-m/fpu/libg.a(lib_a-strcmp.o)
                                                  build/obj/shell.o
strpbrk                                           /usr/local/Cellar/gcc-arm-none-eabi-49/20150609/bin/../lib/gcc/arm-none-eabi/4.9.3/../../../../arm-none-eabi/lib/armv7e-m/fpu/libg.a(lib_a-strpbrk.o)
                                                  build/obj/shell.o
strspn                                            /usr/local/Cellar/gcc-arm-none-eabi-49/20150609/bin/../lib/gcc/arm-none-eabi/4.9.3/../../../../arm-none-eabi/lib/armv7e-m/fpu/libg.a(lib_a-strspn.o)
                                                  build/obj/shell.o
usbDisableEndpointsI                              build/obj/usb.o
usbInit                                           build/obj/usb.o
                                                  build/obj/hal.o
usbInitEndpointI                                  build/obj/usb.o
                                                  build/obj/comm_usb.o
usbObjectInit                                     build/obj/usb.o
                                                  build/obj/usb_lld.o
usbStallReceiveI                                  build/obj/usb.o
usbStallTransmitI                                 build/obj/usb.o
usbStart                                          build/obj/usb.o
                                                  build/obj/comm_usb.o
usbStartReceiveI                                  build/obj/usb.o
                                                  build/obj/serial_usb.o
usbStartTransmitI                                 build/obj/usb.o
                                                  build/obj/serial_usb.o
usbStop                                           build/obj/usb.o
usb_lld_clear_in                                  build/obj/usb_lld.o
                                                  build/obj/usb.o
usb_lld_clear_out                                 build/obj/usb_lld.o
                                                  build/obj/usb.o
usb_lld_disable_endpoints                         build/obj/usb_lld.o
                                                  build/obj/usb.o
usb_lld_get_status_in                             build/obj/usb_lld.o
                                                  build/obj/usb.o
usb_lld_get_status_out                            build/obj/usb_lld.o
                                                  build/obj/usb.o
usb_lld_init                                      build/obj/usb_lld.o
                                                  build/obj/usb.o
usb_lld_init_endpoint                             build/obj/usb_lld.o
                                                  build/obj/usb.o
usb_lld_pump                                      build/obj/usb_lld.o
usb_lld_read_setup                                build/obj/usb_lld.o
                                                  build/obj/usb.o
usb_lld_reset                                     build/obj/usb_lld.o
                                                  build/obj/usb.o
usb_lld_set_address                               build/obj/usb_lld.o
                                                  build/obj/usb.o
usb_lld_stall_in                                  build/obj/usb_lld.o
                                                  build/obj/usb.o
usb_lld_stall_out                                 build/obj/usb_lld.o
                                                  build/obj/usb.o
usb_lld_start                                     build/obj/usb_lld.o
                                                  build/obj/usb.o
usb_lld_start_in                                  build/obj/usb_lld.o
                                                  build/obj/usb.o
usb_lld_start_out                                 build/obj/usb_lld.o
                                                  build/obj/usb.o
usb_lld_stop                                      build/obj/usb_lld.o
                                                  build/obj/usb.o
ws2812b_all_off                                   build/obj/ws2812b.o
ws2812b_get_led_color                             build/obj/ws2812b.o
ws2812b_init                                      build/obj/ws2812b.o
                                                  build/obj/main.o
ws2812b_set_all                                   build/obj/ws2812b.o
ws2812b_set_led_color                             build/obj/ws2812b.o
                                                  build/obj/main.o
